ARM GAS  /tmp/ccmWdU6j.s 			page 1


   1              		.syntax unified
   2              		.cpu cortex-m4
   3              		.eabi_attribute 27, 1
   4              		.eabi_attribute 28, 1
   5              		.fpu fpv4-sp-d16
   6              		.eabi_attribute 20, 1
   7              		.eabi_attribute 21, 1
   8              		.eabi_attribute 23, 3
   9              		.eabi_attribute 24, 1
  10              		.eabi_attribute 25, 1
  11              		.eabi_attribute 26, 1
  12              		.eabi_attribute 30, 4
  13              		.eabi_attribute 34, 1
  14              		.eabi_attribute 18, 4
  15              		.thumb
  16              		.file	"board.c"
  17              		.text
  18              	.Ltext0:
  19              		.cfi_sections	.debug_frame
  20              		.section	.text.gpio_init,"ax",%progbits
  21              		.align	1
  22              		.thumb
  23              		.thumb_func
  24              		.type	gpio_init, %function
  25              	gpio_init:
  26              	.LFB323:
  27              		.file 1 "../../libraries/AP_HAL_ChibiOS/hwdef/common/board.c"
  28              		.loc 1 157 0
  29              		.cfi_startproc
  30              		@ args = 0, pretend = 0, frame = 0
  31              		@ frame_needed = 0, uses_anonymous_args = 0
  32              		@ link register save eliminated.
  33              	.LVL0:
  34              		.loc 1 159 0
  35 0000 4B68     		ldr	r3, [r1, #4]
  36 0002 4360     		str	r3, [r0, #4]
  37              		.loc 1 160 0
  38 0004 8B68     		ldr	r3, [r1, #8]
  39 0006 8360     		str	r3, [r0, #8]
  40              		.loc 1 161 0
  41 0008 CB68     		ldr	r3, [r1, #12]
  42 000a C360     		str	r3, [r0, #12]
  43              		.loc 1 162 0
  44 000c 0B69     		ldr	r3, [r1, #16]
  45 000e 4361     		str	r3, [r0, #20]
  46              		.loc 1 163 0
  47 0010 4B69     		ldr	r3, [r1, #20]
  48 0012 0362     		str	r3, [r0, #32]
  49              		.loc 1 164 0
  50 0014 8B69     		ldr	r3, [r1, #24]
  51 0016 4362     		str	r3, [r0, #36]
  52              		.loc 1 165 0
  53 0018 0B68     		ldr	r3, [r1]
  54 001a 0360     		str	r3, [r0]
  55 001c 7047     		bx	lr
  56              		.cfi_endproc
  57              	.LFE323:
ARM GAS  /tmp/ccmWdU6j.s 			page 2


  58              		.size	gpio_init, .-gpio_init
  59              		.section	.text.__early_init,"ax",%progbits
  60              		.align	1
  61              		.global	__early_init
  62              		.thumb
  63              		.thumb_func
  64              		.type	__early_init, %function
  65              	__early_init:
  66              	.LFB325:
  67              		.loc 1 223 0
  68              		.cfi_startproc
  69              		@ args = 0, pretend = 0, frame = 0
  70              		@ frame_needed = 0, uses_anonymous_args = 0
  71              	.LBB4:
  72              	.LBB5:
  73              		.loc 1 176 0
  74 0000 224B     		ldr	r3, .L3
  75              		.loc 1 182 0
  76 0002 2348     		ldr	r0, .L3+4
  77              		.loc 1 176 0
  78 0004 1969     		ldr	r1, [r3, #16]
  79 0006 40F2FF12 		movw	r2, #511
  80 000a 1143     		orrs	r1, r1, r2
  81              	.LBE5:
  82              	.LBE4:
  83              		.loc 1 223 0
  84 000c 10B5     		push	{r4, lr}
  85              		.cfi_def_cfa_offset 8
  86              		.cfi_offset 4, -8
  87              		.cfi_offset 14, -4
  88              	.LBB7:
  89              	.LBB6:
  90              		.loc 1 176 0
  91 000e 1961     		str	r1, [r3, #16]
  92 0010 1969     		ldr	r1, [r3, #16]
  93              		.loc 1 182 0
  94 0012 204C     		ldr	r4, .L3+8
  95              		.loc 1 176 0
  96 0014 21F4FF71 		bic	r1, r1, #510
  97 0018 21F00101 		bic	r1, r1, #1
  98 001c 1961     		str	r1, [r3, #16]
  99 001e 1969     		ldr	r1, [r3, #16]
 100              		.loc 1 177 0
 101 0020 196B     		ldr	r1, [r3, #48]
 102 0022 1143     		orrs	r1, r1, r2
 103 0024 1963     		str	r1, [r3, #48]
 104 0026 196D     		ldr	r1, [r3, #80]
 105 0028 0A43     		orrs	r2, r2, r1
 106 002a 1A65     		str	r2, [r3, #80]
 107              		.loc 1 182 0
 108 002c 2146     		mov	r1, r4
 109              		.loc 1 177 0
 110 002e 1B6D     		ldr	r3, [r3, #80]
 111              		.loc 1 182 0
 112 0030 FFF7FEFF 		bl	gpio_init
 113              	.LVL1:
 114              		.loc 1 185 0
ARM GAS  /tmp/ccmWdU6j.s 			page 3


 115 0034 04F11C01 		add	r1, r4, #28
 116 0038 1748     		ldr	r0, .L3+12
 117 003a FFF7FEFF 		bl	gpio_init
 118              	.LVL2:
 119              		.loc 1 188 0
 120 003e 04F13801 		add	r1, r4, #56
 121 0042 1648     		ldr	r0, .L3+16
 122 0044 FFF7FEFF 		bl	gpio_init
 123              	.LVL3:
 124              		.loc 1 191 0
 125 0048 04F15401 		add	r1, r4, #84
 126 004c 1448     		ldr	r0, .L3+20
 127 004e FFF7FEFF 		bl	gpio_init
 128              	.LVL4:
 129              		.loc 1 194 0
 130 0052 04F17001 		add	r1, r4, #112
 131 0056 1348     		ldr	r0, .L3+24
 132 0058 FFF7FEFF 		bl	gpio_init
 133              	.LVL5:
 134              		.loc 1 197 0
 135 005c 04F18C01 		add	r1, r4, #140
 136 0060 1148     		ldr	r0, .L3+28
 137 0062 FFF7FEFF 		bl	gpio_init
 138              	.LVL6:
 139              		.loc 1 200 0
 140 0066 04F1A801 		add	r1, r4, #168
 141 006a 1048     		ldr	r0, .L3+32
 142 006c FFF7FEFF 		bl	gpio_init
 143              	.LVL7:
 144              		.loc 1 203 0
 145 0070 04F1C401 		add	r1, r4, #196
 146 0074 0E48     		ldr	r0, .L3+36
 147 0076 FFF7FEFF 		bl	gpio_init
 148              	.LVL8:
 149              		.loc 1 206 0
 150 007a 04F1E001 		add	r1, r4, #224
 151 007e 0D48     		ldr	r0, .L3+40
 152 0080 FFF7FEFF 		bl	gpio_init
 153              	.LVL9:
 154              	.LBE6:
 155              	.LBE7:
 156              		.loc 1 231 0
 157 0084 BDE81040 		pop	{r4, lr}
 158              		.cfi_restore 14
 159              		.cfi_restore 4
 160              		.cfi_def_cfa_offset 0
 161              		.loc 1 227 0
 162 0088 FFF7FEBF 		b	stm32_clock_init
 163              	.LVL10:
 164              	.L4:
 165              		.align	2
 166              	.L3:
 167 008c 00380240 		.word	1073887232
 168 0090 00000240 		.word	1073872896
 169 0094 00000000 		.word	.LANCHOR0
 170 0098 00040240 		.word	1073873920
 171 009c 00080240 		.word	1073874944
ARM GAS  /tmp/ccmWdU6j.s 			page 4


 172 00a0 000C0240 		.word	1073875968
 173 00a4 00100240 		.word	1073876992
 174 00a8 00140240 		.word	1073878016
 175 00ac 00180240 		.word	1073879040
 176 00b0 001C0240 		.word	1073880064
 177 00b4 00200240 		.word	1073881088
 178              		.cfi_endproc
 179              	.LFE325:
 180              		.size	__early_init, .-__early_init
 181              		.section	.text.__late_init,"ax",%progbits
 182              		.align	1
 183              		.global	__late_init
 184              		.thumb
 185              		.thumb_func
 186              		.type	__late_init, %function
 187              	__late_init:
 188              	.LFB326:
 189              		.loc 1 233 0
 190              		.cfi_startproc
 191              		@ args = 0, pretend = 0, frame = 0
 192              		@ frame_needed = 0, uses_anonymous_args = 0
 193 0000 08B5     		push	{r3, lr}
 194              		.cfi_def_cfa_offset 8
 195              		.cfi_offset 3, -8
 196              		.cfi_offset 14, -4
 197              		.loc 1 234 0
 198 0002 FFF7FEFF 		bl	halInit
 199              	.LVL11:
 200              		.loc 1 235 0
 201 0006 FFF7FEFF 		bl	chSysInit
 202              	.LVL12:
 203              		.loc 1 237 0
 204 000a FFF7FEFF 		bl	malloc_init
 205              	.LVL13:
 206              		.loc 1 242 0
 207 000e BDE80840 		pop	{r3, lr}
 208              		.cfi_restore 14
 209              		.cfi_restore 3
 210              		.cfi_def_cfa_offset 0
 211              		.loc 1 240 0
 212 0012 FFF7FEBF 		b	setup_usb_strings
 213              	.LVL14:
 214              		.cfi_endproc
 215              	.LFE326:
 216              		.size	__late_init, .-__late_init
 217              		.section	.text.sdc_lld_is_card_inserted,"ax",%progbits
 218              		.align	1
 219              		.global	sdc_lld_is_card_inserted
 220              		.thumb
 221              		.thumb_func
 222              		.type	sdc_lld_is_card_inserted, %function
 223              	sdc_lld_is_card_inserted:
 224              	.LFB327:
 225              		.loc 1 248 0
 226              		.cfi_startproc
 227              		@ args = 0, pretend = 0, frame = 0
 228              		@ frame_needed = 0, uses_anonymous_args = 0
ARM GAS  /tmp/ccmWdU6j.s 			page 5


 229              		@ link register save eliminated.
 230              	.LVL15:
 231              		.loc 1 251 0
 232 0000 0120     		movs	r0, #1
 233              	.LVL16:
 234 0002 7047     		bx	lr
 235              		.cfi_endproc
 236              	.LFE327:
 237              		.size	sdc_lld_is_card_inserted, .-sdc_lld_is_card_inserted
 238              		.section	.text.sdc_lld_is_write_protected,"ax",%progbits
 239              		.align	1
 240              		.global	sdc_lld_is_write_protected
 241              		.thumb
 242              		.thumb_func
 243              		.type	sdc_lld_is_write_protected, %function
 244              	sdc_lld_is_write_protected:
 245              	.LFB328:
 246              		.loc 1 256 0
 247              		.cfi_startproc
 248              		@ args = 0, pretend = 0, frame = 0
 249              		@ frame_needed = 0, uses_anonymous_args = 0
 250              		@ link register save eliminated.
 251              	.LVL17:
 252              		.loc 1 260 0
 253 0000 0020     		movs	r0, #0
 254              	.LVL18:
 255 0002 7047     		bx	lr
 256              		.cfi_endproc
 257              	.LFE328:
 258              		.size	sdc_lld_is_write_protected, .-sdc_lld_is_write_protected
 259              		.section	.text.boardInit,"ax",%progbits
 260              		.align	1
 261              		.global	boardInit
 262              		.thumb
 263              		.thumb_func
 264              		.type	boardInit, %function
 265              	boardInit:
 266              	.LFB329:
 267              		.loc 1 287 0
 268              		.cfi_startproc
 269              		@ args = 0, pretend = 0, frame = 0
 270              		@ frame_needed = 0, uses_anonymous_args = 0
 271              		@ link register save eliminated.
 272 0000 7047     		bx	lr
 273              		.cfi_endproc
 274              	.LFE329:
 275              		.size	boardInit, .-boardInit
 276              		.section	.rodata.gpio_default_config,"a",%progbits
 277              		.align	2
 278              		.set	.LANCHOR0,. + 0
 279              		.type	gpio_default_config, %object
 280              		.size	gpio_default_config, 252
 281              	gpio_default_config:
 282 0000 FAAB81AA 		.word	-1434342406
 283 0004 00020000 		.word	512
 284 0008 AAAAAAAA 		.word	-1431655766
 285 000c 05000000 		.word	5
ARM GAS  /tmp/ccmWdU6j.s 			page 6


 286 0010 FFFE0000 		.word	65279
 287 0014 88005055 		.word	1431306376
 288 0018 00A00A10 		.word	269131776
 289 001c 0F20AAAA 		.word	-1431691249
 290 0020 000F0000 		.word	3840
 291 0024 AAAAAAAA 		.word	-1431655766
 292 0028 00440000 		.word	17408
 293 002c FFFF0000 		.word	65535
 294 0030 00000009 		.word	150994944
 295 0034 44445955 		.word	1431913540
 296 0038 D4AFAA56 		.word	1454026708
 297 003c 00000000 		.word	0
 298 0040 AAAAAAAA 		.word	-1431655766
 299 0044 14505554 		.word	1414877204
 300 0048 FFFF0000 		.word	65535
 301 004c 00000088 		.word	-2013265920
 302 0050 CCCC0C00 		.word	838860
 303 0054 AA699A29 		.word	697985450
 304 0058 00000000 		.word	0
 305 005c AAAA8AAA 		.word	-1433752918
 306 0060 50555501 		.word	22369616
 307 0064 FFFF0000 		.word	65535
 308 0068 997C7007 		.word	124812441
 309 006c 77702002 		.word	35680375
 310 0070 6AA98A29 		.word	696953194
 311 0074 00100000 		.word	4096
 312 0078 AAAAAAAA 		.word	-1431655766
 313 007c 05411140 		.word	1074872581
 314 0080 FFFF0000 		.word	65535
 315 0084 88055085 		.word	-2058353272
 316 0088 18101001 		.word	17829912
 317 008c 00000000 		.word	0
 318 0090 00000000 		.word	0
 319 0094 AAAAAAAA 		.word	-1431655766
 320 0098 00000000 		.word	0
 321 009c FFFF0000 		.word	65535
 322 00a0 00000000 		.word	0
 323 00a4 00000000 		.word	0
 324 00a8 00000000 		.word	0
 325 00ac 00000000 		.word	0
 326 00b0 AAAAAAAA 		.word	-1431655766
 327 00b4 00000000 		.word	0
 328 00b8 FFFF0000 		.word	65535
 329 00bc 00000000 		.word	0
 330 00c0 00000000 		.word	0
 331 00c4 00000000 		.word	0
 332 00c8 00000000 		.word	0
 333 00cc 0A000000 		.word	10
 334 00d0 00000000 		.word	0
 335 00d4 03000000 		.word	3
 336 00d8 00000000 		.word	0
 337 00dc 00000000 		.word	0
 338 00e0 00000000 		.word	0
 339 00e4 00000000 		.word	0
 340 00e8 00000000 		.word	0
 341 00ec 00000000 		.word	0
 342 00f0 00000000 		.word	0
ARM GAS  /tmp/ccmWdU6j.s 			page 7


 343 00f4 00000000 		.word	0
 344 00f8 00000000 		.word	0
 345              		.text
 346              	.Letext0:
 347              		.file 2 "/opt/gcc-arm-none-eabi-4_9-2015q3/lib/gcc/arm-none-eabi/4.9.3/include/stddef.h"
 348              		.file 3 "/opt/gcc-arm-none-eabi-4_9-2015q3/arm-none-eabi/include/machine/_default_types.h"
 349              		.file 4 "/opt/gcc-arm-none-eabi-4_9-2015q3/arm-none-eabi/include/sys/_stdint.h"
 350              		.file 5 "../../modules/ChibiOS/os/common/ports/ARMCMx/compilers/GCC/chtypes.h"
 351              		.file 6 "../../modules/ChibiOS/os/rt/include/chsystypes.h"
 352              		.file 7 "../../modules/ChibiOS/os/rt/include/chschd.h"
 353              		.file 8 "../../modules/ChibiOS/os/rt/include/chtime.h"
 354              		.file 9 "../../modules/ChibiOS/os/common/ext/ST/STM32F4xx/stm32f427xx.h"
 355              		.file 10 "../../modules/ChibiOS/os/common/ports/ARMCMx/chcore.h"
 356              		.file 11 "../../modules/ChibiOS/os/common/ports/ARMCMx/chcore_v7m.h"
 357              		.file 12 "../../modules/ChibiOS/os/rt/include/chtm.h"
 358              		.file 13 "../../modules/ChibiOS/os/rt/include/chstats.h"
 359              		.file 14 "../../modules/ChibiOS/os/rt/include/chsem.h"
 360              		.file 15 "../../modules/ChibiOS/os/rt/include/chmtx.h"
 361              		.file 16 "../../modules/ChibiOS/os/hal/ports/STM32/LLD/DMAv2/stm32_dma.h"
 362              		.file 17 "../../modules/ChibiOS/os/hal/include/hal_ioblock.h"
 363              		.file 18 "../../modules/ChibiOS/os/hal/ports/STM32/LLD/GPIOv2/stm32_gpio.h"
 364              		.file 19 "../../modules/ChibiOS/os/hal/include/hal_sdc.h"
 365              		.file 20 "../../modules/ChibiOS/os/hal/ports/STM32/LLD/SDIOv1/hal_sdc_lld.h"
 366              		.file 21 "../../modules/ChibiOS/os/hal/ports/STM32/STM32F4xx/hal_lld_type1.h"
 367              		.file 22 "../../modules/ChibiOS/os/hal/include/hal.h"
 368              		.file 23 "../../modules/ChibiOS/os/rt/include/chsys.h"
 369              		.file 24 "../../libraries/AP_HAL_ChibiOS/hwdef/common/stm32_util.h"
 370              		.file 25 "../../libraries/AP_HAL_ChibiOS/hwdef/common/usbcfg.h"
 371              		.file 26 "../../modules/ChibiOS/os/common/ext/ARM/CMSIS/Core/Include/core_cm4.h"