ARM GAS  /tmp/ccmWdU6j.s 			page 1


   1              		.syntax unified
   2              		.cpu cortex-m4
   3              		.eabi_attribute 27, 1
   4              		.eabi_attribute 28, 1
   5              		.fpu fpv4-sp-d16
   6              		.eabi_attribute 20, 1
   7              		.eabi_attribute 21, 1
   8              		.eabi_attribute 23, 3
   9              		.eabi_attribute 24, 1
  10              		.eabi_attribute 25, 1
  11              		.eabi_attribute 26, 1
  12              		.eabi_attribute 30, 4
  13              		.eabi_attribute 34, 1
  14              		.eabi_attribute 18, 4
  15              		.thumb
  16              		.file	"board.c"
  17              		.text
  18              	.Ltext0:
  19              		.cfi_sections	.debug_frame
  20              		.section	.text.gpio_init,"ax",%progbits
  21              		.align	1
  22              		.thumb
  23              		.thumb_func
  24              		.type	gpio_init, %function
  25              	gpio_init:
  26              	.LFB323:
  27              		.file 1 "../../libraries/AP_HAL_ChibiOS/hwdef/common/board.c"
  28              		.loc 1 157 0
  29              		.cfi_startproc
  30              		@ args = 0, pretend = 0, frame = 0
  31              		@ frame_needed = 0, uses_anonymous_args = 0
  32              		@ link register save eliminated.
  33              	.LVL0:
  34              		.loc 1 159 0
  35 0000 4B68     		ldr	r3, [r1, #4]
  36 0002 4360     		str	r3, [r0, #4]
  37              		.loc 1 160 0
  38 0004 8B68     		ldr	r3, [r1, #8]
  39 0006 8360     		str	r3, [r0, #8]
  40              		.loc 1 161 0
  41 0008 CB68     		ldr	r3, [r1, #12]
  42 000a C360     		str	r3, [r0, #12]
  43              		.loc 1 162 0
  44 000c 0B69     		ldr	r3, [r1, #16]
  45 000e 4361     		str	r3, [r0, #20]
  46              		.loc 1 163 0
  47 0010 4B69     		ldr	r3, [r1, #20]
  48 0012 0362     		str	r3, [r0, #32]
  49              		.loc 1 164 0
  50 0014 8B69     		ldr	r3, [r1, #24]
  51 0016 4362     		str	r3, [r0, #36]
  52              		.loc 1 165 0
  53 0018 0B68     		ldr	r3, [r1]
  54 001a 0360     		str	r3, [r0]
  55 001c 7047     		bx	lr
  56              		.cfi_endproc
  57              	.LFE323:
ARM GAS  /tmp/ccmWdU6j.s 			page 2


  58              		.size	gpio_init, .-gpio_init
  59              		.section	.text.__early_init,"ax",%progbits
  60              		.align	1
  61              		.global	__early_init
  62              		.thumb
  63              		.thumb_func
  64              		.type	__early_init, %function
  65              	__early_init:
  66              	.LFB325:
  67              		.loc 1 223 0
  68              		.cfi_startproc
  69              		@ args = 0, pretend = 0, frame = 0
  70              		@ frame_needed = 0, uses_anonymous_args = 0
  71              	.LBB4:
  72              	.LBB5:
  73              		.loc 1 176 0
  74 0000 224B     		ldr	r3, .L3
  75              		.loc 1 182 0
  76 0002 2348     		ldr	r0, .L3+4
  77              		.loc 1 176 0
  78 0004 1969     		ldr	r1, [r3, #16]
  79 0006 40F2FF12 		movw	r2, #511
  80 000a 1143     		orrs	r1, r1, r2
  81              	.LBE5:
  82              	.LBE4:
  83              		.loc 1 223 0
  84 000c 10B5     		push	{r4, lr}
  85              		.cfi_def_cfa_offset 8
  86              		.cfi_offset 4, -8
  87              		.cfi_offset 14, -4
  88              	.LBB7:
  89              	.LBB6:
  90              		.loc 1 176 0
  91 000e 1961     		str	r1, [r3, #16]
  92 0010 1969     		ldr	r1, [r3, #16]
  93              		.loc 1 182 0
  94 0012 204C     		ldr	r4, .L3+8
  95              		.loc 1 176 0
  96 0014 21F4FF71 		bic	r1, r1, #510
  97 0018 21F00101 		bic	r1, r1, #1
  98 001c 1961     		str	r1, [r3, #16]
  99 001e 1969     		ldr	r1, [r3, #16]
 100              		.loc 1 177 0
 101 0020 196B     		ldr	r1, [r3, #48]
 102 0022 1143     		orrs	r1, r1, r2
 103 0024 1963     		str	r1, [r3, #48]
 104 0026 196D     		ldr	r1, [r3, #80]
 105 0028 0A43     		orrs	r2, r2, r1
 106 002a 1A65     		str	r2, [r3, #80]
 107              		.loc 1 182 0
 108 002c 2146     		mov	r1, r4
 109              		.loc 1 177 0
 110 002e 1B6D     		ldr	r3, [r3, #80]
 111              		.loc 1 182 0
 112 0030 FFF7FEFF 		bl	gpio_init
 113              	.LVL1:
 114              		.loc 1 185 0
ARM GAS  /tmp/ccmWdU6j.s 			page 3


 115 0034 04F11C01 		add	r1, r4, #28
 116 0038 1748     		ldr	r0, .L3+12
 117 003a FFF7FEFF 		bl	gpio_init
 118              	.LVL2:
 119              		.loc 1 188 0
 120 003e 04F13801 		add	r1, r4, #56
 121 0042 1648     		ldr	r0, .L3+16
 122 0044 FFF7FEFF 		bl	gpio_init
 123              	.LVL3:
 124              		.loc 1 191 0
 125 0048 04F15401 		add	r1, r4, #84
 126 004c 1448     		ldr	r0, .L3+20
 127 004e FFF7FEFF 		bl	gpio_init
 128              	.LVL4:
 129              		.loc 1 194 0
 130 0052 04F17001 		add	r1, r4, #112
 131 0056 1348     		ldr	r0, .L3+24
 132 0058 FFF7FEFF 		bl	gpio_init
 133              	.LVL5:
 134              		.loc 1 197 0
 135 005c 04F18C01 		add	r1, r4, #140
 136 0060 1148     		ldr	r0, .L3+28
 137 0062 FFF7FEFF 		bl	gpio_init
 138              	.LVL6:
 139              		.loc 1 200 0
 140 0066 04F1A801 		add	r1, r4, #168
 141 006a 1048     		ldr	r0, .L3+32
 142 006c FFF7FEFF 		bl	gpio_init
 143              	.LVL7:
 144              		.loc 1 203 0
 145 0070 04F1C401 		add	r1, r4, #196
 146 0074 0E48     		ldr	r0, .L3+36
 147 0076 FFF7FEFF 		bl	gpio_init
 148              	.LVL8:
 149              		.loc 1 206 0
 150 007a 04F1E001 		add	r1, r4, #224
 151 007e 0D48     		ldr	r0, .L3+40
 152 0080 FFF7FEFF 		bl	gpio_init
 153              	.LVL9:
 154              	.LBE6:
 155              	.LBE7:
 156              		.loc 1 231 0
 157 0084 BDE81040 		pop	{r4, lr}
 158              		.cfi_restore 14
 159              		.cfi_restore 4
 160              		.cfi_def_cfa_offset 0
 161              		.loc 1 227 0
 162 0088 FFF7FEBF 		b	stm32_clock_init
 163              	.LVL10:
 164              	.L4:
 165              		.align	2
 166              	.L3:
 167 008c 00380240 		.word	1073887232
 168 0090 00000240 		.word	1073872896
 169 0094 00000000 		.word	.LANCHOR0
 170 0098 00040240 		.word	1073873920
 171 009c 00080240 		.word	1073874944
ARM GAS  /tmp/ccmWdU6j.s 			page 4


 172 00a0 000C0240 		.word	1073875968
 173 00a4 00100240 		.word	1073876992
 174 00a8 00140240 		.word	1073878016
 175 00ac 00180240 		.word	1073879040
 176 00b0 001C0240 		.word	1073880064
 177 00b4 00200240 		.word	1073881088
 178              		.cfi_endproc
 179              	.LFE325:
 180              		.size	__early_init, .-__early_init
 181              		.section	.text.__late_init,"ax",%progbits
 182              		.align	1
 183              		.global	__late_init
 184              		.thumb
 185              		.thumb_func
 186              		.type	__late_init, %function
 187              	__late_init:
 188              	.LFB326:
 189              		.loc 1 233 0
 190              		.cfi_startproc
 191              		@ args = 0, pretend = 0, frame = 0
 192              		@ frame_needed = 0, uses_anonymous_args = 0
 193 0000 08B5     		push	{r3, lr}
 194              		.cfi_def_cfa_offset 8
 195              		.cfi_offset 3, -8
 196              		.cfi_offset 14, -4
 197              		.loc 1 234 0
 198 0002 FFF7FEFF 		bl	halInit
 199              	.LVL11:
 200              		.loc 1 235 0
 201 0006 FFF7FEFF 		bl	chSysInit
 202              	.LVL12:
 203              		.loc 1 237 0
 204 000a FFF7FEFF 		bl	malloc_init
 205              	.LVL13:
 206              		.loc 1 242 0
 207 000e BDE80840 		pop	{r3, lr}
 208              		.cfi_restore 14
 209              		.cfi_restore 3
 210              		.cfi_def_cfa_offset 0
 211              		.loc 1 240 0
 212 0012 FFF7FEBF 		b	setup_usb_strings
 213              	.LVL14:
 214              		.cfi_endproc
 215              	.LFE326:
 216              		.size	__late_init, .-__late_init
 217              		.section	.text.sdc_lld_is_card_inserted,"ax",%progbits
 218              		.align	1
 219              		.global	sdc_lld_is_card_inserted
 220              		.thumb
 221              		.thumb_func
 222              		.type	sdc_lld_is_card_inserted, %function
 223              	sdc_lld_is_card_inserted:
 224              	.LFB327:
 225              		.loc 1 248 0
 226              		.cfi_startproc
 227              		@ args = 0, pretend = 0, frame = 0
 228              		@ frame_needed = 0, uses_anonymous_args = 0
ARM GAS  /tmp/ccmWdU6j.s 			page 5


 229              		@ link register save eliminated.
 230              	.LVL15:
 231              		.loc 1 251 0
 232 0000 0120     		movs	r0, #1
 233              	.LVL16:
 234 0002 7047     		bx	lr
 235              		.cfi_endproc
 236              	.LFE327:
 237              		.size	sdc_lld_is_card_inserted, .-sdc_lld_is_card_inserted
 238              		.section	.text.sdc_lld_is_write_protected,"ax",%progbits
 239              		.align	1
 240              		.global	sdc_lld_is_write_protected
 241              		.thumb
 242              		.thumb_func
 243              		.type	sdc_lld_is_write_protected, %function
 244              	sdc_lld_is_write_protected:
 245              	.LFB328:
 246              		.loc 1 256 0
 247              		.cfi_startproc
 248              		@ args = 0, pretend = 0, frame = 0
 249              		@ frame_needed = 0, uses_anonymous_args = 0
 250              		@ link register save eliminated.
 251              	.LVL17:
 252              		.loc 1 260 0
 253 0000 0020     		movs	r0, #0
 254              	.LVL18:
 255 0002 7047     		bx	lr
 256              		.cfi_endproc
 257              	.LFE328:
 258              		.size	sdc_lld_is_write_protected, .-sdc_lld_is_write_protected
 259              		.section	.text.boardInit,"ax",%progbits
 260              		.align	1
 261              		.global	boardInit
 262              		.thumb
 263              		.thumb_func
 264              		.type	boardInit, %function
 265              	boardInit:
 266              	.LFB329:
 267              		.loc 1 287 0
 268              		.cfi_startproc
 269              		@ args = 0, pretend = 0, frame = 0
 270              		@ frame_needed = 0, uses_anonymous_args = 0
 271              		@ link register save eliminated.
 272 0000 7047     		bx	lr
 273              		.cfi_endproc
 274              	.LFE329:
 275              		.size	boardInit, .-boardInit
 276              		.section	.rodata.gpio_default_config,"a",%progbits
 277              		.align	2
 278              		.set	.LANCHOR0,. + 0
 279              		.type	gpio_default_config, %object
 280              		.size	gpio_default_config, 252
 281              	gpio_default_config:
 282 0000 FAAB81AA 		.word	-1434342406
 283 0004 00020000 		.word	512
 284 0008 AAAAAAAA 		.word	-1431655766
 285 000c 05000000 		.word	5
ARM GAS  /tmp/ccmWdU6j.s 			page 6


 286 0010 FFFE0000 		.word	65279
 287 0014 88005055 		.word	1431306376
 288 0018 00A00A10 		.word	269131776
 289 001c 0F20AAAA 		.word	-1431691249
 290 0020 000F0000 		.word	3840
 291 0024 AAAAAAAA 		.word	-1431655766
 292 0028 00440000 		.word	17408
 293 002c FFFF0000 		.word	65535
 294 0030 00000009 		.word	150994944
 295 0034 44445955 		.word	1431913540
 296 0038 D4AFAA56 		.word	1454026708
 297 003c 00000000 		.word	0
 298 0040 AAAAAAAA 		.word	-1431655766
 299 0044 14505554 		.word	1414877204
 300 0048 FFFF0000 		.word	65535
 301 004c 00000088 		.word	-2013265920
 302 0050 CCCC0C00 		.word	838860
 303 0054 AA699A29 		.word	697985450
 304 0058 00000000 		.word	0
 305 005c AAAA8AAA 		.word	-1433752918
 306 0060 50555501 		.word	22369616
 307 0064 FFFF0000 		.word	65535
 308 0068 997C7007 		.word	124812441
 309 006c 77702002 		.word	35680375
 310 0070 6AA98A29 		.word	696953194
 311 0074 00100000 		.word	4096
 312 0078 AAAAAAAA 		.word	-1431655766
 313 007c 05411140 		.word	1074872581
 314 0080 FFFF0000 		.word	65535
 315 0084 88055085 		.word	-2058353272
 316 0088 18101001 		.word	17829912
 317 008c 00000000 		.word	0
 318 0090 00000000 		.word	0
 319 0094 AAAAAAAA 		.word	-1431655766
 320 0098 00000000 		.word	0
 321 009c FFFF0000 		.word	65535
 322 00a0 00000000 		.word	0
 323 00a4 00000000 		.word	0
 324 00a8 00000000 		.word	0
 325 00ac 00000000 		.word	0
 326 00b0 AAAAAAAA 		.word	-1431655766
 327 00b4 00000000 		.word	0
 328 00b8 FFFF0000 		.word	65535
 329 00bc 00000000 		.word	0
 330 00c0 00000000 		.word	0
 331 00c4 00000000 		.word	0
 332 00c8 00000000 		.word	0
 333 00cc 0A000000 		.word	10
 334 00d0 00000000 		.word	0
 335 00d4 03000000 		.word	3
 336 00d8 00000000 		.word	0
 337 00dc 00000000 		.word	0
 338 00e0 00000000 		.word	0
 339 00e4 00000000 		.word	0
 340 00e8 00000000 		.word	0
 341 00ec 00000000 		.word	0
 342 00f0 00000000 		.word	0
ARM GAS  /tmp/ccmWdU6j.s 			page 7


 343 00f4 00000000 		.word	0
 344 00f8 00000000 		.word	0
 345              		.text
 346              	.Letext0:
 347              		.file 2 "/opt/gcc-arm-none-eabi-4_9-2015q3/lib/gcc/arm-none-eabi/4.9.3/include/stddef.h"
 348              		.file 3 "/opt/gcc-arm-none-eabi-4_9-2015q3/arm-none-eabi/include/machine/_default_types.h"
 349              		.file 4 "/opt/gcc-arm-none-eabi-4_9-2015q3/arm-none-eabi/include/sys/_stdint.h"
 350              		.file 5 "../../modules/ChibiOS/os/common/ports/ARMCMx/compilers/GCC/chtypes.h"
 351              		.file 6 "../../modules/ChibiOS/os/rt/include/chsystypes.h"
 352              		.file 7 "../../modules/ChibiOS/os/rt/include/chschd.h"
 353              		.file 8 "../../modules/ChibiOS/os/rt/include/chtime.h"
 354              		.file 9 "../../modules/ChibiOS/os/common/ext/ST/STM32F4xx/stm32f427xx.h"
 355              		.file 10 "../../modules/ChibiOS/os/common/ports/ARMCMx/chcore.h"
 356              		.file 11 "../../modules/ChibiOS/os/common/ports/ARMCMx/chcore_v7m.h"
 357              		.file 12 "../../modules/ChibiOS/os/rt/include/chtm.h"
 358              		.file 13 "../../modules/ChibiOS/os/rt/include/chstats.h"
 359              		.file 14 "../../modules/ChibiOS/os/rt/include/chsem.h"
 360              		.file 15 "../../modules/ChibiOS/os/rt/include/chmtx.h"
 361              		.file 16 "../../modules/ChibiOS/os/hal/ports/STM32/LLD/DMAv2/stm32_dma.h"
 362              		.file 17 "../../modules/ChibiOS/os/hal/include/hal_ioblock.h"
 363              		.file 18 "../../modules/ChibiOS/os/hal/ports/STM32/LLD/GPIOv2/stm32_gpio.h"
 364              		.file 19 "../../modules/ChibiOS/os/hal/include/hal_sdc.h"
 365              		.file 20 "../../modules/ChibiOS/os/hal/ports/STM32/LLD/SDIOv1/hal_sdc_lld.h"
 366              		.file 21 "../../modules/ChibiOS/os/hal/ports/STM32/STM32F4xx/hal_lld_type1.h"
 367              		.file 22 "../../modules/ChibiOS/os/hal/include/hal.h"
 368              		.file 23 "../../modules/ChibiOS/os/rt/include/chsys.h"
 369              		.file 24 "../../libraries/AP_HAL_ChibiOS/hwdef/common/stm32_util.h"
 370              		.file 25 "../../libraries/AP_HAL_ChibiOS/hwdef/common/usbcfg.h"
 371              		.file 26 "../../modules/ChibiOS/os/common/ext/ARM/CMSIS/Core/Include/core_cm4.h"
 372              		.section	.debug_info,"",%progbits
 373              	.Ldebug_info0:
 374 0000 C6120000 		.4byte	0x12c6
 375 0004 0400     		.2byte	0x4
 376 0006 00000000 		.4byte	.Ldebug_abbrev0
 377 000a 04       		.byte	0x4
 378 000b 01       		.uleb128 0x1
 379 000c FC000000 		.4byte	.LASF245
 380 0010 01       		.byte	0x1
 381 0011 3B090000 		.4byte	.LASF246
 382 0015 330A0000 		.4byte	.LASF247
 383 0019 18000000 		.4byte	.Ldebug_ranges0+0x18
 384 001d 00000000 		.4byte	0
 385 0021 00000000 		.4byte	.Ldebug_line0
 386 0025 02       		.uleb128 0x2
 387 0026 04       		.byte	0x4
 388 0027 05       		.byte	0x5
 389 0028 696E7400 		.ascii	"int\000"
 390 002c 03       		.uleb128 0x3
 391 002d 18000000 		.4byte	.LASF2
 392 0031 02       		.byte	0x2
 393 0032 D4       		.byte	0xd4
 394 0033 37000000 		.4byte	0x37
 395 0037 04       		.uleb128 0x4
 396 0038 04       		.byte	0x4
 397 0039 07       		.byte	0x7
 398 003a 46060000 		.4byte	.LASF0
 399 003e 04       		.uleb128 0x4
ARM GAS  /tmp/ccmWdU6j.s 			page 8


 400 003f 01       		.byte	0x1
 401 0040 06       		.byte	0x6
 402 0041 DF020000 		.4byte	.LASF1
 403 0045 03       		.uleb128 0x3
 404 0046 51020000 		.4byte	.LASF3
 405 004a 03       		.byte	0x3
 406 004b 1D       		.byte	0x1d
 407 004c 50000000 		.4byte	0x50
 408 0050 04       		.uleb128 0x4
 409 0051 01       		.byte	0x1
 410 0052 08       		.byte	0x8
 411 0053 2E030000 		.4byte	.LASF4
 412 0057 04       		.uleb128 0x4
 413 0058 02       		.byte	0x2
 414 0059 05       		.byte	0x5
 415 005a FF080000 		.4byte	.LASF5
 416 005e 03       		.uleb128 0x3
 417 005f DE030000 		.4byte	.LASF6
 418 0063 03       		.byte	0x3
 419 0064 2B       		.byte	0x2b
 420 0065 69000000 		.4byte	0x69
 421 0069 04       		.uleb128 0x4
 422 006a 02       		.byte	0x2
 423 006b 07       		.byte	0x7
 424 006c 950A0000 		.4byte	.LASF7
 425 0070 03       		.uleb128 0x3
 426 0071 BA0A0000 		.4byte	.LASF8
 427 0075 03       		.byte	0x3
 428 0076 3F       		.byte	0x3f
 429 0077 7B000000 		.4byte	0x7b
 430 007b 04       		.uleb128 0x4
 431 007c 04       		.byte	0x4
 432 007d 05       		.byte	0x5
 433 007e 78020000 		.4byte	.LASF9
 434 0082 03       		.uleb128 0x3
 435 0083 8A050000 		.4byte	.LASF10
 436 0087 03       		.byte	0x3
 437 0088 41       		.byte	0x41
 438 0089 8D000000 		.4byte	0x8d
 439 008d 04       		.uleb128 0x4
 440 008e 04       		.byte	0x4
 441 008f 07       		.byte	0x7
 442 0090 AE040000 		.4byte	.LASF11
 443 0094 04       		.uleb128 0x4
 444 0095 08       		.byte	0x8
 445 0096 05       		.byte	0x5
 446 0097 9D050000 		.4byte	.LASF12
 447 009b 03       		.uleb128 0x3
 448 009c A3040000 		.4byte	.LASF13
 449 00a0 03       		.byte	0x3
 450 00a1 5B       		.byte	0x5b
 451 00a2 A6000000 		.4byte	0xa6
 452 00a6 04       		.uleb128 0x4
 453 00a7 08       		.byte	0x8
 454 00a8 07       		.byte	0x7
 455 00a9 B8070000 		.4byte	.LASF14
 456 00ad 03       		.uleb128 0x3
ARM GAS  /tmp/ccmWdU6j.s 			page 9


 457 00ae F2020000 		.4byte	.LASF15
 458 00b2 04       		.byte	0x4
 459 00b3 14       		.byte	0x14
 460 00b4 45000000 		.4byte	0x45
 461 00b8 03       		.uleb128 0x3
 462 00b9 D6070000 		.4byte	.LASF16
 463 00bd 04       		.byte	0x4
 464 00be 1A       		.byte	0x1a
 465 00bf 5E000000 		.4byte	0x5e
 466 00c3 03       		.uleb128 0x3
 467 00c4 67000000 		.4byte	.LASF17
 468 00c8 04       		.byte	0x4
 469 00c9 1F       		.byte	0x1f
 470 00ca 70000000 		.4byte	0x70
 471 00ce 03       		.uleb128 0x3
 472 00cf 1A0A0000 		.4byte	.LASF18
 473 00d3 04       		.byte	0x4
 474 00d4 20       		.byte	0x20
 475 00d5 82000000 		.4byte	0x82
 476 00d9 03       		.uleb128 0x3
 477 00da 09090000 		.4byte	.LASF19
 478 00de 04       		.byte	0x4
 479 00df 26       		.byte	0x26
 480 00e0 9B000000 		.4byte	0x9b
 481 00e4 03       		.uleb128 0x3
 482 00e5 68060000 		.4byte	.LASF20
 483 00e9 05       		.byte	0x5
 484 00ea 27       		.byte	0x27
 485 00eb CE000000 		.4byte	0xce
 486 00ef 03       		.uleb128 0x3
 487 00f0 92020000 		.4byte	.LASF21
 488 00f4 05       		.byte	0x5
 489 00f5 28       		.byte	0x28
 490 00f6 D9000000 		.4byte	0xd9
 491 00fa 03       		.uleb128 0x3
 492 00fb 90080000 		.4byte	.LASF22
 493 00ff 05       		.byte	0x5
 494 0100 2A       		.byte	0x2a
 495 0101 AD000000 		.4byte	0xad
 496 0105 03       		.uleb128 0x3
 497 0106 89020000 		.4byte	.LASF23
 498 010a 05       		.byte	0x5
 499 010b 2B       		.byte	0x2b
 500 010c AD000000 		.4byte	0xad
 501 0110 03       		.uleb128 0x3
 502 0111 C4090000 		.4byte	.LASF24
 503 0115 05       		.byte	0x5
 504 0116 2C       		.byte	0x2c
 505 0117 AD000000 		.4byte	0xad
 506 011b 03       		.uleb128 0x3
 507 011c 5A000000 		.4byte	.LASF25
 508 0120 05       		.byte	0x5
 509 0121 2E       		.byte	0x2e
 510 0122 CE000000 		.4byte	0xce
 511 0126 03       		.uleb128 0x3
 512 0127 E5070000 		.4byte	.LASF26
 513 012b 05       		.byte	0x5
ARM GAS  /tmp/ccmWdU6j.s 			page 10


 514 012c 2F       		.byte	0x2f
 515 012d C3000000 		.4byte	0xc3
 516 0131 03       		.uleb128 0x3
 517 0132 FA020000 		.4byte	.LASF27
 518 0136 05       		.byte	0x5
 519 0137 31       		.byte	0x31
 520 0138 CE000000 		.4byte	0xce
 521 013c 03       		.uleb128 0x3
 522 013d 3B040000 		.4byte	.LASF28
 523 0141 05       		.byte	0x5
 524 0142 33       		.byte	0x33
 525 0143 C3000000 		.4byte	0xc3
 526 0147 03       		.uleb128 0x3
 527 0148 3E050000 		.4byte	.LASF29
 528 014c 05       		.byte	0x5
 529 014d 34       		.byte	0x34
 530 014e CE000000 		.4byte	0xce
 531 0152 03       		.uleb128 0x3
 532 0153 11070000 		.4byte	.LASF30
 533 0157 06       		.byte	0x6
 534 0158 34       		.byte	0x34
 535 0159 5D010000 		.4byte	0x15d
 536 015d 05       		.uleb128 0x5
 537 015e E1040000 		.4byte	.LASF49
 538 0162 60       		.byte	0x60
 539 0163 07       		.byte	0x7
 540 0164 8E       		.byte	0x8e
 541 0165 48020000 		.4byte	0x248
 542 0169 06       		.uleb128 0x6
 543 016a 19080000 		.4byte	.LASF31
 544 016e 07       		.byte	0x7
 545 016f 8F       		.byte	0x8f
 546 0170 7D020000 		.4byte	0x27d
 547 0174 00       		.byte	0
 548 0175 06       		.uleb128 0x6
 549 0176 1A020000 		.4byte	.LASF32
 550 017a 07       		.byte	0x7
 551 017b 90       		.byte	0x90
 552 017c 1B010000 		.4byte	0x11b
 553 0180 08       		.byte	0x8
 554 0181 07       		.uleb128 0x7
 555 0182 63747800 		.ascii	"ctx\000"
 556 0186 07       		.byte	0x7
 557 0187 91       		.byte	0x91
 558 0188 04080000 		.4byte	0x804
 559 018c 0C       		.byte	0xc
 560 018d 06       		.uleb128 0x6
 561 018e FE090000 		.4byte	.LASF33
 562 0192 07       		.byte	0x7
 563 0193 93       		.byte	0x93
 564 0194 53020000 		.4byte	0x253
 565 0198 10       		.byte	0x10
 566 0199 06       		.uleb128 0x6
 567 019a 1E050000 		.4byte	.LASF34
 568 019e 07       		.byte	0x7
 569 019f 94       		.byte	0x94
 570 01a0 53020000 		.4byte	0x253
ARM GAS  /tmp/ccmWdU6j.s 			page 11


 571 01a4 14       		.byte	0x14
 572 01a5 06       		.uleb128 0x6
 573 01a6 D4080000 		.4byte	.LASF35
 574 01aa 07       		.byte	0x7
 575 01ab 9B       		.byte	0x9b
 576 01ac EA0A0000 		.4byte	0xaea
 577 01b0 18       		.byte	0x18
 578 01b1 06       		.uleb128 0x6
 579 01b2 62080000 		.4byte	.LASF36
 580 01b6 07       		.byte	0x7
 581 01b7 A4       		.byte	0xa4
 582 01b8 FC0A0000 		.4byte	0xafc
 583 01bc 1C       		.byte	0x1c
 584 01bd 06       		.uleb128 0x6
 585 01be AD000000 		.4byte	.LASF37
 586 01c2 07       		.byte	0x7
 587 01c3 A9       		.byte	0xa9
 588 01c4 05010000 		.4byte	0x105
 589 01c8 20       		.byte	0x20
 590 01c9 06       		.uleb128 0x6
 591 01ca 12040000 		.4byte	.LASF38
 592 01ce 07       		.byte	0x7
 593 01cf AD       		.byte	0xad
 594 01d0 FA000000 		.4byte	0xfa
 595 01d4 21       		.byte	0x21
 596 01d5 06       		.uleb128 0x6
 597 01d6 14080000 		.4byte	.LASF39
 598 01da 07       		.byte	0x7
 599 01db B2       		.byte	0xb2
 600 01dc 10010000 		.4byte	0x110
 601 01e0 22       		.byte	0x22
 602 01e1 08       		.uleb128 0x8
 603 01e2 7500     		.ascii	"u\000"
 604 01e4 07       		.byte	0x7
 605 01e5 0301     		.2byte	0x103
 606 01e7 200A0000 		.4byte	0xa20
 607 01eb 24       		.byte	0x24
 608 01ec 09       		.uleb128 0x9
 609 01ed B4090000 		.4byte	.LASF40
 610 01f1 07       		.byte	0x7
 611 01f2 0801     		.2byte	0x108
 612 01f4 59020000 		.4byte	0x259
 613 01f8 28       		.byte	0x28
 614 01f9 09       		.uleb128 0x9
 615 01fa 20090000 		.4byte	.LASF41
 616 01fe 07       		.byte	0x7
 617 01ff 0E01     		.2byte	0x10e
 618 0201 7D020000 		.4byte	0x27d
 619 0205 2C       		.byte	0x2c
 620 0206 09       		.uleb128 0x9
 621 0207 1F080000 		.4byte	.LASF42
 622 020b 07       		.byte	0x7
 623 020c 1401     		.2byte	0x114
 624 020e 31010000 		.4byte	0x131
 625 0212 34       		.byte	0x34
 626 0213 09       		.uleb128 0x9
 627 0214 95050000 		.4byte	.LASF43
ARM GAS  /tmp/ccmWdU6j.s 			page 12


 628 0218 07       		.byte	0x7
 629 0219 1B01     		.2byte	0x11b
 630 021b E40A0000 		.4byte	0xae4
 631 021f 38       		.byte	0x38
 632 0220 09       		.uleb128 0x9
 633 0221 2E050000 		.4byte	.LASF44
 634 0225 07       		.byte	0x7
 635 0226 1F01     		.2byte	0x11f
 636 0228 1B010000 		.4byte	0x11b
 637 022c 3C       		.byte	0x3c
 638 022d 09       		.uleb128 0x9
 639 022e 23040000 		.4byte	.LASF45
 640 0232 07       		.byte	0x7
 641 0233 2601     		.2byte	0x126
 642 0235 30030000 		.4byte	0x330
 643 0239 40       		.byte	0x40
 644 023a 09       		.uleb128 0x9
 645 023b BA000000 		.4byte	.LASF46
 646 023f 07       		.byte	0x7
 647 0240 2C01     		.2byte	0x12c
 648 0242 D1090000 		.4byte	0x9d1
 649 0246 48       		.byte	0x48
 650 0247 00       		.byte	0
 651 0248 03       		.uleb128 0x3
 652 0249 1A070000 		.4byte	.LASF47
 653 024d 06       		.byte	0x6
 654 024e 39       		.byte	0x39
 655 024f 53020000 		.4byte	0x253
 656 0253 0A       		.uleb128 0xa
 657 0254 04       		.byte	0x4
 658 0255 52010000 		.4byte	0x152
 659 0259 03       		.uleb128 0x3
 660 025a D9090000 		.4byte	.LASF48
 661 025e 06       		.byte	0x6
 662 025f 3E       		.byte	0x3e
 663 0260 64020000 		.4byte	0x264
 664 0264 05       		.uleb128 0x5
 665 0265 52050000 		.4byte	.LASF50
 666 0269 04       		.byte	0x4
 667 026a 07       		.byte	0x7
 668 026b 7C       		.byte	0x7c
 669 026c 7D020000 		.4byte	0x27d
 670 0270 06       		.uleb128 0x6
 671 0271 DB0A0000 		.4byte	.LASF51
 672 0275 07       		.byte	0x7
 673 0276 7D       		.byte	0x7d
 674 0277 53020000 		.4byte	0x253
 675 027b 00       		.byte	0
 676 027c 00       		.byte	0
 677 027d 03       		.uleb128 0x3
 678 027e 9B020000 		.4byte	.LASF52
 679 0282 06       		.byte	0x6
 680 0283 45       		.byte	0x45
 681 0284 88020000 		.4byte	0x288
 682 0288 05       		.uleb128 0x5
 683 0289 EB070000 		.4byte	.LASF53
 684 028d 08       		.byte	0x8
ARM GAS  /tmp/ccmWdU6j.s 			page 13


 685 028e 07       		.byte	0x7
 686 028f 83       		.byte	0x83
 687 0290 AD020000 		.4byte	0x2ad
 688 0294 06       		.uleb128 0x6
 689 0295 DB0A0000 		.4byte	.LASF51
 690 0299 07       		.byte	0x7
 691 029a 84       		.byte	0x84
 692 029b 53020000 		.4byte	0x253
 693 029f 00       		.byte	0
 694 02a0 06       		.uleb128 0x6
 695 02a1 EA0A0000 		.4byte	.LASF54
 696 02a5 07       		.byte	0x7
 697 02a6 85       		.byte	0x85
 698 02a7 53020000 		.4byte	0x253
 699 02ab 04       		.byte	0x4
 700 02ac 00       		.byte	0
 701 02ad 03       		.uleb128 0x3
 702 02ae 11050000 		.4byte	.LASF55
 703 02b2 06       		.byte	0x6
 704 02b3 4C       		.byte	0x4c
 705 02b4 B8020000 		.4byte	0x2b8
 706 02b8 0B       		.uleb128 0xb
 707 02b9 62040000 		.4byte	.LASF56
 708 02bd 1C       		.byte	0x1c
 709 02be 07       		.byte	0x7
 710 02bf 5E01     		.2byte	0x15e
 711 02c1 14030000 		.4byte	0x314
 712 02c5 09       		.uleb128 0x9
 713 02c6 19080000 		.4byte	.LASF31
 714 02ca 07       		.byte	0x7
 715 02cb 5F01     		.2byte	0x15f
 716 02cd 7D020000 		.4byte	0x27d
 717 02d1 00       		.byte	0
 718 02d2 09       		.uleb128 0x9
 719 02d3 1A020000 		.4byte	.LASF32
 720 02d7 07       		.byte	0x7
 721 02d8 6001     		.2byte	0x160
 722 02da 1B010000 		.4byte	0x11b
 723 02de 08       		.byte	0x8
 724 02df 08       		.uleb128 0x8
 725 02e0 63747800 		.ascii	"ctx\000"
 726 02e4 07       		.byte	0x7
 727 02e5 6201     		.2byte	0x162
 728 02e7 04080000 		.4byte	0x804
 729 02eb 0C       		.byte	0xc
 730 02ec 09       		.uleb128 0x9
 731 02ed FE090000 		.4byte	.LASF33
 732 02f1 07       		.byte	0x7
 733 02f2 6501     		.2byte	0x165
 734 02f4 53020000 		.4byte	0x253
 735 02f8 10       		.byte	0x10
 736 02f9 09       		.uleb128 0x9
 737 02fa 1E050000 		.4byte	.LASF34
 738 02fe 07       		.byte	0x7
 739 02ff 6601     		.2byte	0x166
 740 0301 53020000 		.4byte	0x253
 741 0305 14       		.byte	0x14
ARM GAS  /tmp/ccmWdU6j.s 			page 14


 742 0306 09       		.uleb128 0x9
 743 0307 AE060000 		.4byte	.LASF57
 744 030b 07       		.byte	0x7
 745 030c 6901     		.2byte	0x169
 746 030e 53020000 		.4byte	0x253
 747 0312 18       		.byte	0x18
 748 0313 00       		.byte	0
 749 0314 03       		.uleb128 0x3
 750 0315 7A000000 		.4byte	.LASF58
 751 0319 06       		.byte	0x6
 752 031a 51       		.byte	0x51
 753 031b 1F030000 		.4byte	0x31f
 754 031f 0A       		.uleb128 0xa
 755 0320 04       		.byte	0x4
 756 0321 25030000 		.4byte	0x325
 757 0325 0C       		.uleb128 0xc
 758 0326 30030000 		.4byte	0x330
 759 032a 0D       		.uleb128 0xd
 760 032b 30030000 		.4byte	0x330
 761 032f 00       		.byte	0
 762 0330 0E       		.uleb128 0xe
 763 0331 04       		.byte	0x4
 764 0332 03       		.uleb128 0x3
 765 0333 01050000 		.4byte	.LASF59
 766 0337 06       		.byte	0x6
 767 0338 56       		.byte	0x56
 768 0339 3D030000 		.4byte	0x33d
 769 033d 0B       		.uleb128 0xb
 770 033e 80070000 		.4byte	.LASF60
 771 0342 14       		.byte	0x14
 772 0343 07       		.byte	0x7
 773 0344 3901     		.2byte	0x139
 774 0346 8C030000 		.4byte	0x38c
 775 034a 09       		.uleb128 0x9
 776 034b DB0A0000 		.4byte	.LASF51
 777 034f 07       		.byte	0x7
 778 0350 3A01     		.2byte	0x13a
 779 0352 020B0000 		.4byte	0xb02
 780 0356 00       		.byte	0
 781 0357 09       		.uleb128 0x9
 782 0358 EA0A0000 		.4byte	.LASF54
 783 035c 07       		.byte	0x7
 784 035d 3B01     		.2byte	0x13b
 785 035f 020B0000 		.4byte	0xb02
 786 0363 04       		.byte	0x4
 787 0364 09       		.uleb128 0x9
 788 0365 09080000 		.4byte	.LASF61
 789 0369 07       		.byte	0x7
 790 036a 3C01     		.2byte	0x13c
 791 036c 70040000 		.4byte	0x470
 792 0370 08       		.byte	0x8
 793 0371 09       		.uleb128 0x9
 794 0372 12090000 		.4byte	.LASF62
 795 0376 07       		.byte	0x7
 796 0377 3D01     		.2byte	0x13d
 797 0379 14030000 		.4byte	0x314
 798 037d 0C       		.byte	0xc
ARM GAS  /tmp/ccmWdU6j.s 			page 15


 799 037e 08       		.uleb128 0x8
 800 037f 70617200 		.ascii	"par\000"
 801 0383 07       		.byte	0x7
 802 0384 3F01     		.2byte	0x13f
 803 0386 30030000 		.4byte	0x330
 804 038a 10       		.byte	0x10
 805 038b 00       		.byte	0
 806 038c 03       		.uleb128 0x3
 807 038d EB040000 		.4byte	.LASF63
 808 0391 06       		.byte	0x6
 809 0392 5B       		.byte	0x5b
 810 0393 97030000 		.4byte	0x397
 811 0397 0B       		.uleb128 0xb
 812 0398 89000000 		.4byte	.LASF64
 813 039c 10       		.byte	0x10
 814 039d 07       		.byte	0x7
 815 039e 4901     		.2byte	0x149
 816 03a0 D9030000 		.4byte	0x3d9
 817 03a4 09       		.uleb128 0x9
 818 03a5 DB0A0000 		.4byte	.LASF51
 819 03a9 07       		.byte	0x7
 820 03aa 4A01     		.2byte	0x14a
 821 03ac 020B0000 		.4byte	0xb02
 822 03b0 00       		.byte	0
 823 03b1 09       		.uleb128 0x9
 824 03b2 EA0A0000 		.4byte	.LASF54
 825 03b6 07       		.byte	0x7
 826 03b7 4C01     		.2byte	0x14c
 827 03b9 020B0000 		.4byte	0xb02
 828 03bd 04       		.byte	0x4
 829 03be 09       		.uleb128 0x9
 830 03bf 09080000 		.4byte	.LASF61
 831 03c3 07       		.byte	0x7
 832 03c4 4E01     		.2byte	0x14e
 833 03c6 70040000 		.4byte	0x470
 834 03ca 08       		.byte	0x8
 835 03cb 09       		.uleb128 0x9
 836 03cc 5A030000 		.4byte	.LASF65
 837 03d0 07       		.byte	0x7
 838 03d1 5601     		.2byte	0x156
 839 03d3 65040000 		.4byte	0x465
 840 03d7 0C       		.byte	0xc
 841 03d8 00       		.byte	0
 842 03d9 03       		.uleb128 0x3
 843 03da 8C030000 		.4byte	.LASF66
 844 03de 06       		.byte	0x6
 845 03df 60       		.byte	0x60
 846 03e0 E4030000 		.4byte	0x3e4
 847 03e4 0B       		.uleb128 0xb
 848 03e5 6F090000 		.4byte	.LASF67
 849 03e9 04       		.byte	0x4
 850 03ea 07       		.byte	0x7
 851 03eb 7001     		.2byte	0x170
 852 03ed FF030000 		.4byte	0x3ff
 853 03f1 09       		.uleb128 0x9
 854 03f2 77030000 		.4byte	.LASF68
 855 03f6 07       		.byte	0x7
ARM GAS  /tmp/ccmWdU6j.s 			page 16


 856 03f7 7801     		.2byte	0x178
 857 03f9 080B0000 		.4byte	0xb08
 858 03fd 00       		.byte	0
 859 03fe 00       		.byte	0
 860 03ff 03       		.uleb128 0x3
 861 0400 AE0A0000 		.4byte	.LASF69
 862 0404 06       		.byte	0x6
 863 0405 65       		.byte	0x65
 864 0406 0A040000 		.4byte	0x40a
 865 040a 0B       		.uleb128 0xb
 866 040b E8090000 		.4byte	.LASF70
 867 040f D0       		.byte	0xd0
 868 0410 07       		.byte	0x7
 869 0411 9001     		.2byte	0x190
 870 0413 65040000 		.4byte	0x465
 871 0417 09       		.uleb128 0x9
 872 0418 8A080000 		.4byte	.LASF71
 873 041c 07       		.byte	0x7
 874 041d 9401     		.2byte	0x194
 875 041f AD020000 		.4byte	0x2ad
 876 0423 00       		.byte	0
 877 0424 09       		.uleb128 0x9
 878 0425 AD090000 		.4byte	.LASF72
 879 0429 07       		.byte	0x7
 880 042a 9801     		.2byte	0x198
 881 042c 8C030000 		.4byte	0x38c
 882 0430 1C       		.byte	0x1c
 883 0431 08       		.uleb128 0x8
 884 0432 64626700 		.ascii	"dbg\000"
 885 0436 07       		.byte	0x7
 886 0437 9C01     		.2byte	0x19c
 887 0439 D9030000 		.4byte	0x3d9
 888 043d 2C       		.byte	0x2c
 889 043e 09       		.uleb128 0x9
 890 043f 48080000 		.4byte	.LASF73
 891 0443 07       		.byte	0x7
 892 0444 A001     		.2byte	0x1a0
 893 0446 52010000 		.4byte	0x152
 894 044a 30       		.byte	0x30
 895 044b 08       		.uleb128 0x8
 896 044c 746D00   		.ascii	"tm\000"
 897 044f 07       		.byte	0x7
 898 0450 A501     		.2byte	0x1a5
 899 0452 83090000 		.4byte	0x983
 900 0456 90       		.byte	0x90
 901 0457 09       		.uleb128 0x9
 902 0458 99070000 		.4byte	.LASF74
 903 045c 07       		.byte	0x7
 904 045d AB01     		.2byte	0x1ab
 905 045f 150A0000 		.4byte	0xa15
 906 0463 98       		.byte	0x98
 907 0464 00       		.byte	0
 908 0465 03       		.uleb128 0x3
 909 0466 36000000 		.4byte	.LASF75
 910 046a 08       		.byte	0x8
 911 046b 6D       		.byte	0x6d
 912 046c CE000000 		.4byte	0xce
ARM GAS  /tmp/ccmWdU6j.s 			page 17


 913 0470 03       		.uleb128 0x3
 914 0471 CC050000 		.4byte	.LASF76
 915 0475 08       		.byte	0x8
 916 0476 79       		.byte	0x79
 917 0477 CE000000 		.4byte	0xce
 918 047b 04       		.uleb128 0x4
 919 047c 04       		.byte	0x4
 920 047d 07       		.byte	0x7
 921 047e 26000000 		.4byte	.LASF77
 922 0482 0F       		.uleb128 0xf
 923 0483 CE000000 		.4byte	0xce
 924 0487 10       		.uleb128 0x10
 925 0488 82040000 		.4byte	0x482
 926 048c 11       		.uleb128 0x11
 927 048d CE000000 		.4byte	0xce
 928 0491 9C040000 		.4byte	0x49c
 929 0495 12       		.uleb128 0x12
 930 0496 7B040000 		.4byte	0x47b
 931 049a 01       		.byte	0x1
 932 049b 00       		.byte	0
 933 049c 11       		.uleb128 0x11
 934 049d CE000000 		.4byte	0xce
 935 04a1 AC040000 		.4byte	0x4ac
 936 04a5 12       		.uleb128 0x12
 937 04a6 7B040000 		.4byte	0x47b
 938 04aa 03       		.byte	0x3
 939 04ab 00       		.byte	0
 940 04ac 13       		.uleb128 0x13
 941 04ad 18       		.byte	0x18
 942 04ae 09       		.byte	0x9
 943 04af 7101     		.2byte	0x171
 944 04b1 03050000 		.4byte	0x503
 945 04b5 08       		.uleb128 0x8
 946 04b6 435200   		.ascii	"CR\000"
 947 04b9 09       		.byte	0x9
 948 04ba 7301     		.2byte	0x173
 949 04bc 82040000 		.4byte	0x482
 950 04c0 00       		.byte	0
 951 04c1 09       		.uleb128 0x9
 952 04c2 D10A0000 		.4byte	.LASF78
 953 04c6 09       		.byte	0x9
 954 04c7 7401     		.2byte	0x174
 955 04c9 82040000 		.4byte	0x482
 956 04cd 04       		.byte	0x4
 957 04ce 08       		.uleb128 0x8
 958 04cf 50415200 		.ascii	"PAR\000"
 959 04d3 09       		.byte	0x9
 960 04d4 7501     		.2byte	0x175
 961 04d6 82040000 		.4byte	0x482
 962 04da 08       		.byte	0x8
 963 04db 09       		.uleb128 0x9
 964 04dc CF080000 		.4byte	.LASF79
 965 04e0 09       		.byte	0x9
 966 04e1 7601     		.2byte	0x176
 967 04e3 82040000 		.4byte	0x482
 968 04e7 0C       		.byte	0xc
 969 04e8 09       		.uleb128 0x9
ARM GAS  /tmp/ccmWdU6j.s 			page 18


 970 04e9 00000000 		.4byte	.LASF80
 971 04ed 09       		.byte	0x9
 972 04ee 7701     		.2byte	0x177
 973 04f0 82040000 		.4byte	0x482
 974 04f4 10       		.byte	0x10
 975 04f5 08       		.uleb128 0x8
 976 04f6 46435200 		.ascii	"FCR\000"
 977 04fa 09       		.byte	0x9
 978 04fb 7801     		.2byte	0x178
 979 04fd 82040000 		.4byte	0x482
 980 0501 14       		.byte	0x14
 981 0502 00       		.byte	0
 982 0503 14       		.uleb128 0x14
 983 0504 E0060000 		.4byte	.LASF81
 984 0508 09       		.byte	0x9
 985 0509 7901     		.2byte	0x179
 986 050b AC040000 		.4byte	0x4ac
 987 050f 13       		.uleb128 0x13
 988 0510 90       		.byte	0x90
 989 0511 09       		.byte	0x9
 990 0512 9602     		.2byte	0x296
 991 0514 B8060000 		.4byte	0x6b8
 992 0518 08       		.uleb128 0x8
 993 0519 435200   		.ascii	"CR\000"
 994 051c 09       		.byte	0x9
 995 051d 9802     		.2byte	0x298
 996 051f 82040000 		.4byte	0x482
 997 0523 00       		.byte	0
 998 0524 09       		.uleb128 0x9
 999 0525 82050000 		.4byte	.LASF82
 1000 0529 09       		.byte	0x9
 1001 052a 9902     		.2byte	0x299
 1002 052c 82040000 		.4byte	0x482
 1003 0530 04       		.byte	0x4
 1004 0531 09       		.uleb128 0x9
 1005 0532 7F040000 		.4byte	.LASF83
 1006 0536 09       		.byte	0x9
 1007 0537 9A02     		.2byte	0x29a
 1008 0539 82040000 		.4byte	0x482
 1009 053d 08       		.byte	0x8
 1010 053e 08       		.uleb128 0x8
 1011 053f 43495200 		.ascii	"CIR\000"
 1012 0543 09       		.byte	0x9
 1013 0544 9B02     		.2byte	0x29b
 1014 0546 82040000 		.4byte	0x482
 1015 054a 0C       		.byte	0xc
 1016 054b 09       		.uleb128 0x9
 1017 054c CC030000 		.4byte	.LASF84
 1018 0550 09       		.byte	0x9
 1019 0551 9C02     		.2byte	0x29c
 1020 0553 82040000 		.4byte	0x482
 1021 0557 10       		.byte	0x10
 1022 0558 09       		.uleb128 0x9
 1023 0559 BF080000 		.4byte	.LASF85
 1024 055d 09       		.byte	0x9
 1025 055e 9D02     		.2byte	0x29d
 1026 0560 82040000 		.4byte	0x482
ARM GAS  /tmp/ccmWdU6j.s 			page 19


 1027 0564 14       		.byte	0x14
 1028 0565 09       		.uleb128 0x9
 1029 0566 08070000 		.4byte	.LASF86
 1030 056a 09       		.byte	0x9
 1031 056b 9E02     		.2byte	0x29e
 1032 056d 82040000 		.4byte	0x482
 1033 0571 18       		.byte	0x18
 1034 0572 09       		.uleb128 0x9
 1035 0573 1A030000 		.4byte	.LASF87
 1036 0577 09       		.byte	0x9
 1037 0578 9F02     		.2byte	0x29f
 1038 057a CE000000 		.4byte	0xce
 1039 057e 1C       		.byte	0x1c
 1040 057f 09       		.uleb128 0x9
 1041 0580 77070000 		.4byte	.LASF88
 1042 0584 09       		.byte	0x9
 1043 0585 A002     		.2byte	0x2a0
 1044 0587 82040000 		.4byte	0x482
 1045 058b 20       		.byte	0x20
 1046 058c 09       		.uleb128 0x9
 1047 058d EB050000 		.4byte	.LASF89
 1048 0591 09       		.byte	0x9
 1049 0592 A102     		.2byte	0x2a1
 1050 0594 82040000 		.4byte	0x482
 1051 0598 24       		.byte	0x24
 1052 0599 09       		.uleb128 0x9
 1053 059a 24030000 		.4byte	.LASF90
 1054 059e 09       		.byte	0x9
 1055 059f A202     		.2byte	0x2a2
 1056 05a1 8C040000 		.4byte	0x48c
 1057 05a5 28       		.byte	0x28
 1058 05a6 09       		.uleb128 0x9
 1059 05a7 9E080000 		.4byte	.LASF91
 1060 05ab 09       		.byte	0x9
 1061 05ac A302     		.2byte	0x2a3
 1062 05ae 82040000 		.4byte	0x482
 1063 05b2 30       		.byte	0x30
 1064 05b3 09       		.uleb128 0x9
 1065 05b4 E9030000 		.4byte	.LASF92
 1066 05b8 09       		.byte	0x9
 1067 05b9 A402     		.2byte	0x2a4
 1068 05bb 82040000 		.4byte	0x482
 1069 05bf 34       		.byte	0x34
 1070 05c0 09       		.uleb128 0x9
 1071 05c1 A6080000 		.4byte	.LASF93
 1072 05c5 09       		.byte	0x9
 1073 05c6 A502     		.2byte	0x2a5
 1074 05c8 82040000 		.4byte	0x482
 1075 05cc 38       		.byte	0x38
 1076 05cd 09       		.uleb128 0x9
 1077 05ce AD030000 		.4byte	.LASF94
 1078 05d2 09       		.byte	0x9
 1079 05d3 A602     		.2byte	0x2a6
 1080 05d5 CE000000 		.4byte	0xce
 1081 05d9 3C       		.byte	0x3c
 1082 05da 09       		.uleb128 0x9
 1083 05db 91070000 		.4byte	.LASF95
ARM GAS  /tmp/ccmWdU6j.s 			page 20


 1084 05df 09       		.byte	0x9
 1085 05e0 A702     		.2byte	0x2a7
 1086 05e2 82040000 		.4byte	0x482
 1087 05e6 40       		.byte	0x40
 1088 05e7 09       		.uleb128 0x9
 1089 05e8 BA020000 		.4byte	.LASF96
 1090 05ec 09       		.byte	0x9
 1091 05ed A802     		.2byte	0x2a8
 1092 05ef 82040000 		.4byte	0x482
 1093 05f3 44       		.byte	0x44
 1094 05f4 09       		.uleb128 0x9
 1095 05f5 3C030000 		.4byte	.LASF97
 1096 05f9 09       		.byte	0x9
 1097 05fa A902     		.2byte	0x2a9
 1098 05fc 8C040000 		.4byte	0x48c
 1099 0600 48       		.byte	0x48
 1100 0601 09       		.uleb128 0x9
 1101 0602 C2020000 		.4byte	.LASF98
 1102 0606 09       		.byte	0x9
 1103 0607 AA02     		.2byte	0x2aa
 1104 0609 82040000 		.4byte	0x482
 1105 060d 50       		.byte	0x50
 1106 060e 09       		.uleb128 0x9
 1107 060f 60020000 		.4byte	.LASF99
 1108 0613 09       		.byte	0x9
 1109 0614 AB02     		.2byte	0x2ab
 1110 0616 82040000 		.4byte	0x482
 1111 061a 54       		.byte	0x54
 1112 061b 09       		.uleb128 0x9
 1113 061c 53080000 		.4byte	.LASF100
 1114 0620 09       		.byte	0x9
 1115 0621 AC02     		.2byte	0x2ac
 1116 0623 82040000 		.4byte	0x482
 1117 0627 58       		.byte	0x58
 1118 0628 09       		.uleb128 0x9
 1119 0629 46030000 		.4byte	.LASF101
 1120 062d 09       		.byte	0x9
 1121 062e AD02     		.2byte	0x2ad
 1122 0630 CE000000 		.4byte	0xce
 1123 0634 5C       		.byte	0x5c
 1124 0635 09       		.uleb128 0x9
 1125 0636 CF060000 		.4byte	.LASF102
 1126 063a 09       		.byte	0x9
 1127 063b AE02     		.2byte	0x2ae
 1128 063d 82040000 		.4byte	0x482
 1129 0641 60       		.byte	0x60
 1130 0642 09       		.uleb128 0x9
 1131 0643 0E060000 		.4byte	.LASF103
 1132 0647 09       		.byte	0x9
 1133 0648 AF02     		.2byte	0x2af
 1134 064a 82040000 		.4byte	0x482
 1135 064e 64       		.byte	0x64
 1136 064f 09       		.uleb128 0x9
 1137 0650 50030000 		.4byte	.LASF104
 1138 0654 09       		.byte	0x9
 1139 0655 B002     		.2byte	0x2b0
 1140 0657 8C040000 		.4byte	0x48c
ARM GAS  /tmp/ccmWdU6j.s 			page 21


 1141 065b 68       		.byte	0x68
 1142 065c 09       		.uleb128 0x9
 1143 065d 36040000 		.4byte	.LASF105
 1144 0661 09       		.byte	0x9
 1145 0662 B102     		.2byte	0x2b1
 1146 0664 82040000 		.4byte	0x482
 1147 0668 70       		.byte	0x70
 1148 0669 08       		.uleb128 0x8
 1149 066a 43535200 		.ascii	"CSR\000"
 1150 066e 09       		.byte	0x9
 1151 066f B202     		.2byte	0x2b2
 1152 0671 82040000 		.4byte	0x482
 1153 0675 74       		.byte	0x74
 1154 0676 09       		.uleb128 0x9
 1155 0677 B7030000 		.4byte	.LASF106
 1156 067b 09       		.byte	0x9
 1157 067c B302     		.2byte	0x2b3
 1158 067e 8C040000 		.4byte	0x48c
 1159 0682 78       		.byte	0x78
 1160 0683 09       		.uleb128 0x9
 1161 0684 E0050000 		.4byte	.LASF107
 1162 0688 09       		.byte	0x9
 1163 0689 B402     		.2byte	0x2b4
 1164 068b 82040000 		.4byte	0x482
 1165 068f 80       		.byte	0x80
 1166 0690 09       		.uleb128 0x9
 1167 0691 40000000 		.4byte	.LASF108
 1168 0695 09       		.byte	0x9
 1169 0696 B502     		.2byte	0x2b5
 1170 0698 82040000 		.4byte	0x482
 1171 069c 84       		.byte	0x84
 1172 069d 09       		.uleb128 0x9
 1173 069e 7E0A0000 		.4byte	.LASF109
 1174 06a2 09       		.byte	0x9
 1175 06a3 B602     		.2byte	0x2b6
 1176 06a5 82040000 		.4byte	0x482
 1177 06a9 88       		.byte	0x88
 1178 06aa 09       		.uleb128 0x9
 1179 06ab CC020000 		.4byte	.LASF110
 1180 06af 09       		.byte	0x9
 1181 06b0 B702     		.2byte	0x2b7
 1182 06b2 82040000 		.4byte	0x482
 1183 06b6 8C       		.byte	0x8c
 1184 06b7 00       		.byte	0
 1185 06b8 14       		.uleb128 0x14
 1186 06b9 EE080000 		.4byte	.LASF111
 1187 06bd 09       		.byte	0x9
 1188 06be B802     		.2byte	0x2b8
 1189 06c0 0F050000 		.4byte	0x50f
 1190 06c4 13       		.uleb128 0x13
 1191 06c5 84       		.byte	0x84
 1192 06c6 09       		.byte	0x9
 1193 06c7 0303     		.2byte	0x303
 1194 06c9 D2070000 		.4byte	0x7d2
 1195 06cd 09       		.uleb128 0x9
 1196 06ce 710A0000 		.4byte	.LASF112
 1197 06d2 09       		.byte	0x9
ARM GAS  /tmp/ccmWdU6j.s 			page 22


 1198 06d3 0503     		.2byte	0x305
 1199 06d5 82040000 		.4byte	0x482
 1200 06d9 00       		.byte	0
 1201 06da 09       		.uleb128 0x9
 1202 06db A80A0000 		.4byte	.LASF113
 1203 06df 09       		.byte	0x9
 1204 06e0 0603     		.2byte	0x306
 1205 06e2 82040000 		.4byte	0x482
 1206 06e6 04       		.byte	0x4
 1207 06e7 08       		.uleb128 0x8
 1208 06e8 41524700 		.ascii	"ARG\000"
 1209 06ec 09       		.byte	0x9
 1210 06ed 0703     		.2byte	0x307
 1211 06ef 82040000 		.4byte	0x482
 1212 06f3 08       		.byte	0x8
 1213 06f4 08       		.uleb128 0x8
 1214 06f5 434D4400 		.ascii	"CMD\000"
 1215 06f9 09       		.byte	0x9
 1216 06fa 0803     		.2byte	0x308
 1217 06fc 82040000 		.4byte	0x482
 1218 0700 0C       		.byte	0xc
 1219 0701 09       		.uleb128 0x9
 1220 0702 B0070000 		.4byte	.LASF114
 1221 0706 09       		.byte	0x9
 1222 0707 0903     		.2byte	0x309
 1223 0709 87040000 		.4byte	0x487
 1224 070d 10       		.byte	0x10
 1225 070e 09       		.uleb128 0x9
 1226 070f DB000000 		.4byte	.LASF115
 1227 0713 09       		.byte	0x9
 1228 0714 0A03     		.2byte	0x30a
 1229 0716 87040000 		.4byte	0x487
 1230 071a 14       		.byte	0x14
 1231 071b 09       		.uleb128 0x9
 1232 071c E1000000 		.4byte	.LASF116
 1233 0720 09       		.byte	0x9
 1234 0721 0B03     		.2byte	0x30b
 1235 0723 87040000 		.4byte	0x487
 1236 0727 18       		.byte	0x18
 1237 0728 09       		.uleb128 0x9
 1238 0729 E7000000 		.4byte	.LASF117
 1239 072d 09       		.byte	0x9
 1240 072e 0C03     		.2byte	0x30c
 1241 0730 87040000 		.4byte	0x487
 1242 0734 1C       		.byte	0x1c
 1243 0735 09       		.uleb128 0x9
 1244 0736 ED000000 		.4byte	.LASF118
 1245 073a 09       		.byte	0x9
 1246 073b 0D03     		.2byte	0x30d
 1247 073d 87040000 		.4byte	0x487
 1248 0741 20       		.byte	0x20
 1249 0742 09       		.uleb128 0x9
 1250 0743 1F000000 		.4byte	.LASF119
 1251 0747 09       		.byte	0x9
 1252 0748 0E03     		.2byte	0x30e
 1253 074a 82040000 		.4byte	0x482
 1254 074e 24       		.byte	0x24
ARM GAS  /tmp/ccmWdU6j.s 			page 23


 1255 074f 09       		.uleb128 0x9
 1256 0750 62000000 		.4byte	.LASF120
 1257 0754 09       		.byte	0x9
 1258 0755 0F03     		.2byte	0x30f
 1259 0757 82040000 		.4byte	0x482
 1260 075b 28       		.byte	0x28
 1261 075c 09       		.uleb128 0x9
 1262 075d F4050000 		.4byte	.LASF121
 1263 0761 09       		.byte	0x9
 1264 0762 1003     		.2byte	0x310
 1265 0764 82040000 		.4byte	0x482
 1266 0768 2C       		.byte	0x2c
 1267 0769 09       		.uleb128 0x9
 1268 076a 8A060000 		.4byte	.LASF122
 1269 076e 09       		.byte	0x9
 1270 076f 1103     		.2byte	0x311
 1271 0771 87040000 		.4byte	0x487
 1272 0775 30       		.byte	0x30
 1273 0776 08       		.uleb128 0x8
 1274 0777 53544100 		.ascii	"STA\000"
 1275 077b 09       		.byte	0x9
 1276 077c 1203     		.2byte	0x312
 1277 077e 87040000 		.4byte	0x487
 1278 0782 34       		.byte	0x34
 1279 0783 08       		.uleb128 0x8
 1280 0784 49435200 		.ascii	"ICR\000"
 1281 0788 09       		.byte	0x9
 1282 0789 1303     		.2byte	0x313
 1283 078b 82040000 		.4byte	0x482
 1284 078f 38       		.byte	0x38
 1285 0790 09       		.uleb128 0x9
 1286 0791 FA080000 		.4byte	.LASF123
 1287 0795 09       		.byte	0x9
 1288 0796 1403     		.2byte	0x314
 1289 0798 82040000 		.4byte	0x482
 1290 079c 3C       		.byte	0x3c
 1291 079d 09       		.uleb128 0x9
 1292 079e 1A030000 		.4byte	.LASF87
 1293 07a2 09       		.byte	0x9
 1294 07a3 1503     		.2byte	0x315
 1295 07a5 8C040000 		.4byte	0x48c
 1296 07a9 40       		.byte	0x40
 1297 07aa 09       		.uleb128 0x9
 1298 07ab 12020000 		.4byte	.LASF124
 1299 07af 09       		.byte	0x9
 1300 07b0 1603     		.2byte	0x316
 1301 07b2 87040000 		.4byte	0x487
 1302 07b6 48       		.byte	0x48
 1303 07b7 09       		.uleb128 0x9
 1304 07b8 24030000 		.4byte	.LASF90
 1305 07bc 09       		.byte	0x9
 1306 07bd 1703     		.2byte	0x317
 1307 07bf D2070000 		.4byte	0x7d2
 1308 07c3 4C       		.byte	0x4c
 1309 07c4 09       		.uleb128 0x9
 1310 07c5 4D050000 		.4byte	.LASF125
 1311 07c9 09       		.byte	0x9
ARM GAS  /tmp/ccmWdU6j.s 			page 24


 1312 07ca 1803     		.2byte	0x318
 1313 07cc 82040000 		.4byte	0x482
 1314 07d0 80       		.byte	0x80
 1315 07d1 00       		.byte	0
 1316 07d2 11       		.uleb128 0x11
 1317 07d3 CE000000 		.4byte	0xce
 1318 07d7 E2070000 		.4byte	0x7e2
 1319 07db 12       		.uleb128 0x12
 1320 07dc 7B040000 		.4byte	0x47b
 1321 07e0 0C       		.byte	0xc
 1322 07e1 00       		.byte	0
 1323 07e2 14       		.uleb128 0x14
 1324 07e3 41040000 		.4byte	.LASF126
 1325 07e7 09       		.byte	0x9
 1326 07e8 1903     		.2byte	0x319
 1327 07ea C4060000 		.4byte	0x6c4
 1328 07ee 03       		.uleb128 0x3
 1329 07ef B1020000 		.4byte	.LASF127
 1330 07f3 0A       		.byte	0xa
 1331 07f4 65       		.byte	0x65
 1332 07f5 30030000 		.4byte	0x330
 1333 07f9 03       		.uleb128 0x3
 1334 07fa 18040000 		.4byte	.LASF128
 1335 07fe 0A       		.byte	0xa
 1336 07ff 6D       		.byte	0x6d
 1337 0800 D9000000 		.4byte	0xd9
 1338 0804 05       		.uleb128 0x5
 1339 0805 CC090000 		.4byte	.LASF129
 1340 0809 04       		.byte	0x4
 1341 080a 0A       		.byte	0xa
 1342 080b 89       		.byte	0x89
 1343 080c 1C080000 		.4byte	0x81c
 1344 0810 07       		.uleb128 0x7
 1345 0811 737000   		.ascii	"sp\000"
 1346 0814 0A       		.byte	0xa
 1347 0815 8A       		.byte	0x8a
 1348 0816 68090000 		.4byte	0x968
 1349 081a 00       		.byte	0
 1350 081b 00       		.byte	0
 1351 081c 0B       		.uleb128 0xb
 1352 081d 35070000 		.4byte	.LASF130
 1353 0821 64       		.byte	0x64
 1354 0822 0B       		.byte	0xb
 1355 0823 5901     		.2byte	0x159
 1356 0825 68090000 		.4byte	0x968
 1357 0829 08       		.uleb128 0x8
 1358 082a 73313600 		.ascii	"s16\000"
 1359 082e 0B       		.byte	0xb
 1360 082f 5B01     		.2byte	0x15b
 1361 0831 EE070000 		.4byte	0x7ee
 1362 0835 00       		.byte	0
 1363 0836 08       		.uleb128 0x8
 1364 0837 73313700 		.ascii	"s17\000"
 1365 083b 0B       		.byte	0xb
 1366 083c 5C01     		.2byte	0x15c
 1367 083e EE070000 		.4byte	0x7ee
 1368 0842 04       		.byte	0x4
ARM GAS  /tmp/ccmWdU6j.s 			page 25


 1369 0843 08       		.uleb128 0x8
 1370 0844 73313800 		.ascii	"s18\000"
 1371 0848 0B       		.byte	0xb
 1372 0849 5D01     		.2byte	0x15d
 1373 084b EE070000 		.4byte	0x7ee
 1374 084f 08       		.byte	0x8
 1375 0850 08       		.uleb128 0x8
 1376 0851 73313900 		.ascii	"s19\000"
 1377 0855 0B       		.byte	0xb
 1378 0856 5E01     		.2byte	0x15e
 1379 0858 EE070000 		.4byte	0x7ee
 1380 085c 0C       		.byte	0xc
 1381 085d 08       		.uleb128 0x8
 1382 085e 73323000 		.ascii	"s20\000"
 1383 0862 0B       		.byte	0xb
 1384 0863 5F01     		.2byte	0x15f
 1385 0865 EE070000 		.4byte	0x7ee
 1386 0869 10       		.byte	0x10
 1387 086a 08       		.uleb128 0x8
 1388 086b 73323100 		.ascii	"s21\000"
 1389 086f 0B       		.byte	0xb
 1390 0870 6001     		.2byte	0x160
 1391 0872 EE070000 		.4byte	0x7ee
 1392 0876 14       		.byte	0x14
 1393 0877 08       		.uleb128 0x8
 1394 0878 73323200 		.ascii	"s22\000"
 1395 087c 0B       		.byte	0xb
 1396 087d 6101     		.2byte	0x161
 1397 087f EE070000 		.4byte	0x7ee
 1398 0883 18       		.byte	0x18
 1399 0884 08       		.uleb128 0x8
 1400 0885 73323300 		.ascii	"s23\000"
 1401 0889 0B       		.byte	0xb
 1402 088a 6201     		.2byte	0x162
 1403 088c EE070000 		.4byte	0x7ee
 1404 0890 1C       		.byte	0x1c
 1405 0891 08       		.uleb128 0x8
 1406 0892 73323400 		.ascii	"s24\000"
 1407 0896 0B       		.byte	0xb
 1408 0897 6301     		.2byte	0x163
 1409 0899 EE070000 		.4byte	0x7ee
 1410 089d 20       		.byte	0x20
 1411 089e 08       		.uleb128 0x8
 1412 089f 73323500 		.ascii	"s25\000"
 1413 08a3 0B       		.byte	0xb
 1414 08a4 6401     		.2byte	0x164
 1415 08a6 EE070000 		.4byte	0x7ee
 1416 08aa 24       		.byte	0x24
 1417 08ab 08       		.uleb128 0x8
 1418 08ac 73323600 		.ascii	"s26\000"
 1419 08b0 0B       		.byte	0xb
 1420 08b1 6501     		.2byte	0x165
 1421 08b3 EE070000 		.4byte	0x7ee
 1422 08b7 28       		.byte	0x28
 1423 08b8 08       		.uleb128 0x8
 1424 08b9 73323700 		.ascii	"s27\000"
 1425 08bd 0B       		.byte	0xb
ARM GAS  /tmp/ccmWdU6j.s 			page 26


 1426 08be 6601     		.2byte	0x166
 1427 08c0 EE070000 		.4byte	0x7ee
 1428 08c4 2C       		.byte	0x2c
 1429 08c5 08       		.uleb128 0x8
 1430 08c6 73323800 		.ascii	"s28\000"
 1431 08ca 0B       		.byte	0xb
 1432 08cb 6701     		.2byte	0x167
 1433 08cd EE070000 		.4byte	0x7ee
 1434 08d1 30       		.byte	0x30
 1435 08d2 08       		.uleb128 0x8
 1436 08d3 73323900 		.ascii	"s29\000"
 1437 08d7 0B       		.byte	0xb
 1438 08d8 6801     		.2byte	0x168
 1439 08da EE070000 		.4byte	0x7ee
 1440 08de 34       		.byte	0x34
 1441 08df 08       		.uleb128 0x8
 1442 08e0 73333000 		.ascii	"s30\000"
 1443 08e4 0B       		.byte	0xb
 1444 08e5 6901     		.2byte	0x169
 1445 08e7 EE070000 		.4byte	0x7ee
 1446 08eb 38       		.byte	0x38
 1447 08ec 08       		.uleb128 0x8
 1448 08ed 73333100 		.ascii	"s31\000"
 1449 08f1 0B       		.byte	0xb
 1450 08f2 6A01     		.2byte	0x16a
 1451 08f4 EE070000 		.4byte	0x7ee
 1452 08f8 3C       		.byte	0x3c
 1453 08f9 08       		.uleb128 0x8
 1454 08fa 723400   		.ascii	"r4\000"
 1455 08fd 0B       		.byte	0xb
 1456 08fe 6C01     		.2byte	0x16c
 1457 0900 EE070000 		.4byte	0x7ee
 1458 0904 40       		.byte	0x40
 1459 0905 08       		.uleb128 0x8
 1460 0906 723500   		.ascii	"r5\000"
 1461 0909 0B       		.byte	0xb
 1462 090a 6D01     		.2byte	0x16d
 1463 090c EE070000 		.4byte	0x7ee
 1464 0910 44       		.byte	0x44
 1465 0911 08       		.uleb128 0x8
 1466 0912 723600   		.ascii	"r6\000"
 1467 0915 0B       		.byte	0xb
 1468 0916 6E01     		.2byte	0x16e
 1469 0918 EE070000 		.4byte	0x7ee
 1470 091c 48       		.byte	0x48
 1471 091d 08       		.uleb128 0x8
 1472 091e 723700   		.ascii	"r7\000"
 1473 0921 0B       		.byte	0xb
 1474 0922 6F01     		.2byte	0x16f
 1475 0924 EE070000 		.4byte	0x7ee
 1476 0928 4C       		.byte	0x4c
 1477 0929 08       		.uleb128 0x8
 1478 092a 723800   		.ascii	"r8\000"
 1479 092d 0B       		.byte	0xb
 1480 092e 7001     		.2byte	0x170
 1481 0930 EE070000 		.4byte	0x7ee
 1482 0934 50       		.byte	0x50
ARM GAS  /tmp/ccmWdU6j.s 			page 27


 1483 0935 08       		.uleb128 0x8
 1484 0936 723900   		.ascii	"r9\000"
 1485 0939 0B       		.byte	0xb
 1486 093a 7101     		.2byte	0x171
 1487 093c EE070000 		.4byte	0x7ee
 1488 0940 54       		.byte	0x54
 1489 0941 08       		.uleb128 0x8
 1490 0942 72313000 		.ascii	"r10\000"
 1491 0946 0B       		.byte	0xb
 1492 0947 7201     		.2byte	0x172
 1493 0949 EE070000 		.4byte	0x7ee
 1494 094d 58       		.byte	0x58
 1495 094e 08       		.uleb128 0x8
 1496 094f 72313100 		.ascii	"r11\000"
 1497 0953 0B       		.byte	0xb
 1498 0954 7301     		.2byte	0x173
 1499 0956 EE070000 		.4byte	0x7ee
 1500 095a 5C       		.byte	0x5c
 1501 095b 08       		.uleb128 0x8
 1502 095c 6C7200   		.ascii	"lr\000"
 1503 095f 0B       		.byte	0xb
 1504 0960 7401     		.2byte	0x174
 1505 0962 EE070000 		.4byte	0x7ee
 1506 0966 60       		.byte	0x60
 1507 0967 00       		.byte	0
 1508 0968 0A       		.uleb128 0xa
 1509 0969 04       		.byte	0x4
 1510 096a 1C080000 		.4byte	0x81c
 1511 096e 15       		.uleb128 0x15
 1512 096f 04       		.byte	0x4
 1513 0970 0C       		.byte	0xc
 1514 0971 38       		.byte	0x38
 1515 0972 83090000 		.4byte	0x983
 1516 0976 06       		.uleb128 0x6
 1517 0977 C8060000 		.4byte	.LASF131
 1518 097b 0C       		.byte	0xc
 1519 097c 3C       		.byte	0x3c
 1520 097d E4000000 		.4byte	0xe4
 1521 0981 00       		.byte	0
 1522 0982 00       		.byte	0
 1523 0983 03       		.uleb128 0x3
 1524 0984 AE080000 		.4byte	.LASF132
 1525 0988 0C       		.byte	0xc
 1526 0989 3D       		.byte	0x3d
 1527 098a 6E090000 		.4byte	0x96e
 1528 098e 15       		.uleb128 0x15
 1529 098f 18       		.byte	0x18
 1530 0990 0C       		.byte	0xc
 1531 0991 48       		.byte	0x48
 1532 0992 D1090000 		.4byte	0x9d1
 1533 0996 06       		.uleb128 0x6
 1534 0997 5D080000 		.4byte	.LASF133
 1535 099b 0C       		.byte	0xc
 1536 099c 49       		.byte	0x49
 1537 099d E4000000 		.4byte	0xe4
 1538 09a1 00       		.byte	0
 1539 09a2 06       		.uleb128 0x6
ARM GAS  /tmp/ccmWdU6j.s 			page 28


 1540 09a3 30040000 		.4byte	.LASF134
 1541 09a7 0C       		.byte	0xc
 1542 09a8 4A       		.byte	0x4a
 1543 09a9 E4000000 		.4byte	0xe4
 1544 09ad 04       		.byte	0x4
 1545 09ae 06       		.uleb128 0x6
 1546 09af F80A0000 		.4byte	.LASF135
 1547 09b3 0C       		.byte	0xc
 1548 09b4 4B       		.byte	0x4b
 1549 09b5 E4000000 		.4byte	0xe4
 1550 09b9 08       		.byte	0x8
 1551 09ba 07       		.uleb128 0x7
 1552 09bb 6E00     		.ascii	"n\000"
 1553 09bd 0C       		.byte	0xc
 1554 09be 4C       		.byte	0x4c
 1555 09bf 47010000 		.4byte	0x147
 1556 09c3 0C       		.byte	0xc
 1557 09c4 06       		.uleb128 0x6
 1558 09c5 D4020000 		.4byte	.LASF136
 1559 09c9 0C       		.byte	0xc
 1560 09ca 4D       		.byte	0x4d
 1561 09cb EF000000 		.4byte	0xef
 1562 09cf 10       		.byte	0x10
 1563 09d0 00       		.byte	0
 1564 09d1 03       		.uleb128 0x3
 1565 09d2 1E060000 		.4byte	.LASF137
 1566 09d6 0C       		.byte	0xc
 1567 09d7 4E       		.byte	0x4e
 1568 09d8 8E090000 		.4byte	0x98e
 1569 09dc 15       		.uleb128 0x15
 1570 09dd 38       		.byte	0x38
 1571 09de 0D       		.byte	0xd
 1572 09df 38       		.byte	0x38
 1573 09e0 150A0000 		.4byte	0xa15
 1574 09e4 06       		.uleb128 0x6
 1575 09e5 62050000 		.4byte	.LASF138
 1576 09e9 0D       		.byte	0xd
 1577 09ea 39       		.byte	0x39
 1578 09eb 47010000 		.4byte	0x147
 1579 09ef 00       		.byte	0
 1580 09f0 06       		.uleb128 0x6
 1581 09f1 02040000 		.4byte	.LASF139
 1582 09f5 0D       		.byte	0xd
 1583 09f6 3A       		.byte	0x3a
 1584 09f7 47010000 		.4byte	0x147
 1585 09fb 04       		.byte	0x4
 1586 09fc 06       		.uleb128 0x6
 1587 09fd 93040000 		.4byte	.LASF140
 1588 0a01 0D       		.byte	0xd
 1589 0a02 3B       		.byte	0x3b
 1590 0a03 D1090000 		.4byte	0x9d1
 1591 0a07 08       		.byte	0x8
 1592 0a08 06       		.uleb128 0x6
 1593 0a09 3B060000 		.4byte	.LASF141
 1594 0a0d 0D       		.byte	0xd
 1595 0a0e 3D       		.byte	0x3d
 1596 0a0f D1090000 		.4byte	0x9d1
ARM GAS  /tmp/ccmWdU6j.s 			page 29


 1597 0a13 20       		.byte	0x20
 1598 0a14 00       		.byte	0
 1599 0a15 03       		.uleb128 0x3
 1600 0a16 91060000 		.4byte	.LASF142
 1601 0a1a 0D       		.byte	0xd
 1602 0a1b 3F       		.byte	0x3f
 1603 0a1c DC090000 		.4byte	0x9dc
 1604 0a20 16       		.uleb128 0x16
 1605 0a21 04       		.byte	0x4
 1606 0a22 07       		.byte	0x7
 1607 0a23 C6       		.byte	0xc6
 1608 0a24 820A0000 		.4byte	0xa82
 1609 0a28 17       		.uleb128 0x17
 1610 0a29 890A0000 		.4byte	.LASF143
 1611 0a2d 07       		.byte	0x7
 1612 0a2e CD       		.byte	0xcd
 1613 0a2f 26010000 		.4byte	0x126
 1614 0a33 17       		.uleb128 0x17
 1615 0a34 48020000 		.4byte	.LASF144
 1616 0a38 07       		.byte	0x7
 1617 0a39 D4       		.byte	0xd4
 1618 0a3a 26010000 		.4byte	0x126
 1619 0a3e 17       		.uleb128 0x17
 1620 0a3f FB030000 		.4byte	.LASF145
 1621 0a43 07       		.byte	0x7
 1622 0a44 DB       		.byte	0xdb
 1623 0a45 30030000 		.4byte	0x330
 1624 0a49 17       		.uleb128 0x17
 1625 0a4a 14030000 		.4byte	.LASF146
 1626 0a4e 07       		.byte	0x7
 1627 0a4f E2       		.byte	0xe2
 1628 0a50 820A0000 		.4byte	0xa82
 1629 0a54 17       		.uleb128 0x17
 1630 0a55 2D070000 		.4byte	.LASF147
 1631 0a59 07       		.byte	0x7
 1632 0a5a E7       		.byte	0xe7
 1633 0a5b 26010000 		.4byte	0x126
 1634 0a5f 17       		.uleb128 0x17
 1635 0a60 2F000000 		.4byte	.LASF148
 1636 0a64 07       		.byte	0x7
 1637 0a65 F0       		.byte	0xf0
 1638 0a66 AD0A0000 		.4byte	0xaad
 1639 0a6a 17       		.uleb128 0x17
 1640 0a6b 5B040000 		.4byte	.LASF149
 1641 0a6f 07       		.byte	0x7
 1642 0a70 F9       		.byte	0xf9
 1643 0a71 E40A0000 		.4byte	0xae4
 1644 0a75 18       		.uleb128 0x18
 1645 0a76 EB020000 		.4byte	.LASF150
 1646 0a7a 07       		.byte	0x7
 1647 0a7b 0101     		.2byte	0x101
 1648 0a7d 31010000 		.4byte	0x131
 1649 0a81 00       		.byte	0
 1650 0a82 0A       		.uleb128 0xa
 1651 0a83 04       		.byte	0x4
 1652 0a84 48020000 		.4byte	0x248
 1653 0a88 05       		.uleb128 0x5
ARM GAS  /tmp/ccmWdU6j.s 			page 30


 1654 0a89 C7040000 		.4byte	.LASF151
 1655 0a8d 0C       		.byte	0xc
 1656 0a8e 0E       		.byte	0xe
 1657 0a8f 34       		.byte	0x34
 1658 0a90 AD0A0000 		.4byte	0xaad
 1659 0a94 06       		.uleb128 0x6
 1660 0a95 19080000 		.4byte	.LASF31
 1661 0a99 0E       		.byte	0xe
 1662 0a9a 35       		.byte	0x35
 1663 0a9b 7D020000 		.4byte	0x27d
 1664 0a9f 00       		.byte	0
 1665 0aa0 07       		.uleb128 0x7
 1666 0aa1 636E7400 		.ascii	"cnt\000"
 1667 0aa5 0E       		.byte	0xe
 1668 0aa6 37       		.byte	0x37
 1669 0aa7 3C010000 		.4byte	0x13c
 1670 0aab 08       		.byte	0x8
 1671 0aac 00       		.byte	0
 1672 0aad 0A       		.uleb128 0xa
 1673 0aae 04       		.byte	0x4
 1674 0aaf 880A0000 		.4byte	0xa88
 1675 0ab3 05       		.uleb128 0x5
 1676 0ab4 17090000 		.4byte	.LASF152
 1677 0ab8 10       		.byte	0x10
 1678 0ab9 0F       		.byte	0xf
 1679 0aba 39       		.byte	0x39
 1680 0abb E40A0000 		.4byte	0xae4
 1681 0abf 06       		.uleb128 0x6
 1682 0ac0 19080000 		.4byte	.LASF31
 1683 0ac4 0F       		.byte	0xf
 1684 0ac5 3A       		.byte	0x3a
 1685 0ac6 7D020000 		.4byte	0x27d
 1686 0aca 00       		.byte	0
 1687 0acb 06       		.uleb128 0x6
 1688 0acc 4B000000 		.4byte	.LASF153
 1689 0ad0 0F       		.byte	0xf
 1690 0ad1 3C       		.byte	0x3c
 1691 0ad2 53020000 		.4byte	0x253
 1692 0ad6 08       		.byte	0x8
 1693 0ad7 06       		.uleb128 0x6
 1694 0ad8 DB0A0000 		.4byte	.LASF51
 1695 0adc 0F       		.byte	0xf
 1696 0add 3E       		.byte	0x3e
 1697 0ade 180B0000 		.4byte	0xb18
 1698 0ae2 0C       		.byte	0xc
 1699 0ae3 00       		.byte	0
 1700 0ae4 0A       		.uleb128 0xa
 1701 0ae5 04       		.byte	0x4
 1702 0ae6 B30A0000 		.4byte	0xab3
 1703 0aea 0A       		.uleb128 0xa
 1704 0aeb 04       		.byte	0x4
 1705 0aec F00A0000 		.4byte	0xaf0
 1706 0af0 10       		.uleb128 0x10
 1707 0af1 F50A0000 		.4byte	0xaf5
 1708 0af5 04       		.uleb128 0x4
 1709 0af6 01       		.byte	0x1
 1710 0af7 08       		.byte	0x8
ARM GAS  /tmp/ccmWdU6j.s 			page 31


 1711 0af8 C1030000 		.4byte	.LASF154
 1712 0afc 0A       		.uleb128 0xa
 1713 0afd 04       		.byte	0x4
 1714 0afe F9070000 		.4byte	0x7f9
 1715 0b02 0A       		.uleb128 0xa
 1716 0b03 04       		.byte	0x4
 1717 0b04 32030000 		.4byte	0x332
 1718 0b08 0F       		.uleb128 0xf
 1719 0b09 EA0A0000 		.4byte	0xaea
 1720 0b0d 03       		.uleb128 0x3
 1721 0b0e BC090000 		.4byte	.LASF155
 1722 0b12 0F       		.byte	0xf
 1723 0b13 34       		.byte	0x34
 1724 0b14 B30A0000 		.4byte	0xab3
 1725 0b18 0A       		.uleb128 0xa
 1726 0b19 04       		.byte	0x4
 1727 0b1a 0D0B0000 		.4byte	0xb0d
 1728 0b1e 04       		.uleb128 0x4
 1729 0b1f 01       		.byte	0x1
 1730 0b20 02       		.byte	0x2
 1731 0b21 9B030000 		.4byte	.LASF156
 1732 0b25 0A       		.uleb128 0xa
 1733 0b26 04       		.byte	0x4
 1734 0b27 AD000000 		.4byte	0xad
 1735 0b2b 13       		.uleb128 0x13
 1736 0b2c 0C       		.byte	0xc
 1737 0b2d 10       		.byte	0x10
 1738 0b2e A201     		.2byte	0x1a2
 1739 0b30 830B0000 		.4byte	0xb83
 1740 0b34 09       		.uleb128 0x9
 1741 0b35 29040000 		.4byte	.LASF157
 1742 0b39 10       		.byte	0x10
 1743 0b3a A301     		.2byte	0x1a3
 1744 0b3c 830B0000 		.4byte	0xb83
 1745 0b40 00       		.byte	0
 1746 0b41 09       		.uleb128 0x9
 1747 0b42 D60A0000 		.4byte	.LASF158
 1748 0b46 10       		.byte	0x10
 1749 0b47 A401     		.2byte	0x1a4
 1750 0b49 890B0000 		.4byte	0xb89
 1751 0b4d 04       		.byte	0x4
 1752 0b4e 09       		.uleb128 0x9
 1753 0b4f 98080000 		.4byte	.LASF159
 1754 0b53 10       		.byte	0x10
 1755 0b54 A801     		.2byte	0x1a8
 1756 0b56 AD000000 		.4byte	0xad
 1757 0b5a 08       		.byte	0x8
 1758 0b5b 09       		.uleb128 0x9
 1759 0b5c AB020000 		.4byte	.LASF160
 1760 0b60 10       		.byte	0x10
 1761 0b61 AA01     		.2byte	0x1aa
 1762 0b63 AD000000 		.4byte	0xad
 1763 0b67 09       		.byte	0x9
 1764 0b68 09       		.uleb128 0x9
 1765 0b69 A6070000 		.4byte	.LASF161
 1766 0b6d 10       		.byte	0x10
 1767 0b6e AC01     		.2byte	0x1ac
ARM GAS  /tmp/ccmWdU6j.s 			page 32


 1768 0b70 AD000000 		.4byte	0xad
 1769 0b74 0A       		.byte	0xa
 1770 0b75 09       		.uleb128 0x9
 1771 0b76 28080000 		.4byte	.LASF162
 1772 0b7a 10       		.byte	0x10
 1773 0b7b AD01     		.2byte	0x1ad
 1774 0b7d AD000000 		.4byte	0xad
 1775 0b81 0B       		.byte	0xb
 1776 0b82 00       		.byte	0
 1777 0b83 0A       		.uleb128 0xa
 1778 0b84 04       		.byte	0x4
 1779 0b85 03050000 		.4byte	0x503
 1780 0b89 0A       		.uleb128 0xa
 1781 0b8a 04       		.byte	0x4
 1782 0b8b 82040000 		.4byte	0x482
 1783 0b8f 14       		.uleb128 0x14
 1784 0b90 05000000 		.4byte	.LASF163
 1785 0b94 10       		.byte	0x10
 1786 0b95 AE01     		.2byte	0x1ae
 1787 0b97 2B0B0000 		.4byte	0xb2b
 1788 0b9b 0A       		.uleb128 0xa
 1789 0b9c 04       		.byte	0x4
 1790 0b9d A10B0000 		.4byte	0xba1
 1791 0ba1 10       		.uleb128 0x10
 1792 0ba2 AD000000 		.4byte	0xad
 1793 0ba6 19       		.uleb128 0x19
 1794 0ba7 01       		.byte	0x1
 1795 0ba8 11       		.byte	0x11
 1796 0ba9 28       		.byte	0x28
 1797 0baa E50B0000 		.4byte	0xbe5
 1798 0bae 1A       		.uleb128 0x1a
 1799 0baf 81030000 		.4byte	.LASF164
 1800 0bb3 00       		.sleb128 0
 1801 0bb4 1A       		.uleb128 0x1a
 1802 0bb5 EF0A0000 		.4byte	.LASF165
 1803 0bb9 01       		.sleb128 1
 1804 0bba 1A       		.uleb128 0x1a
 1805 0bbb 52070000 		.4byte	.LASF166
 1806 0bbf 02       		.sleb128 2
 1807 0bc0 1A       		.uleb128 0x1a
 1808 0bc1 68070000 		.4byte	.LASF167
 1809 0bc5 03       		.sleb128 3
 1810 0bc6 1A       		.uleb128 0x1a
 1811 0bc7 29090000 		.4byte	.LASF168
 1812 0bcb 04       		.sleb128 4
 1813 0bcc 1A       		.uleb128 0x1a
 1814 0bcd F1030000 		.4byte	.LASF169
 1815 0bd1 05       		.sleb128 5
 1816 0bd2 1A       		.uleb128 0x1a
 1817 0bd3 F2090000 		.4byte	.LASF170
 1818 0bd7 06       		.sleb128 6
 1819 0bd8 1A       		.uleb128 0x1a
 1820 0bd9 68050000 		.4byte	.LASF171
 1821 0bdd 07       		.sleb128 7
 1822 0bde 1A       		.uleb128 0x1a
 1823 0bdf A1030000 		.4byte	.LASF172
 1824 0be3 08       		.sleb128 8
ARM GAS  /tmp/ccmWdU6j.s 			page 33


 1825 0be4 00       		.byte	0
 1826 0be5 03       		.uleb128 0x3
 1827 0be6 6F000000 		.4byte	.LASF173
 1828 0bea 11       		.byte	0x11
 1829 0beb 32       		.byte	0x32
 1830 0bec A60B0000 		.4byte	0xba6
 1831 0bf0 15       		.uleb128 0x15
 1832 0bf1 08       		.byte	0x8
 1833 0bf2 11       		.byte	0x11
 1834 0bf3 37       		.byte	0x37
 1835 0bf4 110C0000 		.4byte	0xc11
 1836 0bf8 06       		.uleb128 0x6
 1837 0bf9 70040000 		.4byte	.LASF174
 1838 0bfd 11       		.byte	0x11
 1839 0bfe 38       		.byte	0x38
 1840 0bff CE000000 		.4byte	0xce
 1841 0c03 00       		.byte	0
 1842 0c04 06       		.uleb128 0x6
 1843 0c05 53060000 		.4byte	.LASF175
 1844 0c09 11       		.byte	0x11
 1845 0c0a 39       		.byte	0x39
 1846 0c0b CE000000 		.4byte	0xce
 1847 0c0f 04       		.byte	0x4
 1848 0c10 00       		.byte	0
 1849 0c11 03       		.uleb128 0x3
 1850 0c12 F8060000 		.4byte	.LASF176
 1851 0c16 11       		.byte	0x11
 1852 0c17 3A       		.byte	0x3a
 1853 0c18 F00B0000 		.4byte	0xbf0
 1854 0c1c 1B       		.uleb128 0x1b
 1855 0c1d 1E0B0000 		.4byte	0xb1e
 1856 0c21 2B0C0000 		.4byte	0xc2b
 1857 0c25 0D       		.uleb128 0xd
 1858 0c26 30030000 		.4byte	0x330
 1859 0c2a 00       		.byte	0
 1860 0c2b 0A       		.uleb128 0xa
 1861 0c2c 04       		.byte	0x4
 1862 0c2d 1C0C0000 		.4byte	0xc1c
 1863 0c31 1B       		.uleb128 0x1b
 1864 0c32 1E0B0000 		.4byte	0xb1e
 1865 0c36 4F0C0000 		.4byte	0xc4f
 1866 0c3a 0D       		.uleb128 0xd
 1867 0c3b 30030000 		.4byte	0x330
 1868 0c3f 0D       		.uleb128 0xd
 1869 0c40 CE000000 		.4byte	0xce
 1870 0c44 0D       		.uleb128 0xd
 1871 0c45 250B0000 		.4byte	0xb25
 1872 0c49 0D       		.uleb128 0xd
 1873 0c4a CE000000 		.4byte	0xce
 1874 0c4e 00       		.byte	0
 1875 0c4f 0A       		.uleb128 0xa
 1876 0c50 04       		.byte	0x4
 1877 0c51 310C0000 		.4byte	0xc31
 1878 0c55 1B       		.uleb128 0x1b
 1879 0c56 1E0B0000 		.4byte	0xb1e
 1880 0c5a 730C0000 		.4byte	0xc73
 1881 0c5e 0D       		.uleb128 0xd
ARM GAS  /tmp/ccmWdU6j.s 			page 34


 1882 0c5f 30030000 		.4byte	0x330
 1883 0c63 0D       		.uleb128 0xd
 1884 0c64 CE000000 		.4byte	0xce
 1885 0c68 0D       		.uleb128 0xd
 1886 0c69 9B0B0000 		.4byte	0xb9b
 1887 0c6d 0D       		.uleb128 0xd
 1888 0c6e CE000000 		.4byte	0xce
 1889 0c72 00       		.byte	0
 1890 0c73 0A       		.uleb128 0xa
 1891 0c74 04       		.byte	0x4
 1892 0c75 550C0000 		.4byte	0xc55
 1893 0c79 1B       		.uleb128 0x1b
 1894 0c7a 1E0B0000 		.4byte	0xb1e
 1895 0c7e 8D0C0000 		.4byte	0xc8d
 1896 0c82 0D       		.uleb128 0xd
 1897 0c83 30030000 		.4byte	0x330
 1898 0c87 0D       		.uleb128 0xd
 1899 0c88 8D0C0000 		.4byte	0xc8d
 1900 0c8c 00       		.byte	0
 1901 0c8d 0A       		.uleb128 0xa
 1902 0c8e 04       		.byte	0x4
 1903 0c8f 110C0000 		.4byte	0xc11
 1904 0c93 0A       		.uleb128 0xa
 1905 0c94 04       		.byte	0x4
 1906 0c95 790C0000 		.4byte	0xc79
 1907 0c99 15       		.uleb128 0x15
 1908 0c9a 04       		.byte	0x4
 1909 0c9b 12       		.byte	0x12
 1910 0c9c 5B       		.byte	0x5b
 1911 0c9d BA0C0000 		.4byte	0xcba
 1912 0ca1 07       		.uleb128 0x7
 1913 0ca2 73657400 		.ascii	"set\000"
 1914 0ca6 12       		.byte	0x12
 1915 0ca7 5C       		.byte	0x5c
 1916 0ca8 B8000000 		.4byte	0xb8
 1917 0cac 00       		.byte	0
 1918 0cad 06       		.uleb128 0x6
 1919 0cae 79040000 		.4byte	.LASF177
 1920 0cb2 12       		.byte	0x12
 1921 0cb3 5D       		.byte	0x5d
 1922 0cb4 B8000000 		.4byte	0xb8
 1923 0cb8 02       		.byte	0x2
 1924 0cb9 00       		.byte	0
 1925 0cba 16       		.uleb128 0x16
 1926 0cbb 04       		.byte	0x4
 1927 0cbc 12       		.byte	0x12
 1928 0cbd 59       		.byte	0x59
 1929 0cbe D50C0000 		.4byte	0xcd5
 1930 0cc2 1C       		.uleb128 0x1c
 1931 0cc3 5700     		.ascii	"W\000"
 1932 0cc5 12       		.byte	0x12
 1933 0cc6 5A       		.byte	0x5a
 1934 0cc7 CE000000 		.4byte	0xce
 1935 0ccb 1C       		.uleb128 0x1c
 1936 0ccc 4800     		.ascii	"H\000"
 1937 0cce 12       		.byte	0x12
 1938 0ccf 5E       		.byte	0x5e
ARM GAS  /tmp/ccmWdU6j.s 			page 35


 1939 0cd0 990C0000 		.4byte	0xc99
 1940 0cd4 00       		.byte	0
 1941 0cd5 15       		.uleb128 0x15
 1942 0cd6 28       		.byte	0x28
 1943 0cd7 12       		.byte	0x12
 1944 0cd8 51       		.byte	0x51
 1945 0cd9 560D0000 		.4byte	0xd56
 1946 0cdd 06       		.uleb128 0x6
 1947 0cde 18060000 		.4byte	.LASF178
 1948 0ce2 12       		.byte	0x12
 1949 0ce3 53       		.byte	0x53
 1950 0ce4 82040000 		.4byte	0x482
 1951 0ce8 00       		.byte	0
 1952 0ce9 06       		.uleb128 0x6
 1953 0cea 73080000 		.4byte	.LASF179
 1954 0cee 12       		.byte	0x12
 1955 0cef 54       		.byte	0x54
 1956 0cf0 82040000 		.4byte	0x482
 1957 0cf4 04       		.byte	0x4
 1958 0cf5 06       		.uleb128 0x6
 1959 0cf6 7A050000 		.4byte	.LASF180
 1960 0cfa 12       		.byte	0x12
 1961 0cfb 55       		.byte	0x55
 1962 0cfc 82040000 		.4byte	0x482
 1963 0d00 08       		.byte	0x8
 1964 0d01 06       		.uleb128 0x6
 1965 0d02 DA050000 		.4byte	.LASF181
 1966 0d06 12       		.byte	0x12
 1967 0d07 56       		.byte	0x56
 1968 0d08 82040000 		.4byte	0x482
 1969 0d0c 0C       		.byte	0xc
 1970 0d0d 07       		.uleb128 0x7
 1971 0d0e 49445200 		.ascii	"IDR\000"
 1972 0d12 12       		.byte	0x12
 1973 0d13 57       		.byte	0x57
 1974 0d14 82040000 		.4byte	0x482
 1975 0d18 10       		.byte	0x10
 1976 0d19 07       		.uleb128 0x7
 1977 0d1a 4F445200 		.ascii	"ODR\000"
 1978 0d1e 12       		.byte	0x12
 1979 0d1f 58       		.byte	0x58
 1980 0d20 82040000 		.4byte	0x482
 1981 0d24 14       		.byte	0x14
 1982 0d25 06       		.uleb128 0x6
 1983 0d26 A8090000 		.4byte	.LASF182
 1984 0d2a 12       		.byte	0x12
 1985 0d2b 5F       		.byte	0x5f
 1986 0d2c 560D0000 		.4byte	0xd56
 1987 0d30 18       		.byte	0x18
 1988 0d31 06       		.uleb128 0x6
 1989 0d32 DF070000 		.4byte	.LASF183
 1990 0d36 12       		.byte	0x12
 1991 0d37 60       		.byte	0x60
 1992 0d38 82040000 		.4byte	0x482
 1993 0d3c 1C       		.byte	0x1c
 1994 0d3d 06       		.uleb128 0x6
 1995 0d3e 36060000 		.4byte	.LASF184
ARM GAS  /tmp/ccmWdU6j.s 			page 36


 1996 0d42 12       		.byte	0x12
 1997 0d43 61       		.byte	0x61
 1998 0d44 82040000 		.4byte	0x482
 1999 0d48 20       		.byte	0x20
 2000 0d49 06       		.uleb128 0x6
 2001 0d4a 0F080000 		.4byte	.LASF185
 2002 0d4e 12       		.byte	0x12
 2003 0d4f 62       		.byte	0x62
 2004 0d50 82040000 		.4byte	0x482
 2005 0d54 24       		.byte	0x24
 2006 0d55 00       		.byte	0
 2007 0d56 0F       		.uleb128 0xf
 2008 0d57 BA0C0000 		.4byte	0xcba
 2009 0d5b 03       		.uleb128 0x3
 2010 0d5c 63030000 		.4byte	.LASF186
 2011 0d60 12       		.byte	0x12
 2012 0d61 63       		.byte	0x63
 2013 0d62 D50C0000 		.4byte	0xcd5
 2014 0d66 0A       		.uleb128 0xa
 2015 0d67 04       		.byte	0x4
 2016 0d68 5B0D0000 		.4byte	0xd5b
 2017 0d6c 0A       		.uleb128 0xa
 2018 0d6d 04       		.byte	0x4
 2019 0d6e 720D0000 		.4byte	0xd72
 2020 0d72 10       		.uleb128 0x10
 2021 0d73 8F0B0000 		.4byte	0xb8f
 2022 0d77 19       		.uleb128 0x19
 2023 0d78 01       		.byte	0x1
 2024 0d79 13       		.byte	0x13
 2025 0d7a 7A       		.byte	0x7a
 2026 0d7b 920D0000 		.4byte	0xd92
 2027 0d7f 1A       		.uleb128 0x1a
 2028 0d80 A0060000 		.4byte	.LASF187
 2029 0d84 00       		.sleb128 0
 2030 0d85 1A       		.uleb128 0x1a
 2031 0d86 1F020000 		.4byte	.LASF188
 2032 0d8a 01       		.sleb128 1
 2033 0d8b 1A       		.uleb128 0x1a
 2034 0d8c 6A020000 		.4byte	.LASF189
 2035 0d90 02       		.sleb128 2
 2036 0d91 00       		.byte	0
 2037 0d92 03       		.uleb128 0x3
 2038 0d93 C40A0000 		.4byte	.LASF190
 2039 0d97 13       		.byte	0x13
 2040 0d98 7E       		.byte	0x7e
 2041 0d99 770D0000 		.4byte	0xd77
 2042 0d9d 03       		.uleb128 0x3
 2043 0d9e 24050000 		.4byte	.LASF191
 2044 0da2 14       		.byte	0x14
 2045 0da3 DB       		.byte	0xdb
 2046 0da4 CE000000 		.4byte	0xce
 2047 0da8 03       		.uleb128 0x3
 2048 0da9 9D090000 		.4byte	.LASF192
 2049 0dad 14       		.byte	0x14
 2050 0dae E0       		.byte	0xe0
 2051 0daf CE000000 		.4byte	0xce
 2052 0db3 03       		.uleb128 0x3
ARM GAS  /tmp/ccmWdU6j.s 			page 37


 2053 0db4 70060000 		.4byte	.LASF193
 2054 0db8 14       		.byte	0x14
 2055 0db9 E5       		.byte	0xe5
 2056 0dba BE0D0000 		.4byte	0xdbe
 2057 0dbe 0B       		.uleb128 0xb
 2058 0dbf 70060000 		.4byte	.LASF193
 2059 0dc3 50       		.byte	0x50
 2060 0dc4 14       		.byte	0x14
 2061 0dc5 1501     		.2byte	0x115
 2062 0dc7 820E0000 		.4byte	0xe82
 2063 0dcb 08       		.uleb128 0x8
 2064 0dcc 766D7400 		.ascii	"vmt\000"
 2065 0dd0 14       		.byte	0x14
 2066 0dd1 1901     		.2byte	0x119
 2067 0dd3 3F0F0000 		.4byte	0xf3f
 2068 0dd7 00       		.byte	0
 2069 0dd8 09       		.uleb128 0x9
 2070 0dd9 AD000000 		.4byte	.LASF37
 2071 0ddd 14       		.byte	0x14
 2072 0dde 1A01     		.2byte	0x11a
 2073 0de0 E50B0000 		.4byte	0xbe5
 2074 0de4 04       		.byte	0x4
 2075 0de5 08       		.uleb128 0x8
 2076 0de6 63696400 		.ascii	"cid\000"
 2077 0dea 14       		.byte	0x14
 2078 0deb 1A01     		.2byte	0x11a
 2079 0ded 9C040000 		.4byte	0x49c
 2080 0df1 08       		.byte	0x8
 2081 0df2 08       		.uleb128 0x8
 2082 0df3 63736400 		.ascii	"csd\000"
 2083 0df7 14       		.byte	0x14
 2084 0df8 1A01     		.2byte	0x11a
 2085 0dfa 9C040000 		.4byte	0x49c
 2086 0dfe 18       		.byte	0x18
 2087 0dff 09       		.uleb128 0x9
 2088 0e00 D5030000 		.4byte	.LASF194
 2089 0e04 14       		.byte	0x14
 2090 0e05 1A01     		.2byte	0x11a
 2091 0e07 CE000000 		.4byte	0xce
 2092 0e0b 28       		.byte	0x28
 2093 0e0c 09       		.uleb128 0x9
 2094 0e0d A6000000 		.4byte	.LASF195
 2095 0e11 14       		.byte	0x14
 2096 0e12 1E01     		.2byte	0x11e
 2097 0e14 4A0F0000 		.4byte	0xf4a
 2098 0e18 2C       		.byte	0x2c
 2099 0e19 09       		.uleb128 0x9
 2100 0e1a F3000000 		.4byte	.LASF196
 2101 0e1e 14       		.byte	0x14
 2102 0e1f 2201     		.2byte	0x122
 2103 0e21 9D0D0000 		.4byte	0xd9d
 2104 0e25 30       		.byte	0x30
 2105 0e26 09       		.uleb128 0x9
 2106 0e27 0B040000 		.4byte	.LASF197
 2107 0e2b 14       		.byte	0x14
 2108 0e2c 2601     		.2byte	0x126
 2109 0e2e A80D0000 		.4byte	0xda8
ARM GAS  /tmp/ccmWdU6j.s 			page 38


 2110 0e32 34       		.byte	0x34
 2111 0e33 08       		.uleb128 0x8
 2112 0e34 72636100 		.ascii	"rca\000"
 2113 0e38 14       		.byte	0x14
 2114 0e39 2A01     		.2byte	0x12a
 2115 0e3b CE000000 		.4byte	0xce
 2116 0e3f 38       		.byte	0x38
 2117 0e40 09       		.uleb128 0x9
 2118 0e41 C8080000 		.4byte	.LASF198
 2119 0e45 14       		.byte	0x14
 2120 0e46 2F01     		.2byte	0x12f
 2121 0e48 48020000 		.4byte	0x248
 2122 0e4c 3C       		.byte	0x3c
 2123 0e4d 09       		.uleb128 0x9
 2124 0e4e 81020000 		.4byte	.LASF199
 2125 0e52 14       		.byte	0x14
 2126 0e53 3301     		.2byte	0x133
 2127 0e55 CE000000 		.4byte	0xce
 2128 0e59 40       		.byte	0x40
 2129 0e5a 08       		.uleb128 0x8
 2130 0e5b 646D6100 		.ascii	"dma\000"
 2131 0e5f 14       		.byte	0x14
 2132 0e60 3701     		.2byte	0x137
 2133 0e62 6C0D0000 		.4byte	0xd6c
 2134 0e66 44       		.byte	0x44
 2135 0e67 09       		.uleb128 0x9
 2136 0e68 5B020000 		.4byte	.LASF200
 2137 0e6c 14       		.byte	0x14
 2138 0e6d 3C01     		.2byte	0x13c
 2139 0e6f 550F0000 		.4byte	0xf55
 2140 0e73 48       		.byte	0x48
 2141 0e74 09       		.uleb128 0x9
 2142 0e75 FC070000 		.4byte	.LASF201
 2143 0e79 14       		.byte	0x14
 2144 0e7a 3F01     		.2byte	0x13f
 2145 0e7c 600F0000 		.4byte	0xf60
 2146 0e80 4C       		.byte	0x4c
 2147 0e81 00       		.byte	0
 2148 0e82 15       		.uleb128 0x15
 2149 0e83 08       		.byte	0x8
 2150 0e84 14       		.byte	0x14
 2151 0e85 EB       		.byte	0xeb
 2152 0e86 B00E0000 		.4byte	0xeb0
 2153 0e8a 06       		.uleb128 0x6
 2154 0e8b D9080000 		.4byte	.LASF202
 2155 0e8f 14       		.byte	0x14
 2156 0e90 F4       		.byte	0xf4
 2157 0e91 250B0000 		.4byte	0xb25
 2158 0e95 00       		.byte	0
 2159 0e96 06       		.uleb128 0x6
 2160 0e97 E4080000 		.4byte	.LASF203
 2161 0e9b 14       		.byte	0x14
 2162 0e9c F8       		.byte	0xf8
 2163 0e9d 920D0000 		.4byte	0xd92
 2164 0ea1 04       		.byte	0x4
 2165 0ea2 09       		.uleb128 0x9
 2166 0ea3 7A080000 		.4byte	.LASF204
ARM GAS  /tmp/ccmWdU6j.s 			page 39


 2167 0ea7 14       		.byte	0x14
 2168 0ea8 0001     		.2byte	0x100
 2169 0eaa AD000000 		.4byte	0xad
 2170 0eae 05       		.byte	0x5
 2171 0eaf 00       		.byte	0
 2172 0eb0 14       		.uleb128 0x14
 2173 0eb1 E00A0000 		.4byte	.LASF205
 2174 0eb5 14       		.byte	0x14
 2175 0eb6 0101     		.2byte	0x101
 2176 0eb8 820E0000 		.4byte	0xe82
 2177 0ebc 0B       		.uleb128 0xb
 2178 0ebd 4E040000 		.4byte	.LASF206
 2179 0ec1 24       		.byte	0x24
 2180 0ec2 14       		.byte	0x14
 2181 0ec3 0E01     		.2byte	0x10e
 2182 0ec5 3F0F0000 		.4byte	0xf3f
 2183 0ec9 09       		.uleb128 0x9
 2184 0eca 230A0000 		.4byte	.LASF207
 2185 0ece 14       		.byte	0x14
 2186 0ecf 0F01     		.2byte	0x10f
 2187 0ed1 2C000000 		.4byte	0x2c
 2188 0ed5 00       		.byte	0
 2189 0ed6 09       		.uleb128 0x9
 2190 0ed7 CF000000 		.4byte	.LASF208
 2191 0edb 14       		.byte	0x14
 2192 0edc 0F01     		.2byte	0x10f
 2193 0ede 2B0C0000 		.4byte	0xc2b
 2194 0ee2 04       		.byte	0x4
 2195 0ee3 09       		.uleb128 0x9
 2196 0ee4 5B060000 		.4byte	.LASF209
 2197 0ee8 14       		.byte	0x14
 2198 0ee9 0F01     		.2byte	0x10f
 2199 0eeb 2B0C0000 		.4byte	0xc2b
 2200 0eef 08       		.byte	0x8
 2201 0ef0 09       		.uleb128 0x9
 2202 0ef1 AB050000 		.4byte	.LASF210
 2203 0ef5 14       		.byte	0x14
 2204 0ef6 0F01     		.2byte	0x10f
 2205 0ef8 2B0C0000 		.4byte	0xc2b
 2206 0efc 0C       		.byte	0xc
 2207 0efd 09       		.uleb128 0x9
 2208 0efe 5D070000 		.4byte	.LASF211
 2209 0f02 14       		.byte	0x14
 2210 0f03 0F01     		.2byte	0x10f
 2211 0f05 2B0C0000 		.4byte	0xc2b
 2212 0f09 10       		.byte	0x10
 2213 0f0a 09       		.uleb128 0x9
 2214 0f0b 31060000 		.4byte	.LASF212
 2215 0f0f 14       		.byte	0x14
 2216 0f10 0F01     		.2byte	0x10f
 2217 0f12 4F0C0000 		.4byte	0xc4f
 2218 0f16 14       		.byte	0x14
 2219 0f17 09       		.uleb128 0x9
 2220 0f18 A0000000 		.4byte	.LASF213
 2221 0f1c 14       		.byte	0x14
 2222 0f1d 0F01     		.2byte	0x10f
 2223 0f1f 730C0000 		.4byte	0xc73
ARM GAS  /tmp/ccmWdU6j.s 			page 40


 2224 0f23 18       		.byte	0x18
 2225 0f24 09       		.uleb128 0x9
 2226 0f25 E6050000 		.4byte	.LASF214
 2227 0f29 14       		.byte	0x14
 2228 0f2a 0F01     		.2byte	0x10f
 2229 0f2c 2B0C0000 		.4byte	0xc2b
 2230 0f30 1C       		.byte	0x1c
 2231 0f31 09       		.uleb128 0x9
 2232 0f32 51000000 		.4byte	.LASF215
 2233 0f36 14       		.byte	0x14
 2234 0f37 0F01     		.2byte	0x10f
 2235 0f39 930C0000 		.4byte	0xc93
 2236 0f3d 20       		.byte	0x20
 2237 0f3e 00       		.byte	0
 2238 0f3f 0A       		.uleb128 0xa
 2239 0f40 04       		.byte	0x4
 2240 0f41 450F0000 		.4byte	0xf45
 2241 0f45 10       		.uleb128 0x10
 2242 0f46 BC0E0000 		.4byte	0xebc
 2243 0f4a 0A       		.uleb128 0xa
 2244 0f4b 04       		.byte	0x4
 2245 0f4c 500F0000 		.4byte	0xf50
 2246 0f50 10       		.uleb128 0x10
 2247 0f51 B00E0000 		.4byte	0xeb0
 2248 0f55 0A       		.uleb128 0xa
 2249 0f56 04       		.byte	0x4
 2250 0f57 E2070000 		.4byte	0x7e2
 2251 0f5b 1D       		.uleb128 0x1d
 2252 0f5c C0000000 		.4byte	.LASF248
 2253 0f60 0A       		.uleb128 0xa
 2254 0f61 04       		.byte	0x4
 2255 0f62 5B0F0000 		.4byte	0xf5b
 2256 0f66 15       		.uleb128 0x15
 2257 0f67 1C       		.byte	0x1c
 2258 0f68 01       		.byte	0x1
 2259 0f69 36       		.byte	0x36
 2260 0f6a C30F0000 		.4byte	0xfc3
 2261 0f6e 06       		.uleb128 0x6
 2262 0f6f C6030000 		.4byte	.LASF216
 2263 0f73 01       		.byte	0x1
 2264 0f74 37       		.byte	0x37
 2265 0f75 CE000000 		.4byte	0xce
 2266 0f79 00       		.byte	0
 2267 0f7a 06       		.uleb128 0x6
 2268 0f7b C0040000 		.4byte	.LASF217
 2269 0f7f 01       		.byte	0x1
 2270 0f80 38       		.byte	0x38
 2271 0f81 CE000000 		.4byte	0xce
 2272 0f85 04       		.byte	0x4
 2273 0f86 06       		.uleb128 0x6
 2274 0f87 84040000 		.4byte	.LASF218
 2275 0f8b 01       		.byte	0x1
 2276 0f8c 39       		.byte	0x39
 2277 0f8d CE000000 		.4byte	0xce
 2278 0f91 08       		.byte	0x8
 2279 0f92 06       		.uleb128 0x6
 2280 0f93 74050000 		.4byte	.LASF219
ARM GAS  /tmp/ccmWdU6j.s 			page 41


 2281 0f97 01       		.byte	0x1
 2282 0f98 3A       		.byte	0x3a
 2283 0f99 CE000000 		.4byte	0xce
 2284 0f9d 0C       		.byte	0xc
 2285 0f9e 07       		.uleb128 0x7
 2286 0f9f 6F647200 		.ascii	"odr\000"
 2287 0fa3 01       		.byte	0x1
 2288 0fa4 3B       		.byte	0x3b
 2289 0fa5 CE000000 		.4byte	0xce
 2290 0fa9 10       		.byte	0x10
 2291 0faa 06       		.uleb128 0x6
 2292 0fab F3060000 		.4byte	.LASF220
 2293 0faf 01       		.byte	0x1
 2294 0fb0 3C       		.byte	0x3c
 2295 0fb1 CE000000 		.4byte	0xce
 2296 0fb5 14       		.byte	0x14
 2297 0fb6 06       		.uleb128 0x6
 2298 0fb7 9E040000 		.4byte	.LASF221
 2299 0fbb 01       		.byte	0x1
 2300 0fbc 3D       		.byte	0x3d
 2301 0fbd CE000000 		.4byte	0xce
 2302 0fc1 18       		.byte	0x18
 2303 0fc2 00       		.byte	0
 2304 0fc3 03       		.uleb128 0x3
 2305 0fc4 D4040000 		.4byte	.LASF222
 2306 0fc8 01       		.byte	0x1
 2307 0fc9 3E       		.byte	0x3e
 2308 0fca 660F0000 		.4byte	0xf66
 2309 0fce 15       		.uleb128 0x15
 2310 0fcf FC       		.byte	0xfc
 2311 0fd0 01       		.byte	0x1
 2312 0fd1 43       		.byte	0x43
 2313 0fd2 43100000 		.4byte	0x1043
 2314 0fd6 06       		.uleb128 0x6
 2315 0fd7 CF070000 		.4byte	.LASF223
 2316 0fdb 01       		.byte	0x1
 2317 0fdc 45       		.byte	0x45
 2318 0fdd C30F0000 		.4byte	0xfc3
 2319 0fe1 00       		.byte	0
 2320 0fe2 06       		.uleb128 0x6
 2321 0fe3 07060000 		.4byte	.LASF224
 2322 0fe7 01       		.byte	0x1
 2323 0fe8 48       		.byte	0x48
 2324 0fe9 C30F0000 		.4byte	0xfc3
 2325 0fed 1C       		.byte	0x1c
 2326 0fee 06       		.uleb128 0x6
 2327 0fef 8C040000 		.4byte	.LASF225
 2328 0ff3 01       		.byte	0x1
 2329 0ff4 4B       		.byte	0x4b
 2330 0ff5 C30F0000 		.4byte	0xfc3
 2331 0ff9 38       		.byte	0x38
 2332 0ffa 06       		.uleb128 0x6
 2333 0ffb 70030000 		.4byte	.LASF226
 2334 0fff 01       		.byte	0x1
 2335 1000 4E       		.byte	0x4e
 2336 1001 C30F0000 		.4byte	0xfc3
 2337 1005 54       		.byte	0x54
ARM GAS  /tmp/ccmWdU6j.s 			page 42


 2338 1006 06       		.uleb128 0x6
 2339 1007 B3000000 		.4byte	.LASF227
 2340 100b 01       		.byte	0x1
 2341 100c 51       		.byte	0x51
 2342 100d C30F0000 		.4byte	0xfc3
 2343 1011 70       		.byte	0x70
 2344 1012 06       		.uleb128 0x6
 2345 1013 770A0000 		.4byte	.LASF228
 2346 1017 01       		.byte	0x1
 2347 1018 54       		.byte	0x54
 2348 1019 C30F0000 		.4byte	0xfc3
 2349 101d 8C       		.byte	0x8c
 2350 101e 06       		.uleb128 0x6
 2351 101f 83080000 		.4byte	.LASF229
 2352 1023 01       		.byte	0x1
 2353 1024 57       		.byte	0x57
 2354 1025 C30F0000 		.4byte	0xfc3
 2355 1029 A8       		.byte	0xa8
 2356 102a 06       		.uleb128 0x6
 2357 102b D9060000 		.4byte	.LASF230
 2358 102f 01       		.byte	0x1
 2359 1030 5A       		.byte	0x5a
 2360 1031 C30F0000 		.4byte	0xfc3
 2361 1035 C4       		.byte	0xc4
 2362 1036 06       		.uleb128 0x6
 2363 1037 37050000 		.4byte	.LASF231
 2364 103b 01       		.byte	0x1
 2365 103c 5D       		.byte	0x5d
 2366 103d C30F0000 		.4byte	0xfc3
 2367 1041 E0       		.byte	0xe0
 2368 1042 00       		.byte	0
 2369 1043 03       		.uleb128 0x3
 2370 1044 06030000 		.4byte	.LASF232
 2371 1048 01       		.byte	0x1
 2372 1049 65       		.byte	0x65
 2373 104a CE0F0000 		.4byte	0xfce
 2374 104e 1E       		.uleb128 0x1e
 2375 104f 69080000 		.4byte	.LASF249
 2376 1053 01       		.byte	0x1
 2377 1054 9D       		.byte	0x9d
 2378 1055 00000000 		.4byte	.LFB323
 2379 1059 1E000000 		.4byte	.LFE323-.LFB323
 2380 105d 01       		.uleb128 0x1
 2381 105e 9C       		.byte	0x9c
 2382 105f 7E100000 		.4byte	0x107e
 2383 1063 1F       		.uleb128 0x1f
 2384 1064 83000000 		.4byte	.LASF233
 2385 1068 01       		.byte	0x1
 2386 1069 9D       		.byte	0x9d
 2387 106a 660D0000 		.4byte	0xd66
 2388 106e 01       		.uleb128 0x1
 2389 106f 50       		.byte	0x50
 2390 1070 1F       		.uleb128 0x1f
 2391 1071 A6000000 		.4byte	.LASF195
 2392 1075 01       		.byte	0x1
 2393 1076 9D       		.byte	0x9d
 2394 1077 7E100000 		.4byte	0x107e
ARM GAS  /tmp/ccmWdU6j.s 			page 43


 2395 107b 01       		.uleb128 0x1
 2396 107c 51       		.byte	0x51
 2397 107d 00       		.byte	0
 2398 107e 0A       		.uleb128 0xa
 2399 107f 04       		.byte	0x4
 2400 1080 84100000 		.4byte	0x1084
 2401 1084 10       		.uleb128 0x10
 2402 1085 C30F0000 		.4byte	0xfc3
 2403 1089 20       		.uleb128 0x20
 2404 108a 7A060000 		.4byte	.LASF250
 2405 108e 01       		.byte	0x1
 2406 108f A8       		.byte	0xa8
 2407 1090 01       		.byte	0x1
 2408 1091 21       		.uleb128 0x21
 2409 1092 3B080000 		.4byte	.LASF234
 2410 1096 01       		.byte	0x1
 2411 1097 DF       		.byte	0xdf
 2412 1098 00000000 		.4byte	.LFB325
 2413 109c B8000000 		.4byte	.LFE325-.LFB325
 2414 10a0 01       		.uleb128 0x1
 2415 10a1 9C       		.byte	0x9c
 2416 10a2 CB110000 		.4byte	0x11cb
 2417 10a6 22       		.uleb128 0x22
 2418 10a7 89100000 		.4byte	0x1089
 2419 10ab 00000000 		.4byte	.LBB4
 2420 10af 00000000 		.4byte	.Ldebug_ranges0+0
 2421 10b3 01       		.byte	0x1
 2422 10b4 E1       		.byte	0xe1
 2423 10b5 C1110000 		.4byte	0x11c1
 2424 10b9 23       		.uleb128 0x23
 2425 10ba 34000000 		.4byte	.LVL1
 2426 10be 4E100000 		.4byte	0x104e
 2427 10c2 D6100000 		.4byte	0x10d6
 2428 10c6 24       		.uleb128 0x24
 2429 10c7 01       		.uleb128 0x1
 2430 10c8 51       		.byte	0x51
 2431 10c9 02       		.uleb128 0x2
 2432 10ca 74       		.byte	0x74
 2433 10cb 00       		.sleb128 0
 2434 10cc 24       		.uleb128 0x24
 2435 10cd 01       		.uleb128 0x1
 2436 10ce 50       		.byte	0x50
 2437 10cf 05       		.uleb128 0x5
 2438 10d0 0C       		.byte	0xc
 2439 10d1 00000240 		.4byte	0x40020000
 2440 10d5 00       		.byte	0
 2441 10d6 23       		.uleb128 0x23
 2442 10d7 3E000000 		.4byte	.LVL2
 2443 10db 4E100000 		.4byte	0x104e
 2444 10df F3100000 		.4byte	0x10f3
 2445 10e3 24       		.uleb128 0x24
 2446 10e4 01       		.uleb128 0x1
 2447 10e5 51       		.byte	0x51
 2448 10e6 02       		.uleb128 0x2
 2449 10e7 74       		.byte	0x74
 2450 10e8 1C       		.sleb128 28
 2451 10e9 24       		.uleb128 0x24
ARM GAS  /tmp/ccmWdU6j.s 			page 44


 2452 10ea 01       		.uleb128 0x1
 2453 10eb 50       		.byte	0x50
 2454 10ec 05       		.uleb128 0x5
 2455 10ed 0C       		.byte	0xc
 2456 10ee 00040240 		.4byte	0x40020400
 2457 10f2 00       		.byte	0
 2458 10f3 23       		.uleb128 0x23
 2459 10f4 48000000 		.4byte	.LVL3
 2460 10f8 4E100000 		.4byte	0x104e
 2461 10fc 10110000 		.4byte	0x1110
 2462 1100 24       		.uleb128 0x24
 2463 1101 01       		.uleb128 0x1
 2464 1102 51       		.byte	0x51
 2465 1103 02       		.uleb128 0x2
 2466 1104 74       		.byte	0x74
 2467 1105 38       		.sleb128 56
 2468 1106 24       		.uleb128 0x24
 2469 1107 01       		.uleb128 0x1
 2470 1108 50       		.byte	0x50
 2471 1109 05       		.uleb128 0x5
 2472 110a 0C       		.byte	0xc
 2473 110b 00080240 		.4byte	0x40020800
 2474 110f 00       		.byte	0
 2475 1110 23       		.uleb128 0x23
 2476 1111 52000000 		.4byte	.LVL4
 2477 1115 4E100000 		.4byte	0x104e
 2478 1119 2E110000 		.4byte	0x112e
 2479 111d 24       		.uleb128 0x24
 2480 111e 01       		.uleb128 0x1
 2481 111f 51       		.byte	0x51
 2482 1120 03       		.uleb128 0x3
 2483 1121 74       		.byte	0x74
 2484 1122 D400     		.sleb128 84
 2485 1124 24       		.uleb128 0x24
 2486 1125 01       		.uleb128 0x1
 2487 1126 50       		.byte	0x50
 2488 1127 05       		.uleb128 0x5
 2489 1128 0C       		.byte	0xc
 2490 1129 000C0240 		.4byte	0x40020c00
 2491 112d 00       		.byte	0
 2492 112e 23       		.uleb128 0x23
 2493 112f 5C000000 		.4byte	.LVL5
 2494 1133 4E100000 		.4byte	0x104e
 2495 1137 4C110000 		.4byte	0x114c
 2496 113b 24       		.uleb128 0x24
 2497 113c 01       		.uleb128 0x1
 2498 113d 51       		.byte	0x51
 2499 113e 03       		.uleb128 0x3
 2500 113f 74       		.byte	0x74
 2501 1140 F000     		.sleb128 112
 2502 1142 24       		.uleb128 0x24
 2503 1143 01       		.uleb128 0x1
 2504 1144 50       		.byte	0x50
 2505 1145 05       		.uleb128 0x5
 2506 1146 0C       		.byte	0xc
 2507 1147 00100240 		.4byte	0x40021000
 2508 114b 00       		.byte	0
ARM GAS  /tmp/ccmWdU6j.s 			page 45


 2509 114c 23       		.uleb128 0x23
 2510 114d 66000000 		.4byte	.LVL6
 2511 1151 4E100000 		.4byte	0x104e
 2512 1155 6A110000 		.4byte	0x116a
 2513 1159 24       		.uleb128 0x24
 2514 115a 01       		.uleb128 0x1
 2515 115b 51       		.byte	0x51
 2516 115c 03       		.uleb128 0x3
 2517 115d 74       		.byte	0x74
 2518 115e 8C01     		.sleb128 140
 2519 1160 24       		.uleb128 0x24
 2520 1161 01       		.uleb128 0x1
 2521 1162 50       		.byte	0x50
 2522 1163 05       		.uleb128 0x5
 2523 1164 0C       		.byte	0xc
 2524 1165 00140240 		.4byte	0x40021400
 2525 1169 00       		.byte	0
 2526 116a 23       		.uleb128 0x23
 2527 116b 70000000 		.4byte	.LVL7
 2528 116f 4E100000 		.4byte	0x104e
 2529 1173 88110000 		.4byte	0x1188
 2530 1177 24       		.uleb128 0x24
 2531 1178 01       		.uleb128 0x1
 2532 1179 51       		.byte	0x51
 2533 117a 03       		.uleb128 0x3
 2534 117b 74       		.byte	0x74
 2535 117c A801     		.sleb128 168
 2536 117e 24       		.uleb128 0x24
 2537 117f 01       		.uleb128 0x1
 2538 1180 50       		.byte	0x50
 2539 1181 05       		.uleb128 0x5
 2540 1182 0C       		.byte	0xc
 2541 1183 00180240 		.4byte	0x40021800
 2542 1187 00       		.byte	0
 2543 1188 23       		.uleb128 0x23
 2544 1189 7A000000 		.4byte	.LVL8
 2545 118d 4E100000 		.4byte	0x104e
 2546 1191 A6110000 		.4byte	0x11a6
 2547 1195 24       		.uleb128 0x24
 2548 1196 01       		.uleb128 0x1
 2549 1197 51       		.byte	0x51
 2550 1198 03       		.uleb128 0x3
 2551 1199 74       		.byte	0x74
 2552 119a C401     		.sleb128 196
 2553 119c 24       		.uleb128 0x24
 2554 119d 01       		.uleb128 0x1
 2555 119e 50       		.byte	0x50
 2556 119f 05       		.uleb128 0x5
 2557 11a0 0C       		.byte	0xc
 2558 11a1 001C0240 		.4byte	0x40021c00
 2559 11a5 00       		.byte	0
 2560 11a6 25       		.uleb128 0x25
 2561 11a7 84000000 		.4byte	.LVL9
 2562 11ab 4E100000 		.4byte	0x104e
 2563 11af 24       		.uleb128 0x24
 2564 11b0 01       		.uleb128 0x1
 2565 11b1 51       		.byte	0x51
ARM GAS  /tmp/ccmWdU6j.s 			page 46


 2566 11b2 03       		.uleb128 0x3
 2567 11b3 74       		.byte	0x74
 2568 11b4 E001     		.sleb128 224
 2569 11b6 24       		.uleb128 0x24
 2570 11b7 01       		.uleb128 0x1
 2571 11b8 50       		.byte	0x50
 2572 11b9 05       		.uleb128 0x5
 2573 11ba 0C       		.byte	0xc
 2574 11bb 00200240 		.4byte	0x40022000
 2575 11bf 00       		.byte	0
 2576 11c0 00       		.byte	0
 2577 11c1 26       		.uleb128 0x26
 2578 11c2 8C000000 		.4byte	.LVL10
 2579 11c6 A3120000 		.4byte	0x12a3
 2580 11ca 00       		.byte	0
 2581 11cb 21       		.uleb128 0x21
 2582 11cc 2F080000 		.4byte	.LASF235
 2583 11d0 01       		.byte	0x1
 2584 11d1 E9       		.byte	0xe9
 2585 11d2 00000000 		.4byte	.LFB326
 2586 11d6 16000000 		.4byte	.LFE326-.LFB326
 2587 11da 01       		.uleb128 0x1
 2588 11db 9C       		.byte	0x9c
 2589 11dc 05120000 		.4byte	0x1205
 2590 11e0 27       		.uleb128 0x27
 2591 11e1 06000000 		.4byte	.LVL11
 2592 11e5 AB120000 		.4byte	0x12ab
 2593 11e9 27       		.uleb128 0x27
 2594 11ea 0A000000 		.4byte	.LVL12
 2595 11ee B3120000 		.4byte	0x12b3
 2596 11f2 27       		.uleb128 0x27
 2597 11f3 0E000000 		.4byte	.LVL13
 2598 11f7 BB120000 		.4byte	0x12bb
 2599 11fb 26       		.uleb128 0x26
 2600 11fc 16000000 		.4byte	.LVL14
 2601 1200 C2120000 		.4byte	0x12c2
 2602 1204 00       		.byte	0
 2603 1205 28       		.uleb128 0x28
 2604 1206 B3050000 		.4byte	.LASF237
 2605 120a 01       		.byte	0x1
 2606 120b F8       		.byte	0xf8
 2607 120c 1E0B0000 		.4byte	0xb1e
 2608 1210 00000000 		.4byte	.LFB327
 2609 1214 04000000 		.4byte	.LFE327-.LFB327
 2610 1218 01       		.uleb128 0x1
 2611 1219 9C       		.byte	0x9c
 2612 121a 2E120000 		.4byte	0x122e
 2613 121e 29       		.uleb128 0x29
 2614 121f 900A0000 		.4byte	.LASF236
 2615 1223 01       		.byte	0x1
 2616 1224 F8       		.byte	0xf8
 2617 1225 2E120000 		.4byte	0x122e
 2618 1229 00000000 		.4byte	.LLST0
 2619 122d 00       		.byte	0
 2620 122e 0A       		.uleb128 0xa
 2621 122f 04       		.byte	0x4
 2622 1230 B30D0000 		.4byte	0xdb3
ARM GAS  /tmp/ccmWdU6j.s 			page 47


 2623 1234 2A       		.uleb128 0x2a
 2624 1235 2D020000 		.4byte	.LASF238
 2625 1239 01       		.byte	0x1
 2626 123a 0001     		.2byte	0x100
 2627 123c 1E0B0000 		.4byte	0xb1e
 2628 1240 00000000 		.4byte	.LFB328
 2629 1244 04000000 		.4byte	.LFE328-.LFB328
 2630 1248 01       		.uleb128 0x1
 2631 1249 9C       		.byte	0x9c
 2632 124a 5F120000 		.4byte	0x125f
 2633 124e 2B       		.uleb128 0x2b
 2634 124f 900A0000 		.4byte	.LASF236
 2635 1253 01       		.byte	0x1
 2636 1254 0001     		.2byte	0x100
 2637 1256 2E120000 		.4byte	0x122e
 2638 125a 21000000 		.4byte	.LLST1
 2639 125e 00       		.byte	0
 2640 125f 2C       		.uleb128 0x2c
 2641 1260 7F090000 		.4byte	.LASF251
 2642 1264 01       		.byte	0x1
 2643 1265 1F01     		.2byte	0x11f
 2644 1267 00000000 		.4byte	.LFB329
 2645 126b 02000000 		.4byte	.LFE329-.LFB329
 2646 126f 01       		.uleb128 0x1
 2647 1270 9C       		.byte	0x9c
 2648 1271 2D       		.uleb128 0x2d
 2649 1272 89090000 		.4byte	.LASF252
 2650 1276 01       		.byte	0x1
 2651 1277 6A       		.byte	0x6a
 2652 1278 82120000 		.4byte	0x1282
 2653 127c 05       		.uleb128 0x5
 2654 127d 03       		.byte	0x3
 2655 127e 00000000 		.4byte	gpio_default_config
 2656 1282 10       		.uleb128 0x10
 2657 1283 43100000 		.4byte	0x1043
 2658 1287 2E       		.uleb128 0x2e
 2659 1288 FA050000 		.4byte	.LASF239
 2660 128c 1A       		.byte	0x1a
 2661 128d 0408     		.2byte	0x804
 2662 128f 93120000 		.4byte	0x1293
 2663 1293 0F       		.uleb128 0xf
 2664 1294 C3000000 		.4byte	0xc3
 2665 1298 2F       		.uleb128 0x2f
 2666 1299 636800   		.ascii	"ch\000"
 2667 129c 07       		.byte	0x7
 2668 129d C701     		.2byte	0x1c7
 2669 129f FF030000 		.4byte	0x3ff
 2670 12a3 30       		.uleb128 0x30
 2671 12a4 41070000 		.4byte	.LASF240
 2672 12a8 15       		.byte	0x15
 2673 12a9 A107     		.2byte	0x7a1
 2674 12ab 30       		.uleb128 0x30
 2675 12ac 45050000 		.4byte	.LASF241
 2676 12b0 16       		.byte	0x16
 2677 12b1 0301     		.2byte	0x103
 2678 12b3 30       		.uleb128 0x30
 2679 12b4 100A0000 		.4byte	.LASF242
ARM GAS  /tmp/ccmWdU6j.s 			page 48


 2680 12b8 17       		.byte	0x17
 2681 12b9 1D01     		.2byte	0x11d
 2682 12bb 31       		.uleb128 0x31
 2683 12bc 040A0000 		.4byte	.LASF243
 2684 12c0 18       		.byte	0x18
 2685 12c1 49       		.byte	0x49
 2686 12c2 31       		.uleb128 0x31
 2687 12c3 B6060000 		.4byte	.LASF244
 2688 12c7 19       		.byte	0x19
 2689 12c8 29       		.byte	0x29
 2690 12c9 00       		.byte	0
 2691              		.section	.debug_abbrev,"",%progbits
 2692              	.Ldebug_abbrev0:
 2693 0000 01       		.uleb128 0x1
 2694 0001 11       		.uleb128 0x11
 2695 0002 01       		.byte	0x1
 2696 0003 25       		.uleb128 0x25
 2697 0004 0E       		.uleb128 0xe
 2698 0005 13       		.uleb128 0x13
 2699 0006 0B       		.uleb128 0xb
 2700 0007 03       		.uleb128 0x3
 2701 0008 0E       		.uleb128 0xe
 2702 0009 1B       		.uleb128 0x1b
 2703 000a 0E       		.uleb128 0xe
 2704 000b 55       		.uleb128 0x55
 2705 000c 17       		.uleb128 0x17
 2706 000d 11       		.uleb128 0x11
 2707 000e 01       		.uleb128 0x1
 2708 000f 10       		.uleb128 0x10
 2709 0010 17       		.uleb128 0x17
 2710 0011 00       		.byte	0
 2711 0012 00       		.byte	0
 2712 0013 02       		.uleb128 0x2
 2713 0014 24       		.uleb128 0x24
 2714 0015 00       		.byte	0
 2715 0016 0B       		.uleb128 0xb
 2716 0017 0B       		.uleb128 0xb
 2717 0018 3E       		.uleb128 0x3e
 2718 0019 0B       		.uleb128 0xb
 2719 001a 03       		.uleb128 0x3
 2720 001b 08       		.uleb128 0x8
 2721 001c 00       		.byte	0
 2722 001d 00       		.byte	0
 2723 001e 03       		.uleb128 0x3
 2724 001f 16       		.uleb128 0x16
 2725 0020 00       		.byte	0
 2726 0021 03       		.uleb128 0x3
 2727 0022 0E       		.uleb128 0xe
 2728 0023 3A       		.uleb128 0x3a
 2729 0024 0B       		.uleb128 0xb
 2730 0025 3B       		.uleb128 0x3b
 2731 0026 0B       		.uleb128 0xb
 2732 0027 49       		.uleb128 0x49
 2733 0028 13       		.uleb128 0x13
 2734 0029 00       		.byte	0
 2735 002a 00       		.byte	0
 2736 002b 04       		.uleb128 0x4
ARM GAS  /tmp/ccmWdU6j.s 			page 49


 2737 002c 24       		.uleb128 0x24
 2738 002d 00       		.byte	0
 2739 002e 0B       		.uleb128 0xb
 2740 002f 0B       		.uleb128 0xb
 2741 0030 3E       		.uleb128 0x3e
 2742 0031 0B       		.uleb128 0xb
 2743 0032 03       		.uleb128 0x3
 2744 0033 0E       		.uleb128 0xe
 2745 0034 00       		.byte	0
 2746 0035 00       		.byte	0
 2747 0036 05       		.uleb128 0x5
 2748 0037 13       		.uleb128 0x13
 2749 0038 01       		.byte	0x1
 2750 0039 03       		.uleb128 0x3
 2751 003a 0E       		.uleb128 0xe
 2752 003b 0B       		.uleb128 0xb
 2753 003c 0B       		.uleb128 0xb
 2754 003d 3A       		.uleb128 0x3a
 2755 003e 0B       		.uleb128 0xb
 2756 003f 3B       		.uleb128 0x3b
 2757 0040 0B       		.uleb128 0xb
 2758 0041 01       		.uleb128 0x1
 2759 0042 13       		.uleb128 0x13
 2760 0043 00       		.byte	0
 2761 0044 00       		.byte	0
 2762 0045 06       		.uleb128 0x6
 2763 0046 0D       		.uleb128 0xd
 2764 0047 00       		.byte	0
 2765 0048 03       		.uleb128 0x3
 2766 0049 0E       		.uleb128 0xe
 2767 004a 3A       		.uleb128 0x3a
 2768 004b 0B       		.uleb128 0xb
 2769 004c 3B       		.uleb128 0x3b
 2770 004d 0B       		.uleb128 0xb
 2771 004e 49       		.uleb128 0x49
 2772 004f 13       		.uleb128 0x13
 2773 0050 38       		.uleb128 0x38
 2774 0051 0B       		.uleb128 0xb
 2775 0052 00       		.byte	0
 2776 0053 00       		.byte	0
 2777 0054 07       		.uleb128 0x7
 2778 0055 0D       		.uleb128 0xd
 2779 0056 00       		.byte	0
 2780 0057 03       		.uleb128 0x3
 2781 0058 08       		.uleb128 0x8
 2782 0059 3A       		.uleb128 0x3a
 2783 005a 0B       		.uleb128 0xb
 2784 005b 3B       		.uleb128 0x3b
 2785 005c 0B       		.uleb128 0xb
 2786 005d 49       		.uleb128 0x49
 2787 005e 13       		.uleb128 0x13
 2788 005f 38       		.uleb128 0x38
 2789 0060 0B       		.uleb128 0xb
 2790 0061 00       		.byte	0
 2791 0062 00       		.byte	0
 2792 0063 08       		.uleb128 0x8
 2793 0064 0D       		.uleb128 0xd
ARM GAS  /tmp/ccmWdU6j.s 			page 50


 2794 0065 00       		.byte	0
 2795 0066 03       		.uleb128 0x3
 2796 0067 08       		.uleb128 0x8
 2797 0068 3A       		.uleb128 0x3a
 2798 0069 0B       		.uleb128 0xb
 2799 006a 3B       		.uleb128 0x3b
 2800 006b 05       		.uleb128 0x5
 2801 006c 49       		.uleb128 0x49
 2802 006d 13       		.uleb128 0x13
 2803 006e 38       		.uleb128 0x38
 2804 006f 0B       		.uleb128 0xb
 2805 0070 00       		.byte	0
 2806 0071 00       		.byte	0
 2807 0072 09       		.uleb128 0x9
 2808 0073 0D       		.uleb128 0xd
 2809 0074 00       		.byte	0
 2810 0075 03       		.uleb128 0x3
 2811 0076 0E       		.uleb128 0xe
 2812 0077 3A       		.uleb128 0x3a
 2813 0078 0B       		.uleb128 0xb
 2814 0079 3B       		.uleb128 0x3b
 2815 007a 05       		.uleb128 0x5
 2816 007b 49       		.uleb128 0x49
 2817 007c 13       		.uleb128 0x13
 2818 007d 38       		.uleb128 0x38
 2819 007e 0B       		.uleb128 0xb
 2820 007f 00       		.byte	0
 2821 0080 00       		.byte	0
 2822 0081 0A       		.uleb128 0xa
 2823 0082 0F       		.uleb128 0xf
 2824 0083 00       		.byte	0
 2825 0084 0B       		.uleb128 0xb
 2826 0085 0B       		.uleb128 0xb
 2827 0086 49       		.uleb128 0x49
 2828 0087 13       		.uleb128 0x13
 2829 0088 00       		.byte	0
 2830 0089 00       		.byte	0
 2831 008a 0B       		.uleb128 0xb
 2832 008b 13       		.uleb128 0x13
 2833 008c 01       		.byte	0x1
 2834 008d 03       		.uleb128 0x3
 2835 008e 0E       		.uleb128 0xe
 2836 008f 0B       		.uleb128 0xb
 2837 0090 0B       		.uleb128 0xb
 2838 0091 3A       		.uleb128 0x3a
 2839 0092 0B       		.uleb128 0xb
 2840 0093 3B       		.uleb128 0x3b
 2841 0094 05       		.uleb128 0x5
 2842 0095 01       		.uleb128 0x1
 2843 0096 13       		.uleb128 0x13
 2844 0097 00       		.byte	0
 2845 0098 00       		.byte	0
 2846 0099 0C       		.uleb128 0xc
 2847 009a 15       		.uleb128 0x15
 2848 009b 01       		.byte	0x1
 2849 009c 27       		.uleb128 0x27
 2850 009d 19       		.uleb128 0x19
ARM GAS  /tmp/ccmWdU6j.s 			page 51


 2851 009e 01       		.uleb128 0x1
 2852 009f 13       		.uleb128 0x13
 2853 00a0 00       		.byte	0
 2854 00a1 00       		.byte	0
 2855 00a2 0D       		.uleb128 0xd
 2856 00a3 05       		.uleb128 0x5
 2857 00a4 00       		.byte	0
 2858 00a5 49       		.uleb128 0x49
 2859 00a6 13       		.uleb128 0x13
 2860 00a7 00       		.byte	0
 2861 00a8 00       		.byte	0
 2862 00a9 0E       		.uleb128 0xe
 2863 00aa 0F       		.uleb128 0xf
 2864 00ab 00       		.byte	0
 2865 00ac 0B       		.uleb128 0xb
 2866 00ad 0B       		.uleb128 0xb
 2867 00ae 00       		.byte	0
 2868 00af 00       		.byte	0
 2869 00b0 0F       		.uleb128 0xf
 2870 00b1 35       		.uleb128 0x35
 2871 00b2 00       		.byte	0
 2872 00b3 49       		.uleb128 0x49
 2873 00b4 13       		.uleb128 0x13
 2874 00b5 00       		.byte	0
 2875 00b6 00       		.byte	0
 2876 00b7 10       		.uleb128 0x10
 2877 00b8 26       		.uleb128 0x26
 2878 00b9 00       		.byte	0
 2879 00ba 49       		.uleb128 0x49
 2880 00bb 13       		.uleb128 0x13
 2881 00bc 00       		.byte	0
 2882 00bd 00       		.byte	0
 2883 00be 11       		.uleb128 0x11
 2884 00bf 01       		.uleb128 0x1
 2885 00c0 01       		.byte	0x1
 2886 00c1 49       		.uleb128 0x49
 2887 00c2 13       		.uleb128 0x13
 2888 00c3 01       		.uleb128 0x1
 2889 00c4 13       		.uleb128 0x13
 2890 00c5 00       		.byte	0
 2891 00c6 00       		.byte	0
 2892 00c7 12       		.uleb128 0x12
 2893 00c8 21       		.uleb128 0x21
 2894 00c9 00       		.byte	0
 2895 00ca 49       		.uleb128 0x49
 2896 00cb 13       		.uleb128 0x13
 2897 00cc 2F       		.uleb128 0x2f
 2898 00cd 0B       		.uleb128 0xb
 2899 00ce 00       		.byte	0
 2900 00cf 00       		.byte	0
 2901 00d0 13       		.uleb128 0x13
 2902 00d1 13       		.uleb128 0x13
 2903 00d2 01       		.byte	0x1
 2904 00d3 0B       		.uleb128 0xb
 2905 00d4 0B       		.uleb128 0xb
 2906 00d5 3A       		.uleb128 0x3a
 2907 00d6 0B       		.uleb128 0xb
ARM GAS  /tmp/ccmWdU6j.s 			page 52


 2908 00d7 3B       		.uleb128 0x3b
 2909 00d8 05       		.uleb128 0x5
 2910 00d9 01       		.uleb128 0x1
 2911 00da 13       		.uleb128 0x13
 2912 00db 00       		.byte	0
 2913 00dc 00       		.byte	0
 2914 00dd 14       		.uleb128 0x14
 2915 00de 16       		.uleb128 0x16
 2916 00df 00       		.byte	0
 2917 00e0 03       		.uleb128 0x3
 2918 00e1 0E       		.uleb128 0xe
 2919 00e2 3A       		.uleb128 0x3a
 2920 00e3 0B       		.uleb128 0xb
 2921 00e4 3B       		.uleb128 0x3b
 2922 00e5 05       		.uleb128 0x5
 2923 00e6 49       		.uleb128 0x49
 2924 00e7 13       		.uleb128 0x13
 2925 00e8 00       		.byte	0
 2926 00e9 00       		.byte	0
 2927 00ea 15       		.uleb128 0x15
 2928 00eb 13       		.uleb128 0x13
 2929 00ec 01       		.byte	0x1
 2930 00ed 0B       		.uleb128 0xb
 2931 00ee 0B       		.uleb128 0xb
 2932 00ef 3A       		.uleb128 0x3a
 2933 00f0 0B       		.uleb128 0xb
 2934 00f1 3B       		.uleb128 0x3b
 2935 00f2 0B       		.uleb128 0xb
 2936 00f3 01       		.uleb128 0x1
 2937 00f4 13       		.uleb128 0x13
 2938 00f5 00       		.byte	0
 2939 00f6 00       		.byte	0
 2940 00f7 16       		.uleb128 0x16
 2941 00f8 17       		.uleb128 0x17
 2942 00f9 01       		.byte	0x1
 2943 00fa 0B       		.uleb128 0xb
 2944 00fb 0B       		.uleb128 0xb
 2945 00fc 3A       		.uleb128 0x3a
 2946 00fd 0B       		.uleb128 0xb
 2947 00fe 3B       		.uleb128 0x3b
 2948 00ff 0B       		.uleb128 0xb
 2949 0100 01       		.uleb128 0x1
 2950 0101 13       		.uleb128 0x13
 2951 0102 00       		.byte	0
 2952 0103 00       		.byte	0
 2953 0104 17       		.uleb128 0x17
 2954 0105 0D       		.uleb128 0xd
 2955 0106 00       		.byte	0
 2956 0107 03       		.uleb128 0x3
 2957 0108 0E       		.uleb128 0xe
 2958 0109 3A       		.uleb128 0x3a
 2959 010a 0B       		.uleb128 0xb
 2960 010b 3B       		.uleb128 0x3b
 2961 010c 0B       		.uleb128 0xb
 2962 010d 49       		.uleb128 0x49
 2963 010e 13       		.uleb128 0x13
 2964 010f 00       		.byte	0
ARM GAS  /tmp/ccmWdU6j.s 			page 53


 2965 0110 00       		.byte	0
 2966 0111 18       		.uleb128 0x18
 2967 0112 0D       		.uleb128 0xd
 2968 0113 00       		.byte	0
 2969 0114 03       		.uleb128 0x3
 2970 0115 0E       		.uleb128 0xe
 2971 0116 3A       		.uleb128 0x3a
 2972 0117 0B       		.uleb128 0xb
 2973 0118 3B       		.uleb128 0x3b
 2974 0119 05       		.uleb128 0x5
 2975 011a 49       		.uleb128 0x49
 2976 011b 13       		.uleb128 0x13
 2977 011c 00       		.byte	0
 2978 011d 00       		.byte	0
 2979 011e 19       		.uleb128 0x19
 2980 011f 04       		.uleb128 0x4
 2981 0120 01       		.byte	0x1
 2982 0121 0B       		.uleb128 0xb
 2983 0122 0B       		.uleb128 0xb
 2984 0123 3A       		.uleb128 0x3a
 2985 0124 0B       		.uleb128 0xb
 2986 0125 3B       		.uleb128 0x3b
 2987 0126 0B       		.uleb128 0xb
 2988 0127 01       		.uleb128 0x1
 2989 0128 13       		.uleb128 0x13
 2990 0129 00       		.byte	0
 2991 012a 00       		.byte	0
 2992 012b 1A       		.uleb128 0x1a
 2993 012c 28       		.uleb128 0x28
 2994 012d 00       		.byte	0
 2995 012e 03       		.uleb128 0x3
 2996 012f 0E       		.uleb128 0xe
 2997 0130 1C       		.uleb128 0x1c
 2998 0131 0D       		.uleb128 0xd
 2999 0132 00       		.byte	0
 3000 0133 00       		.byte	0
 3001 0134 1B       		.uleb128 0x1b
 3002 0135 15       		.uleb128 0x15
 3003 0136 01       		.byte	0x1
 3004 0137 27       		.uleb128 0x27
 3005 0138 19       		.uleb128 0x19
 3006 0139 49       		.uleb128 0x49
 3007 013a 13       		.uleb128 0x13
 3008 013b 01       		.uleb128 0x1
 3009 013c 13       		.uleb128 0x13
 3010 013d 00       		.byte	0
 3011 013e 00       		.byte	0
 3012 013f 1C       		.uleb128 0x1c
 3013 0140 0D       		.uleb128 0xd
 3014 0141 00       		.byte	0
 3015 0142 03       		.uleb128 0x3
 3016 0143 08       		.uleb128 0x8
 3017 0144 3A       		.uleb128 0x3a
 3018 0145 0B       		.uleb128 0xb
 3019 0146 3B       		.uleb128 0x3b
 3020 0147 0B       		.uleb128 0xb
 3021 0148 49       		.uleb128 0x49
ARM GAS  /tmp/ccmWdU6j.s 			page 54


 3022 0149 13       		.uleb128 0x13
 3023 014a 00       		.byte	0
 3024 014b 00       		.byte	0
 3025 014c 1D       		.uleb128 0x1d
 3026 014d 13       		.uleb128 0x13
 3027 014e 00       		.byte	0
 3028 014f 03       		.uleb128 0x3
 3029 0150 0E       		.uleb128 0xe
 3030 0151 3C       		.uleb128 0x3c
 3031 0152 19       		.uleb128 0x19
 3032 0153 00       		.byte	0
 3033 0154 00       		.byte	0
 3034 0155 1E       		.uleb128 0x1e
 3035 0156 2E       		.uleb128 0x2e
 3036 0157 01       		.byte	0x1
 3037 0158 03       		.uleb128 0x3
 3038 0159 0E       		.uleb128 0xe
 3039 015a 3A       		.uleb128 0x3a
 3040 015b 0B       		.uleb128 0xb
 3041 015c 3B       		.uleb128 0x3b
 3042 015d 0B       		.uleb128 0xb
 3043 015e 27       		.uleb128 0x27
 3044 015f 19       		.uleb128 0x19
 3045 0160 11       		.uleb128 0x11
 3046 0161 01       		.uleb128 0x1
 3047 0162 12       		.uleb128 0x12
 3048 0163 06       		.uleb128 0x6
 3049 0164 40       		.uleb128 0x40
 3050 0165 18       		.uleb128 0x18
 3051 0166 9742     		.uleb128 0x2117
 3052 0168 19       		.uleb128 0x19
 3053 0169 01       		.uleb128 0x1
 3054 016a 13       		.uleb128 0x13
 3055 016b 00       		.byte	0
 3056 016c 00       		.byte	0
 3057 016d 1F       		.uleb128 0x1f
 3058 016e 05       		.uleb128 0x5
 3059 016f 00       		.byte	0
 3060 0170 03       		.uleb128 0x3
 3061 0171 0E       		.uleb128 0xe
 3062 0172 3A       		.uleb128 0x3a
 3063 0173 0B       		.uleb128 0xb
 3064 0174 3B       		.uleb128 0x3b
 3065 0175 0B       		.uleb128 0xb
 3066 0176 49       		.uleb128 0x49
 3067 0177 13       		.uleb128 0x13
 3068 0178 02       		.uleb128 0x2
 3069 0179 18       		.uleb128 0x18
 3070 017a 00       		.byte	0
 3071 017b 00       		.byte	0
 3072 017c 20       		.uleb128 0x20
 3073 017d 2E       		.uleb128 0x2e
 3074 017e 00       		.byte	0
 3075 017f 03       		.uleb128 0x3
 3076 0180 0E       		.uleb128 0xe
 3077 0181 3A       		.uleb128 0x3a
 3078 0182 0B       		.uleb128 0xb
ARM GAS  /tmp/ccmWdU6j.s 			page 55


 3079 0183 3B       		.uleb128 0x3b
 3080 0184 0B       		.uleb128 0xb
 3081 0185 27       		.uleb128 0x27
 3082 0186 19       		.uleb128 0x19
 3083 0187 20       		.uleb128 0x20
 3084 0188 0B       		.uleb128 0xb
 3085 0189 00       		.byte	0
 3086 018a 00       		.byte	0
 3087 018b 21       		.uleb128 0x21
 3088 018c 2E       		.uleb128 0x2e
 3089 018d 01       		.byte	0x1
 3090 018e 3F       		.uleb128 0x3f
 3091 018f 19       		.uleb128 0x19
 3092 0190 03       		.uleb128 0x3
 3093 0191 0E       		.uleb128 0xe
 3094 0192 3A       		.uleb128 0x3a
 3095 0193 0B       		.uleb128 0xb
 3096 0194 3B       		.uleb128 0x3b
 3097 0195 0B       		.uleb128 0xb
 3098 0196 27       		.uleb128 0x27
 3099 0197 19       		.uleb128 0x19
 3100 0198 11       		.uleb128 0x11
 3101 0199 01       		.uleb128 0x1
 3102 019a 12       		.uleb128 0x12
 3103 019b 06       		.uleb128 0x6
 3104 019c 40       		.uleb128 0x40
 3105 019d 18       		.uleb128 0x18
 3106 019e 9742     		.uleb128 0x2117
 3107 01a0 19       		.uleb128 0x19
 3108 01a1 01       		.uleb128 0x1
 3109 01a2 13       		.uleb128 0x13
 3110 01a3 00       		.byte	0
 3111 01a4 00       		.byte	0
 3112 01a5 22       		.uleb128 0x22
 3113 01a6 1D       		.uleb128 0x1d
 3114 01a7 01       		.byte	0x1
 3115 01a8 31       		.uleb128 0x31
 3116 01a9 13       		.uleb128 0x13
 3117 01aa 52       		.uleb128 0x52
 3118 01ab 01       		.uleb128 0x1
 3119 01ac 55       		.uleb128 0x55
 3120 01ad 17       		.uleb128 0x17
 3121 01ae 58       		.uleb128 0x58
 3122 01af 0B       		.uleb128 0xb
 3123 01b0 59       		.uleb128 0x59
 3124 01b1 0B       		.uleb128 0xb
 3125 01b2 01       		.uleb128 0x1
 3126 01b3 13       		.uleb128 0x13
 3127 01b4 00       		.byte	0
 3128 01b5 00       		.byte	0
 3129 01b6 23       		.uleb128 0x23
 3130 01b7 898201   		.uleb128 0x4109
 3131 01ba 01       		.byte	0x1
 3132 01bb 11       		.uleb128 0x11
 3133 01bc 01       		.uleb128 0x1
 3134 01bd 31       		.uleb128 0x31
 3135 01be 13       		.uleb128 0x13
ARM GAS  /tmp/ccmWdU6j.s 			page 56


 3136 01bf 01       		.uleb128 0x1
 3137 01c0 13       		.uleb128 0x13
 3138 01c1 00       		.byte	0
 3139 01c2 00       		.byte	0
 3140 01c3 24       		.uleb128 0x24
 3141 01c4 8A8201   		.uleb128 0x410a
 3142 01c7 00       		.byte	0
 3143 01c8 02       		.uleb128 0x2
 3144 01c9 18       		.uleb128 0x18
 3145 01ca 9142     		.uleb128 0x2111
 3146 01cc 18       		.uleb128 0x18
 3147 01cd 00       		.byte	0
 3148 01ce 00       		.byte	0
 3149 01cf 25       		.uleb128 0x25
 3150 01d0 898201   		.uleb128 0x4109
 3151 01d3 01       		.byte	0x1
 3152 01d4 11       		.uleb128 0x11
 3153 01d5 01       		.uleb128 0x1
 3154 01d6 31       		.uleb128 0x31
 3155 01d7 13       		.uleb128 0x13
 3156 01d8 00       		.byte	0
 3157 01d9 00       		.byte	0
 3158 01da 26       		.uleb128 0x26
 3159 01db 898201   		.uleb128 0x4109
 3160 01de 00       		.byte	0
 3161 01df 11       		.uleb128 0x11
 3162 01e0 01       		.uleb128 0x1
 3163 01e1 9542     		.uleb128 0x2115
 3164 01e3 19       		.uleb128 0x19
 3165 01e4 31       		.uleb128 0x31
 3166 01e5 13       		.uleb128 0x13
 3167 01e6 00       		.byte	0
 3168 01e7 00       		.byte	0
 3169 01e8 27       		.uleb128 0x27
 3170 01e9 898201   		.uleb128 0x4109
 3171 01ec 00       		.byte	0
 3172 01ed 11       		.uleb128 0x11
 3173 01ee 01       		.uleb128 0x1
 3174 01ef 31       		.uleb128 0x31
 3175 01f0 13       		.uleb128 0x13
 3176 01f1 00       		.byte	0
 3177 01f2 00       		.byte	0
 3178 01f3 28       		.uleb128 0x28
 3179 01f4 2E       		.uleb128 0x2e
 3180 01f5 01       		.byte	0x1
 3181 01f6 3F       		.uleb128 0x3f
 3182 01f7 19       		.uleb128 0x19
 3183 01f8 03       		.uleb128 0x3
 3184 01f9 0E       		.uleb128 0xe
 3185 01fa 3A       		.uleb128 0x3a
 3186 01fb 0B       		.uleb128 0xb
 3187 01fc 3B       		.uleb128 0x3b
 3188 01fd 0B       		.uleb128 0xb
 3189 01fe 27       		.uleb128 0x27
 3190 01ff 19       		.uleb128 0x19
 3191 0200 49       		.uleb128 0x49
 3192 0201 13       		.uleb128 0x13
ARM GAS  /tmp/ccmWdU6j.s 			page 57


 3193 0202 11       		.uleb128 0x11
 3194 0203 01       		.uleb128 0x1
 3195 0204 12       		.uleb128 0x12
 3196 0205 06       		.uleb128 0x6
 3197 0206 40       		.uleb128 0x40
 3198 0207 18       		.uleb128 0x18
 3199 0208 9742     		.uleb128 0x2117
 3200 020a 19       		.uleb128 0x19
 3201 020b 01       		.uleb128 0x1
 3202 020c 13       		.uleb128 0x13
 3203 020d 00       		.byte	0
 3204 020e 00       		.byte	0
 3205 020f 29       		.uleb128 0x29
 3206 0210 05       		.uleb128 0x5
 3207 0211 00       		.byte	0
 3208 0212 03       		.uleb128 0x3
 3209 0213 0E       		.uleb128 0xe
 3210 0214 3A       		.uleb128 0x3a
 3211 0215 0B       		.uleb128 0xb
 3212 0216 3B       		.uleb128 0x3b
 3213 0217 0B       		.uleb128 0xb
 3214 0218 49       		.uleb128 0x49
 3215 0219 13       		.uleb128 0x13
 3216 021a 02       		.uleb128 0x2
 3217 021b 17       		.uleb128 0x17
 3218 021c 00       		.byte	0
 3219 021d 00       		.byte	0
 3220 021e 2A       		.uleb128 0x2a
 3221 021f 2E       		.uleb128 0x2e
 3222 0220 01       		.byte	0x1
 3223 0221 3F       		.uleb128 0x3f
 3224 0222 19       		.uleb128 0x19
 3225 0223 03       		.uleb128 0x3
 3226 0224 0E       		.uleb128 0xe
 3227 0225 3A       		.uleb128 0x3a
 3228 0226 0B       		.uleb128 0xb
 3229 0227 3B       		.uleb128 0x3b
 3230 0228 05       		.uleb128 0x5
 3231 0229 27       		.uleb128 0x27
 3232 022a 19       		.uleb128 0x19
 3233 022b 49       		.uleb128 0x49
 3234 022c 13       		.uleb128 0x13
 3235 022d 11       		.uleb128 0x11
 3236 022e 01       		.uleb128 0x1
 3237 022f 12       		.uleb128 0x12
 3238 0230 06       		.uleb128 0x6
 3239 0231 40       		.uleb128 0x40
 3240 0232 18       		.uleb128 0x18
 3241 0233 9742     		.uleb128 0x2117
 3242 0235 19       		.uleb128 0x19
 3243 0236 01       		.uleb128 0x1
 3244 0237 13       		.uleb128 0x13
 3245 0238 00       		.byte	0
 3246 0239 00       		.byte	0
 3247 023a 2B       		.uleb128 0x2b
 3248 023b 05       		.uleb128 0x5
 3249 023c 00       		.byte	0
ARM GAS  /tmp/ccmWdU6j.s 			page 58


 3250 023d 03       		.uleb128 0x3
 3251 023e 0E       		.uleb128 0xe
 3252 023f 3A       		.uleb128 0x3a
 3253 0240 0B       		.uleb128 0xb
 3254 0241 3B       		.uleb128 0x3b
 3255 0242 05       		.uleb128 0x5
 3256 0243 49       		.uleb128 0x49
 3257 0244 13       		.uleb128 0x13
 3258 0245 02       		.uleb128 0x2
 3259 0246 17       		.uleb128 0x17
 3260 0247 00       		.byte	0
 3261 0248 00       		.byte	0
 3262 0249 2C       		.uleb128 0x2c
 3263 024a 2E       		.uleb128 0x2e
 3264 024b 00       		.byte	0
 3265 024c 3F       		.uleb128 0x3f
 3266 024d 19       		.uleb128 0x19
 3267 024e 03       		.uleb128 0x3
 3268 024f 0E       		.uleb128 0xe
 3269 0250 3A       		.uleb128 0x3a
 3270 0251 0B       		.uleb128 0xb
 3271 0252 3B       		.uleb128 0x3b
 3272 0253 05       		.uleb128 0x5
 3273 0254 27       		.uleb128 0x27
 3274 0255 19       		.uleb128 0x19
 3275 0256 11       		.uleb128 0x11
 3276 0257 01       		.uleb128 0x1
 3277 0258 12       		.uleb128 0x12
 3278 0259 06       		.uleb128 0x6
 3279 025a 40       		.uleb128 0x40
 3280 025b 18       		.uleb128 0x18
 3281 025c 9742     		.uleb128 0x2117
 3282 025e 19       		.uleb128 0x19
 3283 025f 00       		.byte	0
 3284 0260 00       		.byte	0
 3285 0261 2D       		.uleb128 0x2d
 3286 0262 34       		.uleb128 0x34
 3287 0263 00       		.byte	0
 3288 0264 03       		.uleb128 0x3
 3289 0265 0E       		.uleb128 0xe
 3290 0266 3A       		.uleb128 0x3a
 3291 0267 0B       		.uleb128 0xb
 3292 0268 3B       		.uleb128 0x3b
 3293 0269 0B       		.uleb128 0xb
 3294 026a 49       		.uleb128 0x49
 3295 026b 13       		.uleb128 0x13
 3296 026c 02       		.uleb128 0x2
 3297 026d 18       		.uleb128 0x18
 3298 026e 00       		.byte	0
 3299 026f 00       		.byte	0
 3300 0270 2E       		.uleb128 0x2e
 3301 0271 34       		.uleb128 0x34
 3302 0272 00       		.byte	0
 3303 0273 03       		.uleb128 0x3
 3304 0274 0E       		.uleb128 0xe
 3305 0275 3A       		.uleb128 0x3a
 3306 0276 0B       		.uleb128 0xb
ARM GAS  /tmp/ccmWdU6j.s 			page 59


 3307 0277 3B       		.uleb128 0x3b
 3308 0278 05       		.uleb128 0x5
 3309 0279 49       		.uleb128 0x49
 3310 027a 13       		.uleb128 0x13
 3311 027b 3F       		.uleb128 0x3f
 3312 027c 19       		.uleb128 0x19
 3313 027d 3C       		.uleb128 0x3c
 3314 027e 19       		.uleb128 0x19
 3315 027f 00       		.byte	0
 3316 0280 00       		.byte	0
 3317 0281 2F       		.uleb128 0x2f
 3318 0282 34       		.uleb128 0x34
 3319 0283 00       		.byte	0
 3320 0284 03       		.uleb128 0x3
 3321 0285 08       		.uleb128 0x8
 3322 0286 3A       		.uleb128 0x3a
 3323 0287 0B       		.uleb128 0xb
 3324 0288 3B       		.uleb128 0x3b
 3325 0289 05       		.uleb128 0x5
 3326 028a 49       		.uleb128 0x49
 3327 028b 13       		.uleb128 0x13
 3328 028c 3F       		.uleb128 0x3f
 3329 028d 19       		.uleb128 0x19
 3330 028e 3C       		.uleb128 0x3c
 3331 028f 19       		.uleb128 0x19
 3332 0290 00       		.byte	0
 3333 0291 00       		.byte	0
 3334 0292 30       		.uleb128 0x30
 3335 0293 2E       		.uleb128 0x2e
 3336 0294 00       		.byte	0
 3337 0295 3F       		.uleb128 0x3f
 3338 0296 19       		.uleb128 0x19
 3339 0297 03       		.uleb128 0x3
 3340 0298 0E       		.uleb128 0xe
 3341 0299 3A       		.uleb128 0x3a
 3342 029a 0B       		.uleb128 0xb
 3343 029b 3B       		.uleb128 0x3b
 3344 029c 05       		.uleb128 0x5
 3345 029d 27       		.uleb128 0x27
 3346 029e 19       		.uleb128 0x19
 3347 029f 3C       		.uleb128 0x3c
 3348 02a0 19       		.uleb128 0x19
 3349 02a1 00       		.byte	0
 3350 02a2 00       		.byte	0
 3351 02a3 31       		.uleb128 0x31
 3352 02a4 2E       		.uleb128 0x2e
 3353 02a5 00       		.byte	0
 3354 02a6 3F       		.uleb128 0x3f
 3355 02a7 19       		.uleb128 0x19
 3356 02a8 03       		.uleb128 0x3
 3357 02a9 0E       		.uleb128 0xe
 3358 02aa 3A       		.uleb128 0x3a
 3359 02ab 0B       		.uleb128 0xb
 3360 02ac 3B       		.uleb128 0x3b
 3361 02ad 0B       		.uleb128 0xb
 3362 02ae 27       		.uleb128 0x27
 3363 02af 19       		.uleb128 0x19
ARM GAS  /tmp/ccmWdU6j.s 			page 60


 3364 02b0 3C       		.uleb128 0x3c
 3365 02b1 19       		.uleb128 0x19
 3366 02b2 00       		.byte	0
 3367 02b3 00       		.byte	0
 3368 02b4 00       		.byte	0
 3369              		.section	.debug_loc,"",%progbits
 3370              	.Ldebug_loc0:
 3371              	.LLST0:
 3372 0000 00000000 		.4byte	.LVL15
 3373 0004 02000000 		.4byte	.LVL16
 3374 0008 0100     		.2byte	0x1
 3375 000a 50       		.byte	0x50
 3376 000b 02000000 		.4byte	.LVL16
 3377 000f 04000000 		.4byte	.LFE327
 3378 0013 0400     		.2byte	0x4
 3379 0015 F3       		.byte	0xf3
 3380 0016 01       		.uleb128 0x1
 3381 0017 50       		.byte	0x50
 3382 0018 9F       		.byte	0x9f
 3383 0019 00000000 		.4byte	0
 3384 001d 00000000 		.4byte	0
 3385              	.LLST1:
 3386 0021 00000000 		.4byte	.LVL17
 3387 0025 02000000 		.4byte	.LVL18
 3388 0029 0100     		.2byte	0x1
 3389 002b 50       		.byte	0x50
 3390 002c 02000000 		.4byte	.LVL18
 3391 0030 04000000 		.4byte	.LFE328
 3392 0034 0400     		.2byte	0x4
 3393 0036 F3       		.byte	0xf3
 3394 0037 01       		.uleb128 0x1
 3395 0038 50       		.byte	0x50
 3396 0039 9F       		.byte	0x9f
 3397 003a 00000000 		.4byte	0
 3398 003e 00000000 		.4byte	0
 3399              		.section	.debug_aranges,"",%progbits
 3400 0000 44000000 		.4byte	0x44
 3401 0004 0200     		.2byte	0x2
 3402 0006 00000000 		.4byte	.Ldebug_info0
 3403 000a 04       		.byte	0x4
 3404 000b 00       		.byte	0
 3405 000c 0000     		.2byte	0
 3406 000e 0000     		.2byte	0
 3407 0010 00000000 		.4byte	.LFB323
 3408 0014 1E000000 		.4byte	.LFE323-.LFB323
 3409 0018 00000000 		.4byte	.LFB325
 3410 001c B8000000 		.4byte	.LFE325-.LFB325
 3411 0020 00000000 		.4byte	.LFB326
 3412 0024 16000000 		.4byte	.LFE326-.LFB326
 3413 0028 00000000 		.4byte	.LFB327
 3414 002c 04000000 		.4byte	.LFE327-.LFB327
 3415 0030 00000000 		.4byte	.LFB328
 3416 0034 04000000 		.4byte	.LFE328-.LFB328
 3417 0038 00000000 		.4byte	.LFB329
 3418 003c 02000000 		.4byte	.LFE329-.LFB329
 3419 0040 00000000 		.4byte	0
 3420 0044 00000000 		.4byte	0
ARM GAS  /tmp/ccmWdU6j.s 			page 61


 3421              		.section	.debug_ranges,"",%progbits
 3422              	.Ldebug_ranges0:
 3423 0000 00000000 		.4byte	.LBB4
 3424 0004 0C000000 		.4byte	.LBE4
 3425 0008 0E000000 		.4byte	.LBB7
 3426 000c 84000000 		.4byte	.LBE7
 3427 0010 00000000 		.4byte	0
 3428 0014 00000000 		.4byte	0
 3429 0018 00000000 		.4byte	.LFB323
 3430 001c 1E000000 		.4byte	.LFE323
 3431 0020 00000000 		.4byte	.LFB325
 3432 0024 B8000000 		.4byte	.LFE325
 3433 0028 00000000 		.4byte	.LFB326
 3434 002c 16000000 		.4byte	.LFE326
 3435 0030 00000000 		.4byte	.LFB327
 3436 0034 04000000 		.4byte	.LFE327
 3437 0038 00000000 		.4byte	.LFB328
 3438 003c 04000000 		.4byte	.LFE328
 3439 0040 00000000 		.4byte	.LFB329
 3440 0044 02000000 		.4byte	.LFE329
 3441 0048 00000000 		.4byte	0
 3442 004c 00000000 		.4byte	0
 3443              		.section	.debug_line,"",%progbits
 3444              	.Ldebug_line0:
 3445 0000 E7040000 		.section	.debug_str,"MS",%progbits,1
 3445      02005204 
 3445      00000201 
 3445      FB0E0D00 
 3445      01010101 
 3446              	.LASF80:
 3447 0000 4D314152 		.ascii	"M1AR\000"
 3447      00
 3448              	.LASF163:
 3449 0005 73746D33 		.ascii	"stm32_dma_stream_t\000"
 3449      325F646D 
 3449      615F7374 
 3449      7265616D 
 3449      5F7400
 3450              	.LASF2:
 3451 0018 73697A65 		.ascii	"size_t\000"
 3451      5F7400
 3452              	.LASF119:
 3453 001f 4454494D 		.ascii	"DTIMER\000"
 3453      455200
 3454              	.LASF77:
 3455 0026 73697A65 		.ascii	"sizetype\000"
 3455      74797065 
 3455      00
 3456              	.LASF148:
 3457 002f 77747365 		.ascii	"wtsemp\000"
 3457      6D7000
 3458              	.LASF75:
 3459 0036 73797374 		.ascii	"systime_t\000"
 3459      696D655F 
 3459      7400
 3460              	.LASF108:
 3461 0040 504C4C49 		.ascii	"PLLI2SCFGR\000"
ARM GAS  /tmp/ccmWdU6j.s 			page 62


 3461      32534346 
 3461      475200
 3462              	.LASF153:
 3463 004b 6F776E65 		.ascii	"owner\000"
 3463      7200
 3464              	.LASF215:
 3465 0051 6765745F 		.ascii	"get_info\000"
 3465      696E666F 
 3465      00
 3466              	.LASF25:
 3467 005a 74707269 		.ascii	"tprio_t\000"
 3467      6F5F7400 
 3468              	.LASF120:
 3469 0062 444C454E 		.ascii	"DLEN\000"
 3469      00
 3470              	.LASF17:
 3471 0067 696E7433 		.ascii	"int32_t\000"
 3471      325F7400 
 3472              	.LASF173:
 3473 006f 626C6B73 		.ascii	"blkstate_t\000"
 3473      74617465 
 3473      5F7400
 3474              	.LASF58:
 3475 007a 76746675 		.ascii	"vtfunc_t\000"
 3475      6E635F74 
 3475      00
 3476              	.LASF233:
 3477 0083 6770696F 		.ascii	"gpiop\000"
 3477      7000
 3478              	.LASF64:
 3479 0089 63685F76 		.ascii	"ch_virtual_timers_list\000"
 3479      69727475 
 3479      616C5F74 
 3479      696D6572 
 3479      735F6C69 
 3480              	.LASF213:
 3481 00a0 77726974 		.ascii	"write\000"
 3481      6500
 3482              	.LASF195:
 3483 00a6 636F6E66 		.ascii	"config\000"
 3483      696700
 3484              	.LASF37:
 3485 00ad 73746174 		.ascii	"state\000"
 3485      6500
 3486              	.LASF227:
 3487 00b3 50454461 		.ascii	"PEData\000"
 3487      746100
 3488              	.LASF46:
 3489 00ba 73746174 		.ascii	"stats\000"
 3489      7300
 3490              	.LASF248:
 3491 00c0 626F756E 		.ascii	"bouncebuffer_t\000"
 3491      63656275 
 3491      66666572 
 3491      5F7400
 3492              	.LASF208:
 3493 00cf 69735F69 		.ascii	"is_inserted\000"
ARM GAS  /tmp/ccmWdU6j.s 			page 63


 3493      6E736572 
 3493      74656400 
 3494              	.LASF115:
 3495 00db 52455350 		.ascii	"RESP1\000"
 3495      3100
 3496              	.LASF116:
 3497 00e1 52455350 		.ascii	"RESP2\000"
 3497      3200
 3498              	.LASF117:
 3499 00e7 52455350 		.ascii	"RESP3\000"
 3499      3300
 3500              	.LASF118:
 3501 00ed 52455350 		.ascii	"RESP4\000"
 3501      3400
 3502              	.LASF196:
 3503 00f3 63617264 		.ascii	"cardmode\000"
 3503      6D6F6465 
 3503      00
 3504              	.LASF245:
 3505 00fc 474E5520 		.ascii	"GNU C 4.9.3 20150529 (release) [ARM/embedded-4_9-br"
 3505      4320342E 
 3505      392E3320 
 3505      32303135 
 3505      30353239 
 3506 012f 616E6368 		.ascii	"anch revision 227977] -mcpu=cortex-m4 -mfloat-abi=h"
 3506      20726576 
 3506      6973696F 
 3506      6E203232 
 3506      37393737 
 3507 0162 61726420 		.ascii	"ard -mfpu=fpv4-sp-d16 -mno-thumb-interwork -mthumb "
 3507      2D6D6670 
 3507      753D6670 
 3507      76342D73 
 3507      702D6431 
 3508 0195 2D67202D 		.ascii	"-g -Os -fomit-frame-pointer -falign-functions=16 -f"
 3508      4F73202D 
 3508      666F6D69 
 3508      742D6672 
 3508      616D652D 
 3509 01c8 66756E63 		.ascii	"function-sections -fdata-sections -fno-common -fsin"
 3509      74696F6E 
 3509      2D736563 
 3509      74696F6E 
 3509      73202D66 
 3510 01fb 676C652D 		.ascii	"gle-precision-constant\000"
 3510      70726563 
 3510      6973696F 
 3510      6E2D636F 
 3510      6E737461 
 3511              	.LASF124:
 3512 0212 4649464F 		.ascii	"FIFOCNT\000"
 3512      434E5400 
 3513              	.LASF32:
 3514 021a 7072696F 		.ascii	"prio\000"
 3514      00
 3515              	.LASF188:
 3516 021f 5344435F 		.ascii	"SDC_MODE_4BIT\000"
ARM GAS  /tmp/ccmWdU6j.s 			page 64


 3516      4D4F4445 
 3516      5F344249 
 3516      5400
 3517              	.LASF238:
 3518 022d 7364635F 		.ascii	"sdc_lld_is_write_protected\000"
 3518      6C6C645F 
 3518      69735F77 
 3518      72697465 
 3518      5F70726F 
 3519              	.LASF144:
 3520 0248 65786974 		.ascii	"exitcode\000"
 3520      636F6465 
 3520      00
 3521              	.LASF3:
 3522 0251 5F5F7569 		.ascii	"__uint8_t\000"
 3522      6E74385F 
 3522      7400
 3523              	.LASF200:
 3524 025b 7364696F 		.ascii	"sdio\000"
 3524      00
 3525              	.LASF99:
 3526 0260 41484232 		.ascii	"AHB2LPENR\000"
 3526      4C50454E 
 3526      5200
 3527              	.LASF189:
 3528 026a 5344435F 		.ascii	"SDC_MODE_8BIT\000"
 3528      4D4F4445 
 3528      5F384249 
 3528      5400
 3529              	.LASF9:
 3530 0278 6C6F6E67 		.ascii	"long int\000"
 3530      20696E74 
 3530      00
 3531              	.LASF199:
 3532 0281 646D616D 		.ascii	"dmamode\000"
 3532      6F646500 
 3533              	.LASF23:
 3534 0289 74737461 		.ascii	"tstate_t\000"
 3534      74655F74 
 3534      00
 3535              	.LASF21:
 3536 0292 72747469 		.ascii	"rttime_t\000"
 3536      6D655F74 
 3536      00
 3537              	.LASF52:
 3538 029b 74687265 		.ascii	"threads_queue_t\000"
 3538      6164735F 
 3538      71756575 
 3538      655F7400 
 3539              	.LASF160:
 3540 02ab 73686966 		.ascii	"shift\000"
 3540      7400
 3541              	.LASF127:
 3542 02b1 72656761 		.ascii	"regarm_t\000"
 3542      726D5F74 
 3542      00
 3543              	.LASF96:
ARM GAS  /tmp/ccmWdU6j.s 			page 65


 3544 02ba 41504232 		.ascii	"APB2ENR\000"
 3544      454E5200 
 3545              	.LASF98:
 3546 02c2 41484231 		.ascii	"AHB1LPENR\000"
 3546      4C50454E 
 3546      5200
 3547              	.LASF110:
 3548 02cc 44434B43 		.ascii	"DCKCFGR\000"
 3548      46475200 
 3549              	.LASF136:
 3550 02d4 63756D75 		.ascii	"cumulative\000"
 3550      6C617469 
 3550      766500
 3551              	.LASF1:
 3552 02df 7369676E 		.ascii	"signed char\000"
 3552      65642063 
 3552      68617200 
 3553              	.LASF150:
 3554 02eb 65776D61 		.ascii	"ewmask\000"
 3554      736B00
 3555              	.LASF15:
 3556 02f2 75696E74 		.ascii	"uint8_t\000"
 3556      385F7400 
 3557              	.LASF27:
 3558 02fa 6576656E 		.ascii	"eventmask_t\000"
 3558      746D6173 
 3558      6B5F7400 
 3559              	.LASF232:
 3560 0306 6770696F 		.ascii	"gpio_config_t\000"
 3560      5F636F6E 
 3560      6669675F 
 3560      7400
 3561              	.LASF146:
 3562 0314 77747472 		.ascii	"wttrp\000"
 3562      7000
 3563              	.LASF87:
 3564 031a 52455345 		.ascii	"RESERVED0\000"
 3564      52564544 
 3564      3000
 3565              	.LASF90:
 3566 0324 52455345 		.ascii	"RESERVED1\000"
 3566      52564544 
 3566      3100
 3567              	.LASF4:
 3568 032e 756E7369 		.ascii	"unsigned char\000"
 3568      676E6564 
 3568      20636861 
 3568      7200
 3569              	.LASF97:
 3570 033c 52455345 		.ascii	"RESERVED3\000"
 3570      52564544 
 3570      3300
 3571              	.LASF101:
 3572 0346 52455345 		.ascii	"RESERVED4\000"
 3572      52564544 
 3572      3400
 3573              	.LASF104:
ARM GAS  /tmp/ccmWdU6j.s 			page 66


 3574 0350 52455345 		.ascii	"RESERVED5\000"
 3574      52564544 
 3574      3500
 3575              	.LASF65:
 3576 035a 6C617374 		.ascii	"lasttime\000"
 3576      74696D65 
 3576      00
 3577              	.LASF186:
 3578 0363 73746D33 		.ascii	"stm32_gpio_t\000"
 3578      325F6770 
 3578      696F5F74 
 3578      00
 3579              	.LASF226:
 3580 0370 50444461 		.ascii	"PDData\000"
 3580      746100
 3581              	.LASF68:
 3582 0377 70616E69 		.ascii	"panic_msg\000"
 3582      635F6D73 
 3582      6700
 3583              	.LASF164:
 3584 0381 424C4B5F 		.ascii	"BLK_UNINIT\000"
 3584      554E494E 
 3584      495400
 3585              	.LASF66:
 3586 038c 73797374 		.ascii	"system_debug_t\000"
 3586      656D5F64 
 3586      65627567 
 3586      5F7400
 3587              	.LASF156:
 3588 039b 5F426F6F 		.ascii	"_Bool\000"
 3588      6C00
 3589              	.LASF172:
 3590 03a1 424C4B5F 		.ascii	"BLK_SYNCING\000"
 3590      53594E43 
 3590      494E4700 
 3591              	.LASF94:
 3592 03ad 52455345 		.ascii	"RESERVED2\000"
 3592      52564544 
 3592      3200
 3593              	.LASF106:
 3594 03b7 52455345 		.ascii	"RESERVED6\000"
 3594      52564544 
 3594      3600
 3595              	.LASF154:
 3596 03c1 63686172 		.ascii	"char\000"
 3596      00
 3597              	.LASF216:
 3598 03c6 6D6F6465 		.ascii	"moder\000"
 3598      7200
 3599              	.LASF84:
 3600 03cc 41484231 		.ascii	"AHB1RSTR\000"
 3600      52535452 
 3600      00
 3601              	.LASF194:
 3602 03d5 63617061 		.ascii	"capacity\000"
 3602      63697479 
 3602      00
ARM GAS  /tmp/ccmWdU6j.s 			page 67


 3603              	.LASF6:
 3604 03de 5F5F7569 		.ascii	"__uint16_t\000"
 3604      6E743136 
 3604      5F7400
 3605              	.LASF92:
 3606 03e9 41484232 		.ascii	"AHB2ENR\000"
 3606      454E5200 
 3607              	.LASF169:
 3608 03f1 424C4B5F 		.ascii	"BLK_READY\000"
 3608      52454144 
 3608      5900
 3609              	.LASF145:
 3610 03fb 77746F62 		.ascii	"wtobjp\000"
 3610      6A7000
 3611              	.LASF139:
 3612 0402 6E5F6374 		.ascii	"n_ctxswc\000"
 3612      78737763 
 3612      00
 3613              	.LASF197:
 3614 040b 6572726F 		.ascii	"errors\000"
 3614      727300
 3615              	.LASF38:
 3616 0412 666C6167 		.ascii	"flags\000"
 3616      7300
 3617              	.LASF128:
 3618 0418 73746B61 		.ascii	"stkalign_t\000"
 3618      6C69676E 
 3618      5F7400
 3619              	.LASF45:
 3620 0423 6D706F6F 		.ascii	"mpool\000"
 3620      6C00
 3621              	.LASF157:
 3622 0429 73747265 		.ascii	"stream\000"
 3622      616D00
 3623              	.LASF134:
 3624 0430 776F7273 		.ascii	"worst\000"
 3624      7400
 3625              	.LASF105:
 3626 0436 42444352 		.ascii	"BDCR\000"
 3626      00
 3627              	.LASF28:
 3628 043b 636E745F 		.ascii	"cnt_t\000"
 3628      7400
 3629              	.LASF126:
 3630 0441 5344494F 		.ascii	"SDIO_TypeDef\000"
 3630      5F547970 
 3630      65446566 
 3630      00
 3631              	.LASF206:
 3632 044e 53444344 		.ascii	"SDCDriverVMT\000"
 3632      72697665 
 3632      72564D54 
 3632      00
 3633              	.LASF149:
 3634 045b 77746D74 		.ascii	"wtmtxp\000"
 3634      787000
 3635              	.LASF56:
ARM GAS  /tmp/ccmWdU6j.s 			page 68


 3636 0462 63685F72 		.ascii	"ch_ready_list\000"
 3636      65616479 
 3636      5F6C6973 
 3636      7400
 3637              	.LASF174:
 3638 0470 626C6B5F 		.ascii	"blk_size\000"
 3638      73697A65 
 3638      00
 3639              	.LASF177:
 3640 0479 636C6561 		.ascii	"clear\000"
 3640      7200
 3641              	.LASF83:
 3642 047f 43464752 		.ascii	"CFGR\000"
 3642      00
 3643              	.LASF218:
 3644 0484 6F737065 		.ascii	"ospeedr\000"
 3644      65647200 
 3645              	.LASF225:
 3646 048c 50434461 		.ascii	"PCData\000"
 3646      746100
 3647              	.LASF140:
 3648 0493 6D5F6372 		.ascii	"m_crit_thd\000"
 3648      69745F74 
 3648      686400
 3649              	.LASF221:
 3650 049e 61667268 		.ascii	"afrh\000"
 3650      00
 3651              	.LASF13:
 3652 04a3 5F5F7569 		.ascii	"__uint64_t\000"
 3652      6E743634 
 3652      5F7400
 3653              	.LASF11:
 3654 04ae 6C6F6E67 		.ascii	"long unsigned int\000"
 3654      20756E73 
 3654      69676E65 
 3654      6420696E 
 3654      7400
 3655              	.LASF217:
 3656 04c0 6F747970 		.ascii	"otyper\000"
 3656      657200
 3657              	.LASF151:
 3658 04c7 63685F73 		.ascii	"ch_semaphore\000"
 3658      656D6170 
 3658      686F7265 
 3658      00
 3659              	.LASF222:
 3660 04d4 6770696F 		.ascii	"gpio_setup_t\000"
 3660      5F736574 
 3660      75705F74 
 3660      00
 3661              	.LASF49:
 3662 04e1 63685F74 		.ascii	"ch_thread\000"
 3662      68726561 
 3662      6400
 3663              	.LASF63:
 3664 04eb 76697274 		.ascii	"virtual_timers_list_t\000"
 3664      75616C5F 
ARM GAS  /tmp/ccmWdU6j.s 			page 69


 3664      74696D65 
 3664      72735F6C 
 3664      6973745F 
 3665              	.LASF59:
 3666 0501 76697274 		.ascii	"virtual_timer_t\000"
 3666      75616C5F 
 3666      74696D65 
 3666      725F7400 
 3667              	.LASF55:
 3668 0511 72656164 		.ascii	"ready_list_t\000"
 3668      795F6C69 
 3668      73745F74 
 3668      00
 3669              	.LASF34:
 3670 051e 6F6C6465 		.ascii	"older\000"
 3670      7200
 3671              	.LASF191:
 3672 0524 7364636D 		.ascii	"sdcmode_t\000"
 3672      6F64655F 
 3672      7400
 3673              	.LASF44:
 3674 052e 7265616C 		.ascii	"realprio\000"
 3674      7072696F 
 3674      00
 3675              	.LASF231:
 3676 0537 50494461 		.ascii	"PIData\000"
 3676      746100
 3677              	.LASF29:
 3678 053e 75636E74 		.ascii	"ucnt_t\000"
 3678      5F7400
 3679              	.LASF241:
 3680 0545 68616C49 		.ascii	"halInit\000"
 3680      6E697400 
 3681              	.LASF125:
 3682 054d 4649464F 		.ascii	"FIFO\000"
 3682      00
 3683              	.LASF50:
 3684 0552 63685F74 		.ascii	"ch_threads_list\000"
 3684      68726561 
 3684      64735F6C 
 3684      69737400 
 3685              	.LASF138:
 3686 0562 6E5F6972 		.ascii	"n_irq\000"
 3686      7100
 3687              	.LASF171:
 3688 0568 424C4B5F 		.ascii	"BLK_WRITING\000"
 3688      57524954 
 3688      494E4700 
 3689              	.LASF219:
 3690 0574 70757064 		.ascii	"pupdr\000"
 3690      7200
 3691              	.LASF180:
 3692 057a 4F535045 		.ascii	"OSPEEDR\000"
 3692      45445200 
 3693              	.LASF82:
 3694 0582 504C4C43 		.ascii	"PLLCFGR\000"
 3694      46475200 
ARM GAS  /tmp/ccmWdU6j.s 			page 70


 3695              	.LASF10:
 3696 058a 5F5F7569 		.ascii	"__uint32_t\000"
 3696      6E743332 
 3696      5F7400
 3697              	.LASF43:
 3698 0595 6D74786C 		.ascii	"mtxlist\000"
 3698      69737400 
 3699              	.LASF12:
 3700 059d 6C6F6E67 		.ascii	"long long int\000"
 3700      206C6F6E 
 3700      6720696E 
 3700      7400
 3701              	.LASF210:
 3702 05ab 636F6E6E 		.ascii	"connect\000"
 3702      65637400 
 3703              	.LASF237:
 3704 05b3 7364635F 		.ascii	"sdc_lld_is_card_inserted\000"
 3704      6C6C645F 
 3704      69735F63 
 3704      6172645F 
 3704      696E7365 
 3705              	.LASF76:
 3706 05cc 73797369 		.ascii	"sysinterval_t\000"
 3706      6E746572 
 3706      76616C5F 
 3706      7400
 3707              	.LASF181:
 3708 05da 50555044 		.ascii	"PUPDR\000"
 3708      5200
 3709              	.LASF107:
 3710 05e0 53534347 		.ascii	"SSCGR\000"
 3710      5200
 3711              	.LASF214:
 3712 05e6 73796E63 		.ascii	"sync\000"
 3712      00
 3713              	.LASF89:
 3714 05eb 41504232 		.ascii	"APB2RSTR\000"
 3714      52535452 
 3714      00
 3715              	.LASF121:
 3716 05f4 44435452 		.ascii	"DCTRL\000"
 3716      4C00
 3717              	.LASF239:
 3718 05fa 49544D5F 		.ascii	"ITM_RxBuffer\000"
 3718      52784275 
 3718      66666572 
 3718      00
 3719              	.LASF224:
 3720 0607 50424461 		.ascii	"PBData\000"
 3720      746100
 3721              	.LASF103:
 3722 060e 41504232 		.ascii	"APB2LPENR\000"
 3722      4C50454E 
 3722      5200
 3723              	.LASF178:
 3724 0618 4D4F4445 		.ascii	"MODER\000"
 3724      5200
ARM GAS  /tmp/ccmWdU6j.s 			page 71


 3725              	.LASF137:
 3726 061e 74696D65 		.ascii	"time_measurement_t\000"
 3726      5F6D6561 
 3726      73757265 
 3726      6D656E74 
 3726      5F7400
 3727              	.LASF212:
 3728 0631 72656164 		.ascii	"read\000"
 3728      00
 3729              	.LASF184:
 3730 0636 4146524C 		.ascii	"AFRL\000"
 3730      00
 3731              	.LASF141:
 3732 063b 6D5F6372 		.ascii	"m_crit_isr\000"
 3732      69745F69 
 3732      737200
 3733              	.LASF0:
 3734 0646 756E7369 		.ascii	"unsigned int\000"
 3734      676E6564 
 3734      20696E74 
 3734      00
 3735              	.LASF175:
 3736 0653 626C6B5F 		.ascii	"blk_num\000"
 3736      6E756D00 
 3737              	.LASF209:
 3738 065b 69735F70 		.ascii	"is_protected\000"
 3738      726F7465 
 3738      63746564 
 3738      00
 3739              	.LASF20:
 3740 0668 7274636E 		.ascii	"rtcnt_t\000"
 3740      745F7400 
 3741              	.LASF193:
 3742 0670 53444344 		.ascii	"SDCDriver\000"
 3742      72697665 
 3742      7200
 3743              	.LASF250:
 3744 067a 73746D33 		.ascii	"stm32_gpio_init\000"
 3744      325F6770 
 3744      696F5F69 
 3744      6E697400 
 3745              	.LASF122:
 3746 068a 44434F55 		.ascii	"DCOUNT\000"
 3746      4E5400
 3747              	.LASF142:
 3748 0691 6B65726E 		.ascii	"kernel_stats_t\000"
 3748      656C5F73 
 3748      74617473 
 3748      5F7400
 3749              	.LASF187:
 3750 06a0 5344435F 		.ascii	"SDC_MODE_1BIT\000"
 3750      4D4F4445 
 3750      5F314249 
 3750      5400
 3751              	.LASF57:
 3752 06ae 63757272 		.ascii	"current\000"
 3752      656E7400 
ARM GAS  /tmp/ccmWdU6j.s 			page 72


 3753              	.LASF244:
 3754 06b6 73657475 		.ascii	"setup_usb_strings\000"
 3754      705F7573 
 3754      625F7374 
 3754      72696E67 
 3754      7300
 3755              	.LASF131:
 3756 06c8 6F666673 		.ascii	"offset\000"
 3756      657400
 3757              	.LASF102:
 3758 06cf 41504231 		.ascii	"APB1LPENR\000"
 3758      4C50454E 
 3758      5200
 3759              	.LASF230:
 3760 06d9 50484461 		.ascii	"PHData\000"
 3760      746100
 3761              	.LASF81:
 3762 06e0 444D415F 		.ascii	"DMA_Stream_TypeDef\000"
 3762      53747265 
 3762      616D5F54 
 3762      79706544 
 3762      656600
 3763              	.LASF220:
 3764 06f3 6166726C 		.ascii	"afrl\000"
 3764      00
 3765              	.LASF176:
 3766 06f8 426C6F63 		.ascii	"BlockDeviceInfo\000"
 3766      6B446576 
 3766      69636549 
 3766      6E666F00 
 3767              	.LASF86:
 3768 0708 41484233 		.ascii	"AHB3RSTR\000"
 3768      52535452 
 3768      00
 3769              	.LASF30:
 3770 0711 74687265 		.ascii	"thread_t\000"
 3770      61645F74 
 3770      00
 3771              	.LASF47:
 3772 071a 74687265 		.ascii	"thread_reference_t\000"
 3772      61645F72 
 3772      65666572 
 3772      656E6365 
 3772      5F7400
 3773              	.LASF147:
 3774 072d 73656E74 		.ascii	"sentmsg\000"
 3774      6D736700 
 3775              	.LASF130:
 3776 0735 706F7274 		.ascii	"port_intctx\000"
 3776      5F696E74 
 3776      63747800 
 3777              	.LASF240:
 3778 0741 73746D33 		.ascii	"stm32_clock_init\000"
 3778      325F636C 
 3778      6F636B5F 
 3778      696E6974 
 3778      00
ARM GAS  /tmp/ccmWdU6j.s 			page 73


 3779              	.LASF166:
 3780 0752 424C4B5F 		.ascii	"BLK_ACTIVE\000"
 3780      41435449 
 3780      564500
 3781              	.LASF211:
 3782 075d 64697363 		.ascii	"disconnect\000"
 3782      6F6E6E65 
 3782      637400
 3783              	.LASF167:
 3784 0768 424C4B5F 		.ascii	"BLK_CONNECTING\000"
 3784      434F4E4E 
 3784      45435449 
 3784      4E4700
 3785              	.LASF88:
 3786 0777 41504231 		.ascii	"APB1RSTR\000"
 3786      52535452 
 3786      00
 3787              	.LASF60:
 3788 0780 63685F76 		.ascii	"ch_virtual_timer\000"
 3788      69727475 
 3788      616C5F74 
 3788      696D6572 
 3788      00
 3789              	.LASF95:
 3790 0791 41504231 		.ascii	"APB1ENR\000"
 3790      454E5200 
 3791              	.LASF74:
 3792 0799 6B65726E 		.ascii	"kernel_stats\000"
 3792      656C5F73 
 3792      74617473 
 3792      00
 3793              	.LASF161:
 3794 07a6 73656C66 		.ascii	"selfindex\000"
 3794      696E6465 
 3794      7800
 3795              	.LASF114:
 3796 07b0 52455350 		.ascii	"RESPCMD\000"
 3796      434D4400 
 3797              	.LASF14:
 3798 07b8 6C6F6E67 		.ascii	"long long unsigned int\000"
 3798      206C6F6E 
 3798      6720756E 
 3798      7369676E 
 3798      65642069 
 3799              	.LASF223:
 3800 07cf 50414461 		.ascii	"PAData\000"
 3800      746100
 3801              	.LASF16:
 3802 07d6 75696E74 		.ascii	"uint16_t\000"
 3802      31365F74 
 3802      00
 3803              	.LASF183:
 3804 07df 4C4F434B 		.ascii	"LOCKR\000"
 3804      5200
 3805              	.LASF26:
 3806 07e5 6D73675F 		.ascii	"msg_t\000"
 3806      7400
ARM GAS  /tmp/ccmWdU6j.s 			page 74


 3807              	.LASF53:
 3808 07eb 63685F74 		.ascii	"ch_threads_queue\000"
 3808      68726561 
 3808      64735F71 
 3808      75657565 
 3808      00
 3809              	.LASF201:
 3810 07fc 626F756E 		.ascii	"bouncebuffer\000"
 3810      63656275 
 3810      66666572 
 3810      00
 3811              	.LASF61:
 3812 0809 64656C74 		.ascii	"delta\000"
 3812      6100
 3813              	.LASF185:
 3814 080f 41465248 		.ascii	"AFRH\000"
 3814      00
 3815              	.LASF39:
 3816 0814 72656673 		.ascii	"refs\000"
 3816      00
 3817              	.LASF31:
 3818 0819 71756575 		.ascii	"queue\000"
 3818      6500
 3819              	.LASF42:
 3820 081f 6570656E 		.ascii	"epending\000"
 3820      64696E67 
 3820      00
 3821              	.LASF162:
 3822 0828 76656374 		.ascii	"vector\000"
 3822      6F7200
 3823              	.LASF235:
 3824 082f 5F5F6C61 		.ascii	"__late_init\000"
 3824      74655F69 
 3824      6E697400 
 3825              	.LASF234:
 3826 083b 5F5F6561 		.ascii	"__early_init\000"
 3826      726C795F 
 3826      696E6974 
 3826      00
 3827              	.LASF73:
 3828 0848 6D61696E 		.ascii	"mainthread\000"
 3828      74687265 
 3828      616400
 3829              	.LASF100:
 3830 0853 41484233 		.ascii	"AHB3LPENR\000"
 3830      4C50454E 
 3830      5200
 3831              	.LASF133:
 3832 085d 62657374 		.ascii	"best\000"
 3832      00
 3833              	.LASF36:
 3834 0862 77616261 		.ascii	"wabase\000"
 3834      736500
 3835              	.LASF249:
 3836 0869 6770696F 		.ascii	"gpio_init\000"
 3836      5F696E69 
 3836      7400
ARM GAS  /tmp/ccmWdU6j.s 			page 75


 3837              	.LASF179:
 3838 0873 4F545950 		.ascii	"OTYPER\000"
 3838      455200
 3839              	.LASF204:
 3840 087a 736C6F77 		.ascii	"slowdown\000"
 3840      646F776E 
 3840      00
 3841              	.LASF229:
 3842 0883 50474461 		.ascii	"PGData\000"
 3842      746100
 3843              	.LASF71:
 3844 088a 726C6973 		.ascii	"rlist\000"
 3844      7400
 3845              	.LASF22:
 3846 0890 746D6F64 		.ascii	"tmode_t\000"
 3846      655F7400 
 3847              	.LASF159:
 3848 0898 64756D6D 		.ascii	"dummy\000"
 3848      7900
 3849              	.LASF91:
 3850 089e 41484231 		.ascii	"AHB1ENR\000"
 3850      454E5200 
 3851              	.LASF93:
 3852 08a6 41484233 		.ascii	"AHB3ENR\000"
 3852      454E5200 
 3853              	.LASF132:
 3854 08ae 746D5F63 		.ascii	"tm_calibration_t\000"
 3854      616C6962 
 3854      72617469 
 3854      6F6E5F74 
 3854      00
 3855              	.LASF85:
 3856 08bf 41484232 		.ascii	"AHB2RSTR\000"
 3856      52535452 
 3856      00
 3857              	.LASF198:
 3858 08c8 74687265 		.ascii	"thread\000"
 3858      616400
 3859              	.LASF79:
 3860 08cf 4D304152 		.ascii	"M0AR\000"
 3860      00
 3861              	.LASF35:
 3862 08d4 6E616D65 		.ascii	"name\000"
 3862      00
 3863              	.LASF202:
 3864 08d9 73637261 		.ascii	"scratchpad\000"
 3864      74636870 
 3864      616400
 3865              	.LASF203:
 3866 08e4 6275735F 		.ascii	"bus_width\000"
 3866      77696474 
 3866      6800
 3867              	.LASF111:
 3868 08ee 5243435F 		.ascii	"RCC_TypeDef\000"
 3868      54797065 
 3868      44656600 
 3869              	.LASF123:
ARM GAS  /tmp/ccmWdU6j.s 			page 76


 3870 08fa 4D41534B 		.ascii	"MASK\000"
 3870      00
 3871              	.LASF5:
 3872 08ff 73686F72 		.ascii	"short int\000"
 3872      7420696E 
 3872      7400
 3873              	.LASF19:
 3874 0909 75696E74 		.ascii	"uint64_t\000"
 3874      36345F74 
 3874      00
 3875              	.LASF62:
 3876 0912 66756E63 		.ascii	"func\000"
 3876      00
 3877              	.LASF152:
 3878 0917 63685F6D 		.ascii	"ch_mutex\000"
 3878      75746578 
 3878      00
 3879              	.LASF41:
 3880 0920 6D736771 		.ascii	"msgqueue\000"
 3880      75657565 
 3880      00
 3881              	.LASF168:
 3882 0929 424C4B5F 		.ascii	"BLK_DISCONNECTING\000"
 3882      44495343 
 3882      4F4E4E45 
 3882      4354494E 
 3882      4700
 3883              	.LASF246:
 3884 093b 2E2E2F2E 		.ascii	"../../libraries/AP_HAL_ChibiOS/hwdef/common/board.c"
 3884      2E2F6C69 
 3884      62726172 
 3884      6965732F 
 3884      41505F48 
 3885 096e 00       		.ascii	"\000"
 3886              	.LASF67:
 3887 096f 63685F73 		.ascii	"ch_system_debug\000"
 3887      79737465 
 3887      6D5F6465 
 3887      62756700 
 3888              	.LASF251:
 3889 097f 626F6172 		.ascii	"boardInit\000"
 3889      64496E69 
 3889      7400
 3890              	.LASF252:
 3891 0989 6770696F 		.ascii	"gpio_default_config\000"
 3891      5F646566 
 3891      61756C74 
 3891      5F636F6E 
 3891      66696700 
 3892              	.LASF192:
 3893 099d 73646366 		.ascii	"sdcflags_t\000"
 3893      6C616773 
 3893      5F7400
 3894              	.LASF182:
 3895 09a8 42535252 		.ascii	"BSRR\000"
 3895      00
 3896              	.LASF72:
ARM GAS  /tmp/ccmWdU6j.s 			page 77


 3897 09ad 76746C69 		.ascii	"vtlist\000"
 3897      737400
 3898              	.LASF40:
 3899 09b4 77616974 		.ascii	"waiting\000"
 3899      696E6700 
 3900              	.LASF155:
 3901 09bc 6D757465 		.ascii	"mutex_t\000"
 3901      785F7400 
 3902              	.LASF24:
 3903 09c4 74726566 		.ascii	"trefs_t\000"
 3903      735F7400 
 3904              	.LASF129:
 3905 09cc 706F7274 		.ascii	"port_context\000"
 3905      5F636F6E 
 3905      74657874 
 3905      00
 3906              	.LASF48:
 3907 09d9 74687265 		.ascii	"threads_list_t\000"
 3907      6164735F 
 3907      6C697374 
 3907      5F7400
 3908              	.LASF70:
 3909 09e8 63685F73 		.ascii	"ch_system\000"
 3909      79737465 
 3909      6D00
 3910              	.LASF170:
 3911 09f2 424C4B5F 		.ascii	"BLK_READING\000"
 3911      52454144 
 3911      494E4700 
 3912              	.LASF33:
 3913 09fe 6E657765 		.ascii	"newer\000"
 3913      7200
 3914              	.LASF243:
 3915 0a04 6D616C6C 		.ascii	"malloc_init\000"
 3915      6F635F69 
 3915      6E697400 
 3916              	.LASF242:
 3917 0a10 63685379 		.ascii	"chSysInit\000"
 3917      73496E69 
 3917      7400
 3918              	.LASF18:
 3919 0a1a 75696E74 		.ascii	"uint32_t\000"
 3919      33325F74 
 3919      00
 3920              	.LASF207:
 3921 0a23 696E7374 		.ascii	"instance_offset\000"
 3921      616E6365 
 3921      5F6F6666 
 3921      73657400 
 3922              	.LASF247:
 3923 0a33 2F686F6D 		.ascii	"/home/mike/Documents/haggis-aero-2019/pixhawk/build"
 3923      652F6D69 
 3923      6B652F44 
 3923      6F63756D 
 3923      656E7473 
 3924 0a66 2F437562 		.ascii	"/CubeBlack\000"
 3924      65426C61 
ARM GAS  /tmp/ccmWdU6j.s 			page 78


 3924      636B00
 3925              	.LASF112:
 3926 0a71 504F5745 		.ascii	"POWER\000"
 3926      5200
 3927              	.LASF228:
 3928 0a77 50464461 		.ascii	"PFData\000"
 3928      746100
 3929              	.LASF109:
 3930 0a7e 504C4C53 		.ascii	"PLLSAICFGR\000"
 3930      41494346 
 3930      475200
 3931              	.LASF143:
 3932 0a89 7264796D 		.ascii	"rdymsg\000"
 3932      736700
 3933              	.LASF236:
 3934 0a90 73646370 		.ascii	"sdcp\000"
 3934      00
 3935              	.LASF7:
 3936 0a95 73686F72 		.ascii	"short unsigned int\000"
 3936      7420756E 
 3936      7369676E 
 3936      65642069 
 3936      6E7400
 3937              	.LASF113:
 3938 0aa8 434C4B43 		.ascii	"CLKCR\000"
 3938      5200
 3939              	.LASF69:
 3940 0aae 63685F73 		.ascii	"ch_system_t\000"
 3940      79737465 
 3940      6D5F7400 
 3941              	.LASF8:
 3942 0aba 5F5F696E 		.ascii	"__int32_t\000"
 3942      7433325F 
 3942      7400
 3943              	.LASF190:
 3944 0ac4 73646362 		.ascii	"sdcbusmode_t\000"
 3944      75736D6F 
 3944      64655F74 
 3944      00
 3945              	.LASF78:
 3946 0ad1 4E445452 		.ascii	"NDTR\000"
 3946      00
 3947              	.LASF158:
 3948 0ad6 69666372 		.ascii	"ifcr\000"
 3948      00
 3949              	.LASF51:
 3950 0adb 6E657874 		.ascii	"next\000"
 3950      00
 3951              	.LASF205:
 3952 0ae0 53444343 		.ascii	"SDCConfig\000"
 3952      6F6E6669 
 3952      6700
 3953              	.LASF54:
 3954 0aea 70726576 		.ascii	"prev\000"
 3954      00
 3955              	.LASF165:
 3956 0aef 424C4B5F 		.ascii	"BLK_STOP\000"
ARM GAS  /tmp/ccmWdU6j.s 			page 79


 3956      53544F50 
 3956      00
 3957              	.LASF135:
 3958 0af8 6C617374 		.ascii	"last\000"
 3958      00
 3959              		.ident	"GCC: (GNU Tools for ARM Embedded Processors) 4.9.3 20150529 (release) [ARM/embedded-4_9-br
ARM GAS  /tmp/ccmWdU6j.s 			page 80


DEFINED SYMBOLS
                            *ABS*:00000000 board.c
     /tmp/ccmWdU6j.s:21     .text.gpio_init:00000000 $t
     /tmp/ccmWdU6j.s:25     .text.gpio_init:00000000 gpio_init
     /tmp/ccmWdU6j.s:60     .text.__early_init:00000000 $t
     /tmp/ccmWdU6j.s:65     .text.__early_init:00000000 __early_init
     /tmp/ccmWdU6j.s:167    .text.__early_init:0000008c $d
     /tmp/ccmWdU6j.s:182    .text.__late_init:00000000 $t
     /tmp/ccmWdU6j.s:187    .text.__late_init:00000000 __late_init
     /tmp/ccmWdU6j.s:218    .text.sdc_lld_is_card_inserted:00000000 $t
     /tmp/ccmWdU6j.s:223    .text.sdc_lld_is_card_inserted:00000000 sdc_lld_is_card_inserted
     /tmp/ccmWdU6j.s:239    .text.sdc_lld_is_write_protected:00000000 $t
     /tmp/ccmWdU6j.s:244    .text.sdc_lld_is_write_protected:00000000 sdc_lld_is_write_protected
     /tmp/ccmWdU6j.s:260    .text.boardInit:00000000 $t
     /tmp/ccmWdU6j.s:265    .text.boardInit:00000000 boardInit
     /tmp/ccmWdU6j.s:277    .rodata.gpio_default_config:00000000 $d
     /tmp/ccmWdU6j.s:281    .rodata.gpio_default_config:00000000 gpio_default_config
                     .debug_frame:00000010 $d

UNDEFINED SYMBOLS
stm32_clock_init
halInit
chSysInit
malloc_init
setup_usb_strings
