ARM GAS  /tmp/ccVx5O6O.s 			page 1


   1              		.cpu cortex-m4
   2              		.eabi_attribute 27, 1
   3              		.eabi_attribute 28, 1
   4              		.eabi_attribute 20, 1
   5              		.eabi_attribute 21, 1
   6              		.eabi_attribute 23, 3
   7              		.eabi_attribute 24, 1
   8              		.eabi_attribute 25, 1
   9              		.eabi_attribute 26, 1
  10              		.eabi_attribute 30, 4
  11              		.eabi_attribute 34, 1
  12              		.eabi_attribute 18, 4
  13              		.file	"bouncebuffer.c"
  14              		.text
  15              	.Ltext0:
  16              		.cfi_sections	.debug_frame
  17              		.section	.text.bouncebuffer_init,"ax",%progbits
  18              		.align	1
  19              		.global	bouncebuffer_init
  20              		.syntax unified
  21              		.thumb
  22              		.thumb_func
  23              		.fpu fpv4-sp-d16
  24              		.type	bouncebuffer_init, %function
  25              	bouncebuffer_init:
  26              	.LFB323:
  27              		.file 1 "../../libraries/AP_HAL_ChibiOS/hwdef/common/bouncebuffer.c"
  28              		.loc 1 40 0
  29              		.cfi_startproc
  30              		@ args = 0, pretend = 0, frame = 0
  31              		@ frame_needed = 0, uses_anonymous_args = 0
  32              	.LVL0:
  33 0000 F8B5     		push	{r3, r4, r5, r6, r7, lr}
  34              		.cfi_def_cfa_offset 24
  35              		.cfi_offset 3, -24
  36              		.cfi_offset 4, -20
  37              		.cfi_offset 5, -16
  38              		.cfi_offset 6, -12
  39              		.cfi_offset 7, -8
  40              		.cfi_offset 14, -4
  41              		.loc 1 40 0
  42 0002 0646     		mov	r6, r0
  43 0004 0C46     		mov	r4, r1
  44              		.loc 1 41 0
  45 0006 0120     		movs	r0, #1
  46              	.LVL1:
  47 0008 1021     		movs	r1, #16
  48              	.LVL2:
  49              		.loc 1 40 0
  50 000a 1746     		mov	r7, r2
  51              		.loc 1 41 0
  52 000c FFF7FEFF 		bl	calloc
  53              	.LVL3:
  54 0010 0546     		mov	r5, r0
  55 0012 3060     		str	r0, [r6]
  56              		.loc 1 43 0
  57 0014 4773     		strb	r7, [r0, #13]
ARM GAS  /tmp/ccVx5O6O.s 			page 2


  58              		.loc 1 44 0
  59 0016 34B1     		cbz	r4, .L1
  60              		.loc 1 45 0
  61 0018 2046     		mov	r0, r4
  62 001a 2FB1     		cbz	r7, .L3
  63              		.loc 1 45 0 is_stmt 0 discriminator 1
  64 001c FFF7FEFF 		bl	malloc_sdcard_dma
  65              	.LVL4:
  66              	.L4:
  67              		.loc 1 47 0 is_stmt 1 discriminator 4
  68 0020 3368     		ldr	r3, [r6]
  69              		.loc 1 45 0 discriminator 4
  70 0022 2860     		str	r0, [r5]
  71              		.loc 1 47 0 discriminator 4
  72 0024 9C60     		str	r4, [r3, #8]
  73              	.L1:
  74 0026 F8BD     		pop	{r3, r4, r5, r6, r7, pc}
  75              	.LVL5:
  76              	.L3:
  77              		.loc 1 45 0 discriminator 2
  78 0028 FFF7FEFF 		bl	malloc_dma
  79              	.LVL6:
  80 002c F8E7     		b	.L4
  81              		.cfi_endproc
  82              	.LFE323:
  83              		.size	bouncebuffer_init, .-bouncebuffer_init
  84              		.section	.text.bouncebuffer_setup_read,"ax",%progbits
  85              		.align	1
  86              		.global	bouncebuffer_setup_read
  87              		.syntax unified
  88              		.thumb
  89              		.thumb_func
  90              		.fpu fpv4-sp-d16
  91              		.type	bouncebuffer_setup_read, %function
  92              	bouncebuffer_setup_read:
  93              	.LFB324:
  94              		.loc 1 57 0
  95              		.cfi_startproc
  96              		@ args = 0, pretend = 0, frame = 0
  97              		@ frame_needed = 0, uses_anonymous_args = 0
  98              	.LVL7:
  99 0000 70B5     		push	{r4, r5, r6, lr}
 100              		.cfi_def_cfa_offset 16
 101              		.cfi_offset 4, -16
 102              		.cfi_offset 5, -12
 103              		.cfi_offset 6, -8
 104              		.cfi_offset 14, -4
 105              		.loc 1 57 0
 106 0002 0E46     		mov	r6, r1
 107 0004 1546     		mov	r5, r2
 108              		.loc 1 58 0
 109 0006 0446     		mov	r4, r0
 110 0008 C0B1     		cbz	r0, .L8
 111              		.loc 1 58 0 is_stmt 0 discriminator 1
 112 000a 0B68     		ldr	r3, [r1]
 113 000c 0D4A     		ldr	r2, .L23
 114              	.LVL8:
ARM GAS  /tmp/ccVx5O6O.s 			page 3


 115 000e 1A40     		ands	r2, r2, r3
 116 0010 B2F1005F 		cmp	r2, #536870912
 117 0014 12D0     		beq	.L8
 118              		.loc 1 63 0 is_stmt 1
 119 0016 4360     		str	r3, [r0, #4]
 120              		.loc 1 64 0
 121 0018 8368     		ldr	r3, [r0, #8]
 122 001a AB42     		cmp	r3, r5
 123 001c 0AD2     		bcs	.L10
 124              		.loc 1 65 0
 125 001e 13B1     		cbz	r3, .L11
 126              		.loc 1 66 0
 127 0020 0068     		ldr	r0, [r0]
 128              	.LVL9:
 129 0022 FFF7FEFF 		bl	free
 130              	.LVL10:
 131              	.L11:
 132              		.loc 1 68 0
 133 0026 637B     		ldrb	r3, [r4, #13]	@ zero_extendqisi2
 134 0028 2846     		mov	r0, r5
 135 002a 43B1     		cbz	r3, .L12
 136              	.LVL11:
 137              		.loc 1 68 0 is_stmt 0 discriminator 1
 138 002c FFF7FEFF 		bl	malloc_sdcard_dma
 139              	.LVL12:
 140              	.L13:
 141              		.loc 1 68 0 discriminator 4
 142 0030 2060     		str	r0, [r4]
 143              		.loc 1 70 0 is_stmt 1 discriminator 4
 144 0032 A560     		str	r5, [r4, #8]
 145              	.L10:
 146              		.loc 1 72 0
 147 0034 2368     		ldr	r3, [r4]
 148 0036 3360     		str	r3, [r6]
 149              		.loc 1 77 0
 150 0038 0123     		movs	r3, #1
 151 003a 2373     		strb	r3, [r4, #12]
 152              	.L8:
 153 003c 70BD     		pop	{r4, r5, r6, pc}
 154              	.LVL13:
 155              	.L12:
 156              		.loc 1 68 0 discriminator 2
 157 003e FFF7FEFF 		bl	malloc_dma
 158              	.LVL14:
 159 0042 F5E7     		b	.L13
 160              	.L24:
 161              		.align	2
 162              	.L23:
 163 0044 010000F0 		.word	-268435455
 164              		.cfi_endproc
 165              	.LFE324:
 166              		.size	bouncebuffer_setup_read, .-bouncebuffer_setup_read
 167              		.section	.text.bouncebuffer_finish_read,"ax",%progbits
 168              		.align	1
 169              		.global	bouncebuffer_finish_read
 170              		.syntax unified
 171              		.thumb
ARM GAS  /tmp/ccVx5O6O.s 			page 4


 172              		.thumb_func
 173              		.fpu fpv4-sp-d16
 174              		.type	bouncebuffer_finish_read, %function
 175              	bouncebuffer_finish_read:
 176              	.LFB325:
 177              		.loc 1 84 0
 178              		.cfi_startproc
 179              		@ args = 0, pretend = 0, frame = 0
 180              		@ frame_needed = 0, uses_anonymous_args = 0
 181              	.LVL15:
 182 0000 10B5     		push	{r4, lr}
 183              		.cfi_def_cfa_offset 8
 184              		.cfi_offset 4, -8
 185              		.cfi_offset 14, -4
 186              		.loc 1 85 0
 187 0002 0446     		mov	r4, r0
 188 0004 40B1     		cbz	r0, .L25
 189              		.loc 1 85 0 is_stmt 0 discriminator 1
 190 0006 0068     		ldr	r0, [r0]
 191              	.LVL16:
 192 0008 8842     		cmp	r0, r1
 193 000a 05D1     		bne	.L25
 194              		.loc 1 87 0 is_stmt 1
 195 000c 6068     		ldr	r0, [r4, #4]
 196 000e 08B1     		cbz	r0, .L27
 197              		.loc 1 88 0
 198 0010 FFF7FEFF 		bl	memcpy
 199              	.LVL17:
 200              	.L27:
 201              		.loc 1 90 0
 202 0014 0023     		movs	r3, #0
 203 0016 2373     		strb	r3, [r4, #12]
 204              	.L25:
 205 0018 10BD     		pop	{r4, pc}
 206              		.cfi_endproc
 207              	.LFE325:
 208              		.size	bouncebuffer_finish_read, .-bouncebuffer_finish_read
 209              		.section	.text.bouncebuffer_setup_write,"ax",%progbits
 210              		.align	1
 211              		.global	bouncebuffer_setup_write
 212              		.syntax unified
 213              		.thumb
 214              		.thumb_func
 215              		.fpu fpv4-sp-d16
 216              		.type	bouncebuffer_setup_write, %function
 217              	bouncebuffer_setup_write:
 218              	.LFB326:
 219              		.loc 1 99 0
 220              		.cfi_startproc
 221              		@ args = 0, pretend = 0, frame = 0
 222              		@ frame_needed = 0, uses_anonymous_args = 0
 223              	.LVL18:
 224 0000 70B5     		push	{r4, r5, r6, lr}
 225              		.cfi_def_cfa_offset 16
 226              		.cfi_offset 4, -16
 227              		.cfi_offset 5, -12
 228              		.cfi_offset 6, -8
ARM GAS  /tmp/ccVx5O6O.s 			page 5


 229              		.cfi_offset 14, -4
 230              		.loc 1 99 0
 231 0002 0E46     		mov	r6, r1
 232 0004 1546     		mov	r5, r2
 233              		.loc 1 100 0
 234 0006 0446     		mov	r4, r0
 235 0008 18B3     		cbz	r0, .L34
 236              		.loc 1 100 0 is_stmt 0 discriminator 1
 237 000a 0B68     		ldr	r3, [r1]
 238 000c 23F07F63 		bic	r3, r3, #267386880
 239 0010 23F47F23 		bic	r3, r3, #1044480
 240 0014 23F47F63 		bic	r3, r3, #4080
 241 0018 23F00E03 		bic	r3, r3, #14
 242 001c B3F1005F 		cmp	r3, #536870912
 243 0020 17D0     		beq	.L34
 244              		.loc 1 105 0 is_stmt 1
 245 0022 8368     		ldr	r3, [r0, #8]
 246 0024 9342     		cmp	r3, r2
 247 0026 0AD2     		bcs	.L36
 248              		.loc 1 106 0
 249 0028 13B1     		cbz	r3, .L37
 250              		.loc 1 107 0
 251 002a 0068     		ldr	r0, [r0]
 252              	.LVL19:
 253 002c FFF7FEFF 		bl	free
 254              	.LVL20:
 255              	.L37:
 256              		.loc 1 109 0
 257 0030 637B     		ldrb	r3, [r4, #13]	@ zero_extendqisi2
 258 0032 2846     		mov	r0, r5
 259 0034 73B1     		cbz	r3, .L38
 260              	.LVL21:
 261              		.loc 1 109 0 is_stmt 0 discriminator 1
 262 0036 FFF7FEFF 		bl	malloc_sdcard_dma
 263              	.LVL22:
 264              	.L39:
 265              		.loc 1 109 0 discriminator 4
 266 003a 2060     		str	r0, [r4]
 267              		.loc 1 111 0 is_stmt 1 discriminator 4
 268 003c A560     		str	r5, [r4, #8]
 269              	.L36:
 270              		.loc 1 113 0
 271 003e 3168     		ldr	r1, [r6]
 272 0040 19B1     		cbz	r1, .L40
 273              		.loc 1 114 0
 274 0042 2A46     		mov	r2, r5
 275 0044 2068     		ldr	r0, [r4]
 276 0046 FFF7FEFF 		bl	memcpy
 277              	.LVL23:
 278              	.L40:
 279              		.loc 1 116 0
 280 004a 2368     		ldr	r3, [r4]
 281 004c 3360     		str	r3, [r6]
 282              		.loc 1 121 0
 283 004e 0123     		movs	r3, #1
 284 0050 2373     		strb	r3, [r4, #12]
 285              	.L34:
ARM GAS  /tmp/ccVx5O6O.s 			page 6


 286 0052 70BD     		pop	{r4, r5, r6, pc}
 287              	.LVL24:
 288              	.L38:
 289              		.loc 1 109 0 discriminator 2
 290 0054 FFF7FEFF 		bl	malloc_dma
 291              	.LVL25:
 292 0058 EFE7     		b	.L39
 293              		.cfi_endproc
 294              	.LFE326:
 295              		.size	bouncebuffer_setup_write, .-bouncebuffer_setup_write
 296              		.section	.text.bouncebuffer_finish_write,"ax",%progbits
 297              		.align	1
 298              		.global	bouncebuffer_finish_write
 299              		.syntax unified
 300              		.thumb
 301              		.thumb_func
 302              		.fpu fpv4-sp-d16
 303              		.type	bouncebuffer_finish_write, %function
 304              	bouncebuffer_finish_write:
 305              	.LFB327:
 306              		.loc 1 129 0
 307              		.cfi_startproc
 308              		@ args = 0, pretend = 0, frame = 0
 309              		@ frame_needed = 0, uses_anonymous_args = 0
 310              		@ link register save eliminated.
 311              	.LVL26:
 312              		.loc 1 130 0
 313 0000 20B1     		cbz	r0, .L53
 314              		.loc 1 130 0 is_stmt 0 discriminator 1
 315 0002 0368     		ldr	r3, [r0]
 316 0004 8B42     		cmp	r3, r1
 317              		.loc 1 132 0 is_stmt 1 discriminator 1
 318 0006 04BF     		itt	eq
 319 0008 0023     		moveq	r3, #0
 320 000a 0373     		strbeq	r3, [r0, #12]
 321              	.L53:
 322 000c 7047     		bx	lr
 323              		.cfi_endproc
 324              	.LFE327:
 325              		.size	bouncebuffer_finish_write, .-bouncebuffer_finish_write
 326              		.text
 327              	.Letext0:
 328              		.file 2 "/opt/gcc-arm-none-eabi-6-2017-q2-update/lib/gcc/arm-none-eabi/6.3.1/include/stddef.h"
 329              		.file 3 "/opt/gcc-arm-none-eabi-6-2017-q2-update/arm-none-eabi/include/machine/_default_types.h"
 330              		.file 4 "/opt/gcc-arm-none-eabi-6-2017-q2-update/arm-none-eabi/include/sys/_stdint.h"
 331              		.file 5 "/opt/gcc-arm-none-eabi-6-2017-q2-update/arm-none-eabi/include/stdint.h"
 332              		.file 6 "../../modules/ChibiOS/os/common/ports/ARMCMx/compilers/GCC/chtypes.h"
 333              		.file 7 "../../modules/ChibiOS/os/rt/include/chsystypes.h"
 334              		.file 8 "../../modules/ChibiOS/os/rt/include/chschd.h"
 335              		.file 9 "../../modules/ChibiOS/os/rt/include/chtime.h"
 336              		.file 10 "../../modules/ChibiOS/os/common/ext/ARM/CMSIS/Core/Include/core_cm4.h"
 337              		.file 11 "../../modules/ChibiOS/os/common/ext/ST/STM32F4xx/system_stm32f4xx.h"
 338              		.file 12 "../../modules/ChibiOS/os/common/ext/ST/STM32F4xx/stm32f427xx.h"
 339              		.file 13 "../../modules/ChibiOS/os/common/ports/ARMCMx/chcore.h"
 340              		.file 14 "../../modules/ChibiOS/os/common/ports/ARMCMx/chcore_v7m.h"
 341              		.file 15 "../../modules/ChibiOS/os/hal/ports/STM32/LLD/TIMv1/stm32_tim.h"
 342              		.file 16 "../../modules/ChibiOS/os/rt/include/chtm.h"
ARM GAS  /tmp/ccVx5O6O.s 			page 7


 343              		.file 17 "../../modules/ChibiOS/os/rt/include/chstats.h"
 344              		.file 18 "../../modules/ChibiOS/os/rt/include/chsem.h"
 345              		.file 19 "../../modules/ChibiOS/os/rt/include/chmtx.h"
 346              		.file 20 "../../modules/ChibiOS/os/rt/include/chsys.h"
 347              		.file 21 "../../modules/ChibiOS/os/rt/include/chregistry.h"
 348              		.file 22 "../../modules/ChibiOS/os/rt/include/chevents.h"
 349              		.file 23 "../../modules/ChibiOS/os/oslib/include/chmemcore.h"
 350              		.file 24 "../../modules/ChibiOS/os/oslib/include/chmempools.h"
 351              		.file 25 "../../modules/ChibiOS/os/oslib/include/chfactory.h"
 352              		.file 26 "../../modules/ChibiOS/os/hal/ports/STM32/LLD/DMAv2/stm32_dma.h"
 353              		.file 27 "../../modules/ChibiOS/os/hal/include/hal_ioblock.h"
 354              		.file 28 "../../modules/ChibiOS/os/hal/include/hal_queues.h"
 355              		.file 29 "../../modules/ChibiOS/os/hal/include/hal_pal.h"
 356              		.file 30 "../../modules/ChibiOS/os/hal/ports/STM32/LLD/GPIOv2/stm32_gpio.h"
 357              		.file 31 "../../modules/ChibiOS/os/hal/ports/STM32/LLD/GPIOv2/hal_pal_lld.h"
 358              		.file 32 "../../modules/ChibiOS/os/hal/include/hal_adc.h"
 359              		.file 33 "../../modules/ChibiOS/os/hal/ports/STM32/LLD/ADCv2/hal_adc_lld.h"
 360              		.file 34 "../../modules/ChibiOS/os/hal/include/hal_i2c.h"
 361              		.file 35 "../../modules/ChibiOS/os/hal/ports/STM32/LLD/I2Cv1/hal_i2c_lld.h"
 362              		.file 36 "../../modules/ChibiOS/os/hal/include/hal_pwm.h"
 363              		.file 37 "../../modules/ChibiOS/os/hal/ports/STM32/LLD/TIMv1/hal_pwm_lld.h"
 364              		.file 38 "../../modules/ChibiOS/os/hal/include/hal_serial.h"
 365              		.file 39 "../../modules/ChibiOS/os/hal/ports/STM32/LLD/USARTv1/hal_serial_lld.h"
 366              		.file 40 "../../modules/ChibiOS/os/hal/include/hal_sdc.h"
 367              		.file 41 "../../modules/ChibiOS/os/hal/ports/STM32/LLD/SDIOv1/hal_sdc_lld.h"
 368              		.file 42 "../../libraries/AP_HAL_ChibiOS/hwdef/common/bouncebuffer.h"
 369              		.file 43 "../../modules/ChibiOS/os/hal/include/hal_spi.h"
 370              		.file 44 "../../modules/ChibiOS/os/hal/ports/STM32/LLD/SPIv1/hal_spi_lld.h"
 371              		.file 45 "../../modules/ChibiOS/os/hal/include/hal_usb.h"
 372              		.file 46 "../../modules/ChibiOS/os/hal/ports/STM32/LLD/OTGv1/hal_usb_lld.h"
 373              		.file 47 "../../modules/ChibiOS/os/hal/ports/STM32/LLD/OTGv1/stm32_otg.h"
 374              		.file 48 "/opt/gcc-arm-none-eabi-6-2017-q2-update/arm-none-eabi/include/sys/lock.h"
 375              		.file 49 "/opt/gcc-arm-none-eabi-6-2017-q2-update/arm-none-eabi/include/sys/_types.h"
 376              		.file 50 "/opt/gcc-arm-none-eabi-6-2017-q2-update/arm-none-eabi/include/sys/reent.h"
 377              		.file 51 "/opt/gcc-arm-none-eabi-6-2017-q2-update/lib/gcc/arm-none-eabi/6.3.1/include/stdarg.h"
 378              		.file 52 "<built-in>"
 379              		.file 53 "/opt/gcc-arm-none-eabi-6-2017-q2-update/arm-none-eabi/include/time.h"
 380              		.file 54 "/opt/gcc-arm-none-eabi-6-2017-q2-update/arm-none-eabi/include/sys/errno.h"
 381              		.file 55 "../../libraries/AP_HAL_ChibiOS/hwdef/common/posix.h"
 382              		.file 56 "../../libraries/AP_HAL_ChibiOS/hwdef/common/stdio.h"
 383              		.file 57 "../../libraries/AP_HAL_ChibiOS/hwdef/common/stm32_util.h"