ARM GAS  /tmp/cc6aUrs9.s 			page 1


   1              		.cpu cortex-m4
   2              		.eabi_attribute 27, 1
   3              		.eabi_attribute 28, 1
   4              		.eabi_attribute 20, 1
   5              		.eabi_attribute 21, 1
   6              		.eabi_attribute 23, 3
   7              		.eabi_attribute 24, 1
   8              		.eabi_attribute 25, 1
   9              		.eabi_attribute 26, 1
  10              		.eabi_attribute 30, 4
  11              		.eabi_attribute 34, 1
  12              		.eabi_attribute 18, 4
  13              		.file	"chcond.c"
  14              		.text
  15              	.Ltext0:
  16              		.cfi_sections	.debug_frame
  17              		.section	.text.queue_prio_insert,"ax",%progbits
  18              		.align	1
  19              		.syntax unified
  20              		.thumb
  21              		.thumb_func
  22              		.fpu fpv4-sp-d16
  23              		.type	queue_prio_insert, %function
  24              	queue_prio_insert:
  25              	.LFB172:
  26              		.file 1 "../../modules/ChibiOS/os/rt/include/chschd.h"
  27              		.loc 1 586 0
  28              		.cfi_startproc
  29              		@ args = 0, pretend = 0, frame = 0
  30              		@ frame_needed = 0, uses_anonymous_args = 0
  31              	.LVL0:
  32 0000 10B5     		push	{r4, lr}
  33              		.cfi_def_cfa_offset 8
  34              		.cfi_offset 4, -8
  35              		.cfi_offset 14, -4
  36              		.loc 1 586 0
  37 0002 0B46     		mov	r3, r1
  38              	.LVL1:
  39              	.L3:
  40              		.loc 1 590 0 discriminator 2
  41 0004 1B68     		ldr	r3, [r3]
  42              	.LVL2:
  43              		.loc 1 591 0 discriminator 2
  44 0006 9942     		cmp	r1, r3
  45 0008 05D1     		bne	.L2
  46              	.L4:
  47              		.loc 1 593 0
  48 000a 5A68     		ldr	r2, [r3, #4]
  49              		.loc 1 592 0
  50 000c 0360     		str	r3, [r0]
  51              		.loc 1 593 0
  52 000e 4260     		str	r2, [r0, #4]
  53              		.loc 1 594 0
  54 0010 1060     		str	r0, [r2]
  55              		.loc 1 595 0
  56 0012 5860     		str	r0, [r3, #4]
  57              		.loc 1 596 0
ARM GAS  /tmp/cc6aUrs9.s 			page 2


  58 0014 10BD     		pop	{r4, pc}
  59              	.L2:
  60              		.loc 1 591 0 discriminator 1
  61 0016 9C68     		ldr	r4, [r3, #8]
  62 0018 8268     		ldr	r2, [r0, #8]
  63 001a 9442     		cmp	r4, r2
  64 001c F2D2     		bcs	.L3
  65 001e F4E7     		b	.L4
  66              		.cfi_endproc
  67              	.LFE172:
  68              		.size	queue_prio_insert, .-queue_prio_insert
  69              		.section	.text.chCondObjectInit,"ax",%progbits
  70              		.align	1
  71              		.global	chCondObjectInit
  72              		.syntax unified
  73              		.thumb
  74              		.thumb_func
  75              		.fpu fpv4-sp-d16
  76              		.type	chCondObjectInit, %function
  77              	chCondObjectInit:
  78              	.LFB290:
  79              		.file 2 "../../modules/ChibiOS/os/rt/src/chcond.c"
  80              		.loc 2 75 0
  81              		.cfi_startproc
  82              		@ args = 0, pretend = 0, frame = 0
  83              		@ frame_needed = 0, uses_anonymous_args = 0
  84              		@ link register save eliminated.
  85              	.LVL3:
  86              	.LBB39:
  87              	.LBB40:
  88              		.loc 1 539 0
  89 0000 0060     		str	r0, [r0]
  90              		.loc 1 540 0
  91 0002 4060     		str	r0, [r0, #4]
  92              	.LVL4:
  93 0004 7047     		bx	lr
  94              	.LBE40:
  95              	.LBE39:
  96              		.cfi_endproc
  97              	.LFE290:
  98              		.size	chCondObjectInit, .-chCondObjectInit
  99              		.section	.text.chCondSignal,"ax",%progbits
 100              		.align	1
 101              		.global	chCondSignal
 102              		.syntax unified
 103              		.thumb
 104              		.thumb_func
 105              		.fpu fpv4-sp-d16
 106              		.type	chCondSignal, %function
 107              	chCondSignal:
 108              	.LFB291:
 109              		.loc 2 89 0
 110              		.cfi_startproc
 111              		@ args = 0, pretend = 0, frame = 0
 112              		@ frame_needed = 0, uses_anonymous_args = 0
 113              	.LVL5:
 114 0000 10B5     		push	{r4, lr}
ARM GAS  /tmp/cc6aUrs9.s 			page 3


 115              		.cfi_def_cfa_offset 8
 116              		.cfi_offset 4, -8
 117              		.cfi_offset 14, -4
 118              	.LBB55:
 119              	.LBB56:
 120              	.LBB57:
 121              	.LBB58:
 122              	.LBB59:
 123              		.file 3 "../../modules/ChibiOS/os/common/ext/ARM/CMSIS/Core/Include/cmsis_gcc.h"
 124              		.loc 3 493 0
 125 0002 2023     		movs	r3, #32
 126              	.LBE59:
 127              	.LBE58:
 128              	.LBE57:
 129              	.LBE56:
 130              	.LBE55:
 131              		.loc 2 89 0
 132 0004 0446     		mov	r4, r0
 133              	.LBB64:
 134              	.LBB63:
 135              	.LBB62:
 136              	.LBB61:
 137              	.LBB60:
 138              		.loc 3 493 0
 139              		.syntax unified
 140              	@ 493 "../../modules/ChibiOS/os/common/ext/ARM/CMSIS/Core/Include/cmsis_gcc.h" 1
 141 0006 83F31188 		MSR basepri, r3
 142              	@ 0 "" 2
 143              	.LVL6:
 144              		.thumb
 145              		.syntax unified
 146              	.LBE60:
 147              	.LBE61:
 148              	.LBE62:
 149              		.file 4 "../../modules/ChibiOS/os/rt/include/chsys.h"
 150              		.loc 4 356 0
 151 000a FFF7FEFF 		bl	_stats_start_measure_crit_thd
 152              	.LVL7:
 153              	.LBE63:
 154              	.LBE64:
 155              	.LBB65:
 156              	.LBB66:
 157              		.loc 1 566 0
 158 000e 2068     		ldr	r0, [r4]
 159              	.LVL8:
 160              	.LBE66:
 161              	.LBE65:
 162              		.loc 2 94 0
 163 0010 8442     		cmp	r4, r0
 164 0012 05D0     		beq	.L9
 165              	.LVL9:
 166              	.LBB67:
 167              	.LBB68:
 168              		.loc 1 609 0
 169 0014 0368     		ldr	r3, [r0]
 170 0016 2360     		str	r3, [r4]
 171              	.LBE68:
ARM GAS  /tmp/cc6aUrs9.s 			page 4


 172              	.LBE67:
 173              		.loc 2 95 0
 174 0018 0021     		movs	r1, #0
 175              	.LBB70:
 176              	.LBB69:
 177              		.loc 1 610 0
 178 001a 5C60     		str	r4, [r3, #4]
 179              	.LVL10:
 180              	.LBE69:
 181              	.LBE70:
 182              		.loc 2 95 0
 183 001c FFF7FEFF 		bl	chSchWakeupS
 184              	.LVL11:
 185              	.L9:
 186              	.LBB71:
 187              	.LBB72:
 188              		.loc 4 368 0
 189 0020 FFF7FEFF 		bl	_stats_stop_measure_crit_thd
 190              	.LVL12:
 191              	.LBB73:
 192              	.LBB74:
 193              	.LBB75:
 194              		.loc 3 493 0
 195 0024 0023     		movs	r3, #0
 196              		.syntax unified
 197              	@ 493 "../../modules/ChibiOS/os/common/ext/ARM/CMSIS/Core/Include/cmsis_gcc.h" 1
 198 0026 83F31188 		MSR basepri, r3
 199              	@ 0 "" 2
 200              	.LVL13:
 201              		.thumb
 202              		.syntax unified
 203 002a 10BD     		pop	{r4, pc}
 204              	.LBE75:
 205              	.LBE74:
 206              	.LBE73:
 207              	.LBE72:
 208              	.LBE71:
 209              		.cfi_endproc
 210              	.LFE291:
 211              		.size	chCondSignal, .-chCondSignal
 212              		.section	.text.chCondSignalI,"ax",%progbits
 213              		.align	1
 214              		.global	chCondSignalI
 215              		.syntax unified
 216              		.thumb
 217              		.thumb_func
 218              		.fpu fpv4-sp-d16
 219              		.type	chCondSignalI, %function
 220              	chCondSignalI:
 221              	.LFB292:
 222              		.loc 2 111 0
 223              		.cfi_startproc
 224              		@ args = 0, pretend = 0, frame = 0
 225              		@ frame_needed = 0, uses_anonymous_args = 0
 226              		@ link register save eliminated.
 227              	.LVL14:
 228              	.LBB76:
ARM GAS  /tmp/cc6aUrs9.s 			page 5


 229              	.LBB77:
 230              		.loc 1 566 0
 231 0000 0368     		ldr	r3, [r0]
 232              	.LVL15:
 233              	.LBE77:
 234              	.LBE76:
 235              		.loc 2 116 0
 236 0002 9842     		cmp	r0, r3
 237 0004 07D0     		beq	.L10
 238              	.LVL16:
 239              	.LBB78:
 240              	.LBB79:
 241              	.LBB80:
 242              		.loc 1 609 0
 243 0006 1A68     		ldr	r2, [r3]
 244 0008 0260     		str	r2, [r0]
 245              		.loc 1 610 0
 246 000a 5060     		str	r0, [r2, #4]
 247              	.LVL17:
 248              	.LBE80:
 249              	.LBE79:
 250              		.loc 2 118 0
 251 000c 0022     		movs	r2, #0
 252 000e 5A62     		str	r2, [r3, #36]
 253              		.loc 2 119 0
 254 0010 1846     		mov	r0, r3
 255              	.LVL18:
 256 0012 FFF7FEBF 		b	chSchReadyI
 257              	.LVL19:
 258              	.L10:
 259 0016 7047     		bx	lr
 260              	.LBE78:
 261              		.cfi_endproc
 262              	.LFE292:
 263              		.size	chCondSignalI, .-chCondSignalI
 264              		.section	.text.chCondBroadcastI,"ax",%progbits
 265              		.align	1
 266              		.global	chCondBroadcastI
 267              		.syntax unified
 268              		.thumb
 269              		.thumb_func
 270              		.fpu fpv4-sp-d16
 271              		.type	chCondBroadcastI, %function
 272              	chCondBroadcastI:
 273              	.LFB294:
 274              		.loc 2 149 0
 275              		.cfi_startproc
 276              		@ args = 0, pretend = 0, frame = 0
 277              		@ frame_needed = 0, uses_anonymous_args = 0
 278              	.LVL20:
 279 0000 38B5     		push	{r3, r4, r5, lr}
 280              		.cfi_def_cfa_offset 16
 281              		.cfi_offset 3, -16
 282              		.cfi_offset 4, -12
 283              		.cfi_offset 5, -8
 284              		.cfi_offset 14, -4
 285              		.loc 2 149 0
ARM GAS  /tmp/cc6aUrs9.s 			page 6


 286 0002 0446     		mov	r4, r0
 287              		.loc 2 158 0
 288 0004 6FF00105 		mvn	r5, #1
 289              	.LVL21:
 290              	.L13:
 291              	.LBB81:
 292              	.LBB82:
 293              		.loc 1 566 0
 294 0008 2068     		ldr	r0, [r4]
 295              	.LVL22:
 296              	.LBE82:
 297              	.LBE81:
 298              		.loc 2 157 0
 299 000a 8442     		cmp	r4, r0
 300 000c 00D1     		bne	.L14
 301              		.loc 2 160 0
 302 000e 38BD     		pop	{r3, r4, r5, pc}
 303              	.LVL23:
 304              	.L14:
 305              	.LBB83:
 306              	.LBB84:
 307              		.loc 1 609 0
 308 0010 0368     		ldr	r3, [r0]
 309 0012 2360     		str	r3, [r4]
 310              		.loc 1 610 0
 311 0014 5C60     		str	r4, [r3, #4]
 312              	.LVL24:
 313              	.LBE84:
 314              	.LBE83:
 315              		.loc 2 158 0
 316 0016 FFF7FEFF 		bl	chSchReadyI
 317              	.LVL25:
 318 001a 4562     		str	r5, [r0, #36]
 319 001c F4E7     		b	.L13
 320              		.cfi_endproc
 321              	.LFE294:
 322              		.size	chCondBroadcastI, .-chCondBroadcastI
 323              		.section	.text.chCondBroadcast,"ax",%progbits
 324              		.align	1
 325              		.global	chCondBroadcast
 326              		.syntax unified
 327              		.thumb
 328              		.thumb_func
 329              		.fpu fpv4-sp-d16
 330              		.type	chCondBroadcast, %function
 331              	chCondBroadcast:
 332              	.LFB293:
 333              		.loc 2 130 0
 334              		.cfi_startproc
 335              		@ args = 0, pretend = 0, frame = 0
 336              		@ frame_needed = 0, uses_anonymous_args = 0
 337              	.LVL26:
 338 0000 10B5     		push	{r4, lr}
 339              		.cfi_def_cfa_offset 8
 340              		.cfi_offset 4, -8
 341              		.cfi_offset 14, -4
 342              	.LBB95:
ARM GAS  /tmp/cc6aUrs9.s 			page 7


 343              	.LBB96:
 344              	.LBB97:
 345              	.LBB98:
 346              	.LBB99:
 347              		.loc 3 493 0
 348 0002 2023     		movs	r3, #32
 349              	.LBE99:
 350              	.LBE98:
 351              	.LBE97:
 352              	.LBE96:
 353              	.LBE95:
 354              		.loc 2 130 0
 355 0004 0446     		mov	r4, r0
 356              	.LBB104:
 357              	.LBB103:
 358              	.LBB102:
 359              	.LBB101:
 360              	.LBB100:
 361              		.loc 3 493 0
 362              		.syntax unified
 363              	@ 493 "../../modules/ChibiOS/os/common/ext/ARM/CMSIS/Core/Include/cmsis_gcc.h" 1
 364 0006 83F31188 		MSR basepri, r3
 365              	@ 0 "" 2
 366              	.LVL27:
 367              		.thumb
 368              		.syntax unified
 369              	.LBE100:
 370              	.LBE101:
 371              	.LBE102:
 372              		.loc 4 356 0
 373 000a FFF7FEFF 		bl	_stats_start_measure_crit_thd
 374              	.LVL28:
 375              	.LBE103:
 376              	.LBE104:
 377              		.loc 2 133 0
 378 000e 2046     		mov	r0, r4
 379 0010 FFF7FEFF 		bl	chCondBroadcastI
 380              	.LVL29:
 381              		.loc 2 134 0
 382 0014 FFF7FEFF 		bl	chSchRescheduleS
 383              	.LVL30:
 384              	.LBB105:
 385              	.LBB106:
 386              		.loc 4 368 0
 387 0018 FFF7FEFF 		bl	_stats_stop_measure_crit_thd
 388              	.LVL31:
 389              	.LBB107:
 390              	.LBB108:
 391              	.LBB109:
 392              		.loc 3 493 0
 393 001c 0023     		movs	r3, #0
 394              		.syntax unified
 395              	@ 493 "../../modules/ChibiOS/os/common/ext/ARM/CMSIS/Core/Include/cmsis_gcc.h" 1
 396 001e 83F31188 		MSR basepri, r3
 397              	@ 0 "" 2
 398              	.LVL32:
 399              		.thumb
ARM GAS  /tmp/cc6aUrs9.s 			page 8


 400              		.syntax unified
 401 0022 10BD     		pop	{r4, pc}
 402              	.LBE109:
 403              	.LBE108:
 404              	.LBE107:
 405              	.LBE106:
 406              	.LBE105:
 407              		.cfi_endproc
 408              	.LFE293:
 409              		.size	chCondBroadcast, .-chCondBroadcast
 410              		.section	.text.chCondWaitS,"ax",%progbits
 411              		.align	1
 412              		.global	chCondWaitS
 413              		.syntax unified
 414              		.thumb
 415              		.thumb_func
 416              		.fpu fpv4-sp-d16
 417              		.type	chCondWaitS, %function
 418              	chCondWaitS:
 419              	.LFB296:
 420              		.loc 2 205 0
 421              		.cfi_startproc
 422              		@ args = 0, pretend = 0, frame = 0
 423              		@ frame_needed = 0, uses_anonymous_args = 0
 424              	.LVL33:
 425              		.loc 2 206 0
 426 0000 0A4B     		ldr	r3, .L17
 427              		.loc 2 205 0
 428 0002 70B5     		push	{r4, r5, r6, lr}
 429              		.cfi_def_cfa_offset 16
 430              		.cfi_offset 4, -16
 431              		.cfi_offset 5, -12
 432              		.cfi_offset 6, -8
 433              		.cfi_offset 14, -4
 434              		.loc 2 206 0
 435 0004 9C69     		ldr	r4, [r3, #24]
 436              	.LVL34:
 437              	.LBB110:
 438              	.LBB111:
 439              		.file 5 "../../modules/ChibiOS/os/rt/include/chmtx.h"
 440              		.loc 5 161 0
 441 0006 A56B     		ldr	r5, [r4, #56]
 442              	.LBE111:
 443              	.LBE110:
 444              		.loc 2 205 0
 445 0008 0646     		mov	r6, r0
 446              		.loc 2 215 0
 447 000a 2846     		mov	r0, r5
 448              	.LVL35:
 449 000c FFF7FEFF 		bl	chMtxUnlockS
 450              	.LVL36:
 451              		.loc 2 220 0
 452 0010 3146     		mov	r1, r6
 453              		.loc 2 219 0
 454 0012 6662     		str	r6, [r4, #36]
 455              		.loc 2 220 0
 456 0014 2046     		mov	r0, r4
ARM GAS  /tmp/cc6aUrs9.s 			page 9


 457 0016 FFF7FEFF 		bl	queue_prio_insert
 458              	.LVL37:
 459              		.loc 2 221 0
 460 001a 0720     		movs	r0, #7
 461 001c FFF7FEFF 		bl	chSchGoSleepS
 462              	.LVL38:
 463              		.loc 2 222 0
 464 0020 646A     		ldr	r4, [r4, #36]
 465              	.LVL39:
 466              		.loc 2 223 0
 467 0022 2846     		mov	r0, r5
 468 0024 FFF7FEFF 		bl	chMtxLockS
 469              	.LVL40:
 470              		.loc 2 226 0
 471 0028 2046     		mov	r0, r4
 472 002a 70BD     		pop	{r4, r5, r6, pc}
 473              	.LVL41:
 474              	.L18:
 475              		.align	2
 476              	.L17:
 477 002c 00000000 		.word	ch
 478              		.cfi_endproc
 479              	.LFE296:
 480              		.size	chCondWaitS, .-chCondWaitS
 481              		.section	.text.chCondWait,"ax",%progbits
 482              		.align	1
 483              		.global	chCondWait
 484              		.syntax unified
 485              		.thumb
 486              		.thumb_func
 487              		.fpu fpv4-sp-d16
 488              		.type	chCondWait, %function
 489              	chCondWait:
 490              	.LFB295:
 491              		.loc 2 179 0
 492              		.cfi_startproc
 493              		@ args = 0, pretend = 0, frame = 0
 494              		@ frame_needed = 0, uses_anonymous_args = 0
 495              	.LVL42:
 496 0000 10B5     		push	{r4, lr}
 497              		.cfi_def_cfa_offset 8
 498              		.cfi_offset 4, -8
 499              		.cfi_offset 14, -4
 500              	.LBB122:
 501              	.LBB123:
 502              	.LBB124:
 503              	.LBB125:
 504              	.LBB126:
 505              		.loc 3 493 0
 506 0002 2023     		movs	r3, #32
 507              	.LBE126:
 508              	.LBE125:
 509              	.LBE124:
 510              	.LBE123:
 511              	.LBE122:
 512              		.loc 2 179 0
 513 0004 0446     		mov	r4, r0
ARM GAS  /tmp/cc6aUrs9.s 			page 10


 514              	.LBB131:
 515              	.LBB130:
 516              	.LBB129:
 517              	.LBB128:
 518              	.LBB127:
 519              		.loc 3 493 0
 520              		.syntax unified
 521              	@ 493 "../../modules/ChibiOS/os/common/ext/ARM/CMSIS/Core/Include/cmsis_gcc.h" 1
 522 0006 83F31188 		MSR basepri, r3
 523              	@ 0 "" 2
 524              	.LVL43:
 525              		.thumb
 526              		.syntax unified
 527              	.LBE127:
 528              	.LBE128:
 529              	.LBE129:
 530              		.loc 4 356 0
 531 000a FFF7FEFF 		bl	_stats_start_measure_crit_thd
 532              	.LVL44:
 533              	.LBE130:
 534              	.LBE131:
 535              		.loc 2 183 0
 536 000e 2046     		mov	r0, r4
 537 0010 FFF7FEFF 		bl	chCondWaitS
 538              	.LVL45:
 539 0014 0446     		mov	r4, r0
 540              	.LVL46:
 541              	.LBB132:
 542              	.LBB133:
 543              		.loc 4 368 0
 544 0016 FFF7FEFF 		bl	_stats_stop_measure_crit_thd
 545              	.LVL47:
 546              	.LBB134:
 547              	.LBB135:
 548              	.LBB136:
 549              		.loc 3 493 0
 550 001a 0023     		movs	r3, #0
 551              		.syntax unified
 552              	@ 493 "../../modules/ChibiOS/os/common/ext/ARM/CMSIS/Core/Include/cmsis_gcc.h" 1
 553 001c 83F31188 		MSR basepri, r3
 554              	@ 0 "" 2
 555              	.LVL48:
 556              		.thumb
 557              		.syntax unified
 558              	.LBE136:
 559              	.LBE135:
 560              	.LBE134:
 561              	.LBE133:
 562              	.LBE132:
 563              		.loc 2 186 0
 564 0020 2046     		mov	r0, r4
 565 0022 10BD     		pop	{r4, pc}
 566              		.cfi_endproc
 567              	.LFE295:
 568              		.size	chCondWait, .-chCondWait
 569              		.section	.text.chCondWaitTimeoutS,"ax",%progbits
 570              		.align	1
ARM GAS  /tmp/cc6aUrs9.s 			page 11


 571              		.global	chCondWaitTimeoutS
 572              		.syntax unified
 573              		.thumb
 574              		.thumb_func
 575              		.fpu fpv4-sp-d16
 576              		.type	chCondWaitTimeoutS, %function
 577              	chCondWaitTimeoutS:
 578              	.LFB298:
 579              		.loc 2 295 0
 580              		.cfi_startproc
 581              		@ args = 0, pretend = 0, frame = 0
 582              		@ frame_needed = 0, uses_anonymous_args = 0
 583              	.LVL49:
 584 0000 F8B5     		push	{r3, r4, r5, r6, r7, lr}
 585              		.cfi_def_cfa_offset 24
 586              		.cfi_offset 3, -24
 587              		.cfi_offset 4, -20
 588              		.cfi_offset 5, -16
 589              		.cfi_offset 6, -12
 590              		.cfi_offset 7, -8
 591              		.cfi_offset 14, -4
 592              	.LBB137:
 593              	.LBB138:
 594              	.LBB139:
 595              	.LBB140:
 596              		.file 6 "../../modules/ChibiOS/os/rt/include/chthreads.h"
 597              		.loc 6 274 0
 598 0002 0C4E     		ldr	r6, .L25
 599              	.LBE140:
 600              	.LBE139:
 601              		.loc 5 161 0
 602 0004 B369     		ldr	r3, [r6, #24]
 603 0006 9D6B     		ldr	r5, [r3, #56]
 604              	.LBE138:
 605              	.LBE137:
 606              		.loc 2 295 0
 607 0008 0446     		mov	r4, r0
 608              		.loc 2 304 0
 609 000a 2846     		mov	r0, r5
 610              	.LVL50:
 611              		.loc 2 295 0
 612 000c 0F46     		mov	r7, r1
 613              		.loc 2 304 0
 614 000e FFF7FEFF 		bl	chMtxUnlockS
 615              	.LVL51:
 616              		.loc 2 308 0
 617 0012 B069     		ldr	r0, [r6, #24]
 618              		.loc 2 309 0
 619 0014 2146     		mov	r1, r4
 620              		.loc 2 308 0
 621 0016 4462     		str	r4, [r0, #36]
 622              		.loc 2 309 0
 623 0018 FFF7FEFF 		bl	queue_prio_insert
 624              	.LVL52:
 625              		.loc 2 310 0
 626 001c 3946     		mov	r1, r7
 627 001e 0720     		movs	r0, #7
ARM GAS  /tmp/cc6aUrs9.s 			page 12


 628 0020 FFF7FEFF 		bl	chSchGoSleepTimeoutS
 629              	.LVL53:
 630              		.loc 2 311 0
 631 0024 431C     		adds	r3, r0, #1
 632              		.loc 2 310 0
 633 0026 0446     		mov	r4, r0
 634              	.LVL54:
 635              		.loc 2 311 0
 636 0028 02D0     		beq	.L20
 637              		.loc 2 312 0
 638 002a 2846     		mov	r0, r5
 639              	.LVL55:
 640 002c FFF7FEFF 		bl	chMtxLockS
 641              	.LVL56:
 642              	.L20:
 643              		.loc 2 316 0
 644 0030 2046     		mov	r0, r4
 645 0032 F8BD     		pop	{r3, r4, r5, r6, r7, pc}
 646              	.LVL57:
 647              	.L26:
 648              		.align	2
 649              	.L25:
 650 0034 00000000 		.word	ch
 651              		.cfi_endproc
 652              	.LFE298:
 653              		.size	chCondWaitTimeoutS, .-chCondWaitTimeoutS
 654              		.section	.text.chCondWaitTimeout,"ax",%progbits
 655              		.align	1
 656              		.global	chCondWaitTimeout
 657              		.syntax unified
 658              		.thumb
 659              		.thumb_func
 660              		.fpu fpv4-sp-d16
 661              		.type	chCondWaitTimeout, %function
 662              	chCondWaitTimeout:
 663              	.LFB297:
 664              		.loc 2 257 0
 665              		.cfi_startproc
 666              		@ args = 0, pretend = 0, frame = 0
 667              		@ frame_needed = 0, uses_anonymous_args = 0
 668              	.LVL58:
 669 0000 38B5     		push	{r3, r4, r5, lr}
 670              		.cfi_def_cfa_offset 16
 671              		.cfi_offset 3, -16
 672              		.cfi_offset 4, -12
 673              		.cfi_offset 5, -8
 674              		.cfi_offset 14, -4
 675              		.loc 2 257 0
 676 0002 0446     		mov	r4, r0
 677 0004 0D46     		mov	r5, r1
 678              	.LBB151:
 679              	.LBB152:
 680              	.LBB153:
 681              	.LBB154:
 682              	.LBB155:
 683              		.loc 3 493 0
 684 0006 2023     		movs	r3, #32
ARM GAS  /tmp/cc6aUrs9.s 			page 13


 685              		.syntax unified
 686              	@ 493 "../../modules/ChibiOS/os/common/ext/ARM/CMSIS/Core/Include/cmsis_gcc.h" 1
 687 0008 83F31188 		MSR basepri, r3
 688              	@ 0 "" 2
 689              	.LVL59:
 690              		.thumb
 691              		.syntax unified
 692              	.LBE155:
 693              	.LBE154:
 694              	.LBE153:
 695              		.loc 4 356 0
 696 000c FFF7FEFF 		bl	_stats_start_measure_crit_thd
 697              	.LVL60:
 698              	.LBE152:
 699              	.LBE151:
 700              		.loc 2 261 0
 701 0010 2946     		mov	r1, r5
 702 0012 2046     		mov	r0, r4
 703 0014 FFF7FEFF 		bl	chCondWaitTimeoutS
 704              	.LVL61:
 705 0018 0446     		mov	r4, r0
 706              	.LVL62:
 707              	.LBB156:
 708              	.LBB157:
 709              		.loc 4 368 0
 710 001a FFF7FEFF 		bl	_stats_stop_measure_crit_thd
 711              	.LVL63:
 712              	.LBB158:
 713              	.LBB159:
 714              	.LBB160:
 715              		.loc 3 493 0
 716 001e 0023     		movs	r3, #0
 717              		.syntax unified
 718              	@ 493 "../../modules/ChibiOS/os/common/ext/ARM/CMSIS/Core/Include/cmsis_gcc.h" 1
 719 0020 83F31188 		MSR basepri, r3
 720              	@ 0 "" 2
 721              	.LVL64:
 722              		.thumb
 723              		.syntax unified
 724              	.LBE160:
 725              	.LBE159:
 726              	.LBE158:
 727              	.LBE157:
 728              	.LBE156:
 729              		.loc 2 265 0
 730 0024 2046     		mov	r0, r4
 731 0026 38BD     		pop	{r3, r4, r5, pc}
 732              		.cfi_endproc
 733              	.LFE297:
 734              		.size	chCondWaitTimeout, .-chCondWaitTimeout
 735              		.text
 736              	.Letext0:
 737              		.file 7 "/opt/gcc-arm-none-eabi-6-2017-q2-update/lib/gcc/arm-none-eabi/6.3.1/include/stddef.h"
 738              		.file 8 "/opt/gcc-arm-none-eabi-6-2017-q2-update/arm-none-eabi/include/machine/_default_types.h"
 739              		.file 9 "/opt/gcc-arm-none-eabi-6-2017-q2-update/arm-none-eabi/include/sys/_stdint.h"
 740              		.file 10 "../../modules/ChibiOS/os/common/ports/ARMCMx/compilers/GCC/chtypes.h"
 741              		.file 11 "../../modules/ChibiOS/os/rt/include/chsystypes.h"
ARM GAS  /tmp/cc6aUrs9.s 			page 14


 742              		.file 12 "../../modules/ChibiOS/os/rt/include/chtime.h"
 743              		.file 13 "../../modules/ChibiOS/os/common/ext/ARM/CMSIS/Core/Include/core_cm4.h"
 744              		.file 14 "../../modules/ChibiOS/os/common/ext/ST/STM32F4xx/system_stm32f4xx.h"
 745              		.file 15 "../../modules/ChibiOS/os/common/ports/ARMCMx/chcore.h"
 746              		.file 16 "../../modules/ChibiOS/os/common/ports/ARMCMx/chcore_v7m.h"
 747              		.file 17 "../../modules/ChibiOS/os/rt/include/chtm.h"
 748              		.file 18 "../../modules/ChibiOS/os/rt/include/chstats.h"
 749              		.file 19 "../../modules/ChibiOS/os/rt/include/chsem.h"
 750              		.file 20 "../../modules/ChibiOS/os/rt/include/chregistry.h"
 751              		.file 21 "../../modules/ChibiOS/os/rt/include/chcond.h"
 752              		.file 22 "../../modules/ChibiOS/os/oslib/include/chmemcore.h"
 753              		.file 23 "../../modules/ChibiOS/os/oslib/include/chmempools.h"
 754              		.file 24 "../../modules/ChibiOS/os/oslib/include/chfactory.h"
 755              		.section	.debug_info,"",%progbits
 756              	.Ldebug_info0:
 757 0000 2D140000 		.4byte	0x142d
 758 0004 0400     		.2byte	0x4
 759 0006 00000000 		.4byte	.Ldebug_abbrev0
 760 000a 04       		.byte	0x4
 761 000b 01       		.uleb128 0x1
 762 000c 76010000 		.4byte	.LASF191
 763 0010 0C       		.byte	0xc
 764 0011 8E080000 		.4byte	.LASF192
 765 0015 8E090000 		.4byte	.LASF193
 766 0019 A8000000 		.4byte	.Ldebug_ranges0+0xa8
 767 001d 00000000 		.4byte	0
 768 0021 00000000 		.4byte	.Ldebug_line0
 769 0025 02       		.uleb128 0x2
 770 0026 04       		.byte	0x4
 771 0027 05       		.byte	0x5
 772 0028 696E7400 		.ascii	"int\000"
 773 002c 03       		.uleb128 0x3
 774 002d 0D000000 		.4byte	.LASF4
 775 0031 07       		.byte	0x7
 776 0032 D8       		.byte	0xd8
 777 0033 37000000 		.4byte	0x37
 778 0037 04       		.uleb128 0x4
 779 0038 04       		.byte	0x4
 780 0039 07       		.byte	0x7
 781 003a 91030000 		.4byte	.LASF0
 782 003e 04       		.uleb128 0x4
 783 003f 08       		.byte	0x8
 784 0040 05       		.byte	0x5
 785 0041 42010000 		.4byte	.LASF1
 786 0045 04       		.uleb128 0x4
 787 0046 08       		.byte	0x8
 788 0047 04       		.byte	0x4
 789 0048 A8070000 		.4byte	.LASF2
 790 004c 04       		.uleb128 0x4
 791 004d 01       		.byte	0x1
 792 004e 06       		.byte	0x6
 793 004f 50010000 		.4byte	.LASF3
 794 0053 03       		.uleb128 0x3
 795 0054 37000000 		.4byte	.LASF5
 796 0058 08       		.byte	0x8
 797 0059 2B       		.byte	0x2b
 798 005a 5E000000 		.4byte	0x5e
ARM GAS  /tmp/cc6aUrs9.s 			page 15


 799 005e 04       		.uleb128 0x4
 800 005f 01       		.byte	0x1
 801 0060 08       		.byte	0x8
 802 0061 59060000 		.4byte	.LASF6
 803 0065 04       		.uleb128 0x4
 804 0066 02       		.byte	0x2
 805 0067 05       		.byte	0x5
 806 0068 7D060000 		.4byte	.LASF7
 807 006c 03       		.uleb128 0x3
 808 006d 87070000 		.4byte	.LASF8
 809 0071 08       		.byte	0x8
 810 0072 39       		.byte	0x39
 811 0073 77000000 		.4byte	0x77
 812 0077 04       		.uleb128 0x4
 813 0078 02       		.byte	0x2
 814 0079 07       		.byte	0x7
 815 007a 0B080000 		.4byte	.LASF9
 816 007e 03       		.uleb128 0x3
 817 007f 98040000 		.4byte	.LASF10
 818 0083 08       		.byte	0x8
 819 0084 4D       		.byte	0x4d
 820 0085 89000000 		.4byte	0x89
 821 0089 04       		.uleb128 0x4
 822 008a 04       		.byte	0x4
 823 008b 05       		.byte	0x5
 824 008c B6020000 		.4byte	.LASF11
 825 0090 03       		.uleb128 0x3
 826 0091 15030000 		.4byte	.LASF12
 827 0095 08       		.byte	0x8
 828 0096 4F       		.byte	0x4f
 829 0097 9B000000 		.4byte	0x9b
 830 009b 04       		.uleb128 0x4
 831 009c 04       		.byte	0x4
 832 009d 07       		.byte	0x7
 833 009e 4F070000 		.4byte	.LASF13
 834 00a2 03       		.uleb128 0x3
 835 00a3 C7050000 		.4byte	.LASF14
 836 00a7 08       		.byte	0x8
 837 00a8 69       		.byte	0x69
 838 00a9 AD000000 		.4byte	0xad
 839 00ad 04       		.uleb128 0x4
 840 00ae 08       		.byte	0x8
 841 00af 07       		.byte	0x7
 842 00b0 D0000000 		.4byte	.LASF15
 843 00b4 03       		.uleb128 0x3
 844 00b5 D7080000 		.4byte	.LASF16
 845 00b9 09       		.byte	0x9
 846 00ba 18       		.byte	0x18
 847 00bb 53000000 		.4byte	0x53
 848 00bf 05       		.uleb128 0x5
 849 00c0 B4000000 		.4byte	0xb4
 850 00c4 03       		.uleb128 0x3
 851 00c5 9E030000 		.4byte	.LASF17
 852 00c9 09       		.byte	0x9
 853 00ca 24       		.byte	0x24
 854 00cb 6C000000 		.4byte	0x6c
 855 00cf 03       		.uleb128 0x3
ARM GAS  /tmp/cc6aUrs9.s 			page 16


 856 00d0 51060000 		.4byte	.LASF18
 857 00d4 09       		.byte	0x9
 858 00d5 2C       		.byte	0x2c
 859 00d6 7E000000 		.4byte	0x7e
 860 00da 06       		.uleb128 0x6
 861 00db CF000000 		.4byte	0xcf
 862 00df 03       		.uleb128 0x3
 863 00e0 0A070000 		.4byte	.LASF19
 864 00e4 09       		.byte	0x9
 865 00e5 30       		.byte	0x30
 866 00e6 90000000 		.4byte	0x90
 867 00ea 03       		.uleb128 0x3
 868 00eb 21000000 		.4byte	.LASF20
 869 00ef 09       		.byte	0x9
 870 00f0 3C       		.byte	0x3c
 871 00f1 A2000000 		.4byte	0xa2
 872 00f5 03       		.uleb128 0x3
 873 00f6 29080000 		.4byte	.LASF21
 874 00fa 0A       		.byte	0xa
 875 00fb 27       		.byte	0x27
 876 00fc DF000000 		.4byte	0xdf
 877 0100 03       		.uleb128 0x3
 878 0101 39010000 		.4byte	.LASF22
 879 0105 0A       		.byte	0xa
 880 0106 28       		.byte	0x28
 881 0107 EA000000 		.4byte	0xea
 882 010b 03       		.uleb128 0x3
 883 010c 56040000 		.4byte	.LASF23
 884 0110 0A       		.byte	0xa
 885 0111 2A       		.byte	0x2a
 886 0112 B4000000 		.4byte	0xb4
 887 0116 03       		.uleb128 0x3
 888 0117 CB020000 		.4byte	.LASF24
 889 011b 0A       		.byte	0xa
 890 011c 2B       		.byte	0x2b
 891 011d B4000000 		.4byte	0xb4
 892 0121 03       		.uleb128 0x3
 893 0122 E7050000 		.4byte	.LASF25
 894 0126 0A       		.byte	0xa
 895 0127 2C       		.byte	0x2c
 896 0128 B4000000 		.4byte	0xb4
 897 012c 03       		.uleb128 0x3
 898 012d 1E060000 		.4byte	.LASF26
 899 0131 0A       		.byte	0xa
 900 0132 2E       		.byte	0x2e
 901 0133 DF000000 		.4byte	0xdf
 902 0137 03       		.uleb128 0x3
 903 0138 22040000 		.4byte	.LASF27
 904 013c 0A       		.byte	0xa
 905 013d 2F       		.byte	0x2f
 906 013e CF000000 		.4byte	0xcf
 907 0142 03       		.uleb128 0x3
 908 0143 77040000 		.4byte	.LASF28
 909 0147 0A       		.byte	0xa
 910 0148 31       		.byte	0x31
 911 0149 DF000000 		.4byte	0xdf
 912 014d 03       		.uleb128 0x3
ARM GAS  /tmp/cc6aUrs9.s 			page 17


 913 014e 7E030000 		.4byte	.LASF29
 914 0152 0A       		.byte	0xa
 915 0153 33       		.byte	0x33
 916 0154 CF000000 		.4byte	0xcf
 917 0158 03       		.uleb128 0x3
 918 0159 2D040000 		.4byte	.LASF30
 919 015d 0A       		.byte	0xa
 920 015e 34       		.byte	0x34
 921 015f DF000000 		.4byte	0xdf
 922 0163 03       		.uleb128 0x3
 923 0164 B7080000 		.4byte	.LASF31
 924 0168 0B       		.byte	0xb
 925 0169 34       		.byte	0x34
 926 016a 6E010000 		.4byte	0x16e
 927 016e 07       		.uleb128 0x7
 928 016f 18040000 		.4byte	.LASF50
 929 0173 60       		.byte	0x60
 930 0174 01       		.byte	0x1
 931 0175 8E       		.byte	0x8e
 932 0176 59020000 		.4byte	0x259
 933 017a 08       		.uleb128 0x8
 934 017b F4030000 		.4byte	.LASF32
 935 017f 01       		.byte	0x1
 936 0180 8F       		.byte	0x8f
 937 0181 8E020000 		.4byte	0x28e
 938 0185 00       		.byte	0
 939 0186 08       		.uleb128 0x8
 940 0187 A1050000 		.4byte	.LASF33
 941 018b 01       		.byte	0x1
 942 018c 90       		.byte	0x90
 943 018d 2C010000 		.4byte	0x12c
 944 0191 08       		.byte	0x8
 945 0192 09       		.uleb128 0x9
 946 0193 63747800 		.ascii	"ctx\000"
 947 0197 01       		.byte	0x1
 948 0198 91       		.byte	0x91
 949 0199 05050000 		.4byte	0x505
 950 019d 0C       		.byte	0xc
 951 019e 08       		.uleb128 0x8
 952 019f AD040000 		.4byte	.LASF34
 953 01a3 01       		.byte	0x1
 954 01a4 93       		.byte	0x93
 955 01a5 64020000 		.4byte	0x264
 956 01a9 10       		.byte	0x10
 957 01aa 08       		.uleb128 0x8
 958 01ab 78070000 		.4byte	.LASF35
 959 01af 01       		.byte	0x1
 960 01b0 94       		.byte	0x94
 961 01b1 64020000 		.4byte	0x264
 962 01b5 14       		.byte	0x14
 963 01b6 08       		.uleb128 0x8
 964 01b7 3D040000 		.4byte	.LASF36
 965 01bb 01       		.byte	0x1
 966 01bc 9B       		.byte	0x9b
 967 01bd EB070000 		.4byte	0x7eb
 968 01c1 18       		.byte	0x18
 969 01c2 08       		.uleb128 0x8
ARM GAS  /tmp/cc6aUrs9.s 			page 18


 970 01c3 61070000 		.4byte	.LASF37
 971 01c7 01       		.byte	0x1
 972 01c8 A4       		.byte	0xa4
 973 01c9 02080000 		.4byte	0x802
 974 01cd 1C       		.byte	0x1c
 975 01ce 08       		.uleb128 0x8
 976 01cf B0020000 		.4byte	.LASF38
 977 01d3 01       		.byte	0x1
 978 01d4 A9       		.byte	0xa9
 979 01d5 16010000 		.4byte	0x116
 980 01d9 20       		.byte	0x20
 981 01da 08       		.uleb128 0x8
 982 01db DF080000 		.4byte	.LASF39
 983 01df 01       		.byte	0x1
 984 01e0 AD       		.byte	0xad
 985 01e1 0B010000 		.4byte	0x10b
 986 01e5 21       		.byte	0x21
 987 01e6 08       		.uleb128 0x8
 988 01e7 FA050000 		.4byte	.LASF40
 989 01eb 01       		.byte	0x1
 990 01ec B2       		.byte	0xb2
 991 01ed 21010000 		.4byte	0x121
 992 01f1 22       		.byte	0x22
 993 01f2 0A       		.uleb128 0xa
 994 01f3 7500     		.ascii	"u\000"
 995 01f5 01       		.byte	0x1
 996 01f6 0301     		.2byte	0x103
 997 01f8 21070000 		.4byte	0x721
 998 01fc 24       		.byte	0x24
 999 01fd 0B       		.uleb128 0xb
 1000 01fe 42030000 		.4byte	.LASF41
 1001 0202 01       		.byte	0x1
 1002 0203 0801     		.2byte	0x108
 1003 0205 6A020000 		.4byte	0x26a
 1004 0209 28       		.byte	0x28
 1005 020a 0B       		.uleb128 0xb
 1006 020b A7020000 		.4byte	.LASF42
 1007 020f 01       		.byte	0x1
 1008 0210 0E01     		.2byte	0x10e
 1009 0212 8E020000 		.4byte	0x28e
 1010 0216 2C       		.byte	0x2c
 1011 0217 0B       		.uleb128 0xb
 1012 0218 34040000 		.4byte	.LASF43
 1013 021c 01       		.byte	0x1
 1014 021d 1401     		.2byte	0x114
 1015 021f 42010000 		.4byte	0x142
 1016 0223 34       		.byte	0x34
 1017 0224 0B       		.uleb128 0xb
 1018 0225 7B090000 		.4byte	.LASF44
 1019 0229 01       		.byte	0x1
 1020 022a 1B01     		.2byte	0x11b
 1021 022c E5070000 		.4byte	0x7e5
 1022 0230 38       		.byte	0x38
 1023 0231 0B       		.uleb128 0xb
 1024 0232 B3040000 		.4byte	.LASF45
 1025 0236 01       		.byte	0x1
 1026 0237 1F01     		.2byte	0x11f
ARM GAS  /tmp/cc6aUrs9.s 			page 19


 1027 0239 2C010000 		.4byte	0x12c
 1028 023d 3C       		.byte	0x3c
 1029 023e 0B       		.uleb128 0xb
 1030 023f FA030000 		.4byte	.LASF46
 1031 0243 01       		.byte	0x1
 1032 0244 2601     		.2byte	0x126
 1033 0246 46030000 		.4byte	0x346
 1034 024a 40       		.byte	0x40
 1035 024b 0B       		.uleb128 0xb
 1036 024c E8020000 		.4byte	.LASF47
 1037 0250 01       		.byte	0x1
 1038 0251 2C01     		.2byte	0x12c
 1039 0253 D2060000 		.4byte	0x6d2
 1040 0257 48       		.byte	0x48
 1041 0258 00       		.byte	0
 1042 0259 03       		.uleb128 0x3
 1043 025a EA040000 		.4byte	.LASF48
 1044 025e 0B       		.byte	0xb
 1045 025f 39       		.byte	0x39
 1046 0260 64020000 		.4byte	0x264
 1047 0264 0C       		.uleb128 0xc
 1048 0265 04       		.byte	0x4
 1049 0266 63010000 		.4byte	0x163
 1050 026a 03       		.uleb128 0x3
 1051 026b 08090000 		.4byte	.LASF49
 1052 026f 0B       		.byte	0xb
 1053 0270 3E       		.byte	0x3e
 1054 0271 75020000 		.4byte	0x275
 1055 0275 07       		.uleb128 0x7
 1056 0276 26070000 		.4byte	.LASF51
 1057 027a 04       		.byte	0x4
 1058 027b 01       		.byte	0x1
 1059 027c 7C       		.byte	0x7c
 1060 027d 8E020000 		.4byte	0x28e
 1061 0281 08       		.uleb128 0x8
 1062 0282 34010000 		.4byte	.LASF52
 1063 0286 01       		.byte	0x1
 1064 0287 7D       		.byte	0x7d
 1065 0288 64020000 		.4byte	0x264
 1066 028c 00       		.byte	0
 1067 028d 00       		.byte	0
 1068 028e 03       		.uleb128 0x3
 1069 028f 72080000 		.4byte	.LASF53
 1070 0293 0B       		.byte	0xb
 1071 0294 45       		.byte	0x45
 1072 0295 9E020000 		.4byte	0x29e
 1073 0299 05       		.uleb128 0x5
 1074 029a 8E020000 		.4byte	0x28e
 1075 029e 07       		.uleb128 0x7
 1076 029f 52000000 		.4byte	.LASF54
 1077 02a3 08       		.byte	0x8
 1078 02a4 01       		.byte	0x1
 1079 02a5 83       		.byte	0x83
 1080 02a6 C3020000 		.4byte	0x2c3
 1081 02aa 08       		.uleb128 0x8
 1082 02ab 34010000 		.4byte	.LASF52
 1083 02af 01       		.byte	0x1
ARM GAS  /tmp/cc6aUrs9.s 			page 20


 1084 02b0 84       		.byte	0x84
 1085 02b1 64020000 		.4byte	0x264
 1086 02b5 00       		.byte	0
 1087 02b6 08       		.uleb128 0x8
 1088 02b7 41000000 		.4byte	.LASF55
 1089 02bb 01       		.byte	0x1
 1090 02bc 85       		.byte	0x85
 1091 02bd 64020000 		.4byte	0x264
 1092 02c1 04       		.byte	0x4
 1093 02c2 00       		.byte	0
 1094 02c3 03       		.uleb128 0x3
 1095 02c4 00000000 		.4byte	.LASF56
 1096 02c8 0B       		.byte	0xb
 1097 02c9 4C       		.byte	0x4c
 1098 02ca CE020000 		.4byte	0x2ce
 1099 02ce 0D       		.uleb128 0xd
 1100 02cf 69040000 		.4byte	.LASF57
 1101 02d3 1C       		.byte	0x1c
 1102 02d4 01       		.byte	0x1
 1103 02d5 5E01     		.2byte	0x15e
 1104 02d7 2A030000 		.4byte	0x32a
 1105 02db 0B       		.uleb128 0xb
 1106 02dc F4030000 		.4byte	.LASF32
 1107 02e0 01       		.byte	0x1
 1108 02e1 5F01     		.2byte	0x15f
 1109 02e3 8E020000 		.4byte	0x28e
 1110 02e7 00       		.byte	0
 1111 02e8 0B       		.uleb128 0xb
 1112 02e9 A1050000 		.4byte	.LASF33
 1113 02ed 01       		.byte	0x1
 1114 02ee 6001     		.2byte	0x160
 1115 02f0 2C010000 		.4byte	0x12c
 1116 02f4 08       		.byte	0x8
 1117 02f5 0A       		.uleb128 0xa
 1118 02f6 63747800 		.ascii	"ctx\000"
 1119 02fa 01       		.byte	0x1
 1120 02fb 6201     		.2byte	0x162
 1121 02fd 05050000 		.4byte	0x505
 1122 0301 0C       		.byte	0xc
 1123 0302 0B       		.uleb128 0xb
 1124 0303 AD040000 		.4byte	.LASF34
 1125 0307 01       		.byte	0x1
 1126 0308 6501     		.2byte	0x165
 1127 030a 64020000 		.4byte	0x264
 1128 030e 10       		.byte	0x10
 1129 030f 0B       		.uleb128 0xb
 1130 0310 78070000 		.4byte	.LASF35
 1131 0314 01       		.byte	0x1
 1132 0315 6601     		.2byte	0x166
 1133 0317 64020000 		.4byte	0x264
 1134 031b 14       		.byte	0x14
 1135 031c 0B       		.uleb128 0xb
 1136 031d BF050000 		.4byte	.LASF58
 1137 0321 01       		.byte	0x1
 1138 0322 6901     		.2byte	0x169
 1139 0324 64020000 		.4byte	0x264
 1140 0328 18       		.byte	0x18
ARM GAS  /tmp/cc6aUrs9.s 			page 21


 1141 0329 00       		.byte	0
 1142 032a 03       		.uleb128 0x3
 1143 032b D0070000 		.4byte	.LASF59
 1144 032f 0B       		.byte	0xb
 1145 0330 51       		.byte	0x51
 1146 0331 35030000 		.4byte	0x335
 1147 0335 0C       		.uleb128 0xc
 1148 0336 04       		.byte	0x4
 1149 0337 3B030000 		.4byte	0x33b
 1150 033b 0E       		.uleb128 0xe
 1151 033c 46030000 		.4byte	0x346
 1152 0340 0F       		.uleb128 0xf
 1153 0341 46030000 		.4byte	0x346
 1154 0345 00       		.byte	0
 1155 0346 10       		.uleb128 0x10
 1156 0347 04       		.byte	0x4
 1157 0348 03       		.uleb128 0x3
 1158 0349 FF050000 		.4byte	.LASF60
 1159 034d 0B       		.byte	0xb
 1160 034e 56       		.byte	0x56
 1161 034f 53030000 		.4byte	0x353
 1162 0353 0D       		.uleb128 0xd
 1163 0354 C8060000 		.4byte	.LASF61
 1164 0358 14       		.byte	0x14
 1165 0359 01       		.byte	0x1
 1166 035a 3901     		.2byte	0x139
 1167 035c A2030000 		.4byte	0x3a2
 1168 0360 0B       		.uleb128 0xb
 1169 0361 34010000 		.4byte	.LASF52
 1170 0365 01       		.byte	0x1
 1171 0366 3A01     		.2byte	0x13a
 1172 0368 08080000 		.4byte	0x808
 1173 036c 00       		.byte	0
 1174 036d 0B       		.uleb128 0xb
 1175 036e 41000000 		.4byte	.LASF55
 1176 0372 01       		.byte	0x1
 1177 0373 3B01     		.2byte	0x13b
 1178 0375 08080000 		.4byte	0x808
 1179 0379 04       		.byte	0x4
 1180 037a 0B       		.uleb128 0xb
 1181 037b 14000000 		.4byte	.LASF62
 1182 037f 01       		.byte	0x1
 1183 0380 3C01     		.2byte	0x13c
 1184 0382 86040000 		.4byte	0x486
 1185 0386 08       		.byte	0x8
 1186 0387 0B       		.uleb128 0xb
 1187 0388 E3020000 		.4byte	.LASF63
 1188 038c 01       		.byte	0x1
 1189 038d 3D01     		.2byte	0x13d
 1190 038f 2A030000 		.4byte	0x32a
 1191 0393 0C       		.byte	0xc
 1192 0394 0A       		.uleb128 0xa
 1193 0395 70617200 		.ascii	"par\000"
 1194 0399 01       		.byte	0x1
 1195 039a 3F01     		.2byte	0x13f
 1196 039c 46030000 		.4byte	0x346
 1197 03a0 10       		.byte	0x10
ARM GAS  /tmp/cc6aUrs9.s 			page 22


 1198 03a1 00       		.byte	0
 1199 03a2 03       		.uleb128 0x3
 1200 03a3 03010000 		.4byte	.LASF64
 1201 03a7 0B       		.byte	0xb
 1202 03a8 5B       		.byte	0x5b
 1203 03a9 AD030000 		.4byte	0x3ad
 1204 03ad 0D       		.uleb128 0xd
 1205 03ae FD040000 		.4byte	.LASF65
 1206 03b2 10       		.byte	0x10
 1207 03b3 01       		.byte	0x1
 1208 03b4 4901     		.2byte	0x149
 1209 03b6 EF030000 		.4byte	0x3ef
 1210 03ba 0B       		.uleb128 0xb
 1211 03bb 34010000 		.4byte	.LASF52
 1212 03bf 01       		.byte	0x1
 1213 03c0 4A01     		.2byte	0x14a
 1214 03c2 08080000 		.4byte	0x808
 1215 03c6 00       		.byte	0
 1216 03c7 0B       		.uleb128 0xb
 1217 03c8 41000000 		.4byte	.LASF55
 1218 03cc 01       		.byte	0x1
 1219 03cd 4C01     		.2byte	0x14c
 1220 03cf 08080000 		.4byte	0x808
 1221 03d3 04       		.byte	0x4
 1222 03d4 0B       		.uleb128 0xb
 1223 03d5 14000000 		.4byte	.LASF62
 1224 03d9 01       		.byte	0x1
 1225 03da 4E01     		.2byte	0x14e
 1226 03dc 86040000 		.4byte	0x486
 1227 03e0 08       		.byte	0x8
 1228 03e1 0B       		.uleb128 0xb
 1229 03e2 87060000 		.4byte	.LASF66
 1230 03e6 01       		.byte	0x1
 1231 03e7 5601     		.2byte	0x156
 1232 03e9 7B040000 		.4byte	0x47b
 1233 03ed 0C       		.byte	0xc
 1234 03ee 00       		.byte	0
 1235 03ef 03       		.uleb128 0x3
 1236 03f0 63000000 		.4byte	.LASF67
 1237 03f4 0B       		.byte	0xb
 1238 03f5 60       		.byte	0x60
 1239 03f6 FA030000 		.4byte	0x3fa
 1240 03fa 0D       		.uleb128 0xd
 1241 03fb 32030000 		.4byte	.LASF68
 1242 03ff 04       		.byte	0x4
 1243 0400 01       		.byte	0x1
 1244 0401 7001     		.2byte	0x170
 1245 0403 15040000 		.4byte	0x415
 1246 0407 0B       		.uleb128 0xb
 1247 0408 E7070000 		.4byte	.LASF69
 1248 040c 01       		.byte	0x1
 1249 040d 7801     		.2byte	0x178
 1250 040f F1070000 		.4byte	0x7f1
 1251 0413 00       		.byte	0
 1252 0414 00       		.byte	0
 1253 0415 03       		.uleb128 0x3
 1254 0416 42040000 		.4byte	.LASF70
ARM GAS  /tmp/cc6aUrs9.s 			page 23


 1255 041a 0B       		.byte	0xb
 1256 041b 65       		.byte	0x65
 1257 041c 20040000 		.4byte	0x420
 1258 0420 0D       		.uleb128 0xd
 1259 0421 97060000 		.4byte	.LASF71
 1260 0425 D0       		.byte	0xd0
 1261 0426 01       		.byte	0x1
 1262 0427 9001     		.2byte	0x190
 1263 0429 7B040000 		.4byte	0x47b
 1264 042d 0B       		.uleb128 0xb
 1265 042e 4A030000 		.4byte	.LASF72
 1266 0432 01       		.byte	0x1
 1267 0433 9401     		.2byte	0x194
 1268 0435 C3020000 		.4byte	0x2c3
 1269 0439 00       		.byte	0
 1270 043a 0B       		.uleb128 0xb
 1271 043b 94020000 		.4byte	.LASF73
 1272 043f 01       		.byte	0x1
 1273 0440 9801     		.2byte	0x198
 1274 0442 A2030000 		.4byte	0x3a2
 1275 0446 1C       		.byte	0x1c
 1276 0447 0A       		.uleb128 0xa
 1277 0448 64626700 		.ascii	"dbg\000"
 1278 044c 01       		.byte	0x1
 1279 044d 9C01     		.2byte	0x19c
 1280 044f EF030000 		.4byte	0x3ef
 1281 0453 2C       		.byte	0x2c
 1282 0454 0B       		.uleb128 0xb
 1283 0455 F0000000 		.4byte	.LASF74
 1284 0459 01       		.byte	0x1
 1285 045a A001     		.2byte	0x1a0
 1286 045c 63010000 		.4byte	0x163
 1287 0460 30       		.byte	0x30
 1288 0461 0A       		.uleb128 0xa
 1289 0462 746D00   		.ascii	"tm\000"
 1290 0465 01       		.byte	0x1
 1291 0466 A501     		.2byte	0x1a5
 1292 0468 84060000 		.4byte	0x684
 1293 046c 90       		.byte	0x90
 1294 046d 0B       		.uleb128 0xb
 1295 046e 2A000000 		.4byte	.LASF75
 1296 0472 01       		.byte	0x1
 1297 0473 AB01     		.2byte	0x1ab
 1298 0475 16070000 		.4byte	0x716
 1299 0479 98       		.byte	0x98
 1300 047a 00       		.byte	0
 1301 047b 03       		.uleb128 0x3
 1302 047c C6070000 		.4byte	.LASF76
 1303 0480 0C       		.byte	0xc
 1304 0481 6D       		.byte	0x6d
 1305 0482 DF000000 		.4byte	0xdf
 1306 0486 03       		.uleb128 0x3
 1307 0487 70030000 		.4byte	.LASF77
 1308 048b 0C       		.byte	0xc
 1309 048c 79       		.byte	0x79
 1310 048d DF000000 		.4byte	0xdf
 1311 0491 04       		.uleb128 0x4
ARM GAS  /tmp/cc6aUrs9.s 			page 24


 1312 0492 04       		.byte	0x4
 1313 0493 07       		.byte	0x7
 1314 0494 E1040000 		.4byte	.LASF78
 1315 0498 11       		.uleb128 0x11
 1316 0499 19010000 		.4byte	.LASF79
 1317 049d 0D       		.byte	0xd
 1318 049e 0408     		.2byte	0x804
 1319 04a0 DA000000 		.4byte	0xda
 1320 04a4 12       		.uleb128 0x12
 1321 04a5 A7030000 		.4byte	.LASF80
 1322 04a9 0E       		.byte	0xe
 1323 04aa 4C       		.byte	0x4c
 1324 04ab DF000000 		.4byte	0xdf
 1325 04af 13       		.uleb128 0x13
 1326 04b0 BF000000 		.4byte	0xbf
 1327 04b4 BF040000 		.4byte	0x4bf
 1328 04b8 14       		.uleb128 0x14
 1329 04b9 91040000 		.4byte	0x491
 1330 04bd 0F       		.byte	0xf
 1331 04be 00       		.byte	0
 1332 04bf 05       		.uleb128 0x5
 1333 04c0 AF040000 		.4byte	0x4af
 1334 04c4 12       		.uleb128 0x12
 1335 04c5 83040000 		.4byte	.LASF81
 1336 04c9 0E       		.byte	0xe
 1337 04ca 4E       		.byte	0x4e
 1338 04cb BF040000 		.4byte	0x4bf
 1339 04cf 13       		.uleb128 0x13
 1340 04d0 BF000000 		.4byte	0xbf
 1341 04d4 DF040000 		.4byte	0x4df
 1342 04d8 14       		.uleb128 0x14
 1343 04d9 91040000 		.4byte	0x491
 1344 04dd 07       		.byte	0x7
 1345 04de 00       		.byte	0
 1346 04df 05       		.uleb128 0x5
 1347 04e0 CF040000 		.4byte	0x4cf
 1348 04e4 12       		.uleb128 0x12
 1349 04e5 6E050000 		.4byte	.LASF82
 1350 04e9 0E       		.byte	0xe
 1351 04ea 4F       		.byte	0x4f
 1352 04eb DF040000 		.4byte	0x4df
 1353 04ef 03       		.uleb128 0x3
 1354 04f0 20030000 		.4byte	.LASF83
 1355 04f4 0F       		.byte	0xf
 1356 04f5 65       		.byte	0x65
 1357 04f6 46030000 		.4byte	0x346
 1358 04fa 03       		.uleb128 0x3
 1359 04fb A2040000 		.4byte	.LASF84
 1360 04ff 0F       		.byte	0xf
 1361 0500 6D       		.byte	0x6d
 1362 0501 EA000000 		.4byte	0xea
 1363 0505 07       		.uleb128 0x7
 1364 0506 99000000 		.4byte	.LASF85
 1365 050a 04       		.byte	0x4
 1366 050b 0F       		.byte	0xf
 1367 050c 89       		.byte	0x89
 1368 050d 1D050000 		.4byte	0x51d
ARM GAS  /tmp/cc6aUrs9.s 			page 25


 1369 0511 09       		.uleb128 0x9
 1370 0512 737000   		.ascii	"sp\000"
 1371 0515 0F       		.byte	0xf
 1372 0516 8A       		.byte	0x8a
 1373 0517 69060000 		.4byte	0x669
 1374 051b 00       		.byte	0
 1375 051c 00       		.byte	0
 1376 051d 0D       		.uleb128 0xd
 1377 051e 46000000 		.4byte	.LASF86
 1378 0522 64       		.byte	0x64
 1379 0523 10       		.byte	0x10
 1380 0524 5901     		.2byte	0x159
 1381 0526 69060000 		.4byte	0x669
 1382 052a 0A       		.uleb128 0xa
 1383 052b 73313600 		.ascii	"s16\000"
 1384 052f 10       		.byte	0x10
 1385 0530 5B01     		.2byte	0x15b
 1386 0532 EF040000 		.4byte	0x4ef
 1387 0536 00       		.byte	0
 1388 0537 0A       		.uleb128 0xa
 1389 0538 73313700 		.ascii	"s17\000"
 1390 053c 10       		.byte	0x10
 1391 053d 5C01     		.2byte	0x15c
 1392 053f EF040000 		.4byte	0x4ef
 1393 0543 04       		.byte	0x4
 1394 0544 0A       		.uleb128 0xa
 1395 0545 73313800 		.ascii	"s18\000"
 1396 0549 10       		.byte	0x10
 1397 054a 5D01     		.2byte	0x15d
 1398 054c EF040000 		.4byte	0x4ef
 1399 0550 08       		.byte	0x8
 1400 0551 0A       		.uleb128 0xa
 1401 0552 73313900 		.ascii	"s19\000"
 1402 0556 10       		.byte	0x10
 1403 0557 5E01     		.2byte	0x15e
 1404 0559 EF040000 		.4byte	0x4ef
 1405 055d 0C       		.byte	0xc
 1406 055e 0A       		.uleb128 0xa
 1407 055f 73323000 		.ascii	"s20\000"
 1408 0563 10       		.byte	0x10
 1409 0564 5F01     		.2byte	0x15f
 1410 0566 EF040000 		.4byte	0x4ef
 1411 056a 10       		.byte	0x10
 1412 056b 0A       		.uleb128 0xa
 1413 056c 73323100 		.ascii	"s21\000"
 1414 0570 10       		.byte	0x10
 1415 0571 6001     		.2byte	0x160
 1416 0573 EF040000 		.4byte	0x4ef
 1417 0577 14       		.byte	0x14
 1418 0578 0A       		.uleb128 0xa
 1419 0579 73323200 		.ascii	"s22\000"
 1420 057d 10       		.byte	0x10
 1421 057e 6101     		.2byte	0x161
 1422 0580 EF040000 		.4byte	0x4ef
 1423 0584 18       		.byte	0x18
 1424 0585 0A       		.uleb128 0xa
 1425 0586 73323300 		.ascii	"s23\000"
ARM GAS  /tmp/cc6aUrs9.s 			page 26


 1426 058a 10       		.byte	0x10
 1427 058b 6201     		.2byte	0x162
 1428 058d EF040000 		.4byte	0x4ef
 1429 0591 1C       		.byte	0x1c
 1430 0592 0A       		.uleb128 0xa
 1431 0593 73323400 		.ascii	"s24\000"
 1432 0597 10       		.byte	0x10
 1433 0598 6301     		.2byte	0x163
 1434 059a EF040000 		.4byte	0x4ef
 1435 059e 20       		.byte	0x20
 1436 059f 0A       		.uleb128 0xa
 1437 05a0 73323500 		.ascii	"s25\000"
 1438 05a4 10       		.byte	0x10
 1439 05a5 6401     		.2byte	0x164
 1440 05a7 EF040000 		.4byte	0x4ef
 1441 05ab 24       		.byte	0x24
 1442 05ac 0A       		.uleb128 0xa
 1443 05ad 73323600 		.ascii	"s26\000"
 1444 05b1 10       		.byte	0x10
 1445 05b2 6501     		.2byte	0x165
 1446 05b4 EF040000 		.4byte	0x4ef
 1447 05b8 28       		.byte	0x28
 1448 05b9 0A       		.uleb128 0xa
 1449 05ba 73323700 		.ascii	"s27\000"
 1450 05be 10       		.byte	0x10
 1451 05bf 6601     		.2byte	0x166
 1452 05c1 EF040000 		.4byte	0x4ef
 1453 05c5 2C       		.byte	0x2c
 1454 05c6 0A       		.uleb128 0xa
 1455 05c7 73323800 		.ascii	"s28\000"
 1456 05cb 10       		.byte	0x10
 1457 05cc 6701     		.2byte	0x167
 1458 05ce EF040000 		.4byte	0x4ef
 1459 05d2 30       		.byte	0x30
 1460 05d3 0A       		.uleb128 0xa
 1461 05d4 73323900 		.ascii	"s29\000"
 1462 05d8 10       		.byte	0x10
 1463 05d9 6801     		.2byte	0x168
 1464 05db EF040000 		.4byte	0x4ef
 1465 05df 34       		.byte	0x34
 1466 05e0 0A       		.uleb128 0xa
 1467 05e1 73333000 		.ascii	"s30\000"
 1468 05e5 10       		.byte	0x10
 1469 05e6 6901     		.2byte	0x169
 1470 05e8 EF040000 		.4byte	0x4ef
 1471 05ec 38       		.byte	0x38
 1472 05ed 0A       		.uleb128 0xa
 1473 05ee 73333100 		.ascii	"s31\000"
 1474 05f2 10       		.byte	0x10
 1475 05f3 6A01     		.2byte	0x16a
 1476 05f5 EF040000 		.4byte	0x4ef
 1477 05f9 3C       		.byte	0x3c
 1478 05fa 0A       		.uleb128 0xa
 1479 05fb 723400   		.ascii	"r4\000"
 1480 05fe 10       		.byte	0x10
 1481 05ff 6C01     		.2byte	0x16c
 1482 0601 EF040000 		.4byte	0x4ef
ARM GAS  /tmp/cc6aUrs9.s 			page 27


 1483 0605 40       		.byte	0x40
 1484 0606 0A       		.uleb128 0xa
 1485 0607 723500   		.ascii	"r5\000"
 1486 060a 10       		.byte	0x10
 1487 060b 6D01     		.2byte	0x16d
 1488 060d EF040000 		.4byte	0x4ef
 1489 0611 44       		.byte	0x44
 1490 0612 0A       		.uleb128 0xa
 1491 0613 723600   		.ascii	"r6\000"
 1492 0616 10       		.byte	0x10
 1493 0617 6E01     		.2byte	0x16e
 1494 0619 EF040000 		.4byte	0x4ef
 1495 061d 48       		.byte	0x48
 1496 061e 0A       		.uleb128 0xa
 1497 061f 723700   		.ascii	"r7\000"
 1498 0622 10       		.byte	0x10
 1499 0623 6F01     		.2byte	0x16f
 1500 0625 EF040000 		.4byte	0x4ef
 1501 0629 4C       		.byte	0x4c
 1502 062a 0A       		.uleb128 0xa
 1503 062b 723800   		.ascii	"r8\000"
 1504 062e 10       		.byte	0x10
 1505 062f 7001     		.2byte	0x170
 1506 0631 EF040000 		.4byte	0x4ef
 1507 0635 50       		.byte	0x50
 1508 0636 0A       		.uleb128 0xa
 1509 0637 723900   		.ascii	"r9\000"
 1510 063a 10       		.byte	0x10
 1511 063b 7101     		.2byte	0x171
 1512 063d EF040000 		.4byte	0x4ef
 1513 0641 54       		.byte	0x54
 1514 0642 0A       		.uleb128 0xa
 1515 0643 72313000 		.ascii	"r10\000"
 1516 0647 10       		.byte	0x10
 1517 0648 7201     		.2byte	0x172
 1518 064a EF040000 		.4byte	0x4ef
 1519 064e 58       		.byte	0x58
 1520 064f 0A       		.uleb128 0xa
 1521 0650 72313100 		.ascii	"r11\000"
 1522 0654 10       		.byte	0x10
 1523 0655 7301     		.2byte	0x173
 1524 0657 EF040000 		.4byte	0x4ef
 1525 065b 5C       		.byte	0x5c
 1526 065c 0A       		.uleb128 0xa
 1527 065d 6C7200   		.ascii	"lr\000"
 1528 0660 10       		.byte	0x10
 1529 0661 7401     		.2byte	0x174
 1530 0663 EF040000 		.4byte	0x4ef
 1531 0667 60       		.byte	0x60
 1532 0668 00       		.byte	0
 1533 0669 0C       		.uleb128 0xc
 1534 066a 04       		.byte	0x4
 1535 066b 1D050000 		.4byte	0x51d
 1536 066f 15       		.uleb128 0x15
 1537 0670 04       		.byte	0x4
 1538 0671 11       		.byte	0x11
 1539 0672 38       		.byte	0x38
ARM GAS  /tmp/cc6aUrs9.s 			page 28


 1540 0673 84060000 		.4byte	0x684
 1541 0677 08       		.uleb128 0x8
 1542 0678 F1070000 		.4byte	.LASF87
 1543 067c 11       		.byte	0x11
 1544 067d 3C       		.byte	0x3c
 1545 067e F5000000 		.4byte	0xf5
 1546 0682 00       		.byte	0
 1547 0683 00       		.byte	0
 1548 0684 03       		.uleb128 0x3
 1549 0685 90050000 		.4byte	.LASF88
 1550 0689 11       		.byte	0x11
 1551 068a 3D       		.byte	0x3d
 1552 068b 6F060000 		.4byte	0x66f
 1553 068f 15       		.uleb128 0x15
 1554 0690 18       		.byte	0x18
 1555 0691 11       		.byte	0x11
 1556 0692 48       		.byte	0x48
 1557 0693 D2060000 		.4byte	0x6d2
 1558 0697 08       		.uleb128 0x8
 1559 0698 A3070000 		.4byte	.LASF89
 1560 069c 11       		.byte	0x11
 1561 069d 49       		.byte	0x49
 1562 069e F5000000 		.4byte	0xf5
 1563 06a2 00       		.byte	0
 1564 06a3 08       		.uleb128 0x8
 1565 06a4 A6000000 		.4byte	.LASF90
 1566 06a8 11       		.byte	0x11
 1567 06a9 4A       		.byte	0x4a
 1568 06aa F5000000 		.4byte	0xf5
 1569 06ae 04       		.byte	0x4
 1570 06af 08       		.uleb128 0x8
 1571 06b0 28040000 		.4byte	.LASF91
 1572 06b4 11       		.byte	0x11
 1573 06b5 4B       		.byte	0x4b
 1574 06b6 F5000000 		.4byte	0xf5
 1575 06ba 08       		.byte	0x8
 1576 06bb 09       		.uleb128 0x9
 1577 06bc 6E00     		.ascii	"n\000"
 1578 06be 11       		.byte	0x11
 1579 06bf 4C       		.byte	0x4c
 1580 06c0 58010000 		.4byte	0x158
 1581 06c4 0C       		.byte	0xc
 1582 06c5 08       		.uleb128 0x8
 1583 06c6 DC050000 		.4byte	.LASF92
 1584 06ca 11       		.byte	0x11
 1585 06cb 4D       		.byte	0x4d
 1586 06cc 00010000 		.4byte	0x100
 1587 06d0 10       		.byte	0x10
 1588 06d1 00       		.byte	0
 1589 06d2 03       		.uleb128 0x3
 1590 06d3 AC000000 		.4byte	.LASF93
 1591 06d7 11       		.byte	0x11
 1592 06d8 4E       		.byte	0x4e
 1593 06d9 8F060000 		.4byte	0x68f
 1594 06dd 15       		.uleb128 0x15
 1595 06de 38       		.byte	0x38
 1596 06df 12       		.byte	0x12
ARM GAS  /tmp/cc6aUrs9.s 			page 29


 1597 06e0 38       		.byte	0x38
 1598 06e1 16070000 		.4byte	0x716
 1599 06e5 08       		.uleb128 0x8
 1600 06e6 EE030000 		.4byte	.LASF94
 1601 06ea 12       		.byte	0x12
 1602 06eb 39       		.byte	0x39
 1603 06ec 58010000 		.4byte	0x158
 1604 06f0 00       		.byte	0
 1605 06f1 08       		.uleb128 0x8
 1606 06f2 7C050000 		.4byte	.LASF95
 1607 06f6 12       		.byte	0x12
 1608 06f7 3A       		.byte	0x3a
 1609 06f8 58010000 		.4byte	0x158
 1610 06fc 04       		.byte	0x4
 1611 06fd 08       		.uleb128 0x8
 1612 06fe 83090000 		.4byte	.LASF96
 1613 0702 12       		.byte	0x12
 1614 0703 3B       		.byte	0x3b
 1615 0704 D2060000 		.4byte	0x6d2
 1616 0708 08       		.byte	0x8
 1617 0709 08       		.uleb128 0x8
 1618 070a 5E040000 		.4byte	.LASF97
 1619 070e 12       		.byte	0x12
 1620 070f 3D       		.byte	0x3d
 1621 0710 D2060000 		.4byte	0x6d2
 1622 0714 20       		.byte	0x20
 1623 0715 00       		.byte	0
 1624 0716 03       		.uleb128 0x3
 1625 0717 09040000 		.4byte	.LASF98
 1626 071b 12       		.byte	0x12
 1627 071c 3F       		.byte	0x3f
 1628 071d DD060000 		.4byte	0x6dd
 1629 0721 16       		.uleb128 0x16
 1630 0722 04       		.byte	0x4
 1631 0723 01       		.byte	0x1
 1632 0724 C6       		.byte	0xc6
 1633 0725 83070000 		.4byte	0x783
 1634 0729 17       		.uleb128 0x17
 1635 072a 1A000000 		.4byte	.LASF99
 1636 072e 01       		.byte	0x1
 1637 072f CD       		.byte	0xcd
 1638 0730 37010000 		.4byte	0x137
 1639 0734 17       		.uleb128 0x17
 1640 0735 E7000000 		.4byte	.LASF100
 1641 0739 01       		.byte	0x1
 1642 073a D4       		.byte	0xd4
 1643 073b 37010000 		.4byte	0x137
 1644 073f 17       		.uleb128 0x17
 1645 0740 EF080000 		.4byte	.LASF101
 1646 0744 01       		.byte	0x1
 1647 0745 DB       		.byte	0xdb
 1648 0746 46030000 		.4byte	0x346
 1649 074a 17       		.uleb128 0x17
 1650 074b C9030000 		.4byte	.LASF102
 1651 074f 01       		.byte	0x1
 1652 0750 E2       		.byte	0xe2
 1653 0751 83070000 		.4byte	0x783
ARM GAS  /tmp/cc6aUrs9.s 			page 30


 1654 0755 17       		.uleb128 0x17
 1655 0756 FB000000 		.4byte	.LASF103
 1656 075a 01       		.byte	0x1
 1657 075b E7       		.byte	0xe7
 1658 075c 37010000 		.4byte	0x137
 1659 0760 17       		.uleb128 0x17
 1660 0761 B7030000 		.4byte	.LASF104
 1661 0765 01       		.byte	0x1
 1662 0766 F0       		.byte	0xf0
 1663 0767 AE070000 		.4byte	0x7ae
 1664 076b 17       		.uleb128 0x17
 1665 076c 13070000 		.4byte	.LASF105
 1666 0770 01       		.byte	0x1
 1667 0771 F9       		.byte	0xf9
 1668 0772 E5070000 		.4byte	0x7e5
 1669 0776 18       		.uleb128 0x18
 1670 0777 90060000 		.4byte	.LASF106
 1671 077b 01       		.byte	0x1
 1672 077c 0101     		.2byte	0x101
 1673 077e 42010000 		.4byte	0x142
 1674 0782 00       		.byte	0
 1675 0783 0C       		.uleb128 0xc
 1676 0784 04       		.byte	0x4
 1677 0785 59020000 		.4byte	0x259
 1678 0789 07       		.uleb128 0x7
 1679 078a D9060000 		.4byte	.LASF107
 1680 078e 0C       		.byte	0xc
 1681 078f 13       		.byte	0x13
 1682 0790 34       		.byte	0x34
 1683 0791 AE070000 		.4byte	0x7ae
 1684 0795 08       		.uleb128 0x8
 1685 0796 F4030000 		.4byte	.LASF32
 1686 079a 13       		.byte	0x13
 1687 079b 35       		.byte	0x35
 1688 079c 8E020000 		.4byte	0x28e
 1689 07a0 00       		.byte	0
 1690 07a1 09       		.uleb128 0x9
 1691 07a2 636E7400 		.ascii	"cnt\000"
 1692 07a6 13       		.byte	0x13
 1693 07a7 37       		.byte	0x37
 1694 07a8 4D010000 		.4byte	0x14d
 1695 07ac 08       		.byte	0x8
 1696 07ad 00       		.byte	0
 1697 07ae 0C       		.uleb128 0xc
 1698 07af 04       		.byte	0x4
 1699 07b0 89070000 		.4byte	0x789
 1700 07b4 07       		.uleb128 0x7
 1701 07b5 F8070000 		.4byte	.LASF108
 1702 07b9 10       		.byte	0x10
 1703 07ba 05       		.byte	0x5
 1704 07bb 39       		.byte	0x39
 1705 07bc E5070000 		.4byte	0x7e5
 1706 07c0 08       		.uleb128 0x8
 1707 07c1 F4030000 		.4byte	.LASF32
 1708 07c5 05       		.byte	0x5
 1709 07c6 3A       		.byte	0x3a
 1710 07c7 8E020000 		.4byte	0x28e
ARM GAS  /tmp/cc6aUrs9.s 			page 31


 1711 07cb 00       		.byte	0
 1712 07cc 08       		.uleb128 0x8
 1713 07cd 36070000 		.4byte	.LASF109
 1714 07d1 05       		.byte	0x5
 1715 07d2 3C       		.byte	0x3c
 1716 07d3 64020000 		.4byte	0x264
 1717 07d7 08       		.byte	0x8
 1718 07d8 08       		.uleb128 0x8
 1719 07d9 34010000 		.4byte	.LASF52
 1720 07dd 05       		.byte	0x5
 1721 07de 3E       		.byte	0x3e
 1722 07df 47090000 		.4byte	0x947
 1723 07e3 0C       		.byte	0xc
 1724 07e4 00       		.byte	0
 1725 07e5 0C       		.uleb128 0xc
 1726 07e6 04       		.byte	0x4
 1727 07e7 B4070000 		.4byte	0x7b4
 1728 07eb 0C       		.uleb128 0xc
 1729 07ec 04       		.byte	0x4
 1730 07ed FD070000 		.4byte	0x7fd
 1731 07f1 06       		.uleb128 0x6
 1732 07f2 EB070000 		.4byte	0x7eb
 1733 07f6 04       		.uleb128 0x4
 1734 07f7 01       		.byte	0x1
 1735 07f8 08       		.byte	0x8
 1736 07f9 73070000 		.4byte	.LASF110
 1737 07fd 05       		.uleb128 0x5
 1738 07fe F6070000 		.4byte	0x7f6
 1739 0802 0C       		.uleb128 0xc
 1740 0803 04       		.byte	0x4
 1741 0804 FA040000 		.4byte	0x4fa
 1742 0808 0C       		.uleb128 0xc
 1743 0809 04       		.byte	0x4
 1744 080a 48030000 		.4byte	0x348
 1745 080e 19       		.uleb128 0x19
 1746 080f 636800   		.ascii	"ch\000"
 1747 0812 01       		.byte	0x1
 1748 0813 C701     		.2byte	0x1c7
 1749 0815 15040000 		.4byte	0x415
 1750 0819 13       		.uleb128 0x13
 1751 081a FA040000 		.4byte	0x4fa
 1752 081e 24080000 		.4byte	0x824
 1753 0822 1A       		.uleb128 0x1a
 1754 0823 00       		.byte	0
 1755 0824 11       		.uleb128 0x11
 1756 0825 EF060000 		.4byte	.LASF111
 1757 0829 04       		.byte	0x4
 1758 082a 1701     		.2byte	0x117
 1759 082c 19080000 		.4byte	0x819
 1760 0830 15       		.uleb128 0x15
 1761 0831 16       		.byte	0x16
 1762 0832 14       		.byte	0x14
 1763 0833 34       		.byte	0x34
 1764 0834 11090000 		.4byte	0x911
 1765 0838 08       		.uleb128 0x8
 1766 0839 1E080000 		.4byte	.LASF112
 1767 083d 14       		.byte	0x14
ARM GAS  /tmp/cc6aUrs9.s 			page 32


 1768 083e 35       		.byte	0x35
 1769 083f 11090000 		.4byte	0x911
 1770 0843 00       		.byte	0
 1771 0844 08       		.uleb128 0x8
 1772 0845 50030000 		.4byte	.LASF113
 1773 0849 14       		.byte	0x14
 1774 084a 36       		.byte	0x36
 1775 084b B4000000 		.4byte	0xb4
 1776 084f 04       		.byte	0x4
 1777 0850 08       		.uleb128 0x8
 1778 0851 71010000 		.4byte	.LASF114
 1779 0855 14       		.byte	0x14
 1780 0856 37       		.byte	0x37
 1781 0857 B4000000 		.4byte	0xb4
 1782 085b 05       		.byte	0x5
 1783 085c 08       		.uleb128 0x8
 1784 085d BC040000 		.4byte	.LASF115
 1785 0861 14       		.byte	0x14
 1786 0862 38       		.byte	0x38
 1787 0863 C4000000 		.4byte	0xc4
 1788 0867 06       		.byte	0x6
 1789 0868 08       		.uleb128 0x8
 1790 0869 57080000 		.4byte	.LASF116
 1791 086d 14       		.byte	0x14
 1792 086e 39       		.byte	0x39
 1793 086f B4000000 		.4byte	0xb4
 1794 0873 08       		.byte	0x8
 1795 0874 08       		.uleb128 0x8
 1796 0875 01070000 		.4byte	.LASF117
 1797 0879 14       		.byte	0x14
 1798 087a 3A       		.byte	0x3a
 1799 087b B4000000 		.4byte	0xb4
 1800 087f 09       		.byte	0x9
 1801 0880 08       		.uleb128 0x8
 1802 0881 EF050000 		.4byte	.LASF118
 1803 0885 14       		.byte	0x14
 1804 0886 3B       		.byte	0x3b
 1805 0887 B4000000 		.4byte	0xb4
 1806 088b 0A       		.byte	0xa
 1807 088c 08       		.uleb128 0x8
 1808 088d 67060000 		.4byte	.LASF119
 1809 0891 14       		.byte	0x14
 1810 0892 3C       		.byte	0x3c
 1811 0893 B4000000 		.4byte	0xb4
 1812 0897 0B       		.byte	0xb
 1813 0898 08       		.uleb128 0x8
 1814 0899 4E040000 		.4byte	.LASF120
 1815 089d 14       		.byte	0x14
 1816 089e 3D       		.byte	0x3d
 1817 089f B4000000 		.4byte	0xb4
 1818 08a3 0C       		.byte	0xc
 1819 08a4 08       		.uleb128 0x8
 1820 08a5 64050000 		.4byte	.LASF121
 1821 08a9 14       		.byte	0x14
 1822 08aa 3E       		.byte	0x3e
 1823 08ab B4000000 		.4byte	0xb4
 1824 08af 0D       		.byte	0xd
ARM GAS  /tmp/cc6aUrs9.s 			page 33


 1825 08b0 08       		.uleb128 0x8
 1826 08b1 01080000 		.4byte	.LASF122
 1827 08b5 14       		.byte	0x14
 1828 08b6 3F       		.byte	0x3f
 1829 08b7 B4000000 		.4byte	0xb4
 1830 08bb 0E       		.byte	0xe
 1831 08bc 08       		.uleb128 0x8
 1832 08bd C0080000 		.4byte	.LASF123
 1833 08c1 14       		.byte	0x14
 1834 08c2 40       		.byte	0x40
 1835 08c3 B4000000 		.4byte	0xb4
 1836 08c7 0F       		.byte	0xf
 1837 08c8 08       		.uleb128 0x8
 1838 08c9 70060000 		.4byte	.LASF124
 1839 08cd 14       		.byte	0x14
 1840 08ce 41       		.byte	0x41
 1841 08cf B4000000 		.4byte	0xb4
 1842 08d3 10       		.byte	0x10
 1843 08d4 08       		.uleb128 0x8
 1844 08d5 17090000 		.4byte	.LASF125
 1845 08d9 14       		.byte	0x14
 1846 08da 42       		.byte	0x42
 1847 08db B4000000 		.4byte	0xb4
 1848 08df 11       		.byte	0x11
 1849 08e0 08       		.uleb128 0x8
 1850 08e1 71090000 		.4byte	.LASF126
 1851 08e5 14       		.byte	0x14
 1852 08e6 43       		.byte	0x43
 1853 08e7 B4000000 		.4byte	0xb4
 1854 08eb 12       		.byte	0x12
 1855 08ec 08       		.uleb128 0x8
 1856 08ed 00040000 		.4byte	.LASF127
 1857 08f1 14       		.byte	0x14
 1858 08f2 44       		.byte	0x44
 1859 08f3 B4000000 		.4byte	0xb4
 1860 08f7 13       		.byte	0x13
 1861 08f8 08       		.uleb128 0x8
 1862 08f9 F8020000 		.4byte	.LASF128
 1863 08fd 14       		.byte	0x14
 1864 08fe 45       		.byte	0x45
 1865 08ff B4000000 		.4byte	0xb4
 1866 0903 14       		.byte	0x14
 1867 0904 08       		.uleb128 0x8
 1868 0905 E6060000 		.4byte	.LASF129
 1869 0909 14       		.byte	0x14
 1870 090a 46       		.byte	0x46
 1871 090b B4000000 		.4byte	0xb4
 1872 090f 15       		.byte	0x15
 1873 0910 00       		.byte	0
 1874 0911 13       		.uleb128 0x13
 1875 0912 F6070000 		.4byte	0x7f6
 1876 0916 21090000 		.4byte	0x921
 1877 091a 14       		.uleb128 0x14
 1878 091b 91040000 		.4byte	0x491
 1879 091f 03       		.byte	0x3
 1880 0920 00       		.byte	0
 1881 0921 03       		.uleb128 0x3
ARM GAS  /tmp/cc6aUrs9.s 			page 34


 1882 0922 EE020000 		.4byte	.LASF130
 1883 0926 14       		.byte	0x14
 1884 0927 47       		.byte	0x47
 1885 0928 30080000 		.4byte	0x830
 1886 092c 05       		.uleb128 0x5
 1887 092d 21090000 		.4byte	0x921
 1888 0931 12       		.uleb128 0x12
 1889 0932 CF030000 		.4byte	.LASF131
 1890 0936 14       		.byte	0x14
 1891 0937 6C       		.byte	0x6c
 1892 0938 2C090000 		.4byte	0x92c
 1893 093c 03       		.uleb128 0x3
 1894 093d 55030000 		.4byte	.LASF132
 1895 0941 05       		.byte	0x5
 1896 0942 34       		.byte	0x34
 1897 0943 B4070000 		.4byte	0x7b4
 1898 0947 0C       		.uleb128 0xc
 1899 0948 04       		.byte	0x4
 1900 0949 3C090000 		.4byte	0x93c
 1901 094d 07       		.uleb128 0x7
 1902 094e 14050000 		.4byte	.LASF133
 1903 0952 08       		.byte	0x8
 1904 0953 15       		.byte	0x15
 1905 0954 3B       		.byte	0x3b
 1906 0955 66090000 		.4byte	0x966
 1907 0959 08       		.uleb128 0x8
 1908 095a F4030000 		.4byte	.LASF32
 1909 095e 15       		.byte	0x15
 1910 095f 3C       		.byte	0x3c
 1911 0960 8E020000 		.4byte	0x28e
 1912 0964 00       		.byte	0
 1913 0965 00       		.byte	0
 1914 0966 03       		.uleb128 0x3
 1915 0967 5C010000 		.4byte	.LASF134
 1916 096b 15       		.byte	0x15
 1917 096c 3E       		.byte	0x3e
 1918 096d 4D090000 		.4byte	0x94d
 1919 0971 04       		.uleb128 0x4
 1920 0972 01       		.byte	0x1
 1921 0973 02       		.byte	0x2
 1922 0974 4B060000 		.4byte	.LASF135
 1923 0978 03       		.uleb128 0x3
 1924 0979 31080000 		.4byte	.LASF136
 1925 097d 16       		.byte	0x16
 1926 097e 47       		.byte	0x47
 1927 097f 83090000 		.4byte	0x983
 1928 0983 0C       		.uleb128 0xc
 1929 0984 04       		.byte	0x4
 1930 0985 89090000 		.4byte	0x989
 1931 0989 1B       		.uleb128 0x1b
 1932 098a 46030000 		.4byte	0x346
 1933 098e 9D090000 		.4byte	0x99d
 1934 0992 0F       		.uleb128 0xf
 1935 0993 2C000000 		.4byte	0x2c
 1936 0997 0F       		.uleb128 0xf
 1937 0998 37000000 		.4byte	0x37
 1938 099c 00       		.byte	0
ARM GAS  /tmp/cc6aUrs9.s 			page 35


 1939 099d 15       		.uleb128 0x15
 1940 099e 08       		.byte	0x8
 1941 099f 16       		.byte	0x16
 1942 09a0 51       		.byte	0x51
 1943 09a1 BE090000 		.4byte	0x9be
 1944 09a5 08       		.uleb128 0x8
 1945 09a6 C8090000 		.4byte	.LASF137
 1946 09aa 16       		.byte	0x16
 1947 09ab 55       		.byte	0x55
 1948 09ac BE090000 		.4byte	0x9be
 1949 09b0 00       		.byte	0
 1950 09b1 08       		.uleb128 0x8
 1951 09b2 91040000 		.4byte	.LASF138
 1952 09b6 16       		.byte	0x16
 1953 09b7 59       		.byte	0x59
 1954 09b8 BE090000 		.4byte	0x9be
 1955 09bc 04       		.byte	0x4
 1956 09bd 00       		.byte	0
 1957 09be 0C       		.uleb128 0xc
 1958 09bf 04       		.byte	0x4
 1959 09c0 B4000000 		.4byte	0xb4
 1960 09c4 03       		.uleb128 0x3
 1961 09c5 D2050000 		.4byte	.LASF139
 1962 09c9 16       		.byte	0x16
 1963 09ca 5A       		.byte	0x5a
 1964 09cb 9D090000 		.4byte	0x99d
 1965 09cf 12       		.uleb128 0x12
 1966 09d0 BE030000 		.4byte	.LASF140
 1967 09d4 16       		.byte	0x16
 1968 09d5 65       		.byte	0x65
 1969 09d6 C4090000 		.4byte	0x9c4
 1970 09da 07       		.uleb128 0x7
 1971 09db 82080000 		.4byte	.LASF141
 1972 09df 04       		.byte	0x4
 1973 09e0 17       		.byte	0x17
 1974 09e1 38       		.byte	0x38
 1975 09e2 F3090000 		.4byte	0x9f3
 1976 09e6 08       		.uleb128 0x8
 1977 09e7 34010000 		.4byte	.LASF52
 1978 09eb 17       		.byte	0x17
 1979 09ec 39       		.byte	0x39
 1980 09ed F3090000 		.4byte	0x9f3
 1981 09f1 00       		.byte	0
 1982 09f2 00       		.byte	0
 1983 09f3 0C       		.uleb128 0xc
 1984 09f4 04       		.byte	0x4
 1985 09f5 DA090000 		.4byte	0x9da
 1986 09f9 15       		.uleb128 0x15
 1987 09fa 10       		.byte	0x10
 1988 09fb 17       		.byte	0x17
 1989 09fc 40       		.byte	0x40
 1990 09fd 320A0000 		.4byte	0xa32
 1991 0a01 08       		.uleb128 0x8
 1992 0a02 34010000 		.4byte	.LASF52
 1993 0a06 17       		.byte	0x17
 1994 0a07 41       		.byte	0x41
 1995 0a08 F3090000 		.4byte	0x9f3
ARM GAS  /tmp/cc6aUrs9.s 			page 36


 1996 0a0c 00       		.byte	0
 1997 0a0d 08       		.uleb128 0x8
 1998 0a0e 4B080000 		.4byte	.LASF142
 1999 0a12 17       		.byte	0x17
 2000 0a13 42       		.byte	0x42
 2001 0a14 2C000000 		.4byte	0x2c
 2002 0a18 04       		.byte	0x4
 2003 0a19 08       		.uleb128 0x8
 2004 0a1a 5D030000 		.4byte	.LASF143
 2005 0a1e 17       		.byte	0x17
 2006 0a1f 44       		.byte	0x44
 2007 0a20 37000000 		.4byte	0x37
 2008 0a24 08       		.byte	0x8
 2009 0a25 08       		.uleb128 0x8
 2010 0a26 72000000 		.4byte	.LASF144
 2011 0a2a 17       		.byte	0x17
 2012 0a2b 45       		.byte	0x45
 2013 0a2c 78090000 		.4byte	0x978
 2014 0a30 0C       		.byte	0xc
 2015 0a31 00       		.byte	0
 2016 0a32 03       		.uleb128 0x3
 2017 0a33 E0030000 		.4byte	.LASF145
 2018 0a37 17       		.byte	0x17
 2019 0a38 47       		.byte	0x47
 2020 0a39 F9090000 		.4byte	0x9f9
 2021 0a3d 07       		.uleb128 0x7
 2022 0a3e 0F060000 		.4byte	.LASF146
 2023 0a42 10       		.byte	0x10
 2024 0a43 18       		.byte	0x18
 2025 0a44 A9       		.byte	0xa9
 2026 0a45 6E0A0000 		.4byte	0xa6e
 2027 0a49 08       		.uleb128 0x8
 2028 0a4a 34010000 		.4byte	.LASF52
 2029 0a4e 18       		.byte	0x18
 2030 0a4f AD       		.byte	0xad
 2031 0a50 6E0A0000 		.4byte	0xa6e
 2032 0a54 00       		.byte	0
 2033 0a55 08       		.uleb128 0x8
 2034 0a56 FA050000 		.4byte	.LASF40
 2035 0a5a 18       		.byte	0x18
 2036 0a5b B1       		.byte	0xb1
 2037 0a5c 58010000 		.4byte	0x158
 2038 0a60 04       		.byte	0x4
 2039 0a61 08       		.uleb128 0x8
 2040 0a62 3D040000 		.4byte	.LASF36
 2041 0a66 18       		.byte	0x18
 2042 0a67 B3       		.byte	0xb3
 2043 0a68 740A0000 		.4byte	0xa74
 2044 0a6c 08       		.byte	0x8
 2045 0a6d 00       		.byte	0
 2046 0a6e 0C       		.uleb128 0xc
 2047 0a6f 04       		.byte	0x4
 2048 0a70 3D0A0000 		.4byte	0xa3d
 2049 0a74 13       		.uleb128 0x13
 2050 0a75 F6070000 		.4byte	0x7f6
 2051 0a79 840A0000 		.4byte	0xa84
 2052 0a7d 14       		.uleb128 0x14
ARM GAS  /tmp/cc6aUrs9.s 			page 37


 2053 0a7e 91040000 		.4byte	0x491
 2054 0a82 07       		.byte	0x7
 2055 0a83 00       		.byte	0
 2056 0a84 03       		.uleb128 0x3
 2057 0a85 26010000 		.4byte	.LASF147
 2058 0a89 18       		.byte	0x18
 2059 0a8a B7       		.byte	0xb7
 2060 0a8b 3D0A0000 		.4byte	0xa3d
 2061 0a8f 07       		.uleb128 0x7
 2062 0a90 3A050000 		.4byte	.LASF148
 2063 0a94 04       		.byte	0x4
 2064 0a95 18       		.byte	0x18
 2065 0a96 BC       		.byte	0xbc
 2066 0a97 A80A0000 		.4byte	0xaa8
 2067 0a9b 08       		.uleb128 0x8
 2068 0a9c 34010000 		.4byte	.LASF52
 2069 0aa0 18       		.byte	0x18
 2070 0aa1 BD       		.byte	0xbd
 2071 0aa2 A80A0000 		.4byte	0xaa8
 2072 0aa6 00       		.byte	0
 2073 0aa7 00       		.byte	0
 2074 0aa8 0C       		.uleb128 0xc
 2075 0aa9 04       		.byte	0x4
 2076 0aaa 840A0000 		.4byte	0xa84
 2077 0aae 03       		.uleb128 0x3
 2078 0aaf 85050000 		.4byte	.LASF149
 2079 0ab3 18       		.byte	0x18
 2080 0ab4 BE       		.byte	0xbe
 2081 0ab5 8F0A0000 		.4byte	0xa8f
 2082 0ab9 0D       		.uleb128 0xd
 2083 0aba 5F080000 		.4byte	.LASF150
 2084 0abe 44       		.byte	0x44
 2085 0abf 18       		.byte	0x18
 2086 0ac0 3E01     		.2byte	0x13e
 2087 0ac2 2F0B0000 		.4byte	0xb2f
 2088 0ac6 0A       		.uleb128 0xa
 2089 0ac7 6D747800 		.ascii	"mtx\000"
 2090 0acb 18       		.byte	0x18
 2091 0acc 4301     		.2byte	0x143
 2092 0ace 3C090000 		.4byte	0x93c
 2093 0ad2 00       		.byte	0
 2094 0ad3 0B       		.uleb128 0xb
 2095 0ad4 7E070000 		.4byte	.LASF151
 2096 0ad8 18       		.byte	0x18
 2097 0ad9 4A01     		.2byte	0x14a
 2098 0adb AE0A0000 		.4byte	0xaae
 2099 0adf 10       		.byte	0x10
 2100 0ae0 0B       		.uleb128 0xb
 2101 0ae1 BF060000 		.4byte	.LASF152
 2102 0ae5 18       		.byte	0x18
 2103 0ae6 4E01     		.2byte	0x14e
 2104 0ae8 320A0000 		.4byte	0xa32
 2105 0aec 14       		.byte	0x14
 2106 0aed 0B       		.uleb128 0xb
 2107 0aee 26060000 		.4byte	.LASF153
 2108 0af2 18       		.byte	0x18
 2109 0af3 5301     		.2byte	0x153
ARM GAS  /tmp/cc6aUrs9.s 			page 38


 2110 0af5 AE0A0000 		.4byte	0xaae
 2111 0af9 24       		.byte	0x24
 2112 0afa 0B       		.uleb128 0xb
 2113 0afb 86000000 		.4byte	.LASF154
 2114 0aff 18       		.byte	0x18
 2115 0b00 5901     		.2byte	0x159
 2116 0b02 AE0A0000 		.4byte	0xaae
 2117 0b06 28       		.byte	0x28
 2118 0b07 0B       		.uleb128 0xb
 2119 0b08 B6050000 		.4byte	.LASF155
 2120 0b0c 18       		.byte	0x18
 2121 0b0d 5D01     		.2byte	0x15d
 2122 0b0f 320A0000 		.4byte	0xa32
 2123 0b13 2C       		.byte	0x2c
 2124 0b14 0B       		.uleb128 0xb
 2125 0b15 29030000 		.4byte	.LASF156
 2126 0b19 18       		.byte	0x18
 2127 0b1a 6301     		.2byte	0x163
 2128 0b1c AE0A0000 		.4byte	0xaae
 2129 0b20 3C       		.byte	0x3c
 2130 0b21 0B       		.uleb128 0xb
 2131 0b22 E5080000 		.4byte	.LASF157
 2132 0b26 18       		.byte	0x18
 2133 0b27 6901     		.2byte	0x169
 2134 0b29 AE0A0000 		.4byte	0xaae
 2135 0b2d 40       		.byte	0x40
 2136 0b2e 00       		.byte	0
 2137 0b2f 1C       		.uleb128 0x1c
 2138 0b30 42090000 		.4byte	.LASF158
 2139 0b34 18       		.byte	0x18
 2140 0b35 7101     		.2byte	0x171
 2141 0b37 B90A0000 		.4byte	0xab9
 2142 0b3b 11       		.uleb128 0x11
 2143 0b3c AA060000 		.4byte	.LASF159
 2144 0b40 18       		.byte	0x18
 2145 0b41 7C01     		.2byte	0x17c
 2146 0b43 2F0B0000 		.4byte	0xb2f
 2147 0b47 1D       		.uleb128 0x1d
 2148 0b48 27050000 		.4byte	.LASF161
 2149 0b4c 02       		.byte	0x2
 2150 0b4d 2701     		.2byte	0x127
 2151 0b4f 37010000 		.4byte	0x137
 2152 0b53 00000000 		.4byte	.LFB298
 2153 0b57 38000000 		.4byte	.LFE298-.LFB298
 2154 0b5b 01       		.uleb128 0x1
 2155 0b5c 9C       		.byte	0x9c
 2156 0b5d 200C0000 		.4byte	0xc20
 2157 0b61 1E       		.uleb128 0x1e
 2158 0b62 637000   		.ascii	"cp\000"
 2159 0b65 02       		.byte	0x2
 2160 0b66 2701     		.2byte	0x127
 2161 0b68 200C0000 		.4byte	0xc20
 2162 0b6c 00000000 		.4byte	.LLST26
 2163 0b70 1F       		.uleb128 0x1f
 2164 0b71 D8030000 		.4byte	.LASF160
 2165 0b75 02       		.byte	0x2
 2166 0b76 2701     		.2byte	0x127
ARM GAS  /tmp/cc6aUrs9.s 			page 39


 2167 0b78 86040000 		.4byte	0x486
 2168 0b7c 2C000000 		.4byte	.LLST27
 2169 0b80 20       		.uleb128 0x20
 2170 0b81 6D7000   		.ascii	"mp\000"
 2171 0b84 02       		.byte	0x2
 2172 0b85 2801     		.2byte	0x128
 2173 0b87 47090000 		.4byte	0x947
 2174 0b8b 21       		.uleb128 0x21
 2175 0b8c 6D736700 		.ascii	"msg\000"
 2176 0b90 02       		.byte	0x2
 2177 0b91 2901     		.2byte	0x129
 2178 0b93 37010000 		.4byte	0x137
 2179 0b97 58000000 		.4byte	.LLST28
 2180 0b9b 22       		.uleb128 0x22
 2181 0b9c A1060000 		.4byte	.LASF164
 2182 0ba0 360C0000 		.4byte	0xc36
 2183 0ba4 23       		.uleb128 0x23
 2184 0ba5 B1120000 		.4byte	0x12b1
 2185 0ba9 02000000 		.4byte	.LBB137
 2186 0bad 06000000 		.4byte	.LBE137-.LBB137
 2187 0bb1 02       		.byte	0x2
 2188 0bb2 2801     		.2byte	0x128
 2189 0bb4 C80B0000 		.4byte	0xbc8
 2190 0bb8 24       		.uleb128 0x24
 2191 0bb9 BD120000 		.4byte	0x12bd
 2192 0bbd 02000000 		.4byte	.LBB139
 2193 0bc1 02000000 		.4byte	.LBE139-.LBB139
 2194 0bc5 05       		.byte	0x5
 2195 0bc6 A1       		.byte	0xa1
 2196 0bc7 00       		.byte	0
 2197 0bc8 25       		.uleb128 0x25
 2198 0bc9 12000000 		.4byte	.LVL51
 2199 0bcd C8130000 		.4byte	0x13c8
 2200 0bd1 DC0B0000 		.4byte	0xbdc
 2201 0bd5 26       		.uleb128 0x26
 2202 0bd6 01       		.uleb128 0x1
 2203 0bd7 50       		.byte	0x50
 2204 0bd8 02       		.uleb128 0x2
 2205 0bd9 75       		.byte	0x75
 2206 0bda 00       		.sleb128 0
 2207 0bdb 00       		.byte	0
 2208 0bdc 25       		.uleb128 0x25
 2209 0bdd 1C000000 		.4byte	.LVL52
 2210 0be1 1D130000 		.4byte	0x131d
 2211 0be5 F60B0000 		.4byte	0xbf6
 2212 0be9 26       		.uleb128 0x26
 2213 0bea 01       		.uleb128 0x1
 2214 0beb 50       		.byte	0x50
 2215 0bec 02       		.uleb128 0x2
 2216 0bed 70       		.byte	0x70
 2217 0bee 00       		.sleb128 0
 2218 0bef 26       		.uleb128 0x26
 2219 0bf0 01       		.uleb128 0x1
 2220 0bf1 51       		.byte	0x51
 2221 0bf2 02       		.uleb128 0x2
 2222 0bf3 74       		.byte	0x74
 2223 0bf4 00       		.sleb128 0
ARM GAS  /tmp/cc6aUrs9.s 			page 40


 2224 0bf5 00       		.byte	0
 2225 0bf6 25       		.uleb128 0x25
 2226 0bf7 24000000 		.4byte	.LVL53
 2227 0bfb D3130000 		.4byte	0x13d3
 2228 0bff 0F0C0000 		.4byte	0xc0f
 2229 0c03 26       		.uleb128 0x26
 2230 0c04 01       		.uleb128 0x1
 2231 0c05 50       		.byte	0x50
 2232 0c06 01       		.uleb128 0x1
 2233 0c07 37       		.byte	0x37
 2234 0c08 26       		.uleb128 0x26
 2235 0c09 01       		.uleb128 0x1
 2236 0c0a 51       		.byte	0x51
 2237 0c0b 02       		.uleb128 0x2
 2238 0c0c 77       		.byte	0x77
 2239 0c0d 00       		.sleb128 0
 2240 0c0e 00       		.byte	0
 2241 0c0f 27       		.uleb128 0x27
 2242 0c10 30000000 		.4byte	.LVL56
 2243 0c14 DF130000 		.4byte	0x13df
 2244 0c18 26       		.uleb128 0x26
 2245 0c19 01       		.uleb128 0x1
 2246 0c1a 50       		.byte	0x50
 2247 0c1b 02       		.uleb128 0x2
 2248 0c1c 75       		.byte	0x75
 2249 0c1d 00       		.sleb128 0
 2250 0c1e 00       		.byte	0
 2251 0c1f 00       		.byte	0
 2252 0c20 0C       		.uleb128 0xc
 2253 0c21 04       		.byte	0x4
 2254 0c22 66090000 		.4byte	0x966
 2255 0c26 13       		.uleb128 0x13
 2256 0c27 FD070000 		.4byte	0x7fd
 2257 0c2b 360C0000 		.4byte	0xc36
 2258 0c2f 14       		.uleb128 0x14
 2259 0c30 91040000 		.4byte	0x491
 2260 0c34 12       		.byte	0x12
 2261 0c35 00       		.byte	0
 2262 0c36 05       		.uleb128 0x5
 2263 0c37 260C0000 		.4byte	0xc26
 2264 0c3b 1D       		.uleb128 0x1d
 2265 0c3c F6080000 		.4byte	.LASF162
 2266 0c40 02       		.byte	0x2
 2267 0c41 0101     		.2byte	0x101
 2268 0c43 37010000 		.4byte	0x137
 2269 0c47 00000000 		.4byte	.LFB297
 2270 0c4b 28000000 		.4byte	.LFE297-.LFB297
 2271 0c4f 01       		.uleb128 0x1
 2272 0c50 9C       		.byte	0x9c
 2273 0c51 440D0000 		.4byte	0xd44
 2274 0c55 1E       		.uleb128 0x1e
 2275 0c56 637000   		.ascii	"cp\000"
 2276 0c59 02       		.byte	0x2
 2277 0c5a 0101     		.2byte	0x101
 2278 0c5c 200C0000 		.4byte	0xc20
 2279 0c60 81000000 		.4byte	.LLST29
 2280 0c64 1F       		.uleb128 0x1f
ARM GAS  /tmp/cc6aUrs9.s 			page 41


 2281 0c65 D8030000 		.4byte	.LASF160
 2282 0c69 02       		.byte	0x2
 2283 0c6a 0101     		.2byte	0x101
 2284 0c6c 86040000 		.4byte	0x486
 2285 0c70 AD000000 		.4byte	.LLST30
 2286 0c74 21       		.uleb128 0x21
 2287 0c75 6D736700 		.ascii	"msg\000"
 2288 0c79 02       		.byte	0x2
 2289 0c7a 0201     		.2byte	0x102
 2290 0c7c 37010000 		.4byte	0x137
 2291 0c80 CB000000 		.4byte	.LLST31
 2292 0c84 23       		.uleb128 0x23
 2293 0c85 E5120000 		.4byte	0x12e5
 2294 0c89 06000000 		.4byte	.LBB151
 2295 0c8d 0A000000 		.4byte	.LBE151-.LBB151
 2296 0c91 02       		.byte	0x2
 2297 0c92 0401     		.2byte	0x104
 2298 0c94 D10C0000 		.4byte	0xcd1
 2299 0c98 23       		.uleb128 0x23
 2300 0c99 A5130000 		.4byte	0x13a5
 2301 0c9d 06000000 		.4byte	.LBB153
 2302 0ca1 06000000 		.4byte	.LBE153-.LBB153
 2303 0ca5 04       		.byte	0x4
 2304 0ca6 6301     		.2byte	0x163
 2305 0ca8 C70C0000 		.4byte	0xcc7
 2306 0cac 28       		.uleb128 0x28
 2307 0cad AE130000 		.4byte	0x13ae
 2308 0cb1 06000000 		.4byte	.LBB154
 2309 0cb5 06000000 		.4byte	.LBE154-.LBB154
 2310 0cb9 10       		.byte	0x10
 2311 0cba 6202     		.2byte	0x262
 2312 0cbc 29       		.uleb128 0x29
 2313 0cbd BB130000 		.4byte	0x13bb
 2314 0cc1 E9000000 		.4byte	.LLST32
 2315 0cc5 00       		.byte	0
 2316 0cc6 00       		.byte	0
 2317 0cc7 2A       		.uleb128 0x2a
 2318 0cc8 10000000 		.4byte	.LVL60
 2319 0ccc EA130000 		.4byte	0x13ea
 2320 0cd0 00       		.byte	0
 2321 0cd1 23       		.uleb128 0x23
 2322 0cd2 CA120000 		.4byte	0x12ca
 2323 0cd6 1A000000 		.4byte	.LBB156
 2324 0cda 0A000000 		.4byte	.LBE156-.LBB156
 2325 0cde 02       		.byte	0x2
 2326 0cdf 0601     		.2byte	0x106
 2327 0ce1 2D0D0000 		.4byte	0xd2d
 2328 0ce5 2B       		.uleb128 0x2b
 2329 0ce6 1A000000 		.4byte	.LBB157
 2330 0cea 0A000000 		.4byte	.LBE157-.LBB157
 2331 0cee 2C       		.uleb128 0x2c
 2332 0cef D7120000 		.4byte	0x12d7
 2333 0cf3 23       		.uleb128 0x23
 2334 0cf4 9C130000 		.4byte	0x139c
 2335 0cf8 1E000000 		.4byte	.LBB158
 2336 0cfc 06000000 		.4byte	.LBE158-.LBB158
 2337 0d00 04       		.byte	0x4
ARM GAS  /tmp/cc6aUrs9.s 			page 42


 2338 0d01 7A01     		.2byte	0x17a
 2339 0d03 220D0000 		.4byte	0xd22
 2340 0d07 28       		.uleb128 0x28
 2341 0d08 AE130000 		.4byte	0x13ae
 2342 0d0c 1E000000 		.4byte	.LBB159
 2343 0d10 06000000 		.4byte	.LBE159-.LBB159
 2344 0d14 10       		.byte	0x10
 2345 0d15 7502     		.2byte	0x275
 2346 0d17 29       		.uleb128 0x29
 2347 0d18 BB130000 		.4byte	0x13bb
 2348 0d1c FE000000 		.4byte	.LLST33
 2349 0d20 00       		.byte	0
 2350 0d21 00       		.byte	0
 2351 0d22 2A       		.uleb128 0x2a
 2352 0d23 1E000000 		.4byte	.LVL63
 2353 0d27 F5130000 		.4byte	0x13f5
 2354 0d2b 00       		.byte	0
 2355 0d2c 00       		.byte	0
 2356 0d2d 27       		.uleb128 0x27
 2357 0d2e 18000000 		.4byte	.LVL61
 2358 0d32 470B0000 		.4byte	0xb47
 2359 0d36 26       		.uleb128 0x26
 2360 0d37 01       		.uleb128 0x1
 2361 0d38 50       		.byte	0x50
 2362 0d39 02       		.uleb128 0x2
 2363 0d3a 74       		.byte	0x74
 2364 0d3b 00       		.sleb128 0
 2365 0d3c 26       		.uleb128 0x26
 2366 0d3d 01       		.uleb128 0x1
 2367 0d3e 51       		.byte	0x51
 2368 0d3f 02       		.uleb128 0x2
 2369 0d40 75       		.byte	0x75
 2370 0d41 00       		.sleb128 0
 2371 0d42 00       		.byte	0
 2372 0d43 00       		.byte	0
 2373 0d44 2D       		.uleb128 0x2d
 2374 0d45 BF020000 		.4byte	.LASF163
 2375 0d49 02       		.byte	0x2
 2376 0d4a CD       		.byte	0xcd
 2377 0d4b 37010000 		.4byte	0x137
 2378 0d4f 00000000 		.4byte	.LFB296
 2379 0d53 30000000 		.4byte	.LFE296-.LFB296
 2380 0d57 01       		.uleb128 0x1
 2381 0d58 9C       		.byte	0x9c
 2382 0d59 FD0D0000 		.4byte	0xdfd
 2383 0d5d 2E       		.uleb128 0x2e
 2384 0d5e 637000   		.ascii	"cp\000"
 2385 0d61 02       		.byte	0x2
 2386 0d62 CD       		.byte	0xcd
 2387 0d63 200C0000 		.4byte	0xc20
 2388 0d67 12010000 		.4byte	.LLST19
 2389 0d6b 2F       		.uleb128 0x2f
 2390 0d6c 63747000 		.ascii	"ctp\000"
 2391 0d70 02       		.byte	0x2
 2392 0d71 CE       		.byte	0xce
 2393 0d72 64020000 		.4byte	0x264
 2394 0d76 3E010000 		.4byte	.LLST20
ARM GAS  /tmp/cc6aUrs9.s 			page 43


 2395 0d7a 30       		.uleb128 0x30
 2396 0d7b 6D7000   		.ascii	"mp\000"
 2397 0d7e 02       		.byte	0x2
 2398 0d7f CF       		.byte	0xcf
 2399 0d80 47090000 		.4byte	0x947
 2400 0d84 2F       		.uleb128 0x2f
 2401 0d85 6D736700 		.ascii	"msg\000"
 2402 0d89 02       		.byte	0x2
 2403 0d8a D0       		.byte	0xd0
 2404 0d8b 37010000 		.4byte	0x137
 2405 0d8f 51010000 		.4byte	.LLST21
 2406 0d93 22       		.uleb128 0x22
 2407 0d94 A1060000 		.4byte	.LASF164
 2408 0d98 0D0E0000 		.4byte	0xe0d
 2409 0d9c 24       		.uleb128 0x24
 2410 0d9d B1120000 		.4byte	0x12b1
 2411 0da1 06000000 		.4byte	.LBB110
 2412 0da5 02000000 		.4byte	.LBE110-.LBB110
 2413 0da9 02       		.byte	0x2
 2414 0daa CF       		.byte	0xcf
 2415 0dab 25       		.uleb128 0x25
 2416 0dac 10000000 		.4byte	.LVL36
 2417 0db0 C8130000 		.4byte	0x13c8
 2418 0db4 BF0D0000 		.4byte	0xdbf
 2419 0db8 26       		.uleb128 0x26
 2420 0db9 01       		.uleb128 0x1
 2421 0dba 50       		.byte	0x50
 2422 0dbb 02       		.uleb128 0x2
 2423 0dbc 75       		.byte	0x75
 2424 0dbd 00       		.sleb128 0
 2425 0dbe 00       		.byte	0
 2426 0dbf 25       		.uleb128 0x25
 2427 0dc0 1A000000 		.4byte	.LVL37
 2428 0dc4 1D130000 		.4byte	0x131d
 2429 0dc8 D90D0000 		.4byte	0xdd9
 2430 0dcc 26       		.uleb128 0x26
 2431 0dcd 01       		.uleb128 0x1
 2432 0dce 50       		.byte	0x50
 2433 0dcf 02       		.uleb128 0x2
 2434 0dd0 74       		.byte	0x74
 2435 0dd1 00       		.sleb128 0
 2436 0dd2 26       		.uleb128 0x26
 2437 0dd3 01       		.uleb128 0x1
 2438 0dd4 51       		.byte	0x51
 2439 0dd5 02       		.uleb128 0x2
 2440 0dd6 76       		.byte	0x76
 2441 0dd7 00       		.sleb128 0
 2442 0dd8 00       		.byte	0
 2443 0dd9 25       		.uleb128 0x25
 2444 0dda 20000000 		.4byte	.LVL38
 2445 0dde 00140000 		.4byte	0x1400
 2446 0de2 EC0D0000 		.4byte	0xdec
 2447 0de6 26       		.uleb128 0x26
 2448 0de7 01       		.uleb128 0x1
 2449 0de8 50       		.byte	0x50
 2450 0de9 01       		.uleb128 0x1
 2451 0dea 37       		.byte	0x37
ARM GAS  /tmp/cc6aUrs9.s 			page 44


 2452 0deb 00       		.byte	0
 2453 0dec 27       		.uleb128 0x27
 2454 0ded 28000000 		.4byte	.LVL40
 2455 0df1 DF130000 		.4byte	0x13df
 2456 0df5 26       		.uleb128 0x26
 2457 0df6 01       		.uleb128 0x1
 2458 0df7 50       		.byte	0x50
 2459 0df8 02       		.uleb128 0x2
 2460 0df9 75       		.byte	0x75
 2461 0dfa 00       		.sleb128 0
 2462 0dfb 00       		.byte	0
 2463 0dfc 00       		.byte	0
 2464 0dfd 13       		.uleb128 0x13
 2465 0dfe FD070000 		.4byte	0x7fd
 2466 0e02 0D0E0000 		.4byte	0xe0d
 2467 0e06 14       		.uleb128 0x14
 2468 0e07 91040000 		.4byte	0x491
 2469 0e0b 0B       		.byte	0xb
 2470 0e0c 00       		.byte	0
 2471 0e0d 05       		.uleb128 0x5
 2472 0e0e FD0D0000 		.4byte	0xdfd
 2473 0e12 2D       		.uleb128 0x2d
 2474 0e13 68070000 		.4byte	.LASF165
 2475 0e17 02       		.byte	0x2
 2476 0e18 B3       		.byte	0xb3
 2477 0e19 37010000 		.4byte	0x137
 2478 0e1d 00000000 		.4byte	.LFB295
 2479 0e21 24000000 		.4byte	.LFE295-.LFB295
 2480 0e25 01       		.uleb128 0x1
 2481 0e26 9C       		.byte	0x9c
 2482 0e27 000F0000 		.4byte	0xf00
 2483 0e2b 2E       		.uleb128 0x2e
 2484 0e2c 637000   		.ascii	"cp\000"
 2485 0e2f 02       		.byte	0x2
 2486 0e30 B3       		.byte	0xb3
 2487 0e31 200C0000 		.4byte	0xc20
 2488 0e35 6F010000 		.4byte	.LLST22
 2489 0e39 2F       		.uleb128 0x2f
 2490 0e3a 6D736700 		.ascii	"msg\000"
 2491 0e3e 02       		.byte	0x2
 2492 0e3f B4       		.byte	0xb4
 2493 0e40 37010000 		.4byte	0x137
 2494 0e44 9B010000 		.4byte	.LLST23
 2495 0e48 31       		.uleb128 0x31
 2496 0e49 E5120000 		.4byte	0x12e5
 2497 0e4d 02000000 		.4byte	.LBB122
 2498 0e51 78000000 		.4byte	.Ldebug_ranges0+0x78
 2499 0e55 02       		.byte	0x2
 2500 0e56 B6       		.byte	0xb6
 2501 0e57 940E0000 		.4byte	0xe94
 2502 0e5b 32       		.uleb128 0x32
 2503 0e5c A5130000 		.4byte	0x13a5
 2504 0e60 02000000 		.4byte	.LBB124
 2505 0e64 90000000 		.4byte	.Ldebug_ranges0+0x90
 2506 0e68 04       		.byte	0x4
 2507 0e69 6301     		.2byte	0x163
 2508 0e6b 8A0E0000 		.4byte	0xe8a
ARM GAS  /tmp/cc6aUrs9.s 			page 45


 2509 0e6f 33       		.uleb128 0x33
 2510 0e70 AE130000 		.4byte	0x13ae
 2511 0e74 02000000 		.4byte	.LBB125
 2512 0e78 90000000 		.4byte	.Ldebug_ranges0+0x90
 2513 0e7c 10       		.byte	0x10
 2514 0e7d 6202     		.2byte	0x262
 2515 0e7f 29       		.uleb128 0x29
 2516 0e80 BB130000 		.4byte	0x13bb
 2517 0e84 B9010000 		.4byte	.LLST24
 2518 0e88 00       		.byte	0
 2519 0e89 00       		.byte	0
 2520 0e8a 2A       		.uleb128 0x2a
 2521 0e8b 0E000000 		.4byte	.LVL44
 2522 0e8f EA130000 		.4byte	0x13ea
 2523 0e93 00       		.byte	0
 2524 0e94 34       		.uleb128 0x34
 2525 0e95 CA120000 		.4byte	0x12ca
 2526 0e99 16000000 		.4byte	.LBB132
 2527 0e9d 0A000000 		.4byte	.LBE132-.LBB132
 2528 0ea1 02       		.byte	0x2
 2529 0ea2 B8       		.byte	0xb8
 2530 0ea3 EF0E0000 		.4byte	0xeef
 2531 0ea7 2B       		.uleb128 0x2b
 2532 0ea8 16000000 		.4byte	.LBB133
 2533 0eac 0A000000 		.4byte	.LBE133-.LBB133
 2534 0eb0 2C       		.uleb128 0x2c
 2535 0eb1 D7120000 		.4byte	0x12d7
 2536 0eb5 23       		.uleb128 0x23
 2537 0eb6 9C130000 		.4byte	0x139c
 2538 0eba 1A000000 		.4byte	.LBB134
 2539 0ebe 06000000 		.4byte	.LBE134-.LBB134
 2540 0ec2 04       		.byte	0x4
 2541 0ec3 7A01     		.2byte	0x17a
 2542 0ec5 E40E0000 		.4byte	0xee4
 2543 0ec9 28       		.uleb128 0x28
 2544 0eca AE130000 		.4byte	0x13ae
 2545 0ece 1A000000 		.4byte	.LBB135
 2546 0ed2 06000000 		.4byte	.LBE135-.LBB135
 2547 0ed6 10       		.byte	0x10
 2548 0ed7 7502     		.2byte	0x275
 2549 0ed9 29       		.uleb128 0x29
 2550 0eda BB130000 		.4byte	0x13bb
 2551 0ede CE010000 		.4byte	.LLST25
 2552 0ee2 00       		.byte	0
 2553 0ee3 00       		.byte	0
 2554 0ee4 2A       		.uleb128 0x2a
 2555 0ee5 1A000000 		.4byte	.LVL47
 2556 0ee9 F5130000 		.4byte	0x13f5
 2557 0eed 00       		.byte	0
 2558 0eee 00       		.byte	0
 2559 0eef 27       		.uleb128 0x27
 2560 0ef0 14000000 		.4byte	.LVL45
 2561 0ef4 440D0000 		.4byte	0xd44
 2562 0ef8 26       		.uleb128 0x26
 2563 0ef9 01       		.uleb128 0x1
 2564 0efa 50       		.byte	0x50
 2565 0efb 02       		.uleb128 0x2
ARM GAS  /tmp/cc6aUrs9.s 			page 46


 2566 0efc 74       		.byte	0x74
 2567 0efd 00       		.sleb128 0
 2568 0efe 00       		.byte	0
 2569 0eff 00       		.byte	0
 2570 0f00 35       		.uleb128 0x35
 2571 0f01 BF000000 		.4byte	.LASF166
 2572 0f05 02       		.byte	0x2
 2573 0f06 95       		.byte	0x95
 2574 0f07 00000000 		.4byte	.LFB294
 2575 0f0b 1E000000 		.4byte	.LFE294-.LFB294
 2576 0f0f 01       		.uleb128 0x1
 2577 0f10 9C       		.byte	0x9c
 2578 0f11 830F0000 		.4byte	0xf83
 2579 0f15 2E       		.uleb128 0x2e
 2580 0f16 637000   		.ascii	"cp\000"
 2581 0f19 02       		.byte	0x2
 2582 0f1a 95       		.byte	0x95
 2583 0f1b 200C0000 		.4byte	0xc20
 2584 0f1f E2010000 		.4byte	.LLST12
 2585 0f23 22       		.uleb128 0x22
 2586 0f24 A1060000 		.4byte	.LASF164
 2587 0f28 930F0000 		.4byte	0xf93
 2588 0f2c 34       		.uleb128 0x34
 2589 0f2d 5E130000 		.4byte	0x135e
 2590 0f31 08000000 		.4byte	.LBB81
 2591 0f35 02000000 		.4byte	.LBE81-.LBB81
 2592 0f39 02       		.byte	0x2
 2593 0f3a 9D       		.byte	0x9d
 2594 0f3b 490F0000 		.4byte	0xf49
 2595 0f3f 29       		.uleb128 0x29
 2596 0f40 6F130000 		.4byte	0x136f
 2597 0f44 00020000 		.4byte	.LLST13
 2598 0f48 00       		.byte	0
 2599 0f49 34       		.uleb128 0x34
 2600 0f4a EE120000 		.4byte	0x12ee
 2601 0f4e 10000000 		.4byte	.LBB83
 2602 0f52 06000000 		.4byte	.LBE83-.LBB83
 2603 0f56 02       		.byte	0x2
 2604 0f57 9E       		.byte	0x9e
 2605 0f58 790F0000 		.4byte	0xf79
 2606 0f5c 29       		.uleb128 0x29
 2607 0f5d FF120000 		.4byte	0x12ff
 2608 0f61 13020000 		.4byte	.LLST14
 2609 0f65 2B       		.uleb128 0x2b
 2610 0f66 10000000 		.4byte	.LBB84
 2611 0f6a 06000000 		.4byte	.LBE84-.LBB84
 2612 0f6e 36       		.uleb128 0x36
 2613 0f6f 0B130000 		.4byte	0x130b
 2614 0f73 26020000 		.4byte	.LLST15
 2615 0f77 00       		.byte	0
 2616 0f78 00       		.byte	0
 2617 0f79 2A       		.uleb128 0x2a
 2618 0f7a 1A000000 		.4byte	.LVL25
 2619 0f7e 0C140000 		.4byte	0x140c
 2620 0f82 00       		.byte	0
 2621 0f83 13       		.uleb128 0x13
 2622 0f84 FD070000 		.4byte	0x7fd
ARM GAS  /tmp/cc6aUrs9.s 			page 47


 2623 0f88 930F0000 		.4byte	0xf93
 2624 0f8c 14       		.uleb128 0x14
 2625 0f8d 91040000 		.4byte	0x491
 2626 0f91 10       		.byte	0x10
 2627 0f92 00       		.byte	0
 2628 0f93 05       		.uleb128 0x5
 2629 0f94 830F0000 		.4byte	0xf83
 2630 0f98 35       		.uleb128 0x35
 2631 0f99 A6050000 		.4byte	.LASF167
 2632 0f9d 02       		.byte	0x2
 2633 0f9e 82       		.byte	0x82
 2634 0f9f 00000000 		.4byte	.LFB293
 2635 0fa3 24000000 		.4byte	.LFE293-.LFB293
 2636 0fa7 01       		.uleb128 0x1
 2637 0fa8 9C       		.byte	0x9c
 2638 0fa9 80100000 		.4byte	0x1080
 2639 0fad 2E       		.uleb128 0x2e
 2640 0fae 637000   		.ascii	"cp\000"
 2641 0fb1 02       		.byte	0x2
 2642 0fb2 82       		.byte	0x82
 2643 0fb3 200C0000 		.4byte	0xc20
 2644 0fb7 39020000 		.4byte	.LLST16
 2645 0fbb 31       		.uleb128 0x31
 2646 0fbc E5120000 		.4byte	0x12e5
 2647 0fc0 02000000 		.4byte	.LBB95
 2648 0fc4 48000000 		.4byte	.Ldebug_ranges0+0x48
 2649 0fc8 02       		.byte	0x2
 2650 0fc9 84       		.byte	0x84
 2651 0fca 07100000 		.4byte	0x1007
 2652 0fce 32       		.uleb128 0x32
 2653 0fcf A5130000 		.4byte	0x13a5
 2654 0fd3 02000000 		.4byte	.LBB97
 2655 0fd7 60000000 		.4byte	.Ldebug_ranges0+0x60
 2656 0fdb 04       		.byte	0x4
 2657 0fdc 6301     		.2byte	0x163
 2658 0fde FD0F0000 		.4byte	0xffd
 2659 0fe2 33       		.uleb128 0x33
 2660 0fe3 AE130000 		.4byte	0x13ae
 2661 0fe7 02000000 		.4byte	.LBB98
 2662 0feb 60000000 		.4byte	.Ldebug_ranges0+0x60
 2663 0fef 10       		.byte	0x10
 2664 0ff0 6202     		.2byte	0x262
 2665 0ff2 29       		.uleb128 0x29
 2666 0ff3 BB130000 		.4byte	0x13bb
 2667 0ff7 57020000 		.4byte	.LLST17
 2668 0ffb 00       		.byte	0
 2669 0ffc 00       		.byte	0
 2670 0ffd 2A       		.uleb128 0x2a
 2671 0ffe 0E000000 		.4byte	.LVL28
 2672 1002 EA130000 		.4byte	0x13ea
 2673 1006 00       		.byte	0
 2674 1007 34       		.uleb128 0x34
 2675 1008 CA120000 		.4byte	0x12ca
 2676 100c 18000000 		.4byte	.LBB105
 2677 1010 0C000000 		.4byte	.LBE105-.LBB105
 2678 1014 02       		.byte	0x2
 2679 1015 87       		.byte	0x87
ARM GAS  /tmp/cc6aUrs9.s 			page 48


 2680 1016 62100000 		.4byte	0x1062
 2681 101a 2B       		.uleb128 0x2b
 2682 101b 18000000 		.4byte	.LBB106
 2683 101f 0C000000 		.4byte	.LBE106-.LBB106
 2684 1023 2C       		.uleb128 0x2c
 2685 1024 D7120000 		.4byte	0x12d7
 2686 1028 23       		.uleb128 0x23
 2687 1029 9C130000 		.4byte	0x139c
 2688 102d 1C000000 		.4byte	.LBB107
 2689 1031 08000000 		.4byte	.LBE107-.LBB107
 2690 1035 04       		.byte	0x4
 2691 1036 7A01     		.2byte	0x17a
 2692 1038 57100000 		.4byte	0x1057
 2693 103c 28       		.uleb128 0x28
 2694 103d AE130000 		.4byte	0x13ae
 2695 1041 1C000000 		.4byte	.LBB108
 2696 1045 08000000 		.4byte	.LBE108-.LBB108
 2697 1049 10       		.byte	0x10
 2698 104a 7502     		.2byte	0x275
 2699 104c 29       		.uleb128 0x29
 2700 104d BB130000 		.4byte	0x13bb
 2701 1051 6C020000 		.4byte	.LLST18
 2702 1055 00       		.byte	0
 2703 1056 00       		.byte	0
 2704 1057 2A       		.uleb128 0x2a
 2705 1058 1C000000 		.4byte	.LVL31
 2706 105c F5130000 		.4byte	0x13f5
 2707 1060 00       		.byte	0
 2708 1061 00       		.byte	0
 2709 1062 25       		.uleb128 0x25
 2710 1063 14000000 		.4byte	.LVL29
 2711 1067 000F0000 		.4byte	0xf00
 2712 106b 76100000 		.4byte	0x1076
 2713 106f 26       		.uleb128 0x26
 2714 1070 01       		.uleb128 0x1
 2715 1071 50       		.byte	0x50
 2716 1072 02       		.uleb128 0x2
 2717 1073 74       		.byte	0x74
 2718 1074 00       		.sleb128 0
 2719 1075 00       		.byte	0
 2720 1076 2A       		.uleb128 0x2a
 2721 1077 18000000 		.4byte	.LVL30
 2722 107b 18140000 		.4byte	0x1418
 2723 107f 00       		.byte	0
 2724 1080 35       		.uleb128 0x35
 2725 1081 3D060000 		.4byte	.LASF168
 2726 1085 02       		.byte	0x2
 2727 1086 6F       		.byte	0x6f
 2728 1087 00000000 		.4byte	.LFB292
 2729 108b 18000000 		.4byte	.LFE292-.LFB292
 2730 108f 01       		.uleb128 0x1
 2731 1090 9C       		.byte	0x9c
 2732 1091 17110000 		.4byte	0x1117
 2733 1095 2E       		.uleb128 0x2e
 2734 1096 637000   		.ascii	"cp\000"
 2735 1099 02       		.byte	0x2
 2736 109a 6F       		.byte	0x6f
ARM GAS  /tmp/cc6aUrs9.s 			page 49


 2737 109b 200C0000 		.4byte	0xc20
 2738 109f 80020000 		.4byte	.LLST8
 2739 10a3 22       		.uleb128 0x22
 2740 10a4 A1060000 		.4byte	.LASF164
 2741 10a8 27110000 		.4byte	0x1127
 2742 10ac 37       		.uleb128 0x37
 2743 10ad 06000000 		.4byte	.LBB78
 2744 10b1 12000000 		.4byte	.LBE78-.LBB78
 2745 10b5 FD100000 		.4byte	0x10fd
 2746 10b9 30       		.uleb128 0x30
 2747 10ba 747000   		.ascii	"tp\000"
 2748 10bd 02       		.byte	0x2
 2749 10be 75       		.byte	0x75
 2750 10bf 64020000 		.4byte	0x264
 2751 10c3 34       		.uleb128 0x34
 2752 10c4 EE120000 		.4byte	0x12ee
 2753 10c8 06000000 		.4byte	.LBB79
 2754 10cc 06000000 		.4byte	.LBE79-.LBB79
 2755 10d0 02       		.byte	0x2
 2756 10d1 75       		.byte	0x75
 2757 10d2 F3100000 		.4byte	0x10f3
 2758 10d6 29       		.uleb128 0x29
 2759 10d7 FF120000 		.4byte	0x12ff
 2760 10db AC020000 		.4byte	.LLST10
 2761 10df 2B       		.uleb128 0x2b
 2762 10e0 06000000 		.4byte	.LBB80
 2763 10e4 06000000 		.4byte	.LBE80-.LBB80
 2764 10e8 36       		.uleb128 0x36
 2765 10e9 0B130000 		.4byte	0x130b
 2766 10ed BF020000 		.4byte	.LLST11
 2767 10f1 00       		.byte	0
 2768 10f2 00       		.byte	0
 2769 10f3 38       		.uleb128 0x38
 2770 10f4 16000000 		.4byte	.LVL19
 2771 10f8 0C140000 		.4byte	0x140c
 2772 10fc 00       		.byte	0
 2773 10fd 39       		.uleb128 0x39
 2774 10fe 5E130000 		.4byte	0x135e
 2775 1102 00000000 		.4byte	.LBB76
 2776 1106 02000000 		.4byte	.LBE76-.LBB76
 2777 110a 02       		.byte	0x2
 2778 110b 74       		.byte	0x74
 2779 110c 29       		.uleb128 0x29
 2780 110d 6F130000 		.4byte	0x136f
 2781 1111 D2020000 		.4byte	.LLST9
 2782 1115 00       		.byte	0
 2783 1116 00       		.byte	0
 2784 1117 13       		.uleb128 0x13
 2785 1118 FD070000 		.4byte	0x7fd
 2786 111c 27110000 		.4byte	0x1127
 2787 1120 14       		.uleb128 0x14
 2788 1121 91040000 		.4byte	0x491
 2789 1125 0D       		.byte	0xd
 2790 1126 00       		.byte	0
 2791 1127 05       		.uleb128 0x5
 2792 1128 17110000 		.4byte	0x1117
 2793 112c 35       		.uleb128 0x35
ARM GAS  /tmp/cc6aUrs9.s 			page 50


 2794 112d 63030000 		.4byte	.LASF169
 2795 1131 02       		.byte	0x2
 2796 1132 59       		.byte	0x59
 2797 1133 00000000 		.4byte	.LFB291
 2798 1137 2C000000 		.4byte	.LFE291-.LFB291
 2799 113b 01       		.uleb128 0x1
 2800 113c 9C       		.byte	0x9c
 2801 113d 58120000 		.4byte	0x1258
 2802 1141 2E       		.uleb128 0x2e
 2803 1142 637000   		.ascii	"cp\000"
 2804 1145 02       		.byte	0x2
 2805 1146 59       		.byte	0x59
 2806 1147 200C0000 		.4byte	0xc20
 2807 114b E5020000 		.4byte	.LLST2
 2808 114f 22       		.uleb128 0x22
 2809 1150 A1060000 		.4byte	.LASF164
 2810 1154 68120000 		.4byte	0x1268
 2811 1158 31       		.uleb128 0x31
 2812 1159 E5120000 		.4byte	0x12e5
 2813 115d 02000000 		.4byte	.LBB55
 2814 1161 00000000 		.4byte	.Ldebug_ranges0+0
 2815 1165 02       		.byte	0x2
 2816 1166 5D       		.byte	0x5d
 2817 1167 A4110000 		.4byte	0x11a4
 2818 116b 32       		.uleb128 0x32
 2819 116c A5130000 		.4byte	0x13a5
 2820 1170 02000000 		.4byte	.LBB57
 2821 1174 18000000 		.4byte	.Ldebug_ranges0+0x18
 2822 1178 04       		.byte	0x4
 2823 1179 6301     		.2byte	0x163
 2824 117b 9A110000 		.4byte	0x119a
 2825 117f 33       		.uleb128 0x33
 2826 1180 AE130000 		.4byte	0x13ae
 2827 1184 02000000 		.4byte	.LBB58
 2828 1188 18000000 		.4byte	.Ldebug_ranges0+0x18
 2829 118c 10       		.byte	0x10
 2830 118d 6202     		.2byte	0x262
 2831 118f 29       		.uleb128 0x29
 2832 1190 BB130000 		.4byte	0x13bb
 2833 1194 03030000 		.4byte	.LLST3
 2834 1198 00       		.byte	0
 2835 1199 00       		.byte	0
 2836 119a 2A       		.uleb128 0x2a
 2837 119b 0E000000 		.4byte	.LVL7
 2838 119f EA130000 		.4byte	0x13ea
 2839 11a3 00       		.byte	0
 2840 11a4 34       		.uleb128 0x34
 2841 11a5 5E130000 		.4byte	0x135e
 2842 11a9 0E000000 		.4byte	.LBB65
 2843 11ad 02000000 		.4byte	.LBE65-.LBB65
 2844 11b1 02       		.byte	0x2
 2845 11b2 5E       		.byte	0x5e
 2846 11b3 C1110000 		.4byte	0x11c1
 2847 11b7 29       		.uleb128 0x29
 2848 11b8 6F130000 		.4byte	0x136f
 2849 11bc 18030000 		.4byte	.LLST4
 2850 11c0 00       		.byte	0
ARM GAS  /tmp/cc6aUrs9.s 			page 51


 2851 11c1 31       		.uleb128 0x31
 2852 11c2 EE120000 		.4byte	0x12ee
 2853 11c6 14000000 		.4byte	.LBB67
 2854 11ca 30000000 		.4byte	.Ldebug_ranges0+0x30
 2855 11ce 02       		.byte	0x2
 2856 11cf 5F       		.byte	0x5f
 2857 11d0 ED110000 		.4byte	0x11ed
 2858 11d4 29       		.uleb128 0x29
 2859 11d5 FF120000 		.4byte	0x12ff
 2860 11d9 2B030000 		.4byte	.LLST5
 2861 11dd 3A       		.uleb128 0x3a
 2862 11de 30000000 		.4byte	.Ldebug_ranges0+0x30
 2863 11e2 36       		.uleb128 0x36
 2864 11e3 0B130000 		.4byte	0x130b
 2865 11e7 3E030000 		.4byte	.LLST6
 2866 11eb 00       		.byte	0
 2867 11ec 00       		.byte	0
 2868 11ed 34       		.uleb128 0x34
 2869 11ee CA120000 		.4byte	0x12ca
 2870 11f2 20000000 		.4byte	.LBB71
 2871 11f6 0C000000 		.4byte	.LBE71-.LBB71
 2872 11fa 02       		.byte	0x2
 2873 11fb 61       		.byte	0x61
 2874 11fc 48120000 		.4byte	0x1248
 2875 1200 2B       		.uleb128 0x2b
 2876 1201 20000000 		.4byte	.LBB72
 2877 1205 0C000000 		.4byte	.LBE72-.LBB72
 2878 1209 2C       		.uleb128 0x2c
 2879 120a D7120000 		.4byte	0x12d7
 2880 120e 23       		.uleb128 0x23
 2881 120f 9C130000 		.4byte	0x139c
 2882 1213 24000000 		.4byte	.LBB73
 2883 1217 08000000 		.4byte	.LBE73-.LBB73
 2884 121b 04       		.byte	0x4
 2885 121c 7A01     		.2byte	0x17a
 2886 121e 3D120000 		.4byte	0x123d
 2887 1222 28       		.uleb128 0x28
 2888 1223 AE130000 		.4byte	0x13ae
 2889 1227 24000000 		.4byte	.LBB74
 2890 122b 08000000 		.4byte	.LBE74-.LBB74
 2891 122f 10       		.byte	0x10
 2892 1230 7502     		.2byte	0x275
 2893 1232 29       		.uleb128 0x29
 2894 1233 BB130000 		.4byte	0x13bb
 2895 1237 51030000 		.4byte	.LLST7
 2896 123b 00       		.byte	0
 2897 123c 00       		.byte	0
 2898 123d 2A       		.uleb128 0x2a
 2899 123e 24000000 		.4byte	.LVL12
 2900 1242 F5130000 		.4byte	0x13f5
 2901 1246 00       		.byte	0
 2902 1247 00       		.byte	0
 2903 1248 27       		.uleb128 0x27
 2904 1249 20000000 		.4byte	.LVL11
 2905 124d 24140000 		.4byte	0x1424
 2906 1251 26       		.uleb128 0x26
 2907 1252 01       		.uleb128 0x1
ARM GAS  /tmp/cc6aUrs9.s 			page 52


 2908 1253 51       		.byte	0x51
 2909 1254 01       		.uleb128 0x1
 2910 1255 30       		.byte	0x30
 2911 1256 00       		.byte	0
 2912 1257 00       		.byte	0
 2913 1258 13       		.uleb128 0x13
 2914 1259 FD070000 		.4byte	0x7fd
 2915 125d 68120000 		.4byte	0x1268
 2916 1261 14       		.uleb128 0x14
 2917 1262 91040000 		.4byte	0x491
 2918 1266 0C       		.byte	0xc
 2919 1267 00       		.byte	0
 2920 1268 05       		.uleb128 0x5
 2921 1269 58120000 		.4byte	0x1258
 2922 126d 35       		.uleb128 0x35
 2923 126e 92070000 		.4byte	.LASF170
 2924 1272 02       		.byte	0x2
 2925 1273 4B       		.byte	0x4b
 2926 1274 00000000 		.4byte	.LFB290
 2927 1278 06000000 		.4byte	.LFE290-.LFB290
 2928 127c 01       		.uleb128 0x1
 2929 127d 9C       		.byte	0x9c
 2930 127e B1120000 		.4byte	0x12b1
 2931 1282 3B       		.uleb128 0x3b
 2932 1283 637000   		.ascii	"cp\000"
 2933 1286 02       		.byte	0x2
 2934 1287 4B       		.byte	0x4b
 2935 1288 200C0000 		.4byte	0xc20
 2936 128c 01       		.uleb128 0x1
 2937 128d 50       		.byte	0x50
 2938 128e 22       		.uleb128 0x22
 2939 128f A1060000 		.4byte	.LASF164
 2940 1293 930F0000 		.4byte	0xf93
 2941 1297 39       		.uleb128 0x39
 2942 1298 82130000 		.4byte	0x1382
 2943 129c 00000000 		.4byte	.LBB39
 2944 12a0 06000000 		.4byte	.LBE39-.LBB39
 2945 12a4 02       		.byte	0x2
 2946 12a5 4F       		.byte	0x4f
 2947 12a6 29       		.uleb128 0x29
 2948 12a7 8F130000 		.4byte	0x138f
 2949 12ab 65030000 		.4byte	.LLST1
 2950 12af 00       		.byte	0
 2951 12b0 00       		.byte	0
 2952 12b1 3C       		.uleb128 0x3c
 2953 12b2 3C070000 		.4byte	.LASF171
 2954 12b6 05       		.byte	0x5
 2955 12b7 9F       		.byte	0x9f
 2956 12b8 47090000 		.4byte	0x947
 2957 12bc 03       		.byte	0x3
 2958 12bd 3D       		.uleb128 0x3d
 2959 12be C9080000 		.4byte	.LASF172
 2960 12c2 06       		.byte	0x6
 2961 12c3 1001     		.2byte	0x110
 2962 12c5 64020000 		.4byte	0x264
 2963 12c9 03       		.byte	0x3
 2964 12ca 3E       		.uleb128 0x3e
ARM GAS  /tmp/cc6aUrs9.s 			page 53


 2965 12cb 36090000 		.4byte	.LASF175
 2966 12cf 04       		.byte	0x4
 2967 12d0 6D01     		.2byte	0x16d
 2968 12d2 03       		.byte	0x3
 2969 12d3 E5120000 		.4byte	0x12e5
 2970 12d7 3F       		.uleb128 0x3f
 2971 12d8 A1060000 		.4byte	.LASF164
 2972 12dc 0D0E0000 		.4byte	0xe0d
 2973 12e0 36090000 		.4byte	.LASF175
 2974 12e4 00       		.byte	0
 2975 12e5 40       		.uleb128 0x40
 2976 12e6 B5060000 		.4byte	.LASF177
 2977 12ea 04       		.byte	0x4
 2978 12eb 6101     		.2byte	0x161
 2979 12ed 03       		.byte	0x3
 2980 12ee 41       		.uleb128 0x41
 2981 12ef B4070000 		.4byte	.LASF173
 2982 12f3 01       		.byte	0x1
 2983 12f4 5E02     		.2byte	0x25e
 2984 12f6 64020000 		.4byte	0x264
 2985 12fa 03       		.byte	0x3
 2986 12fb 17130000 		.4byte	0x1317
 2987 12ff 42       		.uleb128 0x42
 2988 1300 74717000 		.ascii	"tqp\000"
 2989 1304 01       		.byte	0x1
 2990 1305 5E02     		.2byte	0x25e
 2991 1307 17130000 		.4byte	0x1317
 2992 130b 20       		.uleb128 0x20
 2993 130c 747000   		.ascii	"tp\000"
 2994 130f 01       		.byte	0x1
 2995 1310 5F02     		.2byte	0x25f
 2996 1312 64020000 		.4byte	0x264
 2997 1316 00       		.byte	0
 2998 1317 0C       		.uleb128 0xc
 2999 1318 04       		.byte	0x4
 3000 1319 8E020000 		.4byte	0x28e
 3001 131d 43       		.uleb128 0x43
 3002 131e 5F090000 		.4byte	.LASF194
 3003 1322 01       		.byte	0x1
 3004 1323 4A02     		.2byte	0x24a
 3005 1325 00000000 		.4byte	.LFB172
 3006 1329 20000000 		.4byte	.LFE172-.LFB172
 3007 132d 01       		.uleb128 0x1
 3008 132e 9C       		.byte	0x9c
 3009 132f 5E130000 		.4byte	0x135e
 3010 1333 44       		.uleb128 0x44
 3011 1334 747000   		.ascii	"tp\000"
 3012 1337 01       		.byte	0x1
 3013 1338 4A02     		.2byte	0x24a
 3014 133a 64020000 		.4byte	0x264
 3015 133e 01       		.uleb128 0x1
 3016 133f 50       		.byte	0x50
 3017 1340 44       		.uleb128 0x44
 3018 1341 74717000 		.ascii	"tqp\000"
 3019 1345 01       		.byte	0x1
 3020 1346 4A02     		.2byte	0x24a
 3021 1348 17130000 		.4byte	0x1317
ARM GAS  /tmp/cc6aUrs9.s 			page 54


 3022 134c 01       		.uleb128 0x1
 3023 134d 51       		.byte	0x51
 3024 134e 21       		.uleb128 0x21
 3025 134f 637000   		.ascii	"cp\000"
 3026 1352 01       		.byte	0x1
 3027 1353 4C02     		.2byte	0x24c
 3028 1355 64020000 		.4byte	0x264
 3029 1359 78030000 		.4byte	.LLST0
 3030 135d 00       		.byte	0
 3031 135e 41       		.uleb128 0x41
 3032 135f D4020000 		.4byte	.LASF174
 3033 1363 01       		.byte	0x1
 3034 1364 3402     		.2byte	0x234
 3035 1366 71090000 		.4byte	0x971
 3036 136a 03       		.byte	0x3
 3037 136b 7C130000 		.4byte	0x137c
 3038 136f 42       		.uleb128 0x42
 3039 1370 74717000 		.ascii	"tqp\000"
 3040 1374 01       		.byte	0x1
 3041 1375 3402     		.2byte	0x234
 3042 1377 7C130000 		.4byte	0x137c
 3043 137b 00       		.byte	0
 3044 137c 0C       		.uleb128 0xc
 3045 137d 04       		.byte	0x4
 3046 137e 99020000 		.4byte	0x299
 3047 1382 3E       		.uleb128 0x3e
 3048 1383 7B000000 		.4byte	.LASF176
 3049 1387 01       		.byte	0x1
 3050 1388 1902     		.2byte	0x219
 3051 138a 03       		.byte	0x3
 3052 138b 9C130000 		.4byte	0x139c
 3053 138f 42       		.uleb128 0x42
 3054 1390 74717000 		.ascii	"tqp\000"
 3055 1394 01       		.byte	0x1
 3056 1395 1902     		.2byte	0x219
 3057 1397 17130000 		.4byte	0x1317
 3058 139b 00       		.byte	0
 3059 139c 40       		.uleb128 0x40
 3060 139d 9B020000 		.4byte	.LASF178
 3061 13a1 10       		.byte	0x10
 3062 13a2 7202     		.2byte	0x272
 3063 13a4 03       		.byte	0x3
 3064 13a5 40       		.uleb128 0x40
 3065 13a6 8F000000 		.4byte	.LASF179
 3066 13aa 10       		.byte	0x10
 3067 13ab 5A02     		.2byte	0x25a
 3068 13ad 03       		.byte	0x3
 3069 13ae 3E       		.uleb128 0x3e
 3070 13af D9070000 		.4byte	.LASF180
 3071 13b3 03       		.byte	0x3
 3072 13b4 EB01     		.2byte	0x1eb
 3073 13b6 03       		.byte	0x3
 3074 13b7 C8130000 		.4byte	0x13c8
 3075 13bb 45       		.uleb128 0x45
 3076 13bc 8C020000 		.4byte	.LASF181
 3077 13c0 03       		.byte	0x3
 3078 13c1 EB01     		.2byte	0x1eb
ARM GAS  /tmp/cc6aUrs9.s 			page 55


 3079 13c3 DF000000 		.4byte	0xdf
 3080 13c7 00       		.byte	0
 3081 13c8 46       		.uleb128 0x46
 3082 13c9 84030000 		.4byte	.LASF182
 3083 13cd 84030000 		.4byte	.LASF182
 3084 13d1 05       		.byte	0x5
 3085 13d2 6C       		.byte	0x6c
 3086 13d3 47       		.uleb128 0x47
 3087 13d4 21090000 		.4byte	.LASF183
 3088 13d8 21090000 		.4byte	.LASF183
 3089 13dc 01       		.byte	0x1
 3090 13dd D401     		.2byte	0x1d4
 3091 13df 46       		.uleb128 0x46
 3092 13e0 54090000 		.4byte	.LASF184
 3093 13e4 54090000 		.4byte	.LASF184
 3094 13e8 05       		.byte	0x5
 3095 13e9 68       		.byte	0x68
 3096 13ea 46       		.uleb128 0x46
 3097 13eb 46050000 		.4byte	.LASF185
 3098 13ef 46050000 		.4byte	.LASF185
 3099 13f3 12       		.byte	0x12
 3100 13f4 4F       		.byte	0x4f
 3101 13f5 46       		.uleb128 0x46
 3102 13f6 C4040000 		.4byte	.LASF186
 3103 13fa C4040000 		.4byte	.LASF186
 3104 13fe 12       		.byte	0x12
 3105 13ff 50       		.byte	0x50
 3106 1400 47       		.uleb128 0x47
 3107 1401 2F060000 		.4byte	.LASF187
 3108 1405 2F060000 		.4byte	.LASF187
 3109 1409 01       		.byte	0x1
 3110 140a D301     		.2byte	0x1d3
 3111 140c 47       		.uleb128 0x47
 3112 140d 1A070000 		.4byte	.LASF188
 3113 1411 1A070000 		.4byte	.LASF188
 3114 1415 01       		.byte	0x1
 3115 1416 D101     		.2byte	0x1d1
 3116 1418 47       		.uleb128 0x47
 3117 1419 04030000 		.4byte	.LASF189
 3118 141d 04030000 		.4byte	.LASF189
 3119 1421 01       		.byte	0x1
 3120 1422 D601     		.2byte	0x1d6
 3121 1424 47       		.uleb128 0x47
 3122 1425 3E080000 		.4byte	.LASF190
 3123 1429 3E080000 		.4byte	.LASF190
 3124 142d 01       		.byte	0x1
 3125 142e D501     		.2byte	0x1d5
 3126 1430 00       		.byte	0
 3127              		.section	.debug_abbrev,"",%progbits
 3128              	.Ldebug_abbrev0:
 3129 0000 01       		.uleb128 0x1
 3130 0001 11       		.uleb128 0x11
 3131 0002 01       		.byte	0x1
 3132 0003 25       		.uleb128 0x25
 3133 0004 0E       		.uleb128 0xe
 3134 0005 13       		.uleb128 0x13
 3135 0006 0B       		.uleb128 0xb
ARM GAS  /tmp/cc6aUrs9.s 			page 56


 3136 0007 03       		.uleb128 0x3
 3137 0008 0E       		.uleb128 0xe
 3138 0009 1B       		.uleb128 0x1b
 3139 000a 0E       		.uleb128 0xe
 3140 000b 55       		.uleb128 0x55
 3141 000c 17       		.uleb128 0x17
 3142 000d 11       		.uleb128 0x11
 3143 000e 01       		.uleb128 0x1
 3144 000f 10       		.uleb128 0x10
 3145 0010 17       		.uleb128 0x17
 3146 0011 00       		.byte	0
 3147 0012 00       		.byte	0
 3148 0013 02       		.uleb128 0x2
 3149 0014 24       		.uleb128 0x24
 3150 0015 00       		.byte	0
 3151 0016 0B       		.uleb128 0xb
 3152 0017 0B       		.uleb128 0xb
 3153 0018 3E       		.uleb128 0x3e
 3154 0019 0B       		.uleb128 0xb
 3155 001a 03       		.uleb128 0x3
 3156 001b 08       		.uleb128 0x8
 3157 001c 00       		.byte	0
 3158 001d 00       		.byte	0
 3159 001e 03       		.uleb128 0x3
 3160 001f 16       		.uleb128 0x16
 3161 0020 00       		.byte	0
 3162 0021 03       		.uleb128 0x3
 3163 0022 0E       		.uleb128 0xe
 3164 0023 3A       		.uleb128 0x3a
 3165 0024 0B       		.uleb128 0xb
 3166 0025 3B       		.uleb128 0x3b
 3167 0026 0B       		.uleb128 0xb
 3168 0027 49       		.uleb128 0x49
 3169 0028 13       		.uleb128 0x13
 3170 0029 00       		.byte	0
 3171 002a 00       		.byte	0
 3172 002b 04       		.uleb128 0x4
 3173 002c 24       		.uleb128 0x24
 3174 002d 00       		.byte	0
 3175 002e 0B       		.uleb128 0xb
 3176 002f 0B       		.uleb128 0xb
 3177 0030 3E       		.uleb128 0x3e
 3178 0031 0B       		.uleb128 0xb
 3179 0032 03       		.uleb128 0x3
 3180 0033 0E       		.uleb128 0xe
 3181 0034 00       		.byte	0
 3182 0035 00       		.byte	0
 3183 0036 05       		.uleb128 0x5
 3184 0037 26       		.uleb128 0x26
 3185 0038 00       		.byte	0
 3186 0039 49       		.uleb128 0x49
 3187 003a 13       		.uleb128 0x13
 3188 003b 00       		.byte	0
 3189 003c 00       		.byte	0
 3190 003d 06       		.uleb128 0x6
 3191 003e 35       		.uleb128 0x35
 3192 003f 00       		.byte	0
ARM GAS  /tmp/cc6aUrs9.s 			page 57


 3193 0040 49       		.uleb128 0x49
 3194 0041 13       		.uleb128 0x13
 3195 0042 00       		.byte	0
 3196 0043 00       		.byte	0
 3197 0044 07       		.uleb128 0x7
 3198 0045 13       		.uleb128 0x13
 3199 0046 01       		.byte	0x1
 3200 0047 03       		.uleb128 0x3
 3201 0048 0E       		.uleb128 0xe
 3202 0049 0B       		.uleb128 0xb
 3203 004a 0B       		.uleb128 0xb
 3204 004b 3A       		.uleb128 0x3a
 3205 004c 0B       		.uleb128 0xb
 3206 004d 3B       		.uleb128 0x3b
 3207 004e 0B       		.uleb128 0xb
 3208 004f 01       		.uleb128 0x1
 3209 0050 13       		.uleb128 0x13
 3210 0051 00       		.byte	0
 3211 0052 00       		.byte	0
 3212 0053 08       		.uleb128 0x8
 3213 0054 0D       		.uleb128 0xd
 3214 0055 00       		.byte	0
 3215 0056 03       		.uleb128 0x3
 3216 0057 0E       		.uleb128 0xe
 3217 0058 3A       		.uleb128 0x3a
 3218 0059 0B       		.uleb128 0xb
 3219 005a 3B       		.uleb128 0x3b
 3220 005b 0B       		.uleb128 0xb
 3221 005c 49       		.uleb128 0x49
 3222 005d 13       		.uleb128 0x13
 3223 005e 38       		.uleb128 0x38
 3224 005f 0B       		.uleb128 0xb
 3225 0060 00       		.byte	0
 3226 0061 00       		.byte	0
 3227 0062 09       		.uleb128 0x9
 3228 0063 0D       		.uleb128 0xd
 3229 0064 00       		.byte	0
 3230 0065 03       		.uleb128 0x3
 3231 0066 08       		.uleb128 0x8
 3232 0067 3A       		.uleb128 0x3a
 3233 0068 0B       		.uleb128 0xb
 3234 0069 3B       		.uleb128 0x3b
 3235 006a 0B       		.uleb128 0xb
 3236 006b 49       		.uleb128 0x49
 3237 006c 13       		.uleb128 0x13
 3238 006d 38       		.uleb128 0x38
 3239 006e 0B       		.uleb128 0xb
 3240 006f 00       		.byte	0
 3241 0070 00       		.byte	0
 3242 0071 0A       		.uleb128 0xa
 3243 0072 0D       		.uleb128 0xd
 3244 0073 00       		.byte	0
 3245 0074 03       		.uleb128 0x3
 3246 0075 08       		.uleb128 0x8
 3247 0076 3A       		.uleb128 0x3a
 3248 0077 0B       		.uleb128 0xb
 3249 0078 3B       		.uleb128 0x3b
ARM GAS  /tmp/cc6aUrs9.s 			page 58


 3250 0079 05       		.uleb128 0x5
 3251 007a 49       		.uleb128 0x49
 3252 007b 13       		.uleb128 0x13
 3253 007c 38       		.uleb128 0x38
 3254 007d 0B       		.uleb128 0xb
 3255 007e 00       		.byte	0
 3256 007f 00       		.byte	0
 3257 0080 0B       		.uleb128 0xb
 3258 0081 0D       		.uleb128 0xd
 3259 0082 00       		.byte	0
 3260 0083 03       		.uleb128 0x3
 3261 0084 0E       		.uleb128 0xe
 3262 0085 3A       		.uleb128 0x3a
 3263 0086 0B       		.uleb128 0xb
 3264 0087 3B       		.uleb128 0x3b
 3265 0088 05       		.uleb128 0x5
 3266 0089 49       		.uleb128 0x49
 3267 008a 13       		.uleb128 0x13
 3268 008b 38       		.uleb128 0x38
 3269 008c 0B       		.uleb128 0xb
 3270 008d 00       		.byte	0
 3271 008e 00       		.byte	0
 3272 008f 0C       		.uleb128 0xc
 3273 0090 0F       		.uleb128 0xf
 3274 0091 00       		.byte	0
 3275 0092 0B       		.uleb128 0xb
 3276 0093 0B       		.uleb128 0xb
 3277 0094 49       		.uleb128 0x49
 3278 0095 13       		.uleb128 0x13
 3279 0096 00       		.byte	0
 3280 0097 00       		.byte	0
 3281 0098 0D       		.uleb128 0xd
 3282 0099 13       		.uleb128 0x13
 3283 009a 01       		.byte	0x1
 3284 009b 03       		.uleb128 0x3
 3285 009c 0E       		.uleb128 0xe
 3286 009d 0B       		.uleb128 0xb
 3287 009e 0B       		.uleb128 0xb
 3288 009f 3A       		.uleb128 0x3a
 3289 00a0 0B       		.uleb128 0xb
 3290 00a1 3B       		.uleb128 0x3b
 3291 00a2 05       		.uleb128 0x5
 3292 00a3 01       		.uleb128 0x1
 3293 00a4 13       		.uleb128 0x13
 3294 00a5 00       		.byte	0
 3295 00a6 00       		.byte	0
 3296 00a7 0E       		.uleb128 0xe
 3297 00a8 15       		.uleb128 0x15
 3298 00a9 01       		.byte	0x1
 3299 00aa 27       		.uleb128 0x27
 3300 00ab 19       		.uleb128 0x19
 3301 00ac 01       		.uleb128 0x1
 3302 00ad 13       		.uleb128 0x13
 3303 00ae 00       		.byte	0
 3304 00af 00       		.byte	0
 3305 00b0 0F       		.uleb128 0xf
 3306 00b1 05       		.uleb128 0x5
ARM GAS  /tmp/cc6aUrs9.s 			page 59


 3307 00b2 00       		.byte	0
 3308 00b3 49       		.uleb128 0x49
 3309 00b4 13       		.uleb128 0x13
 3310 00b5 00       		.byte	0
 3311 00b6 00       		.byte	0
 3312 00b7 10       		.uleb128 0x10
 3313 00b8 0F       		.uleb128 0xf
 3314 00b9 00       		.byte	0
 3315 00ba 0B       		.uleb128 0xb
 3316 00bb 0B       		.uleb128 0xb
 3317 00bc 00       		.byte	0
 3318 00bd 00       		.byte	0
 3319 00be 11       		.uleb128 0x11
 3320 00bf 34       		.uleb128 0x34
 3321 00c0 00       		.byte	0
 3322 00c1 03       		.uleb128 0x3
 3323 00c2 0E       		.uleb128 0xe
 3324 00c3 3A       		.uleb128 0x3a
 3325 00c4 0B       		.uleb128 0xb
 3326 00c5 3B       		.uleb128 0x3b
 3327 00c6 05       		.uleb128 0x5
 3328 00c7 49       		.uleb128 0x49
 3329 00c8 13       		.uleb128 0x13
 3330 00c9 3F       		.uleb128 0x3f
 3331 00ca 19       		.uleb128 0x19
 3332 00cb 3C       		.uleb128 0x3c
 3333 00cc 19       		.uleb128 0x19
 3334 00cd 00       		.byte	0
 3335 00ce 00       		.byte	0
 3336 00cf 12       		.uleb128 0x12
 3337 00d0 34       		.uleb128 0x34
 3338 00d1 00       		.byte	0
 3339 00d2 03       		.uleb128 0x3
 3340 00d3 0E       		.uleb128 0xe
 3341 00d4 3A       		.uleb128 0x3a
 3342 00d5 0B       		.uleb128 0xb
 3343 00d6 3B       		.uleb128 0x3b
 3344 00d7 0B       		.uleb128 0xb
 3345 00d8 49       		.uleb128 0x49
 3346 00d9 13       		.uleb128 0x13
 3347 00da 3F       		.uleb128 0x3f
 3348 00db 19       		.uleb128 0x19
 3349 00dc 3C       		.uleb128 0x3c
 3350 00dd 19       		.uleb128 0x19
 3351 00de 00       		.byte	0
 3352 00df 00       		.byte	0
 3353 00e0 13       		.uleb128 0x13
 3354 00e1 01       		.uleb128 0x1
 3355 00e2 01       		.byte	0x1
 3356 00e3 49       		.uleb128 0x49
 3357 00e4 13       		.uleb128 0x13
 3358 00e5 01       		.uleb128 0x1
 3359 00e6 13       		.uleb128 0x13
 3360 00e7 00       		.byte	0
 3361 00e8 00       		.byte	0
 3362 00e9 14       		.uleb128 0x14
 3363 00ea 21       		.uleb128 0x21
ARM GAS  /tmp/cc6aUrs9.s 			page 60


 3364 00eb 00       		.byte	0
 3365 00ec 49       		.uleb128 0x49
 3366 00ed 13       		.uleb128 0x13
 3367 00ee 2F       		.uleb128 0x2f
 3368 00ef 0B       		.uleb128 0xb
 3369 00f0 00       		.byte	0
 3370 00f1 00       		.byte	0
 3371 00f2 15       		.uleb128 0x15
 3372 00f3 13       		.uleb128 0x13
 3373 00f4 01       		.byte	0x1
 3374 00f5 0B       		.uleb128 0xb
 3375 00f6 0B       		.uleb128 0xb
 3376 00f7 3A       		.uleb128 0x3a
 3377 00f8 0B       		.uleb128 0xb
 3378 00f9 3B       		.uleb128 0x3b
 3379 00fa 0B       		.uleb128 0xb
 3380 00fb 01       		.uleb128 0x1
 3381 00fc 13       		.uleb128 0x13
 3382 00fd 00       		.byte	0
 3383 00fe 00       		.byte	0
 3384 00ff 16       		.uleb128 0x16
 3385 0100 17       		.uleb128 0x17
 3386 0101 01       		.byte	0x1
 3387 0102 0B       		.uleb128 0xb
 3388 0103 0B       		.uleb128 0xb
 3389 0104 3A       		.uleb128 0x3a
 3390 0105 0B       		.uleb128 0xb
 3391 0106 3B       		.uleb128 0x3b
 3392 0107 0B       		.uleb128 0xb
 3393 0108 01       		.uleb128 0x1
 3394 0109 13       		.uleb128 0x13
 3395 010a 00       		.byte	0
 3396 010b 00       		.byte	0
 3397 010c 17       		.uleb128 0x17
 3398 010d 0D       		.uleb128 0xd
 3399 010e 00       		.byte	0
 3400 010f 03       		.uleb128 0x3
 3401 0110 0E       		.uleb128 0xe
 3402 0111 3A       		.uleb128 0x3a
 3403 0112 0B       		.uleb128 0xb
 3404 0113 3B       		.uleb128 0x3b
 3405 0114 0B       		.uleb128 0xb
 3406 0115 49       		.uleb128 0x49
 3407 0116 13       		.uleb128 0x13
 3408 0117 00       		.byte	0
 3409 0118 00       		.byte	0
 3410 0119 18       		.uleb128 0x18
 3411 011a 0D       		.uleb128 0xd
 3412 011b 00       		.byte	0
 3413 011c 03       		.uleb128 0x3
 3414 011d 0E       		.uleb128 0xe
 3415 011e 3A       		.uleb128 0x3a
 3416 011f 0B       		.uleb128 0xb
 3417 0120 3B       		.uleb128 0x3b
 3418 0121 05       		.uleb128 0x5
 3419 0122 49       		.uleb128 0x49
 3420 0123 13       		.uleb128 0x13
ARM GAS  /tmp/cc6aUrs9.s 			page 61


 3421 0124 00       		.byte	0
 3422 0125 00       		.byte	0
 3423 0126 19       		.uleb128 0x19
 3424 0127 34       		.uleb128 0x34
 3425 0128 00       		.byte	0
 3426 0129 03       		.uleb128 0x3
 3427 012a 08       		.uleb128 0x8
 3428 012b 3A       		.uleb128 0x3a
 3429 012c 0B       		.uleb128 0xb
 3430 012d 3B       		.uleb128 0x3b
 3431 012e 05       		.uleb128 0x5
 3432 012f 49       		.uleb128 0x49
 3433 0130 13       		.uleb128 0x13
 3434 0131 3F       		.uleb128 0x3f
 3435 0132 19       		.uleb128 0x19
 3436 0133 3C       		.uleb128 0x3c
 3437 0134 19       		.uleb128 0x19
 3438 0135 00       		.byte	0
 3439 0136 00       		.byte	0
 3440 0137 1A       		.uleb128 0x1a
 3441 0138 21       		.uleb128 0x21
 3442 0139 00       		.byte	0
 3443 013a 00       		.byte	0
 3444 013b 00       		.byte	0
 3445 013c 1B       		.uleb128 0x1b
 3446 013d 15       		.uleb128 0x15
 3447 013e 01       		.byte	0x1
 3448 013f 27       		.uleb128 0x27
 3449 0140 19       		.uleb128 0x19
 3450 0141 49       		.uleb128 0x49
 3451 0142 13       		.uleb128 0x13
 3452 0143 01       		.uleb128 0x1
 3453 0144 13       		.uleb128 0x13
 3454 0145 00       		.byte	0
 3455 0146 00       		.byte	0
 3456 0147 1C       		.uleb128 0x1c
 3457 0148 16       		.uleb128 0x16
 3458 0149 00       		.byte	0
 3459 014a 03       		.uleb128 0x3
 3460 014b 0E       		.uleb128 0xe
 3461 014c 3A       		.uleb128 0x3a
 3462 014d 0B       		.uleb128 0xb
 3463 014e 3B       		.uleb128 0x3b
 3464 014f 05       		.uleb128 0x5
 3465 0150 49       		.uleb128 0x49
 3466 0151 13       		.uleb128 0x13
 3467 0152 00       		.byte	0
 3468 0153 00       		.byte	0
 3469 0154 1D       		.uleb128 0x1d
 3470 0155 2E       		.uleb128 0x2e
 3471 0156 01       		.byte	0x1
 3472 0157 3F       		.uleb128 0x3f
 3473 0158 19       		.uleb128 0x19
 3474 0159 03       		.uleb128 0x3
 3475 015a 0E       		.uleb128 0xe
 3476 015b 3A       		.uleb128 0x3a
 3477 015c 0B       		.uleb128 0xb
ARM GAS  /tmp/cc6aUrs9.s 			page 62


 3478 015d 3B       		.uleb128 0x3b
 3479 015e 05       		.uleb128 0x5
 3480 015f 27       		.uleb128 0x27
 3481 0160 19       		.uleb128 0x19
 3482 0161 49       		.uleb128 0x49
 3483 0162 13       		.uleb128 0x13
 3484 0163 11       		.uleb128 0x11
 3485 0164 01       		.uleb128 0x1
 3486 0165 12       		.uleb128 0x12
 3487 0166 06       		.uleb128 0x6
 3488 0167 40       		.uleb128 0x40
 3489 0168 18       		.uleb128 0x18
 3490 0169 9742     		.uleb128 0x2117
 3491 016b 19       		.uleb128 0x19
 3492 016c 01       		.uleb128 0x1
 3493 016d 13       		.uleb128 0x13
 3494 016e 00       		.byte	0
 3495 016f 00       		.byte	0
 3496 0170 1E       		.uleb128 0x1e
 3497 0171 05       		.uleb128 0x5
 3498 0172 00       		.byte	0
 3499 0173 03       		.uleb128 0x3
 3500 0174 08       		.uleb128 0x8
 3501 0175 3A       		.uleb128 0x3a
 3502 0176 0B       		.uleb128 0xb
 3503 0177 3B       		.uleb128 0x3b
 3504 0178 05       		.uleb128 0x5
 3505 0179 49       		.uleb128 0x49
 3506 017a 13       		.uleb128 0x13
 3507 017b 02       		.uleb128 0x2
 3508 017c 17       		.uleb128 0x17
 3509 017d 00       		.byte	0
 3510 017e 00       		.byte	0
 3511 017f 1F       		.uleb128 0x1f
 3512 0180 05       		.uleb128 0x5
 3513 0181 00       		.byte	0
 3514 0182 03       		.uleb128 0x3
 3515 0183 0E       		.uleb128 0xe
 3516 0184 3A       		.uleb128 0x3a
 3517 0185 0B       		.uleb128 0xb
 3518 0186 3B       		.uleb128 0x3b
 3519 0187 05       		.uleb128 0x5
 3520 0188 49       		.uleb128 0x49
 3521 0189 13       		.uleb128 0x13
 3522 018a 02       		.uleb128 0x2
 3523 018b 17       		.uleb128 0x17
 3524 018c 00       		.byte	0
 3525 018d 00       		.byte	0
 3526 018e 20       		.uleb128 0x20
 3527 018f 34       		.uleb128 0x34
 3528 0190 00       		.byte	0
 3529 0191 03       		.uleb128 0x3
 3530 0192 08       		.uleb128 0x8
 3531 0193 3A       		.uleb128 0x3a
 3532 0194 0B       		.uleb128 0xb
 3533 0195 3B       		.uleb128 0x3b
 3534 0196 05       		.uleb128 0x5
ARM GAS  /tmp/cc6aUrs9.s 			page 63


 3535 0197 49       		.uleb128 0x49
 3536 0198 13       		.uleb128 0x13
 3537 0199 00       		.byte	0
 3538 019a 00       		.byte	0
 3539 019b 21       		.uleb128 0x21
 3540 019c 34       		.uleb128 0x34
 3541 019d 00       		.byte	0
 3542 019e 03       		.uleb128 0x3
 3543 019f 08       		.uleb128 0x8
 3544 01a0 3A       		.uleb128 0x3a
 3545 01a1 0B       		.uleb128 0xb
 3546 01a2 3B       		.uleb128 0x3b
 3547 01a3 05       		.uleb128 0x5
 3548 01a4 49       		.uleb128 0x49
 3549 01a5 13       		.uleb128 0x13
 3550 01a6 02       		.uleb128 0x2
 3551 01a7 17       		.uleb128 0x17
 3552 01a8 00       		.byte	0
 3553 01a9 00       		.byte	0
 3554 01aa 22       		.uleb128 0x22
 3555 01ab 34       		.uleb128 0x34
 3556 01ac 00       		.byte	0
 3557 01ad 03       		.uleb128 0x3
 3558 01ae 0E       		.uleb128 0xe
 3559 01af 49       		.uleb128 0x49
 3560 01b0 13       		.uleb128 0x13
 3561 01b1 34       		.uleb128 0x34
 3562 01b2 19       		.uleb128 0x19
 3563 01b3 00       		.byte	0
 3564 01b4 00       		.byte	0
 3565 01b5 23       		.uleb128 0x23
 3566 01b6 1D       		.uleb128 0x1d
 3567 01b7 01       		.byte	0x1
 3568 01b8 31       		.uleb128 0x31
 3569 01b9 13       		.uleb128 0x13
 3570 01ba 11       		.uleb128 0x11
 3571 01bb 01       		.uleb128 0x1
 3572 01bc 12       		.uleb128 0x12
 3573 01bd 06       		.uleb128 0x6
 3574 01be 58       		.uleb128 0x58
 3575 01bf 0B       		.uleb128 0xb
 3576 01c0 59       		.uleb128 0x59
 3577 01c1 05       		.uleb128 0x5
 3578 01c2 01       		.uleb128 0x1
 3579 01c3 13       		.uleb128 0x13
 3580 01c4 00       		.byte	0
 3581 01c5 00       		.byte	0
 3582 01c6 24       		.uleb128 0x24
 3583 01c7 1D       		.uleb128 0x1d
 3584 01c8 00       		.byte	0
 3585 01c9 31       		.uleb128 0x31
 3586 01ca 13       		.uleb128 0x13
 3587 01cb 11       		.uleb128 0x11
 3588 01cc 01       		.uleb128 0x1
 3589 01cd 12       		.uleb128 0x12
 3590 01ce 06       		.uleb128 0x6
 3591 01cf 58       		.uleb128 0x58
ARM GAS  /tmp/cc6aUrs9.s 			page 64


 3592 01d0 0B       		.uleb128 0xb
 3593 01d1 59       		.uleb128 0x59
 3594 01d2 0B       		.uleb128 0xb
 3595 01d3 00       		.byte	0
 3596 01d4 00       		.byte	0
 3597 01d5 25       		.uleb128 0x25
 3598 01d6 898201   		.uleb128 0x4109
 3599 01d9 01       		.byte	0x1
 3600 01da 11       		.uleb128 0x11
 3601 01db 01       		.uleb128 0x1
 3602 01dc 31       		.uleb128 0x31
 3603 01dd 13       		.uleb128 0x13
 3604 01de 01       		.uleb128 0x1
 3605 01df 13       		.uleb128 0x13
 3606 01e0 00       		.byte	0
 3607 01e1 00       		.byte	0
 3608 01e2 26       		.uleb128 0x26
 3609 01e3 8A8201   		.uleb128 0x410a
 3610 01e6 00       		.byte	0
 3611 01e7 02       		.uleb128 0x2
 3612 01e8 18       		.uleb128 0x18
 3613 01e9 9142     		.uleb128 0x2111
 3614 01eb 18       		.uleb128 0x18
 3615 01ec 00       		.byte	0
 3616 01ed 00       		.byte	0
 3617 01ee 27       		.uleb128 0x27
 3618 01ef 898201   		.uleb128 0x4109
 3619 01f2 01       		.byte	0x1
 3620 01f3 11       		.uleb128 0x11
 3621 01f4 01       		.uleb128 0x1
 3622 01f5 31       		.uleb128 0x31
 3623 01f6 13       		.uleb128 0x13
 3624 01f7 00       		.byte	0
 3625 01f8 00       		.byte	0
 3626 01f9 28       		.uleb128 0x28
 3627 01fa 1D       		.uleb128 0x1d
 3628 01fb 01       		.byte	0x1
 3629 01fc 31       		.uleb128 0x31
 3630 01fd 13       		.uleb128 0x13
 3631 01fe 11       		.uleb128 0x11
 3632 01ff 01       		.uleb128 0x1
 3633 0200 12       		.uleb128 0x12
 3634 0201 06       		.uleb128 0x6
 3635 0202 58       		.uleb128 0x58
 3636 0203 0B       		.uleb128 0xb
 3637 0204 59       		.uleb128 0x59
 3638 0205 05       		.uleb128 0x5
 3639 0206 00       		.byte	0
 3640 0207 00       		.byte	0
 3641 0208 29       		.uleb128 0x29
 3642 0209 05       		.uleb128 0x5
 3643 020a 00       		.byte	0
 3644 020b 31       		.uleb128 0x31
 3645 020c 13       		.uleb128 0x13
 3646 020d 02       		.uleb128 0x2
 3647 020e 17       		.uleb128 0x17
 3648 020f 00       		.byte	0
ARM GAS  /tmp/cc6aUrs9.s 			page 65


 3649 0210 00       		.byte	0
 3650 0211 2A       		.uleb128 0x2a
 3651 0212 898201   		.uleb128 0x4109
 3652 0215 00       		.byte	0
 3653 0216 11       		.uleb128 0x11
 3654 0217 01       		.uleb128 0x1
 3655 0218 31       		.uleb128 0x31
 3656 0219 13       		.uleb128 0x13
 3657 021a 00       		.byte	0
 3658 021b 00       		.byte	0
 3659 021c 2B       		.uleb128 0x2b
 3660 021d 0B       		.uleb128 0xb
 3661 021e 01       		.byte	0x1
 3662 021f 11       		.uleb128 0x11
 3663 0220 01       		.uleb128 0x1
 3664 0221 12       		.uleb128 0x12
 3665 0222 06       		.uleb128 0x6
 3666 0223 00       		.byte	0
 3667 0224 00       		.byte	0
 3668 0225 2C       		.uleb128 0x2c
 3669 0226 34       		.uleb128 0x34
 3670 0227 00       		.byte	0
 3671 0228 31       		.uleb128 0x31
 3672 0229 13       		.uleb128 0x13
 3673 022a 00       		.byte	0
 3674 022b 00       		.byte	0
 3675 022c 2D       		.uleb128 0x2d
 3676 022d 2E       		.uleb128 0x2e
 3677 022e 01       		.byte	0x1
 3678 022f 3F       		.uleb128 0x3f
 3679 0230 19       		.uleb128 0x19
 3680 0231 03       		.uleb128 0x3
 3681 0232 0E       		.uleb128 0xe
 3682 0233 3A       		.uleb128 0x3a
 3683 0234 0B       		.uleb128 0xb
 3684 0235 3B       		.uleb128 0x3b
 3685 0236 0B       		.uleb128 0xb
 3686 0237 27       		.uleb128 0x27
 3687 0238 19       		.uleb128 0x19
 3688 0239 49       		.uleb128 0x49
 3689 023a 13       		.uleb128 0x13
 3690 023b 11       		.uleb128 0x11
 3691 023c 01       		.uleb128 0x1
 3692 023d 12       		.uleb128 0x12
 3693 023e 06       		.uleb128 0x6
 3694 023f 40       		.uleb128 0x40
 3695 0240 18       		.uleb128 0x18
 3696 0241 9742     		.uleb128 0x2117
 3697 0243 19       		.uleb128 0x19
 3698 0244 01       		.uleb128 0x1
 3699 0245 13       		.uleb128 0x13
 3700 0246 00       		.byte	0
 3701 0247 00       		.byte	0
 3702 0248 2E       		.uleb128 0x2e
 3703 0249 05       		.uleb128 0x5
 3704 024a 00       		.byte	0
 3705 024b 03       		.uleb128 0x3
ARM GAS  /tmp/cc6aUrs9.s 			page 66


 3706 024c 08       		.uleb128 0x8
 3707 024d 3A       		.uleb128 0x3a
 3708 024e 0B       		.uleb128 0xb
 3709 024f 3B       		.uleb128 0x3b
 3710 0250 0B       		.uleb128 0xb
 3711 0251 49       		.uleb128 0x49
 3712 0252 13       		.uleb128 0x13
 3713 0253 02       		.uleb128 0x2
 3714 0254 17       		.uleb128 0x17
 3715 0255 00       		.byte	0
 3716 0256 00       		.byte	0
 3717 0257 2F       		.uleb128 0x2f
 3718 0258 34       		.uleb128 0x34
 3719 0259 00       		.byte	0
 3720 025a 03       		.uleb128 0x3
 3721 025b 08       		.uleb128 0x8
 3722 025c 3A       		.uleb128 0x3a
 3723 025d 0B       		.uleb128 0xb
 3724 025e 3B       		.uleb128 0x3b
 3725 025f 0B       		.uleb128 0xb
 3726 0260 49       		.uleb128 0x49
 3727 0261 13       		.uleb128 0x13
 3728 0262 02       		.uleb128 0x2
 3729 0263 17       		.uleb128 0x17
 3730 0264 00       		.byte	0
 3731 0265 00       		.byte	0
 3732 0266 30       		.uleb128 0x30
 3733 0267 34       		.uleb128 0x34
 3734 0268 00       		.byte	0
 3735 0269 03       		.uleb128 0x3
 3736 026a 08       		.uleb128 0x8
 3737 026b 3A       		.uleb128 0x3a
 3738 026c 0B       		.uleb128 0xb
 3739 026d 3B       		.uleb128 0x3b
 3740 026e 0B       		.uleb128 0xb
 3741 026f 49       		.uleb128 0x49
 3742 0270 13       		.uleb128 0x13
 3743 0271 00       		.byte	0
 3744 0272 00       		.byte	0
 3745 0273 31       		.uleb128 0x31
 3746 0274 1D       		.uleb128 0x1d
 3747 0275 01       		.byte	0x1
 3748 0276 31       		.uleb128 0x31
 3749 0277 13       		.uleb128 0x13
 3750 0278 52       		.uleb128 0x52
 3751 0279 01       		.uleb128 0x1
 3752 027a 55       		.uleb128 0x55
 3753 027b 17       		.uleb128 0x17
 3754 027c 58       		.uleb128 0x58
 3755 027d 0B       		.uleb128 0xb
 3756 027e 59       		.uleb128 0x59
 3757 027f 0B       		.uleb128 0xb
 3758 0280 01       		.uleb128 0x1
 3759 0281 13       		.uleb128 0x13
 3760 0282 00       		.byte	0
 3761 0283 00       		.byte	0
 3762 0284 32       		.uleb128 0x32
ARM GAS  /tmp/cc6aUrs9.s 			page 67


 3763 0285 1D       		.uleb128 0x1d
 3764 0286 01       		.byte	0x1
 3765 0287 31       		.uleb128 0x31
 3766 0288 13       		.uleb128 0x13
 3767 0289 52       		.uleb128 0x52
 3768 028a 01       		.uleb128 0x1
 3769 028b 55       		.uleb128 0x55
 3770 028c 17       		.uleb128 0x17
 3771 028d 58       		.uleb128 0x58
 3772 028e 0B       		.uleb128 0xb
 3773 028f 59       		.uleb128 0x59
 3774 0290 05       		.uleb128 0x5
 3775 0291 01       		.uleb128 0x1
 3776 0292 13       		.uleb128 0x13
 3777 0293 00       		.byte	0
 3778 0294 00       		.byte	0
 3779 0295 33       		.uleb128 0x33
 3780 0296 1D       		.uleb128 0x1d
 3781 0297 01       		.byte	0x1
 3782 0298 31       		.uleb128 0x31
 3783 0299 13       		.uleb128 0x13
 3784 029a 52       		.uleb128 0x52
 3785 029b 01       		.uleb128 0x1
 3786 029c 55       		.uleb128 0x55
 3787 029d 17       		.uleb128 0x17
 3788 029e 58       		.uleb128 0x58
 3789 029f 0B       		.uleb128 0xb
 3790 02a0 59       		.uleb128 0x59
 3791 02a1 05       		.uleb128 0x5
 3792 02a2 00       		.byte	0
 3793 02a3 00       		.byte	0
 3794 02a4 34       		.uleb128 0x34
 3795 02a5 1D       		.uleb128 0x1d
 3796 02a6 01       		.byte	0x1
 3797 02a7 31       		.uleb128 0x31
 3798 02a8 13       		.uleb128 0x13
 3799 02a9 11       		.uleb128 0x11
 3800 02aa 01       		.uleb128 0x1
 3801 02ab 12       		.uleb128 0x12
 3802 02ac 06       		.uleb128 0x6
 3803 02ad 58       		.uleb128 0x58
 3804 02ae 0B       		.uleb128 0xb
 3805 02af 59       		.uleb128 0x59
 3806 02b0 0B       		.uleb128 0xb
 3807 02b1 01       		.uleb128 0x1
 3808 02b2 13       		.uleb128 0x13
 3809 02b3 00       		.byte	0
 3810 02b4 00       		.byte	0
 3811 02b5 35       		.uleb128 0x35
 3812 02b6 2E       		.uleb128 0x2e
 3813 02b7 01       		.byte	0x1
 3814 02b8 3F       		.uleb128 0x3f
 3815 02b9 19       		.uleb128 0x19
 3816 02ba 03       		.uleb128 0x3
 3817 02bb 0E       		.uleb128 0xe
 3818 02bc 3A       		.uleb128 0x3a
 3819 02bd 0B       		.uleb128 0xb
ARM GAS  /tmp/cc6aUrs9.s 			page 68


 3820 02be 3B       		.uleb128 0x3b
 3821 02bf 0B       		.uleb128 0xb
 3822 02c0 27       		.uleb128 0x27
 3823 02c1 19       		.uleb128 0x19
 3824 02c2 11       		.uleb128 0x11
 3825 02c3 01       		.uleb128 0x1
 3826 02c4 12       		.uleb128 0x12
 3827 02c5 06       		.uleb128 0x6
 3828 02c6 40       		.uleb128 0x40
 3829 02c7 18       		.uleb128 0x18
 3830 02c8 9742     		.uleb128 0x2117
 3831 02ca 19       		.uleb128 0x19
 3832 02cb 01       		.uleb128 0x1
 3833 02cc 13       		.uleb128 0x13
 3834 02cd 00       		.byte	0
 3835 02ce 00       		.byte	0
 3836 02cf 36       		.uleb128 0x36
 3837 02d0 34       		.uleb128 0x34
 3838 02d1 00       		.byte	0
 3839 02d2 31       		.uleb128 0x31
 3840 02d3 13       		.uleb128 0x13
 3841 02d4 02       		.uleb128 0x2
 3842 02d5 17       		.uleb128 0x17
 3843 02d6 00       		.byte	0
 3844 02d7 00       		.byte	0
 3845 02d8 37       		.uleb128 0x37
 3846 02d9 0B       		.uleb128 0xb
 3847 02da 01       		.byte	0x1
 3848 02db 11       		.uleb128 0x11
 3849 02dc 01       		.uleb128 0x1
 3850 02dd 12       		.uleb128 0x12
 3851 02de 06       		.uleb128 0x6
 3852 02df 01       		.uleb128 0x1
 3853 02e0 13       		.uleb128 0x13
 3854 02e1 00       		.byte	0
 3855 02e2 00       		.byte	0
 3856 02e3 38       		.uleb128 0x38
 3857 02e4 898201   		.uleb128 0x4109
 3858 02e7 00       		.byte	0
 3859 02e8 11       		.uleb128 0x11
 3860 02e9 01       		.uleb128 0x1
 3861 02ea 9542     		.uleb128 0x2115
 3862 02ec 19       		.uleb128 0x19
 3863 02ed 31       		.uleb128 0x31
 3864 02ee 13       		.uleb128 0x13
 3865 02ef 00       		.byte	0
 3866 02f0 00       		.byte	0
 3867 02f1 39       		.uleb128 0x39
 3868 02f2 1D       		.uleb128 0x1d
 3869 02f3 01       		.byte	0x1
 3870 02f4 31       		.uleb128 0x31
 3871 02f5 13       		.uleb128 0x13
 3872 02f6 11       		.uleb128 0x11
 3873 02f7 01       		.uleb128 0x1
 3874 02f8 12       		.uleb128 0x12
 3875 02f9 06       		.uleb128 0x6
 3876 02fa 58       		.uleb128 0x58
ARM GAS  /tmp/cc6aUrs9.s 			page 69


 3877 02fb 0B       		.uleb128 0xb
 3878 02fc 59       		.uleb128 0x59
 3879 02fd 0B       		.uleb128 0xb
 3880 02fe 00       		.byte	0
 3881 02ff 00       		.byte	0
 3882 0300 3A       		.uleb128 0x3a
 3883 0301 0B       		.uleb128 0xb
 3884 0302 01       		.byte	0x1
 3885 0303 55       		.uleb128 0x55
 3886 0304 17       		.uleb128 0x17
 3887 0305 00       		.byte	0
 3888 0306 00       		.byte	0
 3889 0307 3B       		.uleb128 0x3b
 3890 0308 05       		.uleb128 0x5
 3891 0309 00       		.byte	0
 3892 030a 03       		.uleb128 0x3
 3893 030b 08       		.uleb128 0x8
 3894 030c 3A       		.uleb128 0x3a
 3895 030d 0B       		.uleb128 0xb
 3896 030e 3B       		.uleb128 0x3b
 3897 030f 0B       		.uleb128 0xb
 3898 0310 49       		.uleb128 0x49
 3899 0311 13       		.uleb128 0x13
 3900 0312 02       		.uleb128 0x2
 3901 0313 18       		.uleb128 0x18
 3902 0314 00       		.byte	0
 3903 0315 00       		.byte	0
 3904 0316 3C       		.uleb128 0x3c
 3905 0317 2E       		.uleb128 0x2e
 3906 0318 00       		.byte	0
 3907 0319 03       		.uleb128 0x3
 3908 031a 0E       		.uleb128 0xe
 3909 031b 3A       		.uleb128 0x3a
 3910 031c 0B       		.uleb128 0xb
 3911 031d 3B       		.uleb128 0x3b
 3912 031e 0B       		.uleb128 0xb
 3913 031f 27       		.uleb128 0x27
 3914 0320 19       		.uleb128 0x19
 3915 0321 49       		.uleb128 0x49
 3916 0322 13       		.uleb128 0x13
 3917 0323 20       		.uleb128 0x20
 3918 0324 0B       		.uleb128 0xb
 3919 0325 00       		.byte	0
 3920 0326 00       		.byte	0
 3921 0327 3D       		.uleb128 0x3d
 3922 0328 2E       		.uleb128 0x2e
 3923 0329 00       		.byte	0
 3924 032a 03       		.uleb128 0x3
 3925 032b 0E       		.uleb128 0xe
 3926 032c 3A       		.uleb128 0x3a
 3927 032d 0B       		.uleb128 0xb
 3928 032e 3B       		.uleb128 0x3b
 3929 032f 05       		.uleb128 0x5
 3930 0330 27       		.uleb128 0x27
 3931 0331 19       		.uleb128 0x19
 3932 0332 49       		.uleb128 0x49
 3933 0333 13       		.uleb128 0x13
ARM GAS  /tmp/cc6aUrs9.s 			page 70


 3934 0334 20       		.uleb128 0x20
 3935 0335 0B       		.uleb128 0xb
 3936 0336 00       		.byte	0
 3937 0337 00       		.byte	0
 3938 0338 3E       		.uleb128 0x3e
 3939 0339 2E       		.uleb128 0x2e
 3940 033a 01       		.byte	0x1
 3941 033b 03       		.uleb128 0x3
 3942 033c 0E       		.uleb128 0xe
 3943 033d 3A       		.uleb128 0x3a
 3944 033e 0B       		.uleb128 0xb
 3945 033f 3B       		.uleb128 0x3b
 3946 0340 05       		.uleb128 0x5
 3947 0341 27       		.uleb128 0x27
 3948 0342 19       		.uleb128 0x19
 3949 0343 20       		.uleb128 0x20
 3950 0344 0B       		.uleb128 0xb
 3951 0345 01       		.uleb128 0x1
 3952 0346 13       		.uleb128 0x13
 3953 0347 00       		.byte	0
 3954 0348 00       		.byte	0
 3955 0349 3F       		.uleb128 0x3f
 3956 034a 34       		.uleb128 0x34
 3957 034b 00       		.byte	0
 3958 034c 03       		.uleb128 0x3
 3959 034d 0E       		.uleb128 0xe
 3960 034e 49       		.uleb128 0x49
 3961 034f 13       		.uleb128 0x13
 3962 0350 34       		.uleb128 0x34
 3963 0351 19       		.uleb128 0x19
 3964 0352 1C       		.uleb128 0x1c
 3965 0353 0E       		.uleb128 0xe
 3966 0354 00       		.byte	0
 3967 0355 00       		.byte	0
 3968 0356 40       		.uleb128 0x40
 3969 0357 2E       		.uleb128 0x2e
 3970 0358 00       		.byte	0
 3971 0359 03       		.uleb128 0x3
 3972 035a 0E       		.uleb128 0xe
 3973 035b 3A       		.uleb128 0x3a
 3974 035c 0B       		.uleb128 0xb
 3975 035d 3B       		.uleb128 0x3b
 3976 035e 05       		.uleb128 0x5
 3977 035f 27       		.uleb128 0x27
 3978 0360 19       		.uleb128 0x19
 3979 0361 20       		.uleb128 0x20
 3980 0362 0B       		.uleb128 0xb
 3981 0363 00       		.byte	0
 3982 0364 00       		.byte	0
 3983 0365 41       		.uleb128 0x41
 3984 0366 2E       		.uleb128 0x2e
 3985 0367 01       		.byte	0x1
 3986 0368 03       		.uleb128 0x3
 3987 0369 0E       		.uleb128 0xe
 3988 036a 3A       		.uleb128 0x3a
 3989 036b 0B       		.uleb128 0xb
 3990 036c 3B       		.uleb128 0x3b
ARM GAS  /tmp/cc6aUrs9.s 			page 71


 3991 036d 05       		.uleb128 0x5
 3992 036e 27       		.uleb128 0x27
 3993 036f 19       		.uleb128 0x19
 3994 0370 49       		.uleb128 0x49
 3995 0371 13       		.uleb128 0x13
 3996 0372 20       		.uleb128 0x20
 3997 0373 0B       		.uleb128 0xb
 3998 0374 01       		.uleb128 0x1
 3999 0375 13       		.uleb128 0x13
 4000 0376 00       		.byte	0
 4001 0377 00       		.byte	0
 4002 0378 42       		.uleb128 0x42
 4003 0379 05       		.uleb128 0x5
 4004 037a 00       		.byte	0
 4005 037b 03       		.uleb128 0x3
 4006 037c 08       		.uleb128 0x8
 4007 037d 3A       		.uleb128 0x3a
 4008 037e 0B       		.uleb128 0xb
 4009 037f 3B       		.uleb128 0x3b
 4010 0380 05       		.uleb128 0x5
 4011 0381 49       		.uleb128 0x49
 4012 0382 13       		.uleb128 0x13
 4013 0383 00       		.byte	0
 4014 0384 00       		.byte	0
 4015 0385 43       		.uleb128 0x43
 4016 0386 2E       		.uleb128 0x2e
 4017 0387 01       		.byte	0x1
 4018 0388 03       		.uleb128 0x3
 4019 0389 0E       		.uleb128 0xe
 4020 038a 3A       		.uleb128 0x3a
 4021 038b 0B       		.uleb128 0xb
 4022 038c 3B       		.uleb128 0x3b
 4023 038d 05       		.uleb128 0x5
 4024 038e 27       		.uleb128 0x27
 4025 038f 19       		.uleb128 0x19
 4026 0390 11       		.uleb128 0x11
 4027 0391 01       		.uleb128 0x1
 4028 0392 12       		.uleb128 0x12
 4029 0393 06       		.uleb128 0x6
 4030 0394 40       		.uleb128 0x40
 4031 0395 18       		.uleb128 0x18
 4032 0396 9742     		.uleb128 0x2117
 4033 0398 19       		.uleb128 0x19
 4034 0399 01       		.uleb128 0x1
 4035 039a 13       		.uleb128 0x13
 4036 039b 00       		.byte	0
 4037 039c 00       		.byte	0
 4038 039d 44       		.uleb128 0x44
 4039 039e 05       		.uleb128 0x5
 4040 039f 00       		.byte	0
 4041 03a0 03       		.uleb128 0x3
 4042 03a1 08       		.uleb128 0x8
 4043 03a2 3A       		.uleb128 0x3a
 4044 03a3 0B       		.uleb128 0xb
 4045 03a4 3B       		.uleb128 0x3b
 4046 03a5 05       		.uleb128 0x5
 4047 03a6 49       		.uleb128 0x49
ARM GAS  /tmp/cc6aUrs9.s 			page 72


 4048 03a7 13       		.uleb128 0x13
 4049 03a8 02       		.uleb128 0x2
 4050 03a9 18       		.uleb128 0x18
 4051 03aa 00       		.byte	0
 4052 03ab 00       		.byte	0
 4053 03ac 45       		.uleb128 0x45
 4054 03ad 05       		.uleb128 0x5
 4055 03ae 00       		.byte	0
 4056 03af 03       		.uleb128 0x3
 4057 03b0 0E       		.uleb128 0xe
 4058 03b1 3A       		.uleb128 0x3a
 4059 03b2 0B       		.uleb128 0xb
 4060 03b3 3B       		.uleb128 0x3b
 4061 03b4 05       		.uleb128 0x5
 4062 03b5 49       		.uleb128 0x49
 4063 03b6 13       		.uleb128 0x13
 4064 03b7 00       		.byte	0
 4065 03b8 00       		.byte	0
 4066 03b9 46       		.uleb128 0x46
 4067 03ba 2E       		.uleb128 0x2e
 4068 03bb 00       		.byte	0
 4069 03bc 3F       		.uleb128 0x3f
 4070 03bd 19       		.uleb128 0x19
 4071 03be 3C       		.uleb128 0x3c
 4072 03bf 19       		.uleb128 0x19
 4073 03c0 6E       		.uleb128 0x6e
 4074 03c1 0E       		.uleb128 0xe
 4075 03c2 03       		.uleb128 0x3
 4076 03c3 0E       		.uleb128 0xe
 4077 03c4 3A       		.uleb128 0x3a
 4078 03c5 0B       		.uleb128 0xb
 4079 03c6 3B       		.uleb128 0x3b
 4080 03c7 0B       		.uleb128 0xb
 4081 03c8 00       		.byte	0
 4082 03c9 00       		.byte	0
 4083 03ca 47       		.uleb128 0x47
 4084 03cb 2E       		.uleb128 0x2e
 4085 03cc 00       		.byte	0
 4086 03cd 3F       		.uleb128 0x3f
 4087 03ce 19       		.uleb128 0x19
 4088 03cf 3C       		.uleb128 0x3c
 4089 03d0 19       		.uleb128 0x19
 4090 03d1 6E       		.uleb128 0x6e
 4091 03d2 0E       		.uleb128 0xe
 4092 03d3 03       		.uleb128 0x3
 4093 03d4 0E       		.uleb128 0xe
 4094 03d5 3A       		.uleb128 0x3a
 4095 03d6 0B       		.uleb128 0xb
 4096 03d7 3B       		.uleb128 0x3b
 4097 03d8 05       		.uleb128 0x5
 4098 03d9 00       		.byte	0
 4099 03da 00       		.byte	0
 4100 03db 00       		.byte	0
 4101              		.section	.debug_loc,"",%progbits
 4102              	.Ldebug_loc0:
 4103              	.LLST26:
 4104 0000 00000000 		.4byte	.LVL49
ARM GAS  /tmp/cc6aUrs9.s 			page 73


 4105 0004 0C000000 		.4byte	.LVL50
 4106 0008 0100     		.2byte	0x1
 4107 000a 50       		.byte	0x50
 4108 000b 0C000000 		.4byte	.LVL50
 4109 000f 28000000 		.4byte	.LVL54
 4110 0013 0100     		.2byte	0x1
 4111 0015 54       		.byte	0x54
 4112 0016 28000000 		.4byte	.LVL54
 4113 001a 38000000 		.4byte	.LFE298
 4114 001e 0400     		.2byte	0x4
 4115 0020 F3       		.byte	0xf3
 4116 0021 01       		.uleb128 0x1
 4117 0022 50       		.byte	0x50
 4118 0023 9F       		.byte	0x9f
 4119 0024 00000000 		.4byte	0
 4120 0028 00000000 		.4byte	0
 4121              	.LLST27:
 4122 002c 00000000 		.4byte	.LVL49
 4123 0030 11000000 		.4byte	.LVL51-1
 4124 0034 0100     		.2byte	0x1
 4125 0036 51       		.byte	0x51
 4126 0037 11000000 		.4byte	.LVL51-1
 4127 003b 34000000 		.4byte	.LVL57
 4128 003f 0100     		.2byte	0x1
 4129 0041 57       		.byte	0x57
 4130 0042 34000000 		.4byte	.LVL57
 4131 0046 38000000 		.4byte	.LFE298
 4132 004a 0400     		.2byte	0x4
 4133 004c F3       		.byte	0xf3
 4134 004d 01       		.uleb128 0x1
 4135 004e 51       		.byte	0x51
 4136 004f 9F       		.byte	0x9f
 4137 0050 00000000 		.4byte	0
 4138 0054 00000000 		.4byte	0
 4139              	.LLST28:
 4140 0058 28000000 		.4byte	.LVL54
 4141 005c 2C000000 		.4byte	.LVL55
 4142 0060 0100     		.2byte	0x1
 4143 0062 50       		.byte	0x50
 4144 0063 2C000000 		.4byte	.LVL55
 4145 0067 34000000 		.4byte	.LVL57
 4146 006b 0100     		.2byte	0x1
 4147 006d 54       		.byte	0x54
 4148 006e 34000000 		.4byte	.LVL57
 4149 0072 38000000 		.4byte	.LFE298
 4150 0076 0100     		.2byte	0x1
 4151 0078 50       		.byte	0x50
 4152 0079 00000000 		.4byte	0
 4153 007d 00000000 		.4byte	0
 4154              	.LLST29:
 4155 0081 00000000 		.4byte	.LVL58
 4156 0085 0F000000 		.4byte	.LVL60-1
 4157 0089 0100     		.2byte	0x1
 4158 008b 50       		.byte	0x50
 4159 008c 0F000000 		.4byte	.LVL60-1
 4160 0090 1A000000 		.4byte	.LVL62
 4161 0094 0100     		.2byte	0x1
ARM GAS  /tmp/cc6aUrs9.s 			page 74


 4162 0096 54       		.byte	0x54
 4163 0097 1A000000 		.4byte	.LVL62
 4164 009b 28000000 		.4byte	.LFE297
 4165 009f 0400     		.2byte	0x4
 4166 00a1 F3       		.byte	0xf3
 4167 00a2 01       		.uleb128 0x1
 4168 00a3 50       		.byte	0x50
 4169 00a4 9F       		.byte	0x9f
 4170 00a5 00000000 		.4byte	0
 4171 00a9 00000000 		.4byte	0
 4172              	.LLST30:
 4173 00ad 00000000 		.4byte	.LVL58
 4174 00b1 0F000000 		.4byte	.LVL60-1
 4175 00b5 0100     		.2byte	0x1
 4176 00b7 51       		.byte	0x51
 4177 00b8 0F000000 		.4byte	.LVL60-1
 4178 00bc 28000000 		.4byte	.LFE297
 4179 00c0 0100     		.2byte	0x1
 4180 00c2 55       		.byte	0x55
 4181 00c3 00000000 		.4byte	0
 4182 00c7 00000000 		.4byte	0
 4183              	.LLST31:
 4184 00cb 1A000000 		.4byte	.LVL62
 4185 00cf 1D000000 		.4byte	.LVL63-1
 4186 00d3 0100     		.2byte	0x1
 4187 00d5 50       		.byte	0x50
 4188 00d6 1D000000 		.4byte	.LVL63-1
 4189 00da 28000000 		.4byte	.LFE297
 4190 00de 0100     		.2byte	0x1
 4191 00e0 54       		.byte	0x54
 4192 00e1 00000000 		.4byte	0
 4193 00e5 00000000 		.4byte	0
 4194              	.LLST32:
 4195 00e9 00000000 		.4byte	.LVL58
 4196 00ed 0C000000 		.4byte	.LVL59
 4197 00f1 0300     		.2byte	0x3
 4198 00f3 08       		.byte	0x8
 4199 00f4 20       		.byte	0x20
 4200 00f5 9F       		.byte	0x9f
 4201 00f6 00000000 		.4byte	0
 4202 00fa 00000000 		.4byte	0
 4203              	.LLST33:
 4204 00fe 1E000000 		.4byte	.LVL63
 4205 0102 24000000 		.4byte	.LVL64
 4206 0106 0200     		.2byte	0x2
 4207 0108 30       		.byte	0x30
 4208 0109 9F       		.byte	0x9f
 4209 010a 00000000 		.4byte	0
 4210 010e 00000000 		.4byte	0
 4211              	.LLST19:
 4212 0112 00000000 		.4byte	.LVL33
 4213 0116 0C000000 		.4byte	.LVL35
 4214 011a 0100     		.2byte	0x1
 4215 011c 50       		.byte	0x50
 4216 011d 0C000000 		.4byte	.LVL35
 4217 0121 2C000000 		.4byte	.LVL41
 4218 0125 0100     		.2byte	0x1
ARM GAS  /tmp/cc6aUrs9.s 			page 75


 4219 0127 56       		.byte	0x56
 4220 0128 2C000000 		.4byte	.LVL41
 4221 012c 30000000 		.4byte	.LFE296
 4222 0130 0400     		.2byte	0x4
 4223 0132 F3       		.byte	0xf3
 4224 0133 01       		.uleb128 0x1
 4225 0134 50       		.byte	0x50
 4226 0135 9F       		.byte	0x9f
 4227 0136 00000000 		.4byte	0
 4228 013a 00000000 		.4byte	0
 4229              	.LLST20:
 4230 013e 06000000 		.4byte	.LVL34
 4231 0142 22000000 		.4byte	.LVL39
 4232 0146 0100     		.2byte	0x1
 4233 0148 54       		.byte	0x54
 4234 0149 00000000 		.4byte	0
 4235 014d 00000000 		.4byte	0
 4236              	.LLST21:
 4237 0151 22000000 		.4byte	.LVL39
 4238 0155 2C000000 		.4byte	.LVL41
 4239 0159 0100     		.2byte	0x1
 4240 015b 54       		.byte	0x54
 4241 015c 2C000000 		.4byte	.LVL41
 4242 0160 30000000 		.4byte	.LFE296
 4243 0164 0100     		.2byte	0x1
 4244 0166 50       		.byte	0x50
 4245 0167 00000000 		.4byte	0
 4246 016b 00000000 		.4byte	0
 4247              	.LLST22:
 4248 016f 00000000 		.4byte	.LVL42
 4249 0173 0D000000 		.4byte	.LVL44-1
 4250 0177 0100     		.2byte	0x1
 4251 0179 50       		.byte	0x50
 4252 017a 0D000000 		.4byte	.LVL44-1
 4253 017e 16000000 		.4byte	.LVL46
 4254 0182 0100     		.2byte	0x1
 4255 0184 54       		.byte	0x54
 4256 0185 16000000 		.4byte	.LVL46
 4257 0189 24000000 		.4byte	.LFE295
 4258 018d 0400     		.2byte	0x4
 4259 018f F3       		.byte	0xf3
 4260 0190 01       		.uleb128 0x1
 4261 0191 50       		.byte	0x50
 4262 0192 9F       		.byte	0x9f
 4263 0193 00000000 		.4byte	0
 4264 0197 00000000 		.4byte	0
 4265              	.LLST23:
 4266 019b 16000000 		.4byte	.LVL46
 4267 019f 19000000 		.4byte	.LVL47-1
 4268 01a3 0100     		.2byte	0x1
 4269 01a5 50       		.byte	0x50
 4270 01a6 19000000 		.4byte	.LVL47-1
 4271 01aa 24000000 		.4byte	.LFE295
 4272 01ae 0100     		.2byte	0x1
 4273 01b0 54       		.byte	0x54
 4274 01b1 00000000 		.4byte	0
 4275 01b5 00000000 		.4byte	0
ARM GAS  /tmp/cc6aUrs9.s 			page 76


 4276              	.LLST24:
 4277 01b9 00000000 		.4byte	.LVL42
 4278 01bd 0A000000 		.4byte	.LVL43
 4279 01c1 0300     		.2byte	0x3
 4280 01c3 08       		.byte	0x8
 4281 01c4 20       		.byte	0x20
 4282 01c5 9F       		.byte	0x9f
 4283 01c6 00000000 		.4byte	0
 4284 01ca 00000000 		.4byte	0
 4285              	.LLST25:
 4286 01ce 1A000000 		.4byte	.LVL47
 4287 01d2 20000000 		.4byte	.LVL48
 4288 01d6 0200     		.2byte	0x2
 4289 01d8 30       		.byte	0x30
 4290 01d9 9F       		.byte	0x9f
 4291 01da 00000000 		.4byte	0
 4292 01de 00000000 		.4byte	0
 4293              	.LLST12:
 4294 01e2 00000000 		.4byte	.LVL20
 4295 01e6 08000000 		.4byte	.LVL21
 4296 01ea 0100     		.2byte	0x1
 4297 01ec 50       		.byte	0x50
 4298 01ed 08000000 		.4byte	.LVL21
 4299 01f1 1E000000 		.4byte	.LFE294
 4300 01f5 0100     		.2byte	0x1
 4301 01f7 54       		.byte	0x54
 4302 01f8 00000000 		.4byte	0
 4303 01fc 00000000 		.4byte	0
 4304              	.LLST13:
 4305 0200 08000000 		.4byte	.LVL21
 4306 0204 0A000000 		.4byte	.LVL22
 4307 0208 0100     		.2byte	0x1
 4308 020a 54       		.byte	0x54
 4309 020b 00000000 		.4byte	0
 4310 020f 00000000 		.4byte	0
 4311              	.LLST14:
 4312 0213 10000000 		.4byte	.LVL23
 4313 0217 16000000 		.4byte	.LVL24
 4314 021b 0100     		.2byte	0x1
 4315 021d 54       		.byte	0x54
 4316 021e 00000000 		.4byte	0
 4317 0222 00000000 		.4byte	0
 4318              	.LLST15:
 4319 0226 10000000 		.4byte	.LVL23
 4320 022a 16000000 		.4byte	.LVL24
 4321 022e 0100     		.2byte	0x1
 4322 0230 50       		.byte	0x50
 4323 0231 00000000 		.4byte	0
 4324 0235 00000000 		.4byte	0
 4325              	.LLST16:
 4326 0239 00000000 		.4byte	.LVL26
 4327 023d 0D000000 		.4byte	.LVL28-1
 4328 0241 0100     		.2byte	0x1
 4329 0243 50       		.byte	0x50
 4330 0244 0D000000 		.4byte	.LVL28-1
 4331 0248 24000000 		.4byte	.LFE293
 4332 024c 0100     		.2byte	0x1
ARM GAS  /tmp/cc6aUrs9.s 			page 77


 4333 024e 54       		.byte	0x54
 4334 024f 00000000 		.4byte	0
 4335 0253 00000000 		.4byte	0
 4336              	.LLST17:
 4337 0257 00000000 		.4byte	.LVL26
 4338 025b 0A000000 		.4byte	.LVL27
 4339 025f 0300     		.2byte	0x3
 4340 0261 08       		.byte	0x8
 4341 0262 20       		.byte	0x20
 4342 0263 9F       		.byte	0x9f
 4343 0264 00000000 		.4byte	0
 4344 0268 00000000 		.4byte	0
 4345              	.LLST18:
 4346 026c 1C000000 		.4byte	.LVL31
 4347 0270 22000000 		.4byte	.LVL32
 4348 0274 0200     		.2byte	0x2
 4349 0276 30       		.byte	0x30
 4350 0277 9F       		.byte	0x9f
 4351 0278 00000000 		.4byte	0
 4352 027c 00000000 		.4byte	0
 4353              	.LLST8:
 4354 0280 00000000 		.4byte	.LVL14
 4355 0284 12000000 		.4byte	.LVL18
 4356 0288 0100     		.2byte	0x1
 4357 028a 50       		.byte	0x50
 4358 028b 12000000 		.4byte	.LVL18
 4359 028f 16000000 		.4byte	.LVL19
 4360 0293 0400     		.2byte	0x4
 4361 0295 F3       		.byte	0xf3
 4362 0296 01       		.uleb128 0x1
 4363 0297 50       		.byte	0x50
 4364 0298 9F       		.byte	0x9f
 4365 0299 16000000 		.4byte	.LVL19
 4366 029d 18000000 		.4byte	.LFE292
 4367 02a1 0100     		.2byte	0x1
 4368 02a3 50       		.byte	0x50
 4369 02a4 00000000 		.4byte	0
 4370 02a8 00000000 		.4byte	0
 4371              	.LLST10:
 4372 02ac 06000000 		.4byte	.LVL16
 4373 02b0 0C000000 		.4byte	.LVL17
 4374 02b4 0100     		.2byte	0x1
 4375 02b6 50       		.byte	0x50
 4376 02b7 00000000 		.4byte	0
 4377 02bb 00000000 		.4byte	0
 4378              	.LLST11:
 4379 02bf 06000000 		.4byte	.LVL16
 4380 02c3 0C000000 		.4byte	.LVL17
 4381 02c7 0100     		.2byte	0x1
 4382 02c9 53       		.byte	0x53
 4383 02ca 00000000 		.4byte	0
 4384 02ce 00000000 		.4byte	0
 4385              	.LLST9:
 4386 02d2 00000000 		.4byte	.LVL14
 4387 02d6 02000000 		.4byte	.LVL15
 4388 02da 0100     		.2byte	0x1
 4389 02dc 50       		.byte	0x50
ARM GAS  /tmp/cc6aUrs9.s 			page 78


 4390 02dd 00000000 		.4byte	0
 4391 02e1 00000000 		.4byte	0
 4392              	.LLST2:
 4393 02e5 00000000 		.4byte	.LVL5
 4394 02e9 0D000000 		.4byte	.LVL7-1
 4395 02ed 0100     		.2byte	0x1
 4396 02ef 50       		.byte	0x50
 4397 02f0 0D000000 		.4byte	.LVL7-1
 4398 02f4 2C000000 		.4byte	.LFE291
 4399 02f8 0100     		.2byte	0x1
 4400 02fa 54       		.byte	0x54
 4401 02fb 00000000 		.4byte	0
 4402 02ff 00000000 		.4byte	0
 4403              	.LLST3:
 4404 0303 00000000 		.4byte	.LVL5
 4405 0307 0A000000 		.4byte	.LVL6
 4406 030b 0300     		.2byte	0x3
 4407 030d 08       		.byte	0x8
 4408 030e 20       		.byte	0x20
 4409 030f 9F       		.byte	0x9f
 4410 0310 00000000 		.4byte	0
 4411 0314 00000000 		.4byte	0
 4412              	.LLST4:
 4413 0318 0E000000 		.4byte	.LVL7
 4414 031c 10000000 		.4byte	.LVL8
 4415 0320 0100     		.2byte	0x1
 4416 0322 54       		.byte	0x54
 4417 0323 00000000 		.4byte	0
 4418 0327 00000000 		.4byte	0
 4419              	.LLST5:
 4420 032b 14000000 		.4byte	.LVL9
 4421 032f 1C000000 		.4byte	.LVL10
 4422 0333 0100     		.2byte	0x1
 4423 0335 54       		.byte	0x54
 4424 0336 00000000 		.4byte	0
 4425 033a 00000000 		.4byte	0
 4426              	.LLST6:
 4427 033e 14000000 		.4byte	.LVL9
 4428 0342 1C000000 		.4byte	.LVL10
 4429 0346 0100     		.2byte	0x1
 4430 0348 50       		.byte	0x50
 4431 0349 00000000 		.4byte	0
 4432 034d 00000000 		.4byte	0
 4433              	.LLST7:
 4434 0351 24000000 		.4byte	.LVL12
 4435 0355 2A000000 		.4byte	.LVL13
 4436 0359 0200     		.2byte	0x2
 4437 035b 30       		.byte	0x30
 4438 035c 9F       		.byte	0x9f
 4439 035d 00000000 		.4byte	0
 4440 0361 00000000 		.4byte	0
 4441              	.LLST1:
 4442 0365 00000000 		.4byte	.LVL3
 4443 0369 04000000 		.4byte	.LVL4
 4444 036d 0100     		.2byte	0x1
 4445 036f 50       		.byte	0x50
 4446 0370 00000000 		.4byte	0
ARM GAS  /tmp/cc6aUrs9.s 			page 79


 4447 0374 00000000 		.4byte	0
 4448              	.LLST0:
 4449 0378 00000000 		.4byte	.LVL0
 4450 037c 04000000 		.4byte	.LVL1
 4451 0380 0100     		.2byte	0x1
 4452 0382 51       		.byte	0x51
 4453 0383 04000000 		.4byte	.LVL1
 4454 0387 20000000 		.4byte	.LFE172
 4455 038b 0100     		.2byte	0x1
 4456 038d 53       		.byte	0x53
 4457 038e 00000000 		.4byte	0
 4458 0392 00000000 		.4byte	0
 4459              		.section	.debug_aranges,"",%progbits
 4460 0000 64000000 		.4byte	0x64
 4461 0004 0200     		.2byte	0x2
 4462 0006 00000000 		.4byte	.Ldebug_info0
 4463 000a 04       		.byte	0x4
 4464 000b 00       		.byte	0
 4465 000c 0000     		.2byte	0
 4466 000e 0000     		.2byte	0
 4467 0010 00000000 		.4byte	.LFB172
 4468 0014 20000000 		.4byte	.LFE172-.LFB172
 4469 0018 00000000 		.4byte	.LFB290
 4470 001c 06000000 		.4byte	.LFE290-.LFB290
 4471 0020 00000000 		.4byte	.LFB291
 4472 0024 2C000000 		.4byte	.LFE291-.LFB291
 4473 0028 00000000 		.4byte	.LFB292
 4474 002c 18000000 		.4byte	.LFE292-.LFB292
 4475 0030 00000000 		.4byte	.LFB294
 4476 0034 1E000000 		.4byte	.LFE294-.LFB294
 4477 0038 00000000 		.4byte	.LFB293
 4478 003c 24000000 		.4byte	.LFE293-.LFB293
 4479 0040 00000000 		.4byte	.LFB296
 4480 0044 30000000 		.4byte	.LFE296-.LFB296
 4481 0048 00000000 		.4byte	.LFB295
 4482 004c 24000000 		.4byte	.LFE295-.LFB295
 4483 0050 00000000 		.4byte	.LFB298
 4484 0054 38000000 		.4byte	.LFE298-.LFB298
 4485 0058 00000000 		.4byte	.LFB297
 4486 005c 28000000 		.4byte	.LFE297-.LFB297
 4487 0060 00000000 		.4byte	0
 4488 0064 00000000 		.4byte	0
 4489              		.section	.debug_ranges,"",%progbits
 4490              	.Ldebug_ranges0:
 4491 0000 02000000 		.4byte	.LBB55
 4492 0004 04000000 		.4byte	.LBE55
 4493 0008 06000000 		.4byte	.LBB64
 4494 000c 0E000000 		.4byte	.LBE64
 4495 0010 00000000 		.4byte	0
 4496 0014 00000000 		.4byte	0
 4497 0018 02000000 		.4byte	.LBB57
 4498 001c 04000000 		.4byte	.LBE57
 4499 0020 06000000 		.4byte	.LBB62
 4500 0024 0A000000 		.4byte	.LBE62
 4501 0028 00000000 		.4byte	0
 4502 002c 00000000 		.4byte	0
 4503 0030 14000000 		.4byte	.LBB67
ARM GAS  /tmp/cc6aUrs9.s 			page 80


 4504 0034 18000000 		.4byte	.LBE67
 4505 0038 1A000000 		.4byte	.LBB70
 4506 003c 1C000000 		.4byte	.LBE70
 4507 0040 00000000 		.4byte	0
 4508 0044 00000000 		.4byte	0
 4509 0048 02000000 		.4byte	.LBB95
 4510 004c 04000000 		.4byte	.LBE95
 4511 0050 06000000 		.4byte	.LBB104
 4512 0054 0E000000 		.4byte	.LBE104
 4513 0058 00000000 		.4byte	0
 4514 005c 00000000 		.4byte	0
 4515 0060 02000000 		.4byte	.LBB97
 4516 0064 04000000 		.4byte	.LBE97
 4517 0068 06000000 		.4byte	.LBB102
 4518 006c 0A000000 		.4byte	.LBE102
 4519 0070 00000000 		.4byte	0
 4520 0074 00000000 		.4byte	0
 4521 0078 02000000 		.4byte	.LBB122
 4522 007c 04000000 		.4byte	.LBE122
 4523 0080 06000000 		.4byte	.LBB131
 4524 0084 0E000000 		.4byte	.LBE131
 4525 0088 00000000 		.4byte	0
 4526 008c 00000000 		.4byte	0
 4527 0090 02000000 		.4byte	.LBB124
 4528 0094 04000000 		.4byte	.LBE124
 4529 0098 06000000 		.4byte	.LBB129
 4530 009c 0A000000 		.4byte	.LBE129
 4531 00a0 00000000 		.4byte	0
 4532 00a4 00000000 		.4byte	0
 4533 00a8 00000000 		.4byte	.LFB172
 4534 00ac 20000000 		.4byte	.LFE172
 4535 00b0 00000000 		.4byte	.LFB290
 4536 00b4 06000000 		.4byte	.LFE290
 4537 00b8 00000000 		.4byte	.LFB291
 4538 00bc 2C000000 		.4byte	.LFE291
 4539 00c0 00000000 		.4byte	.LFB292
 4540 00c4 18000000 		.4byte	.LFE292
 4541 00c8 00000000 		.4byte	.LFB294
 4542 00cc 1E000000 		.4byte	.LFE294
 4543 00d0 00000000 		.4byte	.LFB293
 4544 00d4 24000000 		.4byte	.LFE293
 4545 00d8 00000000 		.4byte	.LFB296
 4546 00dc 30000000 		.4byte	.LFE296
 4547 00e0 00000000 		.4byte	.LFB295
 4548 00e4 24000000 		.4byte	.LFE295
 4549 00e8 00000000 		.4byte	.LFB298
 4550 00ec 38000000 		.4byte	.LFE298
 4551 00f0 00000000 		.4byte	.LFB297
 4552 00f4 28000000 		.4byte	.LFE297
 4553 00f8 00000000 		.4byte	0
 4554 00fc 00000000 		.4byte	0
 4555              		.section	.debug_line,"",%progbits
 4556              	.Ldebug_line0:
 4557 0000 84050000 		.section	.debug_str,"MS",%progbits,1
 4557      02007403 
 4557      00000201 
 4557      FB0E0D00 
ARM GAS  /tmp/cc6aUrs9.s 			page 81


 4557      01010101 
 4558              	.LASF56:
 4559 0000 72656164 		.ascii	"ready_list_t\000"
 4559      795F6C69 
 4559      73745F74 
 4559      00
 4560              	.LASF4:
 4561 000d 73697A65 		.ascii	"size_t\000"
 4561      5F7400
 4562              	.LASF62:
 4563 0014 64656C74 		.ascii	"delta\000"
 4563      6100
 4564              	.LASF99:
 4565 001a 7264796D 		.ascii	"rdymsg\000"
 4565      736700
 4566              	.LASF20:
 4567 0021 75696E74 		.ascii	"uint64_t\000"
 4567      36345F74 
 4567      00
 4568              	.LASF75:
 4569 002a 6B65726E 		.ascii	"kernel_stats\000"
 4569      656C5F73 
 4569      74617473 
 4569      00
 4570              	.LASF5:
 4571 0037 5F5F7569 		.ascii	"__uint8_t\000"
 4571      6E74385F 
 4571      7400
 4572              	.LASF55:
 4573 0041 70726576 		.ascii	"prev\000"
 4573      00
 4574              	.LASF86:
 4575 0046 706F7274 		.ascii	"port_intctx\000"
 4575      5F696E74 
 4575      63747800 
 4576              	.LASF54:
 4577 0052 63685F74 		.ascii	"ch_threads_queue\000"
 4577      68726561 
 4577      64735F71 
 4577      75657565 
 4577      00
 4578              	.LASF67:
 4579 0063 73797374 		.ascii	"system_debug_t\000"
 4579      656D5F64 
 4579      65627567 
 4579      5F7400
 4580              	.LASF144:
 4581 0072 70726F76 		.ascii	"provider\000"
 4581      69646572 
 4581      00
 4582              	.LASF176:
 4583 007b 71756575 		.ascii	"queue_init\000"
 4583      655F696E 
 4583      697400
 4584              	.LASF154:
 4585 0086 73656D5F 		.ascii	"sem_list\000"
 4585      6C697374 
ARM GAS  /tmp/cc6aUrs9.s 			page 82


 4585      00
 4586              	.LASF179:
 4587 008f 706F7274 		.ascii	"port_lock\000"
 4587      5F6C6F63 
 4587      6B00
 4588              	.LASF85:
 4589 0099 706F7274 		.ascii	"port_context\000"
 4589      5F636F6E 
 4589      74657874 
 4589      00
 4590              	.LASF90:
 4591 00a6 776F7273 		.ascii	"worst\000"
 4591      7400
 4592              	.LASF93:
 4593 00ac 74696D65 		.ascii	"time_measurement_t\000"
 4593      5F6D6561 
 4593      73757265 
 4593      6D656E74 
 4593      5F7400
 4594              	.LASF166:
 4595 00bf 6368436F 		.ascii	"chCondBroadcastI\000"
 4595      6E644272 
 4595      6F616463 
 4595      61737449 
 4595      00
 4596              	.LASF15:
 4597 00d0 6C6F6E67 		.ascii	"long long unsigned int\000"
 4597      206C6F6E 
 4597      6720756E 
 4597      7369676E 
 4597      65642069 
 4598              	.LASF100:
 4599 00e7 65786974 		.ascii	"exitcode\000"
 4599      636F6465 
 4599      00
 4600              	.LASF74:
 4601 00f0 6D61696E 		.ascii	"mainthread\000"
 4601      74687265 
 4601      616400
 4602              	.LASF103:
 4603 00fb 73656E74 		.ascii	"sentmsg\000"
 4603      6D736700 
 4604              	.LASF64:
 4605 0103 76697274 		.ascii	"virtual_timers_list_t\000"
 4605      75616C5F 
 4605      74696D65 
 4605      72735F6C 
 4605      6973745F 
 4606              	.LASF79:
 4607 0119 49544D5F 		.ascii	"ITM_RxBuffer\000"
 4607      52784275 
 4607      66666572 
 4607      00
 4608              	.LASF147:
 4609 0126 64796E5F 		.ascii	"dyn_element_t\000"
 4609      656C656D 
 4609      656E745F 
ARM GAS  /tmp/cc6aUrs9.s 			page 83


 4609      7400
 4610              	.LASF52:
 4611 0134 6E657874 		.ascii	"next\000"
 4611      00
 4612              	.LASF22:
 4613 0139 72747469 		.ascii	"rttime_t\000"
 4613      6D655F74 
 4613      00
 4614              	.LASF1:
 4615 0142 6C6F6E67 		.ascii	"long long int\000"
 4615      206C6F6E 
 4615      6720696E 
 4615      7400
 4616              	.LASF3:
 4617 0150 7369676E 		.ascii	"signed char\000"
 4617      65642063 
 4617      68617200 
 4618              	.LASF134:
 4619 015c 636F6E64 		.ascii	"condition_variable_t\000"
 4619      6974696F 
 4619      6E5F7661 
 4619      72696162 
 4619      6C655F74 
 4620              	.LASF114:
 4621 0171 73697A65 		.ascii	"size\000"
 4621      00
 4622              	.LASF191:
 4623 0176 474E5520 		.ascii	"GNU C11 6.3.1 20170620 (release) [ARM/embedded-6-br"
 4623      43313120 
 4623      362E332E 
 4623      31203230 
 4623      31373036 
 4624 01a9 616E6368 		.ascii	"anch revision 249437] -mcpu=cortex-m4 -mfloat-abi=h"
 4624      20726576 
 4624      6973696F 
 4624      6E203234 
 4624      39343337 
 4625 01dc 61726420 		.ascii	"ard -mfpu=fpv4-sp-d16 -mno-thumb-interwork -mthumb "
 4625      2D6D6670 
 4625      753D6670 
 4625      76342D73 
 4625      702D6431 
 4626 020f 2D67202D 		.ascii	"-g -Os -fomit-frame-pointer -falign-functions=16 -f"
 4626      4F73202D 
 4626      666F6D69 
 4626      742D6672 
 4626      616D652D 
 4627 0242 66756E63 		.ascii	"function-sections -fdata-sections -fno-common -fsin"
 4627      74696F6E 
 4627      2D736563 
 4627      74696F6E 
 4627      73202D66 
 4628 0275 676C652D 		.ascii	"gle-precision-constant\000"
 4628      70726563 
 4628      6973696F 
 4628      6E2D636F 
 4628      6E737461 
ARM GAS  /tmp/cc6aUrs9.s 			page 84


 4629              	.LASF181:
 4630 028c 62617365 		.ascii	"basePri\000"
 4630      50726900 
 4631              	.LASF73:
 4632 0294 76746C69 		.ascii	"vtlist\000"
 4632      737400
 4633              	.LASF178:
 4634 029b 706F7274 		.ascii	"port_unlock\000"
 4634      5F756E6C 
 4634      6F636B00 
 4635              	.LASF42:
 4636 02a7 6D736771 		.ascii	"msgqueue\000"
 4636      75657565 
 4636      00
 4637              	.LASF38:
 4638 02b0 73746174 		.ascii	"state\000"
 4638      6500
 4639              	.LASF11:
 4640 02b6 6C6F6E67 		.ascii	"long int\000"
 4640      20696E74 
 4640      00
 4641              	.LASF163:
 4642 02bf 6368436F 		.ascii	"chCondWaitS\000"
 4642      6E645761 
 4642      69745300 
 4643              	.LASF24:
 4644 02cb 74737461 		.ascii	"tstate_t\000"
 4644      74655F74 
 4644      00
 4645              	.LASF174:
 4646 02d4 71756575 		.ascii	"queue_notempty\000"
 4646      655F6E6F 
 4646      74656D70 
 4646      747900
 4647              	.LASF63:
 4648 02e3 66756E63 		.ascii	"func\000"
 4648      00
 4649              	.LASF47:
 4650 02e8 73746174 		.ascii	"stats\000"
 4650      7300
 4651              	.LASF130:
 4652 02ee 63686465 		.ascii	"chdebug_t\000"
 4652      6275675F 
 4652      7400
 4653              	.LASF128:
 4654 02f8 6F66665F 		.ascii	"off_preempt\000"
 4654      70726565 
 4654      6D707400 
 4655              	.LASF189:
 4656 0304 63685363 		.ascii	"chSchRescheduleS\000"
 4656      68526573 
 4656      63686564 
 4656      756C6553 
 4656      00
 4657              	.LASF12:
 4658 0315 5F5F7569 		.ascii	"__uint32_t\000"
 4658      6E743332 
ARM GAS  /tmp/cc6aUrs9.s 			page 85


 4658      5F7400
 4659              	.LASF83:
 4660 0320 72656761 		.ascii	"regarm_t\000"
 4660      726D5F74 
 4660      00
 4661              	.LASF156:
 4662 0329 6D62785F 		.ascii	"mbx_list\000"
 4662      6C697374 
 4662      00
 4663              	.LASF68:
 4664 0332 63685F73 		.ascii	"ch_system_debug\000"
 4664      79737465 
 4664      6D5F6465 
 4664      62756700 
 4665              	.LASF41:
 4666 0342 77616974 		.ascii	"waiting\000"
 4666      696E6700 
 4667              	.LASF72:
 4668 034a 726C6973 		.ascii	"rlist\000"
 4668      7400
 4669              	.LASF113:
 4670 0350 7A65726F 		.ascii	"zero\000"
 4670      00
 4671              	.LASF132:
 4672 0355 6D757465 		.ascii	"mutex_t\000"
 4672      785F7400 
 4673              	.LASF143:
 4674 035d 616C6967 		.ascii	"align\000"
 4674      6E00
 4675              	.LASF169:
 4676 0363 6368436F 		.ascii	"chCondSignal\000"
 4676      6E645369 
 4676      676E616C 
 4676      00
 4677              	.LASF77:
 4678 0370 73797369 		.ascii	"sysinterval_t\000"
 4678      6E746572 
 4678      76616C5F 
 4678      7400
 4679              	.LASF29:
 4680 037e 636E745F 		.ascii	"cnt_t\000"
 4680      7400
 4681              	.LASF182:
 4682 0384 63684D74 		.ascii	"chMtxUnlockS\000"
 4682      78556E6C 
 4682      6F636B53 
 4682      00
 4683              	.LASF0:
 4684 0391 756E7369 		.ascii	"unsigned int\000"
 4684      676E6564 
 4684      20696E74 
 4684      00
 4685              	.LASF17:
 4686 039e 75696E74 		.ascii	"uint16_t\000"
 4686      31365F74 
 4686      00
 4687              	.LASF80:
ARM GAS  /tmp/cc6aUrs9.s 			page 86


 4688 03a7 53797374 		.ascii	"SystemCoreClock\000"
 4688      656D436F 
 4688      7265436C 
 4688      6F636B00 
 4689              	.LASF104:
 4690 03b7 77747365 		.ascii	"wtsemp\000"
 4690      6D7000
 4691              	.LASF140:
 4692 03be 63685F6D 		.ascii	"ch_memcore\000"
 4692      656D636F 
 4692      726500
 4693              	.LASF102:
 4694 03c9 77747472 		.ascii	"wttrp\000"
 4694      7000
 4695              	.LASF131:
 4696 03cf 63685F64 		.ascii	"ch_debug\000"
 4696      65627567 
 4696      00
 4697              	.LASF160:
 4698 03d8 74696D65 		.ascii	"timeout\000"
 4698      6F757400 
 4699              	.LASF145:
 4700 03e0 6D656D6F 		.ascii	"memory_pool_t\000"
 4700      72795F70 
 4700      6F6F6C5F 
 4700      7400
 4701              	.LASF94:
 4702 03ee 6E5F6972 		.ascii	"n_irq\000"
 4702      7100
 4703              	.LASF32:
 4704 03f4 71756575 		.ascii	"queue\000"
 4704      6500
 4705              	.LASF46:
 4706 03fa 6D706F6F 		.ascii	"mpool\000"
 4706      6C00
 4707              	.LASF127:
 4708 0400 6F66665F 		.ascii	"off_refs\000"
 4708      72656673 
 4708      00
 4709              	.LASF98:
 4710 0409 6B65726E 		.ascii	"kernel_stats_t\000"
 4710      656C5F73 
 4710      74617473 
 4710      5F7400
 4711              	.LASF50:
 4712 0418 63685F74 		.ascii	"ch_thread\000"
 4712      68726561 
 4712      6400
 4713              	.LASF27:
 4714 0422 6D73675F 		.ascii	"msg_t\000"
 4714      7400
 4715              	.LASF91:
 4716 0428 6C617374 		.ascii	"last\000"
 4716      00
 4717              	.LASF30:
 4718 042d 75636E74 		.ascii	"ucnt_t\000"
 4718      5F7400
ARM GAS  /tmp/cc6aUrs9.s 			page 87


 4719              	.LASF43:
 4720 0434 6570656E 		.ascii	"epending\000"
 4720      64696E67 
 4720      00
 4721              	.LASF36:
 4722 043d 6E616D65 		.ascii	"name\000"
 4722      00
 4723              	.LASF70:
 4724 0442 63685F73 		.ascii	"ch_system_t\000"
 4724      79737465 
 4724      6D5F7400 
 4725              	.LASF120:
 4726 044e 6F66665F 		.ascii	"off_ctx\000"
 4726      63747800 
 4727              	.LASF23:
 4728 0456 746D6F64 		.ascii	"tmode_t\000"
 4728      655F7400 
 4729              	.LASF97:
 4730 045e 6D5F6372 		.ascii	"m_crit_isr\000"
 4730      69745F69 
 4730      737200
 4731              	.LASF57:
 4732 0469 63685F72 		.ascii	"ch_ready_list\000"
 4732      65616479 
 4732      5F6C6973 
 4732      7400
 4733              	.LASF28:
 4734 0477 6576656E 		.ascii	"eventmask_t\000"
 4734      746D6173 
 4734      6B5F7400 
 4735              	.LASF81:
 4736 0483 41484250 		.ascii	"AHBPrescTable\000"
 4736      72657363 
 4736      5461626C 
 4736      6500
 4737              	.LASF138:
 4738 0491 656E646D 		.ascii	"endmem\000"
 4738      656D00
 4739              	.LASF10:
 4740 0498 5F5F696E 		.ascii	"__int32_t\000"
 4740      7433325F 
 4740      7400
 4741              	.LASF84:
 4742 04a2 73746B61 		.ascii	"stkalign_t\000"
 4742      6C69676E 
 4742      5F7400
 4743              	.LASF34:
 4744 04ad 6E657765 		.ascii	"newer\000"
 4744      7200
 4745              	.LASF45:
 4746 04b3 7265616C 		.ascii	"realprio\000"
 4746      7072696F 
 4746      00
 4747              	.LASF115:
 4748 04bc 76657273 		.ascii	"version\000"
 4748      696F6E00 
 4749              	.LASF186:
ARM GAS  /tmp/cc6aUrs9.s 			page 88


 4750 04c4 5F737461 		.ascii	"_stats_stop_measure_crit_thd\000"
 4750      74735F73 
 4750      746F705F 
 4750      6D656173 
 4750      7572655F 
 4751              	.LASF78:
 4752 04e1 73697A65 		.ascii	"sizetype\000"
 4752      74797065 
 4752      00
 4753              	.LASF48:
 4754 04ea 74687265 		.ascii	"thread_reference_t\000"
 4754      61645F72 
 4754      65666572 
 4754      656E6365 
 4754      5F7400
 4755              	.LASF65:
 4756 04fd 63685F76 		.ascii	"ch_virtual_timers_list\000"
 4756      69727475 
 4756      616C5F74 
 4756      696D6572 
 4756      735F6C69 
 4757              	.LASF133:
 4758 0514 636F6E64 		.ascii	"condition_variable\000"
 4758      6974696F 
 4758      6E5F7661 
 4758      72696162 
 4758      6C6500
 4759              	.LASF161:
 4760 0527 6368436F 		.ascii	"chCondWaitTimeoutS\000"
 4760      6E645761 
 4760      69745469 
 4760      6D656F75 
 4760      745300
 4761              	.LASF148:
 4762 053a 63685F64 		.ascii	"ch_dyn_list\000"
 4762      796E5F6C 
 4762      69737400 
 4763              	.LASF185:
 4764 0546 5F737461 		.ascii	"_stats_start_measure_crit_thd\000"
 4764      74735F73 
 4764      74617274 
 4764      5F6D6561 
 4764      73757265 
 4765              	.LASF121:
 4766 0564 6F66665F 		.ascii	"off_newer\000"
 4766      6E657765 
 4766      7200
 4767              	.LASF82:
 4768 056e 41504250 		.ascii	"APBPrescTable\000"
 4768      72657363 
 4768      5461626C 
 4768      6500
 4769              	.LASF95:
 4770 057c 6E5F6374 		.ascii	"n_ctxswc\000"
 4770      78737763 
 4770      00
 4771              	.LASF149:
ARM GAS  /tmp/cc6aUrs9.s 			page 89


 4772 0585 64796E5F 		.ascii	"dyn_list_t\000"
 4772      6C697374 
 4772      5F7400
 4773              	.LASF88:
 4774 0590 746D5F63 		.ascii	"tm_calibration_t\000"
 4774      616C6962 
 4774      72617469 
 4774      6F6E5F74 
 4774      00
 4775              	.LASF33:
 4776 05a1 7072696F 		.ascii	"prio\000"
 4776      00
 4777              	.LASF167:
 4778 05a6 6368436F 		.ascii	"chCondBroadcast\000"
 4778      6E644272 
 4778      6F616463 
 4778      61737400 
 4779              	.LASF155:
 4780 05b6 73656D5F 		.ascii	"sem_pool\000"
 4780      706F6F6C 
 4780      00
 4781              	.LASF58:
 4782 05bf 63757272 		.ascii	"current\000"
 4782      656E7400 
 4783              	.LASF14:
 4784 05c7 5F5F7569 		.ascii	"__uint64_t\000"
 4784      6E743634 
 4784      5F7400
 4785              	.LASF139:
 4786 05d2 6D656D63 		.ascii	"memcore_t\000"
 4786      6F72655F 
 4786      7400
 4787              	.LASF92:
 4788 05dc 63756D75 		.ascii	"cumulative\000"
 4788      6C617469 
 4788      766500
 4789              	.LASF25:
 4790 05e7 74726566 		.ascii	"trefs_t\000"
 4790      735F7400 
 4791              	.LASF118:
 4792 05ef 74687265 		.ascii	"threadsize\000"
 4792      61647369 
 4792      7A6500
 4793              	.LASF40:
 4794 05fa 72656673 		.ascii	"refs\000"
 4794      00
 4795              	.LASF60:
 4796 05ff 76697274 		.ascii	"virtual_timer_t\000"
 4796      75616C5F 
 4796      74696D65 
 4796      725F7400 
 4797              	.LASF146:
 4798 060f 63685F64 		.ascii	"ch_dyn_element\000"
 4798      796E5F65 
 4798      6C656D65 
 4798      6E7400
 4799              	.LASF26:
ARM GAS  /tmp/cc6aUrs9.s 			page 90


 4800 061e 74707269 		.ascii	"tprio_t\000"
 4800      6F5F7400 
 4801              	.LASF153:
 4802 0626 6275665F 		.ascii	"buf_list\000"
 4802      6C697374 
 4802      00
 4803              	.LASF187:
 4804 062f 63685363 		.ascii	"chSchGoSleepS\000"
 4804      68476F53 
 4804      6C656570 
 4804      5300
 4805              	.LASF168:
 4806 063d 6368436F 		.ascii	"chCondSignalI\000"
 4806      6E645369 
 4806      676E616C 
 4806      4900
 4807              	.LASF135:
 4808 064b 5F426F6F 		.ascii	"_Bool\000"
 4808      6C00
 4809              	.LASF18:
 4810 0651 696E7433 		.ascii	"int32_t\000"
 4810      325F7400 
 4811              	.LASF6:
 4812 0659 756E7369 		.ascii	"unsigned char\000"
 4812      676E6564 
 4812      20636861 
 4812      7200
 4813              	.LASF119:
 4814 0667 6F66665F 		.ascii	"off_prio\000"
 4814      7072696F 
 4814      00
 4815              	.LASF124:
 4816 0670 6F66665F 		.ascii	"off_stklimit\000"
 4816      73746B6C 
 4816      696D6974 
 4816      00
 4817              	.LASF7:
 4818 067d 73686F72 		.ascii	"short int\000"
 4818      7420696E 
 4818      7400
 4819              	.LASF66:
 4820 0687 6C617374 		.ascii	"lasttime\000"
 4820      74696D65 
 4820      00
 4821              	.LASF106:
 4822 0690 65776D61 		.ascii	"ewmask\000"
 4822      736B00
 4823              	.LASF71:
 4824 0697 63685F73 		.ascii	"ch_system\000"
 4824      79737465 
 4824      6D00
 4825              	.LASF164:
 4826 06a1 5F5F6675 		.ascii	"__func__\000"
 4826      6E635F5F 
 4826      00
 4827              	.LASF159:
 4828 06aa 63685F66 		.ascii	"ch_factory\000"
ARM GAS  /tmp/cc6aUrs9.s 			page 91


 4828      6163746F 
 4828      727900
 4829              	.LASF177:
 4830 06b5 63685379 		.ascii	"chSysLock\000"
 4830      734C6F63 
 4830      6B00
 4831              	.LASF152:
 4832 06bf 6F626A5F 		.ascii	"obj_pool\000"
 4832      706F6F6C 
 4832      00
 4833              	.LASF61:
 4834 06c8 63685F76 		.ascii	"ch_virtual_timer\000"
 4834      69727475 
 4834      616C5F74 
 4834      696D6572 
 4834      00
 4835              	.LASF107:
 4836 06d9 63685F73 		.ascii	"ch_semaphore\000"
 4836      656D6170 
 4836      686F7265 
 4836      00
 4837              	.LASF129:
 4838 06e6 6F66665F 		.ascii	"off_time\000"
 4838      74696D65 
 4838      00
 4839              	.LASF111:
 4840 06ef 63685F69 		.ascii	"ch_idle_thread_wa\000"
 4840      646C655F 
 4840      74687265 
 4840      61645F77 
 4840      6100
 4841              	.LASF117:
 4842 0701 74696D65 		.ascii	"timesize\000"
 4842      73697A65 
 4842      00
 4843              	.LASF19:
 4844 070a 75696E74 		.ascii	"uint32_t\000"
 4844      33325F74 
 4844      00
 4845              	.LASF105:
 4846 0713 77746D74 		.ascii	"wtmtxp\000"
 4846      787000
 4847              	.LASF188:
 4848 071a 63685363 		.ascii	"chSchReadyI\000"
 4848      68526561 
 4848      64794900 
 4849              	.LASF51:
 4850 0726 63685F74 		.ascii	"ch_threads_list\000"
 4850      68726561 
 4850      64735F6C 
 4850      69737400 
 4851              	.LASF109:
 4852 0736 6F776E65 		.ascii	"owner\000"
 4852      7200
 4853              	.LASF171:
 4854 073c 63684D74 		.ascii	"chMtxGetNextMutexX\000"
 4854      78476574 
ARM GAS  /tmp/cc6aUrs9.s 			page 92


 4854      4E657874 
 4854      4D757465 
 4854      785800
 4855              	.LASF13:
 4856 074f 6C6F6E67 		.ascii	"long unsigned int\000"
 4856      20756E73 
 4856      69676E65 
 4856      6420696E 
 4856      7400
 4857              	.LASF37:
 4858 0761 77616261 		.ascii	"wabase\000"
 4858      736500
 4859              	.LASF165:
 4860 0768 6368436F 		.ascii	"chCondWait\000"
 4860      6E645761 
 4860      697400
 4861              	.LASF110:
 4862 0773 63686172 		.ascii	"char\000"
 4862      00
 4863              	.LASF35:
 4864 0778 6F6C6465 		.ascii	"older\000"
 4864      7200
 4865              	.LASF151:
 4866 077e 6F626A5F 		.ascii	"obj_list\000"
 4866      6C697374 
 4866      00
 4867              	.LASF8:
 4868 0787 5F5F7569 		.ascii	"__uint16_t\000"
 4868      6E743136 
 4868      5F7400
 4869              	.LASF170:
 4870 0792 6368436F 		.ascii	"chCondObjectInit\000"
 4870      6E644F62 
 4870      6A656374 
 4870      496E6974 
 4870      00
 4871              	.LASF89:
 4872 07a3 62657374 		.ascii	"best\000"
 4872      00
 4873              	.LASF2:
 4874 07a8 6C6F6E67 		.ascii	"long double\000"
 4874      20646F75 
 4874      626C6500 
 4875              	.LASF173:
 4876 07b4 71756575 		.ascii	"queue_fifo_remove\000"
 4876      655F6669 
 4876      666F5F72 
 4876      656D6F76 
 4876      6500
 4877              	.LASF76:
 4878 07c6 73797374 		.ascii	"systime_t\000"
 4878      696D655F 
 4878      7400
 4879              	.LASF59:
 4880 07d0 76746675 		.ascii	"vtfunc_t\000"
 4880      6E635F74 
 4880      00
ARM GAS  /tmp/cc6aUrs9.s 			page 93


 4881              	.LASF180:
 4882 07d9 5F5F7365 		.ascii	"__set_BASEPRI\000"
 4882      745F4241 
 4882      53455052 
 4882      4900
 4883              	.LASF69:
 4884 07e7 70616E69 		.ascii	"panic_msg\000"
 4884      635F6D73 
 4884      6700
 4885              	.LASF87:
 4886 07f1 6F666673 		.ascii	"offset\000"
 4886      657400
 4887              	.LASF108:
 4888 07f8 63685F6D 		.ascii	"ch_mutex\000"
 4888      75746578 
 4888      00
 4889              	.LASF122:
 4890 0801 6F66665F 		.ascii	"off_older\000"
 4890      6F6C6465 
 4890      7200
 4891              	.LASF9:
 4892 080b 73686F72 		.ascii	"short unsigned int\000"
 4892      7420756E 
 4892      7369676E 
 4892      65642069 
 4892      6E7400
 4893              	.LASF112:
 4894 081e 6964656E 		.ascii	"identifier\000"
 4894      74696669 
 4894      657200
 4895              	.LASF21:
 4896 0829 7274636E 		.ascii	"rtcnt_t\000"
 4896      745F7400 
 4897              	.LASF136:
 4898 0831 6D656D67 		.ascii	"memgetfunc_t\000"
 4898      65746675 
 4898      6E635F74 
 4898      00
 4899              	.LASF190:
 4900 083e 63685363 		.ascii	"chSchWakeupS\000"
 4900      6857616B 
 4900      65757053 
 4900      00
 4901              	.LASF142:
 4902 084b 6F626A65 		.ascii	"object_size\000"
 4902      63745F73 
 4902      697A6500 
 4903              	.LASF116:
 4904 0857 70747273 		.ascii	"ptrsize\000"
 4904      697A6500 
 4905              	.LASF150:
 4906 085f 63685F6F 		.ascii	"ch_objects_factory\000"
 4906      626A6563 
 4906      74735F66 
 4906      6163746F 
 4906      727900
 4907              	.LASF53:
ARM GAS  /tmp/cc6aUrs9.s 			page 94


 4908 0872 74687265 		.ascii	"threads_queue_t\000"
 4908      6164735F 
 4908      71756575 
 4908      655F7400 
 4909              	.LASF141:
 4910 0882 706F6F6C 		.ascii	"pool_header\000"
 4910      5F686561 
 4910      64657200 
 4911              	.LASF192:
 4912 088e 2E2E2F2E 		.ascii	"../../modules/ChibiOS/os/rt/src/chcond.c\000"
 4912      2E2F6D6F 
 4912      64756C65 
 4912      732F4368 
 4912      6962694F 
 4913              	.LASF31:
 4914 08b7 74687265 		.ascii	"thread_t\000"
 4914      61645F74 
 4914      00
 4915              	.LASF123:
 4916 08c0 6F66665F 		.ascii	"off_name\000"
 4916      6E616D65 
 4916      00
 4917              	.LASF172:
 4918 08c9 63685468 		.ascii	"chThdGetSelfX\000"
 4918      64476574 
 4918      53656C66 
 4918      5800
 4919              	.LASF16:
 4920 08d7 75696E74 		.ascii	"uint8_t\000"
 4920      385F7400 
 4921              	.LASF39:
 4922 08df 666C6167 		.ascii	"flags\000"
 4922      7300
 4923              	.LASF157:
 4924 08e5 6669666F 		.ascii	"fifo_list\000"
 4924      5F6C6973 
 4924      7400
 4925              	.LASF101:
 4926 08ef 77746F62 		.ascii	"wtobjp\000"
 4926      6A7000
 4927              	.LASF162:
 4928 08f6 6368436F 		.ascii	"chCondWaitTimeout\000"
 4928      6E645761 
 4928      69745469 
 4928      6D656F75 
 4928      7400
 4929              	.LASF49:
 4930 0908 74687265 		.ascii	"threads_list_t\000"
 4930      6164735F 
 4930      6C697374 
 4930      5F7400
 4931              	.LASF125:
 4932 0917 6F66665F 		.ascii	"off_state\000"
 4932      73746174 
 4932      6500
 4933              	.LASF183:
 4934 0921 63685363 		.ascii	"chSchGoSleepTimeoutS\000"
ARM GAS  /tmp/cc6aUrs9.s 			page 95


 4934      68476F53 
 4934      6C656570 
 4934      54696D65 
 4934      6F757453 
 4935              	.LASF175:
 4936 0936 63685379 		.ascii	"chSysUnlock\000"
 4936      73556E6C 
 4936      6F636B00 
 4937              	.LASF158:
 4938 0942 6F626A65 		.ascii	"objects_factory_t\000"
 4938      6374735F 
 4938      66616374 
 4938      6F72795F 
 4938      7400
 4939              	.LASF184:
 4940 0954 63684D74 		.ascii	"chMtxLockS\000"
 4940      784C6F63 
 4940      6B5300
 4941              	.LASF194:
 4942 095f 71756575 		.ascii	"queue_prio_insert\000"
 4942      655F7072 
 4942      696F5F69 
 4942      6E736572 
 4942      7400
 4943              	.LASF126:
 4944 0971 6F66665F 		.ascii	"off_flags\000"
 4944      666C6167 
 4944      7300
 4945              	.LASF44:
 4946 097b 6D74786C 		.ascii	"mtxlist\000"
 4946      69737400 
 4947              	.LASF96:
 4948 0983 6D5F6372 		.ascii	"m_crit_thd\000"
 4948      69745F74 
 4948      686400
 4949              	.LASF193:
 4950 098e 2F686F6D 		.ascii	"/home/haggisaerospace/ardupilot/ardupilot/build/Cub"
 4950      652F6861 
 4950      67676973 
 4950      6165726F 
 4950      73706163 
 4951 09c1 65426C61 		.ascii	"eBlack\000"
 4951      636B00
 4952              	.LASF137:
 4953 09c8 6E657874 		.ascii	"nextmem\000"
 4953      6D656D00 
 4954              		.ident	"GCC: (GNU Tools for ARM Embedded Processors 6-2017-q2-update) 6.3.1 20170620 (release) [AR
ARM GAS  /tmp/cc6aUrs9.s 			page 96


DEFINED SYMBOLS
                            *ABS*:0000000000000000 chcond.c
     /tmp/cc6aUrs9.s:18     .text.queue_prio_insert:0000000000000000 $t
     /tmp/cc6aUrs9.s:24     .text.queue_prio_insert:0000000000000000 queue_prio_insert
     /tmp/cc6aUrs9.s:70     .text.chCondObjectInit:0000000000000000 $t
     /tmp/cc6aUrs9.s:77     .text.chCondObjectInit:0000000000000000 chCondObjectInit
     /tmp/cc6aUrs9.s:100    .text.chCondSignal:0000000000000000 $t
     /tmp/cc6aUrs9.s:107    .text.chCondSignal:0000000000000000 chCondSignal
     /tmp/cc6aUrs9.s:213    .text.chCondSignalI:0000000000000000 $t
     /tmp/cc6aUrs9.s:220    .text.chCondSignalI:0000000000000000 chCondSignalI
     /tmp/cc6aUrs9.s:265    .text.chCondBroadcastI:0000000000000000 $t
     /tmp/cc6aUrs9.s:272    .text.chCondBroadcastI:0000000000000000 chCondBroadcastI
     /tmp/cc6aUrs9.s:324    .text.chCondBroadcast:0000000000000000 $t
     /tmp/cc6aUrs9.s:331    .text.chCondBroadcast:0000000000000000 chCondBroadcast
     /tmp/cc6aUrs9.s:411    .text.chCondWaitS:0000000000000000 $t
     /tmp/cc6aUrs9.s:418    .text.chCondWaitS:0000000000000000 chCondWaitS
     /tmp/cc6aUrs9.s:477    .text.chCondWaitS:000000000000002c $d
     /tmp/cc6aUrs9.s:482    .text.chCondWait:0000000000000000 $t
     /tmp/cc6aUrs9.s:489    .text.chCondWait:0000000000000000 chCondWait
     /tmp/cc6aUrs9.s:570    .text.chCondWaitTimeoutS:0000000000000000 $t
     /tmp/cc6aUrs9.s:577    .text.chCondWaitTimeoutS:0000000000000000 chCondWaitTimeoutS
     /tmp/cc6aUrs9.s:650    .text.chCondWaitTimeoutS:0000000000000034 $d
     /tmp/cc6aUrs9.s:655    .text.chCondWaitTimeout:0000000000000000 $t
     /tmp/cc6aUrs9.s:662    .text.chCondWaitTimeout:0000000000000000 chCondWaitTimeout
                     .debug_frame:0000000000000010 $d

UNDEFINED SYMBOLS
_stats_start_measure_crit_thd
chSchWakeupS
_stats_stop_measure_crit_thd
chSchReadyI
chSchRescheduleS
chMtxUnlockS
chSchGoSleepS
chMtxLockS
ch
chSchGoSleepTimeoutS
