ARM GAS  /tmp/cc6aUrs9.s 			page 1


   1              		.cpu cortex-m4
   2              		.eabi_attribute 27, 1
   3              		.eabi_attribute 28, 1
   4              		.eabi_attribute 20, 1
   5              		.eabi_attribute 21, 1
   6              		.eabi_attribute 23, 3
   7              		.eabi_attribute 24, 1
   8              		.eabi_attribute 25, 1
   9              		.eabi_attribute 26, 1
  10              		.eabi_attribute 30, 4
  11              		.eabi_attribute 34, 1
  12              		.eabi_attribute 18, 4
  13              		.file	"chcond.c"
  14              		.text
  15              	.Ltext0:
  16              		.cfi_sections	.debug_frame
  17              		.section	.text.queue_prio_insert,"ax",%progbits
  18              		.align	1
  19              		.syntax unified
  20              		.thumb
  21              		.thumb_func
  22              		.fpu fpv4-sp-d16
  23              		.type	queue_prio_insert, %function
  24              	queue_prio_insert:
  25              	.LFB172:
  26              		.file 1 "../../modules/ChibiOS/os/rt/include/chschd.h"
  27              		.loc 1 586 0
  28              		.cfi_startproc
  29              		@ args = 0, pretend = 0, frame = 0
  30              		@ frame_needed = 0, uses_anonymous_args = 0
  31              	.LVL0:
  32 0000 10B5     		push	{r4, lr}
  33              		.cfi_def_cfa_offset 8
  34              		.cfi_offset 4, -8
  35              		.cfi_offset 14, -4
  36              		.loc 1 586 0
  37 0002 0B46     		mov	r3, r1
  38              	.LVL1:
  39              	.L3:
  40              		.loc 1 590 0 discriminator 2
  41 0004 1B68     		ldr	r3, [r3]
  42              	.LVL2:
  43              		.loc 1 591 0 discriminator 2
  44 0006 9942     		cmp	r1, r3
  45 0008 05D1     		bne	.L2
  46              	.L4:
  47              		.loc 1 593 0
  48 000a 5A68     		ldr	r2, [r3, #4]
  49              		.loc 1 592 0
  50 000c 0360     		str	r3, [r0]
  51              		.loc 1 593 0
  52 000e 4260     		str	r2, [r0, #4]
  53              		.loc 1 594 0
  54 0010 1060     		str	r0, [r2]
  55              		.loc 1 595 0
  56 0012 5860     		str	r0, [r3, #4]
  57              		.loc 1 596 0
ARM GAS  /tmp/cc6aUrs9.s 			page 2


  58 0014 10BD     		pop	{r4, pc}
  59              	.L2:
  60              		.loc 1 591 0 discriminator 1
  61 0016 9C68     		ldr	r4, [r3, #8]
  62 0018 8268     		ldr	r2, [r0, #8]
  63 001a 9442     		cmp	r4, r2
  64 001c F2D2     		bcs	.L3
  65 001e F4E7     		b	.L4
  66              		.cfi_endproc
  67              	.LFE172:
  68              		.size	queue_prio_insert, .-queue_prio_insert
  69              		.section	.text.chCondObjectInit,"ax",%progbits
  70              		.align	1
  71              		.global	chCondObjectInit
  72              		.syntax unified
  73              		.thumb
  74              		.thumb_func
  75              		.fpu fpv4-sp-d16
  76              		.type	chCondObjectInit, %function
  77              	chCondObjectInit:
  78              	.LFB290:
  79              		.file 2 "../../modules/ChibiOS/os/rt/src/chcond.c"
  80              		.loc 2 75 0
  81              		.cfi_startproc
  82              		@ args = 0, pretend = 0, frame = 0
  83              		@ frame_needed = 0, uses_anonymous_args = 0
  84              		@ link register save eliminated.
  85              	.LVL3:
  86              	.LBB39:
  87              	.LBB40:
  88              		.loc 1 539 0
  89 0000 0060     		str	r0, [r0]
  90              		.loc 1 540 0
  91 0002 4060     		str	r0, [r0, #4]
  92              	.LVL4:
  93 0004 7047     		bx	lr
  94              	.LBE40:
  95              	.LBE39:
  96              		.cfi_endproc
  97              	.LFE290:
  98              		.size	chCondObjectInit, .-chCondObjectInit
  99              		.section	.text.chCondSignal,"ax",%progbits
 100              		.align	1
 101              		.global	chCondSignal
 102              		.syntax unified
 103              		.thumb
 104              		.thumb_func
 105              		.fpu fpv4-sp-d16
 106              		.type	chCondSignal, %function
 107              	chCondSignal:
 108              	.LFB291:
 109              		.loc 2 89 0
 110              		.cfi_startproc
 111              		@ args = 0, pretend = 0, frame = 0
 112              		@ frame_needed = 0, uses_anonymous_args = 0
 113              	.LVL5:
 114 0000 10B5     		push	{r4, lr}
ARM GAS  /tmp/cc6aUrs9.s 			page 3


 115              		.cfi_def_cfa_offset 8
 116              		.cfi_offset 4, -8
 117              		.cfi_offset 14, -4
 118              	.LBB55:
 119              	.LBB56:
 120              	.LBB57:
 121              	.LBB58:
 122              	.LBB59:
 123              		.file 3 "../../modules/ChibiOS/os/common/ext/ARM/CMSIS/Core/Include/cmsis_gcc.h"
 124              		.loc 3 493 0
 125 0002 2023     		movs	r3, #32
 126              	.LBE59:
 127              	.LBE58:
 128              	.LBE57:
 129              	.LBE56:
 130              	.LBE55:
 131              		.loc 2 89 0
 132 0004 0446     		mov	r4, r0
 133              	.LBB64:
 134              	.LBB63:
 135              	.LBB62:
 136              	.LBB61:
 137              	.LBB60:
 138              		.loc 3 493 0
 139              		.syntax unified
 140              	@ 493 "../../modules/ChibiOS/os/common/ext/ARM/CMSIS/Core/Include/cmsis_gcc.h" 1
 141 0006 83F31188 		MSR basepri, r3
 142              	@ 0 "" 2
 143              	.LVL6:
 144              		.thumb
 145              		.syntax unified
 146              	.LBE60:
 147              	.LBE61:
 148              	.LBE62:
 149              		.file 4 "../../modules/ChibiOS/os/rt/include/chsys.h"
 150              		.loc 4 356 0
 151 000a FFF7FEFF 		bl	_stats_start_measure_crit_thd
 152              	.LVL7:
 153              	.LBE63:
 154              	.LBE64:
 155              	.LBB65:
 156              	.LBB66:
 157              		.loc 1 566 0
 158 000e 2068     		ldr	r0, [r4]
 159              	.LVL8:
 160              	.LBE66:
 161              	.LBE65:
 162              		.loc 2 94 0
 163 0010 8442     		cmp	r4, r0
 164 0012 05D0     		beq	.L9
 165              	.LVL9:
 166              	.LBB67:
 167              	.LBB68:
 168              		.loc 1 609 0
 169 0014 0368     		ldr	r3, [r0]
 170 0016 2360     		str	r3, [r4]
 171              	.LBE68:
ARM GAS  /tmp/cc6aUrs9.s 			page 4


 172              	.LBE67:
 173              		.loc 2 95 0
 174 0018 0021     		movs	r1, #0
 175              	.LBB70:
 176              	.LBB69:
 177              		.loc 1 610 0
 178 001a 5C60     		str	r4, [r3, #4]
 179              	.LVL10:
 180              	.LBE69:
 181              	.LBE70:
 182              		.loc 2 95 0
 183 001c FFF7FEFF 		bl	chSchWakeupS
 184              	.LVL11:
 185              	.L9:
 186              	.LBB71:
 187              	.LBB72:
 188              		.loc 4 368 0
 189 0020 FFF7FEFF 		bl	_stats_stop_measure_crit_thd
 190              	.LVL12:
 191              	.LBB73:
 192              	.LBB74:
 193              	.LBB75:
 194              		.loc 3 493 0
 195 0024 0023     		movs	r3, #0
 196              		.syntax unified
 197              	@ 493 "../../modules/ChibiOS/os/common/ext/ARM/CMSIS/Core/Include/cmsis_gcc.h" 1
 198 0026 83F31188 		MSR basepri, r3
 199              	@ 0 "" 2
 200              	.LVL13:
 201              		.thumb
 202              		.syntax unified
 203 002a 10BD     		pop	{r4, pc}
 204              	.LBE75:
 205              	.LBE74:
 206              	.LBE73:
 207              	.LBE72:
 208              	.LBE71:
 209              		.cfi_endproc
 210              	.LFE291:
 211              		.size	chCondSignal, .-chCondSignal
 212              		.section	.text.chCondSignalI,"ax",%progbits
 213              		.align	1
 214              		.global	chCondSignalI
 215              		.syntax unified
 216              		.thumb
 217              		.thumb_func
 218              		.fpu fpv4-sp-d16
 219              		.type	chCondSignalI, %function
 220              	chCondSignalI:
 221              	.LFB292:
 222              		.loc 2 111 0
 223              		.cfi_startproc
 224              		@ args = 0, pretend = 0, frame = 0
 225              		@ frame_needed = 0, uses_anonymous_args = 0
 226              		@ link register save eliminated.
 227              	.LVL14:
 228              	.LBB76:
ARM GAS  /tmp/cc6aUrs9.s 			page 5


 229              	.LBB77:
 230              		.loc 1 566 0
 231 0000 0368     		ldr	r3, [r0]
 232              	.LVL15:
 233              	.LBE77:
 234              	.LBE76:
 235              		.loc 2 116 0
 236 0002 9842     		cmp	r0, r3
 237 0004 07D0     		beq	.L10
 238              	.LVL16:
 239              	.LBB78:
 240              	.LBB79:
 241              	.LBB80:
 242              		.loc 1 609 0
 243 0006 1A68     		ldr	r2, [r3]
 244 0008 0260     		str	r2, [r0]
 245              		.loc 1 610 0
 246 000a 5060     		str	r0, [r2, #4]
 247              	.LVL17:
 248              	.LBE80:
 249              	.LBE79:
 250              		.loc 2 118 0
 251 000c 0022     		movs	r2, #0
 252 000e 5A62     		str	r2, [r3, #36]
 253              		.loc 2 119 0
 254 0010 1846     		mov	r0, r3
 255              	.LVL18:
 256 0012 FFF7FEBF 		b	chSchReadyI
 257              	.LVL19:
 258              	.L10:
 259 0016 7047     		bx	lr
 260              	.LBE78:
 261              		.cfi_endproc
 262              	.LFE292:
 263              		.size	chCondSignalI, .-chCondSignalI
 264              		.section	.text.chCondBroadcastI,"ax",%progbits
 265              		.align	1
 266              		.global	chCondBroadcastI
 267              		.syntax unified
 268              		.thumb
 269              		.thumb_func
 270              		.fpu fpv4-sp-d16
 271              		.type	chCondBroadcastI, %function
 272              	chCondBroadcastI:
 273              	.LFB294:
 274              		.loc 2 149 0
 275              		.cfi_startproc
 276              		@ args = 0, pretend = 0, frame = 0
 277              		@ frame_needed = 0, uses_anonymous_args = 0
 278              	.LVL20:
 279 0000 38B5     		push	{r3, r4, r5, lr}
 280              		.cfi_def_cfa_offset 16
 281              		.cfi_offset 3, -16
 282              		.cfi_offset 4, -12
 283              		.cfi_offset 5, -8
 284              		.cfi_offset 14, -4
 285              		.loc 2 149 0
ARM GAS  /tmp/cc6aUrs9.s 			page 6


 286 0002 0446     		mov	r4, r0
 287              		.loc 2 158 0
 288 0004 6FF00105 		mvn	r5, #1
 289              	.LVL21:
 290              	.L13:
 291              	.LBB81:
 292              	.LBB82:
 293              		.loc 1 566 0
 294 0008 2068     		ldr	r0, [r4]
 295              	.LVL22:
 296              	.LBE82:
 297              	.LBE81:
 298              		.loc 2 157 0
 299 000a 8442     		cmp	r4, r0
 300 000c 00D1     		bne	.L14
 301              		.loc 2 160 0
 302 000e 38BD     		pop	{r3, r4, r5, pc}
 303              	.LVL23:
 304              	.L14:
 305              	.LBB83:
 306              	.LBB84:
 307              		.loc 1 609 0
 308 0010 0368     		ldr	r3, [r0]
 309 0012 2360     		str	r3, [r4]
 310              		.loc 1 610 0
 311 0014 5C60     		str	r4, [r3, #4]
 312              	.LVL24:
 313              	.LBE84:
 314              	.LBE83:
 315              		.loc 2 158 0
 316 0016 FFF7FEFF 		bl	chSchReadyI
 317              	.LVL25:
 318 001a 4562     		str	r5, [r0, #36]
 319 001c F4E7     		b	.L13
 320              		.cfi_endproc
 321              	.LFE294:
 322              		.size	chCondBroadcastI, .-chCondBroadcastI
 323              		.section	.text.chCondBroadcast,"ax",%progbits
 324              		.align	1
 325              		.global	chCondBroadcast
 326              		.syntax unified
 327              		.thumb
 328              		.thumb_func
 329              		.fpu fpv4-sp-d16
 330              		.type	chCondBroadcast, %function
 331              	chCondBroadcast:
 332              	.LFB293:
 333              		.loc 2 130 0
 334              		.cfi_startproc
 335              		@ args = 0, pretend = 0, frame = 0
 336              		@ frame_needed = 0, uses_anonymous_args = 0
 337              	.LVL26:
 338 0000 10B5     		push	{r4, lr}
 339              		.cfi_def_cfa_offset 8
 340              		.cfi_offset 4, -8
 341              		.cfi_offset 14, -4
 342              	.LBB95:
ARM GAS  /tmp/cc6aUrs9.s 			page 7


 343              	.LBB96:
 344              	.LBB97:
 345              	.LBB98:
 346              	.LBB99:
 347              		.loc 3 493 0
 348 0002 2023     		movs	r3, #32
 349              	.LBE99:
 350              	.LBE98:
 351              	.LBE97:
 352              	.LBE96:
 353              	.LBE95:
 354              		.loc 2 130 0
 355 0004 0446     		mov	r4, r0
 356              	.LBB104:
 357              	.LBB103:
 358              	.LBB102:
 359              	.LBB101:
 360              	.LBB100:
 361              		.loc 3 493 0
 362              		.syntax unified
 363              	@ 493 "../../modules/ChibiOS/os/common/ext/ARM/CMSIS/Core/Include/cmsis_gcc.h" 1
 364 0006 83F31188 		MSR basepri, r3
 365              	@ 0 "" 2
 366              	.LVL27:
 367              		.thumb
 368              		.syntax unified
 369              	.LBE100:
 370              	.LBE101:
 371              	.LBE102:
 372              		.loc 4 356 0
 373 000a FFF7FEFF 		bl	_stats_start_measure_crit_thd
 374              	.LVL28:
 375              	.LBE103:
 376              	.LBE104:
 377              		.loc 2 133 0
 378 000e 2046     		mov	r0, r4
 379 0010 FFF7FEFF 		bl	chCondBroadcastI
 380              	.LVL29:
 381              		.loc 2 134 0
 382 0014 FFF7FEFF 		bl	chSchRescheduleS
 383              	.LVL30:
 384              	.LBB105:
 385              	.LBB106:
 386              		.loc 4 368 0
 387 0018 FFF7FEFF 		bl	_stats_stop_measure_crit_thd
 388              	.LVL31:
 389              	.LBB107:
 390              	.LBB108:
 391              	.LBB109:
 392              		.loc 3 493 0
 393 001c 0023     		movs	r3, #0
 394              		.syntax unified
 395              	@ 493 "../../modules/ChibiOS/os/common/ext/ARM/CMSIS/Core/Include/cmsis_gcc.h" 1
 396 001e 83F31188 		MSR basepri, r3
 397              	@ 0 "" 2
 398              	.LVL32:
 399              		.thumb
ARM GAS  /tmp/cc6aUrs9.s 			page 8


 400              		.syntax unified
 401 0022 10BD     		pop	{r4, pc}
 402              	.LBE109:
 403              	.LBE108:
 404              	.LBE107:
 405              	.LBE106:
 406              	.LBE105:
 407              		.cfi_endproc
 408              	.LFE293:
 409              		.size	chCondBroadcast, .-chCondBroadcast
 410              		.section	.text.chCondWaitS,"ax",%progbits
 411              		.align	1
 412              		.global	chCondWaitS
 413              		.syntax unified
 414              		.thumb
 415              		.thumb_func
 416              		.fpu fpv4-sp-d16
 417              		.type	chCondWaitS, %function
 418              	chCondWaitS:
 419              	.LFB296:
 420              		.loc 2 205 0
 421              		.cfi_startproc
 422              		@ args = 0, pretend = 0, frame = 0
 423              		@ frame_needed = 0, uses_anonymous_args = 0
 424              	.LVL33:
 425              		.loc 2 206 0
 426 0000 0A4B     		ldr	r3, .L17
 427              		.loc 2 205 0
 428 0002 70B5     		push	{r4, r5, r6, lr}
 429              		.cfi_def_cfa_offset 16
 430              		.cfi_offset 4, -16
 431              		.cfi_offset 5, -12
 432              		.cfi_offset 6, -8
 433              		.cfi_offset 14, -4
 434              		.loc 2 206 0
 435 0004 9C69     		ldr	r4, [r3, #24]
 436              	.LVL34:
 437              	.LBB110:
 438              	.LBB111:
 439              		.file 5 "../../modules/ChibiOS/os/rt/include/chmtx.h"
 440              		.loc 5 161 0
 441 0006 A56B     		ldr	r5, [r4, #56]
 442              	.LBE111:
 443              	.LBE110:
 444              		.loc 2 205 0
 445 0008 0646     		mov	r6, r0
 446              		.loc 2 215 0
 447 000a 2846     		mov	r0, r5
 448              	.LVL35:
 449 000c FFF7FEFF 		bl	chMtxUnlockS
 450              	.LVL36:
 451              		.loc 2 220 0
 452 0010 3146     		mov	r1, r6
 453              		.loc 2 219 0
 454 0012 6662     		str	r6, [r4, #36]
 455              		.loc 2 220 0
 456 0014 2046     		mov	r0, r4
ARM GAS  /tmp/cc6aUrs9.s 			page 9


 457 0016 FFF7FEFF 		bl	queue_prio_insert
 458              	.LVL37:
 459              		.loc 2 221 0
 460 001a 0720     		movs	r0, #7
 461 001c FFF7FEFF 		bl	chSchGoSleepS
 462              	.LVL38:
 463              		.loc 2 222 0
 464 0020 646A     		ldr	r4, [r4, #36]
 465              	.LVL39:
 466              		.loc 2 223 0
 467 0022 2846     		mov	r0, r5
 468 0024 FFF7FEFF 		bl	chMtxLockS
 469              	.LVL40:
 470              		.loc 2 226 0
 471 0028 2046     		mov	r0, r4
 472 002a 70BD     		pop	{r4, r5, r6, pc}
 473              	.LVL41:
 474              	.L18:
 475              		.align	2
 476              	.L17:
 477 002c 00000000 		.word	ch
 478              		.cfi_endproc
 479              	.LFE296:
 480              		.size	chCondWaitS, .-chCondWaitS
 481              		.section	.text.chCondWait,"ax",%progbits
 482              		.align	1
 483              		.global	chCondWait
 484              		.syntax unified
 485              		.thumb
 486              		.thumb_func
 487              		.fpu fpv4-sp-d16
 488              		.type	chCondWait, %function
 489              	chCondWait:
 490              	.LFB295:
 491              		.loc 2 179 0
 492              		.cfi_startproc
 493              		@ args = 0, pretend = 0, frame = 0
 494              		@ frame_needed = 0, uses_anonymous_args = 0
 495              	.LVL42:
 496 0000 10B5     		push	{r4, lr}
 497              		.cfi_def_cfa_offset 8
 498              		.cfi_offset 4, -8
 499              		.cfi_offset 14, -4
 500              	.LBB122:
 501              	.LBB123:
 502              	.LBB124:
 503              	.LBB125:
 504              	.LBB126:
 505              		.loc 3 493 0
 506 0002 2023     		movs	r3, #32
 507              	.LBE126:
 508              	.LBE125:
 509              	.LBE124:
 510              	.LBE123:
 511              	.LBE122:
 512              		.loc 2 179 0
 513 0004 0446     		mov	r4, r0
ARM GAS  /tmp/cc6aUrs9.s 			page 10


 514              	.LBB131:
 515              	.LBB130:
 516              	.LBB129:
 517              	.LBB128:
 518              	.LBB127:
 519              		.loc 3 493 0
 520              		.syntax unified
 521              	@ 493 "../../modules/ChibiOS/os/common/ext/ARM/CMSIS/Core/Include/cmsis_gcc.h" 1
 522 0006 83F31188 		MSR basepri, r3
 523              	@ 0 "" 2
 524              	.LVL43:
 525              		.thumb
 526              		.syntax unified
 527              	.LBE127:
 528              	.LBE128:
 529              	.LBE129:
 530              		.loc 4 356 0
 531 000a FFF7FEFF 		bl	_stats_start_measure_crit_thd
 532              	.LVL44:
 533              	.LBE130:
 534              	.LBE131:
 535              		.loc 2 183 0
 536 000e 2046     		mov	r0, r4
 537 0010 FFF7FEFF 		bl	chCondWaitS
 538              	.LVL45:
 539 0014 0446     		mov	r4, r0
 540              	.LVL46:
 541              	.LBB132:
 542              	.LBB133:
 543              		.loc 4 368 0
 544 0016 FFF7FEFF 		bl	_stats_stop_measure_crit_thd
 545              	.LVL47:
 546              	.LBB134:
 547              	.LBB135:
 548              	.LBB136:
 549              		.loc 3 493 0
 550 001a 0023     		movs	r3, #0
 551              		.syntax unified
 552              	@ 493 "../../modules/ChibiOS/os/common/ext/ARM/CMSIS/Core/Include/cmsis_gcc.h" 1
 553 001c 83F31188 		MSR basepri, r3
 554              	@ 0 "" 2
 555              	.LVL48:
 556              		.thumb
 557              		.syntax unified
 558              	.LBE136:
 559              	.LBE135:
 560              	.LBE134:
 561              	.LBE133:
 562              	.LBE132:
 563              		.loc 2 186 0
 564 0020 2046     		mov	r0, r4
 565 0022 10BD     		pop	{r4, pc}
 566              		.cfi_endproc
 567              	.LFE295:
 568              		.size	chCondWait, .-chCondWait
 569              		.section	.text.chCondWaitTimeoutS,"ax",%progbits
 570              		.align	1
ARM GAS  /tmp/cc6aUrs9.s 			page 11


 571              		.global	chCondWaitTimeoutS
 572              		.syntax unified
 573              		.thumb
 574              		.thumb_func
 575              		.fpu fpv4-sp-d16
 576              		.type	chCondWaitTimeoutS, %function
 577              	chCondWaitTimeoutS:
 578              	.LFB298:
 579              		.loc 2 295 0
 580              		.cfi_startproc
 581              		@ args = 0, pretend = 0, frame = 0
 582              		@ frame_needed = 0, uses_anonymous_args = 0
 583              	.LVL49:
 584 0000 F8B5     		push	{r3, r4, r5, r6, r7, lr}
 585              		.cfi_def_cfa_offset 24
 586              		.cfi_offset 3, -24
 587              		.cfi_offset 4, -20
 588              		.cfi_offset 5, -16
 589              		.cfi_offset 6, -12
 590              		.cfi_offset 7, -8
 591              		.cfi_offset 14, -4
 592              	.LBB137:
 593              	.LBB138:
 594              	.LBB139:
 595              	.LBB140:
 596              		.file 6 "../../modules/ChibiOS/os/rt/include/chthreads.h"
 597              		.loc 6 274 0
 598 0002 0C4E     		ldr	r6, .L25
 599              	.LBE140:
 600              	.LBE139:
 601              		.loc 5 161 0
 602 0004 B369     		ldr	r3, [r6, #24]
 603 0006 9D6B     		ldr	r5, [r3, #56]
 604              	.LBE138:
 605              	.LBE137:
 606              		.loc 2 295 0
 607 0008 0446     		mov	r4, r0
 608              		.loc 2 304 0
 609 000a 2846     		mov	r0, r5
 610              	.LVL50:
 611              		.loc 2 295 0
 612 000c 0F46     		mov	r7, r1
 613              		.loc 2 304 0
 614 000e FFF7FEFF 		bl	chMtxUnlockS
 615              	.LVL51:
 616              		.loc 2 308 0
 617 0012 B069     		ldr	r0, [r6, #24]
 618              		.loc 2 309 0
 619 0014 2146     		mov	r1, r4
 620              		.loc 2 308 0
 621 0016 4462     		str	r4, [r0, #36]
 622              		.loc 2 309 0
 623 0018 FFF7FEFF 		bl	queue_prio_insert
 624              	.LVL52:
 625              		.loc 2 310 0
 626 001c 3946     		mov	r1, r7
 627 001e 0720     		movs	r0, #7
ARM GAS  /tmp/cc6aUrs9.s 			page 12


 628 0020 FFF7FEFF 		bl	chSchGoSleepTimeoutS
 629              	.LVL53:
 630              		.loc 2 311 0
 631 0024 431C     		adds	r3, r0, #1
 632              		.loc 2 310 0
 633 0026 0446     		mov	r4, r0
 634              	.LVL54:
 635              		.loc 2 311 0
 636 0028 02D0     		beq	.L20
 637              		.loc 2 312 0
 638 002a 2846     		mov	r0, r5
 639              	.LVL55:
 640 002c FFF7FEFF 		bl	chMtxLockS
 641              	.LVL56:
 642              	.L20:
 643              		.loc 2 316 0
 644 0030 2046     		mov	r0, r4
 645 0032 F8BD     		pop	{r3, r4, r5, r6, r7, pc}
 646              	.LVL57:
 647              	.L26:
 648              		.align	2
 649              	.L25:
 650 0034 00000000 		.word	ch
 651              		.cfi_endproc
 652              	.LFE298:
 653              		.size	chCondWaitTimeoutS, .-chCondWaitTimeoutS
 654              		.section	.text.chCondWaitTimeout,"ax",%progbits
 655              		.align	1
 656              		.global	chCondWaitTimeout
 657              		.syntax unified
 658              		.thumb
 659              		.thumb_func
 660              		.fpu fpv4-sp-d16
 661              		.type	chCondWaitTimeout, %function
 662              	chCondWaitTimeout:
 663              	.LFB297:
 664              		.loc 2 257 0
 665              		.cfi_startproc
 666              		@ args = 0, pretend = 0, frame = 0
 667              		@ frame_needed = 0, uses_anonymous_args = 0
 668              	.LVL58:
 669 0000 38B5     		push	{r3, r4, r5, lr}
 670              		.cfi_def_cfa_offset 16
 671              		.cfi_offset 3, -16
 672              		.cfi_offset 4, -12
 673              		.cfi_offset 5, -8
 674              		.cfi_offset 14, -4
 675              		.loc 2 257 0
 676 0002 0446     		mov	r4, r0
 677 0004 0D46     		mov	r5, r1
 678              	.LBB151:
 679              	.LBB152:
 680              	.LBB153:
 681              	.LBB154:
 682              	.LBB155:
 683              		.loc 3 493 0
 684 0006 2023     		movs	r3, #32
ARM GAS  /tmp/cc6aUrs9.s 			page 13


 685              		.syntax unified
 686              	@ 493 "../../modules/ChibiOS/os/common/ext/ARM/CMSIS/Core/Include/cmsis_gcc.h" 1
 687 0008 83F31188 		MSR basepri, r3
 688              	@ 0 "" 2
 689              	.LVL59:
 690              		.thumb
 691              		.syntax unified
 692              	.LBE155:
 693              	.LBE154:
 694              	.LBE153:
 695              		.loc 4 356 0
 696 000c FFF7FEFF 		bl	_stats_start_measure_crit_thd
 697              	.LVL60:
 698              	.LBE152:
 699              	.LBE151:
 700              		.loc 2 261 0
 701 0010 2946     		mov	r1, r5
 702 0012 2046     		mov	r0, r4
 703 0014 FFF7FEFF 		bl	chCondWaitTimeoutS
 704              	.LVL61:
 705 0018 0446     		mov	r4, r0
 706              	.LVL62:
 707              	.LBB156:
 708              	.LBB157:
 709              		.loc 4 368 0
 710 001a FFF7FEFF 		bl	_stats_stop_measure_crit_thd
 711              	.LVL63:
 712              	.LBB158:
 713              	.LBB159:
 714              	.LBB160:
 715              		.loc 3 493 0
 716 001e 0023     		movs	r3, #0
 717              		.syntax unified
 718              	@ 493 "../../modules/ChibiOS/os/common/ext/ARM/CMSIS/Core/Include/cmsis_gcc.h" 1
 719 0020 83F31188 		MSR basepri, r3
 720              	@ 0 "" 2
 721              	.LVL64:
 722              		.thumb
 723              		.syntax unified
 724              	.LBE160:
 725              	.LBE159:
 726              	.LBE158:
 727              	.LBE157:
 728              	.LBE156:
 729              		.loc 2 265 0
 730 0024 2046     		mov	r0, r4
 731 0026 38BD     		pop	{r3, r4, r5, pc}
 732              		.cfi_endproc
 733              	.LFE297:
 734              		.size	chCondWaitTimeout, .-chCondWaitTimeout
 735              		.text
 736              	.Letext0:
 737              		.file 7 "/opt/gcc-arm-none-eabi-6-2017-q2-update/lib/gcc/arm-none-eabi/6.3.1/include/stddef.h"
 738              		.file 8 "/opt/gcc-arm-none-eabi-6-2017-q2-update/arm-none-eabi/include/machine/_default_types.h"
 739              		.file 9 "/opt/gcc-arm-none-eabi-6-2017-q2-update/arm-none-eabi/include/sys/_stdint.h"
 740              		.file 10 "../../modules/ChibiOS/os/common/ports/ARMCMx/compilers/GCC/chtypes.h"
 741              		.file 11 "../../modules/ChibiOS/os/rt/include/chsystypes.h"
ARM GAS  /tmp/cc6aUrs9.s 			page 14


 742              		.file 12 "../../modules/ChibiOS/os/rt/include/chtime.h"
 743              		.file 13 "../../modules/ChibiOS/os/common/ext/ARM/CMSIS/Core/Include/core_cm4.h"
 744              		.file 14 "../../modules/ChibiOS/os/common/ext/ST/STM32F4xx/system_stm32f4xx.h"
 745              		.file 15 "../../modules/ChibiOS/os/common/ports/ARMCMx/chcore.h"
 746              		.file 16 "../../modules/ChibiOS/os/common/ports/ARMCMx/chcore_v7m.h"
 747              		.file 17 "../../modules/ChibiOS/os/rt/include/chtm.h"
 748              		.file 18 "../../modules/ChibiOS/os/rt/include/chstats.h"
 749              		.file 19 "../../modules/ChibiOS/os/rt/include/chsem.h"
 750              		.file 20 "../../modules/ChibiOS/os/rt/include/chregistry.h"
 751              		.file 21 "../../modules/ChibiOS/os/rt/include/chcond.h"
 752              		.file 22 "../../modules/ChibiOS/os/oslib/include/chmemcore.h"
 753              		.file 23 "../../modules/ChibiOS/os/oslib/include/chmempools.h"
 754              		.file 24 "../../modules/ChibiOS/os/oslib/include/chfactory.h"