ARM GAS  /tmp/cc8ZDNJg.s 			page 1


   1              		.cpu cortex-m4
   2              		.eabi_attribute 27, 1
   3              		.eabi_attribute 28, 1
   4              		.eabi_attribute 20, 1
   5              		.eabi_attribute 21, 1
   6              		.eabi_attribute 23, 3
   7              		.eabi_attribute 24, 1
   8              		.eabi_attribute 25, 1
   9              		.eabi_attribute 26, 1
  10              		.eabi_attribute 30, 4
  11              		.eabi_attribute 34, 1
  12              		.eabi_attribute 18, 4
  13              		.file	"chdynamic.c"
  14              		.text
  15              	.Ltext0:
  16              		.cfi_sections	.debug_frame
  17              		.section	.text.chThdCreateFromHeap,"ax",%progbits
  18              		.align	1
  19              		.global	chThdCreateFromHeap
  20              		.syntax unified
  21              		.thumb
  22              		.thumb_func
  23              		.fpu fpv4-sp-d16
  24              		.type	chThdCreateFromHeap, %function
  25              	chThdCreateFromHeap:
  26              	.LFB290:
  27              		.file 1 "../../modules/ChibiOS/os/rt/src/chdynamic.c"
  28              		.loc 1 84 0
  29              		.cfi_startproc
  30              		@ args = 8, pretend = 0, frame = 24
  31              		@ frame_needed = 0, uses_anonymous_args = 0
  32              	.LVL0:
  33 0000 F0B5     		push	{r4, r5, r6, r7, lr}
  34              		.cfi_def_cfa_offset 20
  35              		.cfi_offset 4, -20
  36              		.cfi_offset 5, -16
  37              		.cfi_offset 6, -12
  38              		.cfi_offset 7, -8
  39              		.cfi_offset 14, -4
  40 0002 1746     		mov	r7, r2
  41 0004 87B0     		sub	sp, sp, #28
  42              		.cfi_def_cfa_offset 48
  43              		.loc 1 88 0
  44 0006 0822     		movs	r2, #8
  45              	.LVL1:
  46              		.loc 1 84 0
  47 0008 0E46     		mov	r6, r1
  48 000a 1D46     		mov	r5, r3
  49              		.loc 1 88 0
  50 000c FFF7FEFF 		bl	chHeapAllocAligned
  51              	.LVL2:
  52              		.loc 1 89 0
  53 0010 0446     		mov	r4, r0
  54 0012 F8B1     		cbz	r0, .L1
  55              		.loc 1 93 0
  56 0014 0C9B     		ldr	r3, [sp, #48]
  57 0016 0493     		str	r3, [sp, #16]
ARM GAS  /tmp/cc8ZDNJg.s 			page 2


  58              		.loc 1 96 0
  59 0018 8119     		adds	r1, r0, r6
  60              		.loc 1 93 0
  61 001a 0D9B     		ldr	r3, [sp, #52]
  62 001c 0593     		str	r3, [sp, #20]
  63              		.loc 1 103 0
  64 001e 5522     		movs	r2, #85
  65              		.loc 1 93 0
  66 0020 0097     		str	r7, [sp]
  67 0022 0190     		str	r0, [sp, #4]
  68 0024 0291     		str	r1, [sp, #8]
  69 0026 0395     		str	r5, [sp, #12]
  70              		.loc 1 103 0
  71 0028 FFF7FEFF 		bl	_thread_memfill
  72              	.LVL3:
  73              	.LBB24:
  74              	.LBB25:
  75              	.LBB26:
  76              	.LBB27:
  77              	.LBB28:
  78              		.file 2 "../../modules/ChibiOS/os/common/ext/ARM/CMSIS/Core/Include/cmsis_gcc.h"
  79              		.loc 2 493 0
  80 002c 2023     		movs	r3, #32
  81              		.syntax unified
  82              	@ 493 "../../modules/ChibiOS/os/common/ext/ARM/CMSIS/Core/Include/cmsis_gcc.h" 1
  83 002e 83F31188 		MSR basepri, r3
  84              	@ 0 "" 2
  85              	.LVL4:
  86              		.thumb
  87              		.syntax unified
  88              	.LBE28:
  89              	.LBE27:
  90              	.LBE26:
  91              		.file 3 "../../modules/ChibiOS/os/rt/include/chsys.h"
  92              		.loc 3 356 0
  93 0032 FFF7FEFF 		bl	_stats_start_measure_crit_thd
  94              	.LVL5:
  95              	.LBE25:
  96              	.LBE24:
  97              		.loc 1 109 0
  98 0036 6846     		mov	r0, sp
  99 0038 FFF7FEFF 		bl	chThdCreateSuspendedI
 100              	.LVL6:
 101              		.loc 1 110 0
 102 003c 0123     		movs	r3, #1
 103 003e 80F82130 		strb	r3, [r0, #33]
 104              		.loc 1 111 0
 105 0042 0021     		movs	r1, #0
 106              		.loc 1 109 0
 107 0044 0446     		mov	r4, r0
 108              	.LVL7:
 109              		.loc 1 111 0
 110 0046 FFF7FEFF 		bl	chSchWakeupS
 111              	.LVL8:
 112              	.LBB29:
 113              	.LBB30:
 114              		.loc 3 368 0
ARM GAS  /tmp/cc8ZDNJg.s 			page 3


 115 004a FFF7FEFF 		bl	_stats_stop_measure_crit_thd
 116              	.LVL9:
 117              	.LBB31:
 118              	.LBB32:
 119              	.LBB33:
 120              		.loc 2 493 0
 121 004e 0023     		movs	r3, #0
 122              		.syntax unified
 123              	@ 493 "../../modules/ChibiOS/os/common/ext/ARM/CMSIS/Core/Include/cmsis_gcc.h" 1
 124 0050 83F31188 		MSR basepri, r3
 125              	@ 0 "" 2
 126              	.LVL10:
 127              		.thumb
 128              		.syntax unified
 129              	.L1:
 130              	.LBE33:
 131              	.LBE32:
 132              	.LBE31:
 133              	.LBE30:
 134              	.LBE29:
 135              		.loc 1 115 0
 136 0054 2046     		mov	r0, r4
 137 0056 07B0     		add	sp, sp, #28
 138              		.cfi_def_cfa_offset 20
 139              		@ sp needed
 140 0058 F0BD     		pop	{r4, r5, r6, r7, pc}
 141              		.cfi_endproc
 142              	.LFE290:
 143              		.size	chThdCreateFromHeap, .-chThdCreateFromHeap
 144              		.section	.text.chThdCreateFromMemoryPool,"ax",%progbits
 145              		.align	1
 146              		.global	chThdCreateFromMemoryPool
 147              		.syntax unified
 148              		.thumb
 149              		.thumb_func
 150              		.fpu fpv4-sp-d16
 151              		.type	chThdCreateFromMemoryPool, %function
 152              	chThdCreateFromMemoryPool:
 153              	.LFB291:
 154              		.loc 1 146 0
 155              		.cfi_startproc
 156              		@ args = 4, pretend = 0, frame = 24
 157              		@ frame_needed = 0, uses_anonymous_args = 0
 158              	.LVL11:
 159 0000 2DE9F041 		push	{r4, r5, r6, r7, r8, lr}
 160              		.cfi_def_cfa_offset 24
 161              		.cfi_offset 4, -24
 162              		.cfi_offset 5, -20
 163              		.cfi_offset 6, -16
 164              		.cfi_offset 7, -12
 165              		.cfi_offset 8, -8
 166              		.cfi_offset 14, -4
 167 0004 86B0     		sub	sp, sp, #24
 168              		.cfi_def_cfa_offset 48
 169              		.loc 1 146 0
 170 0006 0546     		mov	r5, r0
 171 0008 8846     		mov	r8, r1
ARM GAS  /tmp/cc8ZDNJg.s 			page 4


 172 000a 1746     		mov	r7, r2
 173 000c 1E46     		mov	r6, r3
 174              		.loc 1 152 0
 175 000e FFF7FEFF 		bl	chPoolAlloc
 176              	.LVL12:
 177              		.loc 1 153 0
 178 0012 0446     		mov	r4, r0
 179 0014 08B3     		cbz	r0, .L4
 180              		.loc 1 160 0
 181 0016 6968     		ldr	r1, [r5, #4]
 182              		.loc 1 157 0
 183 0018 0C9B     		ldr	r3, [sp, #48]
 184 001a 0593     		str	r3, [sp, #20]
 185              		.loc 1 160 0
 186 001c 0144     		add	r1, r1, r0
 187              		.loc 1 167 0
 188 001e 5522     		movs	r2, #85
 189              		.loc 1 157 0
 190 0020 CDF80080 		str	r8, [sp]
 191 0024 0190     		str	r0, [sp, #4]
 192 0026 0291     		str	r1, [sp, #8]
 193 0028 0397     		str	r7, [sp, #12]
 194 002a 0496     		str	r6, [sp, #16]
 195              		.loc 1 167 0
 196 002c FFF7FEFF 		bl	_thread_memfill
 197              	.LVL13:
 198              	.LBB44:
 199              	.LBB45:
 200              	.LBB46:
 201              	.LBB47:
 202              	.LBB48:
 203              		.loc 2 493 0
 204 0030 2023     		movs	r3, #32
 205              		.syntax unified
 206              	@ 493 "../../modules/ChibiOS/os/common/ext/ARM/CMSIS/Core/Include/cmsis_gcc.h" 1
 207 0032 83F31188 		MSR basepri, r3
 208              	@ 0 "" 2
 209              	.LVL14:
 210              		.thumb
 211              		.syntax unified
 212              	.LBE48:
 213              	.LBE47:
 214              	.LBE46:
 215              		.loc 3 356 0
 216 0036 FFF7FEFF 		bl	_stats_start_measure_crit_thd
 217              	.LVL15:
 218              	.LBE45:
 219              	.LBE44:
 220              		.loc 1 173 0
 221 003a 6846     		mov	r0, sp
 222 003c FFF7FEFF 		bl	chThdCreateSuspendedI
 223              	.LVL16:
 224              		.loc 1 174 0
 225 0040 0223     		movs	r3, #2
 226 0042 80F82130 		strb	r3, [r0, #33]
 227              		.loc 1 175 0
 228 0046 0564     		str	r5, [r0, #64]
ARM GAS  /tmp/cc8ZDNJg.s 			page 5


 229              		.loc 1 176 0
 230 0048 0021     		movs	r1, #0
 231              		.loc 1 173 0
 232 004a 0446     		mov	r4, r0
 233              	.LVL17:
 234              		.loc 1 176 0
 235 004c FFF7FEFF 		bl	chSchWakeupS
 236              	.LVL18:
 237              	.LBB49:
 238              	.LBB50:
 239              		.loc 3 368 0
 240 0050 FFF7FEFF 		bl	_stats_stop_measure_crit_thd
 241              	.LVL19:
 242              	.LBB51:
 243              	.LBB52:
 244              	.LBB53:
 245              		.loc 2 493 0
 246 0054 0023     		movs	r3, #0
 247              		.syntax unified
 248              	@ 493 "../../modules/ChibiOS/os/common/ext/ARM/CMSIS/Core/Include/cmsis_gcc.h" 1
 249 0056 83F31188 		MSR basepri, r3
 250              	@ 0 "" 2
 251              	.LVL20:
 252              		.thumb
 253              		.syntax unified
 254              	.L4:
 255              	.LBE53:
 256              	.LBE52:
 257              	.LBE51:
 258              	.LBE50:
 259              	.LBE49:
 260              		.loc 1 180 0
 261 005a 2046     		mov	r0, r4
 262 005c 06B0     		add	sp, sp, #24
 263              		.cfi_def_cfa_offset 24
 264              		@ sp needed
 265 005e BDE8F081 		pop	{r4, r5, r6, r7, r8, pc}
 266              		.cfi_endproc
 267              	.LFE291:
 268              		.size	chThdCreateFromMemoryPool, .-chThdCreateFromMemoryPool
 269              		.text
 270              	.Letext0:
 271              		.file 4 "/opt/gcc-arm-none-eabi-6-2017-q2-update/lib/gcc/arm-none-eabi/6.3.1/include/stddef.h"
 272              		.file 5 "/opt/gcc-arm-none-eabi-6-2017-q2-update/arm-none-eabi/include/machine/_default_types.h"
 273              		.file 6 "/opt/gcc-arm-none-eabi-6-2017-q2-update/arm-none-eabi/include/sys/_stdint.h"
 274              		.file 7 "../../modules/ChibiOS/os/common/ports/ARMCMx/compilers/GCC/chtypes.h"
 275              		.file 8 "../../modules/ChibiOS/os/rt/include/chsystypes.h"
 276              		.file 9 "../../modules/ChibiOS/os/rt/include/chschd.h"
 277              		.file 10 "../../modules/ChibiOS/os/rt/include/chtime.h"
 278              		.file 11 "../../modules/ChibiOS/os/common/ext/ARM/CMSIS/Core/Include/core_cm4.h"
 279              		.file 12 "../../modules/ChibiOS/os/common/ext/ST/STM32F4xx/system_stm32f4xx.h"
 280              		.file 13 "../../modules/ChibiOS/os/common/ports/ARMCMx/chcore.h"
 281              		.file 14 "../../modules/ChibiOS/os/common/ports/ARMCMx/chcore_v7m.h"
 282              		.file 15 "../../modules/ChibiOS/os/rt/include/chtm.h"
 283              		.file 16 "../../modules/ChibiOS/os/rt/include/chstats.h"
 284              		.file 17 "../../modules/ChibiOS/os/rt/include/chsem.h"
 285              		.file 18 "../../modules/ChibiOS/os/rt/include/chmtx.h"
ARM GAS  /tmp/cc8ZDNJg.s 			page 6


 286              		.file 19 "../../modules/ChibiOS/os/rt/include/chthreads.h"
 287              		.file 20 "../../modules/ChibiOS/os/rt/include/chregistry.h"
 288              		.file 21 "../../modules/ChibiOS/os/oslib/include/chmemcore.h"
 289              		.file 22 "../../modules/ChibiOS/os/oslib/include/chmemheaps.h"
 290              		.file 23 "../../modules/ChibiOS/os/oslib/include/chmempools.h"
 291              		.file 24 "../../modules/ChibiOS/os/oslib/include/chfactory.h"