ARM GAS  /tmp/cc8ZDNJg.s 			page 1


   1              		.cpu cortex-m4
   2              		.eabi_attribute 27, 1
   3              		.eabi_attribute 28, 1
   4              		.eabi_attribute 20, 1
   5              		.eabi_attribute 21, 1
   6              		.eabi_attribute 23, 3
   7              		.eabi_attribute 24, 1
   8              		.eabi_attribute 25, 1
   9              		.eabi_attribute 26, 1
  10              		.eabi_attribute 30, 4
  11              		.eabi_attribute 34, 1
  12              		.eabi_attribute 18, 4
  13              		.file	"chdynamic.c"
  14              		.text
  15              	.Ltext0:
  16              		.cfi_sections	.debug_frame
  17              		.section	.text.chThdCreateFromHeap,"ax",%progbits
  18              		.align	1
  19              		.global	chThdCreateFromHeap
  20              		.syntax unified
  21              		.thumb
  22              		.thumb_func
  23              		.fpu fpv4-sp-d16
  24              		.type	chThdCreateFromHeap, %function
  25              	chThdCreateFromHeap:
  26              	.LFB290:
  27              		.file 1 "../../modules/ChibiOS/os/rt/src/chdynamic.c"
  28              		.loc 1 84 0
  29              		.cfi_startproc
  30              		@ args = 8, pretend = 0, frame = 24
  31              		@ frame_needed = 0, uses_anonymous_args = 0
  32              	.LVL0:
  33 0000 F0B5     		push	{r4, r5, r6, r7, lr}
  34              		.cfi_def_cfa_offset 20
  35              		.cfi_offset 4, -20
  36              		.cfi_offset 5, -16
  37              		.cfi_offset 6, -12
  38              		.cfi_offset 7, -8
  39              		.cfi_offset 14, -4
  40 0002 1746     		mov	r7, r2
  41 0004 87B0     		sub	sp, sp, #28
  42              		.cfi_def_cfa_offset 48
  43              		.loc 1 88 0
  44 0006 0822     		movs	r2, #8
  45              	.LVL1:
  46              		.loc 1 84 0
  47 0008 0E46     		mov	r6, r1
  48 000a 1D46     		mov	r5, r3
  49              		.loc 1 88 0
  50 000c FFF7FEFF 		bl	chHeapAllocAligned
  51              	.LVL2:
  52              		.loc 1 89 0
  53 0010 0446     		mov	r4, r0
  54 0012 F8B1     		cbz	r0, .L1
  55              		.loc 1 93 0
  56 0014 0C9B     		ldr	r3, [sp, #48]
  57 0016 0493     		str	r3, [sp, #16]
ARM GAS  /tmp/cc8ZDNJg.s 			page 2


  58              		.loc 1 96 0
  59 0018 8119     		adds	r1, r0, r6
  60              		.loc 1 93 0
  61 001a 0D9B     		ldr	r3, [sp, #52]
  62 001c 0593     		str	r3, [sp, #20]
  63              		.loc 1 103 0
  64 001e 5522     		movs	r2, #85
  65              		.loc 1 93 0
  66 0020 0097     		str	r7, [sp]
  67 0022 0190     		str	r0, [sp, #4]
  68 0024 0291     		str	r1, [sp, #8]
  69 0026 0395     		str	r5, [sp, #12]
  70              		.loc 1 103 0
  71 0028 FFF7FEFF 		bl	_thread_memfill
  72              	.LVL3:
  73              	.LBB24:
  74              	.LBB25:
  75              	.LBB26:
  76              	.LBB27:
  77              	.LBB28:
  78              		.file 2 "../../modules/ChibiOS/os/common/ext/ARM/CMSIS/Core/Include/cmsis_gcc.h"
  79              		.loc 2 493 0
  80 002c 2023     		movs	r3, #32
  81              		.syntax unified
  82              	@ 493 "../../modules/ChibiOS/os/common/ext/ARM/CMSIS/Core/Include/cmsis_gcc.h" 1
  83 002e 83F31188 		MSR basepri, r3
  84              	@ 0 "" 2
  85              	.LVL4:
  86              		.thumb
  87              		.syntax unified
  88              	.LBE28:
  89              	.LBE27:
  90              	.LBE26:
  91              		.file 3 "../../modules/ChibiOS/os/rt/include/chsys.h"
  92              		.loc 3 356 0
  93 0032 FFF7FEFF 		bl	_stats_start_measure_crit_thd
  94              	.LVL5:
  95              	.LBE25:
  96              	.LBE24:
  97              		.loc 1 109 0
  98 0036 6846     		mov	r0, sp
  99 0038 FFF7FEFF 		bl	chThdCreateSuspendedI
 100              	.LVL6:
 101              		.loc 1 110 0
 102 003c 0123     		movs	r3, #1
 103 003e 80F82130 		strb	r3, [r0, #33]
 104              		.loc 1 111 0
 105 0042 0021     		movs	r1, #0
 106              		.loc 1 109 0
 107 0044 0446     		mov	r4, r0
 108              	.LVL7:
 109              		.loc 1 111 0
 110 0046 FFF7FEFF 		bl	chSchWakeupS
 111              	.LVL8:
 112              	.LBB29:
 113              	.LBB30:
 114              		.loc 3 368 0
ARM GAS  /tmp/cc8ZDNJg.s 			page 3


 115 004a FFF7FEFF 		bl	_stats_stop_measure_crit_thd
 116              	.LVL9:
 117              	.LBB31:
 118              	.LBB32:
 119              	.LBB33:
 120              		.loc 2 493 0
 121 004e 0023     		movs	r3, #0
 122              		.syntax unified
 123              	@ 493 "../../modules/ChibiOS/os/common/ext/ARM/CMSIS/Core/Include/cmsis_gcc.h" 1
 124 0050 83F31188 		MSR basepri, r3
 125              	@ 0 "" 2
 126              	.LVL10:
 127              		.thumb
 128              		.syntax unified
 129              	.L1:
 130              	.LBE33:
 131              	.LBE32:
 132              	.LBE31:
 133              	.LBE30:
 134              	.LBE29:
 135              		.loc 1 115 0
 136 0054 2046     		mov	r0, r4
 137 0056 07B0     		add	sp, sp, #28
 138              		.cfi_def_cfa_offset 20
 139              		@ sp needed
 140 0058 F0BD     		pop	{r4, r5, r6, r7, pc}
 141              		.cfi_endproc
 142              	.LFE290:
 143              		.size	chThdCreateFromHeap, .-chThdCreateFromHeap
 144              		.section	.text.chThdCreateFromMemoryPool,"ax",%progbits
 145              		.align	1
 146              		.global	chThdCreateFromMemoryPool
 147              		.syntax unified
 148              		.thumb
 149              		.thumb_func
 150              		.fpu fpv4-sp-d16
 151              		.type	chThdCreateFromMemoryPool, %function
 152              	chThdCreateFromMemoryPool:
 153              	.LFB291:
 154              		.loc 1 146 0
 155              		.cfi_startproc
 156              		@ args = 4, pretend = 0, frame = 24
 157              		@ frame_needed = 0, uses_anonymous_args = 0
 158              	.LVL11:
 159 0000 2DE9F041 		push	{r4, r5, r6, r7, r8, lr}
 160              		.cfi_def_cfa_offset 24
 161              		.cfi_offset 4, -24
 162              		.cfi_offset 5, -20
 163              		.cfi_offset 6, -16
 164              		.cfi_offset 7, -12
 165              		.cfi_offset 8, -8
 166              		.cfi_offset 14, -4
 167 0004 86B0     		sub	sp, sp, #24
 168              		.cfi_def_cfa_offset 48
 169              		.loc 1 146 0
 170 0006 0546     		mov	r5, r0
 171 0008 8846     		mov	r8, r1
ARM GAS  /tmp/cc8ZDNJg.s 			page 4


 172 000a 1746     		mov	r7, r2
 173 000c 1E46     		mov	r6, r3
 174              		.loc 1 152 0
 175 000e FFF7FEFF 		bl	chPoolAlloc
 176              	.LVL12:
 177              		.loc 1 153 0
 178 0012 0446     		mov	r4, r0
 179 0014 08B3     		cbz	r0, .L4
 180              		.loc 1 160 0
 181 0016 6968     		ldr	r1, [r5, #4]
 182              		.loc 1 157 0
 183 0018 0C9B     		ldr	r3, [sp, #48]
 184 001a 0593     		str	r3, [sp, #20]
 185              		.loc 1 160 0
 186 001c 0144     		add	r1, r1, r0
 187              		.loc 1 167 0
 188 001e 5522     		movs	r2, #85
 189              		.loc 1 157 0
 190 0020 CDF80080 		str	r8, [sp]
 191 0024 0190     		str	r0, [sp, #4]
 192 0026 0291     		str	r1, [sp, #8]
 193 0028 0397     		str	r7, [sp, #12]
 194 002a 0496     		str	r6, [sp, #16]
 195              		.loc 1 167 0
 196 002c FFF7FEFF 		bl	_thread_memfill
 197              	.LVL13:
 198              	.LBB44:
 199              	.LBB45:
 200              	.LBB46:
 201              	.LBB47:
 202              	.LBB48:
 203              		.loc 2 493 0
 204 0030 2023     		movs	r3, #32
 205              		.syntax unified
 206              	@ 493 "../../modules/ChibiOS/os/common/ext/ARM/CMSIS/Core/Include/cmsis_gcc.h" 1
 207 0032 83F31188 		MSR basepri, r3
 208              	@ 0 "" 2
 209              	.LVL14:
 210              		.thumb
 211              		.syntax unified
 212              	.LBE48:
 213              	.LBE47:
 214              	.LBE46:
 215              		.loc 3 356 0
 216 0036 FFF7FEFF 		bl	_stats_start_measure_crit_thd
 217              	.LVL15:
 218              	.LBE45:
 219              	.LBE44:
 220              		.loc 1 173 0
 221 003a 6846     		mov	r0, sp
 222 003c FFF7FEFF 		bl	chThdCreateSuspendedI
 223              	.LVL16:
 224              		.loc 1 174 0
 225 0040 0223     		movs	r3, #2
 226 0042 80F82130 		strb	r3, [r0, #33]
 227              		.loc 1 175 0
 228 0046 0564     		str	r5, [r0, #64]
ARM GAS  /tmp/cc8ZDNJg.s 			page 5


 229              		.loc 1 176 0
 230 0048 0021     		movs	r1, #0
 231              		.loc 1 173 0
 232 004a 0446     		mov	r4, r0
 233              	.LVL17:
 234              		.loc 1 176 0
 235 004c FFF7FEFF 		bl	chSchWakeupS
 236              	.LVL18:
 237              	.LBB49:
 238              	.LBB50:
 239              		.loc 3 368 0
 240 0050 FFF7FEFF 		bl	_stats_stop_measure_crit_thd
 241              	.LVL19:
 242              	.LBB51:
 243              	.LBB52:
 244              	.LBB53:
 245              		.loc 2 493 0
 246 0054 0023     		movs	r3, #0
 247              		.syntax unified
 248              	@ 493 "../../modules/ChibiOS/os/common/ext/ARM/CMSIS/Core/Include/cmsis_gcc.h" 1
 249 0056 83F31188 		MSR basepri, r3
 250              	@ 0 "" 2
 251              	.LVL20:
 252              		.thumb
 253              		.syntax unified
 254              	.L4:
 255              	.LBE53:
 256              	.LBE52:
 257              	.LBE51:
 258              	.LBE50:
 259              	.LBE49:
 260              		.loc 1 180 0
 261 005a 2046     		mov	r0, r4
 262 005c 06B0     		add	sp, sp, #24
 263              		.cfi_def_cfa_offset 24
 264              		@ sp needed
 265 005e BDE8F081 		pop	{r4, r5, r6, r7, r8, pc}
 266              		.cfi_endproc
 267              	.LFE291:
 268              		.size	chThdCreateFromMemoryPool, .-chThdCreateFromMemoryPool
 269              		.text
 270              	.Letext0:
 271              		.file 4 "/opt/gcc-arm-none-eabi-6-2017-q2-update/lib/gcc/arm-none-eabi/6.3.1/include/stddef.h"
 272              		.file 5 "/opt/gcc-arm-none-eabi-6-2017-q2-update/arm-none-eabi/include/machine/_default_types.h"
 273              		.file 6 "/opt/gcc-arm-none-eabi-6-2017-q2-update/arm-none-eabi/include/sys/_stdint.h"
 274              		.file 7 "../../modules/ChibiOS/os/common/ports/ARMCMx/compilers/GCC/chtypes.h"
 275              		.file 8 "../../modules/ChibiOS/os/rt/include/chsystypes.h"
 276              		.file 9 "../../modules/ChibiOS/os/rt/include/chschd.h"
 277              		.file 10 "../../modules/ChibiOS/os/rt/include/chtime.h"
 278              		.file 11 "../../modules/ChibiOS/os/common/ext/ARM/CMSIS/Core/Include/core_cm4.h"
 279              		.file 12 "../../modules/ChibiOS/os/common/ext/ST/STM32F4xx/system_stm32f4xx.h"
 280              		.file 13 "../../modules/ChibiOS/os/common/ports/ARMCMx/chcore.h"
 281              		.file 14 "../../modules/ChibiOS/os/common/ports/ARMCMx/chcore_v7m.h"
 282              		.file 15 "../../modules/ChibiOS/os/rt/include/chtm.h"
 283              		.file 16 "../../modules/ChibiOS/os/rt/include/chstats.h"
 284              		.file 17 "../../modules/ChibiOS/os/rt/include/chsem.h"
 285              		.file 18 "../../modules/ChibiOS/os/rt/include/chmtx.h"
ARM GAS  /tmp/cc8ZDNJg.s 			page 6


 286              		.file 19 "../../modules/ChibiOS/os/rt/include/chthreads.h"
 287              		.file 20 "../../modules/ChibiOS/os/rt/include/chregistry.h"
 288              		.file 21 "../../modules/ChibiOS/os/oslib/include/chmemcore.h"
 289              		.file 22 "../../modules/ChibiOS/os/oslib/include/chmemheaps.h"
 290              		.file 23 "../../modules/ChibiOS/os/oslib/include/chmempools.h"
 291              		.file 24 "../../modules/ChibiOS/os/oslib/include/chfactory.h"
 292              		.section	.debug_info,"",%progbits
 293              	.Ldebug_info0:
 294 0000 73100000 		.4byte	0x1073
 295 0004 0400     		.2byte	0x4
 296 0006 00000000 		.4byte	.Ldebug_abbrev0
 297 000a 04       		.byte	0x4
 298 000b 01       		.uleb128 0x1
 299 000c 6C010000 		.4byte	.LASF187
 300 0010 0C       		.byte	0xc
 301 0011 69060000 		.4byte	.LASF188
 302 0015 01070000 		.4byte	.LASF189
 303 0019 00000000 		.4byte	.Ldebug_ranges0+0
 304 001d 00000000 		.4byte	0
 305 0021 00000000 		.4byte	.Ldebug_line0
 306 0025 02       		.uleb128 0x2
 307 0026 04       		.byte	0x4
 308 0027 05       		.byte	0x5
 309 0028 696E7400 		.ascii	"int\000"
 310 002c 03       		.uleb128 0x3
 311 002d 15000000 		.4byte	.LASF4
 312 0031 04       		.byte	0x4
 313 0032 D8       		.byte	0xd8
 314 0033 37000000 		.4byte	0x37
 315 0037 04       		.uleb128 0x4
 316 0038 04       		.byte	0x4
 317 0039 07       		.byte	0x7
 318 003a 63030000 		.4byte	.LASF0
 319 003e 04       		.uleb128 0x4
 320 003f 08       		.byte	0x8
 321 0040 05       		.byte	0x5
 322 0041 4D010000 		.4byte	.LASF1
 323 0045 04       		.uleb128 0x4
 324 0046 08       		.byte	0x8
 325 0047 04       		.byte	0x4
 326 0048 DA040000 		.4byte	.LASF2
 327 004c 04       		.uleb128 0x4
 328 004d 01       		.byte	0x1
 329 004e 06       		.byte	0x6
 330 004f 5B010000 		.4byte	.LASF3
 331 0053 03       		.uleb128 0x3
 332 0054 4A000000 		.4byte	.LASF5
 333 0058 05       		.byte	0x5
 334 0059 2B       		.byte	0x2b
 335 005a 5E000000 		.4byte	0x5e
 336 005e 04       		.uleb128 0x4
 337 005f 01       		.byte	0x1
 338 0060 08       		.byte	0x8
 339 0061 0C060000 		.4byte	.LASF6
 340 0065 04       		.uleb128 0x4
 341 0066 02       		.byte	0x2
 342 0067 05       		.byte	0x5
ARM GAS  /tmp/cc8ZDNJg.s 			page 7


 343 0068 30060000 		.4byte	.LASF7
 344 006c 03       		.uleb128 0x3
 345 006d 99070000 		.4byte	.LASF8
 346 0071 05       		.byte	0x5
 347 0072 39       		.byte	0x39
 348 0073 77000000 		.4byte	0x77
 349 0077 04       		.uleb128 0x4
 350 0078 02       		.byte	0x2
 351 0079 07       		.byte	0x7
 352 007a 15080000 		.4byte	.LASF9
 353 007e 03       		.uleb128 0x3
 354 007f 5E040000 		.4byte	.LASF10
 355 0083 05       		.byte	0x5
 356 0084 4D       		.byte	0x4d
 357 0085 89000000 		.4byte	0x89
 358 0089 04       		.uleb128 0x4
 359 008a 04       		.byte	0x4
 360 008b 05       		.byte	0x5
 361 008c AC020000 		.4byte	.LASF11
 362 0090 03       		.uleb128 0x3
 363 0091 01030000 		.4byte	.LASF12
 364 0095 05       		.byte	0x5
 365 0096 4F       		.byte	0x4f
 366 0097 9B000000 		.4byte	0x9b
 367 009b 04       		.uleb128 0x4
 368 009c 04       		.byte	0x4
 369 009d 07       		.byte	0x7
 370 009e 5D070000 		.4byte	.LASF13
 371 00a2 03       		.uleb128 0x3
 372 00a3 7D050000 		.4byte	.LASF14
 373 00a7 05       		.byte	0x5
 374 00a8 69       		.byte	0x69
 375 00a9 AD000000 		.4byte	0xad
 376 00ad 04       		.uleb128 0x4
 377 00ae 08       		.byte	0x8
 378 00af 07       		.byte	0x7
 379 00b0 D5000000 		.4byte	.LASF15
 380 00b4 03       		.uleb128 0x3
 381 00b5 B6080000 		.4byte	.LASF16
 382 00b9 06       		.byte	0x6
 383 00ba 18       		.byte	0x18
 384 00bb 53000000 		.4byte	0x53
 385 00bf 05       		.uleb128 0x5
 386 00c0 B4000000 		.4byte	0xb4
 387 00c4 03       		.uleb128 0x3
 388 00c5 70030000 		.4byte	.LASF17
 389 00c9 06       		.byte	0x6
 390 00ca 24       		.byte	0x24
 391 00cb 6C000000 		.4byte	0x6c
 392 00cf 03       		.uleb128 0x3
 393 00d0 04060000 		.4byte	.LASF18
 394 00d4 06       		.byte	0x6
 395 00d5 2C       		.byte	0x2c
 396 00d6 7E000000 		.4byte	0x7e
 397 00da 06       		.uleb128 0x6
 398 00db CF000000 		.4byte	0xcf
 399 00df 03       		.uleb128 0x3
ARM GAS  /tmp/cc8ZDNJg.s 			page 8


 400 00e0 6D080000 		.4byte	.LASF19
 401 00e4 06       		.byte	0x6
 402 00e5 30       		.byte	0x30
 403 00e6 90000000 		.4byte	0x90
 404 00ea 03       		.uleb128 0x3
 405 00eb 34000000 		.4byte	.LASF20
 406 00ef 06       		.byte	0x6
 407 00f0 3C       		.byte	0x3c
 408 00f1 A2000000 		.4byte	0xa2
 409 00f5 03       		.uleb128 0x3
 410 00f6 3F080000 		.4byte	.LASF21
 411 00fa 07       		.byte	0x7
 412 00fb 27       		.byte	0x27
 413 00fc DF000000 		.4byte	0xdf
 414 0100 03       		.uleb128 0x3
 415 0101 44010000 		.4byte	.LASF22
 416 0105 07       		.byte	0x7
 417 0106 28       		.byte	0x28
 418 0107 EA000000 		.4byte	0xea
 419 010b 03       		.uleb128 0x3
 420 010c 1C040000 		.4byte	.LASF23
 421 0110 07       		.byte	0x7
 422 0111 2A       		.byte	0x2a
 423 0112 B4000000 		.4byte	0xb4
 424 0116 03       		.uleb128 0x3
 425 0117 C9020000 		.4byte	.LASF24
 426 011b 07       		.byte	0x7
 427 011c 2B       		.byte	0x2b
 428 011d B4000000 		.4byte	0xb4
 429 0121 03       		.uleb128 0x3
 430 0122 A2050000 		.4byte	.LASF25
 431 0126 07       		.byte	0x7
 432 0127 2C       		.byte	0x2c
 433 0128 B4000000 		.4byte	0xb4
 434 012c 03       		.uleb128 0x3
 435 012d E4050000 		.4byte	.LASF26
 436 0131 07       		.byte	0x7
 437 0132 2E       		.byte	0x2e
 438 0133 DF000000 		.4byte	0xdf
 439 0137 03       		.uleb128 0x3
 440 0138 E6030000 		.4byte	.LASF27
 441 013c 07       		.byte	0x7
 442 013d 2F       		.byte	0x2f
 443 013e CF000000 		.4byte	0xcf
 444 0142 03       		.uleb128 0x3
 445 0143 3D040000 		.4byte	.LASF28
 446 0147 07       		.byte	0x7
 447 0148 31       		.byte	0x31
 448 0149 DF000000 		.4byte	0xdf
 449 014d 03       		.uleb128 0x3
 450 014e 5D030000 		.4byte	.LASF29
 451 0152 07       		.byte	0x7
 452 0153 33       		.byte	0x33
 453 0154 CF000000 		.4byte	0xcf
 454 0158 03       		.uleb128 0x3
 455 0159 F1030000 		.4byte	.LASF30
 456 015d 07       		.byte	0x7
ARM GAS  /tmp/cc8ZDNJg.s 			page 9


 457 015e 34       		.byte	0x34
 458 015f DF000000 		.4byte	0xdf
 459 0163 03       		.uleb128 0x3
 460 0164 A4070000 		.4byte	.LASF31
 461 0168 08       		.byte	0x8
 462 0169 34       		.byte	0x34
 463 016a 6E010000 		.4byte	0x16e
 464 016e 07       		.uleb128 0x7
 465 016f DC030000 		.4byte	.LASF50
 466 0173 60       		.byte	0x60
 467 0174 09       		.byte	0x9
 468 0175 8E       		.byte	0x8e
 469 0176 59020000 		.4byte	0x259
 470 017a 08       		.uleb128 0x8
 471 017b B8030000 		.4byte	.LASF32
 472 017f 09       		.byte	0x9
 473 0180 8F       		.byte	0x8f
 474 0181 8E020000 		.4byte	0x28e
 475 0185 00       		.byte	0
 476 0186 08       		.uleb128 0x8
 477 0187 67050000 		.4byte	.LASF33
 478 018b 09       		.byte	0x9
 479 018c 90       		.byte	0x90
 480 018d 2C010000 		.4byte	0x12c
 481 0191 08       		.byte	0x8
 482 0192 09       		.uleb128 0x9
 483 0193 63747800 		.ascii	"ctx\000"
 484 0197 09       		.byte	0x9
 485 0198 91       		.byte	0x91
 486 0199 00050000 		.4byte	0x500
 487 019d 0C       		.byte	0xc
 488 019e 08       		.uleb128 0x8
 489 019f 73040000 		.4byte	.LASF34
 490 01a3 09       		.byte	0x9
 491 01a4 93       		.byte	0x93
 492 01a5 64020000 		.4byte	0x264
 493 01a9 10       		.byte	0x10
 494 01aa 08       		.uleb128 0x8
 495 01ab 8A070000 		.4byte	.LASF35
 496 01af 09       		.byte	0x9
 497 01b0 94       		.byte	0x94
 498 01b1 64020000 		.4byte	0x264
 499 01b5 14       		.byte	0x14
 500 01b6 08       		.uleb128 0x8
 501 01b7 01040000 		.4byte	.LASF36
 502 01bb 09       		.byte	0x9
 503 01bc 9B       		.byte	0x9b
 504 01bd E6070000 		.4byte	0x7e6
 505 01c1 18       		.byte	0x18
 506 01c2 08       		.uleb128 0x8
 507 01c3 B8060000 		.4byte	.LASF37
 508 01c7 09       		.byte	0x9
 509 01c8 A4       		.byte	0xa4
 510 01c9 FD070000 		.4byte	0x7fd
 511 01cd 1C       		.byte	0x1c
 512 01ce 08       		.uleb128 0x8
 513 01cf A6020000 		.4byte	.LASF38
ARM GAS  /tmp/cc8ZDNJg.s 			page 10


 514 01d3 09       		.byte	0x9
 515 01d4 A9       		.byte	0xa9
 516 01d5 16010000 		.4byte	0x116
 517 01d9 20       		.byte	0x20
 518 01da 08       		.uleb128 0x8
 519 01db CA080000 		.4byte	.LASF39
 520 01df 09       		.byte	0x9
 521 01e0 AD       		.byte	0xad
 522 01e1 0B010000 		.4byte	0x10b
 523 01e5 21       		.byte	0x21
 524 01e6 08       		.uleb128 0x8
 525 01e7 B5050000 		.4byte	.LASF40
 526 01eb 09       		.byte	0x9
 527 01ec B2       		.byte	0xb2
 528 01ed 21010000 		.4byte	0x121
 529 01f1 22       		.byte	0x22
 530 01f2 0A       		.uleb128 0xa
 531 01f3 7500     		.ascii	"u\000"
 532 01f5 09       		.byte	0x9
 533 01f6 0301     		.2byte	0x103
 534 01f8 1C070000 		.4byte	0x71c
 535 01fc 24       		.byte	0x24
 536 01fd 0B       		.uleb128 0xb
 537 01fe 2E030000 		.4byte	.LASF41
 538 0202 09       		.byte	0x9
 539 0203 0801     		.2byte	0x108
 540 0205 6A020000 		.4byte	0x26a
 541 0209 28       		.byte	0x28
 542 020a 0B       		.uleb128 0xb
 543 020b 9D020000 		.4byte	.LASF42
 544 020f 09       		.byte	0x9
 545 0210 0E01     		.2byte	0x10e
 546 0212 8E020000 		.4byte	0x28e
 547 0216 2C       		.byte	0x2c
 548 0217 0B       		.uleb128 0xb
 549 0218 F8030000 		.4byte	.LASF43
 550 021c 09       		.byte	0x9
 551 021d 1401     		.2byte	0x114
 552 021f 42010000 		.4byte	0x142
 553 0223 34       		.byte	0x34
 554 0224 0B       		.uleb128 0xb
 555 0225 22090000 		.4byte	.LASF44
 556 0229 09       		.byte	0x9
 557 022a 1B01     		.2byte	0x11b
 558 022c E0070000 		.4byte	0x7e0
 559 0230 38       		.byte	0x38
 560 0231 0B       		.uleb128 0xb
 561 0232 79040000 		.4byte	.LASF45
 562 0236 09       		.byte	0x9
 563 0237 1F01     		.2byte	0x11f
 564 0239 2C010000 		.4byte	0x12c
 565 023d 3C       		.byte	0x3c
 566 023e 0B       		.uleb128 0xb
 567 023f BE030000 		.4byte	.LASF46
 568 0243 09       		.byte	0x9
 569 0244 2601     		.2byte	0x126
 570 0246 41030000 		.4byte	0x341
ARM GAS  /tmp/cc8ZDNJg.s 			page 11


 571 024a 40       		.byte	0x40
 572 024b 0B       		.uleb128 0xb
 573 024c D7020000 		.4byte	.LASF47
 574 0250 09       		.byte	0x9
 575 0251 2C01     		.2byte	0x12c
 576 0253 CD060000 		.4byte	0x6cd
 577 0257 48       		.byte	0x48
 578 0258 00       		.byte	0
 579 0259 03       		.uleb128 0x3
 580 025a B0040000 		.4byte	.LASF48
 581 025e 08       		.byte	0x8
 582 025f 39       		.byte	0x39
 583 0260 64020000 		.4byte	0x264
 584 0264 0C       		.uleb128 0xc
 585 0265 04       		.byte	0x4
 586 0266 63010000 		.4byte	0x163
 587 026a 03       		.uleb128 0x3
 588 026b E1080000 		.4byte	.LASF49
 589 026f 08       		.byte	0x8
 590 0270 3E       		.byte	0x3e
 591 0271 75020000 		.4byte	0x275
 592 0275 07       		.uleb128 0x7
 593 0276 42070000 		.4byte	.LASF51
 594 027a 04       		.byte	0x4
 595 027b 09       		.byte	0x9
 596 027c 7C       		.byte	0x7c
 597 027d 8E020000 		.4byte	0x28e
 598 0281 08       		.uleb128 0x8
 599 0282 1C000000 		.4byte	.LASF52
 600 0286 09       		.byte	0x9
 601 0287 7D       		.byte	0x7d
 602 0288 64020000 		.4byte	0x264
 603 028c 00       		.byte	0
 604 028d 00       		.byte	0
 605 028e 03       		.uleb128 0x3
 606 028f 91080000 		.4byte	.LASF53
 607 0293 08       		.byte	0x8
 608 0294 45       		.byte	0x45
 609 0295 99020000 		.4byte	0x299
 610 0299 07       		.uleb128 0x7
 611 029a 4A090000 		.4byte	.LASF54
 612 029e 08       		.byte	0x8
 613 029f 09       		.byte	0x9
 614 02a0 83       		.byte	0x83
 615 02a1 BE020000 		.4byte	0x2be
 616 02a5 08       		.uleb128 0x8
 617 02a6 1C000000 		.4byte	.LASF52
 618 02aa 09       		.byte	0x9
 619 02ab 84       		.byte	0x84
 620 02ac 64020000 		.4byte	0x264
 621 02b0 00       		.byte	0
 622 02b1 08       		.uleb128 0x8
 623 02b2 54000000 		.4byte	.LASF55
 624 02b6 09       		.byte	0x9
 625 02b7 85       		.byte	0x85
 626 02b8 64020000 		.4byte	0x264
 627 02bc 04       		.byte	0x4
ARM GAS  /tmp/cc8ZDNJg.s 			page 12


 628 02bd 00       		.byte	0
 629 02be 03       		.uleb128 0x3
 630 02bf 08000000 		.4byte	.LASF56
 631 02c3 08       		.byte	0x8
 632 02c4 4C       		.byte	0x4c
 633 02c5 C9020000 		.4byte	0x2c9
 634 02c9 0D       		.uleb128 0xd
 635 02ca 2F040000 		.4byte	.LASF57
 636 02ce 1C       		.byte	0x1c
 637 02cf 09       		.byte	0x9
 638 02d0 5E01     		.2byte	0x15e
 639 02d2 25030000 		.4byte	0x325
 640 02d6 0B       		.uleb128 0xb
 641 02d7 B8030000 		.4byte	.LASF32
 642 02db 09       		.byte	0x9
 643 02dc 5F01     		.2byte	0x15f
 644 02de 8E020000 		.4byte	0x28e
 645 02e2 00       		.byte	0
 646 02e3 0B       		.uleb128 0xb
 647 02e4 67050000 		.4byte	.LASF33
 648 02e8 09       		.byte	0x9
 649 02e9 6001     		.2byte	0x160
 650 02eb 2C010000 		.4byte	0x12c
 651 02ef 08       		.byte	0x8
 652 02f0 0A       		.uleb128 0xa
 653 02f1 63747800 		.ascii	"ctx\000"
 654 02f5 09       		.byte	0x9
 655 02f6 6201     		.2byte	0x162
 656 02f8 00050000 		.4byte	0x500
 657 02fc 0C       		.byte	0xc
 658 02fd 0B       		.uleb128 0xb
 659 02fe 73040000 		.4byte	.LASF34
 660 0302 09       		.byte	0x9
 661 0303 6501     		.2byte	0x165
 662 0305 64020000 		.4byte	0x264
 663 0309 10       		.byte	0x10
 664 030a 0B       		.uleb128 0xb
 665 030b 8A070000 		.4byte	.LASF35
 666 030f 09       		.byte	0x9
 667 0310 6601     		.2byte	0x166
 668 0312 64020000 		.4byte	0x264
 669 0316 14       		.byte	0x14
 670 0317 0B       		.uleb128 0xb
 671 0318 75050000 		.4byte	.LASF58
 672 031c 09       		.byte	0x9
 673 031d 6901     		.2byte	0x169
 674 031f 64020000 		.4byte	0x264
 675 0323 18       		.byte	0x18
 676 0324 00       		.byte	0
 677 0325 03       		.uleb128 0x3
 678 0326 C7070000 		.4byte	.LASF59
 679 032a 08       		.byte	0x8
 680 032b 51       		.byte	0x51
 681 032c 30030000 		.4byte	0x330
 682 0330 0C       		.uleb128 0xc
 683 0331 04       		.byte	0x4
 684 0332 36030000 		.4byte	0x336
ARM GAS  /tmp/cc8ZDNJg.s 			page 13


 685 0336 0E       		.uleb128 0xe
 686 0337 41030000 		.4byte	0x341
 687 033b 0F       		.uleb128 0xf
 688 033c 41030000 		.4byte	0x341
 689 0340 00       		.byte	0
 690 0341 10       		.uleb128 0x10
 691 0342 04       		.byte	0x4
 692 0343 03       		.uleb128 0x3
 693 0344 BA050000 		.4byte	.LASF60
 694 0348 08       		.byte	0x8
 695 0349 56       		.byte	0x56
 696 034a 4E030000 		.4byte	0x34e
 697 034e 0D       		.uleb128 0xd
 698 034f BF060000 		.4byte	.LASF61
 699 0353 14       		.byte	0x14
 700 0354 09       		.byte	0x9
 701 0355 3901     		.2byte	0x139
 702 0357 9D030000 		.4byte	0x39d
 703 035b 0B       		.uleb128 0xb
 704 035c 1C000000 		.4byte	.LASF52
 705 0360 09       		.byte	0x9
 706 0361 3A01     		.2byte	0x13a
 707 0363 03080000 		.4byte	0x803
 708 0367 00       		.byte	0
 709 0368 0B       		.uleb128 0xb
 710 0369 54000000 		.4byte	.LASF55
 711 036d 09       		.byte	0x9
 712 036e 3B01     		.2byte	0x13b
 713 0370 03080000 		.4byte	0x803
 714 0374 04       		.byte	0x4
 715 0375 0B       		.uleb128 0xb
 716 0376 21000000 		.4byte	.LASF62
 717 037a 09       		.byte	0x9
 718 037b 3C01     		.2byte	0x13c
 719 037d 81040000 		.4byte	0x481
 720 0381 08       		.byte	0x8
 721 0382 0B       		.uleb128 0xb
 722 0383 D2020000 		.4byte	.LASF63
 723 0387 09       		.byte	0x9
 724 0388 3D01     		.2byte	0x13d
 725 038a 25030000 		.4byte	0x325
 726 038e 0C       		.byte	0xc
 727 038f 0A       		.uleb128 0xa
 728 0390 70617200 		.ascii	"par\000"
 729 0394 09       		.byte	0x9
 730 0395 3F01     		.2byte	0x13f
 731 0397 41030000 		.4byte	0x341
 732 039b 10       		.byte	0x10
 733 039c 00       		.byte	0
 734 039d 03       		.uleb128 0x3
 735 039e 08010000 		.4byte	.LASF64
 736 03a2 08       		.byte	0x8
 737 03a3 5B       		.byte	0x5b
 738 03a4 A8030000 		.4byte	0x3a8
 739 03a8 0D       		.uleb128 0xd
 740 03a9 C3040000 		.4byte	.LASF65
 741 03ad 10       		.byte	0x10
ARM GAS  /tmp/cc8ZDNJg.s 			page 14


 742 03ae 09       		.byte	0x9
 743 03af 4901     		.2byte	0x149
 744 03b1 EA030000 		.4byte	0x3ea
 745 03b5 0B       		.uleb128 0xb
 746 03b6 1C000000 		.4byte	.LASF52
 747 03ba 09       		.byte	0x9
 748 03bb 4A01     		.2byte	0x14a
 749 03bd 03080000 		.4byte	0x803
 750 03c1 00       		.byte	0
 751 03c2 0B       		.uleb128 0xb
 752 03c3 54000000 		.4byte	.LASF55
 753 03c7 09       		.byte	0x9
 754 03c8 4C01     		.2byte	0x14c
 755 03ca 03080000 		.4byte	0x803
 756 03ce 04       		.byte	0x4
 757 03cf 0B       		.uleb128 0xb
 758 03d0 21000000 		.4byte	.LASF62
 759 03d4 09       		.byte	0x9
 760 03d5 4E01     		.2byte	0x14e
 761 03d7 81040000 		.4byte	0x481
 762 03db 08       		.byte	0x8
 763 03dc 0B       		.uleb128 0xb
 764 03dd 3A060000 		.4byte	.LASF66
 765 03e1 09       		.byte	0x9
 766 03e2 5601     		.2byte	0x156
 767 03e4 76040000 		.4byte	0x476
 768 03e8 0C       		.byte	0xc
 769 03e9 00       		.byte	0
 770 03ea 03       		.uleb128 0x3
 771 03eb 6B000000 		.4byte	.LASF67
 772 03ef 08       		.byte	0x8
 773 03f0 60       		.byte	0x60
 774 03f1 F5030000 		.4byte	0x3f5
 775 03f5 0D       		.uleb128 0xd
 776 03f6 1E030000 		.4byte	.LASF68
 777 03fa 04       		.byte	0x4
 778 03fb 09       		.byte	0x9
 779 03fc 7001     		.2byte	0x170
 780 03fe 10040000 		.4byte	0x410
 781 0402 0B       		.uleb128 0xb
 782 0403 DE070000 		.4byte	.LASF69
 783 0407 09       		.byte	0x9
 784 0408 7801     		.2byte	0x178
 785 040a EC070000 		.4byte	0x7ec
 786 040e 00       		.byte	0
 787 040f 00       		.byte	0
 788 0410 03       		.uleb128 0x3
 789 0411 28080000 		.4byte	.LASF70
 790 0415 08       		.byte	0x8
 791 0416 65       		.byte	0x65
 792 0417 1B040000 		.4byte	0x41b
 793 041b 0D       		.uleb128 0xd
 794 041c 56060000 		.4byte	.LASF71
 795 0420 D0       		.byte	0xd0
 796 0421 09       		.byte	0x9
 797 0422 9001     		.2byte	0x190
 798 0424 76040000 		.4byte	0x476
ARM GAS  /tmp/cc8ZDNJg.s 			page 15


 799 0428 0B       		.uleb128 0xb
 800 0429 36030000 		.4byte	.LASF72
 801 042d 09       		.byte	0x9
 802 042e 9401     		.2byte	0x194
 803 0430 BE020000 		.4byte	0x2be
 804 0434 00       		.byte	0
 805 0435 0B       		.uleb128 0xb
 806 0436 8A020000 		.4byte	.LASF73
 807 043a 09       		.byte	0x9
 808 043b 9801     		.2byte	0x198
 809 043d 9D030000 		.4byte	0x39d
 810 0441 1C       		.byte	0x1c
 811 0442 0A       		.uleb128 0xa
 812 0443 64626700 		.ascii	"dbg\000"
 813 0447 09       		.byte	0x9
 814 0448 9C01     		.2byte	0x19c
 815 044a EA030000 		.4byte	0x3ea
 816 044e 2C       		.byte	0x2c
 817 044f 0B       		.uleb128 0xb
 818 0450 F5000000 		.4byte	.LASF74
 819 0454 09       		.byte	0x9
 820 0455 A001     		.2byte	0x1a0
 821 0457 63010000 		.4byte	0x163
 822 045b 30       		.byte	0x30
 823 045c 0A       		.uleb128 0xa
 824 045d 746D00   		.ascii	"tm\000"
 825 0460 09       		.byte	0x9
 826 0461 A501     		.2byte	0x1a5
 827 0463 7F060000 		.4byte	0x67f
 828 0467 90       		.byte	0x90
 829 0468 0B       		.uleb128 0xb
 830 0469 3D000000 		.4byte	.LASF75
 831 046d 09       		.byte	0x9
 832 046e AB01     		.2byte	0x1ab
 833 0470 11070000 		.4byte	0x711
 834 0474 98       		.byte	0x98
 835 0475 00       		.byte	0
 836 0476 03       		.uleb128 0x3
 837 0477 BD070000 		.4byte	.LASF76
 838 047b 0A       		.byte	0xa
 839 047c 6D       		.byte	0x6d
 840 047d DF000000 		.4byte	0xdf
 841 0481 03       		.uleb128 0x3
 842 0482 4F030000 		.4byte	.LASF77
 843 0486 0A       		.byte	0xa
 844 0487 79       		.byte	0x79
 845 0488 DF000000 		.4byte	0xdf
 846 048c 04       		.uleb128 0x4
 847 048d 04       		.byte	0x4
 848 048e 07       		.byte	0x7
 849 048f A7040000 		.4byte	.LASF78
 850 0493 11       		.uleb128 0x11
 851 0494 1E010000 		.4byte	.LASF79
 852 0498 0B       		.byte	0xb
 853 0499 0408     		.2byte	0x804
 854 049b DA000000 		.4byte	0xda
 855 049f 12       		.uleb128 0x12
ARM GAS  /tmp/cc8ZDNJg.s 			page 16


 856 04a0 79030000 		.4byte	.LASF80
 857 04a4 0C       		.byte	0xc
 858 04a5 4C       		.byte	0x4c
 859 04a6 DF000000 		.4byte	0xdf
 860 04aa 13       		.uleb128 0x13
 861 04ab BF000000 		.4byte	0xbf
 862 04af BA040000 		.4byte	0x4ba
 863 04b3 14       		.uleb128 0x14
 864 04b4 8C040000 		.4byte	0x48c
 865 04b8 0F       		.byte	0xf
 866 04b9 00       		.byte	0
 867 04ba 05       		.uleb128 0x5
 868 04bb AA040000 		.4byte	0x4aa
 869 04bf 12       		.uleb128 0x12
 870 04c0 49040000 		.4byte	.LASF81
 871 04c4 0C       		.byte	0xc
 872 04c5 4E       		.byte	0x4e
 873 04c6 BA040000 		.4byte	0x4ba
 874 04ca 13       		.uleb128 0x13
 875 04cb BF000000 		.4byte	0xbf
 876 04cf DA040000 		.4byte	0x4da
 877 04d3 14       		.uleb128 0x14
 878 04d4 8C040000 		.4byte	0x48c
 879 04d8 07       		.byte	0x7
 880 04d9 00       		.byte	0
 881 04da 05       		.uleb128 0x5
 882 04db CA040000 		.4byte	0x4ca
 883 04df 12       		.uleb128 0x12
 884 04e0 1A050000 		.4byte	.LASF82
 885 04e4 0C       		.byte	0xc
 886 04e5 4F       		.byte	0x4f
 887 04e6 DA040000 		.4byte	0x4da
 888 04ea 03       		.uleb128 0x3
 889 04eb 0C030000 		.4byte	.LASF83
 890 04ef 0D       		.byte	0xd
 891 04f0 65       		.byte	0x65
 892 04f1 41030000 		.4byte	0x341
 893 04f5 03       		.uleb128 0x3
 894 04f6 68040000 		.4byte	.LASF84
 895 04fa 0D       		.byte	0xd
 896 04fb 6D       		.byte	0x6d
 897 04fc EA000000 		.4byte	0xea
 898 0500 07       		.uleb128 0x7
 899 0501 AA000000 		.4byte	.LASF85
 900 0505 04       		.byte	0x4
 901 0506 0D       		.byte	0xd
 902 0507 89       		.byte	0x89
 903 0508 18050000 		.4byte	0x518
 904 050c 09       		.uleb128 0x9
 905 050d 737000   		.ascii	"sp\000"
 906 0510 0D       		.byte	0xd
 907 0511 8A       		.byte	0x8a
 908 0512 64060000 		.4byte	0x664
 909 0516 00       		.byte	0
 910 0517 00       		.byte	0
 911 0518 0D       		.uleb128 0xd
 912 0519 59000000 		.4byte	.LASF86
ARM GAS  /tmp/cc8ZDNJg.s 			page 17


 913 051d 64       		.byte	0x64
 914 051e 0E       		.byte	0xe
 915 051f 5901     		.2byte	0x159
 916 0521 64060000 		.4byte	0x664
 917 0525 0A       		.uleb128 0xa
 918 0526 73313600 		.ascii	"s16\000"
 919 052a 0E       		.byte	0xe
 920 052b 5B01     		.2byte	0x15b
 921 052d EA040000 		.4byte	0x4ea
 922 0531 00       		.byte	0
 923 0532 0A       		.uleb128 0xa
 924 0533 73313700 		.ascii	"s17\000"
 925 0537 0E       		.byte	0xe
 926 0538 5C01     		.2byte	0x15c
 927 053a EA040000 		.4byte	0x4ea
 928 053e 04       		.byte	0x4
 929 053f 0A       		.uleb128 0xa
 930 0540 73313800 		.ascii	"s18\000"
 931 0544 0E       		.byte	0xe
 932 0545 5D01     		.2byte	0x15d
 933 0547 EA040000 		.4byte	0x4ea
 934 054b 08       		.byte	0x8
 935 054c 0A       		.uleb128 0xa
 936 054d 73313900 		.ascii	"s19\000"
 937 0551 0E       		.byte	0xe
 938 0552 5E01     		.2byte	0x15e
 939 0554 EA040000 		.4byte	0x4ea
 940 0558 0C       		.byte	0xc
 941 0559 0A       		.uleb128 0xa
 942 055a 73323000 		.ascii	"s20\000"
 943 055e 0E       		.byte	0xe
 944 055f 5F01     		.2byte	0x15f
 945 0561 EA040000 		.4byte	0x4ea
 946 0565 10       		.byte	0x10
 947 0566 0A       		.uleb128 0xa
 948 0567 73323100 		.ascii	"s21\000"
 949 056b 0E       		.byte	0xe
 950 056c 6001     		.2byte	0x160
 951 056e EA040000 		.4byte	0x4ea
 952 0572 14       		.byte	0x14
 953 0573 0A       		.uleb128 0xa
 954 0574 73323200 		.ascii	"s22\000"
 955 0578 0E       		.byte	0xe
 956 0579 6101     		.2byte	0x161
 957 057b EA040000 		.4byte	0x4ea
 958 057f 18       		.byte	0x18
 959 0580 0A       		.uleb128 0xa
 960 0581 73323300 		.ascii	"s23\000"
 961 0585 0E       		.byte	0xe
 962 0586 6201     		.2byte	0x162
 963 0588 EA040000 		.4byte	0x4ea
 964 058c 1C       		.byte	0x1c
 965 058d 0A       		.uleb128 0xa
 966 058e 73323400 		.ascii	"s24\000"
 967 0592 0E       		.byte	0xe
 968 0593 6301     		.2byte	0x163
 969 0595 EA040000 		.4byte	0x4ea
ARM GAS  /tmp/cc8ZDNJg.s 			page 18


 970 0599 20       		.byte	0x20
 971 059a 0A       		.uleb128 0xa
 972 059b 73323500 		.ascii	"s25\000"
 973 059f 0E       		.byte	0xe
 974 05a0 6401     		.2byte	0x164
 975 05a2 EA040000 		.4byte	0x4ea
 976 05a6 24       		.byte	0x24
 977 05a7 0A       		.uleb128 0xa
 978 05a8 73323600 		.ascii	"s26\000"
 979 05ac 0E       		.byte	0xe
 980 05ad 6501     		.2byte	0x165
 981 05af EA040000 		.4byte	0x4ea
 982 05b3 28       		.byte	0x28
 983 05b4 0A       		.uleb128 0xa
 984 05b5 73323700 		.ascii	"s27\000"
 985 05b9 0E       		.byte	0xe
 986 05ba 6601     		.2byte	0x166
 987 05bc EA040000 		.4byte	0x4ea
 988 05c0 2C       		.byte	0x2c
 989 05c1 0A       		.uleb128 0xa
 990 05c2 73323800 		.ascii	"s28\000"
 991 05c6 0E       		.byte	0xe
 992 05c7 6701     		.2byte	0x167
 993 05c9 EA040000 		.4byte	0x4ea
 994 05cd 30       		.byte	0x30
 995 05ce 0A       		.uleb128 0xa
 996 05cf 73323900 		.ascii	"s29\000"
 997 05d3 0E       		.byte	0xe
 998 05d4 6801     		.2byte	0x168
 999 05d6 EA040000 		.4byte	0x4ea
 1000 05da 34       		.byte	0x34
 1001 05db 0A       		.uleb128 0xa
 1002 05dc 73333000 		.ascii	"s30\000"
 1003 05e0 0E       		.byte	0xe
 1004 05e1 6901     		.2byte	0x169
 1005 05e3 EA040000 		.4byte	0x4ea
 1006 05e7 38       		.byte	0x38
 1007 05e8 0A       		.uleb128 0xa
 1008 05e9 73333100 		.ascii	"s31\000"
 1009 05ed 0E       		.byte	0xe
 1010 05ee 6A01     		.2byte	0x16a
 1011 05f0 EA040000 		.4byte	0x4ea
 1012 05f4 3C       		.byte	0x3c
 1013 05f5 0A       		.uleb128 0xa
 1014 05f6 723400   		.ascii	"r4\000"
 1015 05f9 0E       		.byte	0xe
 1016 05fa 6C01     		.2byte	0x16c
 1017 05fc EA040000 		.4byte	0x4ea
 1018 0600 40       		.byte	0x40
 1019 0601 0A       		.uleb128 0xa
 1020 0602 723500   		.ascii	"r5\000"
 1021 0605 0E       		.byte	0xe
 1022 0606 6D01     		.2byte	0x16d
 1023 0608 EA040000 		.4byte	0x4ea
 1024 060c 44       		.byte	0x44
 1025 060d 0A       		.uleb128 0xa
 1026 060e 723600   		.ascii	"r6\000"
ARM GAS  /tmp/cc8ZDNJg.s 			page 19


 1027 0611 0E       		.byte	0xe
 1028 0612 6E01     		.2byte	0x16e
 1029 0614 EA040000 		.4byte	0x4ea
 1030 0618 48       		.byte	0x48
 1031 0619 0A       		.uleb128 0xa
 1032 061a 723700   		.ascii	"r7\000"
 1033 061d 0E       		.byte	0xe
 1034 061e 6F01     		.2byte	0x16f
 1035 0620 EA040000 		.4byte	0x4ea
 1036 0624 4C       		.byte	0x4c
 1037 0625 0A       		.uleb128 0xa
 1038 0626 723800   		.ascii	"r8\000"
 1039 0629 0E       		.byte	0xe
 1040 062a 7001     		.2byte	0x170
 1041 062c EA040000 		.4byte	0x4ea
 1042 0630 50       		.byte	0x50
 1043 0631 0A       		.uleb128 0xa
 1044 0632 723900   		.ascii	"r9\000"
 1045 0635 0E       		.byte	0xe
 1046 0636 7101     		.2byte	0x171
 1047 0638 EA040000 		.4byte	0x4ea
 1048 063c 54       		.byte	0x54
 1049 063d 0A       		.uleb128 0xa
 1050 063e 72313000 		.ascii	"r10\000"
 1051 0642 0E       		.byte	0xe
 1052 0643 7201     		.2byte	0x172
 1053 0645 EA040000 		.4byte	0x4ea
 1054 0649 58       		.byte	0x58
 1055 064a 0A       		.uleb128 0xa
 1056 064b 72313100 		.ascii	"r11\000"
 1057 064f 0E       		.byte	0xe
 1058 0650 7301     		.2byte	0x173
 1059 0652 EA040000 		.4byte	0x4ea
 1060 0656 5C       		.byte	0x5c
 1061 0657 0A       		.uleb128 0xa
 1062 0658 6C7200   		.ascii	"lr\000"
 1063 065b 0E       		.byte	0xe
 1064 065c 7401     		.2byte	0x174
 1065 065e EA040000 		.4byte	0x4ea
 1066 0662 60       		.byte	0x60
 1067 0663 00       		.byte	0
 1068 0664 0C       		.uleb128 0xc
 1069 0665 04       		.byte	0x4
 1070 0666 18050000 		.4byte	0x518
 1071 066a 15       		.uleb128 0x15
 1072 066b 04       		.byte	0x4
 1073 066c 0F       		.byte	0xf
 1074 066d 38       		.byte	0x38
 1075 066e 7F060000 		.4byte	0x67f
 1076 0672 08       		.uleb128 0x8
 1077 0673 E8070000 		.4byte	.LASF87
 1078 0677 0F       		.byte	0xf
 1079 0678 3C       		.byte	0x3c
 1080 0679 F5000000 		.4byte	0xf5
 1081 067d 00       		.byte	0
 1082 067e 00       		.byte	0
 1083 067f 03       		.uleb128 0x3
ARM GAS  /tmp/cc8ZDNJg.s 			page 20


 1084 0680 48050000 		.4byte	.LASF88
 1085 0684 0F       		.byte	0xf
 1086 0685 3D       		.byte	0x3d
 1087 0686 6A060000 		.4byte	0x66a
 1088 068a 15       		.uleb128 0x15
 1089 068b 18       		.byte	0x18
 1090 068c 0F       		.byte	0xf
 1091 068d 48       		.byte	0x48
 1092 068e CD060000 		.4byte	0x6cd
 1093 0692 08       		.uleb128 0x8
 1094 0693 AD070000 		.4byte	.LASF89
 1095 0697 0F       		.byte	0xf
 1096 0698 49       		.byte	0x49
 1097 0699 F5000000 		.4byte	0xf5
 1098 069d 00       		.byte	0
 1099 069e 08       		.uleb128 0x8
 1100 069f B7000000 		.4byte	.LASF90
 1101 06a3 0F       		.byte	0xf
 1102 06a4 4A       		.byte	0x4a
 1103 06a5 F5000000 		.4byte	0xf5
 1104 06a9 04       		.byte	0x4
 1105 06aa 08       		.uleb128 0x8
 1106 06ab EC030000 		.4byte	.LASF91
 1107 06af 0F       		.byte	0xf
 1108 06b0 4B       		.byte	0x4b
 1109 06b1 F5000000 		.4byte	0xf5
 1110 06b5 08       		.byte	0x8
 1111 06b6 09       		.uleb128 0x9
 1112 06b7 6E00     		.ascii	"n\000"
 1113 06b9 0F       		.byte	0xf
 1114 06ba 4C       		.byte	0x4c
 1115 06bb 58010000 		.4byte	0x158
 1116 06bf 0C       		.byte	0xc
 1117 06c0 08       		.uleb128 0x8
 1118 06c1 92050000 		.4byte	.LASF92
 1119 06c5 0F       		.byte	0xf
 1120 06c6 4D       		.byte	0x4d
 1121 06c7 00010000 		.4byte	0x100
 1122 06cb 10       		.byte	0x10
 1123 06cc 00       		.byte	0
 1124 06cd 03       		.uleb128 0x3
 1125 06ce BD000000 		.4byte	.LASF93
 1126 06d2 0F       		.byte	0xf
 1127 06d3 4E       		.byte	0x4e
 1128 06d4 8A060000 		.4byte	0x68a
 1129 06d8 15       		.uleb128 0x15
 1130 06d9 38       		.byte	0x38
 1131 06da 10       		.byte	0x10
 1132 06db 38       		.byte	0x38
 1133 06dc 11070000 		.4byte	0x711
 1134 06e0 08       		.uleb128 0x8
 1135 06e1 3C090000 		.4byte	.LASF94
 1136 06e5 10       		.byte	0x10
 1137 06e6 39       		.byte	0x39
 1138 06e7 58010000 		.4byte	0x158
 1139 06eb 00       		.byte	0
 1140 06ec 08       		.uleb128 0x8
ARM GAS  /tmp/cc8ZDNJg.s 			page 21


 1141 06ed F5050000 		.4byte	.LASF95
 1142 06f1 10       		.byte	0x10
 1143 06f2 3A       		.byte	0x3a
 1144 06f3 58010000 		.4byte	0x158
 1145 06f7 04       		.byte	0x4
 1146 06f8 08       		.uleb128 0x8
 1147 06f9 2A090000 		.4byte	.LASF96
 1148 06fd 10       		.byte	0x10
 1149 06fe 3B       		.byte	0x3b
 1150 06ff CD060000 		.4byte	0x6cd
 1151 0703 08       		.byte	0x8
 1152 0704 08       		.uleb128 0x8
 1153 0705 24040000 		.4byte	.LASF97
 1154 0709 10       		.byte	0x10
 1155 070a 3D       		.byte	0x3d
 1156 070b CD060000 		.4byte	0x6cd
 1157 070f 20       		.byte	0x20
 1158 0710 00       		.byte	0
 1159 0711 03       		.uleb128 0x3
 1160 0712 CD030000 		.4byte	.LASF98
 1161 0716 10       		.byte	0x10
 1162 0717 3F       		.byte	0x3f
 1163 0718 D8060000 		.4byte	0x6d8
 1164 071c 16       		.uleb128 0x16
 1165 071d 04       		.byte	0x4
 1166 071e 09       		.byte	0x9
 1167 071f C6       		.byte	0xc6
 1168 0720 7E070000 		.4byte	0x77e
 1169 0724 17       		.uleb128 0x17
 1170 0725 27000000 		.4byte	.LASF99
 1171 0729 09       		.byte	0x9
 1172 072a CD       		.byte	0xcd
 1173 072b 37010000 		.4byte	0x137
 1174 072f 17       		.uleb128 0x17
 1175 0730 EC000000 		.4byte	.LASF100
 1176 0734 09       		.byte	0x9
 1177 0735 D4       		.byte	0xd4
 1178 0736 37010000 		.4byte	0x137
 1179 073a 17       		.uleb128 0x17
 1180 073b DA080000 		.4byte	.LASF101
 1181 073f 09       		.byte	0x9
 1182 0740 DB       		.byte	0xdb
 1183 0741 41030000 		.4byte	0x341
 1184 0745 17       		.uleb128 0x17
 1185 0746 90030000 		.4byte	.LASF102
 1186 074a 09       		.byte	0x9
 1187 074b E2       		.byte	0xe2
 1188 074c 7E070000 		.4byte	0x77e
 1189 0750 17       		.uleb128 0x17
 1190 0751 00010000 		.4byte	.LASF103
 1191 0755 09       		.byte	0x9
 1192 0756 E7       		.byte	0xe7
 1193 0757 37010000 		.4byte	0x137
 1194 075b 17       		.uleb128 0x17
 1195 075c 89030000 		.4byte	.LASF104
 1196 0760 09       		.byte	0x9
 1197 0761 F0       		.byte	0xf0
ARM GAS  /tmp/cc8ZDNJg.s 			page 22


 1198 0762 A9070000 		.4byte	0x7a9
 1199 0766 17       		.uleb128 0x17
 1200 0767 3B070000 		.4byte	.LASF105
 1201 076b 09       		.byte	0x9
 1202 076c F9       		.byte	0xf9
 1203 076d E0070000 		.4byte	0x7e0
 1204 0771 18       		.uleb128 0x18
 1205 0772 4F060000 		.4byte	.LASF106
 1206 0776 09       		.byte	0x9
 1207 0777 0101     		.2byte	0x101
 1208 0779 42010000 		.4byte	0x142
 1209 077d 00       		.byte	0
 1210 077e 0C       		.uleb128 0xc
 1211 077f 04       		.byte	0x4
 1212 0780 59020000 		.4byte	0x259
 1213 0784 07       		.uleb128 0x7
 1214 0785 D0060000 		.4byte	.LASF107
 1215 0789 0C       		.byte	0xc
 1216 078a 11       		.byte	0x11
 1217 078b 34       		.byte	0x34
 1218 078c A9070000 		.4byte	0x7a9
 1219 0790 08       		.uleb128 0x8
 1220 0791 B8030000 		.4byte	.LASF32
 1221 0795 11       		.byte	0x11
 1222 0796 35       		.byte	0x35
 1223 0797 8E020000 		.4byte	0x28e
 1224 079b 00       		.byte	0
 1225 079c 09       		.uleb128 0x9
 1226 079d 636E7400 		.ascii	"cnt\000"
 1227 07a1 11       		.byte	0x11
 1228 07a2 37       		.byte	0x37
 1229 07a3 4D010000 		.4byte	0x14d
 1230 07a7 08       		.byte	0x8
 1231 07a8 00       		.byte	0
 1232 07a9 0C       		.uleb128 0xc
 1233 07aa 04       		.byte	0x4
 1234 07ab 84070000 		.4byte	0x784
 1235 07af 07       		.uleb128 0x7
 1236 07b0 02080000 		.4byte	.LASF108
 1237 07b4 10       		.byte	0x10
 1238 07b5 12       		.byte	0x12
 1239 07b6 39       		.byte	0x39
 1240 07b7 E0070000 		.4byte	0x7e0
 1241 07bb 08       		.uleb128 0x8
 1242 07bc B8030000 		.4byte	.LASF32
 1243 07c0 12       		.byte	0x12
 1244 07c1 3A       		.byte	0x3a
 1245 07c2 8E020000 		.4byte	0x28e
 1246 07c6 00       		.byte	0
 1247 07c7 08       		.uleb128 0x8
 1248 07c8 52070000 		.4byte	.LASF109
 1249 07cc 12       		.byte	0x12
 1250 07cd 3C       		.byte	0x3c
 1251 07ce 64020000 		.4byte	0x264
 1252 07d2 08       		.byte	0x8
 1253 07d3 08       		.uleb128 0x8
 1254 07d4 1C000000 		.4byte	.LASF52
ARM GAS  /tmp/cc8ZDNJg.s 			page 23


 1255 07d8 12       		.byte	0x12
 1256 07d9 3E       		.byte	0x3e
 1257 07da A9090000 		.4byte	0x9a9
 1258 07de 0C       		.byte	0xc
 1259 07df 00       		.byte	0
 1260 07e0 0C       		.uleb128 0xc
 1261 07e1 04       		.byte	0x4
 1262 07e2 AF070000 		.4byte	0x7af
 1263 07e6 0C       		.uleb128 0xc
 1264 07e7 04       		.byte	0x4
 1265 07e8 F8070000 		.4byte	0x7f8
 1266 07ec 06       		.uleb128 0x6
 1267 07ed E6070000 		.4byte	0x7e6
 1268 07f1 04       		.uleb128 0x4
 1269 07f2 01       		.byte	0x1
 1270 07f3 08       		.byte	0x8
 1271 07f4 85070000 		.4byte	.LASF110
 1272 07f8 05       		.uleb128 0x5
 1273 07f9 F1070000 		.4byte	0x7f1
 1274 07fd 0C       		.uleb128 0xc
 1275 07fe 04       		.byte	0x4
 1276 07ff F5040000 		.4byte	0x4f5
 1277 0803 0C       		.uleb128 0xc
 1278 0804 04       		.byte	0x4
 1279 0805 43030000 		.4byte	0x343
 1280 0809 19       		.uleb128 0x19
 1281 080a 636800   		.ascii	"ch\000"
 1282 080d 09       		.byte	0x9
 1283 080e C701     		.2byte	0x1c7
 1284 0810 10040000 		.4byte	0x410
 1285 0814 13       		.uleb128 0x13
 1286 0815 F5040000 		.4byte	0x4f5
 1287 0819 1F080000 		.4byte	0x81f
 1288 081d 1A       		.uleb128 0x1a
 1289 081e 00       		.byte	0
 1290 081f 11       		.uleb128 0x11
 1291 0820 E6060000 		.4byte	.LASF111
 1292 0824 03       		.byte	0x3
 1293 0825 1701     		.2byte	0x117
 1294 0827 14080000 		.4byte	0x814
 1295 082b 03       		.uleb128 0x3
 1296 082c 00000000 		.4byte	.LASF112
 1297 0830 13       		.byte	0x13
 1298 0831 34       		.byte	0x34
 1299 0832 30030000 		.4byte	0x330
 1300 0836 15       		.uleb128 0x15
 1301 0837 18       		.byte	0x18
 1302 0838 13       		.byte	0x13
 1303 0839 39       		.byte	0x39
 1304 083a 87080000 		.4byte	0x887
 1305 083e 08       		.uleb128 0x8
 1306 083f 01040000 		.4byte	.LASF36
 1307 0843 13       		.byte	0x13
 1308 0844 3D       		.byte	0x3d
 1309 0845 E6070000 		.4byte	0x7e6
 1310 0849 00       		.byte	0
 1311 084a 08       		.uleb128 0x8
ARM GAS  /tmp/cc8ZDNJg.s 			page 24


 1312 084b 42050000 		.4byte	.LASF113
 1313 084f 13       		.byte	0x13
 1314 0850 41       		.byte	0x41
 1315 0851 FD070000 		.4byte	0x7fd
 1316 0855 04       		.byte	0x4
 1317 0856 08       		.uleb128 0x8
 1318 0857 D0000000 		.4byte	.LASF114
 1319 085b 13       		.byte	0x13
 1320 085c 45       		.byte	0x45
 1321 085d FD070000 		.4byte	0x7fd
 1322 0861 08       		.byte	0x8
 1323 0862 08       		.uleb128 0x8
 1324 0863 67050000 		.4byte	.LASF33
 1325 0867 13       		.byte	0x13
 1326 0868 49       		.byte	0x49
 1327 0869 2C010000 		.4byte	0x12c
 1328 086d 0C       		.byte	0xc
 1329 086e 08       		.uleb128 0x8
 1330 086f 2E000000 		.4byte	.LASF115
 1331 0873 13       		.byte	0x13
 1332 0874 4D       		.byte	0x4d
 1333 0875 2B080000 		.4byte	0x82b
 1334 0879 10       		.byte	0x10
 1335 087a 09       		.uleb128 0x9
 1336 087b 61726700 		.ascii	"arg\000"
 1337 087f 13       		.byte	0x13
 1338 0880 51       		.byte	0x51
 1339 0881 41030000 		.4byte	0x341
 1340 0885 14       		.byte	0x14
 1341 0886 00       		.byte	0
 1342 0887 03       		.uleb128 0x3
 1343 0888 83000000 		.4byte	.LASF116
 1344 088c 13       		.byte	0x13
 1345 088d 52       		.byte	0x52
 1346 088e 36080000 		.4byte	0x836
 1347 0892 15       		.uleb128 0x15
 1348 0893 16       		.byte	0x16
 1349 0894 14       		.byte	0x14
 1350 0895 34       		.byte	0x34
 1351 0896 73090000 		.4byte	0x973
 1352 089a 08       		.uleb128 0x8
 1353 089b 34080000 		.4byte	.LASF117
 1354 089f 14       		.byte	0x14
 1355 08a0 35       		.byte	0x35
 1356 08a1 73090000 		.4byte	0x973
 1357 08a5 00       		.byte	0
 1358 08a6 08       		.uleb128 0x8
 1359 08a7 3C030000 		.4byte	.LASF118
 1360 08ab 14       		.byte	0x14
 1361 08ac 36       		.byte	0x36
 1362 08ad B4000000 		.4byte	0xb4
 1363 08b1 04       		.byte	0x4
 1364 08b2 08       		.uleb128 0x8
 1365 08b3 67010000 		.4byte	.LASF119
 1366 08b7 14       		.byte	0x14
 1367 08b8 37       		.byte	0x37
 1368 08b9 B4000000 		.4byte	0xb4
ARM GAS  /tmp/cc8ZDNJg.s 			page 25


 1369 08bd 05       		.byte	0x5
 1370 08be 08       		.uleb128 0x8
 1371 08bf 82040000 		.4byte	.LASF120
 1372 08c3 14       		.byte	0x14
 1373 08c4 38       		.byte	0x38
 1374 08c5 C4000000 		.4byte	0xc4
 1375 08c9 06       		.byte	0x6
 1376 08ca 08       		.uleb128 0x8
 1377 08cb 76080000 		.4byte	.LASF121
 1378 08cf 14       		.byte	0x14
 1379 08d0 39       		.byte	0x39
 1380 08d1 B4000000 		.4byte	0xb4
 1381 08d5 08       		.byte	0x8
 1382 08d6 08       		.uleb128 0x8
 1383 08d7 F8060000 		.4byte	.LASF122
 1384 08db 14       		.byte	0x14
 1385 08dc 3A       		.byte	0x3a
 1386 08dd B4000000 		.4byte	0xb4
 1387 08e1 09       		.byte	0x9
 1388 08e2 08       		.uleb128 0x8
 1389 08e3 AA050000 		.4byte	.LASF123
 1390 08e7 14       		.byte	0x14
 1391 08e8 3B       		.byte	0x3b
 1392 08e9 B4000000 		.4byte	0xb4
 1393 08ed 0A       		.byte	0xa
 1394 08ee 08       		.uleb128 0x8
 1395 08ef 1A060000 		.4byte	.LASF124
 1396 08f3 14       		.byte	0x14
 1397 08f4 3C       		.byte	0x3c
 1398 08f5 B4000000 		.4byte	0xb4
 1399 08f9 0B       		.byte	0xb
 1400 08fa 08       		.uleb128 0x8
 1401 08fb 14040000 		.4byte	.LASF125
 1402 08ff 14       		.byte	0x14
 1403 0900 3D       		.byte	0x3d
 1404 0901 B4000000 		.4byte	0xb4
 1405 0905 0C       		.byte	0xc
 1406 0906 08       		.uleb128 0x8
 1407 0907 10050000 		.4byte	.LASF126
 1408 090b 14       		.byte	0x14
 1409 090c 3E       		.byte	0x3e
 1410 090d B4000000 		.4byte	0xb4
 1411 0911 0D       		.byte	0xd
 1412 0912 08       		.uleb128 0x8
 1413 0913 0B080000 		.4byte	.LASF127
 1414 0917 14       		.byte	0x14
 1415 0918 3F       		.byte	0x3f
 1416 0919 B4000000 		.4byte	0xb4
 1417 091d 0E       		.byte	0xe
 1418 091e 08       		.uleb128 0x8
 1419 091f AD080000 		.4byte	.LASF128
 1420 0923 14       		.byte	0x14
 1421 0924 40       		.byte	0x40
 1422 0925 B4000000 		.4byte	0xb4
 1423 0929 0F       		.byte	0xf
 1424 092a 08       		.uleb128 0x8
 1425 092b 23060000 		.4byte	.LASF129
ARM GAS  /tmp/cc8ZDNJg.s 			page 26


 1426 092f 14       		.byte	0x14
 1427 0930 41       		.byte	0x41
 1428 0931 B4000000 		.4byte	0xb4
 1429 0935 10       		.byte	0x10
 1430 0936 08       		.uleb128 0x8
 1431 0937 F0080000 		.4byte	.LASF130
 1432 093b 14       		.byte	0x14
 1433 093c 42       		.byte	0x42
 1434 093d B4000000 		.4byte	0xb4
 1435 0941 11       		.byte	0x11
 1436 0942 08       		.uleb128 0x8
 1437 0943 18090000 		.4byte	.LASF131
 1438 0947 14       		.byte	0x14
 1439 0948 43       		.byte	0x43
 1440 0949 B4000000 		.4byte	0xb4
 1441 094d 12       		.byte	0x12
 1442 094e 08       		.uleb128 0x8
 1443 094f C4030000 		.4byte	.LASF132
 1444 0953 14       		.byte	0x14
 1445 0954 44       		.byte	0x44
 1446 0955 B4000000 		.4byte	0xb4
 1447 0959 13       		.byte	0x13
 1448 095a 08       		.uleb128 0x8
 1449 095b E7020000 		.4byte	.LASF133
 1450 095f 14       		.byte	0x14
 1451 0960 45       		.byte	0x45
 1452 0961 B4000000 		.4byte	0xb4
 1453 0965 14       		.byte	0x14
 1454 0966 08       		.uleb128 0x8
 1455 0967 DD060000 		.4byte	.LASF134
 1456 096b 14       		.byte	0x14
 1457 096c 46       		.byte	0x46
 1458 096d B4000000 		.4byte	0xb4
 1459 0971 15       		.byte	0x15
 1460 0972 00       		.byte	0
 1461 0973 13       		.uleb128 0x13
 1462 0974 F1070000 		.4byte	0x7f1
 1463 0978 83090000 		.4byte	0x983
 1464 097c 14       		.uleb128 0x14
 1465 097d 8C040000 		.4byte	0x48c
 1466 0981 03       		.byte	0x3
 1467 0982 00       		.byte	0
 1468 0983 03       		.uleb128 0x3
 1469 0984 DD020000 		.4byte	.LASF135
 1470 0988 14       		.byte	0x14
 1471 0989 47       		.byte	0x47
 1472 098a 92080000 		.4byte	0x892
 1473 098e 05       		.uleb128 0x5
 1474 098f 83090000 		.4byte	0x983
 1475 0993 12       		.uleb128 0x12
 1476 0994 96030000 		.4byte	.LASF136
 1477 0998 14       		.byte	0x14
 1478 0999 6C       		.byte	0x6c
 1479 099a 8E090000 		.4byte	0x98e
 1480 099e 03       		.uleb128 0x3
 1481 099f 41030000 		.4byte	.LASF137
 1482 09a3 12       		.byte	0x12
ARM GAS  /tmp/cc8ZDNJg.s 			page 27


 1483 09a4 34       		.byte	0x34
 1484 09a5 AF070000 		.4byte	0x7af
 1485 09a9 0C       		.uleb128 0xc
 1486 09aa 04       		.byte	0x4
 1487 09ab 9E090000 		.4byte	0x99e
 1488 09af 04       		.uleb128 0x4
 1489 09b0 01       		.byte	0x1
 1490 09b1 02       		.byte	0x2
 1491 09b2 FE050000 		.4byte	.LASF138
 1492 09b6 03       		.uleb128 0x3
 1493 09b7 47080000 		.4byte	.LASF139
 1494 09bb 15       		.byte	0x15
 1495 09bc 47       		.byte	0x47
 1496 09bd C1090000 		.4byte	0x9c1
 1497 09c1 0C       		.uleb128 0xc
 1498 09c2 04       		.byte	0x4
 1499 09c3 C7090000 		.4byte	0x9c7
 1500 09c7 1B       		.uleb128 0x1b
 1501 09c8 41030000 		.4byte	0x341
 1502 09cc DB090000 		.4byte	0x9db
 1503 09d0 0F       		.uleb128 0xf
 1504 09d1 2C000000 		.4byte	0x2c
 1505 09d5 0F       		.uleb128 0xf
 1506 09d6 37000000 		.4byte	0x37
 1507 09da 00       		.byte	0
 1508 09db 03       		.uleb128 0x3
 1509 09dc 59050000 		.4byte	.LASF140
 1510 09e0 15       		.byte	0x15
 1511 09e1 4C       		.byte	0x4c
 1512 09e2 E6090000 		.4byte	0x9e6
 1513 09e6 0C       		.uleb128 0xc
 1514 09e7 04       		.byte	0x4
 1515 09e8 EC090000 		.4byte	0x9ec
 1516 09ec 1B       		.uleb128 0x1b
 1517 09ed 41030000 		.4byte	0x341
 1518 09f1 050A0000 		.4byte	0xa05
 1519 09f5 0F       		.uleb128 0xf
 1520 09f6 2C000000 		.4byte	0x2c
 1521 09fa 0F       		.uleb128 0xf
 1522 09fb 37000000 		.4byte	0x37
 1523 09ff 0F       		.uleb128 0xf
 1524 0a00 2C000000 		.4byte	0x2c
 1525 0a04 00       		.byte	0
 1526 0a05 15       		.uleb128 0x15
 1527 0a06 08       		.byte	0x8
 1528 0a07 15       		.byte	0x15
 1529 0a08 51       		.byte	0x51
 1530 0a09 260A0000 		.4byte	0xa26
 1531 0a0d 08       		.uleb128 0x8
 1532 0a0e 42090000 		.4byte	.LASF141
 1533 0a12 15       		.byte	0x15
 1534 0a13 55       		.byte	0x55
 1535 0a14 260A0000 		.4byte	0xa26
 1536 0a18 00       		.byte	0
 1537 0a19 08       		.uleb128 0x8
 1538 0a1a 57040000 		.4byte	.LASF142
 1539 0a1e 15       		.byte	0x15
ARM GAS  /tmp/cc8ZDNJg.s 			page 28


 1540 0a1f 59       		.byte	0x59
 1541 0a20 260A0000 		.4byte	0xa26
 1542 0a24 04       		.byte	0x4
 1543 0a25 00       		.byte	0
 1544 0a26 0C       		.uleb128 0xc
 1545 0a27 04       		.byte	0x4
 1546 0a28 B4000000 		.4byte	0xb4
 1547 0a2c 03       		.uleb128 0x3
 1548 0a2d 88050000 		.4byte	.LASF143
 1549 0a31 15       		.byte	0x15
 1550 0a32 5A       		.byte	0x5a
 1551 0a33 050A0000 		.4byte	0xa05
 1552 0a37 12       		.uleb128 0x12
 1553 0a38 B2070000 		.4byte	.LASF144
 1554 0a3c 15       		.byte	0x15
 1555 0a3d 65       		.byte	0x65
 1556 0a3e 2C0A0000 		.4byte	0xa2c
 1557 0a42 03       		.uleb128 0x3
 1558 0a43 06040000 		.4byte	.LASF145
 1559 0a47 16       		.byte	0x16
 1560 0a48 48       		.byte	0x48
 1561 0a49 4D0A0000 		.4byte	0xa4d
 1562 0a4d 07       		.uleb128 0x7
 1563 0a4e 5B090000 		.4byte	.LASF146
 1564 0a52 1C       		.byte	0x1c
 1565 0a53 16       		.byte	0x16
 1566 0a54 60       		.byte	0x60
 1567 0a55 7E0A0000 		.4byte	0xa7e
 1568 0a59 08       		.uleb128 0x8
 1569 0a5a 7A000000 		.4byte	.LASF147
 1570 0a5e 16       		.byte	0x16
 1571 0a5f 61       		.byte	0x61
 1572 0a60 DB090000 		.4byte	0x9db
 1573 0a64 00       		.byte	0
 1574 0a65 08       		.uleb128 0x8
 1575 0a66 35090000 		.4byte	.LASF148
 1576 0a6a 16       		.byte	0x16
 1577 0a6b 63       		.byte	0x63
 1578 0a6c 7E0A0000 		.4byte	0xa7e
 1579 0a70 04       		.byte	0x4
 1580 0a71 09       		.uleb128 0x9
 1581 0a72 6D747800 		.ascii	"mtx\000"
 1582 0a76 16       		.byte	0x16
 1583 0a77 65       		.byte	0x65
 1584 0a78 9E090000 		.4byte	0x99e
 1585 0a7c 0C       		.byte	0xc
 1586 0a7d 00       		.byte	0
 1587 0a7e 03       		.uleb128 0x3
 1588 0a7f F3020000 		.4byte	.LASF149
 1589 0a83 16       		.byte	0x16
 1590 0a84 4D       		.byte	0x4d
 1591 0a85 890A0000 		.4byte	0xa89
 1592 0a89 1C       		.uleb128 0x1c
 1593 0a8a 43060000 		.4byte	.LASF190
 1594 0a8e 08       		.byte	0x8
 1595 0a8f 16       		.byte	0x16
 1596 0a90 52       		.byte	0x52
ARM GAS  /tmp/cc8ZDNJg.s 			page 29


 1597 0a91 AC0A0000 		.4byte	0xaac
 1598 0a95 17       		.uleb128 0x17
 1599 0a96 3F010000 		.4byte	.LASF150
 1600 0a9a 16       		.byte	0x16
 1601 0a9b 56       		.byte	0x56
 1602 0a9c AC0A0000 		.4byte	0xaac
 1603 0aa0 17       		.uleb128 0x17
 1604 0aa1 9D050000 		.4byte	.LASF151
 1605 0aa5 16       		.byte	0x16
 1606 0aa6 5A       		.byte	0x5a
 1607 0aa7 D30A0000 		.4byte	0xad3
 1608 0aab 00       		.byte	0
 1609 0aac 15       		.uleb128 0x15
 1610 0aad 08       		.byte	0x8
 1611 0aae 16       		.byte	0x16
 1612 0aaf 53       		.byte	0x53
 1613 0ab0 CD0A0000 		.4byte	0xacd
 1614 0ab4 08       		.uleb128 0x8
 1615 0ab5 1C000000 		.4byte	.LASF52
 1616 0ab9 16       		.byte	0x16
 1617 0aba 54       		.byte	0x54
 1618 0abb CD0A0000 		.4byte	0xacd
 1619 0abf 00       		.byte	0
 1620 0ac0 08       		.uleb128 0x8
 1621 0ac1 65000000 		.4byte	.LASF152
 1622 0ac5 16       		.byte	0x16
 1623 0ac6 55       		.byte	0x55
 1624 0ac7 2C000000 		.4byte	0x2c
 1625 0acb 04       		.byte	0x4
 1626 0acc 00       		.byte	0
 1627 0acd 0C       		.uleb128 0xc
 1628 0ace 04       		.byte	0x4
 1629 0acf 7E0A0000 		.4byte	0xa7e
 1630 0ad3 15       		.uleb128 0x15
 1631 0ad4 08       		.byte	0x8
 1632 0ad5 16       		.byte	0x16
 1633 0ad6 57       		.byte	0x57
 1634 0ad7 F40A0000 		.4byte	0xaf4
 1635 0adb 08       		.uleb128 0x8
 1636 0adc 58070000 		.4byte	.LASF153
 1637 0ae0 16       		.byte	0x16
 1638 0ae1 58       		.byte	0x58
 1639 0ae2 F40A0000 		.4byte	0xaf4
 1640 0ae6 00       		.byte	0
 1641 0ae7 08       		.uleb128 0x8
 1642 0ae8 67010000 		.4byte	.LASF119
 1643 0aec 16       		.byte	0x16
 1644 0aed 59       		.byte	0x59
 1645 0aee 2C000000 		.4byte	0x2c
 1646 0af2 04       		.byte	0x4
 1647 0af3 00       		.byte	0
 1648 0af4 0C       		.uleb128 0xc
 1649 0af5 04       		.byte	0x4
 1650 0af6 420A0000 		.4byte	0xa42
 1651 0afa 07       		.uleb128 0x7
 1652 0afb A1080000 		.4byte	.LASF154
 1653 0aff 04       		.byte	0x4
ARM GAS  /tmp/cc8ZDNJg.s 			page 30


 1654 0b00 17       		.byte	0x17
 1655 0b01 38       		.byte	0x38
 1656 0b02 130B0000 		.4byte	0xb13
 1657 0b06 08       		.uleb128 0x8
 1658 0b07 1C000000 		.4byte	.LASF52
 1659 0b0b 17       		.byte	0x17
 1660 0b0c 39       		.byte	0x39
 1661 0b0d 130B0000 		.4byte	0xb13
 1662 0b11 00       		.byte	0
 1663 0b12 00       		.byte	0
 1664 0b13 0C       		.uleb128 0xc
 1665 0b14 04       		.byte	0x4
 1666 0b15 FA0A0000 		.4byte	0xafa
 1667 0b19 15       		.uleb128 0x15
 1668 0b1a 10       		.byte	0x10
 1669 0b1b 17       		.byte	0x17
 1670 0b1c 40       		.byte	0x40
 1671 0b1d 520B0000 		.4byte	0xb52
 1672 0b21 08       		.uleb128 0x8
 1673 0b22 1C000000 		.4byte	.LASF52
 1674 0b26 17       		.byte	0x17
 1675 0b27 41       		.byte	0x41
 1676 0b28 130B0000 		.4byte	0xb13
 1677 0b2c 00       		.byte	0
 1678 0b2d 08       		.uleb128 0x8
 1679 0b2e 61080000 		.4byte	.LASF155
 1680 0b32 17       		.byte	0x17
 1681 0b33 42       		.byte	0x42
 1682 0b34 2C000000 		.4byte	0x2c
 1683 0b38 04       		.byte	0x4
 1684 0b39 08       		.uleb128 0x8
 1685 0b3a 49030000 		.4byte	.LASF156
 1686 0b3e 17       		.byte	0x17
 1687 0b3f 44       		.byte	0x44
 1688 0b40 37000000 		.4byte	0x37
 1689 0b44 08       		.byte	0x8
 1690 0b45 08       		.uleb128 0x8
 1691 0b46 7A000000 		.4byte	.LASF147
 1692 0b4a 17       		.byte	0x17
 1693 0b4b 45       		.byte	0x45
 1694 0b4c B6090000 		.4byte	0x9b6
 1695 0b50 0C       		.byte	0xc
 1696 0b51 00       		.byte	0
 1697 0b52 03       		.uleb128 0x3
 1698 0b53 AA030000 		.4byte	.LASF157
 1699 0b57 17       		.byte	0x17
 1700 0b58 47       		.byte	0x47
 1701 0b59 190B0000 		.4byte	0xb19
 1702 0b5d 07       		.uleb128 0x7
 1703 0b5e CA050000 		.4byte	.LASF158
 1704 0b62 10       		.byte	0x10
 1705 0b63 18       		.byte	0x18
 1706 0b64 A9       		.byte	0xa9
 1707 0b65 8E0B0000 		.4byte	0xb8e
 1708 0b69 08       		.uleb128 0x8
 1709 0b6a 1C000000 		.4byte	.LASF52
 1710 0b6e 18       		.byte	0x18
ARM GAS  /tmp/cc8ZDNJg.s 			page 31


 1711 0b6f AD       		.byte	0xad
 1712 0b70 8E0B0000 		.4byte	0xb8e
 1713 0b74 00       		.byte	0
 1714 0b75 08       		.uleb128 0x8
 1715 0b76 B5050000 		.4byte	.LASF40
 1716 0b7a 18       		.byte	0x18
 1717 0b7b B1       		.byte	0xb1
 1718 0b7c 58010000 		.4byte	0x158
 1719 0b80 04       		.byte	0x4
 1720 0b81 08       		.uleb128 0x8
 1721 0b82 01040000 		.4byte	.LASF36
 1722 0b86 18       		.byte	0x18
 1723 0b87 B3       		.byte	0xb3
 1724 0b88 940B0000 		.4byte	0xb94
 1725 0b8c 08       		.byte	0x8
 1726 0b8d 00       		.byte	0
 1727 0b8e 0C       		.uleb128 0xc
 1728 0b8f 04       		.byte	0x4
 1729 0b90 5D0B0000 		.4byte	0xb5d
 1730 0b94 13       		.uleb128 0x13
 1731 0b95 F1070000 		.4byte	0x7f1
 1732 0b99 A40B0000 		.4byte	0xba4
 1733 0b9d 14       		.uleb128 0x14
 1734 0b9e 8C040000 		.4byte	0x48c
 1735 0ba2 07       		.byte	0x7
 1736 0ba3 00       		.byte	0
 1737 0ba4 03       		.uleb128 0x3
 1738 0ba5 31010000 		.4byte	.LASF159
 1739 0ba9 18       		.byte	0x18
 1740 0baa B7       		.byte	0xb7
 1741 0bab 5D0B0000 		.4byte	0xb5d
 1742 0baf 07       		.uleb128 0x7
 1743 0bb0 E6040000 		.4byte	.LASF160
 1744 0bb4 04       		.byte	0x4
 1745 0bb5 18       		.byte	0x18
 1746 0bb6 BC       		.byte	0xbc
 1747 0bb7 C80B0000 		.4byte	0xbc8
 1748 0bbb 08       		.uleb128 0x8
 1749 0bbc 1C000000 		.4byte	.LASF52
 1750 0bc0 18       		.byte	0x18
 1751 0bc1 BD       		.byte	0xbd
 1752 0bc2 C80B0000 		.4byte	0xbc8
 1753 0bc6 00       		.byte	0
 1754 0bc7 00       		.byte	0
 1755 0bc8 0C       		.uleb128 0xc
 1756 0bc9 04       		.byte	0x4
 1757 0bca A40B0000 		.4byte	0xba4
 1758 0bce 03       		.uleb128 0x3
 1759 0bcf D9050000 		.4byte	.LASF161
 1760 0bd3 18       		.byte	0x18
 1761 0bd4 BE       		.byte	0xbe
 1762 0bd5 AF0B0000 		.4byte	0xbaf
 1763 0bd9 0D       		.uleb128 0xd
 1764 0bda 7E080000 		.4byte	.LASF162
 1765 0bde 44       		.byte	0x44
 1766 0bdf 18       		.byte	0x18
 1767 0be0 3E01     		.2byte	0x13e
ARM GAS  /tmp/cc8ZDNJg.s 			page 32


 1768 0be2 4F0C0000 		.4byte	0xc4f
 1769 0be6 0A       		.uleb128 0xa
 1770 0be7 6D747800 		.ascii	"mtx\000"
 1771 0beb 18       		.byte	0x18
 1772 0bec 4301     		.2byte	0x143
 1773 0bee 9E090000 		.4byte	0x99e
 1774 0bf2 00       		.byte	0
 1775 0bf3 0B       		.uleb128 0xb
 1776 0bf4 90070000 		.4byte	.LASF163
 1777 0bf8 18       		.byte	0x18
 1778 0bf9 4A01     		.2byte	0x14a
 1779 0bfb CE0B0000 		.4byte	0xbce
 1780 0bff 10       		.byte	0x10
 1781 0c00 0B       		.uleb128 0xb
 1782 0c01 AF060000 		.4byte	.LASF164
 1783 0c05 18       		.byte	0x18
 1784 0c06 4E01     		.2byte	0x14e
 1785 0c08 520B0000 		.4byte	0xb52
 1786 0c0c 14       		.byte	0x14
 1787 0c0d 0B       		.uleb128 0xb
 1788 0c0e EC050000 		.4byte	.LASF165
 1789 0c12 18       		.byte	0x18
 1790 0c13 5301     		.2byte	0x153
 1791 0c15 CE0B0000 		.4byte	0xbce
 1792 0c19 24       		.byte	0x24
 1793 0c1a 0B       		.uleb128 0xb
 1794 0c1b 97000000 		.4byte	.LASF166
 1795 0c1f 18       		.byte	0x18
 1796 0c20 5901     		.2byte	0x159
 1797 0c22 CE0B0000 		.4byte	0xbce
 1798 0c26 28       		.byte	0x28
 1799 0c27 0B       		.uleb128 0xb
 1800 0c28 6C050000 		.4byte	.LASF167
 1801 0c2c 18       		.byte	0x18
 1802 0c2d 5D01     		.2byte	0x15d
 1803 0c2f 520B0000 		.4byte	0xb52
 1804 0c33 2C       		.byte	0x2c
 1805 0c34 0B       		.uleb128 0xb
 1806 0c35 15030000 		.4byte	.LASF168
 1807 0c39 18       		.byte	0x18
 1808 0c3a 6301     		.2byte	0x163
 1809 0c3c CE0B0000 		.4byte	0xbce
 1810 0c40 3C       		.byte	0x3c
 1811 0c41 0B       		.uleb128 0xb
 1812 0c42 D0080000 		.4byte	.LASF169
 1813 0c46 18       		.byte	0x18
 1814 0c47 6901     		.2byte	0x169
 1815 0c49 CE0B0000 		.4byte	0xbce
 1816 0c4d 40       		.byte	0x40
 1817 0c4e 00       		.byte	0
 1818 0c4f 1D       		.uleb128 0x1d
 1819 0c50 06090000 		.4byte	.LASF170
 1820 0c54 18       		.byte	0x18
 1821 0c55 7101     		.2byte	0x171
 1822 0c57 D90B0000 		.4byte	0xbd9
 1823 0c5b 11       		.uleb128 0x11
 1824 0c5c 9F030000 		.4byte	.LASF171
ARM GAS  /tmp/cc8ZDNJg.s 			page 33


 1825 0c60 18       		.byte	0x18
 1826 0c61 7C01     		.2byte	0x17c
 1827 0c63 4F0C0000 		.4byte	0xc4f
 1828 0c67 1E       		.uleb128 0x1e
 1829 0c68 28050000 		.4byte	.LASF172
 1830 0c6c 01       		.byte	0x1
 1831 0c6d 91       		.byte	0x91
 1832 0c6e 64020000 		.4byte	0x264
 1833 0c72 00000000 		.4byte	.LFB291
 1834 0c76 62000000 		.4byte	.LFE291-.LFB291
 1835 0c7a 01       		.uleb128 0x1
 1836 0c7b 9C       		.byte	0x9c
 1837 0c7c FA0D0000 		.4byte	0xdfa
 1838 0c80 1F       		.uleb128 0x1f
 1839 0c81 6D7000   		.ascii	"mp\000"
 1840 0c84 01       		.byte	0x1
 1841 0c85 91       		.byte	0x91
 1842 0c86 FA0D0000 		.4byte	0xdfa
 1843 0c8a 00000000 		.4byte	.LLST8
 1844 0c8e 20       		.uleb128 0x20
 1845 0c8f 01040000 		.4byte	.LASF36
 1846 0c93 01       		.byte	0x1
 1847 0c94 91       		.byte	0x91
 1848 0c95 E6070000 		.4byte	0x7e6
 1849 0c99 1E000000 		.4byte	.LLST9
 1850 0c9d 20       		.uleb128 0x20
 1851 0c9e 67050000 		.4byte	.LASF33
 1852 0ca2 01       		.byte	0x1
 1853 0ca3 92       		.byte	0x92
 1854 0ca4 2C010000 		.4byte	0x12c
 1855 0ca8 3C000000 		.4byte	.LLST10
 1856 0cac 1F       		.uleb128 0x1f
 1857 0cad 706600   		.ascii	"pf\000"
 1858 0cb0 01       		.byte	0x1
 1859 0cb1 92       		.byte	0x92
 1860 0cb2 2B080000 		.4byte	0x82b
 1861 0cb6 5A000000 		.4byte	.LLST11
 1862 0cba 21       		.uleb128 0x21
 1863 0cbb 61726700 		.ascii	"arg\000"
 1864 0cbf 01       		.byte	0x1
 1865 0cc0 92       		.byte	0x92
 1866 0cc1 41030000 		.4byte	0x341
 1867 0cc5 02       		.uleb128 0x2
 1868 0cc6 91       		.byte	0x91
 1869 0cc7 00       		.sleb128 0
 1870 0cc8 22       		.uleb128 0x22
 1871 0cc9 747000   		.ascii	"tp\000"
 1872 0ccc 01       		.byte	0x1
 1873 0ccd 93       		.byte	0x93
 1874 0cce 64020000 		.4byte	0x264
 1875 0cd2 78000000 		.4byte	.LLST12
 1876 0cd6 22       		.uleb128 0x22
 1877 0cd7 77737000 		.ascii	"wsp\000"
 1878 0cdb 01       		.byte	0x1
 1879 0cdc 94       		.byte	0x94
 1880 0cdd 41030000 		.4byte	0x341
 1881 0ce1 96000000 		.4byte	.LLST13
ARM GAS  /tmp/cc8ZDNJg.s 			page 34


 1882 0ce5 23       		.uleb128 0x23
 1883 0ce6 60060000 		.4byte	.LASF191
 1884 0cea 100E0000 		.4byte	0xe10
 1885 0cee 24       		.uleb128 0x24
 1886 0cef 746400   		.ascii	"td\000"
 1887 0cf2 01       		.byte	0x1
 1888 0cf3 9D       		.byte	0x9d
 1889 0cf4 87080000 		.4byte	0x887
 1890 0cf8 02       		.uleb128 0x2
 1891 0cf9 91       		.byte	0x91
 1892 0cfa 50       		.sleb128 -48
 1893 0cfb 25       		.uleb128 0x25
 1894 0cfc F30F0000 		.4byte	0xff3
 1895 0d00 30000000 		.4byte	.LBB44
 1896 0d04 0A000000 		.4byte	.LBE44-.LBB44
 1897 0d08 01       		.byte	0x1
 1898 0d09 AC       		.byte	0xac
 1899 0d0a 470D0000 		.4byte	0xd47
 1900 0d0e 26       		.uleb128 0x26
 1901 0d0f 05100000 		.4byte	0x1005
 1902 0d13 30000000 		.4byte	.LBB46
 1903 0d17 06000000 		.4byte	.LBE46-.LBB46
 1904 0d1b 03       		.byte	0x3
 1905 0d1c 6301     		.2byte	0x163
 1906 0d1e 3D0D0000 		.4byte	0xd3d
 1907 0d22 27       		.uleb128 0x27
 1908 0d23 0E100000 		.4byte	0x100e
 1909 0d27 30000000 		.4byte	.LBB47
 1910 0d2b 06000000 		.4byte	.LBE47-.LBB47
 1911 0d2f 0E       		.byte	0xe
 1912 0d30 6202     		.2byte	0x262
 1913 0d32 28       		.uleb128 0x28
 1914 0d33 1B100000 		.4byte	0x101b
 1915 0d37 B4000000 		.4byte	.LLST14
 1916 0d3b 00       		.byte	0
 1917 0d3c 00       		.byte	0
 1918 0d3d 29       		.uleb128 0x29
 1919 0d3e 3A000000 		.4byte	.LVL15
 1920 0d42 28100000 		.4byte	0x1028
 1921 0d46 00       		.byte	0
 1922 0d47 25       		.uleb128 0x25
 1923 0d48 C30F0000 		.4byte	0xfc3
 1924 0d4c 50000000 		.4byte	.LBB49
 1925 0d50 0A000000 		.4byte	.LBE49-.LBB49
 1926 0d54 01       		.byte	0x1
 1927 0d55 B1       		.byte	0xb1
 1928 0d56 A20D0000 		.4byte	0xda2
 1929 0d5a 2A       		.uleb128 0x2a
 1930 0d5b 50000000 		.4byte	.LBB50
 1931 0d5f 0A000000 		.4byte	.LBE50-.LBB50
 1932 0d63 2B       		.uleb128 0x2b
 1933 0d64 D00F0000 		.4byte	0xfd0
 1934 0d68 26       		.uleb128 0x26
 1935 0d69 FC0F0000 		.4byte	0xffc
 1936 0d6d 54000000 		.4byte	.LBB51
 1937 0d71 06000000 		.4byte	.LBE51-.LBB51
 1938 0d75 03       		.byte	0x3
ARM GAS  /tmp/cc8ZDNJg.s 			page 35


 1939 0d76 7A01     		.2byte	0x17a
 1940 0d78 970D0000 		.4byte	0xd97
 1941 0d7c 27       		.uleb128 0x27
 1942 0d7d 0E100000 		.4byte	0x100e
 1943 0d81 54000000 		.4byte	.LBB52
 1944 0d85 06000000 		.4byte	.LBE52-.LBB52
 1945 0d89 0E       		.byte	0xe
 1946 0d8a 7502     		.2byte	0x275
 1947 0d8c 28       		.uleb128 0x28
 1948 0d8d 1B100000 		.4byte	0x101b
 1949 0d91 C9000000 		.4byte	.LLST15
 1950 0d95 00       		.byte	0
 1951 0d96 00       		.byte	0
 1952 0d97 29       		.uleb128 0x29
 1953 0d98 54000000 		.4byte	.LVL19
 1954 0d9c 33100000 		.4byte	0x1033
 1955 0da0 00       		.byte	0
 1956 0da1 00       		.byte	0
 1957 0da2 2C       		.uleb128 0x2c
 1958 0da3 12000000 		.4byte	.LVL12
 1959 0da7 3E100000 		.4byte	0x103e
 1960 0dab B60D0000 		.4byte	0xdb6
 1961 0daf 2D       		.uleb128 0x2d
 1962 0db0 01       		.uleb128 0x1
 1963 0db1 50       		.byte	0x50
 1964 0db2 02       		.uleb128 0x2
 1965 0db3 75       		.byte	0x75
 1966 0db4 00       		.sleb128 0
 1967 0db5 00       		.byte	0
 1968 0db6 2C       		.uleb128 0x2c
 1969 0db7 30000000 		.4byte	.LVL13
 1970 0dbb 49100000 		.4byte	0x1049
 1971 0dbf D00D0000 		.4byte	0xdd0
 1972 0dc3 2D       		.uleb128 0x2d
 1973 0dc4 01       		.uleb128 0x1
 1974 0dc5 50       		.byte	0x50
 1975 0dc6 02       		.uleb128 0x2
 1976 0dc7 74       		.byte	0x74
 1977 0dc8 00       		.sleb128 0
 1978 0dc9 2D       		.uleb128 0x2d
 1979 0dca 01       		.uleb128 0x1
 1980 0dcb 52       		.byte	0x52
 1981 0dcc 02       		.uleb128 0x2
 1982 0dcd 08       		.byte	0x8
 1983 0dce 55       		.byte	0x55
 1984 0dcf 00       		.byte	0
 1985 0dd0 2C       		.uleb128 0x2c
 1986 0dd1 40000000 		.4byte	.LVL16
 1987 0dd5 54100000 		.4byte	0x1054
 1988 0dd9 E40D0000 		.4byte	0xde4
 1989 0ddd 2D       		.uleb128 0x2d
 1990 0dde 01       		.uleb128 0x1
 1991 0ddf 50       		.byte	0x50
 1992 0de0 02       		.uleb128 0x2
 1993 0de1 7D       		.byte	0x7d
 1994 0de2 00       		.sleb128 0
 1995 0de3 00       		.byte	0
ARM GAS  /tmp/cc8ZDNJg.s 			page 36


 1996 0de4 2E       		.uleb128 0x2e
 1997 0de5 50000000 		.4byte	.LVL18
 1998 0de9 5F100000 		.4byte	0x105f
 1999 0ded 2D       		.uleb128 0x2d
 2000 0dee 01       		.uleb128 0x1
 2001 0def 50       		.byte	0x50
 2002 0df0 02       		.uleb128 0x2
 2003 0df1 74       		.byte	0x74
 2004 0df2 00       		.sleb128 0
 2005 0df3 2D       		.uleb128 0x2d
 2006 0df4 01       		.uleb128 0x1
 2007 0df5 51       		.byte	0x51
 2008 0df6 01       		.uleb128 0x1
 2009 0df7 30       		.byte	0x30
 2010 0df8 00       		.byte	0
 2011 0df9 00       		.byte	0
 2012 0dfa 0C       		.uleb128 0xc
 2013 0dfb 04       		.byte	0x4
 2014 0dfc 520B0000 		.4byte	0xb52
 2015 0e00 13       		.uleb128 0x13
 2016 0e01 F8070000 		.4byte	0x7f8
 2017 0e05 100E0000 		.4byte	0xe10
 2018 0e09 14       		.uleb128 0x14
 2019 0e0a 8C040000 		.4byte	0x48c
 2020 0e0e 19       		.byte	0x19
 2021 0e0f 00       		.byte	0
 2022 0e10 05       		.uleb128 0x5
 2023 0e11 000E0000 		.4byte	0xe00
 2024 0e15 1E       		.uleb128 0x1e
 2025 0e16 B5020000 		.4byte	.LASF173
 2026 0e1a 01       		.byte	0x1
 2027 0e1b 52       		.byte	0x52
 2028 0e1c 64020000 		.4byte	0x264
 2029 0e20 00000000 		.4byte	.LFB290
 2030 0e24 5A000000 		.4byte	.LFE290-.LFB290
 2031 0e28 01       		.uleb128 0x1
 2032 0e29 9C       		.byte	0x9c
 2033 0e2a C30F0000 		.4byte	0xfc3
 2034 0e2e 20       		.uleb128 0x20
 2035 0e2f 2B010000 		.4byte	.LASF174
 2036 0e33 01       		.byte	0x1
 2037 0e34 52       		.byte	0x52
 2038 0e35 F40A0000 		.4byte	0xaf4
 2039 0e39 DD000000 		.4byte	.LLST0
 2040 0e3d 20       		.uleb128 0x20
 2041 0e3e 67010000 		.4byte	.LASF119
 2042 0e42 01       		.byte	0x1
 2043 0e43 52       		.byte	0x52
 2044 0e44 2C000000 		.4byte	0x2c
 2045 0e48 FE000000 		.4byte	.LLST1
 2046 0e4c 20       		.uleb128 0x20
 2047 0e4d 01040000 		.4byte	.LASF36
 2048 0e51 01       		.byte	0x1
 2049 0e52 53       		.byte	0x53
 2050 0e53 E6070000 		.4byte	0x7e6
 2051 0e57 1C010000 		.4byte	.LLST2
 2052 0e5b 20       		.uleb128 0x20
ARM GAS  /tmp/cc8ZDNJg.s 			page 37


 2053 0e5c 67050000 		.4byte	.LASF33
 2054 0e60 01       		.byte	0x1
 2055 0e61 53       		.byte	0x53
 2056 0e62 2C010000 		.4byte	0x12c
 2057 0e66 3A010000 		.4byte	.LLST3
 2058 0e6a 21       		.uleb128 0x21
 2059 0e6b 706600   		.ascii	"pf\000"
 2060 0e6e 01       		.byte	0x1
 2061 0e6f 54       		.byte	0x54
 2062 0e70 2B080000 		.4byte	0x82b
 2063 0e74 02       		.uleb128 0x2
 2064 0e75 91       		.byte	0x91
 2065 0e76 00       		.sleb128 0
 2066 0e77 21       		.uleb128 0x21
 2067 0e78 61726700 		.ascii	"arg\000"
 2068 0e7c 01       		.byte	0x1
 2069 0e7d 54       		.byte	0x54
 2070 0e7e 41030000 		.4byte	0x341
 2071 0e82 02       		.uleb128 0x2
 2072 0e83 91       		.byte	0x91
 2073 0e84 04       		.sleb128 4
 2074 0e85 22       		.uleb128 0x22
 2075 0e86 747000   		.ascii	"tp\000"
 2076 0e89 01       		.byte	0x1
 2077 0e8a 55       		.byte	0x55
 2078 0e8b 64020000 		.4byte	0x264
 2079 0e8f 58010000 		.4byte	.LLST4
 2080 0e93 22       		.uleb128 0x22
 2081 0e94 77737000 		.ascii	"wsp\000"
 2082 0e98 01       		.byte	0x1
 2083 0e99 56       		.byte	0x56
 2084 0e9a 41030000 		.4byte	0x341
 2085 0e9e 76010000 		.4byte	.LLST5
 2086 0ea2 24       		.uleb128 0x24
 2087 0ea3 746400   		.ascii	"td\000"
 2088 0ea6 01       		.byte	0x1
 2089 0ea7 5D       		.byte	0x5d
 2090 0ea8 87080000 		.4byte	0x887
 2091 0eac 02       		.uleb128 0x2
 2092 0ead 91       		.byte	0x91
 2093 0eae 50       		.sleb128 -48
 2094 0eaf 25       		.uleb128 0x25
 2095 0eb0 F30F0000 		.4byte	0xff3
 2096 0eb4 2C000000 		.4byte	.LBB24
 2097 0eb8 0A000000 		.4byte	.LBE24-.LBB24
 2098 0ebc 01       		.byte	0x1
 2099 0ebd 6C       		.byte	0x6c
 2100 0ebe FB0E0000 		.4byte	0xefb
 2101 0ec2 26       		.uleb128 0x26
 2102 0ec3 05100000 		.4byte	0x1005
 2103 0ec7 2C000000 		.4byte	.LBB26
 2104 0ecb 06000000 		.4byte	.LBE26-.LBB26
 2105 0ecf 03       		.byte	0x3
 2106 0ed0 6301     		.2byte	0x163
 2107 0ed2 F10E0000 		.4byte	0xef1
 2108 0ed6 27       		.uleb128 0x27
 2109 0ed7 0E100000 		.4byte	0x100e
ARM GAS  /tmp/cc8ZDNJg.s 			page 38


 2110 0edb 2C000000 		.4byte	.LBB27
 2111 0edf 06000000 		.4byte	.LBE27-.LBB27
 2112 0ee3 0E       		.byte	0xe
 2113 0ee4 6202     		.2byte	0x262
 2114 0ee6 28       		.uleb128 0x28
 2115 0ee7 1B100000 		.4byte	0x101b
 2116 0eeb 94010000 		.4byte	.LLST6
 2117 0eef 00       		.byte	0
 2118 0ef0 00       		.byte	0
 2119 0ef1 29       		.uleb128 0x29
 2120 0ef2 36000000 		.4byte	.LVL5
 2121 0ef6 28100000 		.4byte	0x1028
 2122 0efa 00       		.byte	0
 2123 0efb 25       		.uleb128 0x25
 2124 0efc C30F0000 		.4byte	0xfc3
 2125 0f00 4A000000 		.4byte	.LBB29
 2126 0f04 0A000000 		.4byte	.LBE29-.LBB29
 2127 0f08 01       		.byte	0x1
 2128 0f09 70       		.byte	0x70
 2129 0f0a 560F0000 		.4byte	0xf56
 2130 0f0e 2A       		.uleb128 0x2a
 2131 0f0f 4A000000 		.4byte	.LBB30
 2132 0f13 0A000000 		.4byte	.LBE30-.LBB30
 2133 0f17 2B       		.uleb128 0x2b
 2134 0f18 D00F0000 		.4byte	0xfd0
 2135 0f1c 26       		.uleb128 0x26
 2136 0f1d FC0F0000 		.4byte	0xffc
 2137 0f21 4E000000 		.4byte	.LBB31
 2138 0f25 06000000 		.4byte	.LBE31-.LBB31
 2139 0f29 03       		.byte	0x3
 2140 0f2a 7A01     		.2byte	0x17a
 2141 0f2c 4B0F0000 		.4byte	0xf4b
 2142 0f30 27       		.uleb128 0x27
 2143 0f31 0E100000 		.4byte	0x100e
 2144 0f35 4E000000 		.4byte	.LBB32
 2145 0f39 06000000 		.4byte	.LBE32-.LBB32
 2146 0f3d 0E       		.byte	0xe
 2147 0f3e 7502     		.2byte	0x275
 2148 0f40 28       		.uleb128 0x28
 2149 0f41 1B100000 		.4byte	0x101b
 2150 0f45 A9010000 		.4byte	.LLST7
 2151 0f49 00       		.byte	0
 2152 0f4a 00       		.byte	0
 2153 0f4b 29       		.uleb128 0x29
 2154 0f4c 4E000000 		.4byte	.LVL9
 2155 0f50 33100000 		.4byte	0x1033
 2156 0f54 00       		.byte	0
 2157 0f55 00       		.byte	0
 2158 0f56 2C       		.uleb128 0x2c
 2159 0f57 10000000 		.4byte	.LVL2
 2160 0f5b 6B100000 		.4byte	0x106b
 2161 0f5f 760F0000 		.4byte	0xf76
 2162 0f63 2D       		.uleb128 0x2d
 2163 0f64 01       		.uleb128 0x1
 2164 0f65 50       		.byte	0x50
 2165 0f66 03       		.uleb128 0x3
 2166 0f67 F3       		.byte	0xf3
ARM GAS  /tmp/cc8ZDNJg.s 			page 39


 2167 0f68 01       		.uleb128 0x1
 2168 0f69 50       		.byte	0x50
 2169 0f6a 2D       		.uleb128 0x2d
 2170 0f6b 01       		.uleb128 0x1
 2171 0f6c 51       		.byte	0x51
 2172 0f6d 02       		.uleb128 0x2
 2173 0f6e 76       		.byte	0x76
 2174 0f6f 00       		.sleb128 0
 2175 0f70 2D       		.uleb128 0x2d
 2176 0f71 01       		.uleb128 0x1
 2177 0f72 52       		.byte	0x52
 2178 0f73 01       		.uleb128 0x1
 2179 0f74 38       		.byte	0x38
 2180 0f75 00       		.byte	0
 2181 0f76 2C       		.uleb128 0x2c
 2182 0f77 2C000000 		.4byte	.LVL3
 2183 0f7b 49100000 		.4byte	0x1049
 2184 0f7f 990F0000 		.4byte	0xf99
 2185 0f83 2D       		.uleb128 0x2d
 2186 0f84 01       		.uleb128 0x1
 2187 0f85 50       		.byte	0x50
 2188 0f86 02       		.uleb128 0x2
 2189 0f87 74       		.byte	0x74
 2190 0f88 00       		.sleb128 0
 2191 0f89 2D       		.uleb128 0x2d
 2192 0f8a 01       		.uleb128 0x1
 2193 0f8b 51       		.byte	0x51
 2194 0f8c 05       		.uleb128 0x5
 2195 0f8d 74       		.byte	0x74
 2196 0f8e 00       		.sleb128 0
 2197 0f8f 76       		.byte	0x76
 2198 0f90 00       		.sleb128 0
 2199 0f91 22       		.byte	0x22
 2200 0f92 2D       		.uleb128 0x2d
 2201 0f93 01       		.uleb128 0x1
 2202 0f94 52       		.byte	0x52
 2203 0f95 02       		.uleb128 0x2
 2204 0f96 08       		.byte	0x8
 2205 0f97 55       		.byte	0x55
 2206 0f98 00       		.byte	0
 2207 0f99 2C       		.uleb128 0x2c
 2208 0f9a 3C000000 		.4byte	.LVL6
 2209 0f9e 54100000 		.4byte	0x1054
 2210 0fa2 AD0F0000 		.4byte	0xfad
 2211 0fa6 2D       		.uleb128 0x2d
 2212 0fa7 01       		.uleb128 0x1
 2213 0fa8 50       		.byte	0x50
 2214 0fa9 02       		.uleb128 0x2
 2215 0faa 7D       		.byte	0x7d
 2216 0fab 00       		.sleb128 0
 2217 0fac 00       		.byte	0
 2218 0fad 2E       		.uleb128 0x2e
 2219 0fae 4A000000 		.4byte	.LVL8
 2220 0fb2 5F100000 		.4byte	0x105f
 2221 0fb6 2D       		.uleb128 0x2d
 2222 0fb7 01       		.uleb128 0x1
 2223 0fb8 50       		.byte	0x50
ARM GAS  /tmp/cc8ZDNJg.s 			page 40


 2224 0fb9 02       		.uleb128 0x2
 2225 0fba 74       		.byte	0x74
 2226 0fbb 00       		.sleb128 0
 2227 0fbc 2D       		.uleb128 0x2d
 2228 0fbd 01       		.uleb128 0x1
 2229 0fbe 51       		.byte	0x51
 2230 0fbf 01       		.uleb128 0x1
 2231 0fc0 30       		.byte	0x30
 2232 0fc1 00       		.byte	0
 2233 0fc2 00       		.byte	0
 2234 0fc3 2F       		.uleb128 0x2f
 2235 0fc4 FA080000 		.4byte	.LASF178
 2236 0fc8 03       		.byte	0x3
 2237 0fc9 6D01     		.2byte	0x16d
 2238 0fcb 03       		.byte	0x3
 2239 0fcc DE0F0000 		.4byte	0xfde
 2240 0fd0 30       		.uleb128 0x30
 2241 0fd1 60060000 		.4byte	.LASF191
 2242 0fd5 EE0F0000 		.4byte	0xfee
 2243 0fd9 FA080000 		.4byte	.LASF178
 2244 0fdd 00       		.byte	0
 2245 0fde 13       		.uleb128 0x13
 2246 0fdf F8070000 		.4byte	0x7f8
 2247 0fe3 EE0F0000 		.4byte	0xfee
 2248 0fe7 14       		.uleb128 0x14
 2249 0fe8 8C040000 		.4byte	0x48c
 2250 0fec 0B       		.byte	0xb
 2251 0fed 00       		.byte	0
 2252 0fee 05       		.uleb128 0x5
 2253 0fef DE0F0000 		.4byte	0xfde
 2254 0ff3 31       		.uleb128 0x31
 2255 0ff4 95060000 		.4byte	.LASF175
 2256 0ff8 03       		.byte	0x3
 2257 0ff9 6101     		.2byte	0x161
 2258 0ffb 03       		.byte	0x3
 2259 0ffc 31       		.uleb128 0x31
 2260 0ffd 91020000 		.4byte	.LASF176
 2261 1001 0E       		.byte	0xe
 2262 1002 7202     		.2byte	0x272
 2263 1004 03       		.byte	0x3
 2264 1005 31       		.uleb128 0x31
 2265 1006 A0000000 		.4byte	.LASF177
 2266 100a 0E       		.byte	0xe
 2267 100b 5A02     		.2byte	0x25a
 2268 100d 03       		.byte	0x3
 2269 100e 2F       		.uleb128 0x2f
 2270 100f D0070000 		.4byte	.LASF179
 2271 1013 02       		.byte	0x2
 2272 1014 EB01     		.2byte	0x1eb
 2273 1016 03       		.byte	0x3
 2274 1017 28100000 		.4byte	0x1028
 2275 101b 32       		.uleb128 0x32
 2276 101c 82020000 		.4byte	.LASF192
 2277 1020 02       		.byte	0x2
 2278 1021 EB01     		.2byte	0x1eb
 2279 1023 DF000000 		.4byte	0xdf
 2280 1027 00       		.byte	0
ARM GAS  /tmp/cc8ZDNJg.s 			page 41


 2281 1028 33       		.uleb128 0x33
 2282 1029 F2040000 		.4byte	.LASF180
 2283 102d F2040000 		.4byte	.LASF180
 2284 1031 10       		.byte	0x10
 2285 1032 4F       		.byte	0x4f
 2286 1033 33       		.uleb128 0x33
 2287 1034 8A040000 		.4byte	.LASF181
 2288 1038 8A040000 		.4byte	.LASF181
 2289 103c 10       		.byte	0x10
 2290 103d 50       		.byte	0x50
 2291 103e 33       		.uleb128 0x33
 2292 103f BE080000 		.4byte	.LASF182
 2293 1043 BE080000 		.4byte	.LASF182
 2294 1047 17       		.byte	0x17
 2295 1048 9A       		.byte	0x9a
 2296 1049 33       		.uleb128 0x33
 2297 104a 9F060000 		.4byte	.LASF183
 2298 104e 9F060000 		.4byte	.LASF183
 2299 1052 13       		.byte	0x13
 2300 1053 E1       		.byte	0xe1
 2301 1054 33       		.uleb128 0x33
 2302 1055 6F070000 		.4byte	.LASF184
 2303 1059 6F070000 		.4byte	.LASF184
 2304 105d 13       		.byte	0x13
 2305 105e E3       		.byte	0xe3
 2306 105f 34       		.uleb128 0x34
 2307 1060 54080000 		.4byte	.LASF185
 2308 1064 54080000 		.4byte	.LASF185
 2309 1068 09       		.byte	0x9
 2310 1069 D501     		.2byte	0x1d5
 2311 106b 33       		.uleb128 0x33
 2312 106c EF070000 		.4byte	.LASF186
 2313 1070 EF070000 		.4byte	.LASF186
 2314 1074 16       		.byte	0x16
 2315 1075 7F       		.byte	0x7f
 2316 1076 00       		.byte	0
 2317              		.section	.debug_abbrev,"",%progbits
 2318              	.Ldebug_abbrev0:
 2319 0000 01       		.uleb128 0x1
 2320 0001 11       		.uleb128 0x11
 2321 0002 01       		.byte	0x1
 2322 0003 25       		.uleb128 0x25
 2323 0004 0E       		.uleb128 0xe
 2324 0005 13       		.uleb128 0x13
 2325 0006 0B       		.uleb128 0xb
 2326 0007 03       		.uleb128 0x3
 2327 0008 0E       		.uleb128 0xe
 2328 0009 1B       		.uleb128 0x1b
 2329 000a 0E       		.uleb128 0xe
 2330 000b 55       		.uleb128 0x55
 2331 000c 17       		.uleb128 0x17
 2332 000d 11       		.uleb128 0x11
 2333 000e 01       		.uleb128 0x1
 2334 000f 10       		.uleb128 0x10
 2335 0010 17       		.uleb128 0x17
 2336 0011 00       		.byte	0
 2337 0012 00       		.byte	0
ARM GAS  /tmp/cc8ZDNJg.s 			page 42


 2338 0013 02       		.uleb128 0x2
 2339 0014 24       		.uleb128 0x24
 2340 0015 00       		.byte	0
 2341 0016 0B       		.uleb128 0xb
 2342 0017 0B       		.uleb128 0xb
 2343 0018 3E       		.uleb128 0x3e
 2344 0019 0B       		.uleb128 0xb
 2345 001a 03       		.uleb128 0x3
 2346 001b 08       		.uleb128 0x8
 2347 001c 00       		.byte	0
 2348 001d 00       		.byte	0
 2349 001e 03       		.uleb128 0x3
 2350 001f 16       		.uleb128 0x16
 2351 0020 00       		.byte	0
 2352 0021 03       		.uleb128 0x3
 2353 0022 0E       		.uleb128 0xe
 2354 0023 3A       		.uleb128 0x3a
 2355 0024 0B       		.uleb128 0xb
 2356 0025 3B       		.uleb128 0x3b
 2357 0026 0B       		.uleb128 0xb
 2358 0027 49       		.uleb128 0x49
 2359 0028 13       		.uleb128 0x13
 2360 0029 00       		.byte	0
 2361 002a 00       		.byte	0
 2362 002b 04       		.uleb128 0x4
 2363 002c 24       		.uleb128 0x24
 2364 002d 00       		.byte	0
 2365 002e 0B       		.uleb128 0xb
 2366 002f 0B       		.uleb128 0xb
 2367 0030 3E       		.uleb128 0x3e
 2368 0031 0B       		.uleb128 0xb
 2369 0032 03       		.uleb128 0x3
 2370 0033 0E       		.uleb128 0xe
 2371 0034 00       		.byte	0
 2372 0035 00       		.byte	0
 2373 0036 05       		.uleb128 0x5
 2374 0037 26       		.uleb128 0x26
 2375 0038 00       		.byte	0
 2376 0039 49       		.uleb128 0x49
 2377 003a 13       		.uleb128 0x13
 2378 003b 00       		.byte	0
 2379 003c 00       		.byte	0
 2380 003d 06       		.uleb128 0x6
 2381 003e 35       		.uleb128 0x35
 2382 003f 00       		.byte	0
 2383 0040 49       		.uleb128 0x49
 2384 0041 13       		.uleb128 0x13
 2385 0042 00       		.byte	0
 2386 0043 00       		.byte	0
 2387 0044 07       		.uleb128 0x7
 2388 0045 13       		.uleb128 0x13
 2389 0046 01       		.byte	0x1
 2390 0047 03       		.uleb128 0x3
 2391 0048 0E       		.uleb128 0xe
 2392 0049 0B       		.uleb128 0xb
 2393 004a 0B       		.uleb128 0xb
 2394 004b 3A       		.uleb128 0x3a
ARM GAS  /tmp/cc8ZDNJg.s 			page 43


 2395 004c 0B       		.uleb128 0xb
 2396 004d 3B       		.uleb128 0x3b
 2397 004e 0B       		.uleb128 0xb
 2398 004f 01       		.uleb128 0x1
 2399 0050 13       		.uleb128 0x13
 2400 0051 00       		.byte	0
 2401 0052 00       		.byte	0
 2402 0053 08       		.uleb128 0x8
 2403 0054 0D       		.uleb128 0xd
 2404 0055 00       		.byte	0
 2405 0056 03       		.uleb128 0x3
 2406 0057 0E       		.uleb128 0xe
 2407 0058 3A       		.uleb128 0x3a
 2408 0059 0B       		.uleb128 0xb
 2409 005a 3B       		.uleb128 0x3b
 2410 005b 0B       		.uleb128 0xb
 2411 005c 49       		.uleb128 0x49
 2412 005d 13       		.uleb128 0x13
 2413 005e 38       		.uleb128 0x38
 2414 005f 0B       		.uleb128 0xb
 2415 0060 00       		.byte	0
 2416 0061 00       		.byte	0
 2417 0062 09       		.uleb128 0x9
 2418 0063 0D       		.uleb128 0xd
 2419 0064 00       		.byte	0
 2420 0065 03       		.uleb128 0x3
 2421 0066 08       		.uleb128 0x8
 2422 0067 3A       		.uleb128 0x3a
 2423 0068 0B       		.uleb128 0xb
 2424 0069 3B       		.uleb128 0x3b
 2425 006a 0B       		.uleb128 0xb
 2426 006b 49       		.uleb128 0x49
 2427 006c 13       		.uleb128 0x13
 2428 006d 38       		.uleb128 0x38
 2429 006e 0B       		.uleb128 0xb
 2430 006f 00       		.byte	0
 2431 0070 00       		.byte	0
 2432 0071 0A       		.uleb128 0xa
 2433 0072 0D       		.uleb128 0xd
 2434 0073 00       		.byte	0
 2435 0074 03       		.uleb128 0x3
 2436 0075 08       		.uleb128 0x8
 2437 0076 3A       		.uleb128 0x3a
 2438 0077 0B       		.uleb128 0xb
 2439 0078 3B       		.uleb128 0x3b
 2440 0079 05       		.uleb128 0x5
 2441 007a 49       		.uleb128 0x49
 2442 007b 13       		.uleb128 0x13
 2443 007c 38       		.uleb128 0x38
 2444 007d 0B       		.uleb128 0xb
 2445 007e 00       		.byte	0
 2446 007f 00       		.byte	0
 2447 0080 0B       		.uleb128 0xb
 2448 0081 0D       		.uleb128 0xd
 2449 0082 00       		.byte	0
 2450 0083 03       		.uleb128 0x3
 2451 0084 0E       		.uleb128 0xe
ARM GAS  /tmp/cc8ZDNJg.s 			page 44


 2452 0085 3A       		.uleb128 0x3a
 2453 0086 0B       		.uleb128 0xb
 2454 0087 3B       		.uleb128 0x3b
 2455 0088 05       		.uleb128 0x5
 2456 0089 49       		.uleb128 0x49
 2457 008a 13       		.uleb128 0x13
 2458 008b 38       		.uleb128 0x38
 2459 008c 0B       		.uleb128 0xb
 2460 008d 00       		.byte	0
 2461 008e 00       		.byte	0
 2462 008f 0C       		.uleb128 0xc
 2463 0090 0F       		.uleb128 0xf
 2464 0091 00       		.byte	0
 2465 0092 0B       		.uleb128 0xb
 2466 0093 0B       		.uleb128 0xb
 2467 0094 49       		.uleb128 0x49
 2468 0095 13       		.uleb128 0x13
 2469 0096 00       		.byte	0
 2470 0097 00       		.byte	0
 2471 0098 0D       		.uleb128 0xd
 2472 0099 13       		.uleb128 0x13
 2473 009a 01       		.byte	0x1
 2474 009b 03       		.uleb128 0x3
 2475 009c 0E       		.uleb128 0xe
 2476 009d 0B       		.uleb128 0xb
 2477 009e 0B       		.uleb128 0xb
 2478 009f 3A       		.uleb128 0x3a
 2479 00a0 0B       		.uleb128 0xb
 2480 00a1 3B       		.uleb128 0x3b
 2481 00a2 05       		.uleb128 0x5
 2482 00a3 01       		.uleb128 0x1
 2483 00a4 13       		.uleb128 0x13
 2484 00a5 00       		.byte	0
 2485 00a6 00       		.byte	0
 2486 00a7 0E       		.uleb128 0xe
 2487 00a8 15       		.uleb128 0x15
 2488 00a9 01       		.byte	0x1
 2489 00aa 27       		.uleb128 0x27
 2490 00ab 19       		.uleb128 0x19
 2491 00ac 01       		.uleb128 0x1
 2492 00ad 13       		.uleb128 0x13
 2493 00ae 00       		.byte	0
 2494 00af 00       		.byte	0
 2495 00b0 0F       		.uleb128 0xf
 2496 00b1 05       		.uleb128 0x5
 2497 00b2 00       		.byte	0
 2498 00b3 49       		.uleb128 0x49
 2499 00b4 13       		.uleb128 0x13
 2500 00b5 00       		.byte	0
 2501 00b6 00       		.byte	0
 2502 00b7 10       		.uleb128 0x10
 2503 00b8 0F       		.uleb128 0xf
 2504 00b9 00       		.byte	0
 2505 00ba 0B       		.uleb128 0xb
 2506 00bb 0B       		.uleb128 0xb
 2507 00bc 00       		.byte	0
 2508 00bd 00       		.byte	0
ARM GAS  /tmp/cc8ZDNJg.s 			page 45


 2509 00be 11       		.uleb128 0x11
 2510 00bf 34       		.uleb128 0x34
 2511 00c0 00       		.byte	0
 2512 00c1 03       		.uleb128 0x3
 2513 00c2 0E       		.uleb128 0xe
 2514 00c3 3A       		.uleb128 0x3a
 2515 00c4 0B       		.uleb128 0xb
 2516 00c5 3B       		.uleb128 0x3b
 2517 00c6 05       		.uleb128 0x5
 2518 00c7 49       		.uleb128 0x49
 2519 00c8 13       		.uleb128 0x13
 2520 00c9 3F       		.uleb128 0x3f
 2521 00ca 19       		.uleb128 0x19
 2522 00cb 3C       		.uleb128 0x3c
 2523 00cc 19       		.uleb128 0x19
 2524 00cd 00       		.byte	0
 2525 00ce 00       		.byte	0
 2526 00cf 12       		.uleb128 0x12
 2527 00d0 34       		.uleb128 0x34
 2528 00d1 00       		.byte	0
 2529 00d2 03       		.uleb128 0x3
 2530 00d3 0E       		.uleb128 0xe
 2531 00d4 3A       		.uleb128 0x3a
 2532 00d5 0B       		.uleb128 0xb
 2533 00d6 3B       		.uleb128 0x3b
 2534 00d7 0B       		.uleb128 0xb
 2535 00d8 49       		.uleb128 0x49
 2536 00d9 13       		.uleb128 0x13
 2537 00da 3F       		.uleb128 0x3f
 2538 00db 19       		.uleb128 0x19
 2539 00dc 3C       		.uleb128 0x3c
 2540 00dd 19       		.uleb128 0x19
 2541 00de 00       		.byte	0
 2542 00df 00       		.byte	0
 2543 00e0 13       		.uleb128 0x13
 2544 00e1 01       		.uleb128 0x1
 2545 00e2 01       		.byte	0x1
 2546 00e3 49       		.uleb128 0x49
 2547 00e4 13       		.uleb128 0x13
 2548 00e5 01       		.uleb128 0x1
 2549 00e6 13       		.uleb128 0x13
 2550 00e7 00       		.byte	0
 2551 00e8 00       		.byte	0
 2552 00e9 14       		.uleb128 0x14
 2553 00ea 21       		.uleb128 0x21
 2554 00eb 00       		.byte	0
 2555 00ec 49       		.uleb128 0x49
 2556 00ed 13       		.uleb128 0x13
 2557 00ee 2F       		.uleb128 0x2f
 2558 00ef 0B       		.uleb128 0xb
 2559 00f0 00       		.byte	0
 2560 00f1 00       		.byte	0
 2561 00f2 15       		.uleb128 0x15
 2562 00f3 13       		.uleb128 0x13
 2563 00f4 01       		.byte	0x1
 2564 00f5 0B       		.uleb128 0xb
 2565 00f6 0B       		.uleb128 0xb
ARM GAS  /tmp/cc8ZDNJg.s 			page 46


 2566 00f7 3A       		.uleb128 0x3a
 2567 00f8 0B       		.uleb128 0xb
 2568 00f9 3B       		.uleb128 0x3b
 2569 00fa 0B       		.uleb128 0xb
 2570 00fb 01       		.uleb128 0x1
 2571 00fc 13       		.uleb128 0x13
 2572 00fd 00       		.byte	0
 2573 00fe 00       		.byte	0
 2574 00ff 16       		.uleb128 0x16
 2575 0100 17       		.uleb128 0x17
 2576 0101 01       		.byte	0x1
 2577 0102 0B       		.uleb128 0xb
 2578 0103 0B       		.uleb128 0xb
 2579 0104 3A       		.uleb128 0x3a
 2580 0105 0B       		.uleb128 0xb
 2581 0106 3B       		.uleb128 0x3b
 2582 0107 0B       		.uleb128 0xb
 2583 0108 01       		.uleb128 0x1
 2584 0109 13       		.uleb128 0x13
 2585 010a 00       		.byte	0
 2586 010b 00       		.byte	0
 2587 010c 17       		.uleb128 0x17
 2588 010d 0D       		.uleb128 0xd
 2589 010e 00       		.byte	0
 2590 010f 03       		.uleb128 0x3
 2591 0110 0E       		.uleb128 0xe
 2592 0111 3A       		.uleb128 0x3a
 2593 0112 0B       		.uleb128 0xb
 2594 0113 3B       		.uleb128 0x3b
 2595 0114 0B       		.uleb128 0xb
 2596 0115 49       		.uleb128 0x49
 2597 0116 13       		.uleb128 0x13
 2598 0117 00       		.byte	0
 2599 0118 00       		.byte	0
 2600 0119 18       		.uleb128 0x18
 2601 011a 0D       		.uleb128 0xd
 2602 011b 00       		.byte	0
 2603 011c 03       		.uleb128 0x3
 2604 011d 0E       		.uleb128 0xe
 2605 011e 3A       		.uleb128 0x3a
 2606 011f 0B       		.uleb128 0xb
 2607 0120 3B       		.uleb128 0x3b
 2608 0121 05       		.uleb128 0x5
 2609 0122 49       		.uleb128 0x49
 2610 0123 13       		.uleb128 0x13
 2611 0124 00       		.byte	0
 2612 0125 00       		.byte	0
 2613 0126 19       		.uleb128 0x19
 2614 0127 34       		.uleb128 0x34
 2615 0128 00       		.byte	0
 2616 0129 03       		.uleb128 0x3
 2617 012a 08       		.uleb128 0x8
 2618 012b 3A       		.uleb128 0x3a
 2619 012c 0B       		.uleb128 0xb
 2620 012d 3B       		.uleb128 0x3b
 2621 012e 05       		.uleb128 0x5
 2622 012f 49       		.uleb128 0x49
ARM GAS  /tmp/cc8ZDNJg.s 			page 47


 2623 0130 13       		.uleb128 0x13
 2624 0131 3F       		.uleb128 0x3f
 2625 0132 19       		.uleb128 0x19
 2626 0133 3C       		.uleb128 0x3c
 2627 0134 19       		.uleb128 0x19
 2628 0135 00       		.byte	0
 2629 0136 00       		.byte	0
 2630 0137 1A       		.uleb128 0x1a
 2631 0138 21       		.uleb128 0x21
 2632 0139 00       		.byte	0
 2633 013a 00       		.byte	0
 2634 013b 00       		.byte	0
 2635 013c 1B       		.uleb128 0x1b
 2636 013d 15       		.uleb128 0x15
 2637 013e 01       		.byte	0x1
 2638 013f 27       		.uleb128 0x27
 2639 0140 19       		.uleb128 0x19
 2640 0141 49       		.uleb128 0x49
 2641 0142 13       		.uleb128 0x13
 2642 0143 01       		.uleb128 0x1
 2643 0144 13       		.uleb128 0x13
 2644 0145 00       		.byte	0
 2645 0146 00       		.byte	0
 2646 0147 1C       		.uleb128 0x1c
 2647 0148 17       		.uleb128 0x17
 2648 0149 01       		.byte	0x1
 2649 014a 03       		.uleb128 0x3
 2650 014b 0E       		.uleb128 0xe
 2651 014c 0B       		.uleb128 0xb
 2652 014d 0B       		.uleb128 0xb
 2653 014e 3A       		.uleb128 0x3a
 2654 014f 0B       		.uleb128 0xb
 2655 0150 3B       		.uleb128 0x3b
 2656 0151 0B       		.uleb128 0xb
 2657 0152 01       		.uleb128 0x1
 2658 0153 13       		.uleb128 0x13
 2659 0154 00       		.byte	0
 2660 0155 00       		.byte	0
 2661 0156 1D       		.uleb128 0x1d
 2662 0157 16       		.uleb128 0x16
 2663 0158 00       		.byte	0
 2664 0159 03       		.uleb128 0x3
 2665 015a 0E       		.uleb128 0xe
 2666 015b 3A       		.uleb128 0x3a
 2667 015c 0B       		.uleb128 0xb
 2668 015d 3B       		.uleb128 0x3b
 2669 015e 05       		.uleb128 0x5
 2670 015f 49       		.uleb128 0x49
 2671 0160 13       		.uleb128 0x13
 2672 0161 00       		.byte	0
 2673 0162 00       		.byte	0
 2674 0163 1E       		.uleb128 0x1e
 2675 0164 2E       		.uleb128 0x2e
 2676 0165 01       		.byte	0x1
 2677 0166 3F       		.uleb128 0x3f
 2678 0167 19       		.uleb128 0x19
 2679 0168 03       		.uleb128 0x3
ARM GAS  /tmp/cc8ZDNJg.s 			page 48


 2680 0169 0E       		.uleb128 0xe
 2681 016a 3A       		.uleb128 0x3a
 2682 016b 0B       		.uleb128 0xb
 2683 016c 3B       		.uleb128 0x3b
 2684 016d 0B       		.uleb128 0xb
 2685 016e 27       		.uleb128 0x27
 2686 016f 19       		.uleb128 0x19
 2687 0170 49       		.uleb128 0x49
 2688 0171 13       		.uleb128 0x13
 2689 0172 11       		.uleb128 0x11
 2690 0173 01       		.uleb128 0x1
 2691 0174 12       		.uleb128 0x12
 2692 0175 06       		.uleb128 0x6
 2693 0176 40       		.uleb128 0x40
 2694 0177 18       		.uleb128 0x18
 2695 0178 9742     		.uleb128 0x2117
 2696 017a 19       		.uleb128 0x19
 2697 017b 01       		.uleb128 0x1
 2698 017c 13       		.uleb128 0x13
 2699 017d 00       		.byte	0
 2700 017e 00       		.byte	0
 2701 017f 1F       		.uleb128 0x1f
 2702 0180 05       		.uleb128 0x5
 2703 0181 00       		.byte	0
 2704 0182 03       		.uleb128 0x3
 2705 0183 08       		.uleb128 0x8
 2706 0184 3A       		.uleb128 0x3a
 2707 0185 0B       		.uleb128 0xb
 2708 0186 3B       		.uleb128 0x3b
 2709 0187 0B       		.uleb128 0xb
 2710 0188 49       		.uleb128 0x49
 2711 0189 13       		.uleb128 0x13
 2712 018a 02       		.uleb128 0x2
 2713 018b 17       		.uleb128 0x17
 2714 018c 00       		.byte	0
 2715 018d 00       		.byte	0
 2716 018e 20       		.uleb128 0x20
 2717 018f 05       		.uleb128 0x5
 2718 0190 00       		.byte	0
 2719 0191 03       		.uleb128 0x3
 2720 0192 0E       		.uleb128 0xe
 2721 0193 3A       		.uleb128 0x3a
 2722 0194 0B       		.uleb128 0xb
 2723 0195 3B       		.uleb128 0x3b
 2724 0196 0B       		.uleb128 0xb
 2725 0197 49       		.uleb128 0x49
 2726 0198 13       		.uleb128 0x13
 2727 0199 02       		.uleb128 0x2
 2728 019a 17       		.uleb128 0x17
 2729 019b 00       		.byte	0
 2730 019c 00       		.byte	0
 2731 019d 21       		.uleb128 0x21
 2732 019e 05       		.uleb128 0x5
 2733 019f 00       		.byte	0
 2734 01a0 03       		.uleb128 0x3
 2735 01a1 08       		.uleb128 0x8
 2736 01a2 3A       		.uleb128 0x3a
ARM GAS  /tmp/cc8ZDNJg.s 			page 49


 2737 01a3 0B       		.uleb128 0xb
 2738 01a4 3B       		.uleb128 0x3b
 2739 01a5 0B       		.uleb128 0xb
 2740 01a6 49       		.uleb128 0x49
 2741 01a7 13       		.uleb128 0x13
 2742 01a8 02       		.uleb128 0x2
 2743 01a9 18       		.uleb128 0x18
 2744 01aa 00       		.byte	0
 2745 01ab 00       		.byte	0
 2746 01ac 22       		.uleb128 0x22
 2747 01ad 34       		.uleb128 0x34
 2748 01ae 00       		.byte	0
 2749 01af 03       		.uleb128 0x3
 2750 01b0 08       		.uleb128 0x8
 2751 01b1 3A       		.uleb128 0x3a
 2752 01b2 0B       		.uleb128 0xb
 2753 01b3 3B       		.uleb128 0x3b
 2754 01b4 0B       		.uleb128 0xb
 2755 01b5 49       		.uleb128 0x49
 2756 01b6 13       		.uleb128 0x13
 2757 01b7 02       		.uleb128 0x2
 2758 01b8 17       		.uleb128 0x17
 2759 01b9 00       		.byte	0
 2760 01ba 00       		.byte	0
 2761 01bb 23       		.uleb128 0x23
 2762 01bc 34       		.uleb128 0x34
 2763 01bd 00       		.byte	0
 2764 01be 03       		.uleb128 0x3
 2765 01bf 0E       		.uleb128 0xe
 2766 01c0 49       		.uleb128 0x49
 2767 01c1 13       		.uleb128 0x13
 2768 01c2 34       		.uleb128 0x34
 2769 01c3 19       		.uleb128 0x19
 2770 01c4 00       		.byte	0
 2771 01c5 00       		.byte	0
 2772 01c6 24       		.uleb128 0x24
 2773 01c7 34       		.uleb128 0x34
 2774 01c8 00       		.byte	0
 2775 01c9 03       		.uleb128 0x3
 2776 01ca 08       		.uleb128 0x8
 2777 01cb 3A       		.uleb128 0x3a
 2778 01cc 0B       		.uleb128 0xb
 2779 01cd 3B       		.uleb128 0x3b
 2780 01ce 0B       		.uleb128 0xb
 2781 01cf 49       		.uleb128 0x49
 2782 01d0 13       		.uleb128 0x13
 2783 01d1 02       		.uleb128 0x2
 2784 01d2 18       		.uleb128 0x18
 2785 01d3 00       		.byte	0
 2786 01d4 00       		.byte	0
 2787 01d5 25       		.uleb128 0x25
 2788 01d6 1D       		.uleb128 0x1d
 2789 01d7 01       		.byte	0x1
 2790 01d8 31       		.uleb128 0x31
 2791 01d9 13       		.uleb128 0x13
 2792 01da 11       		.uleb128 0x11
 2793 01db 01       		.uleb128 0x1
ARM GAS  /tmp/cc8ZDNJg.s 			page 50


 2794 01dc 12       		.uleb128 0x12
 2795 01dd 06       		.uleb128 0x6
 2796 01de 58       		.uleb128 0x58
 2797 01df 0B       		.uleb128 0xb
 2798 01e0 59       		.uleb128 0x59
 2799 01e1 0B       		.uleb128 0xb
 2800 01e2 01       		.uleb128 0x1
 2801 01e3 13       		.uleb128 0x13
 2802 01e4 00       		.byte	0
 2803 01e5 00       		.byte	0
 2804 01e6 26       		.uleb128 0x26
 2805 01e7 1D       		.uleb128 0x1d
 2806 01e8 01       		.byte	0x1
 2807 01e9 31       		.uleb128 0x31
 2808 01ea 13       		.uleb128 0x13
 2809 01eb 11       		.uleb128 0x11
 2810 01ec 01       		.uleb128 0x1
 2811 01ed 12       		.uleb128 0x12
 2812 01ee 06       		.uleb128 0x6
 2813 01ef 58       		.uleb128 0x58
 2814 01f0 0B       		.uleb128 0xb
 2815 01f1 59       		.uleb128 0x59
 2816 01f2 05       		.uleb128 0x5
 2817 01f3 01       		.uleb128 0x1
 2818 01f4 13       		.uleb128 0x13
 2819 01f5 00       		.byte	0
 2820 01f6 00       		.byte	0
 2821 01f7 27       		.uleb128 0x27
 2822 01f8 1D       		.uleb128 0x1d
 2823 01f9 01       		.byte	0x1
 2824 01fa 31       		.uleb128 0x31
 2825 01fb 13       		.uleb128 0x13
 2826 01fc 11       		.uleb128 0x11
 2827 01fd 01       		.uleb128 0x1
 2828 01fe 12       		.uleb128 0x12
 2829 01ff 06       		.uleb128 0x6
 2830 0200 58       		.uleb128 0x58
 2831 0201 0B       		.uleb128 0xb
 2832 0202 59       		.uleb128 0x59
 2833 0203 05       		.uleb128 0x5
 2834 0204 00       		.byte	0
 2835 0205 00       		.byte	0
 2836 0206 28       		.uleb128 0x28
 2837 0207 05       		.uleb128 0x5
 2838 0208 00       		.byte	0
 2839 0209 31       		.uleb128 0x31
 2840 020a 13       		.uleb128 0x13
 2841 020b 02       		.uleb128 0x2
 2842 020c 17       		.uleb128 0x17
 2843 020d 00       		.byte	0
 2844 020e 00       		.byte	0
 2845 020f 29       		.uleb128 0x29
 2846 0210 898201   		.uleb128 0x4109
 2847 0213 00       		.byte	0
 2848 0214 11       		.uleb128 0x11
 2849 0215 01       		.uleb128 0x1
 2850 0216 31       		.uleb128 0x31
ARM GAS  /tmp/cc8ZDNJg.s 			page 51


 2851 0217 13       		.uleb128 0x13
 2852 0218 00       		.byte	0
 2853 0219 00       		.byte	0
 2854 021a 2A       		.uleb128 0x2a
 2855 021b 0B       		.uleb128 0xb
 2856 021c 01       		.byte	0x1
 2857 021d 11       		.uleb128 0x11
 2858 021e 01       		.uleb128 0x1
 2859 021f 12       		.uleb128 0x12
 2860 0220 06       		.uleb128 0x6
 2861 0221 00       		.byte	0
 2862 0222 00       		.byte	0
 2863 0223 2B       		.uleb128 0x2b
 2864 0224 34       		.uleb128 0x34
 2865 0225 00       		.byte	0
 2866 0226 31       		.uleb128 0x31
 2867 0227 13       		.uleb128 0x13
 2868 0228 00       		.byte	0
 2869 0229 00       		.byte	0
 2870 022a 2C       		.uleb128 0x2c
 2871 022b 898201   		.uleb128 0x4109
 2872 022e 01       		.byte	0x1
 2873 022f 11       		.uleb128 0x11
 2874 0230 01       		.uleb128 0x1
 2875 0231 31       		.uleb128 0x31
 2876 0232 13       		.uleb128 0x13
 2877 0233 01       		.uleb128 0x1
 2878 0234 13       		.uleb128 0x13
 2879 0235 00       		.byte	0
 2880 0236 00       		.byte	0
 2881 0237 2D       		.uleb128 0x2d
 2882 0238 8A8201   		.uleb128 0x410a
 2883 023b 00       		.byte	0
 2884 023c 02       		.uleb128 0x2
 2885 023d 18       		.uleb128 0x18
 2886 023e 9142     		.uleb128 0x2111
 2887 0240 18       		.uleb128 0x18
 2888 0241 00       		.byte	0
 2889 0242 00       		.byte	0
 2890 0243 2E       		.uleb128 0x2e
 2891 0244 898201   		.uleb128 0x4109
 2892 0247 01       		.byte	0x1
 2893 0248 11       		.uleb128 0x11
 2894 0249 01       		.uleb128 0x1
 2895 024a 31       		.uleb128 0x31
 2896 024b 13       		.uleb128 0x13
 2897 024c 00       		.byte	0
 2898 024d 00       		.byte	0
 2899 024e 2F       		.uleb128 0x2f
 2900 024f 2E       		.uleb128 0x2e
 2901 0250 01       		.byte	0x1
 2902 0251 03       		.uleb128 0x3
 2903 0252 0E       		.uleb128 0xe
 2904 0253 3A       		.uleb128 0x3a
 2905 0254 0B       		.uleb128 0xb
 2906 0255 3B       		.uleb128 0x3b
 2907 0256 05       		.uleb128 0x5
ARM GAS  /tmp/cc8ZDNJg.s 			page 52


 2908 0257 27       		.uleb128 0x27
 2909 0258 19       		.uleb128 0x19
 2910 0259 20       		.uleb128 0x20
 2911 025a 0B       		.uleb128 0xb
 2912 025b 01       		.uleb128 0x1
 2913 025c 13       		.uleb128 0x13
 2914 025d 00       		.byte	0
 2915 025e 00       		.byte	0
 2916 025f 30       		.uleb128 0x30
 2917 0260 34       		.uleb128 0x34
 2918 0261 00       		.byte	0
 2919 0262 03       		.uleb128 0x3
 2920 0263 0E       		.uleb128 0xe
 2921 0264 49       		.uleb128 0x49
 2922 0265 13       		.uleb128 0x13
 2923 0266 34       		.uleb128 0x34
 2924 0267 19       		.uleb128 0x19
 2925 0268 1C       		.uleb128 0x1c
 2926 0269 0E       		.uleb128 0xe
 2927 026a 00       		.byte	0
 2928 026b 00       		.byte	0
 2929 026c 31       		.uleb128 0x31
 2930 026d 2E       		.uleb128 0x2e
 2931 026e 00       		.byte	0
 2932 026f 03       		.uleb128 0x3
 2933 0270 0E       		.uleb128 0xe
 2934 0271 3A       		.uleb128 0x3a
 2935 0272 0B       		.uleb128 0xb
 2936 0273 3B       		.uleb128 0x3b
 2937 0274 05       		.uleb128 0x5
 2938 0275 27       		.uleb128 0x27
 2939 0276 19       		.uleb128 0x19
 2940 0277 20       		.uleb128 0x20
 2941 0278 0B       		.uleb128 0xb
 2942 0279 00       		.byte	0
 2943 027a 00       		.byte	0
 2944 027b 32       		.uleb128 0x32
 2945 027c 05       		.uleb128 0x5
 2946 027d 00       		.byte	0
 2947 027e 03       		.uleb128 0x3
 2948 027f 0E       		.uleb128 0xe
 2949 0280 3A       		.uleb128 0x3a
 2950 0281 0B       		.uleb128 0xb
 2951 0282 3B       		.uleb128 0x3b
 2952 0283 05       		.uleb128 0x5
 2953 0284 49       		.uleb128 0x49
 2954 0285 13       		.uleb128 0x13
 2955 0286 00       		.byte	0
 2956 0287 00       		.byte	0
 2957 0288 33       		.uleb128 0x33
 2958 0289 2E       		.uleb128 0x2e
 2959 028a 00       		.byte	0
 2960 028b 3F       		.uleb128 0x3f
 2961 028c 19       		.uleb128 0x19
 2962 028d 3C       		.uleb128 0x3c
 2963 028e 19       		.uleb128 0x19
 2964 028f 6E       		.uleb128 0x6e
ARM GAS  /tmp/cc8ZDNJg.s 			page 53


 2965 0290 0E       		.uleb128 0xe
 2966 0291 03       		.uleb128 0x3
 2967 0292 0E       		.uleb128 0xe
 2968 0293 3A       		.uleb128 0x3a
 2969 0294 0B       		.uleb128 0xb
 2970 0295 3B       		.uleb128 0x3b
 2971 0296 0B       		.uleb128 0xb
 2972 0297 00       		.byte	0
 2973 0298 00       		.byte	0
 2974 0299 34       		.uleb128 0x34
 2975 029a 2E       		.uleb128 0x2e
 2976 029b 00       		.byte	0
 2977 029c 3F       		.uleb128 0x3f
 2978 029d 19       		.uleb128 0x19
 2979 029e 3C       		.uleb128 0x3c
 2980 029f 19       		.uleb128 0x19
 2981 02a0 6E       		.uleb128 0x6e
 2982 02a1 0E       		.uleb128 0xe
 2983 02a2 03       		.uleb128 0x3
 2984 02a3 0E       		.uleb128 0xe
 2985 02a4 3A       		.uleb128 0x3a
 2986 02a5 0B       		.uleb128 0xb
 2987 02a6 3B       		.uleb128 0x3b
 2988 02a7 05       		.uleb128 0x5
 2989 02a8 00       		.byte	0
 2990 02a9 00       		.byte	0
 2991 02aa 00       		.byte	0
 2992              		.section	.debug_loc,"",%progbits
 2993              	.Ldebug_loc0:
 2994              	.LLST8:
 2995 0000 00000000 		.4byte	.LVL11
 2996 0004 11000000 		.4byte	.LVL12-1
 2997 0008 0100     		.2byte	0x1
 2998 000a 50       		.byte	0x50
 2999 000b 11000000 		.4byte	.LVL12-1
 3000 000f 62000000 		.4byte	.LFE291
 3001 0013 0100     		.2byte	0x1
 3002 0015 55       		.byte	0x55
 3003 0016 00000000 		.4byte	0
 3004 001a 00000000 		.4byte	0
 3005              	.LLST9:
 3006 001e 00000000 		.4byte	.LVL11
 3007 0022 11000000 		.4byte	.LVL12-1
 3008 0026 0100     		.2byte	0x1
 3009 0028 51       		.byte	0x51
 3010 0029 11000000 		.4byte	.LVL12-1
 3011 002d 62000000 		.4byte	.LFE291
 3012 0031 0100     		.2byte	0x1
 3013 0033 58       		.byte	0x58
 3014 0034 00000000 		.4byte	0
 3015 0038 00000000 		.4byte	0
 3016              	.LLST10:
 3017 003c 00000000 		.4byte	.LVL11
 3018 0040 11000000 		.4byte	.LVL12-1
 3019 0044 0100     		.2byte	0x1
 3020 0046 52       		.byte	0x52
 3021 0047 11000000 		.4byte	.LVL12-1
ARM GAS  /tmp/cc8ZDNJg.s 			page 54


 3022 004b 62000000 		.4byte	.LFE291
 3023 004f 0100     		.2byte	0x1
 3024 0051 57       		.byte	0x57
 3025 0052 00000000 		.4byte	0
 3026 0056 00000000 		.4byte	0
 3027              	.LLST11:
 3028 005a 00000000 		.4byte	.LVL11
 3029 005e 11000000 		.4byte	.LVL12-1
 3030 0062 0100     		.2byte	0x1
 3031 0064 53       		.byte	0x53
 3032 0065 11000000 		.4byte	.LVL12-1
 3033 0069 62000000 		.4byte	.LFE291
 3034 006d 0100     		.2byte	0x1
 3035 006f 56       		.byte	0x56
 3036 0070 00000000 		.4byte	0
 3037 0074 00000000 		.4byte	0
 3038              	.LLST12:
 3039 0078 4C000000 		.4byte	.LVL17
 3040 007c 4F000000 		.4byte	.LVL18-1
 3041 0080 0100     		.2byte	0x1
 3042 0082 50       		.byte	0x50
 3043 0083 4F000000 		.4byte	.LVL18-1
 3044 0087 5A000000 		.4byte	.LVL20
 3045 008b 0100     		.2byte	0x1
 3046 008d 54       		.byte	0x54
 3047 008e 00000000 		.4byte	0
 3048 0092 00000000 		.4byte	0
 3049              	.LLST13:
 3050 0096 12000000 		.4byte	.LVL12
 3051 009a 2F000000 		.4byte	.LVL13-1
 3052 009e 0100     		.2byte	0x1
 3053 00a0 50       		.byte	0x50
 3054 00a1 2F000000 		.4byte	.LVL13-1
 3055 00a5 4C000000 		.4byte	.LVL17
 3056 00a9 0100     		.2byte	0x1
 3057 00ab 54       		.byte	0x54
 3058 00ac 00000000 		.4byte	0
 3059 00b0 00000000 		.4byte	0
 3060              	.LLST14:
 3061 00b4 30000000 		.4byte	.LVL13
 3062 00b8 36000000 		.4byte	.LVL14
 3063 00bc 0300     		.2byte	0x3
 3064 00be 08       		.byte	0x8
 3065 00bf 20       		.byte	0x20
 3066 00c0 9F       		.byte	0x9f
 3067 00c1 00000000 		.4byte	0
 3068 00c5 00000000 		.4byte	0
 3069              	.LLST15:
 3070 00c9 54000000 		.4byte	.LVL19
 3071 00cd 5A000000 		.4byte	.LVL20
 3072 00d1 0200     		.2byte	0x2
 3073 00d3 30       		.byte	0x30
 3074 00d4 9F       		.byte	0x9f
 3075 00d5 00000000 		.4byte	0
 3076 00d9 00000000 		.4byte	0
 3077              	.LLST0:
 3078 00dd 00000000 		.4byte	.LVL0
ARM GAS  /tmp/cc8ZDNJg.s 			page 55


 3079 00e1 0F000000 		.4byte	.LVL2-1
 3080 00e5 0100     		.2byte	0x1
 3081 00e7 50       		.byte	0x50
 3082 00e8 0F000000 		.4byte	.LVL2-1
 3083 00ec 5A000000 		.4byte	.LFE290
 3084 00f0 0400     		.2byte	0x4
 3085 00f2 F3       		.byte	0xf3
 3086 00f3 01       		.uleb128 0x1
 3087 00f4 50       		.byte	0x50
 3088 00f5 9F       		.byte	0x9f
 3089 00f6 00000000 		.4byte	0
 3090 00fa 00000000 		.4byte	0
 3091              	.LLST1:
 3092 00fe 00000000 		.4byte	.LVL0
 3093 0102 0F000000 		.4byte	.LVL2-1
 3094 0106 0100     		.2byte	0x1
 3095 0108 51       		.byte	0x51
 3096 0109 0F000000 		.4byte	.LVL2-1
 3097 010d 5A000000 		.4byte	.LFE290
 3098 0111 0100     		.2byte	0x1
 3099 0113 56       		.byte	0x56
 3100 0114 00000000 		.4byte	0
 3101 0118 00000000 		.4byte	0
 3102              	.LLST2:
 3103 011c 00000000 		.4byte	.LVL0
 3104 0120 08000000 		.4byte	.LVL1
 3105 0124 0100     		.2byte	0x1
 3106 0126 52       		.byte	0x52
 3107 0127 08000000 		.4byte	.LVL1
 3108 012b 5A000000 		.4byte	.LFE290
 3109 012f 0100     		.2byte	0x1
 3110 0131 57       		.byte	0x57
 3111 0132 00000000 		.4byte	0
 3112 0136 00000000 		.4byte	0
 3113              	.LLST3:
 3114 013a 00000000 		.4byte	.LVL0
 3115 013e 0F000000 		.4byte	.LVL2-1
 3116 0142 0100     		.2byte	0x1
 3117 0144 53       		.byte	0x53
 3118 0145 0F000000 		.4byte	.LVL2-1
 3119 0149 5A000000 		.4byte	.LFE290
 3120 014d 0100     		.2byte	0x1
 3121 014f 55       		.byte	0x55
 3122 0150 00000000 		.4byte	0
 3123 0154 00000000 		.4byte	0
 3124              	.LLST4:
 3125 0158 46000000 		.4byte	.LVL7
 3126 015c 49000000 		.4byte	.LVL8-1
 3127 0160 0100     		.2byte	0x1
 3128 0162 50       		.byte	0x50
 3129 0163 49000000 		.4byte	.LVL8-1
 3130 0167 54000000 		.4byte	.LVL10
 3131 016b 0100     		.2byte	0x1
 3132 016d 54       		.byte	0x54
 3133 016e 00000000 		.4byte	0
 3134 0172 00000000 		.4byte	0
 3135              	.LLST5:
ARM GAS  /tmp/cc8ZDNJg.s 			page 56


 3136 0176 10000000 		.4byte	.LVL2
 3137 017a 2B000000 		.4byte	.LVL3-1
 3138 017e 0100     		.2byte	0x1
 3139 0180 50       		.byte	0x50
 3140 0181 2B000000 		.4byte	.LVL3-1
 3141 0185 46000000 		.4byte	.LVL7
 3142 0189 0100     		.2byte	0x1
 3143 018b 54       		.byte	0x54
 3144 018c 00000000 		.4byte	0
 3145 0190 00000000 		.4byte	0
 3146              	.LLST6:
 3147 0194 2C000000 		.4byte	.LVL3
 3148 0198 32000000 		.4byte	.LVL4
 3149 019c 0300     		.2byte	0x3
 3150 019e 08       		.byte	0x8
 3151 019f 20       		.byte	0x20
 3152 01a0 9F       		.byte	0x9f
 3153 01a1 00000000 		.4byte	0
 3154 01a5 00000000 		.4byte	0
 3155              	.LLST7:
 3156 01a9 4E000000 		.4byte	.LVL9
 3157 01ad 54000000 		.4byte	.LVL10
 3158 01b1 0200     		.2byte	0x2
 3159 01b3 30       		.byte	0x30
 3160 01b4 9F       		.byte	0x9f
 3161 01b5 00000000 		.4byte	0
 3162 01b9 00000000 		.4byte	0
 3163              		.section	.debug_aranges,"",%progbits
 3164 0000 24000000 		.4byte	0x24
 3165 0004 0200     		.2byte	0x2
 3166 0006 00000000 		.4byte	.Ldebug_info0
 3167 000a 04       		.byte	0x4
 3168 000b 00       		.byte	0
 3169 000c 0000     		.2byte	0
 3170 000e 0000     		.2byte	0
 3171 0010 00000000 		.4byte	.LFB290
 3172 0014 5A000000 		.4byte	.LFE290-.LFB290
 3173 0018 00000000 		.4byte	.LFB291
 3174 001c 62000000 		.4byte	.LFE291-.LFB291
 3175 0020 00000000 		.4byte	0
 3176 0024 00000000 		.4byte	0
 3177              		.section	.debug_ranges,"",%progbits
 3178              	.Ldebug_ranges0:
 3179 0000 00000000 		.4byte	.LFB290
 3180 0004 5A000000 		.4byte	.LFE290
 3181 0008 00000000 		.4byte	.LFB291
 3182 000c 62000000 		.4byte	.LFE291
 3183 0010 00000000 		.4byte	0
 3184 0014 00000000 		.4byte	0
 3185              		.section	.debug_line,"",%progbits
 3186              	.Ldebug_line0:
 3187 0000 0F040000 		.section	.debug_str,"MS",%progbits,1
 3187      02007B03 
 3187      00000201 
 3187      FB0E0D00 
 3187      01010101 
 3188              	.LASF112:
ARM GAS  /tmp/cc8ZDNJg.s 			page 57


 3189 0000 7466756E 		.ascii	"tfunc_t\000"
 3189      635F7400 
 3190              	.LASF56:
 3191 0008 72656164 		.ascii	"ready_list_t\000"
 3191      795F6C69 
 3191      73745F74 
 3191      00
 3192              	.LASF4:
 3193 0015 73697A65 		.ascii	"size_t\000"
 3193      5F7400
 3194              	.LASF52:
 3195 001c 6E657874 		.ascii	"next\000"
 3195      00
 3196              	.LASF62:
 3197 0021 64656C74 		.ascii	"delta\000"
 3197      6100
 3198              	.LASF99:
 3199 0027 7264796D 		.ascii	"rdymsg\000"
 3199      736700
 3200              	.LASF115:
 3201 002e 66756E63 		.ascii	"funcp\000"
 3201      7000
 3202              	.LASF20:
 3203 0034 75696E74 		.ascii	"uint64_t\000"
 3203      36345F74 
 3203      00
 3204              	.LASF75:
 3205 003d 6B65726E 		.ascii	"kernel_stats\000"
 3205      656C5F73 
 3205      74617473 
 3205      00
 3206              	.LASF5:
 3207 004a 5F5F7569 		.ascii	"__uint8_t\000"
 3207      6E74385F 
 3207      7400
 3208              	.LASF55:
 3209 0054 70726576 		.ascii	"prev\000"
 3209      00
 3210              	.LASF86:
 3211 0059 706F7274 		.ascii	"port_intctx\000"
 3211      5F696E74 
 3211      63747800 
 3212              	.LASF152:
 3213 0065 70616765 		.ascii	"pages\000"
 3213      7300
 3214              	.LASF67:
 3215 006b 73797374 		.ascii	"system_debug_t\000"
 3215      656D5F64 
 3215      65627567 
 3215      5F7400
 3216              	.LASF147:
 3217 007a 70726F76 		.ascii	"provider\000"
 3217      69646572 
 3217      00
 3218              	.LASF116:
 3219 0083 74687265 		.ascii	"thread_descriptor_t\000"
 3219      61645F64 
ARM GAS  /tmp/cc8ZDNJg.s 			page 58


 3219      65736372 
 3219      6970746F 
 3219      725F7400 
 3220              	.LASF166:
 3221 0097 73656D5F 		.ascii	"sem_list\000"
 3221      6C697374 
 3221      00
 3222              	.LASF177:
 3223 00a0 706F7274 		.ascii	"port_lock\000"
 3223      5F6C6F63 
 3223      6B00
 3224              	.LASF85:
 3225 00aa 706F7274 		.ascii	"port_context\000"
 3225      5F636F6E 
 3225      74657874 
 3225      00
 3226              	.LASF90:
 3227 00b7 776F7273 		.ascii	"worst\000"
 3227      7400
 3228              	.LASF93:
 3229 00bd 74696D65 		.ascii	"time_measurement_t\000"
 3229      5F6D6561 
 3229      73757265 
 3229      6D656E74 
 3229      5F7400
 3230              	.LASF114:
 3231 00d0 77656E64 		.ascii	"wend\000"
 3231      00
 3232              	.LASF15:
 3233 00d5 6C6F6E67 		.ascii	"long long unsigned int\000"
 3233      206C6F6E 
 3233      6720756E 
 3233      7369676E 
 3233      65642069 
 3234              	.LASF100:
 3235 00ec 65786974 		.ascii	"exitcode\000"
 3235      636F6465 
 3235      00
 3236              	.LASF74:
 3237 00f5 6D61696E 		.ascii	"mainthread\000"
 3237      74687265 
 3237      616400
 3238              	.LASF103:
 3239 0100 73656E74 		.ascii	"sentmsg\000"
 3239      6D736700 
 3240              	.LASF64:
 3241 0108 76697274 		.ascii	"virtual_timers_list_t\000"
 3241      75616C5F 
 3241      74696D65 
 3241      72735F6C 
 3241      6973745F 
 3242              	.LASF79:
 3243 011e 49544D5F 		.ascii	"ITM_RxBuffer\000"
 3243      52784275 
 3243      66666572 
 3243      00
 3244              	.LASF174:
ARM GAS  /tmp/cc8ZDNJg.s 			page 59


 3245 012b 68656170 		.ascii	"heapp\000"
 3245      7000
 3246              	.LASF159:
 3247 0131 64796E5F 		.ascii	"dyn_element_t\000"
 3247      656C656D 
 3247      656E745F 
 3247      7400
 3248              	.LASF150:
 3249 013f 66726565 		.ascii	"free\000"
 3249      00
 3250              	.LASF22:
 3251 0144 72747469 		.ascii	"rttime_t\000"
 3251      6D655F74 
 3251      00
 3252              	.LASF1:
 3253 014d 6C6F6E67 		.ascii	"long long int\000"
 3253      206C6F6E 
 3253      6720696E 
 3253      7400
 3254              	.LASF3:
 3255 015b 7369676E 		.ascii	"signed char\000"
 3255      65642063 
 3255      68617200 
 3256              	.LASF119:
 3257 0167 73697A65 		.ascii	"size\000"
 3257      00
 3258              	.LASF187:
 3259 016c 474E5520 		.ascii	"GNU C11 6.3.1 20170620 (release) [ARM/embedded-6-br"
 3259      43313120 
 3259      362E332E 
 3259      31203230 
 3259      31373036 
 3260 019f 616E6368 		.ascii	"anch revision 249437] -mcpu=cortex-m4 -mfloat-abi=h"
 3260      20726576 
 3260      6973696F 
 3260      6E203234 
 3260      39343337 
 3261 01d2 61726420 		.ascii	"ard -mfpu=fpv4-sp-d16 -mno-thumb-interwork -mthumb "
 3261      2D6D6670 
 3261      753D6670 
 3261      76342D73 
 3261      702D6431 
 3262 0205 2D67202D 		.ascii	"-g -Os -fomit-frame-pointer -falign-functions=16 -f"
 3262      4F73202D 
 3262      666F6D69 
 3262      742D6672 
 3262      616D652D 
 3263 0238 66756E63 		.ascii	"function-sections -fdata-sections -fno-common -fsin"
 3263      74696F6E 
 3263      2D736563 
 3263      74696F6E 
 3263      73202D66 
 3264 026b 676C652D 		.ascii	"gle-precision-constant\000"
 3264      70726563 
 3264      6973696F 
 3264      6E2D636F 
 3264      6E737461 
ARM GAS  /tmp/cc8ZDNJg.s 			page 60


 3265              	.LASF192:
 3266 0282 62617365 		.ascii	"basePri\000"
 3266      50726900 
 3267              	.LASF73:
 3268 028a 76746C69 		.ascii	"vtlist\000"
 3268      737400
 3269              	.LASF176:
 3270 0291 706F7274 		.ascii	"port_unlock\000"
 3270      5F756E6C 
 3270      6F636B00 
 3271              	.LASF42:
 3272 029d 6D736771 		.ascii	"msgqueue\000"
 3272      75657565 
 3272      00
 3273              	.LASF38:
 3274 02a6 73746174 		.ascii	"state\000"
 3274      6500
 3275              	.LASF11:
 3276 02ac 6C6F6E67 		.ascii	"long int\000"
 3276      20696E74 
 3276      00
 3277              	.LASF173:
 3278 02b5 63685468 		.ascii	"chThdCreateFromHeap\000"
 3278      64437265 
 3278      61746546 
 3278      726F6D48 
 3278      65617000 
 3279              	.LASF24:
 3280 02c9 74737461 		.ascii	"tstate_t\000"
 3280      74655F74 
 3280      00
 3281              	.LASF63:
 3282 02d2 66756E63 		.ascii	"func\000"
 3282      00
 3283              	.LASF47:
 3284 02d7 73746174 		.ascii	"stats\000"
 3284      7300
 3285              	.LASF135:
 3286 02dd 63686465 		.ascii	"chdebug_t\000"
 3286      6275675F 
 3286      7400
 3287              	.LASF133:
 3288 02e7 6F66665F 		.ascii	"off_preempt\000"
 3288      70726565 
 3288      6D707400 
 3289              	.LASF149:
 3290 02f3 68656170 		.ascii	"heap_header_t\000"
 3290      5F686561 
 3290      6465725F 
 3290      7400
 3291              	.LASF12:
 3292 0301 5F5F7569 		.ascii	"__uint32_t\000"
 3292      6E743332 
 3292      5F7400
 3293              	.LASF83:
 3294 030c 72656761 		.ascii	"regarm_t\000"
 3294      726D5F74 
ARM GAS  /tmp/cc8ZDNJg.s 			page 61


 3294      00
 3295              	.LASF168:
 3296 0315 6D62785F 		.ascii	"mbx_list\000"
 3296      6C697374 
 3296      00
 3297              	.LASF68:
 3298 031e 63685F73 		.ascii	"ch_system_debug\000"
 3298      79737465 
 3298      6D5F6465 
 3298      62756700 
 3299              	.LASF41:
 3300 032e 77616974 		.ascii	"waiting\000"
 3300      696E6700 
 3301              	.LASF72:
 3302 0336 726C6973 		.ascii	"rlist\000"
 3302      7400
 3303              	.LASF118:
 3304 033c 7A65726F 		.ascii	"zero\000"
 3304      00
 3305              	.LASF137:
 3306 0341 6D757465 		.ascii	"mutex_t\000"
 3306      785F7400 
 3307              	.LASF156:
 3308 0349 616C6967 		.ascii	"align\000"
 3308      6E00
 3309              	.LASF77:
 3310 034f 73797369 		.ascii	"sysinterval_t\000"
 3310      6E746572 
 3310      76616C5F 
 3310      7400
 3311              	.LASF29:
 3312 035d 636E745F 		.ascii	"cnt_t\000"
 3312      7400
 3313              	.LASF0:
 3314 0363 756E7369 		.ascii	"unsigned int\000"
 3314      676E6564 
 3314      20696E74 
 3314      00
 3315              	.LASF17:
 3316 0370 75696E74 		.ascii	"uint16_t\000"
 3316      31365F74 
 3316      00
 3317              	.LASF80:
 3318 0379 53797374 		.ascii	"SystemCoreClock\000"
 3318      656D436F 
 3318      7265436C 
 3318      6F636B00 
 3319              	.LASF104:
 3320 0389 77747365 		.ascii	"wtsemp\000"
 3320      6D7000
 3321              	.LASF102:
 3322 0390 77747472 		.ascii	"wttrp\000"
 3322      7000
 3323              	.LASF136:
 3324 0396 63685F64 		.ascii	"ch_debug\000"
 3324      65627567 
 3324      00
ARM GAS  /tmp/cc8ZDNJg.s 			page 62


 3325              	.LASF171:
 3326 039f 63685F66 		.ascii	"ch_factory\000"
 3326      6163746F 
 3326      727900
 3327              	.LASF157:
 3328 03aa 6D656D6F 		.ascii	"memory_pool_t\000"
 3328      72795F70 
 3328      6F6F6C5F 
 3328      7400
 3329              	.LASF32:
 3330 03b8 71756575 		.ascii	"queue\000"
 3330      6500
 3331              	.LASF46:
 3332 03be 6D706F6F 		.ascii	"mpool\000"
 3332      6C00
 3333              	.LASF132:
 3334 03c4 6F66665F 		.ascii	"off_refs\000"
 3334      72656673 
 3334      00
 3335              	.LASF98:
 3336 03cd 6B65726E 		.ascii	"kernel_stats_t\000"
 3336      656C5F73 
 3336      74617473 
 3336      5F7400
 3337              	.LASF50:
 3338 03dc 63685F74 		.ascii	"ch_thread\000"
 3338      68726561 
 3338      6400
 3339              	.LASF27:
 3340 03e6 6D73675F 		.ascii	"msg_t\000"
 3340      7400
 3341              	.LASF91:
 3342 03ec 6C617374 		.ascii	"last\000"
 3342      00
 3343              	.LASF30:
 3344 03f1 75636E74 		.ascii	"ucnt_t\000"
 3344      5F7400
 3345              	.LASF43:
 3346 03f8 6570656E 		.ascii	"epending\000"
 3346      64696E67 
 3346      00
 3347              	.LASF36:
 3348 0401 6E616D65 		.ascii	"name\000"
 3348      00
 3349              	.LASF145:
 3350 0406 6D656D6F 		.ascii	"memory_heap_t\000"
 3350      72795F68 
 3350      6561705F 
 3350      7400
 3351              	.LASF125:
 3352 0414 6F66665F 		.ascii	"off_ctx\000"
 3352      63747800 
 3353              	.LASF23:
 3354 041c 746D6F64 		.ascii	"tmode_t\000"
 3354      655F7400 
 3355              	.LASF97:
 3356 0424 6D5F6372 		.ascii	"m_crit_isr\000"
ARM GAS  /tmp/cc8ZDNJg.s 			page 63


 3356      69745F69 
 3356      737200
 3357              	.LASF57:
 3358 042f 63685F72 		.ascii	"ch_ready_list\000"
 3358      65616479 
 3358      5F6C6973 
 3358      7400
 3359              	.LASF28:
 3360 043d 6576656E 		.ascii	"eventmask_t\000"
 3360      746D6173 
 3360      6B5F7400 
 3361              	.LASF81:
 3362 0449 41484250 		.ascii	"AHBPrescTable\000"
 3362      72657363 
 3362      5461626C 
 3362      6500
 3363              	.LASF142:
 3364 0457 656E646D 		.ascii	"endmem\000"
 3364      656D00
 3365              	.LASF10:
 3366 045e 5F5F696E 		.ascii	"__int32_t\000"
 3366      7433325F 
 3366      7400
 3367              	.LASF84:
 3368 0468 73746B61 		.ascii	"stkalign_t\000"
 3368      6C69676E 
 3368      5F7400
 3369              	.LASF34:
 3370 0473 6E657765 		.ascii	"newer\000"
 3370      7200
 3371              	.LASF45:
 3372 0479 7265616C 		.ascii	"realprio\000"
 3372      7072696F 
 3372      00
 3373              	.LASF120:
 3374 0482 76657273 		.ascii	"version\000"
 3374      696F6E00 
 3375              	.LASF181:
 3376 048a 5F737461 		.ascii	"_stats_stop_measure_crit_thd\000"
 3376      74735F73 
 3376      746F705F 
 3376      6D656173 
 3376      7572655F 
 3377              	.LASF78:
 3378 04a7 73697A65 		.ascii	"sizetype\000"
 3378      74797065 
 3378      00
 3379              	.LASF48:
 3380 04b0 74687265 		.ascii	"thread_reference_t\000"
 3380      61645F72 
 3380      65666572 
 3380      656E6365 
 3380      5F7400
 3381              	.LASF65:
 3382 04c3 63685F76 		.ascii	"ch_virtual_timers_list\000"
 3382      69727475 
 3382      616C5F74 
ARM GAS  /tmp/cc8ZDNJg.s 			page 64


 3382      696D6572 
 3382      735F6C69 
 3383              	.LASF2:
 3384 04da 6C6F6E67 		.ascii	"long double\000"
 3384      20646F75 
 3384      626C6500 
 3385              	.LASF160:
 3386 04e6 63685F64 		.ascii	"ch_dyn_list\000"
 3386      796E5F6C 
 3386      69737400 
 3387              	.LASF180:
 3388 04f2 5F737461 		.ascii	"_stats_start_measure_crit_thd\000"
 3388      74735F73 
 3388      74617274 
 3388      5F6D6561 
 3388      73757265 
 3389              	.LASF126:
 3390 0510 6F66665F 		.ascii	"off_newer\000"
 3390      6E657765 
 3390      7200
 3391              	.LASF82:
 3392 051a 41504250 		.ascii	"APBPrescTable\000"
 3392      72657363 
 3392      5461626C 
 3392      6500
 3393              	.LASF172:
 3394 0528 63685468 		.ascii	"chThdCreateFromMemoryPool\000"
 3394      64437265 
 3394      61746546 
 3394      726F6D4D 
 3394      656D6F72 
 3395              	.LASF113:
 3396 0542 77626173 		.ascii	"wbase\000"
 3396      6500
 3397              	.LASF88:
 3398 0548 746D5F63 		.ascii	"tm_calibration_t\000"
 3398      616C6962 
 3398      72617469 
 3398      6F6E5F74 
 3398      00
 3399              	.LASF140:
 3400 0559 6D656D67 		.ascii	"memgetfunc2_t\000"
 3400      65746675 
 3400      6E63325F 
 3400      7400
 3401              	.LASF33:
 3402 0567 7072696F 		.ascii	"prio\000"
 3402      00
 3403              	.LASF167:
 3404 056c 73656D5F 		.ascii	"sem_pool\000"
 3404      706F6F6C 
 3404      00
 3405              	.LASF58:
 3406 0575 63757272 		.ascii	"current\000"
 3406      656E7400 
 3407              	.LASF14:
 3408 057d 5F5F7569 		.ascii	"__uint64_t\000"
ARM GAS  /tmp/cc8ZDNJg.s 			page 65


 3408      6E743634 
 3408      5F7400
 3409              	.LASF143:
 3410 0588 6D656D63 		.ascii	"memcore_t\000"
 3410      6F72655F 
 3410      7400
 3411              	.LASF92:
 3412 0592 63756D75 		.ascii	"cumulative\000"
 3412      6C617469 
 3412      766500
 3413              	.LASF151:
 3414 059d 75736564 		.ascii	"used\000"
 3414      00
 3415              	.LASF25:
 3416 05a2 74726566 		.ascii	"trefs_t\000"
 3416      735F7400 
 3417              	.LASF123:
 3418 05aa 74687265 		.ascii	"threadsize\000"
 3418      61647369 
 3418      7A6500
 3419              	.LASF40:
 3420 05b5 72656673 		.ascii	"refs\000"
 3420      00
 3421              	.LASF60:
 3422 05ba 76697274 		.ascii	"virtual_timer_t\000"
 3422      75616C5F 
 3422      74696D65 
 3422      725F7400 
 3423              	.LASF158:
 3424 05ca 63685F64 		.ascii	"ch_dyn_element\000"
 3424      796E5F65 
 3424      6C656D65 
 3424      6E7400
 3425              	.LASF161:
 3426 05d9 64796E5F 		.ascii	"dyn_list_t\000"
 3426      6C697374 
 3426      5F7400
 3427              	.LASF26:
 3428 05e4 74707269 		.ascii	"tprio_t\000"
 3428      6F5F7400 
 3429              	.LASF165:
 3430 05ec 6275665F 		.ascii	"buf_list\000"
 3430      6C697374 
 3430      00
 3431              	.LASF95:
 3432 05f5 6E5F6374 		.ascii	"n_ctxswc\000"
 3432      78737763 
 3432      00
 3433              	.LASF138:
 3434 05fe 5F426F6F 		.ascii	"_Bool\000"
 3434      6C00
 3435              	.LASF18:
 3436 0604 696E7433 		.ascii	"int32_t\000"
 3436      325F7400 
 3437              	.LASF6:
 3438 060c 756E7369 		.ascii	"unsigned char\000"
 3438      676E6564 
ARM GAS  /tmp/cc8ZDNJg.s 			page 66


 3438      20636861 
 3438      7200
 3439              	.LASF124:
 3440 061a 6F66665F 		.ascii	"off_prio\000"
 3440      7072696F 
 3440      00
 3441              	.LASF129:
 3442 0623 6F66665F 		.ascii	"off_stklimit\000"
 3442      73746B6C 
 3442      696D6974 
 3442      00
 3443              	.LASF7:
 3444 0630 73686F72 		.ascii	"short int\000"
 3444      7420696E 
 3444      7400
 3445              	.LASF66:
 3446 063a 6C617374 		.ascii	"lasttime\000"
 3446      74696D65 
 3446      00
 3447              	.LASF190:
 3448 0643 68656170 		.ascii	"heap_header\000"
 3448      5F686561 
 3448      64657200 
 3449              	.LASF106:
 3450 064f 65776D61 		.ascii	"ewmask\000"
 3450      736B00
 3451              	.LASF71:
 3452 0656 63685F73 		.ascii	"ch_system\000"
 3452      79737465 
 3452      6D00
 3453              	.LASF191:
 3454 0660 5F5F6675 		.ascii	"__func__\000"
 3454      6E635F5F 
 3454      00
 3455              	.LASF188:
 3456 0669 2E2E2F2E 		.ascii	"../../modules/ChibiOS/os/rt/src/chdynamic.c\000"
 3456      2E2F6D6F 
 3456      64756C65 
 3456      732F4368 
 3456      6962694F 
 3457              	.LASF175:
 3458 0695 63685379 		.ascii	"chSysLock\000"
 3458      734C6F63 
 3458      6B00
 3459              	.LASF183:
 3460 069f 5F746872 		.ascii	"_thread_memfill\000"
 3460      6561645F 
 3460      6D656D66 
 3460      696C6C00 
 3461              	.LASF164:
 3462 06af 6F626A5F 		.ascii	"obj_pool\000"
 3462      706F6F6C 
 3462      00
 3463              	.LASF37:
 3464 06b8 77616261 		.ascii	"wabase\000"
 3464      736500
 3465              	.LASF61:
ARM GAS  /tmp/cc8ZDNJg.s 			page 67


 3466 06bf 63685F76 		.ascii	"ch_virtual_timer\000"
 3466      69727475 
 3466      616C5F74 
 3466      696D6572 
 3466      00
 3467              	.LASF107:
 3468 06d0 63685F73 		.ascii	"ch_semaphore\000"
 3468      656D6170 
 3468      686F7265 
 3468      00
 3469              	.LASF134:
 3470 06dd 6F66665F 		.ascii	"off_time\000"
 3470      74696D65 
 3470      00
 3471              	.LASF111:
 3472 06e6 63685F69 		.ascii	"ch_idle_thread_wa\000"
 3472      646C655F 
 3472      74687265 
 3472      61645F77 
 3472      6100
 3473              	.LASF122:
 3474 06f8 74696D65 		.ascii	"timesize\000"
 3474      73697A65 
 3474      00
 3475              	.LASF189:
 3476 0701 2F686F6D 		.ascii	"/home/haggisaerospace/ardupilot/ardupilot/build/Cub"
 3476      652F6861 
 3476      67676973 
 3476      6165726F 
 3476      73706163 
 3477 0734 65426C61 		.ascii	"eBlack\000"
 3477      636B00
 3478              	.LASF105:
 3479 073b 77746D74 		.ascii	"wtmtxp\000"
 3479      787000
 3480              	.LASF51:
 3481 0742 63685F74 		.ascii	"ch_threads_list\000"
 3481      68726561 
 3481      64735F6C 
 3481      69737400 
 3482              	.LASF109:
 3483 0752 6F776E65 		.ascii	"owner\000"
 3483      7200
 3484              	.LASF153:
 3485 0758 68656170 		.ascii	"heap\000"
 3485      00
 3486              	.LASF13:
 3487 075d 6C6F6E67 		.ascii	"long unsigned int\000"
 3487      20756E73 
 3487      69676E65 
 3487      6420696E 
 3487      7400
 3488              	.LASF184:
 3489 076f 63685468 		.ascii	"chThdCreateSuspendedI\000"
 3489      64437265 
 3489      61746553 
 3489      75737065 
ARM GAS  /tmp/cc8ZDNJg.s 			page 68


 3489      6E646564 
 3490              	.LASF110:
 3491 0785 63686172 		.ascii	"char\000"
 3491      00
 3492              	.LASF35:
 3493 078a 6F6C6465 		.ascii	"older\000"
 3493      7200
 3494              	.LASF163:
 3495 0790 6F626A5F 		.ascii	"obj_list\000"
 3495      6C697374 
 3495      00
 3496              	.LASF8:
 3497 0799 5F5F7569 		.ascii	"__uint16_t\000"
 3497      6E743136 
 3497      5F7400
 3498              	.LASF31:
 3499 07a4 74687265 		.ascii	"thread_t\000"
 3499      61645F74 
 3499      00
 3500              	.LASF89:
 3501 07ad 62657374 		.ascii	"best\000"
 3501      00
 3502              	.LASF144:
 3503 07b2 63685F6D 		.ascii	"ch_memcore\000"
 3503      656D636F 
 3503      726500
 3504              	.LASF76:
 3505 07bd 73797374 		.ascii	"systime_t\000"
 3505      696D655F 
 3505      7400
 3506              	.LASF59:
 3507 07c7 76746675 		.ascii	"vtfunc_t\000"
 3507      6E635F74 
 3507      00
 3508              	.LASF179:
 3509 07d0 5F5F7365 		.ascii	"__set_BASEPRI\000"
 3509      745F4241 
 3509      53455052 
 3509      4900
 3510              	.LASF69:
 3511 07de 70616E69 		.ascii	"panic_msg\000"
 3511      635F6D73 
 3511      6700
 3512              	.LASF87:
 3513 07e8 6F666673 		.ascii	"offset\000"
 3513      657400
 3514              	.LASF186:
 3515 07ef 63684865 		.ascii	"chHeapAllocAligned\000"
 3515      6170416C 
 3515      6C6F6341 
 3515      6C69676E 
 3515      656400
 3516              	.LASF108:
 3517 0802 63685F6D 		.ascii	"ch_mutex\000"
 3517      75746578 
 3517      00
 3518              	.LASF127:
ARM GAS  /tmp/cc8ZDNJg.s 			page 69


 3519 080b 6F66665F 		.ascii	"off_older\000"
 3519      6F6C6465 
 3519      7200
 3520              	.LASF9:
 3521 0815 73686F72 		.ascii	"short unsigned int\000"
 3521      7420756E 
 3521      7369676E 
 3521      65642069 
 3521      6E7400
 3522              	.LASF70:
 3523 0828 63685F73 		.ascii	"ch_system_t\000"
 3523      79737465 
 3523      6D5F7400 
 3524              	.LASF117:
 3525 0834 6964656E 		.ascii	"identifier\000"
 3525      74696669 
 3525      657200
 3526              	.LASF21:
 3527 083f 7274636E 		.ascii	"rtcnt_t\000"
 3527      745F7400 
 3528              	.LASF139:
 3529 0847 6D656D67 		.ascii	"memgetfunc_t\000"
 3529      65746675 
 3529      6E635F74 
 3529      00
 3530              	.LASF185:
 3531 0854 63685363 		.ascii	"chSchWakeupS\000"
 3531      6857616B 
 3531      65757053 
 3531      00
 3532              	.LASF155:
 3533 0861 6F626A65 		.ascii	"object_size\000"
 3533      63745F73 
 3533      697A6500 
 3534              	.LASF19:
 3535 086d 75696E74 		.ascii	"uint32_t\000"
 3535      33325F74 
 3535      00
 3536              	.LASF121:
 3537 0876 70747273 		.ascii	"ptrsize\000"
 3537      697A6500 
 3538              	.LASF162:
 3539 087e 63685F6F 		.ascii	"ch_objects_factory\000"
 3539      626A6563 
 3539      74735F66 
 3539      6163746F 
 3539      727900
 3540              	.LASF53:
 3541 0891 74687265 		.ascii	"threads_queue_t\000"
 3541      6164735F 
 3541      71756575 
 3541      655F7400 
 3542              	.LASF154:
 3543 08a1 706F6F6C 		.ascii	"pool_header\000"
 3543      5F686561 
 3543      64657200 
 3544              	.LASF128:
ARM GAS  /tmp/cc8ZDNJg.s 			page 70


 3545 08ad 6F66665F 		.ascii	"off_name\000"
 3545      6E616D65 
 3545      00
 3546              	.LASF16:
 3547 08b6 75696E74 		.ascii	"uint8_t\000"
 3547      385F7400 
 3548              	.LASF182:
 3549 08be 6368506F 		.ascii	"chPoolAlloc\000"
 3549      6F6C416C 
 3549      6C6F6300 
 3550              	.LASF39:
 3551 08ca 666C6167 		.ascii	"flags\000"
 3551      7300
 3552              	.LASF169:
 3553 08d0 6669666F 		.ascii	"fifo_list\000"
 3553      5F6C6973 
 3553      7400
 3554              	.LASF101:
 3555 08da 77746F62 		.ascii	"wtobjp\000"
 3555      6A7000
 3556              	.LASF49:
 3557 08e1 74687265 		.ascii	"threads_list_t\000"
 3557      6164735F 
 3557      6C697374 
 3557      5F7400
 3558              	.LASF130:
 3559 08f0 6F66665F 		.ascii	"off_state\000"
 3559      73746174 
 3559      6500
 3560              	.LASF178:
 3561 08fa 63685379 		.ascii	"chSysUnlock\000"
 3561      73556E6C 
 3561      6F636B00 
 3562              	.LASF170:
 3563 0906 6F626A65 		.ascii	"objects_factory_t\000"
 3563      6374735F 
 3563      66616374 
 3563      6F72795F 
 3563      7400
 3564              	.LASF131:
 3565 0918 6F66665F 		.ascii	"off_flags\000"
 3565      666C6167 
 3565      7300
 3566              	.LASF44:
 3567 0922 6D74786C 		.ascii	"mtxlist\000"
 3567      69737400 
 3568              	.LASF96:
 3569 092a 6D5F6372 		.ascii	"m_crit_thd\000"
 3569      69745F74 
 3569      686400
 3570              	.LASF148:
 3571 0935 68656164 		.ascii	"header\000"
 3571      657200
 3572              	.LASF94:
 3573 093c 6E5F6972 		.ascii	"n_irq\000"
 3573      7100
 3574              	.LASF141:
ARM GAS  /tmp/cc8ZDNJg.s 			page 71


 3575 0942 6E657874 		.ascii	"nextmem\000"
 3575      6D656D00 
 3576              	.LASF54:
 3577 094a 63685F74 		.ascii	"ch_threads_queue\000"
 3577      68726561 
 3577      64735F71 
 3577      75657565 
 3577      00
 3578              	.LASF146:
 3579 095b 6D656D6F 		.ascii	"memory_heap\000"
 3579      72795F68 
 3579      65617000 
 3580              		.ident	"GCC: (GNU Tools for ARM Embedded Processors 6-2017-q2-update) 6.3.1 20170620 (release) [AR
ARM GAS  /tmp/cc8ZDNJg.s 			page 72


DEFINED SYMBOLS
                            *ABS*:0000000000000000 chdynamic.c
     /tmp/cc8ZDNJg.s:18     .text.chThdCreateFromHeap:0000000000000000 $t
     /tmp/cc8ZDNJg.s:25     .text.chThdCreateFromHeap:0000000000000000 chThdCreateFromHeap
     /tmp/cc8ZDNJg.s:145    .text.chThdCreateFromMemoryPool:0000000000000000 $t
     /tmp/cc8ZDNJg.s:152    .text.chThdCreateFromMemoryPool:0000000000000000 chThdCreateFromMemoryPool
                     .debug_frame:0000000000000010 $d

UNDEFINED SYMBOLS
chHeapAllocAligned
_thread_memfill
_stats_start_measure_crit_thd
chThdCreateSuspendedI
chSchWakeupS
_stats_stop_measure_crit_thd
chPoolAlloc
