ARM GAS  /tmp/ccNt54pG.s 			page 1


   1              		.cpu cortex-m4
   2              		.eabi_attribute 27, 1
   3              		.eabi_attribute 28, 1
   4              		.eabi_attribute 20, 1
   5              		.eabi_attribute 21, 1
   6              		.eabi_attribute 23, 3
   7              		.eabi_attribute 24, 1
   8              		.eabi_attribute 25, 1
   9              		.eabi_attribute 26, 1
  10              		.eabi_attribute 30, 4
  11              		.eabi_attribute 34, 1
  12              		.eabi_attribute 18, 4
  13              		.file	"chfactory.c"
  14              		.text
  15              	.Ltext0:
  16              		.cfi_sections	.debug_frame
  17              		.section	.text.chCoreAllocAlignedI,"ax",%progbits
  18              		.align	1
  19              		.syntax unified
  20              		.thumb
  21              		.thumb_func
  22              		.fpu fpv4-sp-d16
  23              		.type	chCoreAllocAlignedI, %function
  24              	chCoreAllocAlignedI:
  25              	.LFB250:
  26              		.file 1 "../../modules/ChibiOS/os/oslib/include/chmemcore.h"
  27              		.loc 1 135 0
  28              		.cfi_startproc
  29              		@ args = 0, pretend = 0, frame = 0
  30              		@ frame_needed = 0, uses_anonymous_args = 0
  31              		@ link register save eliminated.
  32              	.LVL0:
  33              		.loc 1 137 0
  34 0000 0022     		movs	r2, #0
  35 0002 FFF7FEBF 		b	chCoreAllocAlignedWithOffsetI
  36              	.LVL1:
  37              		.cfi_endproc
  38              	.LFE250:
  39              		.size	chCoreAllocAlignedI, .-chCoreAllocAlignedI
  40              		.section	.text.dyn_list_find,"ax",%progbits
  41              		.align	1
  42              		.syntax unified
  43              		.thumb
  44              		.thumb_func
  45              		.fpu fpv4-sp-d16
  46              		.type	dyn_list_find, %function
  47              	dyn_list_find:
  48              	.LFB291:
  49              		.file 2 "../../modules/ChibiOS/os/oslib/src/chfactory.c"
  50              		.loc 2 91 0
  51              		.cfi_startproc
  52              		@ args = 0, pretend = 0, frame = 0
  53              		@ frame_needed = 0, uses_anonymous_args = 0
  54              	.LVL2:
  55 0000 70B5     		push	{r4, r5, r6, lr}
  56              		.cfi_def_cfa_offset 16
  57              		.cfi_offset 4, -16
ARM GAS  /tmp/ccNt54pG.s 			page 2


  58              		.cfi_offset 5, -12
  59              		.cfi_offset 6, -8
  60              		.cfi_offset 14, -4
  61              		.loc 2 92 0
  62 0002 0C68     		ldr	r4, [r1]
  63              	.LVL3:
  64              		.loc 2 91 0
  65 0004 0646     		mov	r6, r0
  66 0006 0D46     		mov	r5, r1
  67              	.LVL4:
  68              	.L3:
  69              		.loc 2 94 0
  70 0008 AC42     		cmp	r4, r5
  71 000a 02D1     		bne	.L5
  72              		.loc 2 101 0
  73 000c 0024     		movs	r4, #0
  74              	.LVL5:
  75              	.L2:
  76              		.loc 2 102 0
  77 000e 2046     		mov	r0, r4
  78 0010 70BD     		pop	{r4, r5, r6, pc}
  79              	.LVL6:
  80              	.L5:
  81              		.loc 2 95 0
  82 0012 0822     		movs	r2, #8
  83 0014 3146     		mov	r1, r6
  84 0016 A018     		adds	r0, r4, r2
  85 0018 FFF7FEFF 		bl	strncmp
  86              	.LVL7:
  87 001c 0028     		cmp	r0, #0
  88 001e F6D0     		beq	.L2
  89              		.loc 2 98 0
  90 0020 2468     		ldr	r4, [r4]
  91              	.LVL8:
  92 0022 F1E7     		b	.L3
  93              		.cfi_endproc
  94              	.LFE291:
  95              		.size	dyn_list_find, .-dyn_list_find
  96              		.section	.text.dyn_find_object,"ax",%progbits
  97              		.align	1
  98              		.syntax unified
  99              		.thumb
 100              		.thumb_func
 101              		.fpu fpv4-sp-d16
 102              		.type	dyn_find_object, %function
 103              	dyn_find_object:
 104              	.LFB297:
 105              		.loc 2 221 0
 106              		.cfi_startproc
 107              		@ args = 0, pretend = 0, frame = 0
 108              		@ frame_needed = 0, uses_anonymous_args = 0
 109              	.LVL9:
 110 0000 08B5     		push	{r3, lr}
 111              		.cfi_def_cfa_offset 8
 112              		.cfi_offset 3, -8
 113              		.cfi_offset 14, -4
 114              		.loc 2 227 0
ARM GAS  /tmp/ccNt54pG.s 			page 3


 115 0002 FFF7FEFF 		bl	dyn_list_find
 116              	.LVL10:
 117              		.loc 2 228 0
 118 0006 10B1     		cbz	r0, .L9
 119              		.loc 2 230 0
 120 0008 4368     		ldr	r3, [r0, #4]
 121 000a 0133     		adds	r3, r3, #1
 122 000c 4360     		str	r3, [r0, #4]
 123              	.L9:
 124              		.loc 2 234 0
 125 000e 08BD     		pop	{r3, pc}
 126              		.cfi_endproc
 127              	.LFE297:
 128              		.size	dyn_find_object, .-dyn_find_object
 129              		.section	.text.dyn_create_object_heap,"ax",%progbits
 130              		.align	1
 131              		.syntax unified
 132              		.thumb
 133              		.thumb_func
 134              		.fpu fpv4-sp-d16
 135              		.type	dyn_create_object_heap, %function
 136              	dyn_create_object_heap:
 137              	.LFB293:
 138              		.loc 2 126 0
 139              		.cfi_startproc
 140              		@ args = 0, pretend = 0, frame = 0
 141              		@ frame_needed = 0, uses_anonymous_args = 0
 142              	.LVL11:
 143 0000 70B5     		push	{r4, r5, r6, lr}
 144              		.cfi_def_cfa_offset 16
 145              		.cfi_offset 4, -16
 146              		.cfi_offset 5, -12
 147              		.cfi_offset 6, -8
 148              		.cfi_offset 14, -4
 149              		.loc 2 126 0
 150 0002 0646     		mov	r6, r0
 151 0004 0D46     		mov	r5, r1
 152 0006 1446     		mov	r4, r2
 153              		.loc 2 132 0
 154 0008 FFF7FEFF 		bl	dyn_list_find
 155              	.LVL12:
 156              		.loc 2 133 0
 157 000c 88B9     		cbnz	r0, .L16
 158              	.LVL13:
 159              	.LBB16:
 160              	.LBB17:
 161              	.LBB18:
 162              	.LBB19:
 163              		.file 3 "../../modules/ChibiOS/os/oslib/include/chmemheaps.h"
 164              		.loc 3 156 0
 165 000e 2146     		mov	r1, r4
 166 0010 0822     		movs	r2, #8
 167 0012 FFF7FEFF 		bl	chHeapAllocAligned
 168              	.LVL14:
 169              	.LBE19:
 170              	.LBE18:
 171              		.loc 2 141 0
ARM GAS  /tmp/ccNt54pG.s 			page 4


 172 0016 0446     		mov	r4, r0
 173              	.LVL15:
 174 0018 48B1     		cbz	r0, .L17
 175              		.loc 2 146 0
 176 001a 0822     		movs	r2, #8
 177 001c 3146     		mov	r1, r6
 178 001e 1044     		add	r0, r0, r2
 179 0020 FFF7FEFF 		bl	strncpy
 180              	.LVL16:
 181              		.loc 2 148 0
 182 0024 0123     		movs	r3, #1
 183 0026 6360     		str	r3, [r4, #4]
 184              		.loc 2 149 0
 185 0028 2B68     		ldr	r3, [r5]
 186 002a 2360     		str	r3, [r4]
 187              		.loc 2 152 0
 188 002c 2C60     		str	r4, [r5]
 189              	.L17:
 190              		.loc 2 142 0
 191 002e 2046     		mov	r0, r4
 192              	.LBE17:
 193              	.LBE16:
 194              		.loc 2 155 0
 195 0030 70BD     		pop	{r4, r5, r6, pc}
 196              	.LVL17:
 197              	.L16:
 198              		.loc 2 134 0
 199 0032 0020     		movs	r0, #0
 200              	.LVL18:
 201 0034 70BD     		pop	{r4, r5, r6, pc}
 202              		.cfi_endproc
 203              	.LFE293:
 204              		.size	dyn_create_object_heap, .-dyn_create_object_heap
 205              		.section	.text.dyn_release_object_heap,"ax",%progbits
 206              		.align	1
 207              		.syntax unified
 208              		.thumb
 209              		.thumb_func
 210              		.fpu fpv4-sp-d16
 211              		.type	dyn_release_object_heap, %function
 212              	dyn_release_object_heap:
 213              	.LFB294:
 214              		.loc 2 158 0
 215              		.cfi_startproc
 216              		@ args = 0, pretend = 0, frame = 0
 217              		@ frame_needed = 0, uses_anonymous_args = 0
 218              		@ link register save eliminated.
 219              	.LVL19:
 220              		.loc 2 164 0
 221 0000 4368     		ldr	r3, [r0, #4]
 222 0002 013B     		subs	r3, r3, #1
 223 0004 4360     		str	r3, [r0, #4]
 224              		.loc 2 165 0
 225 0006 6BB9     		cbnz	r3, .L25
 226 0008 0A46     		mov	r2, r1
 227              	.L21:
 228              	.LVL20:
ARM GAS  /tmp/ccNt54pG.s 			page 5


 229              	.LBB24:
 230              	.LBB25:
 231              	.LBB26:
 232              	.LBB27:
 233              		.loc 2 109 0
 234 000a 1368     		ldr	r3, [r2]
 235 000c 9942     		cmp	r1, r3
 236 000e 01D1     		bne	.L23
 237              		.loc 2 120 0
 238 0010 0020     		movs	r0, #0
 239              	.LVL21:
 240 0012 03E0     		b	.L22
 241              	.LVL22:
 242              	.L23:
 243              		.loc 2 110 0
 244 0014 9842     		cmp	r0, r3
 245 0016 03D1     		bne	.L24
 246              		.loc 2 112 0
 247 0018 0368     		ldr	r3, [r0]
 248 001a 1360     		str	r3, [r2]
 249              	.LVL23:
 250              	.L22:
 251              	.LBE27:
 252              	.LBE26:
 253              		.loc 2 167 0
 254 001c FFF7FEBF 		b	chHeapFree
 255              	.LVL24:
 256              	.L24:
 257              	.LBB29:
 258              	.LBB28:
 259              		.loc 2 110 0
 260 0020 1A46     		mov	r2, r3
 261              	.LVL25:
 262 0022 F2E7     		b	.L21
 263              	.L25:
 264 0024 7047     		bx	lr
 265              	.LBE28:
 266              	.LBE29:
 267              	.LBE25:
 268              	.LBE24:
 269              		.cfi_endproc
 270              	.LFE294:
 271              		.size	dyn_release_object_heap, .-dyn_release_object_heap
 272              		.section	.text._factory_init,"ax",%progbits
 273              		.align	1
 274              		.global	_factory_init
 275              		.syntax unified
 276              		.thumb
 277              		.thumb_func
 278              		.fpu fpv4-sp-d16
 279              		.type	_factory_init, %function
 280              	_factory_init:
 281              	.LFB298:
 282              		.loc 2 245 0
 283              		.cfi_startproc
 284              		@ args = 0, pretend = 0, frame = 0
 285              		@ frame_needed = 0, uses_anonymous_args = 0
ARM GAS  /tmp/ccNt54pG.s 			page 6


 286 0000 38B5     		push	{r3, r4, r5, lr}
 287              		.cfi_def_cfa_offset 16
 288              		.cfi_offset 3, -16
 289              		.cfi_offset 4, -12
 290              		.cfi_offset 5, -8
 291              		.cfi_offset 14, -4
 292              		.loc 2 248 0
 293 0002 114C     		ldr	r4, .L27
 294              	.LBB44:
 295              	.LBB45:
 296              		.file 4 "../../modules/ChibiOS/os/oslib/include/chmempools.h"
 297              		.loc 4 193 0
 298 0004 114D     		ldr	r5, .L27+4
 299              	.LBE45:
 300              	.LBE44:
 301              		.loc 2 248 0
 302 0006 2046     		mov	r0, r4
 303 0008 FFF7FEFF 		bl	chMtxObjectInit
 304              	.LVL26:
 305              	.LBB49:
 306              	.LBB46:
 307              		.loc 4 193 0
 308 000c 1421     		movs	r1, #20
 309              	.LBE46:
 310              	.LBE49:
 311              	.LBB50:
 312              	.LBB51:
 313              		.loc 2 88 0
 314 000e 04F11003 		add	r3, r4, #16
 315              	.LBE51:
 316              	.LBE50:
 317              	.LBB53:
 318              	.LBB47:
 319              		.loc 4 193 0
 320 0012 6018     		adds	r0, r4, r1
 321              	.LBE47:
 322              	.LBE53:
 323              	.LBB54:
 324              	.LBB52:
 325              		.loc 2 88 0
 326 0014 2361     		str	r3, [r4, #16]
 327              	.LVL27:
 328              	.LBE52:
 329              	.LBE54:
 330              	.LBB55:
 331              	.LBB48:
 332              		.loc 4 193 0
 333 0016 0422     		movs	r2, #4
 334 0018 2B46     		mov	r3, r5
 335 001a FFF7FEFF 		bl	chPoolObjectInitAligned
 336              	.LVL28:
 337              	.LBE48:
 338              	.LBE55:
 339              	.LBB56:
 340              	.LBB57:
 341              		.loc 2 88 0
 342 001e 04F12403 		add	r3, r4, #36
ARM GAS  /tmp/ccNt54pG.s 			page 7


 343 0022 6362     		str	r3, [r4, #36]
 344              	.LVL29:
 345              	.LBE57:
 346              	.LBE56:
 347              	.LBB58:
 348              	.LBB59:
 349 0024 04F12803 		add	r3, r4, #40
 350 0028 A362     		str	r3, [r4, #40]
 351              	.LVL30:
 352              	.LBE59:
 353              	.LBE58:
 354              	.LBB60:
 355              	.LBB61:
 356              		.loc 4 193 0
 357 002a 0422     		movs	r2, #4
 358 002c 2B46     		mov	r3, r5
 359 002e 1C21     		movs	r1, #28
 360 0030 04F12C00 		add	r0, r4, #44
 361 0034 FFF7FEFF 		bl	chPoolObjectInitAligned
 362              	.LVL31:
 363              	.LBE61:
 364              	.LBE60:
 365              	.LBB62:
 366              	.LBB63:
 367              		.loc 2 88 0
 368 0038 04F13C03 		add	r3, r4, #60
 369 003c E363     		str	r3, [r4, #60]
 370              	.LVL32:
 371              	.LBE63:
 372              	.LBE62:
 373              	.LBB64:
 374              	.LBB65:
 375 003e 04F14003 		add	r3, r4, #64
 376 0042 2364     		str	r3, [r4, #64]
 377              	.LVL33:
 378 0044 38BD     		pop	{r3, r4, r5, pc}
 379              	.L28:
 380 0046 00BF     		.align	2
 381              	.L27:
 382 0048 00000000 		.word	.LANCHOR0
 383 004c 00000000 		.word	chCoreAllocAlignedI
 384              	.LBE65:
 385              	.LBE64:
 386              		.cfi_endproc
 387              	.LFE298:
 388              		.size	_factory_init, .-_factory_init
 389              		.section	.text.chFactoryRegisterObject,"ax",%progbits
 390              		.align	1
 391              		.global	chFactoryRegisterObject
 392              		.syntax unified
 393              		.thumb
 394              		.thumb_func
 395              		.fpu fpv4-sp-d16
 396              		.type	chFactoryRegisterObject, %function
 397              	chFactoryRegisterObject:
 398              	.LFB299:
 399              		.loc 2 295 0
ARM GAS  /tmp/ccNt54pG.s 			page 8


 400              		.cfi_startproc
 401              		@ args = 0, pretend = 0, frame = 0
 402              		@ frame_needed = 0, uses_anonymous_args = 0
 403              	.LVL34:
 404 0000 F8B5     		push	{r3, r4, r5, r6, r7, lr}
 405              		.cfi_def_cfa_offset 24
 406              		.cfi_offset 3, -24
 407              		.cfi_offset 4, -20
 408              		.cfi_offset 5, -16
 409              		.cfi_offset 6, -12
 410              		.cfi_offset 7, -8
 411              		.cfi_offset 14, -4
 412              		.loc 2 298 0
 413 0002 124D     		ldr	r5, .L35
 414              		.loc 2 295 0
 415 0004 0646     		mov	r6, r0
 416              		.loc 2 298 0
 417 0006 2846     		mov	r0, r5
 418              	.LVL35:
 419              		.loc 2 295 0
 420 0008 0F46     		mov	r7, r1
 421              		.loc 2 298 0
 422 000a FFF7FEFF 		bl	chMtxLock
 423              	.LVL36:
 424              	.LBB70:
 425              	.LBB71:
 426              		.loc 2 181 0
 427 000e 05F11001 		add	r1, r5, #16
 428 0012 3046     		mov	r0, r6
 429 0014 FFF7FEFF 		bl	dyn_list_find
 430              	.LVL37:
 431              		.loc 2 182 0
 432 0018 A8B9     		cbnz	r0, .L31
 433              	.LVL38:
 434              	.LBB72:
 435              	.LBB73:
 436              		.loc 2 187 0
 437 001a 05F11400 		add	r0, r5, #20
 438              	.LVL39:
 439 001e FFF7FEFF 		bl	chPoolAlloc
 440              	.LVL40:
 441              		.loc 2 188 0
 442 0022 0446     		mov	r4, r0
 443 0024 50B1     		cbz	r0, .L30
 444              		.loc 2 195 0
 445 0026 0822     		movs	r2, #8
 446 0028 3146     		mov	r1, r6
 447 002a 1044     		add	r0, r0, r2
 448              	.LVL41:
 449 002c FFF7FEFF 		bl	strncpy
 450              	.LVL42:
 451              		.loc 2 197 0
 452 0030 0123     		movs	r3, #1
 453 0032 6360     		str	r3, [r4, #4]
 454              		.loc 2 198 0
 455 0034 2B69     		ldr	r3, [r5, #16]
 456 0036 2360     		str	r3, [r4]
ARM GAS  /tmp/ccNt54pG.s 			page 9


 457              		.loc 2 201 0
 458 0038 2C61     		str	r4, [r5, #16]
 459              	.LVL43:
 460              	.LBE73:
 461              	.LBE72:
 462              	.LBE71:
 463              	.LBE70:
 464              		.loc 2 305 0
 465 003a 2761     		str	r7, [r4, #16]
 466              	.LVL44:
 467              	.L30:
 468              		.loc 2 308 0
 469 003c 0348     		ldr	r0, .L35
 470 003e FFF7FEFF 		bl	chMtxUnlock
 471              	.LVL45:
 472              		.loc 2 311 0
 473 0042 2046     		mov	r0, r4
 474 0044 F8BD     		pop	{r3, r4, r5, r6, r7, pc}
 475              	.LVL46:
 476              	.L31:
 477              	.LBB75:
 478              	.LBB74:
 479              		.loc 2 182 0
 480 0046 0024     		movs	r4, #0
 481 0048 F8E7     		b	.L30
 482              	.L36:
 483 004a 00BF     		.align	2
 484              	.L35:
 485 004c 00000000 		.word	.LANCHOR0
 486              	.LBE74:
 487              	.LBE75:
 488              		.cfi_endproc
 489              	.LFE299:
 490              		.size	chFactoryRegisterObject, .-chFactoryRegisterObject
 491              		.section	.text.chFactoryFindObject,"ax",%progbits
 492              		.align	1
 493              		.global	chFactoryFindObject
 494              		.syntax unified
 495              		.thumb
 496              		.thumb_func
 497              		.fpu fpv4-sp-d16
 498              		.type	chFactoryFindObject, %function
 499              	chFactoryFindObject:
 500              	.LFB300:
 501              		.loc 2 326 0
 502              		.cfi_startproc
 503              		@ args = 0, pretend = 0, frame = 0
 504              		@ frame_needed = 0, uses_anonymous_args = 0
 505              	.LVL47:
 506 0000 38B5     		push	{r3, r4, r5, lr}
 507              		.cfi_def_cfa_offset 16
 508              		.cfi_offset 3, -16
 509              		.cfi_offset 4, -12
 510              		.cfi_offset 5, -8
 511              		.cfi_offset 14, -4
 512              		.loc 2 329 0
 513 0002 084C     		ldr	r4, .L38
ARM GAS  /tmp/ccNt54pG.s 			page 10


 514              		.loc 2 326 0
 515 0004 0546     		mov	r5, r0
 516              		.loc 2 329 0
 517 0006 2046     		mov	r0, r4
 518              	.LVL48:
 519 0008 FFF7FEFF 		bl	chMtxLock
 520              	.LVL49:
 521              		.loc 2 331 0
 522 000c 04F11001 		add	r1, r4, #16
 523 0010 2846     		mov	r0, r5
 524 0012 FFF7FEFF 		bl	dyn_find_object
 525              	.LVL50:
 526 0016 0546     		mov	r5, r0
 527              	.LVL51:
 528              		.loc 2 333 0
 529 0018 2046     		mov	r0, r4
 530              	.LVL52:
 531 001a FFF7FEFF 		bl	chMtxUnlock
 532              	.LVL53:
 533              		.loc 2 336 0
 534 001e 2846     		mov	r0, r5
 535 0020 38BD     		pop	{r3, r4, r5, pc}
 536              	.LVL54:
 537              	.L39:
 538 0022 00BF     		.align	2
 539              	.L38:
 540 0024 00000000 		.word	.LANCHOR0
 541              		.cfi_endproc
 542              	.LFE300:
 543              		.size	chFactoryFindObject, .-chFactoryFindObject
 544              		.section	.text.chFactoryFindObjectByPointer,"ax",%progbits
 545              		.align	1
 546              		.global	chFactoryFindObjectByPointer
 547              		.syntax unified
 548              		.thumb
 549              		.thumb_func
 550              		.fpu fpv4-sp-d16
 551              		.type	chFactoryFindObjectByPointer, %function
 552              	chFactoryFindObjectByPointer:
 553              	.LFB301:
 554              		.loc 2 351 0
 555              		.cfi_startproc
 556              		@ args = 0, pretend = 0, frame = 0
 557              		@ frame_needed = 0, uses_anonymous_args = 0
 558              	.LVL55:
 559 0000 70B5     		push	{r4, r5, r6, lr}
 560              		.cfi_def_cfa_offset 16
 561              		.cfi_offset 4, -16
 562              		.cfi_offset 5, -12
 563              		.cfi_offset 6, -8
 564              		.cfi_offset 14, -4
 565              		.loc 2 352 0
 566 0002 0D4D     		ldr	r5, .L45
 567              		.loc 2 351 0
 568 0004 0646     		mov	r6, r0
 569              		.loc 2 354 0
 570 0006 2846     		mov	r0, r5
ARM GAS  /tmp/ccNt54pG.s 			page 11


 571              	.LVL56:
 572              		.loc 2 352 0
 573 0008 2C69     		ldr	r4, [r5, #16]
 574              	.LVL57:
 575              		.loc 2 354 0
 576 000a FFF7FEFF 		bl	chMtxLock
 577              	.LVL58:
 578              		.loc 2 356 0
 579 000e 1035     		adds	r5, r5, #16
 580              	.L41:
 581 0010 AC42     		cmp	r4, r5
 582 0012 04D1     		bne	.L44
 583              		.loc 2 367 0
 584 0014 0848     		ldr	r0, .L45
 585 0016 FFF7FEFF 		bl	chMtxUnlock
 586              	.LVL59:
 587              		.loc 2 369 0
 588 001a 0024     		movs	r4, #0
 589              	.LVL60:
 590 001c 08E0     		b	.L40
 591              	.LVL61:
 592              	.L44:
 593              		.loc 2 357 0
 594 001e 2369     		ldr	r3, [r4, #16]
 595 0020 B342     		cmp	r3, r6
 596 0022 07D1     		bne	.L42
 597              		.loc 2 358 0
 598 0024 6368     		ldr	r3, [r4, #4]
 599              		.loc 2 360 0
 600 0026 0448     		ldr	r0, .L45
 601              		.loc 2 358 0
 602 0028 0133     		adds	r3, r3, #1
 603 002a 6360     		str	r3, [r4, #4]
 604              		.loc 2 360 0
 605 002c FFF7FEFF 		bl	chMtxUnlock
 606              	.LVL62:
 607              	.L40:
 608              		.loc 2 370 0
 609 0030 2046     		mov	r0, r4
 610 0032 70BD     		pop	{r4, r5, r6, pc}
 611              	.LVL63:
 612              	.L42:
 613              		.loc 2 364 0
 614 0034 2468     		ldr	r4, [r4]
 615              	.LVL64:
 616 0036 EBE7     		b	.L41
 617              	.L46:
 618              		.align	2
 619              	.L45:
 620 0038 00000000 		.word	.LANCHOR0
 621              		.cfi_endproc
 622              	.LFE301:
 623              		.size	chFactoryFindObjectByPointer, .-chFactoryFindObjectByPointer
 624              		.section	.text.chFactoryReleaseObject,"ax",%progbits
 625              		.align	1
 626              		.global	chFactoryReleaseObject
 627              		.syntax unified
ARM GAS  /tmp/ccNt54pG.s 			page 12


 628              		.thumb
 629              		.thumb_func
 630              		.fpu fpv4-sp-d16
 631              		.type	chFactoryReleaseObject, %function
 632              	chFactoryReleaseObject:
 633              	.LFB302:
 634              		.loc 2 384 0
 635              		.cfi_startproc
 636              		@ args = 0, pretend = 0, frame = 0
 637              		@ frame_needed = 0, uses_anonymous_args = 0
 638              	.LVL65:
 639 0000 10B5     		push	{r4, lr}
 640              		.cfi_def_cfa_offset 8
 641              		.cfi_offset 4, -8
 642              		.cfi_offset 14, -4
 643              		.loc 2 384 0
 644 0002 0446     		mov	r4, r0
 645              		.loc 2 386 0
 646 0004 0E48     		ldr	r0, .L54
 647              	.LVL66:
 648 0006 FFF7FEFF 		bl	chMtxLock
 649              	.LVL67:
 650              	.LBB82:
 651              	.LBB83:
 652              		.loc 2 213 0
 653 000a 6368     		ldr	r3, [r4, #4]
 654 000c 013B     		subs	r3, r3, #1
 655 000e 6360     		str	r3, [r4, #4]
 656              		.loc 2 214 0
 657 0010 73B9     		cbnz	r3, .L49
 658 0012 0C4B     		ldr	r3, .L54+4
 659 0014 1846     		mov	r0, r3
 660              	.L50:
 661              	.LVL68:
 662              	.LBB84:
 663              	.LBB85:
 664              	.LBB86:
 665              	.LBB87:
 666              		.loc 2 109 0
 667 0016 1A68     		ldr	r2, [r3]
 668 0018 8242     		cmp	r2, r0
 669 001a 01D1     		bne	.L52
 670              		.loc 2 120 0
 671 001c 0021     		movs	r1, #0
 672 001e 04E0     		b	.L51
 673              	.L52:
 674              		.loc 2 110 0
 675 0020 9442     		cmp	r4, r2
 676              	.LBE87:
 677              	.LBE86:
 678              	.LBE85:
 679              	.LBE84:
 680              	.LBE83:
 681              	.LBE82:
 682              		.loc 2 388 0
 683 0022 2146     		mov	r1, r4
 684              	.LBB98:
ARM GAS  /tmp/ccNt54pG.s 			page 13


 685              	.LBB96:
 686              	.LBB94:
 687              	.LBB92:
 688              	.LBB90:
 689              	.LBB88:
 690              		.loc 2 110 0
 691 0024 09D1     		bne	.L53
 692              	.LVL69:
 693              		.loc 2 112 0
 694 0026 2268     		ldr	r2, [r4]
 695 0028 1A60     		str	r2, [r3]
 696              	.LVL70:
 697              	.L51:
 698              	.LBE88:
 699              	.LBE90:
 700              		.loc 2 216 0
 701 002a 0748     		ldr	r0, .L54+8
 702 002c FFF7FEFF 		bl	chPoolFree
 703              	.LVL71:
 704              	.L49:
 705              	.LBE92:
 706              	.LBE94:
 707              	.LBE96:
 708              	.LBE98:
 709              		.loc 2 392 0
 710 0030 0348     		ldr	r0, .L54
 711              		.loc 2 393 0
 712 0032 BDE81040 		pop	{r4, lr}
 713              		.cfi_remember_state
 714              		.cfi_restore 14
 715              		.cfi_restore 4
 716              		.cfi_def_cfa_offset 0
 717              	.LVL72:
 718              		.loc 2 392 0
 719 0036 FFF7FEBF 		b	chMtxUnlock
 720              	.LVL73:
 721              	.L53:
 722              		.cfi_restore_state
 723              	.LBB99:
 724              	.LBB97:
 725              	.LBB95:
 726              	.LBB93:
 727              	.LBB91:
 728              	.LBB89:
 729              		.loc 2 110 0
 730 003a 1346     		mov	r3, r2
 731              	.LVL74:
 732 003c EBE7     		b	.L50
 733              	.L55:
 734 003e 00BF     		.align	2
 735              	.L54:
 736 0040 00000000 		.word	.LANCHOR0
 737 0044 10000000 		.word	.LANCHOR0+16
 738 0048 14000000 		.word	.LANCHOR0+20
 739              	.LBE89:
 740              	.LBE91:
 741              	.LBE93:
ARM GAS  /tmp/ccNt54pG.s 			page 14


 742              	.LBE95:
 743              	.LBE97:
 744              	.LBE99:
 745              		.cfi_endproc
 746              	.LFE302:
 747              		.size	chFactoryReleaseObject, .-chFactoryReleaseObject
 748              		.section	.text.chFactoryCreateBuffer,"ax",%progbits
 749              		.align	1
 750              		.global	chFactoryCreateBuffer
 751              		.syntax unified
 752              		.thumb
 753              		.thumb_func
 754              		.fpu fpv4-sp-d16
 755              		.type	chFactoryCreateBuffer, %function
 756              	chFactoryCreateBuffer:
 757              	.LFB303:
 758              		.loc 2 412 0
 759              		.cfi_startproc
 760              		@ args = 0, pretend = 0, frame = 0
 761              		@ frame_needed = 0, uses_anonymous_args = 0
 762              	.LVL75:
 763 0000 38B5     		push	{r3, r4, r5, lr}
 764              		.cfi_def_cfa_offset 16
 765              		.cfi_offset 3, -16
 766              		.cfi_offset 4, -12
 767              		.cfi_offset 5, -8
 768              		.cfi_offset 14, -4
 769              		.loc 2 412 0
 770 0002 0446     		mov	r4, r0
 771 0004 0D46     		mov	r5, r1
 772              		.loc 2 415 0
 773 0006 0A48     		ldr	r0, .L61
 774              	.LVL76:
 775 0008 FFF7FEFF 		bl	chMtxLock
 776              	.LVL77:
 777              		.loc 2 417 0
 778 000c 2046     		mov	r0, r4
 779 000e 2A46     		mov	r2, r5
 780 0010 0849     		ldr	r1, .L61+4
 781 0012 FFF7FEFF 		bl	dyn_create_object_heap
 782              	.LVL78:
 783              		.loc 2 420 0
 784 0016 0446     		mov	r4, r0
 785              	.LVL79:
 786 0018 20B1     		cbz	r0, .L57
 787              		.loc 2 422 0
 788 001a 2A46     		mov	r2, r5
 789 001c 0021     		movs	r1, #0
 790 001e 1030     		adds	r0, r0, #16
 791              	.LVL80:
 792 0020 FFF7FEFF 		bl	memset
 793              	.LVL81:
 794              	.L57:
 795              		.loc 2 425 0
 796 0024 0248     		ldr	r0, .L61
 797 0026 FFF7FEFF 		bl	chMtxUnlock
 798              	.LVL82:
ARM GAS  /tmp/ccNt54pG.s 			page 15


 799              		.loc 2 428 0
 800 002a 2046     		mov	r0, r4
 801 002c 38BD     		pop	{r3, r4, r5, pc}
 802              	.LVL83:
 803              	.L62:
 804 002e 00BF     		.align	2
 805              	.L61:
 806 0030 00000000 		.word	.LANCHOR0
 807 0034 24000000 		.word	.LANCHOR0+36
 808              		.cfi_endproc
 809              	.LFE303:
 810              		.size	chFactoryCreateBuffer, .-chFactoryCreateBuffer
 811              		.section	.text.chFactoryFindBuffer,"ax",%progbits
 812              		.align	1
 813              		.global	chFactoryFindBuffer
 814              		.syntax unified
 815              		.thumb
 816              		.thumb_func
 817              		.fpu fpv4-sp-d16
 818              		.type	chFactoryFindBuffer, %function
 819              	chFactoryFindBuffer:
 820              	.LFB304:
 821              		.loc 2 443 0
 822              		.cfi_startproc
 823              		@ args = 0, pretend = 0, frame = 0
 824              		@ frame_needed = 0, uses_anonymous_args = 0
 825              	.LVL84:
 826 0000 38B5     		push	{r3, r4, r5, lr}
 827              		.cfi_def_cfa_offset 16
 828              		.cfi_offset 3, -16
 829              		.cfi_offset 4, -12
 830              		.cfi_offset 5, -8
 831              		.cfi_offset 14, -4
 832              		.loc 2 446 0
 833 0002 084C     		ldr	r4, .L64
 834              		.loc 2 443 0
 835 0004 0546     		mov	r5, r0
 836              		.loc 2 446 0
 837 0006 2046     		mov	r0, r4
 838              	.LVL85:
 839 0008 FFF7FEFF 		bl	chMtxLock
 840              	.LVL86:
 841              		.loc 2 448 0
 842 000c 04F12401 		add	r1, r4, #36
 843 0010 2846     		mov	r0, r5
 844 0012 FFF7FEFF 		bl	dyn_find_object
 845              	.LVL87:
 846 0016 0546     		mov	r5, r0
 847              	.LVL88:
 848              		.loc 2 450 0
 849 0018 2046     		mov	r0, r4
 850              	.LVL89:
 851 001a FFF7FEFF 		bl	chMtxUnlock
 852              	.LVL90:
 853              		.loc 2 453 0
 854 001e 2846     		mov	r0, r5
 855 0020 38BD     		pop	{r3, r4, r5, pc}
ARM GAS  /tmp/ccNt54pG.s 			page 16


 856              	.LVL91:
 857              	.L65:
 858 0022 00BF     		.align	2
 859              	.L64:
 860 0024 00000000 		.word	.LANCHOR0
 861              		.cfi_endproc
 862              	.LFE304:
 863              		.size	chFactoryFindBuffer, .-chFactoryFindBuffer
 864              		.section	.text.chFactoryReleaseBuffer,"ax",%progbits
 865              		.align	1
 866              		.global	chFactoryReleaseBuffer
 867              		.syntax unified
 868              		.thumb
 869              		.thumb_func
 870              		.fpu fpv4-sp-d16
 871              		.type	chFactoryReleaseBuffer, %function
 872              	chFactoryReleaseBuffer:
 873              	.LFB305:
 874              		.loc 2 465 0
 875              		.cfi_startproc
 876              		@ args = 0, pretend = 0, frame = 0
 877              		@ frame_needed = 0, uses_anonymous_args = 0
 878              	.LVL92:
 879 0000 38B5     		push	{r3, r4, r5, lr}
 880              		.cfi_def_cfa_offset 16
 881              		.cfi_offset 3, -16
 882              		.cfi_offset 4, -12
 883              		.cfi_offset 5, -8
 884              		.cfi_offset 14, -4
 885              		.loc 2 467 0
 886 0002 074C     		ldr	r4, .L67
 887              		.loc 2 465 0
 888 0004 0546     		mov	r5, r0
 889              		.loc 2 467 0
 890 0006 2046     		mov	r0, r4
 891              	.LVL93:
 892 0008 FFF7FEFF 		bl	chMtxLock
 893              	.LVL94:
 894              		.loc 2 469 0
 895 000c 2846     		mov	r0, r5
 896 000e 04F12401 		add	r1, r4, #36
 897 0012 FFF7FEFF 		bl	dyn_release_object_heap
 898              	.LVL95:
 899              		.loc 2 471 0
 900 0016 2046     		mov	r0, r4
 901              		.loc 2 472 0
 902 0018 BDE83840 		pop	{r3, r4, r5, lr}
 903              		.cfi_restore 14
 904              		.cfi_restore 5
 905              		.cfi_restore 4
 906              		.cfi_restore 3
 907              		.cfi_def_cfa_offset 0
 908              	.LVL96:
 909              		.loc 2 471 0
 910 001c FFF7FEBF 		b	chMtxUnlock
 911              	.LVL97:
 912              	.L68:
ARM GAS  /tmp/ccNt54pG.s 			page 17


 913              		.align	2
 914              	.L67:
 915 0020 00000000 		.word	.LANCHOR0
 916              		.cfi_endproc
 917              	.LFE305:
 918              		.size	chFactoryReleaseBuffer, .-chFactoryReleaseBuffer
 919              		.section	.text.chFactoryCreateSemaphore,"ax",%progbits
 920              		.align	1
 921              		.global	chFactoryCreateSemaphore
 922              		.syntax unified
 923              		.thumb
 924              		.thumb_func
 925              		.fpu fpv4-sp-d16
 926              		.type	chFactoryCreateSemaphore, %function
 927              	chFactoryCreateSemaphore:
 928              	.LFB306:
 929              		.loc 2 491 0
 930              		.cfi_startproc
 931              		@ args = 0, pretend = 0, frame = 0
 932              		@ frame_needed = 0, uses_anonymous_args = 0
 933              	.LVL98:
 934 0000 F8B5     		push	{r3, r4, r5, r6, r7, lr}
 935              		.cfi_def_cfa_offset 24
 936              		.cfi_offset 3, -24
 937              		.cfi_offset 4, -20
 938              		.cfi_offset 5, -16
 939              		.cfi_offset 6, -12
 940              		.cfi_offset 7, -8
 941              		.cfi_offset 14, -4
 942              		.loc 2 494 0
 943 0002 144D     		ldr	r5, .L75
 944              		.loc 2 491 0
 945 0004 0646     		mov	r6, r0
 946              		.loc 2 494 0
 947 0006 2846     		mov	r0, r5
 948              	.LVL99:
 949              		.loc 2 491 0
 950 0008 0F46     		mov	r7, r1
 951              		.loc 2 494 0
 952 000a FFF7FEFF 		bl	chMtxLock
 953              	.LVL100:
 954              	.LBB104:
 955              	.LBB105:
 956              		.loc 2 181 0
 957 000e 05F12801 		add	r1, r5, #40
 958 0012 3046     		mov	r0, r6
 959 0014 FFF7FEFF 		bl	dyn_list_find
 960              	.LVL101:
 961              		.loc 2 182 0
 962 0018 C8B9     		cbnz	r0, .L71
 963              	.LVL102:
 964              	.LBB106:
 965              	.LBB107:
 966              		.loc 2 187 0
 967 001a 05F12C00 		add	r0, r5, #44
 968              	.LVL103:
 969 001e FFF7FEFF 		bl	chPoolAlloc
ARM GAS  /tmp/ccNt54pG.s 			page 18


 970              	.LVL104:
 971              		.loc 2 188 0
 972 0022 0446     		mov	r4, r0
 973 0024 70B1     		cbz	r0, .L70
 974              		.loc 2 195 0
 975 0026 0822     		movs	r2, #8
 976 0028 3146     		mov	r1, r6
 977 002a 1044     		add	r0, r0, r2
 978              	.LVL105:
 979 002c FFF7FEFF 		bl	strncpy
 980              	.LVL106:
 981              		.loc 2 197 0
 982 0030 0123     		movs	r3, #1
 983 0032 6360     		str	r3, [r4, #4]
 984              		.loc 2 198 0
 985 0034 AB6A     		ldr	r3, [r5, #40]
 986 0036 2360     		str	r3, [r4]
 987              	.LBE107:
 988              	.LBE106:
 989              	.LBE105:
 990              	.LBE104:
 991              		.loc 2 501 0
 992 0038 3946     		mov	r1, r7
 993              	.LBB112:
 994              	.LBB110:
 995              	.LBB109:
 996              	.LBB108:
 997              		.loc 2 201 0
 998 003a AC62     		str	r4, [r5, #40]
 999              	.LVL107:
 1000              	.LBE108:
 1001              	.LBE109:
 1002              	.LBE110:
 1003              	.LBE112:
 1004              		.loc 2 501 0
 1005 003c 04F11000 		add	r0, r4, #16
 1006 0040 FFF7FEFF 		bl	chSemObjectInit
 1007              	.LVL108:
 1008              	.L70:
 1009              		.loc 2 504 0
 1010 0044 0348     		ldr	r0, .L75
 1011 0046 FFF7FEFF 		bl	chMtxUnlock
 1012              	.LVL109:
 1013              		.loc 2 507 0
 1014 004a 2046     		mov	r0, r4
 1015 004c F8BD     		pop	{r3, r4, r5, r6, r7, pc}
 1016              	.LVL110:
 1017              	.L71:
 1018              	.LBB113:
 1019              	.LBB111:
 1020              		.loc 2 182 0
 1021 004e 0024     		movs	r4, #0
 1022 0050 F8E7     		b	.L70
 1023              	.L76:
 1024 0052 00BF     		.align	2
 1025              	.L75:
 1026 0054 00000000 		.word	.LANCHOR0
ARM GAS  /tmp/ccNt54pG.s 			page 19


 1027              	.LBE111:
 1028              	.LBE113:
 1029              		.cfi_endproc
 1030              	.LFE306:
 1031              		.size	chFactoryCreateSemaphore, .-chFactoryCreateSemaphore
 1032              		.section	.text.chFactoryFindSemaphore,"ax",%progbits
 1033              		.align	1
 1034              		.global	chFactoryFindSemaphore
 1035              		.syntax unified
 1036              		.thumb
 1037              		.thumb_func
 1038              		.fpu fpv4-sp-d16
 1039              		.type	chFactoryFindSemaphore, %function
 1040              	chFactoryFindSemaphore:
 1041              	.LFB307:
 1042              		.loc 2 522 0
 1043              		.cfi_startproc
 1044              		@ args = 0, pretend = 0, frame = 0
 1045              		@ frame_needed = 0, uses_anonymous_args = 0
 1046              	.LVL111:
 1047 0000 38B5     		push	{r3, r4, r5, lr}
 1048              		.cfi_def_cfa_offset 16
 1049              		.cfi_offset 3, -16
 1050              		.cfi_offset 4, -12
 1051              		.cfi_offset 5, -8
 1052              		.cfi_offset 14, -4
 1053              		.loc 2 525 0
 1054 0002 084C     		ldr	r4, .L78
 1055              		.loc 2 522 0
 1056 0004 0546     		mov	r5, r0
 1057              		.loc 2 525 0
 1058 0006 2046     		mov	r0, r4
 1059              	.LVL112:
 1060 0008 FFF7FEFF 		bl	chMtxLock
 1061              	.LVL113:
 1062              		.loc 2 527 0
 1063 000c 04F12801 		add	r1, r4, #40
 1064 0010 2846     		mov	r0, r5
 1065 0012 FFF7FEFF 		bl	dyn_find_object
 1066              	.LVL114:
 1067 0016 0546     		mov	r5, r0
 1068              	.LVL115:
 1069              		.loc 2 529 0
 1070 0018 2046     		mov	r0, r4
 1071              	.LVL116:
 1072 001a FFF7FEFF 		bl	chMtxUnlock
 1073              	.LVL117:
 1074              		.loc 2 532 0
 1075 001e 2846     		mov	r0, r5
 1076 0020 38BD     		pop	{r3, r4, r5, pc}
 1077              	.LVL118:
 1078              	.L79:
 1079 0022 00BF     		.align	2
 1080              	.L78:
 1081 0024 00000000 		.word	.LANCHOR0
 1082              		.cfi_endproc
 1083              	.LFE307:
ARM GAS  /tmp/ccNt54pG.s 			page 20


 1084              		.size	chFactoryFindSemaphore, .-chFactoryFindSemaphore
 1085              		.section	.text.chFactoryReleaseSemaphore,"ax",%progbits
 1086              		.align	1
 1087              		.global	chFactoryReleaseSemaphore
 1088              		.syntax unified
 1089              		.thumb
 1090              		.thumb_func
 1091              		.fpu fpv4-sp-d16
 1092              		.type	chFactoryReleaseSemaphore, %function
 1093              	chFactoryReleaseSemaphore:
 1094              	.LFB308:
 1095              		.loc 2 544 0
 1096              		.cfi_startproc
 1097              		@ args = 0, pretend = 0, frame = 0
 1098              		@ frame_needed = 0, uses_anonymous_args = 0
 1099              	.LVL119:
 1100 0000 10B5     		push	{r4, lr}
 1101              		.cfi_def_cfa_offset 8
 1102              		.cfi_offset 4, -8
 1103              		.cfi_offset 14, -4
 1104              		.loc 2 544 0
 1105 0002 0446     		mov	r4, r0
 1106              		.loc 2 546 0
 1107 0004 0E48     		ldr	r0, .L87
 1108              	.LVL120:
 1109 0006 FFF7FEFF 		bl	chMtxLock
 1110              	.LVL121:
 1111              	.LBB120:
 1112              	.LBB121:
 1113              		.loc 2 213 0
 1114 000a 6368     		ldr	r3, [r4, #4]
 1115 000c 013B     		subs	r3, r3, #1
 1116 000e 6360     		str	r3, [r4, #4]
 1117              		.loc 2 214 0
 1118 0010 73B9     		cbnz	r3, .L82
 1119 0012 0C4B     		ldr	r3, .L87+4
 1120 0014 1846     		mov	r0, r3
 1121              	.L83:
 1122              	.LVL122:
 1123              	.LBB122:
 1124              	.LBB123:
 1125              	.LBB124:
 1126              	.LBB125:
 1127              		.loc 2 109 0
 1128 0016 1A68     		ldr	r2, [r3]
 1129 0018 8242     		cmp	r2, r0
 1130 001a 01D1     		bne	.L85
 1131              		.loc 2 120 0
 1132 001c 0021     		movs	r1, #0
 1133 001e 04E0     		b	.L84
 1134              	.L85:
 1135              		.loc 2 110 0
 1136 0020 9442     		cmp	r4, r2
 1137              	.LBE125:
 1138              	.LBE124:
 1139              	.LBE123:
 1140              	.LBE122:
ARM GAS  /tmp/ccNt54pG.s 			page 21


 1141              	.LBE121:
 1142              	.LBE120:
 1143              		.loc 2 548 0
 1144 0022 2146     		mov	r1, r4
 1145              	.LBB136:
 1146              	.LBB134:
 1147              	.LBB132:
 1148              	.LBB130:
 1149              	.LBB128:
 1150              	.LBB126:
 1151              		.loc 2 110 0
 1152 0024 09D1     		bne	.L86
 1153              	.LVL123:
 1154              		.loc 2 112 0
 1155 0026 2268     		ldr	r2, [r4]
 1156 0028 1A60     		str	r2, [r3]
 1157              	.LVL124:
 1158              	.L84:
 1159              	.LBE126:
 1160              	.LBE128:
 1161              		.loc 2 216 0
 1162 002a 0748     		ldr	r0, .L87+8
 1163 002c FFF7FEFF 		bl	chPoolFree
 1164              	.LVL125:
 1165              	.L82:
 1166              	.LBE130:
 1167              	.LBE132:
 1168              	.LBE134:
 1169              	.LBE136:
 1170              		.loc 2 552 0
 1171 0030 0348     		ldr	r0, .L87
 1172              		.loc 2 553 0
 1173 0032 BDE81040 		pop	{r4, lr}
 1174              		.cfi_remember_state
 1175              		.cfi_restore 14
 1176              		.cfi_restore 4
 1177              		.cfi_def_cfa_offset 0
 1178              	.LVL126:
 1179              		.loc 2 552 0
 1180 0036 FFF7FEBF 		b	chMtxUnlock
 1181              	.LVL127:
 1182              	.L86:
 1183              		.cfi_restore_state
 1184              	.LBB137:
 1185              	.LBB135:
 1186              	.LBB133:
 1187              	.LBB131:
 1188              	.LBB129:
 1189              	.LBB127:
 1190              		.loc 2 110 0
 1191 003a 1346     		mov	r3, r2
 1192              	.LVL128:
 1193 003c EBE7     		b	.L83
 1194              	.L88:
 1195 003e 00BF     		.align	2
 1196              	.L87:
 1197 0040 00000000 		.word	.LANCHOR0
ARM GAS  /tmp/ccNt54pG.s 			page 22


 1198 0044 28000000 		.word	.LANCHOR0+40
 1199 0048 2C000000 		.word	.LANCHOR0+44
 1200              	.LBE127:
 1201              	.LBE129:
 1202              	.LBE131:
 1203              	.LBE133:
 1204              	.LBE135:
 1205              	.LBE137:
 1206              		.cfi_endproc
 1207              	.LFE308:
 1208              		.size	chFactoryReleaseSemaphore, .-chFactoryReleaseSemaphore
 1209              		.section	.text.chFactoryCreateMailbox,"ax",%progbits
 1210              		.align	1
 1211              		.global	chFactoryCreateMailbox
 1212              		.syntax unified
 1213              		.thumb
 1214              		.thumb_func
 1215              		.fpu fpv4-sp-d16
 1216              		.type	chFactoryCreateMailbox, %function
 1217              	chFactoryCreateMailbox:
 1218              	.LFB309:
 1219              		.loc 2 572 0
 1220              		.cfi_startproc
 1221              		@ args = 0, pretend = 0, frame = 0
 1222              		@ frame_needed = 0, uses_anonymous_args = 0
 1223              	.LVL129:
 1224 0000 38B5     		push	{r3, r4, r5, lr}
 1225              		.cfi_def_cfa_offset 16
 1226              		.cfi_offset 3, -16
 1227              		.cfi_offset 4, -12
 1228              		.cfi_offset 5, -8
 1229              		.cfi_offset 14, -4
 1230              		.loc 2 572 0
 1231 0002 0446     		mov	r4, r0
 1232 0004 0D46     		mov	r5, r1
 1233              		.loc 2 575 0
 1234 0006 0B48     		ldr	r0, .L94
 1235              	.LVL130:
 1236 0008 FFF7FEFF 		bl	chMtxLock
 1237              	.LVL131:
 1238              		.loc 2 577 0
 1239 000c 05F10E02 		add	r2, r5, #14
 1240 0010 2046     		mov	r0, r4
 1241 0012 9200     		lsls	r2, r2, #2
 1242 0014 0849     		ldr	r1, .L94+4
 1243 0016 FFF7FEFF 		bl	dyn_create_object_heap
 1244              	.LVL132:
 1245              		.loc 2 581 0
 1246 001a 0446     		mov	r4, r0
 1247              	.LVL133:
 1248 001c 28B1     		cbz	r0, .L90
 1249              		.loc 2 583 0
 1250 001e 00F13801 		add	r1, r0, #56
 1251 0022 2A46     		mov	r2, r5
 1252 0024 1030     		adds	r0, r0, #16
 1253              	.LVL134:
 1254 0026 FFF7FEFF 		bl	chMBObjectInit
ARM GAS  /tmp/ccNt54pG.s 			page 23


 1255              	.LVL135:
 1256              	.L90:
 1257              		.loc 2 586 0
 1258 002a 0248     		ldr	r0, .L94
 1259 002c FFF7FEFF 		bl	chMtxUnlock
 1260              	.LVL136:
 1261              		.loc 2 589 0
 1262 0030 2046     		mov	r0, r4
 1263 0032 38BD     		pop	{r3, r4, r5, pc}
 1264              	.LVL137:
 1265              	.L95:
 1266              		.align	2
 1267              	.L94:
 1268 0034 00000000 		.word	.LANCHOR0
 1269 0038 3C000000 		.word	.LANCHOR0+60
 1270              		.cfi_endproc
 1271              	.LFE309:
 1272              		.size	chFactoryCreateMailbox, .-chFactoryCreateMailbox
 1273              		.section	.text.chFactoryFindMailbox,"ax",%progbits
 1274              		.align	1
 1275              		.global	chFactoryFindMailbox
 1276              		.syntax unified
 1277              		.thumb
 1278              		.thumb_func
 1279              		.fpu fpv4-sp-d16
 1280              		.type	chFactoryFindMailbox, %function
 1281              	chFactoryFindMailbox:
 1282              	.LFB310:
 1283              		.loc 2 604 0
 1284              		.cfi_startproc
 1285              		@ args = 0, pretend = 0, frame = 0
 1286              		@ frame_needed = 0, uses_anonymous_args = 0
 1287              	.LVL138:
 1288 0000 38B5     		push	{r3, r4, r5, lr}
 1289              		.cfi_def_cfa_offset 16
 1290              		.cfi_offset 3, -16
 1291              		.cfi_offset 4, -12
 1292              		.cfi_offset 5, -8
 1293              		.cfi_offset 14, -4
 1294              		.loc 2 607 0
 1295 0002 084C     		ldr	r4, .L97
 1296              		.loc 2 604 0
 1297 0004 0546     		mov	r5, r0
 1298              		.loc 2 607 0
 1299 0006 2046     		mov	r0, r4
 1300              	.LVL139:
 1301 0008 FFF7FEFF 		bl	chMtxLock
 1302              	.LVL140:
 1303              		.loc 2 609 0
 1304 000c 04F13C01 		add	r1, r4, #60
 1305 0010 2846     		mov	r0, r5
 1306 0012 FFF7FEFF 		bl	dyn_find_object
 1307              	.LVL141:
 1308 0016 0546     		mov	r5, r0
 1309              	.LVL142:
 1310              		.loc 2 611 0
 1311 0018 2046     		mov	r0, r4
ARM GAS  /tmp/ccNt54pG.s 			page 24


 1312              	.LVL143:
 1313 001a FFF7FEFF 		bl	chMtxUnlock
 1314              	.LVL144:
 1315              		.loc 2 614 0
 1316 001e 2846     		mov	r0, r5
 1317 0020 38BD     		pop	{r3, r4, r5, pc}
 1318              	.LVL145:
 1319              	.L98:
 1320 0022 00BF     		.align	2
 1321              	.L97:
 1322 0024 00000000 		.word	.LANCHOR0
 1323              		.cfi_endproc
 1324              	.LFE310:
 1325              		.size	chFactoryFindMailbox, .-chFactoryFindMailbox
 1326              		.section	.text.chFactoryReleaseMailbox,"ax",%progbits
 1327              		.align	1
 1328              		.global	chFactoryReleaseMailbox
 1329              		.syntax unified
 1330              		.thumb
 1331              		.thumb_func
 1332              		.fpu fpv4-sp-d16
 1333              		.type	chFactoryReleaseMailbox, %function
 1334              	chFactoryReleaseMailbox:
 1335              	.LFB311:
 1336              		.loc 2 626 0
 1337              		.cfi_startproc
 1338              		@ args = 0, pretend = 0, frame = 0
 1339              		@ frame_needed = 0, uses_anonymous_args = 0
 1340              	.LVL146:
 1341 0000 38B5     		push	{r3, r4, r5, lr}
 1342              		.cfi_def_cfa_offset 16
 1343              		.cfi_offset 3, -16
 1344              		.cfi_offset 4, -12
 1345              		.cfi_offset 5, -8
 1346              		.cfi_offset 14, -4
 1347              		.loc 2 628 0
 1348 0002 074C     		ldr	r4, .L100
 1349              		.loc 2 626 0
 1350 0004 0546     		mov	r5, r0
 1351              		.loc 2 628 0
 1352 0006 2046     		mov	r0, r4
 1353              	.LVL147:
 1354 0008 FFF7FEFF 		bl	chMtxLock
 1355              	.LVL148:
 1356              		.loc 2 630 0
 1357 000c 2846     		mov	r0, r5
 1358 000e 04F13C01 		add	r1, r4, #60
 1359 0012 FFF7FEFF 		bl	dyn_release_object_heap
 1360              	.LVL149:
 1361              		.loc 2 632 0
 1362 0016 2046     		mov	r0, r4
 1363              		.loc 2 633 0
 1364 0018 BDE83840 		pop	{r3, r4, r5, lr}
 1365              		.cfi_restore 14
 1366              		.cfi_restore 5
 1367              		.cfi_restore 4
 1368              		.cfi_restore 3
ARM GAS  /tmp/ccNt54pG.s 			page 25


 1369              		.cfi_def_cfa_offset 0
 1370              	.LVL150:
 1371              		.loc 2 632 0
 1372 001c FFF7FEBF 		b	chMtxUnlock
 1373              	.LVL151:
 1374              	.L101:
 1375              		.align	2
 1376              	.L100:
 1377 0020 00000000 		.word	.LANCHOR0
 1378              		.cfi_endproc
 1379              	.LFE311:
 1380              		.size	chFactoryReleaseMailbox, .-chFactoryReleaseMailbox
 1381              		.section	.text.chFactoryCreateObjectsFIFO,"ax",%progbits
 1382              		.align	1
 1383              		.global	chFactoryCreateObjectsFIFO
 1384              		.syntax unified
 1385              		.thumb
 1386              		.thumb_func
 1387              		.fpu fpv4-sp-d16
 1388              		.type	chFactoryCreateObjectsFIFO, %function
 1389              	chFactoryCreateObjectsFIFO:
 1390              	.LFB312:
 1391              		.loc 2 659 0
 1392              		.cfi_startproc
 1393              		@ args = 0, pretend = 0, frame = 0
 1394              		@ frame_needed = 0, uses_anonymous_args = 0
 1395              	.LVL152:
 1396 0000 2DE9F843 		push	{r3, r4, r5, r6, r7, r8, r9, lr}
 1397              		.cfi_def_cfa_offset 32
 1398              		.cfi_offset 3, -32
 1399              		.cfi_offset 4, -28
 1400              		.cfi_offset 5, -24
 1401              		.cfi_offset 6, -20
 1402              		.cfi_offset 7, -16
 1403              		.cfi_offset 8, -12
 1404              		.cfi_offset 9, -8
 1405              		.cfi_offset 14, -4
 1406              		.loc 2 659 0
 1407 0004 1646     		mov	r6, r2
 1408              		.loc 2 666 0
 1409 0006 06F11505 		add	r5, r6, #21
 1410              		.loc 2 659 0
 1411 000a 0446     		mov	r4, r0
 1412 000c 8846     		mov	r8, r1
 1413              		.loc 2 662 0
 1414 000e 1348     		ldr	r0, .L107
 1415              	.LVL153:
 1416              		.loc 2 666 0
 1417 0010 AD00     		lsls	r5, r5, #2
 1418              		.loc 2 659 0
 1419 0012 9946     		mov	r9, r3
 1420              		.loc 2 662 0
 1421 0014 FFF7FEFF 		bl	chMtxLock
 1422              	.LVL154:
 1423              		.loc 2 664 0
 1424 0018 2046     		mov	r0, r4
 1425 001a 08FB0652 		mla	r2, r8, r6, r5
ARM GAS  /tmp/ccNt54pG.s 			page 26


 1426 001e 1049     		ldr	r1, .L107+4
 1427 0020 FFF7FEFF 		bl	dyn_create_object_heap
 1428              	.LVL155:
 1429              		.loc 2 669 0
 1430 0024 0446     		mov	r4, r0
 1431              	.LVL156:
 1432 0026 98B1     		cbz	r0, .L103
 1433              	.LBB140:
 1434              	.LBB141:
 1435              		.file 5 "../../modules/ChibiOS/os/oslib/include/chobjfifos.h"
 1436              		.loc 5 134 0
 1437 0028 00F11007 		add	r7, r0, #16
 1438              	.LBE141:
 1439              	.LBE140:
 1440              		.loc 2 672 0
 1441 002c 0544     		add	r5, r5, r0
 1442              	.LVL157:
 1443              	.LBB143:
 1444              	.LBB142:
 1445              		.loc 5 134 0
 1446 002e 4A46     		mov	r2, r9
 1447 0030 4146     		mov	r1, r8
 1448 0032 3846     		mov	r0, r7
 1449              	.LVL158:
 1450 0034 FFF7FEFF 		bl	chGuardedPoolObjectInitAligned
 1451              	.LVL159:
 1452              		.loc 5 135 0
 1453 0038 3246     		mov	r2, r6
 1454 003a 2946     		mov	r1, r5
 1455 003c 3846     		mov	r0, r7
 1456 003e FFF7FEFF 		bl	chGuardedPoolLoadArray
 1457              	.LVL160:
 1458              		.loc 5 136 0
 1459 0042 3246     		mov	r2, r6
 1460 0044 04F15401 		add	r1, r4, #84
 1461              	.LVL161:
 1462 0048 04F12C00 		add	r0, r4, #44
 1463 004c FFF7FEFF 		bl	chMBObjectInit
 1464              	.LVL162:
 1465              	.L103:
 1466              	.LBE142:
 1467              	.LBE143:
 1468              		.loc 2 675 0
 1469 0050 0248     		ldr	r0, .L107
 1470 0052 FFF7FEFF 		bl	chMtxUnlock
 1471              	.LVL163:
 1472              		.loc 2 678 0
 1473 0056 2046     		mov	r0, r4
 1474 0058 BDE8F883 		pop	{r3, r4, r5, r6, r7, r8, r9, pc}
 1475              	.LVL164:
 1476              	.L108:
 1477              		.align	2
 1478              	.L107:
 1479 005c 00000000 		.word	.LANCHOR0
 1480 0060 40000000 		.word	.LANCHOR0+64
 1481              		.cfi_endproc
 1482              	.LFE312:
ARM GAS  /tmp/ccNt54pG.s 			page 27


 1483              		.size	chFactoryCreateObjectsFIFO, .-chFactoryCreateObjectsFIFO
 1484              		.section	.text.chFactoryFindObjectsFIFO,"ax",%progbits
 1485              		.align	1
 1486              		.global	chFactoryFindObjectsFIFO
 1487              		.syntax unified
 1488              		.thumb
 1489              		.thumb_func
 1490              		.fpu fpv4-sp-d16
 1491              		.type	chFactoryFindObjectsFIFO, %function
 1492              	chFactoryFindObjectsFIFO:
 1493              	.LFB313:
 1494              		.loc 2 694 0
 1495              		.cfi_startproc
 1496              		@ args = 0, pretend = 0, frame = 0
 1497              		@ frame_needed = 0, uses_anonymous_args = 0
 1498              	.LVL165:
 1499 0000 38B5     		push	{r3, r4, r5, lr}
 1500              		.cfi_def_cfa_offset 16
 1501              		.cfi_offset 3, -16
 1502              		.cfi_offset 4, -12
 1503              		.cfi_offset 5, -8
 1504              		.cfi_offset 14, -4
 1505              		.loc 2 697 0
 1506 0002 084C     		ldr	r4, .L110
 1507              		.loc 2 694 0
 1508 0004 0546     		mov	r5, r0
 1509              		.loc 2 697 0
 1510 0006 2046     		mov	r0, r4
 1511              	.LVL166:
 1512 0008 FFF7FEFF 		bl	chMtxLock
 1513              	.LVL167:
 1514              		.loc 2 699 0
 1515 000c 04F14001 		add	r1, r4, #64
 1516 0010 2846     		mov	r0, r5
 1517 0012 FFF7FEFF 		bl	dyn_find_object
 1518              	.LVL168:
 1519 0016 0546     		mov	r5, r0
 1520              	.LVL169:
 1521              		.loc 2 701 0
 1522 0018 2046     		mov	r0, r4
 1523              	.LVL170:
 1524 001a FFF7FEFF 		bl	chMtxUnlock
 1525              	.LVL171:
 1526              		.loc 2 704 0
 1527 001e 2846     		mov	r0, r5
 1528 0020 38BD     		pop	{r3, r4, r5, pc}
 1529              	.LVL172:
 1530              	.L111:
 1531 0022 00BF     		.align	2
 1532              	.L110:
 1533 0024 00000000 		.word	.LANCHOR0
 1534              		.cfi_endproc
 1535              	.LFE313:
 1536              		.size	chFactoryFindObjectsFIFO, .-chFactoryFindObjectsFIFO
 1537              		.section	.text.chFactoryReleaseObjectsFIFO,"ax",%progbits
 1538              		.align	1
 1539              		.global	chFactoryReleaseObjectsFIFO
ARM GAS  /tmp/ccNt54pG.s 			page 28


 1540              		.syntax unified
 1541              		.thumb
 1542              		.thumb_func
 1543              		.fpu fpv4-sp-d16
 1544              		.type	chFactoryReleaseObjectsFIFO, %function
 1545              	chFactoryReleaseObjectsFIFO:
 1546              	.LFB314:
 1547              		.loc 2 716 0
 1548              		.cfi_startproc
 1549              		@ args = 0, pretend = 0, frame = 0
 1550              		@ frame_needed = 0, uses_anonymous_args = 0
 1551              	.LVL173:
 1552 0000 38B5     		push	{r3, r4, r5, lr}
 1553              		.cfi_def_cfa_offset 16
 1554              		.cfi_offset 3, -16
 1555              		.cfi_offset 4, -12
 1556              		.cfi_offset 5, -8
 1557              		.cfi_offset 14, -4
 1558              		.loc 2 718 0
 1559 0002 074C     		ldr	r4, .L113
 1560              		.loc 2 716 0
 1561 0004 0546     		mov	r5, r0
 1562              		.loc 2 718 0
 1563 0006 2046     		mov	r0, r4
 1564              	.LVL174:
 1565 0008 FFF7FEFF 		bl	chMtxLock
 1566              	.LVL175:
 1567              		.loc 2 720 0
 1568 000c 2846     		mov	r0, r5
 1569 000e 04F14001 		add	r1, r4, #64
 1570 0012 FFF7FEFF 		bl	dyn_release_object_heap
 1571              	.LVL176:
 1572              		.loc 2 722 0
 1573 0016 2046     		mov	r0, r4
 1574              		.loc 2 723 0
 1575 0018 BDE83840 		pop	{r3, r4, r5, lr}
 1576              		.cfi_restore 14
 1577              		.cfi_restore 5
 1578              		.cfi_restore 4
 1579              		.cfi_restore 3
 1580              		.cfi_def_cfa_offset 0
 1581              	.LVL177:
 1582              		.loc 2 722 0
 1583 001c FFF7FEBF 		b	chMtxUnlock
 1584              	.LVL178:
 1585              	.L114:
 1586              		.align	2
 1587              	.L113:
 1588 0020 00000000 		.word	.LANCHOR0
 1589              		.cfi_endproc
 1590              	.LFE314:
 1591              		.size	chFactoryReleaseObjectsFIFO, .-chFactoryReleaseObjectsFIFO
 1592              		.global	ch_factory
 1593              		.section	.bss.ch_factory,"aw",%nobits
 1594              		.align	2
 1595              		.set	.LANCHOR0,. + 0
 1596              		.type	ch_factory, %object
ARM GAS  /tmp/ccNt54pG.s 			page 29


 1597              		.size	ch_factory, 68
 1598              	ch_factory:
 1599 0000 00000000 		.space	68
 1599      00000000 
 1599      00000000 
 1599      00000000 
 1599      00000000 
 1600              		.text
 1601              	.Letext0:
 1602              		.file 6 "/opt/gcc-arm-none-eabi-6-2017-q2-update/lib/gcc/arm-none-eabi/6.3.1/include/stddef.h"
 1603              		.file 7 "/opt/gcc-arm-none-eabi-6-2017-q2-update/arm-none-eabi/include/machine/_default_types.h"
 1604              		.file 8 "/opt/gcc-arm-none-eabi-6-2017-q2-update/arm-none-eabi/include/sys/lock.h"
 1605              		.file 9 "/opt/gcc-arm-none-eabi-6-2017-q2-update/arm-none-eabi/include/sys/_types.h"
 1606              		.file 10 "/opt/gcc-arm-none-eabi-6-2017-q2-update/arm-none-eabi/include/sys/reent.h"
 1607              		.file 11 "/opt/gcc-arm-none-eabi-6-2017-q2-update/arm-none-eabi/include/sys/_stdint.h"
 1608              		.file 12 "../../modules/ChibiOS/os/common/ports/ARMCMx/compilers/GCC/chtypes.h"
 1609              		.file 13 "../../modules/ChibiOS/os/rt/include/chsystypes.h"
 1610              		.file 14 "../../modules/ChibiOS/os/rt/include/chschd.h"
 1611              		.file 15 "../../modules/ChibiOS/os/rt/include/chtime.h"
 1612              		.file 16 "../../modules/ChibiOS/os/common/ext/ARM/CMSIS/Core/Include/core_cm4.h"
 1613              		.file 17 "../../modules/ChibiOS/os/common/ext/ST/STM32F4xx/system_stm32f4xx.h"
 1614              		.file 18 "../../modules/ChibiOS/os/common/ports/ARMCMx/chcore.h"
 1615              		.file 19 "../../modules/ChibiOS/os/common/ports/ARMCMx/chcore_v7m.h"
 1616              		.file 20 "../../modules/ChibiOS/os/rt/include/chtm.h"
 1617              		.file 21 "../../modules/ChibiOS/os/rt/include/chstats.h"
 1618              		.file 22 "../../modules/ChibiOS/os/rt/include/chsem.h"
 1619              		.file 23 "../../modules/ChibiOS/os/rt/include/chmtx.h"
 1620              		.file 24 "../../modules/ChibiOS/os/rt/include/chsys.h"
 1621              		.file 25 "../../modules/ChibiOS/os/rt/include/chregistry.h"
 1622              		.file 26 "../../modules/ChibiOS/os/oslib/include/chmboxes.h"
 1623              		.file 27 "../../modules/ChibiOS/os/oslib/include/chfactory.h"
 1624              		.file 28 "/opt/gcc-arm-none-eabi-6-2017-q2-update/arm-none-eabi/include/string.h"