ARM GAS  /tmp/ccqE7r6W.s 			page 1


   1              		.cpu cortex-m4
   2              		.eabi_attribute 27, 1
   3              		.eabi_attribute 28, 1
   4              		.eabi_attribute 20, 1
   5              		.eabi_attribute 21, 1
   6              		.eabi_attribute 23, 3
   7              		.eabi_attribute 24, 1
   8              		.eabi_attribute 25, 1
   9              		.eabi_attribute 26, 1
  10              		.eabi_attribute 30, 4
  11              		.eabi_attribute 34, 1
  12              		.eabi_attribute 18, 4
  13              		.file	"chmemheaps.c"
  14              		.text
  15              	.Ltext0:
  16              		.cfi_sections	.debug_frame
  17              		.section	.text._heap_init,"ax",%progbits
  18              		.align	1
  19              		.global	_heap_init
  20              		.syntax unified
  21              		.thumb
  22              		.thumb_func
  23              		.fpu fpv4-sp-d16
  24              		.type	_heap_init, %function
  25              	_heap_init:
  26              	.LFB290:
  27              		.file 1 "../../modules/ChibiOS/os/oslib/src/chmemheaps.c"
  28              		.loc 1 107 0
  29              		.cfi_startproc
  30              		@ args = 0, pretend = 0, frame = 0
  31              		@ frame_needed = 0, uses_anonymous_args = 0
  32              		@ link register save eliminated.
  33              		.loc 1 109 0
  34 0000 0448     		ldr	r0, .L2
  35 0002 054B     		ldr	r3, .L2+4
  36 0004 0360     		str	r3, [r0]
  37              		.loc 1 110 0
  38 0006 0023     		movs	r3, #0
  39 0008 4360     		str	r3, [r0, #4]
  40              		.loc 1 111 0
  41 000a 8360     		str	r3, [r0, #8]
  42              		.loc 1 113 0
  43 000c 0C30     		adds	r0, r0, #12
  44 000e FFF7FEBF 		b	chMtxObjectInit
  45              	.LVL0:
  46              	.L3:
  47 0012 00BF     		.align	2
  48              	.L2:
  49 0014 00000000 		.word	.LANCHOR0
  50 0018 00000000 		.word	chCoreAllocAlignedWithOffset
  51              		.cfi_endproc
  52              	.LFE290:
  53              		.size	_heap_init, .-_heap_init
  54              		.section	.text.chHeapObjectInit,"ax",%progbits
  55              		.align	1
  56              		.global	chHeapObjectInit
  57              		.syntax unified
ARM GAS  /tmp/ccqE7r6W.s 			page 2


  58              		.thumb
  59              		.thumb_func
  60              		.fpu fpv4-sp-d16
  61              		.type	chHeapObjectInit, %function
  62              	chHeapObjectInit:
  63              	.LFB291:
  64              		.loc 1 131 0
  65              		.cfi_startproc
  66              		@ args = 0, pretend = 0, frame = 0
  67              		@ frame_needed = 0, uses_anonymous_args = 0
  68              		@ link register save eliminated.
  69              	.LVL1:
  70              		.loc 1 132 0
  71 0000 CB1D     		adds	r3, r1, #7
  72 0002 23F00703 		bic	r3, r3, #7
  73              	.LVL2:
  74              		.loc 1 147 0
  75 0006 083A     		subs	r2, r2, #8
  76              	.LVL3:
  77              		.loc 1 139 0
  78 0008 591A     		subs	r1, r3, r1
  79              	.LVL4:
  80              		.loc 1 147 0
  81 000a 521A     		subs	r2, r2, r1
  82              	.LVL5:
  83              		.loc 1 131 0
  84 000c 10B4     		push	{r4}
  85              		.cfi_def_cfa_offset 4
  86              		.cfi_offset 4, -4
  87              		.loc 1 147 0
  88 000e D208     		lsrs	r2, r2, #3
  89              		.loc 1 143 0
  90 0010 0024     		movs	r4, #0
  91 0012 0460     		str	r4, [r0]
  92              		.loc 1 144 0
  93 0014 4360     		str	r3, [r0, #4]
  94              		.loc 1 145 0
  95 0016 8460     		str	r4, [r0, #8]
  96              		.loc 1 146 0
  97 0018 1C60     		str	r4, [r3]
  98              		.loc 1 147 0
  99 001a 5A60     		str	r2, [r3, #4]
 100              		.loc 1 149 0
 101 001c 0C30     		adds	r0, r0, #12
 102              	.LVL6:
 103              		.loc 1 153 0
 104 001e 5DF8044B 		ldr	r4, [sp], #4
 105              		.cfi_restore 4
 106              		.cfi_def_cfa_offset 0
 107              		.loc 1 149 0
 108 0022 FFF7FEBF 		b	chMtxObjectInit
 109              	.LVL7:
 110              		.cfi_endproc
 111              	.LFE291:
 112              		.size	chHeapObjectInit, .-chHeapObjectInit
 113              		.section	.text.chHeapAllocAligned,"ax",%progbits
 114              		.align	1
ARM GAS  /tmp/ccqE7r6W.s 			page 3


 115              		.global	chHeapAllocAligned
 116              		.syntax unified
 117              		.thumb
 118              		.thumb_func
 119              		.fpu fpv4-sp-d16
 120              		.type	chHeapAllocAligned, %function
 121              	chHeapAllocAligned:
 122              	.LFB292:
 123              		.loc 1 172 0
 124              		.cfi_startproc
 125              		@ args = 0, pretend = 0, frame = 0
 126              		@ frame_needed = 0, uses_anonymous_args = 0
 127              	.LVL8:
 128 0000 2DE9F84F 		push	{r3, r4, r5, r6, r7, r8, r9, r10, fp, lr}
 129              		.cfi_def_cfa_offset 40
 130              		.cfi_offset 3, -40
 131              		.cfi_offset 4, -36
 132              		.cfi_offset 5, -32
 133              		.cfi_offset 6, -28
 134              		.cfi_offset 7, -24
 135              		.cfi_offset 8, -20
 136              		.cfi_offset 9, -16
 137              		.cfi_offset 10, -12
 138              		.cfi_offset 11, -8
 139              		.cfi_offset 14, -4
 140              		.loc 1 180 0
 141 0004 354E     		ldr	r6, .L18
 142 0006 0028     		cmp	r0, #0
 143 0008 18BF     		it	ne
 144 000a 0646     		movne	r6, r0
 145              	.LVL9:
 146 000c 082A     		cmp	r2, #8
 147 000e 38BF     		it	cc
 148 0010 0822     		movcc	r2, #8
 149              	.LVL10:
 150              		.loc 1 192 0
 151 0012 06F10C08 		add	r8, r6, #12
 152 0016 9146     		mov	r9, r2
 153              	.LVL11:
 154              		.loc 1 189 0
 155 0018 CD1D     		adds	r5, r1, #7
 156              		.loc 1 192 0
 157 001a 4046     		mov	r0, r8
 158              		.loc 1 172 0
 159 001c 0F46     		mov	r7, r1
 160              		.loc 1 189 0
 161 001e ED08     		lsrs	r5, r5, #3
 162              	.LVL12:
 163              		.loc 1 192 0
 164 0020 FFF7FEFF 		bl	chMtxLock
 165              	.LVL13:
 166              		.loc 1 202 0
 167 0024 09F1FF3A 		add	r10, r9, #-1
 168              		.loc 1 195 0
 169 0028 06F1040E 		add	lr, r6, #4
 170              	.LVL14:
 171              		.loc 1 202 0
ARM GAS  /tmp/ccqE7r6W.s 			page 4


 172 002c C9F1000B 		rsb	fp, r9, #0
 173              	.LVL15:
 174              	.L7:
 175              		.loc 1 196 0
 176 0030 DEF80030 		ldr	r3, [lr]
 177 0034 6BB9     		cbnz	r3, .L13
 178              		.loc 1 264 0
 179 0036 4046     		mov	r0, r8
 180 0038 FFF7FEFF 		bl	chMtxUnlock
 181              	.LVL16:
 182              		.loc 1 268 0
 183 003c 3468     		ldr	r4, [r6]
 184 003e A4B3     		cbz	r4, .L5
 185              		.loc 1 269 0
 186 0040 0822     		movs	r2, #8
 187 0042 4946     		mov	r1, r9
 188 0044 E800     		lsls	r0, r5, #3
 189 0046 A047     		blx	r4
 190              	.LVL17:
 191              		.loc 1 272 0
 192 0048 08B1     		cbz	r0, .L16
 193              	.LVL18:
 194              		.loc 1 275 0
 195 004a 00E9C000 		stmdb	r0, {r6, r7}
 196              	.LVL19:
 197              	.L16:
 198              		.loc 1 283 0
 199 004e 0446     		mov	r4, r0
 200 0050 2BE0     		b	.L5
 201              	.LVL20:
 202              	.L13:
 203              		.loc 1 202 0
 204 0052 03F10801 		add	r1, r3, #8
 205              		.loc 1 204 0
 206 0056 D3F804C0 		ldr	ip, [r3, #4]
 207              		.loc 1 202 0
 208 005a 01EB0A02 		add	r2, r1, r10
 209 005e 02EA0B02 		and	r2, r2, fp
 210              		.loc 1 204 0
 211 0062 0CF10104 		add	r4, ip, #1
 212              		.loc 1 202 0
 213 0066 A2F10800 		sub	r0, r2, #8
 214              	.LVL21:
 215              		.loc 1 204 0
 216 006a 03EBC404 		add	r4, r3, r4, lsl #3
 217 006e A042     		cmp	r0, r4
 218 0070 32D2     		bcs	.L8
 219              		.loc 1 204 0 is_stmt 0 discriminator 1
 220 0072 A21A     		subs	r2, r4, r2
 221 0074 D210     		asrs	r2, r2, #3
 222 0076 9542     		cmp	r5, r2
 223 0078 2ED8     		bhi	.L8
 224              		.loc 1 208 0 is_stmt 1
 225 007a 8342     		cmp	r3, r0
 226 007c 18D2     		bcs	.L9
 227              	.LVL22:
 228              	.LBB2:
ARM GAS  /tmp/ccqE7r6W.s 			page 5


 229              		.loc 1 213 0
 230 007e 411A     		subs	r1, r0, r1
 231 0080 C910     		asrs	r1, r1, #3
 232              		.loc 1 214 0
 233 0082 9542     		cmp	r5, r2
 234              		.loc 1 213 0
 235 0084 5960     		str	r1, [r3, #4]
 236              		.loc 1 214 0
 237 0086 09D2     		bcs	.L10
 238              	.LBB3:
 239              		.loc 1 219 0
 240 0088 6C1C     		adds	r4, r5, #1
 241 008a 00EBC401 		add	r1, r0, r4, lsl #3
 242              	.LVL23:
 243              		.loc 1 220 0
 244 008e ED43     		mvns	r5, r5
 245              	.LVL24:
 246 0090 2A44     		add	r2, r2, r5
 247              	.LVL25:
 248 0092 4A60     		str	r2, [r1, #4]
 249              		.loc 1 223 0
 250 0094 1A68     		ldr	r2, [r3]
 251 0096 40F83420 		str	r2, [r0, r4, lsl #3]
 252              		.loc 1 224 0
 253 009a 1960     		str	r1, [r3]
 254              	.LVL26:
 255              	.L10:
 256              	.LBE3:
 257              	.LBE2:
 258              		.loc 1 249 0
 259 009c 0446     		mov	r4, r0
 260              		.loc 1 248 0
 261 009e 4760     		str	r7, [r0, #4]
 262              		.loc 1 249 0
 263 00a0 44F8086B 		str	r6, [r4], #8
 264              		.loc 1 252 0
 265 00a4 4046     		mov	r0, r8
 266              	.LVL27:
 267 00a6 FFF7FEFF 		bl	chMtxUnlock
 268              	.LVL28:
 269              	.L5:
 270              		.loc 1 284 0
 271 00aa 2046     		mov	r0, r4
 272 00ac BDE8F88F 		pop	{r3, r4, r5, r6, r7, r8, r9, r10, fp, pc}
 273              	.LVL29:
 274              	.L9:
 275              		.loc 1 232 0
 276 00b0 6545     		cmp	r5, ip
 277 00b2 1968     		ldr	r1, [r3]
 278 00b4 03D1     		bne	.L11
 279              		.loc 1 234 0
 280 00b6 CEF80010 		str	r1, [lr]
 281              	.LVL30:
 282              	.L17:
 283              	.LBB4:
 284              		.loc 1 243 0
 285 00ba 1846     		mov	r0, r3
ARM GAS  /tmp/ccqE7r6W.s 			page 6


 286              	.LVL31:
 287 00bc EEE7     		b	.L10
 288              	.LVL32:
 289              	.L11:
 290              		.loc 1 240 0
 291 00be 0135     		adds	r5, r5, #1
 292              	.LVL33:
 293 00c0 03EBC502 		add	r2, r3, r5, lsl #3
 294              	.LVL34:
 295              		.loc 1 241 0
 296 00c4 43F83510 		str	r1, [r3, r5, lsl #3]
 297              		.loc 1 242 0
 298 00c8 02F10801 		add	r1, r2, #8
 299 00cc 641A     		subs	r4, r4, r1
 300 00ce E410     		asrs	r4, r4, #3
 301 00d0 5460     		str	r4, [r2, #4]
 302              		.loc 1 243 0
 303 00d2 CEF80020 		str	r2, [lr]
 304 00d6 F0E7     		b	.L17
 305              	.LVL35:
 306              	.L8:
 307 00d8 9E46     		mov	lr, r3
 308              	.LVL36:
 309 00da A9E7     		b	.L7
 310              	.L19:
 311              		.align	2
 312              	.L18:
 313 00dc 00000000 		.word	.LANCHOR0
 314              	.LBE4:
 315              		.cfi_endproc
 316              	.LFE292:
 317              		.size	chHeapAllocAligned, .-chHeapAllocAligned
 318              		.section	.text.chHeapFree,"ax",%progbits
 319              		.align	1
 320              		.global	chHeapFree
 321              		.syntax unified
 322              		.thumb
 323              		.thumb_func
 324              		.fpu fpv4-sp-d16
 325              		.type	chHeapFree, %function
 326              	chHeapFree:
 327              	.LFB293:
 328              		.loc 1 293 0
 329              		.cfi_startproc
 330              		@ args = 0, pretend = 0, frame = 0
 331              		@ frame_needed = 0, uses_anonymous_args = 0
 332              	.LVL37:
 333 0000 F8B5     		push	{r3, r4, r5, r6, r7, lr}
 334              		.cfi_def_cfa_offset 24
 335              		.cfi_offset 3, -24
 336              		.cfi_offset 4, -20
 337              		.cfi_offset 5, -16
 338              		.cfi_offset 6, -12
 339              		.cfi_offset 7, -8
 340              		.cfi_offset 14, -4
 341              		.loc 1 306 0
 342 0002 50F8043C 		ldr	r3, [r0, #-4]
ARM GAS  /tmp/ccqE7r6W.s 			page 7


 343              		.loc 1 302 0
 344 0006 50F8086C 		ldr	r6, [r0, #-8]
 345              		.loc 1 306 0
 346 000a 0733     		adds	r3, r3, #7
 347              		.loc 1 307 0
 348 000c DB08     		lsrs	r3, r3, #3
 349              		.loc 1 303 0
 350 000e 371D     		adds	r7, r6, #4
 351              		.loc 1 310 0
 352 0010 0C36     		adds	r6, r6, #12
 353              		.loc 1 306 0
 354 0012 40F8043C 		str	r3, [r0, #-4]
 355              		.loc 1 293 0
 356 0016 0446     		mov	r4, r0
 357              		.loc 1 300 0
 358 0018 A0F10805 		sub	r5, r0, #8
 359              	.LVL38:
 360              		.loc 1 310 0
 361 001c 3046     		mov	r0, r6
 362              	.LVL39:
 363 001e FFF7FEFF 		bl	chMtxLock
 364              	.LVL40:
 365              		.loc 1 303 0
 366 0022 3B46     		mov	r3, r7
 367              	.LVL41:
 368              	.L26:
 369              		.loc 1 315 0
 370 0024 BB42     		cmp	r3, r7
 371 0026 1A68     		ldr	r2, [r3]
 372 0028 01D0     		beq	.L21
 373              		.loc 1 315 0 is_stmt 0 discriminator 2
 374 002a AB42     		cmp	r3, r5
 375 002c 29D2     		bcs	.L22
 376              	.L21:
 377              		.loc 1 315 0 discriminator 3
 378 002e 0AB1     		cbz	r2, .L23
 379              		.loc 1 316 0 is_stmt 1
 380 0030 9542     		cmp	r5, r2
 381 0032 26D2     		bcs	.L22
 382              	.L23:
 383              		.loc 1 318 0
 384 0034 44F8082C 		str	r2, [r4, #-8]
 385              		.loc 1 319 0
 386 0038 1D60     		str	r5, [r3]
 387              		.loc 1 321 0
 388 003a 54F8042C 		ldr	r2, [r4, #-4]
 389 003e 54F8080C 		ldr	r0, [r4, #-8]
 390 0042 0132     		adds	r2, r2, #1
 391 0044 05EBC201 		add	r1, r5, r2, lsl #3
 392 0048 8142     		cmp	r1, r0
 393 004a 07D1     		bne	.L24
 394              		.loc 1 323 0
 395 004c 4968     		ldr	r1, [r1, #4]
 396 004e 1144     		add	r1, r1, r2
 397 0050 44F8041C 		str	r1, [r4, #-4]
 398              		.loc 1 324 0
 399 0054 55F83220 		ldr	r2, [r5, r2, lsl #3]
ARM GAS  /tmp/ccqE7r6W.s 			page 8


 400 0058 44F8082C 		str	r2, [r4, #-8]
 401              	.L24:
 402              		.loc 1 326 0
 403 005c 5868     		ldr	r0, [r3, #4]
 404 005e 411C     		adds	r1, r0, #1
 405 0060 03EBC101 		add	r1, r3, r1, lsl #3
 406 0064 8D42     		cmp	r5, r1
 407 0066 07D1     		bne	.L25
 408              		.loc 1 328 0
 409 0068 54F8042C 		ldr	r2, [r4, #-4]
 410 006c 0132     		adds	r2, r2, #1
 411 006e 0244     		add	r2, r2, r0
 412 0070 5A60     		str	r2, [r3, #4]
 413              		.loc 1 329 0
 414 0072 54F8082C 		ldr	r2, [r4, #-8]
 415 0076 1A60     		str	r2, [r3]
 416              	.L25:
 417              		.loc 1 337 0
 418 0078 3046     		mov	r0, r6
 419              		.loc 1 340 0
 420 007a BDE8F840 		pop	{r3, r4, r5, r6, r7, lr}
 421              		.cfi_remember_state
 422              		.cfi_restore 14
 423              		.cfi_restore 7
 424              		.cfi_restore 6
 425              		.cfi_restore 5
 426              		.cfi_restore 4
 427              		.cfi_restore 3
 428              		.cfi_def_cfa_offset 0
 429              	.LVL42:
 430              		.loc 1 337 0
 431 007e FFF7FEBF 		b	chMtxUnlock
 432              	.LVL43:
 433              	.L22:
 434              		.cfi_restore_state
 435              		.loc 1 333 0
 436 0082 1346     		mov	r3, r2
 437              	.LVL44:
 438              		.loc 1 313 0
 439 0084 CEE7     		b	.L26
 440              		.cfi_endproc
 441              	.LFE293:
 442              		.size	chHeapFree, .-chHeapFree
 443              		.section	.text.chHeapStatus,"ax",%progbits
 444              		.align	1
 445              		.global	chHeapStatus
 446              		.syntax unified
 447              		.thumb
 448              		.thumb_func
 449              		.fpu fpv4-sp-d16
 450              		.type	chHeapStatus, %function
 451              	chHeapStatus:
 452              	.LFB294:
 453              		.loc 1 357 0
 454              		.cfi_startproc
 455              		@ args = 0, pretend = 0, frame = 0
 456              		@ frame_needed = 0, uses_anonymous_args = 0
ARM GAS  /tmp/ccqE7r6W.s 			page 9


 457              	.LVL45:
 458 0000 2DE9F041 		push	{r4, r5, r6, r7, r8, lr}
 459              		.cfi_def_cfa_offset 24
 460              		.cfi_offset 4, -24
 461              		.cfi_offset 5, -20
 462              		.cfi_offset 6, -16
 463              		.cfi_offset 7, -12
 464              		.cfi_offset 8, -8
 465              		.cfi_offset 14, -4
 466              		.loc 1 362 0
 467 0004 134C     		ldr	r4, .L42
 468 0006 0028     		cmp	r0, #0
 469 0008 18BF     		it	ne
 470 000a 0446     		movne	r4, r0
 471              	.LVL46:
 472              		.loc 1 365 0
 473 000c 04F10C06 		add	r6, r4, #12
 474 0010 3046     		mov	r0, r6
 475              		.loc 1 357 0
 476 0012 8846     		mov	r8, r1
 477 0014 1746     		mov	r7, r2
 478              		.loc 1 365 0
 479 0016 FFF7FEFF 		bl	chMtxLock
 480              	.LVL47:
 481              		.loc 1 367 0
 482 001a 0023     		movs	r3, #0
 483              		.loc 1 369 0
 484 001c 201D     		adds	r0, r4, #4
 485              	.LVL48:
 486              		.loc 1 368 0
 487 001e 1D46     		mov	r5, r3
 488              		.loc 1 366 0
 489 0020 1C46     		mov	r4, r3
 490              	.LVL49:
 491              	.L32:
 492              		.loc 1 370 0
 493 0022 0068     		ldr	r0, [r0]
 494              	.LVL50:
 495 0024 70B9     		cbnz	r0, .L33
 496              		.loc 1 384 0
 497 0026 B8F1000F 		cmp	r8, #0
 498 002a 02D0     		beq	.L34
 499              		.loc 1 385 0
 500 002c E400     		lsls	r4, r4, #3
 501              	.LVL51:
 502 002e C8F80040 		str	r4, [r8]
 503              	.L34:
 504              		.loc 1 389 0
 505 0032 0FB1     		cbz	r7, .L35
 506              		.loc 1 390 0
 507 0034 DB00     		lsls	r3, r3, #3
 508              	.LVL52:
 509 0036 3B60     		str	r3, [r7]
 510              	.L35:
 511              		.loc 1 392 0
 512 0038 3046     		mov	r0, r6
 513 003a FFF7FEFF 		bl	chMtxUnlock
ARM GAS  /tmp/ccqE7r6W.s 			page 10


 514              	.LVL53:
 515              		.loc 1 395 0
 516 003e 2846     		mov	r0, r5
 517 0040 BDE8F081 		pop	{r4, r5, r6, r7, r8, pc}
 518              	.LVL54:
 519              	.L33:
 520              	.LBB5:
 521              		.loc 1 371 0
 522 0044 4268     		ldr	r2, [r0, #4]
 523              	.LVL55:
 524 0046 9342     		cmp	r3, r2
 525              		.loc 1 374 0
 526 0048 05F10105 		add	r5, r5, #1
 527              	.LVL56:
 528              		.loc 1 375 0
 529 004c 1444     		add	r4, r4, r2
 530              	.LVL57:
 531 004e 38BF     		it	cc
 532 0050 1346     		movcc	r3, r2
 533              	.LVL58:
 534 0052 E6E7     		b	.L32
 535              	.L43:
 536              		.align	2
 537              	.L42:
 538 0054 00000000 		.word	.LANCHOR0
 539              	.LBE5:
 540              		.cfi_endproc
 541              	.LFE294:
 542              		.size	chHeapStatus, .-chHeapStatus
 543              		.section	.bss.default_heap,"aw",%nobits
 544              		.align	2
 545              		.set	.LANCHOR0,. + 0
 546              		.type	default_heap, %object
 547              		.size	default_heap, 28
 548              	default_heap:
 549 0000 00000000 		.space	28
 549      00000000 
 549      00000000 
 549      00000000 
 549      00000000 
 550              		.text
 551              	.Letext0:
 552              		.file 2 "/opt/gcc-arm-none-eabi-6-2017-q2-update/lib/gcc/arm-none-eabi/6.3.1/include/stddef.h"
 553              		.file 3 "/opt/gcc-arm-none-eabi-6-2017-q2-update/arm-none-eabi/include/machine/_default_types.h"
 554              		.file 4 "/opt/gcc-arm-none-eabi-6-2017-q2-update/arm-none-eabi/include/sys/_stdint.h"
 555              		.file 5 "../../modules/ChibiOS/os/common/ports/ARMCMx/compilers/GCC/chtypes.h"
 556              		.file 6 "../../modules/ChibiOS/os/rt/include/chsystypes.h"
 557              		.file 7 "../../modules/ChibiOS/os/rt/include/chschd.h"
 558              		.file 8 "../../modules/ChibiOS/os/rt/include/chtime.h"
 559              		.file 9 "../../modules/ChibiOS/os/common/ext/ARM/CMSIS/Core/Include/core_cm4.h"
 560              		.file 10 "../../modules/ChibiOS/os/common/ext/ST/STM32F4xx/system_stm32f4xx.h"
 561              		.file 11 "../../modules/ChibiOS/os/common/ports/ARMCMx/chcore.h"
 562              		.file 12 "../../modules/ChibiOS/os/common/ports/ARMCMx/chcore_v7m.h"
 563              		.file 13 "../../modules/ChibiOS/os/rt/include/chtm.h"
 564              		.file 14 "../../modules/ChibiOS/os/rt/include/chstats.h"
 565              		.file 15 "../../modules/ChibiOS/os/rt/include/chsem.h"
 566              		.file 16 "../../modules/ChibiOS/os/rt/include/chmtx.h"
ARM GAS  /tmp/ccqE7r6W.s 			page 11


 567              		.file 17 "../../modules/ChibiOS/os/rt/include/chsys.h"
 568              		.file 18 "../../modules/ChibiOS/os/rt/include/chregistry.h"
 569              		.file 19 "../../modules/ChibiOS/os/oslib/include/chmemcore.h"
 570              		.file 20 "../../modules/ChibiOS/os/oslib/include/chmemheaps.h"
 571              		.file 21 "../../modules/ChibiOS/os/oslib/include/chmempools.h"
 572              		.file 22 "../../modules/ChibiOS/os/oslib/include/chfactory.h"
 573              		.section	.debug_info,"",%progbits
 574              	.Ldebug_info0:
 575 0000 7C0F0000 		.4byte	0xf7c
 576 0004 0400     		.2byte	0x4
 577 0006 00000000 		.4byte	.Ldebug_abbrev0
 578 000a 04       		.byte	0x4
 579 000b 01       		.uleb128 0x1
 580 000c 4C010000 		.4byte	.LASF183
 581 0010 0C       		.byte	0xc
 582 0011 74040000 		.4byte	.LASF184
 583 0015 81080000 		.4byte	.LASF185
 584 0019 00000000 		.4byte	.Ldebug_ranges0+0
 585 001d 00000000 		.4byte	0
 586 0021 00000000 		.4byte	.Ldebug_line0
 587 0025 02       		.uleb128 0x2
 588 0026 04       		.byte	0x4
 589 0027 05       		.byte	0x5
 590 0028 696E7400 		.ascii	"int\000"
 591 002c 03       		.uleb128 0x3
 592 002d 14000000 		.4byte	.LASF4
 593 0031 02       		.byte	0x2
 594 0032 D8       		.byte	0xd8
 595 0033 37000000 		.4byte	0x37
 596 0037 04       		.uleb128 0x4
 597 0038 04       		.byte	0x4
 598 0039 07       		.byte	0x7
 599 003a 31030000 		.4byte	.LASF0
 600 003e 04       		.uleb128 0x4
 601 003f 08       		.byte	0x8
 602 0040 05       		.byte	0x5
 603 0041 04030000 		.4byte	.LASF1
 604 0045 04       		.uleb128 0x4
 605 0046 08       		.byte	0x8
 606 0047 04       		.byte	0x4
 607 0048 D7040000 		.4byte	.LASF2
 608 004c 04       		.uleb128 0x4
 609 004d 01       		.byte	0x1
 610 004e 06       		.byte	0x6
 611 004f 34010000 		.4byte	.LASF3
 612 0053 03       		.uleb128 0x3
 613 0054 43000000 		.4byte	.LASF5
 614 0058 03       		.byte	0x3
 615 0059 2B       		.byte	0x2b
 616 005a 5E000000 		.4byte	0x5e
 617 005e 04       		.uleb128 0x4
 618 005f 01       		.byte	0x1
 619 0060 08       		.byte	0x8
 620 0061 DE050000 		.4byte	.LASF6
 621 0065 04       		.uleb128 0x4
 622 0066 02       		.byte	0x2
 623 0067 05       		.byte	0x5
ARM GAS  /tmp/ccqE7r6W.s 			page 12


 624 0068 02060000 		.4byte	.LASF7
 625 006c 03       		.uleb128 0x3
 626 006d F2060000 		.4byte	.LASF8
 627 0071 03       		.byte	0x3
 628 0072 39       		.byte	0x39
 629 0073 77000000 		.4byte	0x77
 630 0077 04       		.uleb128 0x4
 631 0078 02       		.byte	0x2
 632 0079 07       		.byte	0x7
 633 007a 70070000 		.4byte	.LASF9
 634 007e 03       		.uleb128 0x3
 635 007f 3D040000 		.4byte	.LASF10
 636 0083 03       		.byte	0x3
 637 0084 4D       		.byte	0x4d
 638 0085 89000000 		.4byte	0x89
 639 0089 04       		.uleb128 0x4
 640 008a 04       		.byte	0x4
 641 008b 05       		.byte	0x5
 642 008c 83020000 		.4byte	.LASF11
 643 0090 03       		.uleb128 0x3
 644 0091 C4020000 		.4byte	.LASF12
 645 0095 03       		.byte	0x3
 646 0096 4F       		.byte	0x4f
 647 0097 9B000000 		.4byte	0x9b
 648 009b 04       		.uleb128 0x4
 649 009c 04       		.byte	0x4
 650 009d 07       		.byte	0x7
 651 009e B8060000 		.4byte	.LASF13
 652 00a2 03       		.uleb128 0x3
 653 00a3 53050000 		.4byte	.LASF14
 654 00a7 03       		.byte	0x3
 655 00a8 69       		.byte	0x69
 656 00a9 AD000000 		.4byte	0xad
 657 00ad 04       		.uleb128 0x4
 658 00ae 08       		.byte	0x8
 659 00af 07       		.byte	0x7
 660 00b0 A7000000 		.4byte	.LASF15
 661 00b4 03       		.uleb128 0x3
 662 00b5 13080000 		.4byte	.LASF16
 663 00b9 04       		.byte	0x4
 664 00ba 18       		.byte	0x18
 665 00bb 53000000 		.4byte	0x53
 666 00bf 05       		.uleb128 0x5
 667 00c0 B4000000 		.4byte	0xb4
 668 00c4 03       		.uleb128 0x3
 669 00c5 3E030000 		.4byte	.LASF17
 670 00c9 04       		.byte	0x4
 671 00ca 24       		.byte	0x24
 672 00cb 6C000000 		.4byte	0x6c
 673 00cf 03       		.uleb128 0x3
 674 00d0 D6050000 		.4byte	.LASF18
 675 00d4 04       		.byte	0x4
 676 00d5 2C       		.byte	0x2c
 677 00d6 7E000000 		.4byte	0x7e
 678 00da 06       		.uleb128 0x6
 679 00db CF000000 		.4byte	0xcf
 680 00df 03       		.uleb128 0x3
ARM GAS  /tmp/ccqE7r6W.s 			page 13


 681 00e0 8D060000 		.4byte	.LASF19
 682 00e4 04       		.byte	0x4
 683 00e5 30       		.byte	0x30
 684 00e6 90000000 		.4byte	0x90
 685 00ea 03       		.uleb128 0x3
 686 00eb 2D000000 		.4byte	.LASF20
 687 00ef 04       		.byte	0x4
 688 00f0 3C       		.byte	0x3c
 689 00f1 A2000000 		.4byte	0xa2
 690 00f5 03       		.uleb128 0x3
 691 00f6 9F070000 		.4byte	.LASF21
 692 00fa 05       		.byte	0x5
 693 00fb 27       		.byte	0x27
 694 00fc DF000000 		.4byte	0xdf
 695 0100 03       		.uleb128 0x3
 696 0101 17010000 		.4byte	.LASF22
 697 0105 05       		.byte	0x5
 698 0106 28       		.byte	0x28
 699 0107 EA000000 		.4byte	0xea
 700 010b 03       		.uleb128 0x3
 701 010c FB030000 		.4byte	.LASF23
 702 0110 05       		.byte	0x5
 703 0111 2A       		.byte	0x2a
 704 0112 B4000000 		.4byte	0xb4
 705 0116 03       		.uleb128 0x3
 706 0117 8C020000 		.4byte	.LASF24
 707 011b 05       		.byte	0x5
 708 011c 2B       		.byte	0x2b
 709 011d B4000000 		.4byte	0xb4
 710 0121 03       		.uleb128 0x3
 711 0122 78050000 		.4byte	.LASF25
 712 0126 05       		.byte	0x5
 713 0127 2C       		.byte	0x2c
 714 0128 B4000000 		.4byte	0xb4
 715 012c 03       		.uleb128 0x3
 716 012d B6050000 		.4byte	.LASF26
 717 0131 05       		.byte	0x5
 718 0132 2E       		.byte	0x2e
 719 0133 DF000000 		.4byte	0xdf
 720 0137 03       		.uleb128 0x3
 721 0138 BF030000 		.4byte	.LASF27
 722 013c 05       		.byte	0x5
 723 013d 2F       		.byte	0x2f
 724 013e CF000000 		.4byte	0xcf
 725 0142 03       		.uleb128 0x3
 726 0143 1C040000 		.4byte	.LASF28
 727 0147 05       		.byte	0x5
 728 0148 31       		.byte	0x31
 729 0149 DF000000 		.4byte	0xdf
 730 014d 03       		.uleb128 0x3
 731 014e 2B030000 		.4byte	.LASF29
 732 0152 05       		.byte	0x5
 733 0153 33       		.byte	0x33
 734 0154 CF000000 		.4byte	0xcf
 735 0158 03       		.uleb128 0x3
 736 0159 CA030000 		.4byte	.LASF30
 737 015d 05       		.byte	0x5
ARM GAS  /tmp/ccqE7r6W.s 			page 14


 738 015e 34       		.byte	0x34
 739 015f DF000000 		.4byte	0xdf
 740 0163 03       		.uleb128 0x3
 741 0164 FD060000 		.4byte	.LASF31
 742 0168 06       		.byte	0x6
 743 0169 34       		.byte	0x34
 744 016a 6E010000 		.4byte	0x16e
 745 016e 07       		.uleb128 0x7
 746 016f B5030000 		.4byte	.LASF50
 747 0173 60       		.byte	0x60
 748 0174 07       		.byte	0x7
 749 0175 8E       		.byte	0x8e
 750 0176 59020000 		.4byte	0x259
 751 017a 08       		.uleb128 0x8
 752 017b 8C030000 		.4byte	.LASF32
 753 017f 07       		.byte	0x7
 754 0180 8F       		.byte	0x8f
 755 0181 8E020000 		.4byte	0x28e
 756 0185 00       		.byte	0
 757 0186 08       		.uleb128 0x8
 758 0187 3D050000 		.4byte	.LASF33
 759 018b 07       		.byte	0x7
 760 018c 90       		.byte	0x90
 761 018d 2C010000 		.4byte	0x12c
 762 0191 08       		.byte	0x8
 763 0192 09       		.uleb128 0x9
 764 0193 63747800 		.ascii	"ctx\000"
 765 0197 07       		.byte	0x7
 766 0198 91       		.byte	0x91
 767 0199 00050000 		.4byte	0x500
 768 019d 0C       		.byte	0xc
 769 019e 08       		.uleb128 0x8
 770 019f B4070000 		.4byte	.LASF34
 771 01a3 07       		.byte	0x7
 772 01a4 93       		.byte	0x93
 773 01a5 64020000 		.4byte	0x264
 774 01a9 10       		.byte	0x10
 775 01aa 08       		.uleb128 0x8
 776 01ab E3060000 		.4byte	.LASF35
 777 01af 07       		.byte	0x7
 778 01b0 94       		.byte	0x94
 779 01b1 64020000 		.4byte	0x264
 780 01b5 14       		.byte	0x14
 781 01b6 08       		.uleb128 0x8
 782 01b7 B0030000 		.4byte	.LASF36
 783 01bb 07       		.byte	0x7
 784 01bc 9B       		.byte	0x9b
 785 01bd E6070000 		.4byte	0x7e6
 786 01c1 18       		.byte	0x18
 787 01c2 08       		.uleb128 0x8
 788 01c3 CA060000 		.4byte	.LASF37
 789 01c7 07       		.byte	0x7
 790 01c8 A4       		.byte	0xa4
 791 01c9 FD070000 		.4byte	0x7fd
 792 01cd 1C       		.byte	0x1c
 793 01ce 08       		.uleb128 0x8
 794 01cf 7D020000 		.4byte	.LASF38
ARM GAS  /tmp/ccqE7r6W.s 			page 15


 795 01d3 07       		.byte	0x7
 796 01d4 A9       		.byte	0xa9
 797 01d5 16010000 		.4byte	0x116
 798 01d9 20       		.byte	0x20
 799 01da 08       		.uleb128 0x8
 800 01db 1B080000 		.4byte	.LASF39
 801 01df 07       		.byte	0x7
 802 01e0 AD       		.byte	0xad
 803 01e1 0B010000 		.4byte	0x10b
 804 01e5 21       		.byte	0x21
 805 01e6 08       		.uleb128 0x8
 806 01e7 8B050000 		.4byte	.LASF40
 807 01eb 07       		.byte	0x7
 808 01ec B2       		.byte	0xb2
 809 01ed 21010000 		.4byte	0x121
 810 01f1 22       		.byte	0x22
 811 01f2 0A       		.uleb128 0xa
 812 01f3 7500     		.ascii	"u\000"
 813 01f5 07       		.byte	0x7
 814 01f6 0301     		.2byte	0x103
 815 01f8 1C070000 		.4byte	0x71c
 816 01fc 24       		.byte	0x24
 817 01fd 0B       		.uleb128 0xb
 818 01fe F1020000 		.4byte	.LASF41
 819 0202 07       		.byte	0x7
 820 0203 0801     		.2byte	0x108
 821 0205 6A020000 		.4byte	0x26a
 822 0209 28       		.byte	0x28
 823 020a 0B       		.uleb128 0xb
 824 020b 74020000 		.4byte	.LASF42
 825 020f 07       		.byte	0x7
 826 0210 0E01     		.2byte	0x10e
 827 0212 8E020000 		.4byte	0x28e
 828 0216 2C       		.byte	0x2c
 829 0217 0B       		.uleb128 0xb
 830 0218 D1030000 		.4byte	.LASF43
 831 021c 07       		.byte	0x7
 832 021d 1401     		.2byte	0x114
 833 021f 42010000 		.4byte	0x142
 834 0223 34       		.byte	0x34
 835 0224 0B       		.uleb128 0xb
 836 0225 67080000 		.4byte	.LASF44
 837 0229 07       		.byte	0x7
 838 022a 1B01     		.2byte	0x11b
 839 022c E0070000 		.4byte	0x7e0
 840 0230 38       		.byte	0x38
 841 0231 0B       		.uleb128 0xb
 842 0232 63040000 		.4byte	.LASF45
 843 0236 07       		.byte	0x7
 844 0237 1F01     		.2byte	0x11f
 845 0239 2C010000 		.4byte	0x12c
 846 023d 3C       		.byte	0x3c
 847 023e 0B       		.uleb128 0xb
 848 023f 92030000 		.4byte	.LASF46
 849 0243 07       		.byte	0x7
 850 0244 2601     		.2byte	0x126
 851 0246 41030000 		.4byte	0x341
ARM GAS  /tmp/ccqE7r6W.s 			page 16


 852 024a 40       		.byte	0x40
 853 024b 0B       		.uleb128 0xb
 854 024c 9A020000 		.4byte	.LASF47
 855 0250 07       		.byte	0x7
 856 0251 2C01     		.2byte	0x12c
 857 0253 CD060000 		.4byte	0x6cd
 858 0257 48       		.byte	0x48
 859 0258 00       		.byte	0
 860 0259 03       		.uleb128 0x3
 861 025a AD040000 		.4byte	.LASF48
 862 025e 06       		.byte	0x6
 863 025f 39       		.byte	0x39
 864 0260 64020000 		.4byte	0x264
 865 0264 0C       		.uleb128 0xc
 866 0265 04       		.byte	0x4
 867 0266 63010000 		.4byte	0x163
 868 026a 03       		.uleb128 0x3
 869 026b 32080000 		.4byte	.LASF49
 870 026f 06       		.byte	0x6
 871 0270 3E       		.byte	0x3e
 872 0271 75020000 		.4byte	0x275
 873 0275 07       		.uleb128 0x7
 874 0276 9D060000 		.4byte	.LASF51
 875 027a 04       		.byte	0x4
 876 027b 07       		.byte	0x7
 877 027c 7C       		.byte	0x7c
 878 027d 8E020000 		.4byte	0x28e
 879 0281 08       		.uleb128 0x8
 880 0282 1B000000 		.4byte	.LASF52
 881 0286 07       		.byte	0x7
 882 0287 7D       		.byte	0x7d
 883 0288 64020000 		.4byte	0x264
 884 028c 00       		.byte	0
 885 028d 00       		.byte	0
 886 028e 03       		.uleb128 0x3
 887 028f EE070000 		.4byte	.LASF53
 888 0293 06       		.byte	0x6
 889 0294 45       		.byte	0x45
 890 0295 99020000 		.4byte	0x299
 891 0299 07       		.uleb128 0x7
 892 029a C3080000 		.4byte	.LASF54
 893 029e 08       		.byte	0x8
 894 029f 07       		.byte	0x7
 895 02a0 83       		.byte	0x83
 896 02a1 BE020000 		.4byte	0x2be
 897 02a5 08       		.uleb128 0x8
 898 02a6 1B000000 		.4byte	.LASF52
 899 02aa 07       		.byte	0x7
 900 02ab 84       		.byte	0x84
 901 02ac 64020000 		.4byte	0x264
 902 02b0 00       		.byte	0
 903 02b1 08       		.uleb128 0x8
 904 02b2 4D000000 		.4byte	.LASF55
 905 02b6 07       		.byte	0x7
 906 02b7 85       		.byte	0x85
 907 02b8 64020000 		.4byte	0x264
 908 02bc 04       		.byte	0x4
ARM GAS  /tmp/ccqE7r6W.s 			page 17


 909 02bd 00       		.byte	0
 910 02be 03       		.uleb128 0x3
 911 02bf 07000000 		.4byte	.LASF56
 912 02c3 06       		.byte	0x6
 913 02c4 4C       		.byte	0x4c
 914 02c5 C9020000 		.4byte	0x2c9
 915 02c9 0D       		.uleb128 0xd
 916 02ca 0E040000 		.4byte	.LASF57
 917 02ce 1C       		.byte	0x1c
 918 02cf 07       		.byte	0x7
 919 02d0 5E01     		.2byte	0x15e
 920 02d2 25030000 		.4byte	0x325
 921 02d6 0B       		.uleb128 0xb
 922 02d7 8C030000 		.4byte	.LASF32
 923 02db 07       		.byte	0x7
 924 02dc 5F01     		.2byte	0x15f
 925 02de 8E020000 		.4byte	0x28e
 926 02e2 00       		.byte	0
 927 02e3 0B       		.uleb128 0xb
 928 02e4 3D050000 		.4byte	.LASF33
 929 02e8 07       		.byte	0x7
 930 02e9 6001     		.2byte	0x160
 931 02eb 2C010000 		.4byte	0x12c
 932 02ef 08       		.byte	0x8
 933 02f0 0A       		.uleb128 0xa
 934 02f1 63747800 		.ascii	"ctx\000"
 935 02f5 07       		.byte	0x7
 936 02f6 6201     		.2byte	0x162
 937 02f8 00050000 		.4byte	0x500
 938 02fc 0C       		.byte	0xc
 939 02fd 0B       		.uleb128 0xb
 940 02fe B4070000 		.4byte	.LASF34
 941 0302 07       		.byte	0x7
 942 0303 6501     		.2byte	0x165
 943 0305 64020000 		.4byte	0x264
 944 0309 10       		.byte	0x10
 945 030a 0B       		.uleb128 0xb
 946 030b E3060000 		.4byte	.LASF35
 947 030f 07       		.byte	0x7
 948 0310 6601     		.2byte	0x166
 949 0312 64020000 		.4byte	0x264
 950 0316 14       		.byte	0x14
 951 0317 0B       		.uleb128 0xb
 952 0318 4B050000 		.4byte	.LASF58
 953 031c 07       		.byte	0x7
 954 031d 6901     		.2byte	0x169
 955 031f 64020000 		.4byte	0x264
 956 0323 18       		.byte	0x18
 957 0324 00       		.byte	0
 958 0325 03       		.uleb128 0x3
 959 0326 20070000 		.4byte	.LASF59
 960 032a 06       		.byte	0x6
 961 032b 51       		.byte	0x51
 962 032c 30030000 		.4byte	0x330
 963 0330 0C       		.uleb128 0xc
 964 0331 04       		.byte	0x4
 965 0332 36030000 		.4byte	0x336
ARM GAS  /tmp/ccqE7r6W.s 			page 18


 966 0336 0E       		.uleb128 0xe
 967 0337 41030000 		.4byte	0x341
 968 033b 0F       		.uleb128 0xf
 969 033c 41030000 		.4byte	0x341
 970 0340 00       		.byte	0
 971 0341 10       		.uleb128 0x10
 972 0342 04       		.byte	0x4
 973 0343 03       		.uleb128 0x3
 974 0344 90050000 		.4byte	.LASF60
 975 0348 06       		.byte	0x6
 976 0349 56       		.byte	0x56
 977 034a 4E030000 		.4byte	0x34e
 978 034e 0D       		.uleb128 0xd
 979 034f 44060000 		.4byte	.LASF61
 980 0353 14       		.byte	0x14
 981 0354 07       		.byte	0x7
 982 0355 3901     		.2byte	0x139
 983 0357 9D030000 		.4byte	0x39d
 984 035b 0B       		.uleb128 0xb
 985 035c 1B000000 		.4byte	.LASF52
 986 0360 07       		.byte	0x7
 987 0361 3A01     		.2byte	0x13a
 988 0363 03080000 		.4byte	0x803
 989 0367 00       		.byte	0
 990 0368 0B       		.uleb128 0xb
 991 0369 4D000000 		.4byte	.LASF55
 992 036d 07       		.byte	0x7
 993 036e 3B01     		.2byte	0x13b
 994 0370 03080000 		.4byte	0x803
 995 0374 04       		.byte	0x4
 996 0375 0B       		.uleb128 0xb
 997 0376 20000000 		.4byte	.LASF62
 998 037a 07       		.byte	0x7
 999 037b 3C01     		.2byte	0x13c
 1000 037d 81040000 		.4byte	0x481
 1001 0381 08       		.byte	0x8
 1002 0382 0B       		.uleb128 0xb
 1003 0383 95020000 		.4byte	.LASF63
 1004 0387 07       		.byte	0x7
 1005 0388 3D01     		.2byte	0x13d
 1006 038a 25030000 		.4byte	0x325
 1007 038e 0C       		.byte	0xc
 1008 038f 0A       		.uleb128 0xa
 1009 0390 70617200 		.ascii	"par\000"
 1010 0394 07       		.byte	0x7
 1011 0395 3F01     		.2byte	0x13f
 1012 0397 41030000 		.4byte	0x341
 1013 039b 10       		.byte	0x10
 1014 039c 00       		.byte	0
 1015 039d 03       		.uleb128 0x3
 1016 039e DA000000 		.4byte	.LASF64
 1017 03a2 06       		.byte	0x6
 1018 03a3 5B       		.byte	0x5b
 1019 03a4 A8030000 		.4byte	0x3a8
 1020 03a8 0D       		.uleb128 0xd
 1021 03a9 C0040000 		.4byte	.LASF65
 1022 03ad 10       		.byte	0x10
ARM GAS  /tmp/ccqE7r6W.s 			page 19


 1023 03ae 07       		.byte	0x7
 1024 03af 4901     		.2byte	0x149
 1025 03b1 EA030000 		.4byte	0x3ea
 1026 03b5 0B       		.uleb128 0xb
 1027 03b6 1B000000 		.4byte	.LASF52
 1028 03ba 07       		.byte	0x7
 1029 03bb 4A01     		.2byte	0x14a
 1030 03bd 03080000 		.4byte	0x803
 1031 03c1 00       		.byte	0
 1032 03c2 0B       		.uleb128 0xb
 1033 03c3 4D000000 		.4byte	.LASF55
 1034 03c7 07       		.byte	0x7
 1035 03c8 4C01     		.2byte	0x14c
 1036 03ca 03080000 		.4byte	0x803
 1037 03ce 04       		.byte	0x4
 1038 03cf 0B       		.uleb128 0xb
 1039 03d0 20000000 		.4byte	.LASF62
 1040 03d4 07       		.byte	0x7
 1041 03d5 4E01     		.2byte	0x14e
 1042 03d7 81040000 		.4byte	0x481
 1043 03db 08       		.byte	0x8
 1044 03dc 0B       		.uleb128 0xb
 1045 03dd 0C060000 		.4byte	.LASF66
 1046 03e1 07       		.byte	0x7
 1047 03e2 5601     		.2byte	0x156
 1048 03e4 76040000 		.4byte	0x476
 1049 03e8 0C       		.byte	0xc
 1050 03e9 00       		.byte	0
 1051 03ea 03       		.uleb128 0x3
 1052 03eb 64000000 		.4byte	.LASF67
 1053 03ef 06       		.byte	0x6
 1054 03f0 60       		.byte	0x60
 1055 03f1 F5030000 		.4byte	0x3f5
 1056 03f5 0D       		.uleb128 0xd
 1057 03f6 E1020000 		.4byte	.LASF68
 1058 03fa 04       		.byte	0x4
 1059 03fb 07       		.byte	0x7
 1060 03fc 7001     		.2byte	0x170
 1061 03fe 10040000 		.4byte	0x410
 1062 0402 0B       		.uleb128 0xb
 1063 0403 39070000 		.4byte	.LASF69
 1064 0407 07       		.byte	0x7
 1065 0408 7801     		.2byte	0x178
 1066 040a EC070000 		.4byte	0x7ec
 1067 040e 00       		.byte	0
 1068 040f 00       		.byte	0
 1069 0410 03       		.uleb128 0x3
 1070 0411 88070000 		.4byte	.LASF70
 1071 0415 06       		.byte	0x6
 1072 0416 65       		.byte	0x65
 1073 0417 1B040000 		.4byte	0x41b
 1074 041b 0D       		.uleb128 0xd
 1075 041c 28060000 		.4byte	.LASF71
 1076 0420 D0       		.byte	0xd0
 1077 0421 07       		.byte	0x7
 1078 0422 9001     		.2byte	0x190
 1079 0424 76040000 		.4byte	0x476
ARM GAS  /tmp/ccqE7r6W.s 			page 20


 1080 0428 0B       		.uleb128 0xb
 1081 0429 F9020000 		.4byte	.LASF72
 1082 042d 07       		.byte	0x7
 1083 042e 9401     		.2byte	0x194
 1084 0430 BE020000 		.4byte	0x2be
 1085 0434 00       		.byte	0
 1086 0435 0B       		.uleb128 0xb
 1087 0436 6D020000 		.4byte	.LASF73
 1088 043a 07       		.byte	0x7
 1089 043b 9801     		.2byte	0x198
 1090 043d 9D030000 		.4byte	0x39d
 1091 0441 1C       		.byte	0x1c
 1092 0442 0A       		.uleb128 0xa
 1093 0443 64626700 		.ascii	"dbg\000"
 1094 0447 07       		.byte	0x7
 1095 0448 9C01     		.2byte	0x19c
 1096 044a EA030000 		.4byte	0x3ea
 1097 044e 2C       		.byte	0x2c
 1098 044f 0B       		.uleb128 0xb
 1099 0450 C7000000 		.4byte	.LASF74
 1100 0454 07       		.byte	0x7
 1101 0455 A001     		.2byte	0x1a0
 1102 0457 63010000 		.4byte	0x163
 1103 045b 30       		.byte	0x30
 1104 045c 0A       		.uleb128 0xa
 1105 045d 746D00   		.ascii	"tm\000"
 1106 0460 07       		.byte	0x7
 1107 0461 A501     		.2byte	0x1a5
 1108 0463 7F060000 		.4byte	0x67f
 1109 0467 90       		.byte	0x90
 1110 0468 0B       		.uleb128 0xb
 1111 0469 36000000 		.4byte	.LASF75
 1112 046d 07       		.byte	0x7
 1113 046e AB01     		.2byte	0x1ab
 1114 0470 11070000 		.4byte	0x711
 1115 0474 98       		.byte	0x98
 1116 0475 00       		.byte	0
 1117 0476 03       		.uleb128 0x3
 1118 0477 16070000 		.4byte	.LASF76
 1119 047b 08       		.byte	0x8
 1120 047c 6D       		.byte	0x6d
 1121 047d DF000000 		.4byte	0xdf
 1122 0481 03       		.uleb128 0x3
 1123 0482 1D030000 		.4byte	.LASF77
 1124 0486 08       		.byte	0x8
 1125 0487 79       		.byte	0x79
 1126 0488 DF000000 		.4byte	0xdf
 1127 048c 04       		.uleb128 0x4
 1128 048d 04       		.byte	0x4
 1129 048e 07       		.byte	0x7
 1130 048f A4040000 		.4byte	.LASF78
 1131 0493 11       		.uleb128 0x11
 1132 0494 F0000000 		.4byte	.LASF79
 1133 0498 09       		.byte	0x9
 1134 0499 0408     		.2byte	0x804
 1135 049b DA000000 		.4byte	0xda
 1136 049f 12       		.uleb128 0x12
ARM GAS  /tmp/ccqE7r6W.s 			page 21


 1137 04a0 47030000 		.4byte	.LASF80
 1138 04a4 0A       		.byte	0xa
 1139 04a5 4C       		.byte	0x4c
 1140 04a6 DF000000 		.4byte	0xdf
 1141 04aa 13       		.uleb128 0x13
 1142 04ab BF000000 		.4byte	0xbf
 1143 04af BA040000 		.4byte	0x4ba
 1144 04b3 14       		.uleb128 0x14
 1145 04b4 8C040000 		.4byte	0x48c
 1146 04b8 0F       		.byte	0xf
 1147 04b9 00       		.byte	0
 1148 04ba 05       		.uleb128 0x5
 1149 04bb AA040000 		.4byte	0x4aa
 1150 04bf 12       		.uleb128 0x12
 1151 04c0 28040000 		.4byte	.LASF81
 1152 04c4 0A       		.byte	0xa
 1153 04c5 4E       		.byte	0x4e
 1154 04c6 BA040000 		.4byte	0x4ba
 1155 04ca 13       		.uleb128 0x13
 1156 04cb BF000000 		.4byte	0xbf
 1157 04cf DA040000 		.4byte	0x4da
 1158 04d3 14       		.uleb128 0x14
 1159 04d4 8C040000 		.4byte	0x48c
 1160 04d8 07       		.byte	0x7
 1161 04d9 00       		.byte	0
 1162 04da 05       		.uleb128 0x5
 1163 04db CA040000 		.4byte	0x4ca
 1164 04df 12       		.uleb128 0x12
 1165 04e0 F9040000 		.4byte	.LASF82
 1166 04e4 0A       		.byte	0xa
 1167 04e5 4F       		.byte	0x4f
 1168 04e6 DA040000 		.4byte	0x4da
 1169 04ea 03       		.uleb128 0x3
 1170 04eb CF020000 		.4byte	.LASF83
 1171 04ef 0B       		.byte	0xb
 1172 04f0 65       		.byte	0x65
 1173 04f1 41030000 		.4byte	0x341
 1174 04f5 03       		.uleb128 0x3
 1175 04f6 47040000 		.4byte	.LASF84
 1176 04fa 0B       		.byte	0xb
 1177 04fb 6D       		.byte	0x6d
 1178 04fc EA000000 		.4byte	0xea
 1179 0500 07       		.uleb128 0x7
 1180 0501 11050000 		.4byte	.LASF85
 1181 0505 04       		.byte	0x4
 1182 0506 0B       		.byte	0xb
 1183 0507 89       		.byte	0x89
 1184 0508 18050000 		.4byte	0x518
 1185 050c 09       		.uleb128 0x9
 1186 050d 737000   		.ascii	"sp\000"
 1187 0510 0B       		.byte	0xb
 1188 0511 8A       		.byte	0x8a
 1189 0512 64060000 		.4byte	0x664
 1190 0516 00       		.byte	0
 1191 0517 00       		.byte	0
 1192 0518 0D       		.uleb128 0xd
 1193 0519 52000000 		.4byte	.LASF86
ARM GAS  /tmp/ccqE7r6W.s 			page 22


 1194 051d 64       		.byte	0x64
 1195 051e 0C       		.byte	0xc
 1196 051f 5901     		.2byte	0x159
 1197 0521 64060000 		.4byte	0x664
 1198 0525 0A       		.uleb128 0xa
 1199 0526 73313600 		.ascii	"s16\000"
 1200 052a 0C       		.byte	0xc
 1201 052b 5B01     		.2byte	0x15b
 1202 052d EA040000 		.4byte	0x4ea
 1203 0531 00       		.byte	0
 1204 0532 0A       		.uleb128 0xa
 1205 0533 73313700 		.ascii	"s17\000"
 1206 0537 0C       		.byte	0xc
 1207 0538 5C01     		.2byte	0x15c
 1208 053a EA040000 		.4byte	0x4ea
 1209 053e 04       		.byte	0x4
 1210 053f 0A       		.uleb128 0xa
 1211 0540 73313800 		.ascii	"s18\000"
 1212 0544 0C       		.byte	0xc
 1213 0545 5D01     		.2byte	0x15d
 1214 0547 EA040000 		.4byte	0x4ea
 1215 054b 08       		.byte	0x8
 1216 054c 0A       		.uleb128 0xa
 1217 054d 73313900 		.ascii	"s19\000"
 1218 0551 0C       		.byte	0xc
 1219 0552 5E01     		.2byte	0x15e
 1220 0554 EA040000 		.4byte	0x4ea
 1221 0558 0C       		.byte	0xc
 1222 0559 0A       		.uleb128 0xa
 1223 055a 73323000 		.ascii	"s20\000"
 1224 055e 0C       		.byte	0xc
 1225 055f 5F01     		.2byte	0x15f
 1226 0561 EA040000 		.4byte	0x4ea
 1227 0565 10       		.byte	0x10
 1228 0566 0A       		.uleb128 0xa
 1229 0567 73323100 		.ascii	"s21\000"
 1230 056b 0C       		.byte	0xc
 1231 056c 6001     		.2byte	0x160
 1232 056e EA040000 		.4byte	0x4ea
 1233 0572 14       		.byte	0x14
 1234 0573 0A       		.uleb128 0xa
 1235 0574 73323200 		.ascii	"s22\000"
 1236 0578 0C       		.byte	0xc
 1237 0579 6101     		.2byte	0x161
 1238 057b EA040000 		.4byte	0x4ea
 1239 057f 18       		.byte	0x18
 1240 0580 0A       		.uleb128 0xa
 1241 0581 73323300 		.ascii	"s23\000"
 1242 0585 0C       		.byte	0xc
 1243 0586 6201     		.2byte	0x162
 1244 0588 EA040000 		.4byte	0x4ea
 1245 058c 1C       		.byte	0x1c
 1246 058d 0A       		.uleb128 0xa
 1247 058e 73323400 		.ascii	"s24\000"
 1248 0592 0C       		.byte	0xc
 1249 0593 6301     		.2byte	0x163
 1250 0595 EA040000 		.4byte	0x4ea
ARM GAS  /tmp/ccqE7r6W.s 			page 23


 1251 0599 20       		.byte	0x20
 1252 059a 0A       		.uleb128 0xa
 1253 059b 73323500 		.ascii	"s25\000"
 1254 059f 0C       		.byte	0xc
 1255 05a0 6401     		.2byte	0x164
 1256 05a2 EA040000 		.4byte	0x4ea
 1257 05a6 24       		.byte	0x24
 1258 05a7 0A       		.uleb128 0xa
 1259 05a8 73323600 		.ascii	"s26\000"
 1260 05ac 0C       		.byte	0xc
 1261 05ad 6501     		.2byte	0x165
 1262 05af EA040000 		.4byte	0x4ea
 1263 05b3 28       		.byte	0x28
 1264 05b4 0A       		.uleb128 0xa
 1265 05b5 73323700 		.ascii	"s27\000"
 1266 05b9 0C       		.byte	0xc
 1267 05ba 6601     		.2byte	0x166
 1268 05bc EA040000 		.4byte	0x4ea
 1269 05c0 2C       		.byte	0x2c
 1270 05c1 0A       		.uleb128 0xa
 1271 05c2 73323800 		.ascii	"s28\000"
 1272 05c6 0C       		.byte	0xc
 1273 05c7 6701     		.2byte	0x167
 1274 05c9 EA040000 		.4byte	0x4ea
 1275 05cd 30       		.byte	0x30
 1276 05ce 0A       		.uleb128 0xa
 1277 05cf 73323900 		.ascii	"s29\000"
 1278 05d3 0C       		.byte	0xc
 1279 05d4 6801     		.2byte	0x168
 1280 05d6 EA040000 		.4byte	0x4ea
 1281 05da 34       		.byte	0x34
 1282 05db 0A       		.uleb128 0xa
 1283 05dc 73333000 		.ascii	"s30\000"
 1284 05e0 0C       		.byte	0xc
 1285 05e1 6901     		.2byte	0x169
 1286 05e3 EA040000 		.4byte	0x4ea
 1287 05e7 38       		.byte	0x38
 1288 05e8 0A       		.uleb128 0xa
 1289 05e9 73333100 		.ascii	"s31\000"
 1290 05ed 0C       		.byte	0xc
 1291 05ee 6A01     		.2byte	0x16a
 1292 05f0 EA040000 		.4byte	0x4ea
 1293 05f4 3C       		.byte	0x3c
 1294 05f5 0A       		.uleb128 0xa
 1295 05f6 723400   		.ascii	"r4\000"
 1296 05f9 0C       		.byte	0xc
 1297 05fa 6C01     		.2byte	0x16c
 1298 05fc EA040000 		.4byte	0x4ea
 1299 0600 40       		.byte	0x40
 1300 0601 0A       		.uleb128 0xa
 1301 0602 723500   		.ascii	"r5\000"
 1302 0605 0C       		.byte	0xc
 1303 0606 6D01     		.2byte	0x16d
 1304 0608 EA040000 		.4byte	0x4ea
 1305 060c 44       		.byte	0x44
 1306 060d 0A       		.uleb128 0xa
 1307 060e 723600   		.ascii	"r6\000"
ARM GAS  /tmp/ccqE7r6W.s 			page 24


 1308 0611 0C       		.byte	0xc
 1309 0612 6E01     		.2byte	0x16e
 1310 0614 EA040000 		.4byte	0x4ea
 1311 0618 48       		.byte	0x48
 1312 0619 0A       		.uleb128 0xa
 1313 061a 723700   		.ascii	"r7\000"
 1314 061d 0C       		.byte	0xc
 1315 061e 6F01     		.2byte	0x16f
 1316 0620 EA040000 		.4byte	0x4ea
 1317 0624 4C       		.byte	0x4c
 1318 0625 0A       		.uleb128 0xa
 1319 0626 723800   		.ascii	"r8\000"
 1320 0629 0C       		.byte	0xc
 1321 062a 7001     		.2byte	0x170
 1322 062c EA040000 		.4byte	0x4ea
 1323 0630 50       		.byte	0x50
 1324 0631 0A       		.uleb128 0xa
 1325 0632 723900   		.ascii	"r9\000"
 1326 0635 0C       		.byte	0xc
 1327 0636 7101     		.2byte	0x171
 1328 0638 EA040000 		.4byte	0x4ea
 1329 063c 54       		.byte	0x54
 1330 063d 0A       		.uleb128 0xa
 1331 063e 72313000 		.ascii	"r10\000"
 1332 0642 0C       		.byte	0xc
 1333 0643 7201     		.2byte	0x172
 1334 0645 EA040000 		.4byte	0x4ea
 1335 0649 58       		.byte	0x58
 1336 064a 0A       		.uleb128 0xa
 1337 064b 72313100 		.ascii	"r11\000"
 1338 064f 0C       		.byte	0xc
 1339 0650 7301     		.2byte	0x173
 1340 0652 EA040000 		.4byte	0x4ea
 1341 0656 5C       		.byte	0x5c
 1342 0657 0A       		.uleb128 0xa
 1343 0658 6C7200   		.ascii	"lr\000"
 1344 065b 0C       		.byte	0xc
 1345 065c 7401     		.2byte	0x174
 1346 065e EA040000 		.4byte	0x4ea
 1347 0662 60       		.byte	0x60
 1348 0663 00       		.byte	0
 1349 0664 0C       		.uleb128 0xc
 1350 0665 04       		.byte	0x4
 1351 0666 18050000 		.4byte	0x518
 1352 066a 15       		.uleb128 0x15
 1353 066b 04       		.byte	0x4
 1354 066c 0D       		.byte	0xd
 1355 066d 38       		.byte	0x38
 1356 066e 7F060000 		.4byte	0x67f
 1357 0672 08       		.uleb128 0x8
 1358 0673 43070000 		.4byte	.LASF87
 1359 0677 0D       		.byte	0xd
 1360 0678 3C       		.byte	0x3c
 1361 0679 F5000000 		.4byte	0xf5
 1362 067d 00       		.byte	0
 1363 067e 00       		.byte	0
 1364 067f 03       		.uleb128 0x3
ARM GAS  /tmp/ccqE7r6W.s 			page 25


 1365 0680 1E050000 		.4byte	.LASF88
 1366 0684 0D       		.byte	0xd
 1367 0685 3D       		.byte	0x3d
 1368 0686 6A060000 		.4byte	0x66a
 1369 068a 15       		.uleb128 0x15
 1370 068b 18       		.byte	0x18
 1371 068c 0D       		.byte	0xd
 1372 068d 48       		.byte	0x48
 1373 068e CD060000 		.4byte	0x6cd
 1374 0692 08       		.uleb128 0x8
 1375 0693 06070000 		.4byte	.LASF89
 1376 0697 0D       		.byte	0xd
 1377 0698 49       		.byte	0x49
 1378 0699 F5000000 		.4byte	0xf5
 1379 069d 00       		.byte	0
 1380 069e 08       		.uleb128 0x8
 1381 069f 8E000000 		.4byte	.LASF90
 1382 06a3 0D       		.byte	0xd
 1383 06a4 4A       		.byte	0x4a
 1384 06a5 F5000000 		.4byte	0xf5
 1385 06a9 04       		.byte	0x4
 1386 06aa 08       		.uleb128 0x8
 1387 06ab C5030000 		.4byte	.LASF91
 1388 06af 0D       		.byte	0xd
 1389 06b0 4B       		.byte	0x4b
 1390 06b1 F5000000 		.4byte	0xf5
 1391 06b5 08       		.byte	0x8
 1392 06b6 09       		.uleb128 0x9
 1393 06b7 6E00     		.ascii	"n\000"
 1394 06b9 0D       		.byte	0xd
 1395 06ba 4C       		.byte	0x4c
 1396 06bb 58010000 		.4byte	0x158
 1397 06bf 0C       		.byte	0xc
 1398 06c0 08       		.uleb128 0x8
 1399 06c1 68050000 		.4byte	.LASF92
 1400 06c5 0D       		.byte	0xd
 1401 06c6 4D       		.byte	0x4d
 1402 06c7 00010000 		.4byte	0x100
 1403 06cb 10       		.byte	0x10
 1404 06cc 00       		.byte	0
 1405 06cd 03       		.uleb128 0x3
 1406 06ce 94000000 		.4byte	.LASF93
 1407 06d2 0D       		.byte	0xd
 1408 06d3 4E       		.byte	0x4e
 1409 06d4 8A060000 		.4byte	0x68a
 1410 06d8 15       		.uleb128 0x15
 1411 06d9 38       		.byte	0x38
 1412 06da 0E       		.byte	0xe
 1413 06db 38       		.byte	0x38
 1414 06dc 11070000 		.4byte	0x711
 1415 06e0 08       		.uleb128 0x8
 1416 06e1 86030000 		.4byte	.LASF94
 1417 06e5 0E       		.byte	0xe
 1418 06e6 39       		.byte	0x39
 1419 06e7 58010000 		.4byte	0x158
 1420 06eb 00       		.byte	0
 1421 06ec 08       		.uleb128 0x8
ARM GAS  /tmp/ccqE7r6W.s 			page 26


 1422 06ed C7050000 		.4byte	.LASF95
 1423 06f1 0E       		.byte	0xe
 1424 06f2 3A       		.byte	0x3a
 1425 06f3 58010000 		.4byte	0x158
 1426 06f7 04       		.byte	0x4
 1427 06f8 08       		.uleb128 0x8
 1428 06f9 6F080000 		.4byte	.LASF96
 1429 06fd 0E       		.byte	0xe
 1430 06fe 3B       		.byte	0x3b
 1431 06ff CD060000 		.4byte	0x6cd
 1432 0703 08       		.byte	0x8
 1433 0704 08       		.uleb128 0x8
 1434 0705 03040000 		.4byte	.LASF97
 1435 0709 0E       		.byte	0xe
 1436 070a 3D       		.byte	0x3d
 1437 070b CD060000 		.4byte	0x6cd
 1438 070f 20       		.byte	0x20
 1439 0710 00       		.byte	0
 1440 0711 03       		.uleb128 0x3
 1441 0712 A1030000 		.4byte	.LASF98
 1442 0716 0E       		.byte	0xe
 1443 0717 3F       		.byte	0x3f
 1444 0718 D8060000 		.4byte	0x6d8
 1445 071c 16       		.uleb128 0x16
 1446 071d 04       		.byte	0x4
 1447 071e 07       		.byte	0x7
 1448 071f C6       		.byte	0xc6
 1449 0720 7E070000 		.4byte	0x77e
 1450 0724 17       		.uleb128 0x17
 1451 0725 26000000 		.4byte	.LASF99
 1452 0729 07       		.byte	0x7
 1453 072a CD       		.byte	0xcd
 1454 072b 37010000 		.4byte	0x137
 1455 072f 17       		.uleb128 0x17
 1456 0730 BE000000 		.4byte	.LASF100
 1457 0734 07       		.byte	0x7
 1458 0735 D4       		.byte	0xd4
 1459 0736 37010000 		.4byte	0x137
 1460 073a 17       		.uleb128 0x17
 1461 073b 2B080000 		.4byte	.LASF101
 1462 073f 07       		.byte	0x7
 1463 0740 DB       		.byte	0xdb
 1464 0741 41030000 		.4byte	0x341
 1465 0745 17       		.uleb128 0x17
 1466 0746 5E030000 		.4byte	.LASF102
 1467 074a 07       		.byte	0x7
 1468 074b E2       		.byte	0xe2
 1469 074c 7E070000 		.4byte	0x77e
 1470 0750 17       		.uleb128 0x17
 1471 0751 D2000000 		.4byte	.LASF103
 1472 0755 07       		.byte	0x7
 1473 0756 E7       		.byte	0xe7
 1474 0757 37010000 		.4byte	0x137
 1475 075b 17       		.uleb128 0x17
 1476 075c 57030000 		.4byte	.LASF104
 1477 0760 07       		.byte	0x7
 1478 0761 F0       		.byte	0xf0
ARM GAS  /tmp/ccqE7r6W.s 			page 27


 1479 0762 A9070000 		.4byte	0x7a9
 1480 0766 17       		.uleb128 0x17
 1481 0767 96060000 		.4byte	.LASF105
 1482 076b 07       		.byte	0x7
 1483 076c F9       		.byte	0xf9
 1484 076d E0070000 		.4byte	0x7e0
 1485 0771 18       		.uleb128 0x18
 1486 0772 21060000 		.4byte	.LASF106
 1487 0776 07       		.byte	0x7
 1488 0777 0101     		.2byte	0x101
 1489 0779 42010000 		.4byte	0x142
 1490 077d 00       		.byte	0
 1491 077e 0C       		.uleb128 0xc
 1492 077f 04       		.byte	0x4
 1493 0780 59020000 		.4byte	0x259
 1494 0784 07       		.uleb128 0x7
 1495 0785 55060000 		.4byte	.LASF107
 1496 0789 0C       		.byte	0xc
 1497 078a 0F       		.byte	0xf
 1498 078b 34       		.byte	0x34
 1499 078c A9070000 		.4byte	0x7a9
 1500 0790 08       		.uleb128 0x8
 1501 0791 8C030000 		.4byte	.LASF32
 1502 0795 0F       		.byte	0xf
 1503 0796 35       		.byte	0x35
 1504 0797 8E020000 		.4byte	0x28e
 1505 079b 00       		.byte	0
 1506 079c 09       		.uleb128 0x9
 1507 079d 636E7400 		.ascii	"cnt\000"
 1508 07a1 0F       		.byte	0xf
 1509 07a2 37       		.byte	0x37
 1510 07a3 4D010000 		.4byte	0x14d
 1511 07a7 08       		.byte	0x8
 1512 07a8 00       		.byte	0
 1513 07a9 0C       		.uleb128 0xc
 1514 07aa 04       		.byte	0x4
 1515 07ab 84070000 		.4byte	0x784
 1516 07af 07       		.uleb128 0x7
 1517 07b0 5D070000 		.4byte	.LASF108
 1518 07b4 10       		.byte	0x10
 1519 07b5 10       		.byte	0x10
 1520 07b6 39       		.byte	0x39
 1521 07b7 E0070000 		.4byte	0x7e0
 1522 07bb 08       		.uleb128 0x8
 1523 07bc 8C030000 		.4byte	.LASF32
 1524 07c0 10       		.byte	0x10
 1525 07c1 3A       		.byte	0x3a
 1526 07c2 8E020000 		.4byte	0x28e
 1527 07c6 00       		.byte	0
 1528 07c7 08       		.uleb128 0x8
 1529 07c8 AD060000 		.4byte	.LASF109
 1530 07cc 10       		.byte	0x10
 1531 07cd 3C       		.byte	0x3c
 1532 07ce 64020000 		.4byte	0x264
 1533 07d2 08       		.byte	0x8
 1534 07d3 08       		.uleb128 0x8
 1535 07d4 1B000000 		.4byte	.LASF52
ARM GAS  /tmp/ccqE7r6W.s 			page 28


 1536 07d8 10       		.byte	0x10
 1537 07d9 3E       		.byte	0x3e
 1538 07da 42090000 		.4byte	0x942
 1539 07de 0C       		.byte	0xc
 1540 07df 00       		.byte	0
 1541 07e0 0C       		.uleb128 0xc
 1542 07e1 04       		.byte	0x4
 1543 07e2 AF070000 		.4byte	0x7af
 1544 07e6 0C       		.uleb128 0xc
 1545 07e7 04       		.byte	0x4
 1546 07e8 F8070000 		.4byte	0x7f8
 1547 07ec 06       		.uleb128 0x6
 1548 07ed E6070000 		.4byte	0x7e6
 1549 07f1 04       		.uleb128 0x4
 1550 07f2 01       		.byte	0x1
 1551 07f3 08       		.byte	0x8
 1552 07f4 DE060000 		.4byte	.LASF110
 1553 07f8 05       		.uleb128 0x5
 1554 07f9 F1070000 		.4byte	0x7f1
 1555 07fd 0C       		.uleb128 0xc
 1556 07fe 04       		.byte	0x4
 1557 07ff F5040000 		.4byte	0x4f5
 1558 0803 0C       		.uleb128 0xc
 1559 0804 04       		.byte	0x4
 1560 0805 43030000 		.4byte	0x343
 1561 0809 19       		.uleb128 0x19
 1562 080a 636800   		.ascii	"ch\000"
 1563 080d 07       		.byte	0x7
 1564 080e C701     		.2byte	0x1c7
 1565 0810 10040000 		.4byte	0x410
 1566 0814 13       		.uleb128 0x13
 1567 0815 F5040000 		.4byte	0x4f5
 1568 0819 1F080000 		.4byte	0x81f
 1569 081d 1A       		.uleb128 0x1a
 1570 081e 00       		.byte	0
 1571 081f 11       		.uleb128 0x11
 1572 0820 6B060000 		.4byte	.LASF111
 1573 0824 11       		.byte	0x11
 1574 0825 1701     		.2byte	0x117
 1575 0827 14080000 		.4byte	0x814
 1576 082b 15       		.uleb128 0x15
 1577 082c 16       		.byte	0x16
 1578 082d 12       		.byte	0x12
 1579 082e 34       		.byte	0x34
 1580 082f 0C090000 		.4byte	0x90c
 1581 0833 08       		.uleb128 0x8
 1582 0834 94070000 		.4byte	.LASF112
 1583 0838 12       		.byte	0x12
 1584 0839 35       		.byte	0x35
 1585 083a 0C090000 		.4byte	0x90c
 1586 083e 00       		.byte	0
 1587 083f 08       		.uleb128 0x8
 1588 0840 FF020000 		.4byte	.LASF113
 1589 0844 12       		.byte	0x12
 1590 0845 36       		.byte	0x36
 1591 0846 B4000000 		.4byte	0xb4
 1592 084a 04       		.byte	0x4
ARM GAS  /tmp/ccqE7r6W.s 			page 29


 1593 084b 08       		.uleb128 0x8
 1594 084c 47010000 		.4byte	.LASF114
 1595 0850 12       		.byte	0x12
 1596 0851 37       		.byte	0x37
 1597 0852 B4000000 		.4byte	0xb4
 1598 0856 05       		.byte	0x5
 1599 0857 08       		.uleb128 0x8
 1600 0858 6C040000 		.4byte	.LASF115
 1601 085c 12       		.byte	0x12
 1602 085d 38       		.byte	0x38
 1603 085e C4000000 		.4byte	0xc4
 1604 0862 06       		.byte	0x6
 1605 0863 08       		.uleb128 0x8
 1606 0864 D3070000 		.4byte	.LASF116
 1607 0868 12       		.byte	0x12
 1608 0869 39       		.byte	0x39
 1609 086a B4000000 		.4byte	0xb4
 1610 086e 08       		.byte	0x8
 1611 086f 08       		.uleb128 0x8
 1612 0870 7D060000 		.4byte	.LASF117
 1613 0874 12       		.byte	0x12
 1614 0875 3A       		.byte	0x3a
 1615 0876 B4000000 		.4byte	0xb4
 1616 087a 09       		.byte	0x9
 1617 087b 08       		.uleb128 0x8
 1618 087c 80050000 		.4byte	.LASF118
 1619 0880 12       		.byte	0x12
 1620 0881 3B       		.byte	0x3b
 1621 0882 B4000000 		.4byte	0xb4
 1622 0886 0A       		.byte	0xa
 1623 0887 08       		.uleb128 0x8
 1624 0888 EC050000 		.4byte	.LASF119
 1625 088c 12       		.byte	0x12
 1626 088d 3C       		.byte	0x3c
 1627 088e B4000000 		.4byte	0xb4
 1628 0892 0B       		.byte	0xb
 1629 0893 08       		.uleb128 0x8
 1630 0894 F3030000 		.4byte	.LASF120
 1631 0898 12       		.byte	0x12
 1632 0899 3D       		.byte	0x3d
 1633 089a B4000000 		.4byte	0xb4
 1634 089e 0C       		.byte	0xc
 1635 089f 08       		.uleb128 0x8
 1636 08a0 EF040000 		.4byte	.LASF121
 1637 08a4 12       		.byte	0x12
 1638 08a5 3E       		.byte	0x3e
 1639 08a6 B4000000 		.4byte	0xb4
 1640 08aa 0D       		.byte	0xd
 1641 08ab 08       		.uleb128 0x8
 1642 08ac 66070000 		.4byte	.LASF122
 1643 08b0 12       		.byte	0x12
 1644 08b1 3F       		.byte	0x3f
 1645 08b2 B4000000 		.4byte	0xb4
 1646 08b6 0E       		.byte	0xe
 1647 08b7 08       		.uleb128 0x8
 1648 08b8 0A080000 		.4byte	.LASF123
 1649 08bc 12       		.byte	0x12
ARM GAS  /tmp/ccqE7r6W.s 			page 30


 1650 08bd 40       		.byte	0x40
 1651 08be B4000000 		.4byte	0xb4
 1652 08c2 0F       		.byte	0xf
 1653 08c3 08       		.uleb128 0x8
 1654 08c4 F5050000 		.4byte	.LASF124
 1655 08c8 12       		.byte	0x12
 1656 08c9 41       		.byte	0x41
 1657 08ca B4000000 		.4byte	0xb4
 1658 08ce 10       		.byte	0x10
 1659 08cf 08       		.uleb128 0x8
 1660 08d0 41080000 		.4byte	.LASF125
 1661 08d4 12       		.byte	0x12
 1662 08d5 42       		.byte	0x42
 1663 08d6 B4000000 		.4byte	0xb4
 1664 08da 11       		.byte	0x11
 1665 08db 08       		.uleb128 0x8
 1666 08dc 5D080000 		.4byte	.LASF126
 1667 08e0 12       		.byte	0x12
 1668 08e1 43       		.byte	0x43
 1669 08e2 B4000000 		.4byte	0xb4
 1670 08e6 12       		.byte	0x12
 1671 08e7 08       		.uleb128 0x8
 1672 08e8 98030000 		.4byte	.LASF127
 1673 08ec 12       		.byte	0x12
 1674 08ed 44       		.byte	0x44
 1675 08ee B4000000 		.4byte	0xb4
 1676 08f2 13       		.byte	0x13
 1677 08f3 08       		.uleb128 0x8
 1678 08f4 AA020000 		.4byte	.LASF128
 1679 08f8 12       		.byte	0x12
 1680 08f9 45       		.byte	0x45
 1681 08fa B4000000 		.4byte	0xb4
 1682 08fe 14       		.byte	0x14
 1683 08ff 08       		.uleb128 0x8
 1684 0900 62060000 		.4byte	.LASF129
 1685 0904 12       		.byte	0x12
 1686 0905 46       		.byte	0x46
 1687 0906 B4000000 		.4byte	0xb4
 1688 090a 15       		.byte	0x15
 1689 090b 00       		.byte	0
 1690 090c 13       		.uleb128 0x13
 1691 090d F1070000 		.4byte	0x7f1
 1692 0911 1C090000 		.4byte	0x91c
 1693 0915 14       		.uleb128 0x14
 1694 0916 8C040000 		.4byte	0x48c
 1695 091a 03       		.byte	0x3
 1696 091b 00       		.byte	0
 1697 091c 03       		.uleb128 0x3
 1698 091d A0020000 		.4byte	.LASF130
 1699 0921 12       		.byte	0x12
 1700 0922 47       		.byte	0x47
 1701 0923 2B080000 		.4byte	0x82b
 1702 0927 05       		.uleb128 0x5
 1703 0928 1C090000 		.4byte	0x91c
 1704 092c 12       		.uleb128 0x12
 1705 092d 64030000 		.4byte	.LASF131
 1706 0931 12       		.byte	0x12
ARM GAS  /tmp/ccqE7r6W.s 			page 31


 1707 0932 6C       		.byte	0x6c
 1708 0933 27090000 		.4byte	0x927
 1709 0937 03       		.uleb128 0x3
 1710 0938 20010000 		.4byte	.LASF132
 1711 093c 10       		.byte	0x10
 1712 093d 34       		.byte	0x34
 1713 093e AF070000 		.4byte	0x7af
 1714 0942 0C       		.uleb128 0xc
 1715 0943 04       		.byte	0x4
 1716 0944 37090000 		.4byte	0x937
 1717 0948 04       		.uleb128 0x4
 1718 0949 01       		.byte	0x1
 1719 094a 02       		.byte	0x2
 1720 094b D0050000 		.4byte	.LASF133
 1721 094f 03       		.uleb128 0x3
 1722 0950 A7070000 		.4byte	.LASF134
 1723 0954 13       		.byte	0x13
 1724 0955 47       		.byte	0x47
 1725 0956 5A090000 		.4byte	0x95a
 1726 095a 0C       		.uleb128 0xc
 1727 095b 04       		.byte	0x4
 1728 095c 60090000 		.4byte	0x960
 1729 0960 1B       		.uleb128 0x1b
 1730 0961 41030000 		.4byte	0x341
 1731 0965 74090000 		.4byte	0x974
 1732 0969 0F       		.uleb128 0xf
 1733 096a 2C000000 		.4byte	0x2c
 1734 096e 0F       		.uleb128 0xf
 1735 096f 37000000 		.4byte	0x37
 1736 0973 00       		.byte	0
 1737 0974 03       		.uleb128 0x3
 1738 0975 2F050000 		.4byte	.LASF135
 1739 0979 13       		.byte	0x13
 1740 097a 4C       		.byte	0x4c
 1741 097b 7F090000 		.4byte	0x97f
 1742 097f 0C       		.uleb128 0xc
 1743 0980 04       		.byte	0x4
 1744 0981 85090000 		.4byte	0x985
 1745 0985 1B       		.uleb128 0x1b
 1746 0986 41030000 		.4byte	0x341
 1747 098a 9E090000 		.4byte	0x99e
 1748 098e 0F       		.uleb128 0xf
 1749 098f 2C000000 		.4byte	0x2c
 1750 0993 0F       		.uleb128 0xf
 1751 0994 37000000 		.4byte	0x37
 1752 0998 0F       		.uleb128 0xf
 1753 0999 2C000000 		.4byte	0x2c
 1754 099d 00       		.byte	0
 1755 099e 15       		.uleb128 0x15
 1756 099f 08       		.byte	0x8
 1757 09a0 13       		.byte	0x13
 1758 09a1 51       		.byte	0x51
 1759 09a2 BF090000 		.4byte	0x9bf
 1760 09a6 08       		.uleb128 0x8
 1761 09a7 BB080000 		.4byte	.LASF136
 1762 09ab 13       		.byte	0x13
 1763 09ac 55       		.byte	0x55
ARM GAS  /tmp/ccqE7r6W.s 			page 32


 1764 09ad BF090000 		.4byte	0x9bf
 1765 09b1 00       		.byte	0
 1766 09b2 08       		.uleb128 0x8
 1767 09b3 36040000 		.4byte	.LASF137
 1768 09b7 13       		.byte	0x13
 1769 09b8 59       		.byte	0x59
 1770 09b9 BF090000 		.4byte	0x9bf
 1771 09bd 04       		.byte	0x4
 1772 09be 00       		.byte	0
 1773 09bf 0C       		.uleb128 0xc
 1774 09c0 04       		.byte	0x4
 1775 09c1 B4000000 		.4byte	0xb4
 1776 09c5 03       		.uleb128 0x3
 1777 09c6 5E050000 		.4byte	.LASF138
 1778 09ca 13       		.byte	0x13
 1779 09cb 5A       		.byte	0x5a
 1780 09cc 9E090000 		.4byte	0x99e
 1781 09d0 12       		.uleb128 0x12
 1782 09d1 0B070000 		.4byte	.LASF139
 1783 09d5 13       		.byte	0x13
 1784 09d6 65       		.byte	0x65
 1785 09d7 C5090000 		.4byte	0x9c5
 1786 09db 03       		.uleb128 0x3
 1787 09dc E5030000 		.4byte	.LASF140
 1788 09e0 14       		.byte	0x14
 1789 09e1 48       		.byte	0x48
 1790 09e2 E6090000 		.4byte	0x9e6
 1791 09e6 07       		.uleb128 0x7
 1792 09e7 D4080000 		.4byte	.LASF141
 1793 09eb 1C       		.byte	0x1c
 1794 09ec 14       		.byte	0x14
 1795 09ed 60       		.byte	0x60
 1796 09ee 170A0000 		.4byte	0xa17
 1797 09f2 08       		.uleb128 0x8
 1798 09f3 7C000000 		.4byte	.LASF142
 1799 09f7 14       		.byte	0x14
 1800 09f8 61       		.byte	0x61
 1801 09f9 74090000 		.4byte	0x974
 1802 09fd 00       		.byte	0
 1803 09fe 08       		.uleb128 0x8
 1804 09ff 7A080000 		.4byte	.LASF143
 1805 0a03 14       		.byte	0x14
 1806 0a04 63       		.byte	0x63
 1807 0a05 170A0000 		.4byte	0xa17
 1808 0a09 04       		.byte	0x4
 1809 0a0a 09       		.uleb128 0x9
 1810 0a0b 6D747800 		.ascii	"mtx\000"
 1811 0a0f 14       		.byte	0x14
 1812 0a10 65       		.byte	0x65
 1813 0a11 37090000 		.4byte	0x937
 1814 0a15 0C       		.byte	0xc
 1815 0a16 00       		.byte	0
 1816 0a17 03       		.uleb128 0x3
 1817 0a18 B6020000 		.4byte	.LASF144
 1818 0a1c 14       		.byte	0x14
 1819 0a1d 4D       		.byte	0x4d
 1820 0a1e 220A0000 		.4byte	0xa22
ARM GAS  /tmp/ccqE7r6W.s 			page 33


 1821 0a22 1C       		.uleb128 0x1c
 1822 0a23 15060000 		.4byte	.LASF186
 1823 0a27 08       		.byte	0x8
 1824 0a28 14       		.byte	0x14
 1825 0a29 52       		.byte	0x52
 1826 0a2a 450A0000 		.4byte	0xa45
 1827 0a2e 17       		.uleb128 0x17
 1828 0a2f 83070000 		.4byte	.LASF145
 1829 0a33 14       		.byte	0x14
 1830 0a34 56       		.byte	0x56
 1831 0a35 450A0000 		.4byte	0xa45
 1832 0a39 17       		.uleb128 0x17
 1833 0a3a 73050000 		.4byte	.LASF146
 1834 0a3e 14       		.byte	0x14
 1835 0a3f 5A       		.byte	0x5a
 1836 0a40 6C0A0000 		.4byte	0xa6c
 1837 0a44 00       		.byte	0
 1838 0a45 15       		.uleb128 0x15
 1839 0a46 08       		.byte	0x8
 1840 0a47 14       		.byte	0x14
 1841 0a48 53       		.byte	0x53
 1842 0a49 660A0000 		.4byte	0xa66
 1843 0a4d 08       		.uleb128 0x8
 1844 0a4e 1B000000 		.4byte	.LASF52
 1845 0a52 14       		.byte	0x14
 1846 0a53 54       		.byte	0x54
 1847 0a54 660A0000 		.4byte	0xa66
 1848 0a58 00       		.byte	0
 1849 0a59 08       		.uleb128 0x8
 1850 0a5a 5E000000 		.4byte	.LASF147
 1851 0a5e 14       		.byte	0x14
 1852 0a5f 55       		.byte	0x55
 1853 0a60 2C000000 		.4byte	0x2c
 1854 0a64 04       		.byte	0x4
 1855 0a65 00       		.byte	0
 1856 0a66 0C       		.uleb128 0xc
 1857 0a67 04       		.byte	0x4
 1858 0a68 170A0000 		.4byte	0xa17
 1859 0a6c 15       		.uleb128 0x15
 1860 0a6d 08       		.byte	0x8
 1861 0a6e 14       		.byte	0x14
 1862 0a6f 57       		.byte	0x57
 1863 0a70 8D0A0000 		.4byte	0xa8d
 1864 0a74 08       		.uleb128 0x8
 1865 0a75 B3060000 		.4byte	.LASF148
 1866 0a79 14       		.byte	0x14
 1867 0a7a 58       		.byte	0x58
 1868 0a7b 8D0A0000 		.4byte	0xa8d
 1869 0a7f 00       		.byte	0
 1870 0a80 08       		.uleb128 0x8
 1871 0a81 47010000 		.4byte	.LASF114
 1872 0a85 14       		.byte	0x14
 1873 0a86 59       		.byte	0x59
 1874 0a87 2C000000 		.4byte	0x2c
 1875 0a8b 04       		.byte	0x4
 1876 0a8c 00       		.byte	0
 1877 0a8d 0C       		.uleb128 0xc
ARM GAS  /tmp/ccqE7r6W.s 			page 34


 1878 0a8e 04       		.byte	0x4
 1879 0a8f DB090000 		.4byte	0x9db
 1880 0a93 07       		.uleb128 0x7
 1881 0a94 FE070000 		.4byte	.LASF149
 1882 0a98 04       		.byte	0x4
 1883 0a99 15       		.byte	0x15
 1884 0a9a 38       		.byte	0x38
 1885 0a9b AC0A0000 		.4byte	0xaac
 1886 0a9f 08       		.uleb128 0x8
 1887 0aa0 1B000000 		.4byte	.LASF52
 1888 0aa4 15       		.byte	0x15
 1889 0aa5 39       		.byte	0x39
 1890 0aa6 AC0A0000 		.4byte	0xaac
 1891 0aaa 00       		.byte	0
 1892 0aab 00       		.byte	0
 1893 0aac 0C       		.uleb128 0xc
 1894 0aad 04       		.byte	0x4
 1895 0aae 930A0000 		.4byte	0xa93
 1896 0ab2 15       		.uleb128 0x15
 1897 0ab3 10       		.byte	0x10
 1898 0ab4 15       		.byte	0x15
 1899 0ab5 40       		.byte	0x40
 1900 0ab6 EB0A0000 		.4byte	0xaeb
 1901 0aba 08       		.uleb128 0x8
 1902 0abb 1B000000 		.4byte	.LASF52
 1903 0abf 15       		.byte	0x15
 1904 0ac0 41       		.byte	0x41
 1905 0ac1 AC0A0000 		.4byte	0xaac
 1906 0ac5 00       		.byte	0
 1907 0ac6 08       		.uleb128 0x8
 1908 0ac7 BA070000 		.4byte	.LASF150
 1909 0acb 15       		.byte	0x15
 1910 0acc 42       		.byte	0x42
 1911 0acd 2C000000 		.4byte	0x2c
 1912 0ad1 04       		.byte	0x4
 1913 0ad2 08       		.uleb128 0x8
 1914 0ad3 11010000 		.4byte	.LASF151
 1915 0ad7 15       		.byte	0x15
 1916 0ad8 44       		.byte	0x44
 1917 0ad9 37000000 		.4byte	0x37
 1918 0add 08       		.byte	0x8
 1919 0ade 08       		.uleb128 0x8
 1920 0adf 7C000000 		.4byte	.LASF142
 1921 0ae3 15       		.byte	0x15
 1922 0ae4 45       		.byte	0x45
 1923 0ae5 4F090000 		.4byte	0x94f
 1924 0ae9 0C       		.byte	0xc
 1925 0aea 00       		.byte	0
 1926 0aeb 03       		.uleb128 0x3
 1927 0aec 78030000 		.4byte	.LASF152
 1928 0af0 15       		.byte	0x15
 1929 0af1 47       		.byte	0x47
 1930 0af2 B20A0000 		.4byte	0xab2
 1931 0af6 07       		.uleb128 0x7
 1932 0af7 A7050000 		.4byte	.LASF153
 1933 0afb 10       		.byte	0x10
 1934 0afc 16       		.byte	0x16
ARM GAS  /tmp/ccqE7r6W.s 			page 35


 1935 0afd A9       		.byte	0xa9
 1936 0afe 270B0000 		.4byte	0xb27
 1937 0b02 08       		.uleb128 0x8
 1938 0b03 1B000000 		.4byte	.LASF52
 1939 0b07 16       		.byte	0x16
 1940 0b08 AD       		.byte	0xad
 1941 0b09 270B0000 		.4byte	0xb27
 1942 0b0d 00       		.byte	0
 1943 0b0e 08       		.uleb128 0x8
 1944 0b0f 8B050000 		.4byte	.LASF40
 1945 0b13 16       		.byte	0x16
 1946 0b14 B1       		.byte	0xb1
 1947 0b15 58010000 		.4byte	0x158
 1948 0b19 04       		.byte	0x4
 1949 0b1a 08       		.uleb128 0x8
 1950 0b1b B0030000 		.4byte	.LASF36
 1951 0b1f 16       		.byte	0x16
 1952 0b20 B3       		.byte	0xb3
 1953 0b21 2D0B0000 		.4byte	0xb2d
 1954 0b25 08       		.byte	0x8
 1955 0b26 00       		.byte	0
 1956 0b27 0C       		.uleb128 0xc
 1957 0b28 04       		.byte	0x4
 1958 0b29 F60A0000 		.4byte	0xaf6
 1959 0b2d 13       		.uleb128 0x13
 1960 0b2e F1070000 		.4byte	0x7f1
 1961 0b32 3D0B0000 		.4byte	0xb3d
 1962 0b36 14       		.uleb128 0x14
 1963 0b37 8C040000 		.4byte	0x48c
 1964 0b3b 07       		.byte	0x7
 1965 0b3c 00       		.byte	0
 1966 0b3d 03       		.uleb128 0x3
 1967 0b3e 03010000 		.4byte	.LASF154
 1968 0b42 16       		.byte	0x16
 1969 0b43 B7       		.byte	0xb7
 1970 0b44 F60A0000 		.4byte	0xaf6
 1971 0b48 07       		.uleb128 0x7
 1972 0b49 E3040000 		.4byte	.LASF155
 1973 0b4d 04       		.byte	0x4
 1974 0b4e 16       		.byte	0x16
 1975 0b4f BC       		.byte	0xbc
 1976 0b50 610B0000 		.4byte	0xb61
 1977 0b54 08       		.uleb128 0x8
 1978 0b55 1B000000 		.4byte	.LASF52
 1979 0b59 16       		.byte	0x16
 1980 0b5a BD       		.byte	0xbd
 1981 0b5b 610B0000 		.4byte	0xb61
 1982 0b5f 00       		.byte	0
 1983 0b60 00       		.byte	0
 1984 0b61 0C       		.uleb128 0xc
 1985 0b62 04       		.byte	0x4
 1986 0b63 3D0B0000 		.4byte	0xb3d
 1987 0b67 03       		.uleb128 0x3
 1988 0b68 DA030000 		.4byte	.LASF156
 1989 0b6c 16       		.byte	0x16
 1990 0b6d BE       		.byte	0xbe
 1991 0b6e 480B0000 		.4byte	0xb48
ARM GAS  /tmp/ccqE7r6W.s 			page 36


 1992 0b72 0D       		.uleb128 0xd
 1993 0b73 DB070000 		.4byte	.LASF157
 1994 0b77 44       		.byte	0x44
 1995 0b78 16       		.byte	0x16
 1996 0b79 3E01     		.2byte	0x13e
 1997 0b7b E80B0000 		.4byte	0xbe8
 1998 0b7f 0A       		.uleb128 0xa
 1999 0b80 6D747800 		.ascii	"mtx\000"
 2000 0b84 16       		.byte	0x16
 2001 0b85 4301     		.2byte	0x143
 2002 0b87 37090000 		.4byte	0x937
 2003 0b8b 00       		.byte	0
 2004 0b8c 0B       		.uleb128 0xb
 2005 0b8d E9060000 		.4byte	.LASF158
 2006 0b91 16       		.byte	0x16
 2007 0b92 4A01     		.2byte	0x14a
 2008 0b94 670B0000 		.4byte	0xb67
 2009 0b98 10       		.byte	0x10
 2010 0b99 0B       		.uleb128 0xb
 2011 0b9a 3B060000 		.4byte	.LASF159
 2012 0b9e 16       		.byte	0x16
 2013 0b9f 4E01     		.2byte	0x14e
 2014 0ba1 EB0A0000 		.4byte	0xaeb
 2015 0ba5 14       		.byte	0x14
 2016 0ba6 0B       		.uleb128 0xb
 2017 0ba7 BE050000 		.4byte	.LASF160
 2018 0bab 16       		.byte	0x16
 2019 0bac 5301     		.2byte	0x153
 2020 0bae 670B0000 		.4byte	0xb67
 2021 0bb2 24       		.byte	0x24
 2022 0bb3 0B       		.uleb128 0xb
 2023 0bb4 85000000 		.4byte	.LASF161
 2024 0bb8 16       		.byte	0x16
 2025 0bb9 5901     		.2byte	0x159
 2026 0bbb 670B0000 		.4byte	0xb67
 2027 0bbf 28       		.byte	0x28
 2028 0bc0 0B       		.uleb128 0xb
 2029 0bc1 42050000 		.4byte	.LASF162
 2030 0bc5 16       		.byte	0x16
 2031 0bc6 5D01     		.2byte	0x15d
 2032 0bc8 EB0A0000 		.4byte	0xaeb
 2033 0bcc 2C       		.byte	0x2c
 2034 0bcd 0B       		.uleb128 0xb
 2035 0bce D8020000 		.4byte	.LASF163
 2036 0bd2 16       		.byte	0x16
 2037 0bd3 6301     		.2byte	0x163
 2038 0bd5 670B0000 		.4byte	0xb67
 2039 0bd9 3C       		.byte	0x3c
 2040 0bda 0B       		.uleb128 0xb
 2041 0bdb 21080000 		.4byte	.LASF164
 2042 0bdf 16       		.byte	0x16
 2043 0be0 6901     		.2byte	0x169
 2044 0be2 670B0000 		.4byte	0xb67
 2045 0be6 40       		.byte	0x40
 2046 0be7 00       		.byte	0
 2047 0be8 1D       		.uleb128 0x1d
 2048 0be9 4B080000 		.4byte	.LASF165
ARM GAS  /tmp/ccqE7r6W.s 			page 37


 2049 0bed 16       		.byte	0x16
 2050 0bee 7101     		.2byte	0x171
 2051 0bf0 720B0000 		.4byte	0xb72
 2052 0bf4 11       		.uleb128 0x11
 2053 0bf5 6D030000 		.4byte	.LASF166
 2054 0bf9 16       		.byte	0x16
 2055 0bfa 7C01     		.2byte	0x17c
 2056 0bfc E80B0000 		.4byte	0xbe8
 2057 0c00 1E       		.uleb128 0x1e
 2058 0c01 D1060000 		.4byte	.LASF170
 2059 0c05 01       		.byte	0x1
 2060 0c06 5C       		.byte	0x5c
 2061 0c07 DB090000 		.4byte	0x9db
 2062 0c0b 05       		.uleb128 0x5
 2063 0c0c 03       		.byte	0x3
 2064 0c0d 00000000 		.4byte	default_heap
 2065 0c11 1F       		.uleb128 0x1f
 2066 0c12 C6070000 		.4byte	.LASF173
 2067 0c16 01       		.byte	0x1
 2068 0c17 6501     		.2byte	0x165
 2069 0c19 2C000000 		.4byte	0x2c
 2070 0c1d 00000000 		.4byte	.LFB294
 2071 0c21 58000000 		.4byte	.LFE294-.LFB294
 2072 0c25 01       		.uleb128 0x1
 2073 0c26 9C       		.byte	0x9c
 2074 0c27 D90C0000 		.4byte	0xcd9
 2075 0c2b 20       		.uleb128 0x20
 2076 0c2c FD000000 		.4byte	.LASF167
 2077 0c30 01       		.byte	0x1
 2078 0c31 6501     		.2byte	0x165
 2079 0c33 8D0A0000 		.4byte	0xa8d
 2080 0c37 00000000 		.4byte	.LLST17
 2081 0c3b 20       		.uleb128 0x20
 2082 0c3c 00000000 		.4byte	.LASF168
 2083 0c40 01       		.byte	0x1
 2084 0c41 6501     		.2byte	0x165
 2085 0c43 D90C0000 		.4byte	0xcd9
 2086 0c47 48000000 		.4byte	.LLST18
 2087 0c4b 20       		.uleb128 0x20
 2088 0c4c 73000000 		.4byte	.LASF169
 2089 0c50 01       		.byte	0x1
 2090 0c51 6501     		.2byte	0x165
 2091 0c53 D90C0000 		.4byte	0xcd9
 2092 0c57 66000000 		.4byte	.LLST19
 2093 0c5b 21       		.uleb128 0x21
 2094 0c5c 717000   		.ascii	"qp\000"
 2095 0c5f 01       		.byte	0x1
 2096 0c60 6601     		.2byte	0x166
 2097 0c62 660A0000 		.4byte	0xa66
 2098 0c66 84000000 		.4byte	.LLST20
 2099 0c6a 21       		.uleb128 0x21
 2100 0c6b 6E00     		.ascii	"n\000"
 2101 0c6d 01       		.byte	0x1
 2102 0c6e 6701     		.2byte	0x167
 2103 0c70 2C000000 		.4byte	0x2c
 2104 0c74 97000000 		.4byte	.LLST21
 2105 0c78 22       		.uleb128 0x22
ARM GAS  /tmp/ccqE7r6W.s 			page 38


 2106 0c79 86060000 		.4byte	.LASF171
 2107 0c7d 01       		.byte	0x1
 2108 0c7e 6701     		.2byte	0x167
 2109 0c80 2C000000 		.4byte	0x2c
 2110 0c84 B6000000 		.4byte	.LLST22
 2111 0c88 22       		.uleb128 0x22
 2112 0c89 40010000 		.4byte	.LASF172
 2113 0c8d 01       		.byte	0x1
 2114 0c8e 6701     		.2byte	0x167
 2115 0c90 2C000000 		.4byte	0x2c
 2116 0c94 E0000000 		.4byte	.LLST23
 2117 0c98 23       		.uleb128 0x23
 2118 0c99 44000000 		.4byte	.LBB5
 2119 0c9d 14000000 		.4byte	.LBE5-.LBB5
 2120 0ca1 B40C0000 		.4byte	0xcb4
 2121 0ca5 24       		.uleb128 0x24
 2122 0ca6 5E000000 		.4byte	.LASF147
 2123 0caa 01       		.byte	0x1
 2124 0cab 7301     		.2byte	0x173
 2125 0cad 2C000000 		.4byte	0x2c
 2126 0cb1 01       		.uleb128 0x1
 2127 0cb2 52       		.byte	0x52
 2128 0cb3 00       		.byte	0
 2129 0cb4 25       		.uleb128 0x25
 2130 0cb5 1A000000 		.4byte	.LVL47
 2131 0cb9 5E0F0000 		.4byte	0xf5e
 2132 0cbd C80C0000 		.4byte	0xcc8
 2133 0cc1 26       		.uleb128 0x26
 2134 0cc2 01       		.uleb128 0x1
 2135 0cc3 50       		.byte	0x50
 2136 0cc4 02       		.uleb128 0x2
 2137 0cc5 76       		.byte	0x76
 2138 0cc6 00       		.sleb128 0
 2139 0cc7 00       		.byte	0
 2140 0cc8 27       		.uleb128 0x27
 2141 0cc9 3E000000 		.4byte	.LVL53
 2142 0ccd 690F0000 		.4byte	0xf69
 2143 0cd1 26       		.uleb128 0x26
 2144 0cd2 01       		.uleb128 0x1
 2145 0cd3 50       		.byte	0x50
 2146 0cd4 02       		.uleb128 0x2
 2147 0cd5 76       		.byte	0x76
 2148 0cd6 00       		.sleb128 0
 2149 0cd7 00       		.byte	0
 2150 0cd8 00       		.byte	0
 2151 0cd9 0C       		.uleb128 0xc
 2152 0cda 04       		.byte	0x4
 2153 0cdb 2C000000 		.4byte	0x2c
 2154 0cdf 28       		.uleb128 0x28
 2155 0ce0 62020000 		.4byte	.LASF177
 2156 0ce4 01       		.byte	0x1
 2157 0ce5 2501     		.2byte	0x125
 2158 0ce7 00000000 		.4byte	.LFB293
 2159 0ceb 86000000 		.4byte	.LFE293-.LFB293
 2160 0cef 01       		.uleb128 0x1
 2161 0cf0 9C       		.byte	0x9c
 2162 0cf1 560D0000 		.4byte	0xd56
ARM GAS  /tmp/ccqE7r6W.s 			page 39


 2163 0cf5 29       		.uleb128 0x29
 2164 0cf6 7000     		.ascii	"p\000"
 2165 0cf8 01       		.byte	0x1
 2166 0cf9 2501     		.2byte	0x125
 2167 0cfb 41030000 		.4byte	0x341
 2168 0cff 0A010000 		.4byte	.LLST14
 2169 0d03 21       		.uleb128 0x21
 2170 0d04 717000   		.ascii	"qp\000"
 2171 0d07 01       		.byte	0x1
 2172 0d08 2601     		.2byte	0x126
 2173 0d0a 660A0000 		.4byte	0xa66
 2174 0d0e 41010000 		.4byte	.LLST15
 2175 0d12 21       		.uleb128 0x21
 2176 0d13 687000   		.ascii	"hp\000"
 2177 0d16 01       		.byte	0x1
 2178 0d17 2601     		.2byte	0x126
 2179 0d19 660A0000 		.4byte	0xa66
 2180 0d1d 75010000 		.4byte	.LLST16
 2181 0d21 24       		.uleb128 0x24
 2182 0d22 FD000000 		.4byte	.LASF167
 2183 0d26 01       		.byte	0x1
 2184 0d27 2701     		.2byte	0x127
 2185 0d29 8D0A0000 		.4byte	0xa8d
 2186 0d2d 01       		.uleb128 0x1
 2187 0d2e 56       		.byte	0x56
 2188 0d2f 2A       		.uleb128 0x2a
 2189 0d30 32060000 		.4byte	.LASF175
 2190 0d34 660D0000 		.4byte	0xd66
 2191 0d38 25       		.uleb128 0x25
 2192 0d39 22000000 		.4byte	.LVL40
 2193 0d3d 5E0F0000 		.4byte	0xf5e
 2194 0d41 4C0D0000 		.4byte	0xd4c
 2195 0d45 26       		.uleb128 0x26
 2196 0d46 01       		.uleb128 0x1
 2197 0d47 50       		.byte	0x50
 2198 0d48 02       		.uleb128 0x2
 2199 0d49 76       		.byte	0x76
 2200 0d4a 00       		.sleb128 0
 2201 0d4b 00       		.byte	0
 2202 0d4c 2B       		.uleb128 0x2b
 2203 0d4d 82000000 		.4byte	.LVL43
 2204 0d51 690F0000 		.4byte	0xf69
 2205 0d55 00       		.byte	0
 2206 0d56 13       		.uleb128 0x13
 2207 0d57 F8070000 		.4byte	0x7f8
 2208 0d5b 660D0000 		.4byte	0xd66
 2209 0d5f 14       		.uleb128 0x14
 2210 0d60 8C040000 		.4byte	0x48c
 2211 0d64 0A       		.byte	0xa
 2212 0d65 00       		.byte	0
 2213 0d66 05       		.uleb128 0x5
 2214 0d67 560D0000 		.4byte	0xd56
 2215 0d6b 2C       		.uleb128 0x2c
 2216 0d6c 4A070000 		.4byte	.LASF174
 2217 0d70 01       		.byte	0x1
 2218 0d71 AC       		.byte	0xac
 2219 0d72 41030000 		.4byte	0x341
ARM GAS  /tmp/ccqE7r6W.s 			page 40


 2220 0d76 00000000 		.4byte	.LFB292
 2221 0d7a E0000000 		.4byte	.LFE292-.LFB292
 2222 0d7e 01       		.uleb128 0x1
 2223 0d7f 9C       		.byte	0x9c
 2224 0d80 9E0E0000 		.4byte	0xe9e
 2225 0d84 2D       		.uleb128 0x2d
 2226 0d85 FD000000 		.4byte	.LASF167
 2227 0d89 01       		.byte	0x1
 2228 0d8a AC       		.byte	0xac
 2229 0d8b 8D0A0000 		.4byte	0xa8d
 2230 0d8f A3010000 		.4byte	.LLST4
 2231 0d93 2D       		.uleb128 0x2d
 2232 0d94 47010000 		.4byte	.LASF114
 2233 0d98 01       		.byte	0x1
 2234 0d99 AC       		.byte	0xac
 2235 0d9a 2C000000 		.4byte	0x2c
 2236 0d9e C1010000 		.4byte	.LLST5
 2237 0da2 2D       		.uleb128 0x2d
 2238 0da3 11010000 		.4byte	.LASF151
 2239 0da7 01       		.byte	0x1
 2240 0da8 AC       		.byte	0xac
 2241 0da9 37000000 		.4byte	0x37
 2242 0dad DF010000 		.4byte	.LLST6
 2243 0db1 2E       		.uleb128 0x2e
 2244 0db2 717000   		.ascii	"qp\000"
 2245 0db5 01       		.byte	0x1
 2246 0db6 AD       		.byte	0xad
 2247 0db7 660A0000 		.4byte	0xa66
 2248 0dbb 16020000 		.4byte	.LLST7
 2249 0dbf 2E       		.uleb128 0x2e
 2250 0dc0 687000   		.ascii	"hp\000"
 2251 0dc3 01       		.byte	0x1
 2252 0dc4 AD       		.byte	0xad
 2253 0dc5 660A0000 		.4byte	0xa66
 2254 0dc9 3F020000 		.4byte	.LLST8
 2255 0dcd 2E       		.uleb128 0x2e
 2256 0dce 61687000 		.ascii	"ahp\000"
 2257 0dd2 01       		.byte	0x1
 2258 0dd3 AD       		.byte	0xad
 2259 0dd4 660A0000 		.4byte	0xa66
 2260 0dd8 82020000 		.4byte	.LLST9
 2261 0ddc 2F       		.uleb128 0x2f
 2262 0ddd 5E000000 		.4byte	.LASF147
 2263 0de1 01       		.byte	0x1
 2264 0de2 AE       		.byte	0xae
 2265 0de3 2C000000 		.4byte	0x2c
 2266 0de7 E4020000 		.4byte	.LLST10
 2267 0deb 2A       		.uleb128 0x2a
 2268 0dec 32060000 		.4byte	.LASF175
 2269 0df0 AE0E0000 		.4byte	0xeae
 2270 0df4 23       		.uleb128 0x23
 2271 0df5 7E000000 		.4byte	.LBB2
 2272 0df9 1E000000 		.4byte	.LBE2-.LBB2
 2273 0dfd 290E0000 		.4byte	0xe29
 2274 0e01 2F       		.uleb128 0x2f
 2275 0e02 A0050000 		.4byte	.LASF176
 2276 0e06 01       		.byte	0x1
ARM GAS  /tmp/ccqE7r6W.s 			page 41


 2277 0e07 D2       		.byte	0xd2
 2278 0e08 2C000000 		.4byte	0x2c
 2279 0e0c 51030000 		.4byte	.LLST11
 2280 0e10 30       		.uleb128 0x30
 2281 0e11 88000000 		.4byte	.LBB3
 2282 0e15 14000000 		.4byte	.LBE3-.LBB3
 2283 0e19 2E       		.uleb128 0x2e
 2284 0e1a 667000   		.ascii	"fp\000"
 2285 0e1d 01       		.byte	0x1
 2286 0e1e D8       		.byte	0xd8
 2287 0e1f 660A0000 		.4byte	0xa66
 2288 0e23 7D030000 		.4byte	.LLST12
 2289 0e27 00       		.byte	0
 2290 0e28 00       		.byte	0
 2291 0e29 23       		.uleb128 0x23
 2292 0e2a BA000000 		.4byte	.LBB4
 2293 0e2e 26000000 		.4byte	.LBE4-.LBB4
 2294 0e32 450E0000 		.4byte	0xe45
 2295 0e36 2E       		.uleb128 0x2e
 2296 0e37 667000   		.ascii	"fp\000"
 2297 0e3a 01       		.byte	0x1
 2298 0e3b EE       		.byte	0xee
 2299 0e3c 660A0000 		.4byte	0xa66
 2300 0e40 90030000 		.4byte	.LLST13
 2301 0e44 00       		.byte	0
 2302 0e45 25       		.uleb128 0x25
 2303 0e46 24000000 		.4byte	.LVL13
 2304 0e4a 5E0F0000 		.4byte	0xf5e
 2305 0e4e 590E0000 		.4byte	0xe59
 2306 0e52 26       		.uleb128 0x26
 2307 0e53 01       		.uleb128 0x1
 2308 0e54 50       		.byte	0x50
 2309 0e55 02       		.uleb128 0x2
 2310 0e56 78       		.byte	0x78
 2311 0e57 00       		.sleb128 0
 2312 0e58 00       		.byte	0
 2313 0e59 25       		.uleb128 0x25
 2314 0e5a 3C000000 		.4byte	.LVL16
 2315 0e5e 690F0000 		.4byte	0xf69
 2316 0e62 6D0E0000 		.4byte	0xe6d
 2317 0e66 26       		.uleb128 0x26
 2318 0e67 01       		.uleb128 0x1
 2319 0e68 50       		.byte	0x50
 2320 0e69 02       		.uleb128 0x2
 2321 0e6a 78       		.byte	0x78
 2322 0e6b 00       		.sleb128 0
 2323 0e6c 00       		.byte	0
 2324 0e6d 31       		.uleb128 0x31
 2325 0e6e 48000000 		.4byte	.LVL17
 2326 0e72 02       		.uleb128 0x2
 2327 0e73 74       		.byte	0x74
 2328 0e74 00       		.sleb128 0
 2329 0e75 8D0E0000 		.4byte	0xe8d
 2330 0e79 26       		.uleb128 0x26
 2331 0e7a 01       		.uleb128 0x1
 2332 0e7b 50       		.byte	0x50
 2333 0e7c 04       		.uleb128 0x4
ARM GAS  /tmp/ccqE7r6W.s 			page 42


 2334 0e7d 75       		.byte	0x75
 2335 0e7e 00       		.sleb128 0
 2336 0e7f 33       		.byte	0x33
 2337 0e80 24       		.byte	0x24
 2338 0e81 26       		.uleb128 0x26
 2339 0e82 01       		.uleb128 0x1
 2340 0e83 51       		.byte	0x51
 2341 0e84 02       		.uleb128 0x2
 2342 0e85 79       		.byte	0x79
 2343 0e86 00       		.sleb128 0
 2344 0e87 26       		.uleb128 0x26
 2345 0e88 01       		.uleb128 0x1
 2346 0e89 52       		.byte	0x52
 2347 0e8a 01       		.uleb128 0x1
 2348 0e8b 38       		.byte	0x38
 2349 0e8c 00       		.byte	0
 2350 0e8d 27       		.uleb128 0x27
 2351 0e8e AA000000 		.4byte	.LVL28
 2352 0e92 690F0000 		.4byte	0xf69
 2353 0e96 26       		.uleb128 0x26
 2354 0e97 01       		.uleb128 0x1
 2355 0e98 50       		.byte	0x50
 2356 0e99 02       		.uleb128 0x2
 2357 0e9a 78       		.byte	0x78
 2358 0e9b 00       		.sleb128 0
 2359 0e9c 00       		.byte	0
 2360 0e9d 00       		.byte	0
 2361 0e9e 13       		.uleb128 0x13
 2362 0e9f F8070000 		.4byte	0x7f8
 2363 0ea3 AE0E0000 		.4byte	0xeae
 2364 0ea7 14       		.uleb128 0x14
 2365 0ea8 8C040000 		.4byte	0x48c
 2366 0eac 12       		.byte	0x12
 2367 0ead 00       		.byte	0
 2368 0eae 05       		.uleb128 0x5
 2369 0eaf 9E0E0000 		.4byte	0xe9e
 2370 0eb3 32       		.uleb128 0x32
 2371 0eb4 52040000 		.4byte	.LASF178
 2372 0eb8 01       		.byte	0x1
 2373 0eb9 83       		.byte	0x83
 2374 0eba 00000000 		.4byte	.LFB291
 2375 0ebe 26000000 		.4byte	.LFE291-.LFB291
 2376 0ec2 01       		.uleb128 0x1
 2377 0ec3 9C       		.byte	0x9c
 2378 0ec4 200F0000 		.4byte	0xf20
 2379 0ec8 2D       		.uleb128 0x2d
 2380 0ec9 FD000000 		.4byte	.LASF167
 2381 0ecd 01       		.byte	0x1
 2382 0ece 83       		.byte	0x83
 2383 0ecf 8D0A0000 		.4byte	0xa8d
 2384 0ed3 A3030000 		.4byte	.LLST0
 2385 0ed7 33       		.uleb128 0x33
 2386 0ed8 62756600 		.ascii	"buf\000"
 2387 0edc 01       		.byte	0x1
 2388 0edd 83       		.byte	0x83
 2389 0ede 41030000 		.4byte	0x341
 2390 0ee2 D1030000 		.4byte	.LLST1
ARM GAS  /tmp/ccqE7r6W.s 			page 43


 2391 0ee6 2D       		.uleb128 0x2d
 2392 0ee7 47010000 		.4byte	.LASF114
 2393 0eeb 01       		.byte	0x1
 2394 0eec 83       		.byte	0x83
 2395 0eed 2C000000 		.4byte	0x2c
 2396 0ef1 F2030000 		.4byte	.LLST2
 2397 0ef5 2E       		.uleb128 0x2e
 2398 0ef6 687000   		.ascii	"hp\000"
 2399 0ef9 01       		.byte	0x1
 2400 0efa 84       		.byte	0x84
 2401 0efb 660A0000 		.4byte	0xa66
 2402 0eff 73040000 		.4byte	.LLST3
 2403 0f03 2A       		.uleb128 0x2a
 2404 0f04 32060000 		.4byte	.LASF175
 2405 0f08 300F0000 		.4byte	0xf30
 2406 0f0c 34       		.uleb128 0x34
 2407 0f0d 26000000 		.4byte	.LVL7
 2408 0f11 740F0000 		.4byte	0xf74
 2409 0f15 26       		.uleb128 0x26
 2410 0f16 01       		.uleb128 0x1
 2411 0f17 50       		.byte	0x50
 2412 0f18 05       		.uleb128 0x5
 2413 0f19 F3       		.byte	0xf3
 2414 0f1a 01       		.uleb128 0x1
 2415 0f1b 50       		.byte	0x50
 2416 0f1c 23       		.byte	0x23
 2417 0f1d 0C       		.uleb128 0xc
 2418 0f1e 00       		.byte	0
 2419 0f1f 00       		.byte	0
 2420 0f20 13       		.uleb128 0x13
 2421 0f21 F8070000 		.4byte	0x7f8
 2422 0f25 300F0000 		.4byte	0xf30
 2423 0f29 14       		.uleb128 0x14
 2424 0f2a 8C040000 		.4byte	0x48c
 2425 0f2e 10       		.byte	0x10
 2426 0f2f 00       		.byte	0
 2427 0f30 05       		.uleb128 0x5
 2428 0f31 200F0000 		.4byte	0xf20
 2429 0f35 32       		.uleb128 0x32
 2430 0f36 12030000 		.4byte	.LASF179
 2431 0f3a 01       		.byte	0x1
 2432 0f3b 6B       		.byte	0x6b
 2433 0f3c 00000000 		.4byte	.LFB290
 2434 0f40 1C000000 		.4byte	.LFE290-.LFB290
 2435 0f44 01       		.uleb128 0x1
 2436 0f45 9C       		.byte	0x9c
 2437 0f46 5E0F0000 		.4byte	0xf5e
 2438 0f4a 34       		.uleb128 0x34
 2439 0f4b 12000000 		.4byte	.LVL0
 2440 0f4f 740F0000 		.4byte	0xf74
 2441 0f53 26       		.uleb128 0x26
 2442 0f54 01       		.uleb128 0x1
 2443 0f55 50       		.byte	0x50
 2444 0f56 05       		.uleb128 0x5
 2445 0f57 03       		.byte	0x3
 2446 0f58 0C000000 		.4byte	.LANCHOR0+12
 2447 0f5c 00       		.byte	0
ARM GAS  /tmp/ccqE7r6W.s 			page 44


 2448 0f5d 00       		.byte	0
 2449 0f5e 35       		.uleb128 0x35
 2450 0f5f 07050000 		.4byte	.LASF180
 2451 0f63 07050000 		.4byte	.LASF180
 2452 0f67 10       		.byte	0x10
 2453 0f68 67       		.byte	0x67
 2454 0f69 35       		.uleb128 0x35
 2455 0f6a 28010000 		.4byte	.LASF181
 2456 0f6e 28010000 		.4byte	.LASF181
 2457 0f72 10       		.byte	0x10
 2458 0f73 6B       		.byte	0x6b
 2459 0f74 35       		.uleb128 0x35
 2460 0f75 29070000 		.4byte	.LASF182
 2461 0f79 29070000 		.4byte	.LASF182
 2462 0f7d 10       		.byte	0x10
 2463 0f7e 66       		.byte	0x66
 2464 0f7f 00       		.byte	0
 2465              		.section	.debug_abbrev,"",%progbits
 2466              	.Ldebug_abbrev0:
 2467 0000 01       		.uleb128 0x1
 2468 0001 11       		.uleb128 0x11
 2469 0002 01       		.byte	0x1
 2470 0003 25       		.uleb128 0x25
 2471 0004 0E       		.uleb128 0xe
 2472 0005 13       		.uleb128 0x13
 2473 0006 0B       		.uleb128 0xb
 2474 0007 03       		.uleb128 0x3
 2475 0008 0E       		.uleb128 0xe
 2476 0009 1B       		.uleb128 0x1b
 2477 000a 0E       		.uleb128 0xe
 2478 000b 55       		.uleb128 0x55
 2479 000c 17       		.uleb128 0x17
 2480 000d 11       		.uleb128 0x11
 2481 000e 01       		.uleb128 0x1
 2482 000f 10       		.uleb128 0x10
 2483 0010 17       		.uleb128 0x17
 2484 0011 00       		.byte	0
 2485 0012 00       		.byte	0
 2486 0013 02       		.uleb128 0x2
 2487 0014 24       		.uleb128 0x24
 2488 0015 00       		.byte	0
 2489 0016 0B       		.uleb128 0xb
 2490 0017 0B       		.uleb128 0xb
 2491 0018 3E       		.uleb128 0x3e
 2492 0019 0B       		.uleb128 0xb
 2493 001a 03       		.uleb128 0x3
 2494 001b 08       		.uleb128 0x8
 2495 001c 00       		.byte	0
 2496 001d 00       		.byte	0
 2497 001e 03       		.uleb128 0x3
 2498 001f 16       		.uleb128 0x16
 2499 0020 00       		.byte	0
 2500 0021 03       		.uleb128 0x3
 2501 0022 0E       		.uleb128 0xe
 2502 0023 3A       		.uleb128 0x3a
 2503 0024 0B       		.uleb128 0xb
 2504 0025 3B       		.uleb128 0x3b
ARM GAS  /tmp/ccqE7r6W.s 			page 45


 2505 0026 0B       		.uleb128 0xb
 2506 0027 49       		.uleb128 0x49
 2507 0028 13       		.uleb128 0x13
 2508 0029 00       		.byte	0
 2509 002a 00       		.byte	0
 2510 002b 04       		.uleb128 0x4
 2511 002c 24       		.uleb128 0x24
 2512 002d 00       		.byte	0
 2513 002e 0B       		.uleb128 0xb
 2514 002f 0B       		.uleb128 0xb
 2515 0030 3E       		.uleb128 0x3e
 2516 0031 0B       		.uleb128 0xb
 2517 0032 03       		.uleb128 0x3
 2518 0033 0E       		.uleb128 0xe
 2519 0034 00       		.byte	0
 2520 0035 00       		.byte	0
 2521 0036 05       		.uleb128 0x5
 2522 0037 26       		.uleb128 0x26
 2523 0038 00       		.byte	0
 2524 0039 49       		.uleb128 0x49
 2525 003a 13       		.uleb128 0x13
 2526 003b 00       		.byte	0
 2527 003c 00       		.byte	0
 2528 003d 06       		.uleb128 0x6
 2529 003e 35       		.uleb128 0x35
 2530 003f 00       		.byte	0
 2531 0040 49       		.uleb128 0x49
 2532 0041 13       		.uleb128 0x13
 2533 0042 00       		.byte	0
 2534 0043 00       		.byte	0
 2535 0044 07       		.uleb128 0x7
 2536 0045 13       		.uleb128 0x13
 2537 0046 01       		.byte	0x1
 2538 0047 03       		.uleb128 0x3
 2539 0048 0E       		.uleb128 0xe
 2540 0049 0B       		.uleb128 0xb
 2541 004a 0B       		.uleb128 0xb
 2542 004b 3A       		.uleb128 0x3a
 2543 004c 0B       		.uleb128 0xb
 2544 004d 3B       		.uleb128 0x3b
 2545 004e 0B       		.uleb128 0xb
 2546 004f 01       		.uleb128 0x1
 2547 0050 13       		.uleb128 0x13
 2548 0051 00       		.byte	0
 2549 0052 00       		.byte	0
 2550 0053 08       		.uleb128 0x8
 2551 0054 0D       		.uleb128 0xd
 2552 0055 00       		.byte	0
 2553 0056 03       		.uleb128 0x3
 2554 0057 0E       		.uleb128 0xe
 2555 0058 3A       		.uleb128 0x3a
 2556 0059 0B       		.uleb128 0xb
 2557 005a 3B       		.uleb128 0x3b
 2558 005b 0B       		.uleb128 0xb
 2559 005c 49       		.uleb128 0x49
 2560 005d 13       		.uleb128 0x13
 2561 005e 38       		.uleb128 0x38
ARM GAS  /tmp/ccqE7r6W.s 			page 46


 2562 005f 0B       		.uleb128 0xb
 2563 0060 00       		.byte	0
 2564 0061 00       		.byte	0
 2565 0062 09       		.uleb128 0x9
 2566 0063 0D       		.uleb128 0xd
 2567 0064 00       		.byte	0
 2568 0065 03       		.uleb128 0x3
 2569 0066 08       		.uleb128 0x8
 2570 0067 3A       		.uleb128 0x3a
 2571 0068 0B       		.uleb128 0xb
 2572 0069 3B       		.uleb128 0x3b
 2573 006a 0B       		.uleb128 0xb
 2574 006b 49       		.uleb128 0x49
 2575 006c 13       		.uleb128 0x13
 2576 006d 38       		.uleb128 0x38
 2577 006e 0B       		.uleb128 0xb
 2578 006f 00       		.byte	0
 2579 0070 00       		.byte	0
 2580 0071 0A       		.uleb128 0xa
 2581 0072 0D       		.uleb128 0xd
 2582 0073 00       		.byte	0
 2583 0074 03       		.uleb128 0x3
 2584 0075 08       		.uleb128 0x8
 2585 0076 3A       		.uleb128 0x3a
 2586 0077 0B       		.uleb128 0xb
 2587 0078 3B       		.uleb128 0x3b
 2588 0079 05       		.uleb128 0x5
 2589 007a 49       		.uleb128 0x49
 2590 007b 13       		.uleb128 0x13
 2591 007c 38       		.uleb128 0x38
 2592 007d 0B       		.uleb128 0xb
 2593 007e 00       		.byte	0
 2594 007f 00       		.byte	0
 2595 0080 0B       		.uleb128 0xb
 2596 0081 0D       		.uleb128 0xd
 2597 0082 00       		.byte	0
 2598 0083 03       		.uleb128 0x3
 2599 0084 0E       		.uleb128 0xe
 2600 0085 3A       		.uleb128 0x3a
 2601 0086 0B       		.uleb128 0xb
 2602 0087 3B       		.uleb128 0x3b
 2603 0088 05       		.uleb128 0x5
 2604 0089 49       		.uleb128 0x49
 2605 008a 13       		.uleb128 0x13
 2606 008b 38       		.uleb128 0x38
 2607 008c 0B       		.uleb128 0xb
 2608 008d 00       		.byte	0
 2609 008e 00       		.byte	0
 2610 008f 0C       		.uleb128 0xc
 2611 0090 0F       		.uleb128 0xf
 2612 0091 00       		.byte	0
 2613 0092 0B       		.uleb128 0xb
 2614 0093 0B       		.uleb128 0xb
 2615 0094 49       		.uleb128 0x49
 2616 0095 13       		.uleb128 0x13
 2617 0096 00       		.byte	0
 2618 0097 00       		.byte	0
ARM GAS  /tmp/ccqE7r6W.s 			page 47


 2619 0098 0D       		.uleb128 0xd
 2620 0099 13       		.uleb128 0x13
 2621 009a 01       		.byte	0x1
 2622 009b 03       		.uleb128 0x3
 2623 009c 0E       		.uleb128 0xe
 2624 009d 0B       		.uleb128 0xb
 2625 009e 0B       		.uleb128 0xb
 2626 009f 3A       		.uleb128 0x3a
 2627 00a0 0B       		.uleb128 0xb
 2628 00a1 3B       		.uleb128 0x3b
 2629 00a2 05       		.uleb128 0x5
 2630 00a3 01       		.uleb128 0x1
 2631 00a4 13       		.uleb128 0x13
 2632 00a5 00       		.byte	0
 2633 00a6 00       		.byte	0
 2634 00a7 0E       		.uleb128 0xe
 2635 00a8 15       		.uleb128 0x15
 2636 00a9 01       		.byte	0x1
 2637 00aa 27       		.uleb128 0x27
 2638 00ab 19       		.uleb128 0x19
 2639 00ac 01       		.uleb128 0x1
 2640 00ad 13       		.uleb128 0x13
 2641 00ae 00       		.byte	0
 2642 00af 00       		.byte	0
 2643 00b0 0F       		.uleb128 0xf
 2644 00b1 05       		.uleb128 0x5
 2645 00b2 00       		.byte	0
 2646 00b3 49       		.uleb128 0x49
 2647 00b4 13       		.uleb128 0x13
 2648 00b5 00       		.byte	0
 2649 00b6 00       		.byte	0
 2650 00b7 10       		.uleb128 0x10
 2651 00b8 0F       		.uleb128 0xf
 2652 00b9 00       		.byte	0
 2653 00ba 0B       		.uleb128 0xb
 2654 00bb 0B       		.uleb128 0xb
 2655 00bc 00       		.byte	0
 2656 00bd 00       		.byte	0
 2657 00be 11       		.uleb128 0x11
 2658 00bf 34       		.uleb128 0x34
 2659 00c0 00       		.byte	0
 2660 00c1 03       		.uleb128 0x3
 2661 00c2 0E       		.uleb128 0xe
 2662 00c3 3A       		.uleb128 0x3a
 2663 00c4 0B       		.uleb128 0xb
 2664 00c5 3B       		.uleb128 0x3b
 2665 00c6 05       		.uleb128 0x5
 2666 00c7 49       		.uleb128 0x49
 2667 00c8 13       		.uleb128 0x13
 2668 00c9 3F       		.uleb128 0x3f
 2669 00ca 19       		.uleb128 0x19
 2670 00cb 3C       		.uleb128 0x3c
 2671 00cc 19       		.uleb128 0x19
 2672 00cd 00       		.byte	0
 2673 00ce 00       		.byte	0
 2674 00cf 12       		.uleb128 0x12
 2675 00d0 34       		.uleb128 0x34
ARM GAS  /tmp/ccqE7r6W.s 			page 48


 2676 00d1 00       		.byte	0
 2677 00d2 03       		.uleb128 0x3
 2678 00d3 0E       		.uleb128 0xe
 2679 00d4 3A       		.uleb128 0x3a
 2680 00d5 0B       		.uleb128 0xb
 2681 00d6 3B       		.uleb128 0x3b
 2682 00d7 0B       		.uleb128 0xb
 2683 00d8 49       		.uleb128 0x49
 2684 00d9 13       		.uleb128 0x13
 2685 00da 3F       		.uleb128 0x3f
 2686 00db 19       		.uleb128 0x19
 2687 00dc 3C       		.uleb128 0x3c
 2688 00dd 19       		.uleb128 0x19
 2689 00de 00       		.byte	0
 2690 00df 00       		.byte	0
 2691 00e0 13       		.uleb128 0x13
 2692 00e1 01       		.uleb128 0x1
 2693 00e2 01       		.byte	0x1
 2694 00e3 49       		.uleb128 0x49
 2695 00e4 13       		.uleb128 0x13
 2696 00e5 01       		.uleb128 0x1
 2697 00e6 13       		.uleb128 0x13
 2698 00e7 00       		.byte	0
 2699 00e8 00       		.byte	0
 2700 00e9 14       		.uleb128 0x14
 2701 00ea 21       		.uleb128 0x21
 2702 00eb 00       		.byte	0
 2703 00ec 49       		.uleb128 0x49
 2704 00ed 13       		.uleb128 0x13
 2705 00ee 2F       		.uleb128 0x2f
 2706 00ef 0B       		.uleb128 0xb
 2707 00f0 00       		.byte	0
 2708 00f1 00       		.byte	0
 2709 00f2 15       		.uleb128 0x15
 2710 00f3 13       		.uleb128 0x13
 2711 00f4 01       		.byte	0x1
 2712 00f5 0B       		.uleb128 0xb
 2713 00f6 0B       		.uleb128 0xb
 2714 00f7 3A       		.uleb128 0x3a
 2715 00f8 0B       		.uleb128 0xb
 2716 00f9 3B       		.uleb128 0x3b
 2717 00fa 0B       		.uleb128 0xb
 2718 00fb 01       		.uleb128 0x1
 2719 00fc 13       		.uleb128 0x13
 2720 00fd 00       		.byte	0
 2721 00fe 00       		.byte	0
 2722 00ff 16       		.uleb128 0x16
 2723 0100 17       		.uleb128 0x17
 2724 0101 01       		.byte	0x1
 2725 0102 0B       		.uleb128 0xb
 2726 0103 0B       		.uleb128 0xb
 2727 0104 3A       		.uleb128 0x3a
 2728 0105 0B       		.uleb128 0xb
 2729 0106 3B       		.uleb128 0x3b
 2730 0107 0B       		.uleb128 0xb
 2731 0108 01       		.uleb128 0x1
 2732 0109 13       		.uleb128 0x13
ARM GAS  /tmp/ccqE7r6W.s 			page 49


 2733 010a 00       		.byte	0
 2734 010b 00       		.byte	0
 2735 010c 17       		.uleb128 0x17
 2736 010d 0D       		.uleb128 0xd
 2737 010e 00       		.byte	0
 2738 010f 03       		.uleb128 0x3
 2739 0110 0E       		.uleb128 0xe
 2740 0111 3A       		.uleb128 0x3a
 2741 0112 0B       		.uleb128 0xb
 2742 0113 3B       		.uleb128 0x3b
 2743 0114 0B       		.uleb128 0xb
 2744 0115 49       		.uleb128 0x49
 2745 0116 13       		.uleb128 0x13
 2746 0117 00       		.byte	0
 2747 0118 00       		.byte	0
 2748 0119 18       		.uleb128 0x18
 2749 011a 0D       		.uleb128 0xd
 2750 011b 00       		.byte	0
 2751 011c 03       		.uleb128 0x3
 2752 011d 0E       		.uleb128 0xe
 2753 011e 3A       		.uleb128 0x3a
 2754 011f 0B       		.uleb128 0xb
 2755 0120 3B       		.uleb128 0x3b
 2756 0121 05       		.uleb128 0x5
 2757 0122 49       		.uleb128 0x49
 2758 0123 13       		.uleb128 0x13
 2759 0124 00       		.byte	0
 2760 0125 00       		.byte	0
 2761 0126 19       		.uleb128 0x19
 2762 0127 34       		.uleb128 0x34
 2763 0128 00       		.byte	0
 2764 0129 03       		.uleb128 0x3
 2765 012a 08       		.uleb128 0x8
 2766 012b 3A       		.uleb128 0x3a
 2767 012c 0B       		.uleb128 0xb
 2768 012d 3B       		.uleb128 0x3b
 2769 012e 05       		.uleb128 0x5
 2770 012f 49       		.uleb128 0x49
 2771 0130 13       		.uleb128 0x13
 2772 0131 3F       		.uleb128 0x3f
 2773 0132 19       		.uleb128 0x19
 2774 0133 3C       		.uleb128 0x3c
 2775 0134 19       		.uleb128 0x19
 2776 0135 00       		.byte	0
 2777 0136 00       		.byte	0
 2778 0137 1A       		.uleb128 0x1a
 2779 0138 21       		.uleb128 0x21
 2780 0139 00       		.byte	0
 2781 013a 00       		.byte	0
 2782 013b 00       		.byte	0
 2783 013c 1B       		.uleb128 0x1b
 2784 013d 15       		.uleb128 0x15
 2785 013e 01       		.byte	0x1
 2786 013f 27       		.uleb128 0x27
 2787 0140 19       		.uleb128 0x19
 2788 0141 49       		.uleb128 0x49
 2789 0142 13       		.uleb128 0x13
ARM GAS  /tmp/ccqE7r6W.s 			page 50


 2790 0143 01       		.uleb128 0x1
 2791 0144 13       		.uleb128 0x13
 2792 0145 00       		.byte	0
 2793 0146 00       		.byte	0
 2794 0147 1C       		.uleb128 0x1c
 2795 0148 17       		.uleb128 0x17
 2796 0149 01       		.byte	0x1
 2797 014a 03       		.uleb128 0x3
 2798 014b 0E       		.uleb128 0xe
 2799 014c 0B       		.uleb128 0xb
 2800 014d 0B       		.uleb128 0xb
 2801 014e 3A       		.uleb128 0x3a
 2802 014f 0B       		.uleb128 0xb
 2803 0150 3B       		.uleb128 0x3b
 2804 0151 0B       		.uleb128 0xb
 2805 0152 01       		.uleb128 0x1
 2806 0153 13       		.uleb128 0x13
 2807 0154 00       		.byte	0
 2808 0155 00       		.byte	0
 2809 0156 1D       		.uleb128 0x1d
 2810 0157 16       		.uleb128 0x16
 2811 0158 00       		.byte	0
 2812 0159 03       		.uleb128 0x3
 2813 015a 0E       		.uleb128 0xe
 2814 015b 3A       		.uleb128 0x3a
 2815 015c 0B       		.uleb128 0xb
 2816 015d 3B       		.uleb128 0x3b
 2817 015e 05       		.uleb128 0x5
 2818 015f 49       		.uleb128 0x49
 2819 0160 13       		.uleb128 0x13
 2820 0161 00       		.byte	0
 2821 0162 00       		.byte	0
 2822 0163 1E       		.uleb128 0x1e
 2823 0164 34       		.uleb128 0x34
 2824 0165 00       		.byte	0
 2825 0166 03       		.uleb128 0x3
 2826 0167 0E       		.uleb128 0xe
 2827 0168 3A       		.uleb128 0x3a
 2828 0169 0B       		.uleb128 0xb
 2829 016a 3B       		.uleb128 0x3b
 2830 016b 0B       		.uleb128 0xb
 2831 016c 49       		.uleb128 0x49
 2832 016d 13       		.uleb128 0x13
 2833 016e 02       		.uleb128 0x2
 2834 016f 18       		.uleb128 0x18
 2835 0170 00       		.byte	0
 2836 0171 00       		.byte	0
 2837 0172 1F       		.uleb128 0x1f
 2838 0173 2E       		.uleb128 0x2e
 2839 0174 01       		.byte	0x1
 2840 0175 3F       		.uleb128 0x3f
 2841 0176 19       		.uleb128 0x19
 2842 0177 03       		.uleb128 0x3
 2843 0178 0E       		.uleb128 0xe
 2844 0179 3A       		.uleb128 0x3a
 2845 017a 0B       		.uleb128 0xb
 2846 017b 3B       		.uleb128 0x3b
ARM GAS  /tmp/ccqE7r6W.s 			page 51


 2847 017c 05       		.uleb128 0x5
 2848 017d 27       		.uleb128 0x27
 2849 017e 19       		.uleb128 0x19
 2850 017f 49       		.uleb128 0x49
 2851 0180 13       		.uleb128 0x13
 2852 0181 11       		.uleb128 0x11
 2853 0182 01       		.uleb128 0x1
 2854 0183 12       		.uleb128 0x12
 2855 0184 06       		.uleb128 0x6
 2856 0185 40       		.uleb128 0x40
 2857 0186 18       		.uleb128 0x18
 2858 0187 9742     		.uleb128 0x2117
 2859 0189 19       		.uleb128 0x19
 2860 018a 01       		.uleb128 0x1
 2861 018b 13       		.uleb128 0x13
 2862 018c 00       		.byte	0
 2863 018d 00       		.byte	0
 2864 018e 20       		.uleb128 0x20
 2865 018f 05       		.uleb128 0x5
 2866 0190 00       		.byte	0
 2867 0191 03       		.uleb128 0x3
 2868 0192 0E       		.uleb128 0xe
 2869 0193 3A       		.uleb128 0x3a
 2870 0194 0B       		.uleb128 0xb
 2871 0195 3B       		.uleb128 0x3b
 2872 0196 05       		.uleb128 0x5
 2873 0197 49       		.uleb128 0x49
 2874 0198 13       		.uleb128 0x13
 2875 0199 02       		.uleb128 0x2
 2876 019a 17       		.uleb128 0x17
 2877 019b 00       		.byte	0
 2878 019c 00       		.byte	0
 2879 019d 21       		.uleb128 0x21
 2880 019e 34       		.uleb128 0x34
 2881 019f 00       		.byte	0
 2882 01a0 03       		.uleb128 0x3
 2883 01a1 08       		.uleb128 0x8
 2884 01a2 3A       		.uleb128 0x3a
 2885 01a3 0B       		.uleb128 0xb
 2886 01a4 3B       		.uleb128 0x3b
 2887 01a5 05       		.uleb128 0x5
 2888 01a6 49       		.uleb128 0x49
 2889 01a7 13       		.uleb128 0x13
 2890 01a8 02       		.uleb128 0x2
 2891 01a9 17       		.uleb128 0x17
 2892 01aa 00       		.byte	0
 2893 01ab 00       		.byte	0
 2894 01ac 22       		.uleb128 0x22
 2895 01ad 34       		.uleb128 0x34
 2896 01ae 00       		.byte	0
 2897 01af 03       		.uleb128 0x3
 2898 01b0 0E       		.uleb128 0xe
 2899 01b1 3A       		.uleb128 0x3a
 2900 01b2 0B       		.uleb128 0xb
 2901 01b3 3B       		.uleb128 0x3b
 2902 01b4 05       		.uleb128 0x5
 2903 01b5 49       		.uleb128 0x49
ARM GAS  /tmp/ccqE7r6W.s 			page 52


 2904 01b6 13       		.uleb128 0x13
 2905 01b7 02       		.uleb128 0x2
 2906 01b8 17       		.uleb128 0x17
 2907 01b9 00       		.byte	0
 2908 01ba 00       		.byte	0
 2909 01bb 23       		.uleb128 0x23
 2910 01bc 0B       		.uleb128 0xb
 2911 01bd 01       		.byte	0x1
 2912 01be 11       		.uleb128 0x11
 2913 01bf 01       		.uleb128 0x1
 2914 01c0 12       		.uleb128 0x12
 2915 01c1 06       		.uleb128 0x6
 2916 01c2 01       		.uleb128 0x1
 2917 01c3 13       		.uleb128 0x13
 2918 01c4 00       		.byte	0
 2919 01c5 00       		.byte	0
 2920 01c6 24       		.uleb128 0x24
 2921 01c7 34       		.uleb128 0x34
 2922 01c8 00       		.byte	0
 2923 01c9 03       		.uleb128 0x3
 2924 01ca 0E       		.uleb128 0xe
 2925 01cb 3A       		.uleb128 0x3a
 2926 01cc 0B       		.uleb128 0xb
 2927 01cd 3B       		.uleb128 0x3b
 2928 01ce 05       		.uleb128 0x5
 2929 01cf 49       		.uleb128 0x49
 2930 01d0 13       		.uleb128 0x13
 2931 01d1 02       		.uleb128 0x2
 2932 01d2 18       		.uleb128 0x18
 2933 01d3 00       		.byte	0
 2934 01d4 00       		.byte	0
 2935 01d5 25       		.uleb128 0x25
 2936 01d6 898201   		.uleb128 0x4109
 2937 01d9 01       		.byte	0x1
 2938 01da 11       		.uleb128 0x11
 2939 01db 01       		.uleb128 0x1
 2940 01dc 31       		.uleb128 0x31
 2941 01dd 13       		.uleb128 0x13
 2942 01de 01       		.uleb128 0x1
 2943 01df 13       		.uleb128 0x13
 2944 01e0 00       		.byte	0
 2945 01e1 00       		.byte	0
 2946 01e2 26       		.uleb128 0x26
 2947 01e3 8A8201   		.uleb128 0x410a
 2948 01e6 00       		.byte	0
 2949 01e7 02       		.uleb128 0x2
 2950 01e8 18       		.uleb128 0x18
 2951 01e9 9142     		.uleb128 0x2111
 2952 01eb 18       		.uleb128 0x18
 2953 01ec 00       		.byte	0
 2954 01ed 00       		.byte	0
 2955 01ee 27       		.uleb128 0x27
 2956 01ef 898201   		.uleb128 0x4109
 2957 01f2 01       		.byte	0x1
 2958 01f3 11       		.uleb128 0x11
 2959 01f4 01       		.uleb128 0x1
 2960 01f5 31       		.uleb128 0x31
ARM GAS  /tmp/ccqE7r6W.s 			page 53


 2961 01f6 13       		.uleb128 0x13
 2962 01f7 00       		.byte	0
 2963 01f8 00       		.byte	0
 2964 01f9 28       		.uleb128 0x28
 2965 01fa 2E       		.uleb128 0x2e
 2966 01fb 01       		.byte	0x1
 2967 01fc 3F       		.uleb128 0x3f
 2968 01fd 19       		.uleb128 0x19
 2969 01fe 03       		.uleb128 0x3
 2970 01ff 0E       		.uleb128 0xe
 2971 0200 3A       		.uleb128 0x3a
 2972 0201 0B       		.uleb128 0xb
 2973 0202 3B       		.uleb128 0x3b
 2974 0203 05       		.uleb128 0x5
 2975 0204 27       		.uleb128 0x27
 2976 0205 19       		.uleb128 0x19
 2977 0206 11       		.uleb128 0x11
 2978 0207 01       		.uleb128 0x1
 2979 0208 12       		.uleb128 0x12
 2980 0209 06       		.uleb128 0x6
 2981 020a 40       		.uleb128 0x40
 2982 020b 18       		.uleb128 0x18
 2983 020c 9742     		.uleb128 0x2117
 2984 020e 19       		.uleb128 0x19
 2985 020f 01       		.uleb128 0x1
 2986 0210 13       		.uleb128 0x13
 2987 0211 00       		.byte	0
 2988 0212 00       		.byte	0
 2989 0213 29       		.uleb128 0x29
 2990 0214 05       		.uleb128 0x5
 2991 0215 00       		.byte	0
 2992 0216 03       		.uleb128 0x3
 2993 0217 08       		.uleb128 0x8
 2994 0218 3A       		.uleb128 0x3a
 2995 0219 0B       		.uleb128 0xb
 2996 021a 3B       		.uleb128 0x3b
 2997 021b 05       		.uleb128 0x5
 2998 021c 49       		.uleb128 0x49
 2999 021d 13       		.uleb128 0x13
 3000 021e 02       		.uleb128 0x2
 3001 021f 17       		.uleb128 0x17
 3002 0220 00       		.byte	0
 3003 0221 00       		.byte	0
 3004 0222 2A       		.uleb128 0x2a
 3005 0223 34       		.uleb128 0x34
 3006 0224 00       		.byte	0
 3007 0225 03       		.uleb128 0x3
 3008 0226 0E       		.uleb128 0xe
 3009 0227 49       		.uleb128 0x49
 3010 0228 13       		.uleb128 0x13
 3011 0229 34       		.uleb128 0x34
 3012 022a 19       		.uleb128 0x19
 3013 022b 00       		.byte	0
 3014 022c 00       		.byte	0
 3015 022d 2B       		.uleb128 0x2b
 3016 022e 898201   		.uleb128 0x4109
 3017 0231 00       		.byte	0
ARM GAS  /tmp/ccqE7r6W.s 			page 54


 3018 0232 11       		.uleb128 0x11
 3019 0233 01       		.uleb128 0x1
 3020 0234 9542     		.uleb128 0x2115
 3021 0236 19       		.uleb128 0x19
 3022 0237 31       		.uleb128 0x31
 3023 0238 13       		.uleb128 0x13
 3024 0239 00       		.byte	0
 3025 023a 00       		.byte	0
 3026 023b 2C       		.uleb128 0x2c
 3027 023c 2E       		.uleb128 0x2e
 3028 023d 01       		.byte	0x1
 3029 023e 3F       		.uleb128 0x3f
 3030 023f 19       		.uleb128 0x19
 3031 0240 03       		.uleb128 0x3
 3032 0241 0E       		.uleb128 0xe
 3033 0242 3A       		.uleb128 0x3a
 3034 0243 0B       		.uleb128 0xb
 3035 0244 3B       		.uleb128 0x3b
 3036 0245 0B       		.uleb128 0xb
 3037 0246 27       		.uleb128 0x27
 3038 0247 19       		.uleb128 0x19
 3039 0248 49       		.uleb128 0x49
 3040 0249 13       		.uleb128 0x13
 3041 024a 11       		.uleb128 0x11
 3042 024b 01       		.uleb128 0x1
 3043 024c 12       		.uleb128 0x12
 3044 024d 06       		.uleb128 0x6
 3045 024e 40       		.uleb128 0x40
 3046 024f 18       		.uleb128 0x18
 3047 0250 9742     		.uleb128 0x2117
 3048 0252 19       		.uleb128 0x19
 3049 0253 01       		.uleb128 0x1
 3050 0254 13       		.uleb128 0x13
 3051 0255 00       		.byte	0
 3052 0256 00       		.byte	0
 3053 0257 2D       		.uleb128 0x2d
 3054 0258 05       		.uleb128 0x5
 3055 0259 00       		.byte	0
 3056 025a 03       		.uleb128 0x3
 3057 025b 0E       		.uleb128 0xe
 3058 025c 3A       		.uleb128 0x3a
 3059 025d 0B       		.uleb128 0xb
 3060 025e 3B       		.uleb128 0x3b
 3061 025f 0B       		.uleb128 0xb
 3062 0260 49       		.uleb128 0x49
 3063 0261 13       		.uleb128 0x13
 3064 0262 02       		.uleb128 0x2
 3065 0263 17       		.uleb128 0x17
 3066 0264 00       		.byte	0
 3067 0265 00       		.byte	0
 3068 0266 2E       		.uleb128 0x2e
 3069 0267 34       		.uleb128 0x34
 3070 0268 00       		.byte	0
 3071 0269 03       		.uleb128 0x3
 3072 026a 08       		.uleb128 0x8
 3073 026b 3A       		.uleb128 0x3a
 3074 026c 0B       		.uleb128 0xb
ARM GAS  /tmp/ccqE7r6W.s 			page 55


 3075 026d 3B       		.uleb128 0x3b
 3076 026e 0B       		.uleb128 0xb
 3077 026f 49       		.uleb128 0x49
 3078 0270 13       		.uleb128 0x13
 3079 0271 02       		.uleb128 0x2
 3080 0272 17       		.uleb128 0x17
 3081 0273 00       		.byte	0
 3082 0274 00       		.byte	0
 3083 0275 2F       		.uleb128 0x2f
 3084 0276 34       		.uleb128 0x34
 3085 0277 00       		.byte	0
 3086 0278 03       		.uleb128 0x3
 3087 0279 0E       		.uleb128 0xe
 3088 027a 3A       		.uleb128 0x3a
 3089 027b 0B       		.uleb128 0xb
 3090 027c 3B       		.uleb128 0x3b
 3091 027d 0B       		.uleb128 0xb
 3092 027e 49       		.uleb128 0x49
 3093 027f 13       		.uleb128 0x13
 3094 0280 02       		.uleb128 0x2
 3095 0281 17       		.uleb128 0x17
 3096 0282 00       		.byte	0
 3097 0283 00       		.byte	0
 3098 0284 30       		.uleb128 0x30
 3099 0285 0B       		.uleb128 0xb
 3100 0286 01       		.byte	0x1
 3101 0287 11       		.uleb128 0x11
 3102 0288 01       		.uleb128 0x1
 3103 0289 12       		.uleb128 0x12
 3104 028a 06       		.uleb128 0x6
 3105 028b 00       		.byte	0
 3106 028c 00       		.byte	0
 3107 028d 31       		.uleb128 0x31
 3108 028e 898201   		.uleb128 0x4109
 3109 0291 01       		.byte	0x1
 3110 0292 11       		.uleb128 0x11
 3111 0293 01       		.uleb128 0x1
 3112 0294 9342     		.uleb128 0x2113
 3113 0296 18       		.uleb128 0x18
 3114 0297 01       		.uleb128 0x1
 3115 0298 13       		.uleb128 0x13
 3116 0299 00       		.byte	0
 3117 029a 00       		.byte	0
 3118 029b 32       		.uleb128 0x32
 3119 029c 2E       		.uleb128 0x2e
 3120 029d 01       		.byte	0x1
 3121 029e 3F       		.uleb128 0x3f
 3122 029f 19       		.uleb128 0x19
 3123 02a0 03       		.uleb128 0x3
 3124 02a1 0E       		.uleb128 0xe
 3125 02a2 3A       		.uleb128 0x3a
 3126 02a3 0B       		.uleb128 0xb
 3127 02a4 3B       		.uleb128 0x3b
 3128 02a5 0B       		.uleb128 0xb
 3129 02a6 27       		.uleb128 0x27
 3130 02a7 19       		.uleb128 0x19
 3131 02a8 11       		.uleb128 0x11
ARM GAS  /tmp/ccqE7r6W.s 			page 56


 3132 02a9 01       		.uleb128 0x1
 3133 02aa 12       		.uleb128 0x12
 3134 02ab 06       		.uleb128 0x6
 3135 02ac 40       		.uleb128 0x40
 3136 02ad 18       		.uleb128 0x18
 3137 02ae 9742     		.uleb128 0x2117
 3138 02b0 19       		.uleb128 0x19
 3139 02b1 01       		.uleb128 0x1
 3140 02b2 13       		.uleb128 0x13
 3141 02b3 00       		.byte	0
 3142 02b4 00       		.byte	0
 3143 02b5 33       		.uleb128 0x33
 3144 02b6 05       		.uleb128 0x5
 3145 02b7 00       		.byte	0
 3146 02b8 03       		.uleb128 0x3
 3147 02b9 08       		.uleb128 0x8
 3148 02ba 3A       		.uleb128 0x3a
 3149 02bb 0B       		.uleb128 0xb
 3150 02bc 3B       		.uleb128 0x3b
 3151 02bd 0B       		.uleb128 0xb
 3152 02be 49       		.uleb128 0x49
 3153 02bf 13       		.uleb128 0x13
 3154 02c0 02       		.uleb128 0x2
 3155 02c1 17       		.uleb128 0x17
 3156 02c2 00       		.byte	0
 3157 02c3 00       		.byte	0
 3158 02c4 34       		.uleb128 0x34
 3159 02c5 898201   		.uleb128 0x4109
 3160 02c8 01       		.byte	0x1
 3161 02c9 11       		.uleb128 0x11
 3162 02ca 01       		.uleb128 0x1
 3163 02cb 9542     		.uleb128 0x2115
 3164 02cd 19       		.uleb128 0x19
 3165 02ce 31       		.uleb128 0x31
 3166 02cf 13       		.uleb128 0x13
 3167 02d0 00       		.byte	0
 3168 02d1 00       		.byte	0
 3169 02d2 35       		.uleb128 0x35
 3170 02d3 2E       		.uleb128 0x2e
 3171 02d4 00       		.byte	0
 3172 02d5 3F       		.uleb128 0x3f
 3173 02d6 19       		.uleb128 0x19
 3174 02d7 3C       		.uleb128 0x3c
 3175 02d8 19       		.uleb128 0x19
 3176 02d9 6E       		.uleb128 0x6e
 3177 02da 0E       		.uleb128 0xe
 3178 02db 03       		.uleb128 0x3
 3179 02dc 0E       		.uleb128 0xe
 3180 02dd 3A       		.uleb128 0x3a
 3181 02de 0B       		.uleb128 0xb
 3182 02df 3B       		.uleb128 0x3b
 3183 02e0 0B       		.uleb128 0xb
 3184 02e1 00       		.byte	0
 3185 02e2 00       		.byte	0
 3186 02e3 00       		.byte	0
 3187              		.section	.debug_loc,"",%progbits
 3188              	.Ldebug_loc0:
ARM GAS  /tmp/ccqE7r6W.s 			page 57


 3189              	.LLST17:
 3190 0000 00000000 		.4byte	.LVL45
 3191 0004 0C000000 		.4byte	.LVL46
 3192 0008 0100     		.2byte	0x1
 3193 000a 50       		.byte	0x50
 3194 000b 0C000000 		.4byte	.LVL46
 3195 000f 22000000 		.4byte	.LVL49
 3196 0013 0100     		.2byte	0x1
 3197 0015 54       		.byte	0x54
 3198 0016 22000000 		.4byte	.LVL49
 3199 001a 44000000 		.4byte	.LVL54
 3200 001e 0300     		.2byte	0x3
 3201 0020 76       		.byte	0x76
 3202 0021 74       		.sleb128 -12
 3203 0022 9F       		.byte	0x9f
 3204 0023 44000000 		.4byte	.LVL54
 3205 0027 58000000 		.4byte	.LFE294
 3206 002b 1300     		.2byte	0x13
 3207 002d F3       		.byte	0xf3
 3208 002e 01       		.uleb128 0x1
 3209 002f 50       		.byte	0x50
 3210 0030 03       		.byte	0x3
 3211 0031 00000000 		.4byte	.LANCHOR0
 3212 0035 F3       		.byte	0xf3
 3213 0036 01       		.uleb128 0x1
 3214 0037 50       		.byte	0x50
 3215 0038 30       		.byte	0x30
 3216 0039 2E       		.byte	0x2e
 3217 003a 28       		.byte	0x28
 3218 003b 0100     		.2byte	0x1
 3219 003d 16       		.byte	0x16
 3220 003e 13       		.byte	0x13
 3221 003f 9F       		.byte	0x9f
 3222 0040 00000000 		.4byte	0
 3223 0044 00000000 		.4byte	0
 3224              	.LLST18:
 3225 0048 00000000 		.4byte	.LVL45
 3226 004c 19000000 		.4byte	.LVL47-1
 3227 0050 0100     		.2byte	0x1
 3228 0052 51       		.byte	0x51
 3229 0053 19000000 		.4byte	.LVL47-1
 3230 0057 58000000 		.4byte	.LFE294
 3231 005b 0100     		.2byte	0x1
 3232 005d 58       		.byte	0x58
 3233 005e 00000000 		.4byte	0
 3234 0062 00000000 		.4byte	0
 3235              	.LLST19:
 3236 0066 00000000 		.4byte	.LVL45
 3237 006a 19000000 		.4byte	.LVL47-1
 3238 006e 0100     		.2byte	0x1
 3239 0070 52       		.byte	0x52
 3240 0071 19000000 		.4byte	.LVL47-1
 3241 0075 58000000 		.4byte	.LFE294
 3242 0079 0100     		.2byte	0x1
 3243 007b 57       		.byte	0x57
 3244 007c 00000000 		.4byte	0
 3245 0080 00000000 		.4byte	0
ARM GAS  /tmp/ccqE7r6W.s 			page 58


 3246              	.LLST20:
 3247 0084 1E000000 		.4byte	.LVL48
 3248 0088 24000000 		.4byte	.LVL50
 3249 008c 0100     		.2byte	0x1
 3250 008e 50       		.byte	0x50
 3251 008f 00000000 		.4byte	0
 3252 0093 00000000 		.4byte	0
 3253              	.LLST21:
 3254 0097 1A000000 		.4byte	.LVL47
 3255 009b 22000000 		.4byte	.LVL49
 3256 009f 0200     		.2byte	0x2
 3257 00a1 30       		.byte	0x30
 3258 00a2 9F       		.byte	0x9f
 3259 00a3 22000000 		.4byte	.LVL49
 3260 00a7 58000000 		.4byte	.LFE294
 3261 00ab 0100     		.2byte	0x1
 3262 00ad 55       		.byte	0x55
 3263 00ae 00000000 		.4byte	0
 3264 00b2 00000000 		.4byte	0
 3265              	.LLST22:
 3266 00b6 1A000000 		.4byte	.LVL47
 3267 00ba 22000000 		.4byte	.LVL49
 3268 00be 0200     		.2byte	0x2
 3269 00c0 30       		.byte	0x30
 3270 00c1 9F       		.byte	0x9f
 3271 00c2 22000000 		.4byte	.LVL49
 3272 00c6 2E000000 		.4byte	.LVL51
 3273 00ca 0100     		.2byte	0x1
 3274 00cc 54       		.byte	0x54
 3275 00cd 44000000 		.4byte	.LVL54
 3276 00d1 58000000 		.4byte	.LFE294
 3277 00d5 0100     		.2byte	0x1
 3278 00d7 54       		.byte	0x54
 3279 00d8 00000000 		.4byte	0
 3280 00dc 00000000 		.4byte	0
 3281              	.LLST23:
 3282 00e0 1A000000 		.4byte	.LVL47
 3283 00e4 22000000 		.4byte	.LVL49
 3284 00e8 0200     		.2byte	0x2
 3285 00ea 30       		.byte	0x30
 3286 00eb 9F       		.byte	0x9f
 3287 00ec 22000000 		.4byte	.LVL49
 3288 00f0 36000000 		.4byte	.LVL52
 3289 00f4 0100     		.2byte	0x1
 3290 00f6 53       		.byte	0x53
 3291 00f7 44000000 		.4byte	.LVL54
 3292 00fb 52000000 		.4byte	.LVL58
 3293 00ff 0100     		.2byte	0x1
 3294 0101 53       		.byte	0x53
 3295 0102 00000000 		.4byte	0
 3296 0106 00000000 		.4byte	0
 3297              	.LLST14:
 3298 010a 00000000 		.4byte	.LVL37
 3299 010e 1E000000 		.4byte	.LVL39
 3300 0112 0100     		.2byte	0x1
 3301 0114 50       		.byte	0x50
 3302 0115 1E000000 		.4byte	.LVL39
ARM GAS  /tmp/ccqE7r6W.s 			page 59


 3303 0119 7E000000 		.4byte	.LVL42
 3304 011d 0100     		.2byte	0x1
 3305 011f 54       		.byte	0x54
 3306 0120 7E000000 		.4byte	.LVL42
 3307 0124 82000000 		.4byte	.LVL43
 3308 0128 0400     		.2byte	0x4
 3309 012a F3       		.byte	0xf3
 3310 012b 01       		.uleb128 0x1
 3311 012c 50       		.byte	0x50
 3312 012d 9F       		.byte	0x9f
 3313 012e 82000000 		.4byte	.LVL43
 3314 0132 86000000 		.4byte	.LFE293
 3315 0136 0100     		.2byte	0x1
 3316 0138 54       		.byte	0x54
 3317 0139 00000000 		.4byte	0
 3318 013d 00000000 		.4byte	0
 3319              	.LLST15:
 3320 0141 1C000000 		.4byte	.LVL38
 3321 0145 24000000 		.4byte	.LVL41
 3322 0149 0100     		.2byte	0x1
 3323 014b 57       		.byte	0x57
 3324 014c 24000000 		.4byte	.LVL41
 3325 0150 7E000000 		.4byte	.LVL42
 3326 0154 0100     		.2byte	0x1
 3327 0156 53       		.byte	0x53
 3328 0157 82000000 		.4byte	.LVL43
 3329 015b 84000000 		.4byte	.LVL44
 3330 015f 0100     		.2byte	0x1
 3331 0161 53       		.byte	0x53
 3332 0162 84000000 		.4byte	.LVL44
 3333 0166 86000000 		.4byte	.LFE293
 3334 016a 0100     		.2byte	0x1
 3335 016c 52       		.byte	0x52
 3336 016d 00000000 		.4byte	0
 3337 0171 00000000 		.4byte	0
 3338              	.LLST16:
 3339 0175 1C000000 		.4byte	.LVL38
 3340 0179 7E000000 		.4byte	.LVL42
 3341 017d 0100     		.2byte	0x1
 3342 017f 55       		.byte	0x55
 3343 0180 7E000000 		.4byte	.LVL42
 3344 0184 82000000 		.4byte	.LVL43
 3345 0188 0600     		.2byte	0x6
 3346 018a F3       		.byte	0xf3
 3347 018b 01       		.uleb128 0x1
 3348 018c 50       		.byte	0x50
 3349 018d 38       		.byte	0x38
 3350 018e 1C       		.byte	0x1c
 3351 018f 9F       		.byte	0x9f
 3352 0190 82000000 		.4byte	.LVL43
 3353 0194 86000000 		.4byte	.LFE293
 3354 0198 0100     		.2byte	0x1
 3355 019a 55       		.byte	0x55
 3356 019b 00000000 		.4byte	0
 3357 019f 00000000 		.4byte	0
 3358              	.LLST4:
 3359 01a3 00000000 		.4byte	.LVL8
ARM GAS  /tmp/ccqE7r6W.s 			page 60


 3360 01a7 0C000000 		.4byte	.LVL9
 3361 01ab 0100     		.2byte	0x1
 3362 01ad 50       		.byte	0x50
 3363 01ae 0C000000 		.4byte	.LVL9
 3364 01b2 E0000000 		.4byte	.LFE292
 3365 01b6 0100     		.2byte	0x1
 3366 01b8 56       		.byte	0x56
 3367 01b9 00000000 		.4byte	0
 3368 01bd 00000000 		.4byte	0
 3369              	.LLST5:
 3370 01c1 00000000 		.4byte	.LVL8
 3371 01c5 23000000 		.4byte	.LVL13-1
 3372 01c9 0100     		.2byte	0x1
 3373 01cb 51       		.byte	0x51
 3374 01cc 23000000 		.4byte	.LVL13-1
 3375 01d0 E0000000 		.4byte	.LFE292
 3376 01d4 0100     		.2byte	0x1
 3377 01d6 57       		.byte	0x57
 3378 01d7 00000000 		.4byte	0
 3379 01db 00000000 		.4byte	0
 3380              	.LLST6:
 3381 01df 00000000 		.4byte	.LVL8
 3382 01e3 12000000 		.4byte	.LVL10
 3383 01e7 0100     		.2byte	0x1
 3384 01e9 52       		.byte	0x52
 3385 01ea 12000000 		.4byte	.LVL10
 3386 01ee 18000000 		.4byte	.LVL11
 3387 01f2 0400     		.2byte	0x4
 3388 01f4 F3       		.byte	0xf3
 3389 01f5 01       		.uleb128 0x1
 3390 01f6 52       		.byte	0x52
 3391 01f7 9F       		.byte	0x9f
 3392 01f8 18000000 		.4byte	.LVL11
 3393 01fc 23000000 		.4byte	.LVL13-1
 3394 0200 0100     		.2byte	0x1
 3395 0202 52       		.byte	0x52
 3396 0203 23000000 		.4byte	.LVL13-1
 3397 0207 E0000000 		.4byte	.LFE292
 3398 020b 0100     		.2byte	0x1
 3399 020d 59       		.byte	0x59
 3400 020e 00000000 		.4byte	0
 3401 0212 00000000 		.4byte	0
 3402              	.LLST7:
 3403 0216 2C000000 		.4byte	.LVL14
 3404 021a 3B000000 		.4byte	.LVL16-1
 3405 021e 0100     		.2byte	0x1
 3406 0220 5E       		.byte	0x5e
 3407 0221 52000000 		.4byte	.LVL20
 3408 0225 A9000000 		.4byte	.LVL28-1
 3409 0229 0100     		.2byte	0x1
 3410 022b 5E       		.byte	0x5e
 3411 022c B0000000 		.4byte	.LVL29
 3412 0230 DA000000 		.4byte	.LVL36
 3413 0234 0100     		.2byte	0x1
 3414 0236 5E       		.byte	0x5e
 3415 0237 00000000 		.4byte	0
 3416 023b 00000000 		.4byte	0
ARM GAS  /tmp/ccqE7r6W.s 			page 61


 3417              	.LLST8:
 3418 023f 4A000000 		.4byte	.LVL18
 3419 0243 4E000000 		.4byte	.LVL19
 3420 0247 0300     		.2byte	0x3
 3421 0249 70       		.byte	0x70
 3422 024a 78       		.sleb128 -8
 3423 024b 9F       		.byte	0x9f
 3424 024c 52000000 		.4byte	.LVL20
 3425 0250 9C000000 		.4byte	.LVL26
 3426 0254 0100     		.2byte	0x1
 3427 0256 53       		.byte	0x53
 3428 0257 9C000000 		.4byte	.LVL26
 3429 025b A6000000 		.4byte	.LVL27
 3430 025f 0100     		.2byte	0x1
 3431 0261 50       		.byte	0x50
 3432 0262 A6000000 		.4byte	.LVL27
 3433 0266 AA000000 		.4byte	.LVL28
 3434 026a 0300     		.2byte	0x3
 3435 026c 74       		.byte	0x74
 3436 026d 78       		.sleb128 -8
 3437 026e 9F       		.byte	0x9f
 3438 026f B0000000 		.4byte	.LVL29
 3439 0273 E0000000 		.4byte	.LFE292
 3440 0277 0100     		.2byte	0x1
 3441 0279 53       		.byte	0x53
 3442 027a 00000000 		.4byte	0
 3443 027e 00000000 		.4byte	0
 3444              	.LLST9:
 3445 0282 48000000 		.4byte	.LVL17
 3446 0286 52000000 		.4byte	.LVL20
 3447 028a 0100     		.2byte	0x1
 3448 028c 50       		.byte	0x50
 3449 028d 6A000000 		.4byte	.LVL21
 3450 0291 9C000000 		.4byte	.LVL26
 3451 0295 0100     		.2byte	0x1
 3452 0297 50       		.byte	0x50
 3453 0298 9C000000 		.4byte	.LVL26
 3454 029c A9000000 		.4byte	.LVL28-1
 3455 02a0 0D00     		.2byte	0xd
 3456 02a2 73       		.byte	0x73
 3457 02a3 00       		.sleb128 0
 3458 02a4 7A       		.byte	0x7a
 3459 02a5 00       		.sleb128 0
 3460 02a6 22       		.byte	0x22
 3461 02a7 23       		.byte	0x23
 3462 02a8 08       		.uleb128 0x8
 3463 02a9 7B       		.byte	0x7b
 3464 02aa 00       		.sleb128 0
 3465 02ab 1A       		.byte	0x1a
 3466 02ac 38       		.byte	0x38
 3467 02ad 1C       		.byte	0x1c
 3468 02ae 9F       		.byte	0x9f
 3469 02af B0000000 		.4byte	.LVL29
 3470 02b3 BC000000 		.4byte	.LVL31
 3471 02b7 0100     		.2byte	0x1
 3472 02b9 50       		.byte	0x50
 3473 02ba BC000000 		.4byte	.LVL31
ARM GAS  /tmp/ccqE7r6W.s 			page 62


 3474 02be BE000000 		.4byte	.LVL32
 3475 02c2 0D00     		.2byte	0xd
 3476 02c4 73       		.byte	0x73
 3477 02c5 00       		.sleb128 0
 3478 02c6 7A       		.byte	0x7a
 3479 02c7 00       		.sleb128 0
 3480 02c8 22       		.byte	0x22
 3481 02c9 23       		.byte	0x23
 3482 02ca 08       		.uleb128 0x8
 3483 02cb 7B       		.byte	0x7b
 3484 02cc 00       		.sleb128 0
 3485 02cd 1A       		.byte	0x1a
 3486 02ce 38       		.byte	0x38
 3487 02cf 1C       		.byte	0x1c
 3488 02d0 9F       		.byte	0x9f
 3489 02d1 BE000000 		.4byte	.LVL32
 3490 02d5 E0000000 		.4byte	.LFE292
 3491 02d9 0100     		.2byte	0x1
 3492 02db 50       		.byte	0x50
 3493 02dc 00000000 		.4byte	0
 3494 02e0 00000000 		.4byte	0
 3495              	.LLST10:
 3496 02e4 20000000 		.4byte	.LVL12
 3497 02e8 90000000 		.4byte	.LVL24
 3498 02ec 0100     		.2byte	0x1
 3499 02ee 55       		.byte	0x55
 3500 02ef 90000000 		.4byte	.LVL24
 3501 02f3 9C000000 		.4byte	.LVL26
 3502 02f7 0400     		.2byte	0x4
 3503 02f9 75       		.byte	0x75
 3504 02fa 00       		.sleb128 0
 3505 02fb 20       		.byte	0x20
 3506 02fc 9F       		.byte	0x9f
 3507 02fd 9C000000 		.4byte	.LVL26
 3508 0301 B0000000 		.4byte	.LVL29
 3509 0305 0500     		.2byte	0x5
 3510 0307 77       		.byte	0x77
 3511 0308 07       		.sleb128 7
 3512 0309 33       		.byte	0x33
 3513 030a 25       		.byte	0x25
 3514 030b 9F       		.byte	0x9f
 3515 030c B0000000 		.4byte	.LVL29
 3516 0310 BA000000 		.4byte	.LVL30
 3517 0314 0100     		.2byte	0x1
 3518 0316 55       		.byte	0x55
 3519 0317 BA000000 		.4byte	.LVL30
 3520 031b BE000000 		.4byte	.LVL32
 3521 031f 0500     		.2byte	0x5
 3522 0321 77       		.byte	0x77
 3523 0322 07       		.sleb128 7
 3524 0323 33       		.byte	0x33
 3525 0324 25       		.byte	0x25
 3526 0325 9F       		.byte	0x9f
 3527 0326 BE000000 		.4byte	.LVL32
 3528 032a C0000000 		.4byte	.LVL33
 3529 032e 0100     		.2byte	0x1
 3530 0330 55       		.byte	0x55
ARM GAS  /tmp/ccqE7r6W.s 			page 63


 3531 0331 C0000000 		.4byte	.LVL33
 3532 0335 D8000000 		.4byte	.LVL35
 3533 0339 0300     		.2byte	0x3
 3534 033b 75       		.byte	0x75
 3535 033c 7F       		.sleb128 -1
 3536 033d 9F       		.byte	0x9f
 3537 033e D8000000 		.4byte	.LVL35
 3538 0342 E0000000 		.4byte	.LFE292
 3539 0346 0100     		.2byte	0x1
 3540 0348 55       		.byte	0x55
 3541 0349 00000000 		.4byte	0
 3542 034d 00000000 		.4byte	0
 3543              	.LLST11:
 3544 0351 7E000000 		.4byte	.LVL22
 3545 0355 92000000 		.4byte	.LVL25
 3546 0359 0100     		.2byte	0x1
 3547 035b 52       		.byte	0x52
 3548 035c 92000000 		.4byte	.LVL25
 3549 0360 9C000000 		.4byte	.LVL26
 3550 0364 0F00     		.2byte	0xf
 3551 0366 7C       		.byte	0x7c
 3552 0367 01       		.sleb128 1
 3553 0368 33       		.byte	0x33
 3554 0369 24       		.byte	0x24
 3555 036a 70       		.byte	0x70
 3556 036b 00       		.sleb128 0
 3557 036c 1C       		.byte	0x1c
 3558 036d 73       		.byte	0x73
 3559 036e 00       		.sleb128 0
 3560 036f 22       		.byte	0x22
 3561 0370 38       		.byte	0x38
 3562 0371 1C       		.byte	0x1c
 3563 0372 33       		.byte	0x33
 3564 0373 26       		.byte	0x26
 3565 0374 9F       		.byte	0x9f
 3566 0375 00000000 		.4byte	0
 3567 0379 00000000 		.4byte	0
 3568              	.LLST12:
 3569 037d 8E000000 		.4byte	.LVL23
 3570 0381 9C000000 		.4byte	.LVL26
 3571 0385 0100     		.2byte	0x1
 3572 0387 51       		.byte	0x51
 3573 0388 00000000 		.4byte	0
 3574 038c 00000000 		.4byte	0
 3575              	.LLST13:
 3576 0390 C4000000 		.4byte	.LVL34
 3577 0394 D8000000 		.4byte	.LVL35
 3578 0398 0100     		.2byte	0x1
 3579 039a 52       		.byte	0x52
 3580 039b 00000000 		.4byte	0
 3581 039f 00000000 		.4byte	0
 3582              	.LLST0:
 3583 03a3 00000000 		.4byte	.LVL1
 3584 03a7 1E000000 		.4byte	.LVL6
 3585 03ab 0100     		.2byte	0x1
 3586 03ad 50       		.byte	0x50
 3587 03ae 1E000000 		.4byte	.LVL6
ARM GAS  /tmp/ccqE7r6W.s 			page 64


 3588 03b2 25000000 		.4byte	.LVL7-1
 3589 03b6 0300     		.2byte	0x3
 3590 03b8 70       		.byte	0x70
 3591 03b9 74       		.sleb128 -12
 3592 03ba 9F       		.byte	0x9f
 3593 03bb 25000000 		.4byte	.LVL7-1
 3594 03bf 26000000 		.4byte	.LFE291
 3595 03c3 0400     		.2byte	0x4
 3596 03c5 F3       		.byte	0xf3
 3597 03c6 01       		.uleb128 0x1
 3598 03c7 50       		.byte	0x50
 3599 03c8 9F       		.byte	0x9f
 3600 03c9 00000000 		.4byte	0
 3601 03cd 00000000 		.4byte	0
 3602              	.LLST1:
 3603 03d1 00000000 		.4byte	.LVL1
 3604 03d5 0A000000 		.4byte	.LVL4
 3605 03d9 0100     		.2byte	0x1
 3606 03db 51       		.byte	0x51
 3607 03dc 0A000000 		.4byte	.LVL4
 3608 03e0 26000000 		.4byte	.LFE291
 3609 03e4 0400     		.2byte	0x4
 3610 03e6 F3       		.byte	0xf3
 3611 03e7 01       		.uleb128 0x1
 3612 03e8 51       		.byte	0x51
 3613 03e9 9F       		.byte	0x9f
 3614 03ea 00000000 		.4byte	0
 3615 03ee 00000000 		.4byte	0
 3616              	.LLST2:
 3617 03f2 00000000 		.4byte	.LVL1
 3618 03f6 06000000 		.4byte	.LVL2
 3619 03fa 0100     		.2byte	0x1
 3620 03fc 52       		.byte	0x52
 3621 03fd 06000000 		.4byte	.LVL2
 3622 0401 08000000 		.4byte	.LVL3
 3623 0405 0900     		.2byte	0x9
 3624 0407 71       		.byte	0x71
 3625 0408 00       		.sleb128 0
 3626 0409 73       		.byte	0x73
 3627 040a 00       		.sleb128 0
 3628 040b 1C       		.byte	0x1c
 3629 040c 72       		.byte	0x72
 3630 040d 00       		.sleb128 0
 3631 040e 22       		.byte	0x22
 3632 040f 9F       		.byte	0x9f
 3633 0410 08000000 		.4byte	.LVL3
 3634 0414 0A000000 		.4byte	.LVL4
 3635 0418 0B00     		.2byte	0xb
 3636 041a 71       		.byte	0x71
 3637 041b 00       		.sleb128 0
 3638 041c 72       		.byte	0x72
 3639 041d 00       		.sleb128 0
 3640 041e 22       		.byte	0x22
 3641 041f 73       		.byte	0x73
 3642 0420 00       		.sleb128 0
 3643 0421 1C       		.byte	0x1c
 3644 0422 23       		.byte	0x23
ARM GAS  /tmp/ccqE7r6W.s 			page 65


 3645 0423 08       		.uleb128 0x8
 3646 0424 9F       		.byte	0x9f
 3647 0425 0A000000 		.4byte	.LVL4
 3648 0429 0C000000 		.4byte	.LVL5
 3649 042d 0C00     		.2byte	0xc
 3650 042f 72       		.byte	0x72
 3651 0430 00       		.sleb128 0
 3652 0431 F3       		.byte	0xf3
 3653 0432 01       		.uleb128 0x1
 3654 0433 51       		.byte	0x51
 3655 0434 22       		.byte	0x22
 3656 0435 73       		.byte	0x73
 3657 0436 00       		.sleb128 0
 3658 0437 1C       		.byte	0x1c
 3659 0438 23       		.byte	0x23
 3660 0439 08       		.uleb128 0x8
 3661 043a 9F       		.byte	0x9f
 3662 043b 0C000000 		.4byte	.LVL5
 3663 043f 25000000 		.4byte	.LVL7-1
 3664 0443 0B00     		.2byte	0xb
 3665 0445 F3       		.byte	0xf3
 3666 0446 01       		.uleb128 0x1
 3667 0447 51       		.byte	0x51
 3668 0448 F3       		.byte	0xf3
 3669 0449 01       		.uleb128 0x1
 3670 044a 52       		.byte	0x52
 3671 044b 22       		.byte	0x22
 3672 044c 73       		.byte	0x73
 3673 044d 00       		.sleb128 0
 3674 044e 1C       		.byte	0x1c
 3675 044f 9F       		.byte	0x9f
 3676 0450 25000000 		.4byte	.LVL7-1
 3677 0454 26000000 		.4byte	.LFE291
 3678 0458 1100     		.2byte	0x11
 3679 045a F3       		.byte	0xf3
 3680 045b 01       		.uleb128 0x1
 3681 045c 51       		.byte	0x51
 3682 045d F3       		.byte	0xf3
 3683 045e 01       		.uleb128 0x1
 3684 045f 51       		.byte	0x51
 3685 0460 23       		.byte	0x23
 3686 0461 07       		.uleb128 0x7
 3687 0462 09       		.byte	0x9
 3688 0463 F8       		.byte	0xf8
 3689 0464 1A       		.byte	0x1a
 3690 0465 1C       		.byte	0x1c
 3691 0466 F3       		.byte	0xf3
 3692 0467 01       		.uleb128 0x1
 3693 0468 52       		.byte	0x52
 3694 0469 22       		.byte	0x22
 3695 046a 9F       		.byte	0x9f
 3696 046b 00000000 		.4byte	0
 3697 046f 00000000 		.4byte	0
 3698              	.LLST3:
 3699 0473 06000000 		.4byte	.LVL2
 3700 0477 25000000 		.4byte	.LVL7-1
 3701 047b 0100     		.2byte	0x1
ARM GAS  /tmp/ccqE7r6W.s 			page 66


 3702 047d 53       		.byte	0x53
 3703 047e 25000000 		.4byte	.LVL7-1
 3704 0482 26000000 		.4byte	.LFE291
 3705 0486 0900     		.2byte	0x9
 3706 0488 F3       		.byte	0xf3
 3707 0489 01       		.uleb128 0x1
 3708 048a 51       		.byte	0x51
 3709 048b 23       		.byte	0x23
 3710 048c 07       		.uleb128 0x7
 3711 048d 09       		.byte	0x9
 3712 048e F8       		.byte	0xf8
 3713 048f 1A       		.byte	0x1a
 3714 0490 9F       		.byte	0x9f
 3715 0491 00000000 		.4byte	0
 3716 0495 00000000 		.4byte	0
 3717              		.section	.debug_aranges,"",%progbits
 3718 0000 3C000000 		.4byte	0x3c
 3719 0004 0200     		.2byte	0x2
 3720 0006 00000000 		.4byte	.Ldebug_info0
 3721 000a 04       		.byte	0x4
 3722 000b 00       		.byte	0
 3723 000c 0000     		.2byte	0
 3724 000e 0000     		.2byte	0
 3725 0010 00000000 		.4byte	.LFB290
 3726 0014 1C000000 		.4byte	.LFE290-.LFB290
 3727 0018 00000000 		.4byte	.LFB291
 3728 001c 26000000 		.4byte	.LFE291-.LFB291
 3729 0020 00000000 		.4byte	.LFB292
 3730 0024 E0000000 		.4byte	.LFE292-.LFB292
 3731 0028 00000000 		.4byte	.LFB293
 3732 002c 86000000 		.4byte	.LFE293-.LFB293
 3733 0030 00000000 		.4byte	.LFB294
 3734 0034 58000000 		.4byte	.LFE294-.LFB294
 3735 0038 00000000 		.4byte	0
 3736 003c 00000000 		.4byte	0
 3737              		.section	.debug_ranges,"",%progbits
 3738              	.Ldebug_ranges0:
 3739 0000 00000000 		.4byte	.LFB290
 3740 0004 1C000000 		.4byte	.LFE290
 3741 0008 00000000 		.4byte	.LFB291
 3742 000c 26000000 		.4byte	.LFE291
 3743 0010 00000000 		.4byte	.LFB292
 3744 0014 E0000000 		.4byte	.LFE292
 3745 0018 00000000 		.4byte	.LFB293
 3746 001c 86000000 		.4byte	.LFE293
 3747 0020 00000000 		.4byte	.LFB294
 3748 0024 58000000 		.4byte	.LFE294
 3749 0028 00000000 		.4byte	0
 3750 002c 00000000 		.4byte	0
 3751              		.section	.debug_line,"",%progbits
 3752              	.Ldebug_line0:
 3753 0000 68040000 		.section	.debug_str,"MS",%progbits,1
 3753      02006103 
 3753      00000201 
 3753      FB0E0D00 
 3753      01010101 
 3754              	.LASF168:
ARM GAS  /tmp/ccqE7r6W.s 			page 67


 3755 0000 746F7461 		.ascii	"totalp\000"
 3755      6C7000
 3756              	.LASF56:
 3757 0007 72656164 		.ascii	"ready_list_t\000"
 3757      795F6C69 
 3757      73745F74 
 3757      00
 3758              	.LASF4:
 3759 0014 73697A65 		.ascii	"size_t\000"
 3759      5F7400
 3760              	.LASF52:
 3761 001b 6E657874 		.ascii	"next\000"
 3761      00
 3762              	.LASF62:
 3763 0020 64656C74 		.ascii	"delta\000"
 3763      6100
 3764              	.LASF99:
 3765 0026 7264796D 		.ascii	"rdymsg\000"
 3765      736700
 3766              	.LASF20:
 3767 002d 75696E74 		.ascii	"uint64_t\000"
 3767      36345F74 
 3767      00
 3768              	.LASF75:
 3769 0036 6B65726E 		.ascii	"kernel_stats\000"
 3769      656C5F73 
 3769      74617473 
 3769      00
 3770              	.LASF5:
 3771 0043 5F5F7569 		.ascii	"__uint8_t\000"
 3771      6E74385F 
 3771      7400
 3772              	.LASF55:
 3773 004d 70726576 		.ascii	"prev\000"
 3773      00
 3774              	.LASF86:
 3775 0052 706F7274 		.ascii	"port_intctx\000"
 3775      5F696E74 
 3775      63747800 
 3776              	.LASF147:
 3777 005e 70616765 		.ascii	"pages\000"
 3777      7300
 3778              	.LASF67:
 3779 0064 73797374 		.ascii	"system_debug_t\000"
 3779      656D5F64 
 3779      65627567 
 3779      5F7400
 3780              	.LASF169:
 3781 0073 6C617267 		.ascii	"largestp\000"
 3781      65737470 
 3781      00
 3782              	.LASF142:
 3783 007c 70726F76 		.ascii	"provider\000"
 3783      69646572 
 3783      00
 3784              	.LASF161:
 3785 0085 73656D5F 		.ascii	"sem_list\000"
ARM GAS  /tmp/ccqE7r6W.s 			page 68


 3785      6C697374 
 3785      00
 3786              	.LASF90:
 3787 008e 776F7273 		.ascii	"worst\000"
 3787      7400
 3788              	.LASF93:
 3789 0094 74696D65 		.ascii	"time_measurement_t\000"
 3789      5F6D6561 
 3789      73757265 
 3789      6D656E74 
 3789      5F7400
 3790              	.LASF15:
 3791 00a7 6C6F6E67 		.ascii	"long long unsigned int\000"
 3791      206C6F6E 
 3791      6720756E 
 3791      7369676E 
 3791      65642069 
 3792              	.LASF100:
 3793 00be 65786974 		.ascii	"exitcode\000"
 3793      636F6465 
 3793      00
 3794              	.LASF74:
 3795 00c7 6D61696E 		.ascii	"mainthread\000"
 3795      74687265 
 3795      616400
 3796              	.LASF103:
 3797 00d2 73656E74 		.ascii	"sentmsg\000"
 3797      6D736700 
 3798              	.LASF64:
 3799 00da 76697274 		.ascii	"virtual_timers_list_t\000"
 3799      75616C5F 
 3799      74696D65 
 3799      72735F6C 
 3799      6973745F 
 3800              	.LASF79:
 3801 00f0 49544D5F 		.ascii	"ITM_RxBuffer\000"
 3801      52784275 
 3801      66666572 
 3801      00
 3802              	.LASF167:
 3803 00fd 68656170 		.ascii	"heapp\000"
 3803      7000
 3804              	.LASF154:
 3805 0103 64796E5F 		.ascii	"dyn_element_t\000"
 3805      656C656D 
 3805      656E745F 
 3805      7400
 3806              	.LASF151:
 3807 0111 616C6967 		.ascii	"align\000"
 3807      6E00
 3808              	.LASF22:
 3809 0117 72747469 		.ascii	"rttime_t\000"
 3809      6D655F74 
 3809      00
 3810              	.LASF132:
 3811 0120 6D757465 		.ascii	"mutex_t\000"
 3811      785F7400 
ARM GAS  /tmp/ccqE7r6W.s 			page 69


 3812              	.LASF181:
 3813 0128 63684D74 		.ascii	"chMtxUnlock\000"
 3813      78556E6C 
 3813      6F636B00 
 3814              	.LASF3:
 3815 0134 7369676E 		.ascii	"signed char\000"
 3815      65642063 
 3815      68617200 
 3816              	.LASF172:
 3817 0140 6C706167 		.ascii	"lpages\000"
 3817      657300
 3818              	.LASF114:
 3819 0147 73697A65 		.ascii	"size\000"
 3819      00
 3820              	.LASF183:
 3821 014c 474E5520 		.ascii	"GNU C11 6.3.1 20170620 (release) [ARM/embedded-6-br"
 3821      43313120 
 3821      362E332E 
 3821      31203230 
 3821      31373036 
 3822 017f 616E6368 		.ascii	"anch revision 249437] -mcpu=cortex-m4 -mfloat-abi=h"
 3822      20726576 
 3822      6973696F 
 3822      6E203234 
 3822      39343337 
 3823 01b2 61726420 		.ascii	"ard -mfpu=fpv4-sp-d16 -mno-thumb-interwork -mthumb "
 3823      2D6D6670 
 3823      753D6670 
 3823      76342D73 
 3823      702D6431 
 3824 01e5 2D67202D 		.ascii	"-g -Os -fomit-frame-pointer -falign-functions=16 -f"
 3824      4F73202D 
 3824      666F6D69 
 3824      742D6672 
 3824      616D652D 
 3825 0218 66756E63 		.ascii	"function-sections -fdata-sections -fno-common -fsin"
 3825      74696F6E 
 3825      2D736563 
 3825      74696F6E 
 3825      73202D66 
 3826 024b 676C652D 		.ascii	"gle-precision-constant\000"
 3826      70726563 
 3826      6973696F 
 3826      6E2D636F 
 3826      6E737461 
 3827              	.LASF177:
 3828 0262 63684865 		.ascii	"chHeapFree\000"
 3828      61704672 
 3828      656500
 3829              	.LASF73:
 3830 026d 76746C69 		.ascii	"vtlist\000"
 3830      737400
 3831              	.LASF42:
 3832 0274 6D736771 		.ascii	"msgqueue\000"
 3832      75657565 
 3832      00
 3833              	.LASF38:
ARM GAS  /tmp/ccqE7r6W.s 			page 70


 3834 027d 73746174 		.ascii	"state\000"
 3834      6500
 3835              	.LASF11:
 3836 0283 6C6F6E67 		.ascii	"long int\000"
 3836      20696E74 
 3836      00
 3837              	.LASF24:
 3838 028c 74737461 		.ascii	"tstate_t\000"
 3838      74655F74 
 3838      00
 3839              	.LASF63:
 3840 0295 66756E63 		.ascii	"func\000"
 3840      00
 3841              	.LASF47:
 3842 029a 73746174 		.ascii	"stats\000"
 3842      7300
 3843              	.LASF130:
 3844 02a0 63686465 		.ascii	"chdebug_t\000"
 3844      6275675F 
 3844      7400
 3845              	.LASF128:
 3846 02aa 6F66665F 		.ascii	"off_preempt\000"
 3846      70726565 
 3846      6D707400 
 3847              	.LASF144:
 3848 02b6 68656170 		.ascii	"heap_header_t\000"
 3848      5F686561 
 3848      6465725F 
 3848      7400
 3849              	.LASF12:
 3850 02c4 5F5F7569 		.ascii	"__uint32_t\000"
 3850      6E743332 
 3850      5F7400
 3851              	.LASF83:
 3852 02cf 72656761 		.ascii	"regarm_t\000"
 3852      726D5F74 
 3852      00
 3853              	.LASF163:
 3854 02d8 6D62785F 		.ascii	"mbx_list\000"
 3854      6C697374 
 3854      00
 3855              	.LASF68:
 3856 02e1 63685F73 		.ascii	"ch_system_debug\000"
 3856      79737465 
 3856      6D5F6465 
 3856      62756700 
 3857              	.LASF41:
 3858 02f1 77616974 		.ascii	"waiting\000"
 3858      696E6700 
 3859              	.LASF72:
 3860 02f9 726C6973 		.ascii	"rlist\000"
 3860      7400
 3861              	.LASF113:
 3862 02ff 7A65726F 		.ascii	"zero\000"
 3862      00
 3863              	.LASF1:
 3864 0304 6C6F6E67 		.ascii	"long long int\000"
ARM GAS  /tmp/ccqE7r6W.s 			page 71


 3864      206C6F6E 
 3864      6720696E 
 3864      7400
 3865              	.LASF179:
 3866 0312 5F686561 		.ascii	"_heap_init\000"
 3866      705F696E 
 3866      697400
 3867              	.LASF77:
 3868 031d 73797369 		.ascii	"sysinterval_t\000"
 3868      6E746572 
 3868      76616C5F 
 3868      7400
 3869              	.LASF29:
 3870 032b 636E745F 		.ascii	"cnt_t\000"
 3870      7400
 3871              	.LASF0:
 3872 0331 756E7369 		.ascii	"unsigned int\000"
 3872      676E6564 
 3872      20696E74 
 3872      00
 3873              	.LASF17:
 3874 033e 75696E74 		.ascii	"uint16_t\000"
 3874      31365F74 
 3874      00
 3875              	.LASF80:
 3876 0347 53797374 		.ascii	"SystemCoreClock\000"
 3876      656D436F 
 3876      7265436C 
 3876      6F636B00 
 3877              	.LASF104:
 3878 0357 77747365 		.ascii	"wtsemp\000"
 3878      6D7000
 3879              	.LASF102:
 3880 035e 77747472 		.ascii	"wttrp\000"
 3880      7000
 3881              	.LASF131:
 3882 0364 63685F64 		.ascii	"ch_debug\000"
 3882      65627567 
 3882      00
 3883              	.LASF166:
 3884 036d 63685F66 		.ascii	"ch_factory\000"
 3884      6163746F 
 3884      727900
 3885              	.LASF152:
 3886 0378 6D656D6F 		.ascii	"memory_pool_t\000"
 3886      72795F70 
 3886      6F6F6C5F 
 3886      7400
 3887              	.LASF94:
 3888 0386 6E5F6972 		.ascii	"n_irq\000"
 3888      7100
 3889              	.LASF32:
 3890 038c 71756575 		.ascii	"queue\000"
 3890      6500
 3891              	.LASF46:
 3892 0392 6D706F6F 		.ascii	"mpool\000"
 3892      6C00
ARM GAS  /tmp/ccqE7r6W.s 			page 72


 3893              	.LASF127:
 3894 0398 6F66665F 		.ascii	"off_refs\000"
 3894      72656673 
 3894      00
 3895              	.LASF98:
 3896 03a1 6B65726E 		.ascii	"kernel_stats_t\000"
 3896      656C5F73 
 3896      74617473 
 3896      5F7400
 3897              	.LASF36:
 3898 03b0 6E616D65 		.ascii	"name\000"
 3898      00
 3899              	.LASF50:
 3900 03b5 63685F74 		.ascii	"ch_thread\000"
 3900      68726561 
 3900      6400
 3901              	.LASF27:
 3902 03bf 6D73675F 		.ascii	"msg_t\000"
 3902      7400
 3903              	.LASF91:
 3904 03c5 6C617374 		.ascii	"last\000"
 3904      00
 3905              	.LASF30:
 3906 03ca 75636E74 		.ascii	"ucnt_t\000"
 3906      5F7400
 3907              	.LASF43:
 3908 03d1 6570656E 		.ascii	"epending\000"
 3908      64696E67 
 3908      00
 3909              	.LASF156:
 3910 03da 64796E5F 		.ascii	"dyn_list_t\000"
 3910      6C697374 
 3910      5F7400
 3911              	.LASF140:
 3912 03e5 6D656D6F 		.ascii	"memory_heap_t\000"
 3912      72795F68 
 3912      6561705F 
 3912      7400
 3913              	.LASF120:
 3914 03f3 6F66665F 		.ascii	"off_ctx\000"
 3914      63747800 
 3915              	.LASF23:
 3916 03fb 746D6F64 		.ascii	"tmode_t\000"
 3916      655F7400 
 3917              	.LASF97:
 3918 0403 6D5F6372 		.ascii	"m_crit_isr\000"
 3918      69745F69 
 3918      737200
 3919              	.LASF57:
 3920 040e 63685F72 		.ascii	"ch_ready_list\000"
 3920      65616479 
 3920      5F6C6973 
 3920      7400
 3921              	.LASF28:
 3922 041c 6576656E 		.ascii	"eventmask_t\000"
 3922      746D6173 
 3922      6B5F7400 
ARM GAS  /tmp/ccqE7r6W.s 			page 73


 3923              	.LASF81:
 3924 0428 41484250 		.ascii	"AHBPrescTable\000"
 3924      72657363 
 3924      5461626C 
 3924      6500
 3925              	.LASF137:
 3926 0436 656E646D 		.ascii	"endmem\000"
 3926      656D00
 3927              	.LASF10:
 3928 043d 5F5F696E 		.ascii	"__int32_t\000"
 3928      7433325F 
 3928      7400
 3929              	.LASF84:
 3930 0447 73746B61 		.ascii	"stkalign_t\000"
 3930      6C69676E 
 3930      5F7400
 3931              	.LASF178:
 3932 0452 63684865 		.ascii	"chHeapObjectInit\000"
 3932      61704F62 
 3932      6A656374 
 3932      496E6974 
 3932      00
 3933              	.LASF45:
 3934 0463 7265616C 		.ascii	"realprio\000"
 3934      7072696F 
 3934      00
 3935              	.LASF115:
 3936 046c 76657273 		.ascii	"version\000"
 3936      696F6E00 
 3937              	.LASF184:
 3938 0474 2E2E2F2E 		.ascii	"../../modules/ChibiOS/os/oslib/src/chmemheaps.c\000"
 3938      2E2F6D6F 
 3938      64756C65 
 3938      732F4368 
 3938      6962694F 
 3939              	.LASF78:
 3940 04a4 73697A65 		.ascii	"sizetype\000"
 3940      74797065 
 3940      00
 3941              	.LASF48:
 3942 04ad 74687265 		.ascii	"thread_reference_t\000"
 3942      61645F72 
 3942      65666572 
 3942      656E6365 
 3942      5F7400
 3943              	.LASF65:
 3944 04c0 63685F76 		.ascii	"ch_virtual_timers_list\000"
 3944      69727475 
 3944      616C5F74 
 3944      696D6572 
 3944      735F6C69 
 3945              	.LASF2:
 3946 04d7 6C6F6E67 		.ascii	"long double\000"
 3946      20646F75 
 3946      626C6500 
 3947              	.LASF155:
 3948 04e3 63685F64 		.ascii	"ch_dyn_list\000"
ARM GAS  /tmp/ccqE7r6W.s 			page 74


 3948      796E5F6C 
 3948      69737400 
 3949              	.LASF121:
 3950 04ef 6F66665F 		.ascii	"off_newer\000"
 3950      6E657765 
 3950      7200
 3951              	.LASF82:
 3952 04f9 41504250 		.ascii	"APBPrescTable\000"
 3952      72657363 
 3952      5461626C 
 3952      6500
 3953              	.LASF180:
 3954 0507 63684D74 		.ascii	"chMtxLock\000"
 3954      784C6F63 
 3954      6B00
 3955              	.LASF85:
 3956 0511 706F7274 		.ascii	"port_context\000"
 3956      5F636F6E 
 3956      74657874 
 3956      00
 3957              	.LASF88:
 3958 051e 746D5F63 		.ascii	"tm_calibration_t\000"
 3958      616C6962 
 3958      72617469 
 3958      6F6E5F74 
 3958      00
 3959              	.LASF135:
 3960 052f 6D656D67 		.ascii	"memgetfunc2_t\000"
 3960      65746675 
 3960      6E63325F 
 3960      7400
 3961              	.LASF33:
 3962 053d 7072696F 		.ascii	"prio\000"
 3962      00
 3963              	.LASF162:
 3964 0542 73656D5F 		.ascii	"sem_pool\000"
 3964      706F6F6C 
 3964      00
 3965              	.LASF58:
 3966 054b 63757272 		.ascii	"current\000"
 3966      656E7400 
 3967              	.LASF14:
 3968 0553 5F5F7569 		.ascii	"__uint64_t\000"
 3968      6E743634 
 3968      5F7400
 3969              	.LASF138:
 3970 055e 6D656D63 		.ascii	"memcore_t\000"
 3970      6F72655F 
 3970      7400
 3971              	.LASF92:
 3972 0568 63756D75 		.ascii	"cumulative\000"
 3972      6C617469 
 3972      766500
 3973              	.LASF146:
 3974 0573 75736564 		.ascii	"used\000"
 3974      00
 3975              	.LASF25:
ARM GAS  /tmp/ccqE7r6W.s 			page 75


 3976 0578 74726566 		.ascii	"trefs_t\000"
 3976      735F7400 
 3977              	.LASF118:
 3978 0580 74687265 		.ascii	"threadsize\000"
 3978      61647369 
 3978      7A6500
 3979              	.LASF40:
 3980 058b 72656673 		.ascii	"refs\000"
 3980      00
 3981              	.LASF60:
 3982 0590 76697274 		.ascii	"virtual_timer_t\000"
 3982      75616C5F 
 3982      74696D65 
 3982      725F7400 
 3983              	.LASF176:
 3984 05a0 62706167 		.ascii	"bpages\000"
 3984      657300
 3985              	.LASF153:
 3986 05a7 63685F64 		.ascii	"ch_dyn_element\000"
 3986      796E5F65 
 3986      6C656D65 
 3986      6E7400
 3987              	.LASF26:
 3988 05b6 74707269 		.ascii	"tprio_t\000"
 3988      6F5F7400 
 3989              	.LASF160:
 3990 05be 6275665F 		.ascii	"buf_list\000"
 3990      6C697374 
 3990      00
 3991              	.LASF95:
 3992 05c7 6E5F6374 		.ascii	"n_ctxswc\000"
 3992      78737763 
 3992      00
 3993              	.LASF133:
 3994 05d0 5F426F6F 		.ascii	"_Bool\000"
 3994      6C00
 3995              	.LASF18:
 3996 05d6 696E7433 		.ascii	"int32_t\000"
 3996      325F7400 
 3997              	.LASF6:
 3998 05de 756E7369 		.ascii	"unsigned char\000"
 3998      676E6564 
 3998      20636861 
 3998      7200
 3999              	.LASF119:
 4000 05ec 6F66665F 		.ascii	"off_prio\000"
 4000      7072696F 
 4000      00
 4001              	.LASF124:
 4002 05f5 6F66665F 		.ascii	"off_stklimit\000"
 4002      73746B6C 
 4002      696D6974 
 4002      00
 4003              	.LASF7:
 4004 0602 73686F72 		.ascii	"short int\000"
 4004      7420696E 
 4004      7400
ARM GAS  /tmp/ccqE7r6W.s 			page 76


 4005              	.LASF66:
 4006 060c 6C617374 		.ascii	"lasttime\000"
 4006      74696D65 
 4006      00
 4007              	.LASF186:
 4008 0615 68656170 		.ascii	"heap_header\000"
 4008      5F686561 
 4008      64657200 
 4009              	.LASF106:
 4010 0621 65776D61 		.ascii	"ewmask\000"
 4010      736B00
 4011              	.LASF71:
 4012 0628 63685F73 		.ascii	"ch_system\000"
 4012      79737465 
 4012      6D00
 4013              	.LASF175:
 4014 0632 5F5F6675 		.ascii	"__func__\000"
 4014      6E635F5F 
 4014      00
 4015              	.LASF159:
 4016 063b 6F626A5F 		.ascii	"obj_pool\000"
 4016      706F6F6C 
 4016      00
 4017              	.LASF61:
 4018 0644 63685F76 		.ascii	"ch_virtual_timer\000"
 4018      69727475 
 4018      616C5F74 
 4018      696D6572 
 4018      00
 4019              	.LASF107:
 4020 0655 63685F73 		.ascii	"ch_semaphore\000"
 4020      656D6170 
 4020      686F7265 
 4020      00
 4021              	.LASF129:
 4022 0662 6F66665F 		.ascii	"off_time\000"
 4022      74696D65 
 4022      00
 4023              	.LASF111:
 4024 066b 63685F69 		.ascii	"ch_idle_thread_wa\000"
 4024      646C655F 
 4024      74687265 
 4024      61645F77 
 4024      6100
 4025              	.LASF117:
 4026 067d 74696D65 		.ascii	"timesize\000"
 4026      73697A65 
 4026      00
 4027              	.LASF171:
 4028 0686 74706167 		.ascii	"tpages\000"
 4028      657300
 4029              	.LASF19:
 4030 068d 75696E74 		.ascii	"uint32_t\000"
 4030      33325F74 
 4030      00
 4031              	.LASF105:
 4032 0696 77746D74 		.ascii	"wtmtxp\000"
ARM GAS  /tmp/ccqE7r6W.s 			page 77


 4032      787000
 4033              	.LASF51:
 4034 069d 63685F74 		.ascii	"ch_threads_list\000"
 4034      68726561 
 4034      64735F6C 
 4034      69737400 
 4035              	.LASF109:
 4036 06ad 6F776E65 		.ascii	"owner\000"
 4036      7200
 4037              	.LASF148:
 4038 06b3 68656170 		.ascii	"heap\000"
 4038      00
 4039              	.LASF13:
 4040 06b8 6C6F6E67 		.ascii	"long unsigned int\000"
 4040      20756E73 
 4040      69676E65 
 4040      6420696E 
 4040      7400
 4041              	.LASF37:
 4042 06ca 77616261 		.ascii	"wabase\000"
 4042      736500
 4043              	.LASF170:
 4044 06d1 64656661 		.ascii	"default_heap\000"
 4044      756C745F 
 4044      68656170 
 4044      00
 4045              	.LASF110:
 4046 06de 63686172 		.ascii	"char\000"
 4046      00
 4047              	.LASF35:
 4048 06e3 6F6C6465 		.ascii	"older\000"
 4048      7200
 4049              	.LASF158:
 4050 06e9 6F626A5F 		.ascii	"obj_list\000"
 4050      6C697374 
 4050      00
 4051              	.LASF8:
 4052 06f2 5F5F7569 		.ascii	"__uint16_t\000"
 4052      6E743136 
 4052      5F7400
 4053              	.LASF31:
 4054 06fd 74687265 		.ascii	"thread_t\000"
 4054      61645F74 
 4054      00
 4055              	.LASF89:
 4056 0706 62657374 		.ascii	"best\000"
 4056      00
 4057              	.LASF139:
 4058 070b 63685F6D 		.ascii	"ch_memcore\000"
 4058      656D636F 
 4058      726500
 4059              	.LASF76:
 4060 0716 73797374 		.ascii	"systime_t\000"
 4060      696D655F 
 4060      7400
 4061              	.LASF59:
 4062 0720 76746675 		.ascii	"vtfunc_t\000"
ARM GAS  /tmp/ccqE7r6W.s 			page 78


 4062      6E635F74 
 4062      00
 4063              	.LASF182:
 4064 0729 63684D74 		.ascii	"chMtxObjectInit\000"
 4064      784F626A 
 4064      65637449 
 4064      6E697400 
 4065              	.LASF69:
 4066 0739 70616E69 		.ascii	"panic_msg\000"
 4066      635F6D73 
 4066      6700
 4067              	.LASF87:
 4068 0743 6F666673 		.ascii	"offset\000"
 4068      657400
 4069              	.LASF174:
 4070 074a 63684865 		.ascii	"chHeapAllocAligned\000"
 4070      6170416C 
 4070      6C6F6341 
 4070      6C69676E 
 4070      656400
 4071              	.LASF108:
 4072 075d 63685F6D 		.ascii	"ch_mutex\000"
 4072      75746578 
 4072      00
 4073              	.LASF122:
 4074 0766 6F66665F 		.ascii	"off_older\000"
 4074      6F6C6465 
 4074      7200
 4075              	.LASF9:
 4076 0770 73686F72 		.ascii	"short unsigned int\000"
 4076      7420756E 
 4076      7369676E 
 4076      65642069 
 4076      6E7400
 4077              	.LASF145:
 4078 0783 66726565 		.ascii	"free\000"
 4078      00
 4079              	.LASF70:
 4080 0788 63685F73 		.ascii	"ch_system_t\000"
 4080      79737465 
 4080      6D5F7400 
 4081              	.LASF112:
 4082 0794 6964656E 		.ascii	"identifier\000"
 4082      74696669 
 4082      657200
 4083              	.LASF21:
 4084 079f 7274636E 		.ascii	"rtcnt_t\000"
 4084      745F7400 
 4085              	.LASF134:
 4086 07a7 6D656D67 		.ascii	"memgetfunc_t\000"
 4086      65746675 
 4086      6E635F74 
 4086      00
 4087              	.LASF34:
 4088 07b4 6E657765 		.ascii	"newer\000"
 4088      7200
 4089              	.LASF150:
ARM GAS  /tmp/ccqE7r6W.s 			page 79


 4090 07ba 6F626A65 		.ascii	"object_size\000"
 4090      63745F73 
 4090      697A6500 
 4091              	.LASF173:
 4092 07c6 63684865 		.ascii	"chHeapStatus\000"
 4092      61705374 
 4092      61747573 
 4092      00
 4093              	.LASF116:
 4094 07d3 70747273 		.ascii	"ptrsize\000"
 4094      697A6500 
 4095              	.LASF157:
 4096 07db 63685F6F 		.ascii	"ch_objects_factory\000"
 4096      626A6563 
 4096      74735F66 
 4096      6163746F 
 4096      727900
 4097              	.LASF53:
 4098 07ee 74687265 		.ascii	"threads_queue_t\000"
 4098      6164735F 
 4098      71756575 
 4098      655F7400 
 4099              	.LASF149:
 4100 07fe 706F6F6C 		.ascii	"pool_header\000"
 4100      5F686561 
 4100      64657200 
 4101              	.LASF123:
 4102 080a 6F66665F 		.ascii	"off_name\000"
 4102      6E616D65 
 4102      00
 4103              	.LASF16:
 4104 0813 75696E74 		.ascii	"uint8_t\000"
 4104      385F7400 
 4105              	.LASF39:
 4106 081b 666C6167 		.ascii	"flags\000"
 4106      7300
 4107              	.LASF164:
 4108 0821 6669666F 		.ascii	"fifo_list\000"
 4108      5F6C6973 
 4108      7400
 4109              	.LASF101:
 4110 082b 77746F62 		.ascii	"wtobjp\000"
 4110      6A7000
 4111              	.LASF49:
 4112 0832 74687265 		.ascii	"threads_list_t\000"
 4112      6164735F 
 4112      6C697374 
 4112      5F7400
 4113              	.LASF125:
 4114 0841 6F66665F 		.ascii	"off_state\000"
 4114      73746174 
 4114      6500
 4115              	.LASF165:
 4116 084b 6F626A65 		.ascii	"objects_factory_t\000"
 4116      6374735F 
 4116      66616374 
 4116      6F72795F 
ARM GAS  /tmp/ccqE7r6W.s 			page 80


 4116      7400
 4117              	.LASF126:
 4118 085d 6F66665F 		.ascii	"off_flags\000"
 4118      666C6167 
 4118      7300
 4119              	.LASF44:
 4120 0867 6D74786C 		.ascii	"mtxlist\000"
 4120      69737400 
 4121              	.LASF96:
 4122 086f 6D5F6372 		.ascii	"m_crit_thd\000"
 4122      69745F74 
 4122      686400
 4123              	.LASF143:
 4124 087a 68656164 		.ascii	"header\000"
 4124      657200
 4125              	.LASF185:
 4126 0881 2F686F6D 		.ascii	"/home/haggisaerospace/ardupilot/ardupilot/build/Cub"
 4126      652F6861 
 4126      67676973 
 4126      6165726F 
 4126      73706163 
 4127 08b4 65426C61 		.ascii	"eBlack\000"
 4127      636B00
 4128              	.LASF136:
 4129 08bb 6E657874 		.ascii	"nextmem\000"
 4129      6D656D00 
 4130              	.LASF54:
 4131 08c3 63685F74 		.ascii	"ch_threads_queue\000"
 4131      68726561 
 4131      64735F71 
 4131      75657565 
 4131      00
 4132              	.LASF141:
 4133 08d4 6D656D6F 		.ascii	"memory_heap\000"
 4133      72795F68 
 4133      65617000 
 4134              		.ident	"GCC: (GNU Tools for ARM Embedded Processors 6-2017-q2-update) 6.3.1 20170620 (release) [AR
ARM GAS  /tmp/ccqE7r6W.s 			page 81


DEFINED SYMBOLS
                            *ABS*:0000000000000000 chmemheaps.c
     /tmp/ccqE7r6W.s:18     .text._heap_init:0000000000000000 $t
     /tmp/ccqE7r6W.s:25     .text._heap_init:0000000000000000 _heap_init
     /tmp/ccqE7r6W.s:49     .text._heap_init:0000000000000014 $d
     /tmp/ccqE7r6W.s:55     .text.chHeapObjectInit:0000000000000000 $t
     /tmp/ccqE7r6W.s:62     .text.chHeapObjectInit:0000000000000000 chHeapObjectInit
     /tmp/ccqE7r6W.s:114    .text.chHeapAllocAligned:0000000000000000 $t
     /tmp/ccqE7r6W.s:121    .text.chHeapAllocAligned:0000000000000000 chHeapAllocAligned
     /tmp/ccqE7r6W.s:313    .text.chHeapAllocAligned:00000000000000dc $d
     /tmp/ccqE7r6W.s:319    .text.chHeapFree:0000000000000000 $t
     /tmp/ccqE7r6W.s:326    .text.chHeapFree:0000000000000000 chHeapFree
     /tmp/ccqE7r6W.s:444    .text.chHeapStatus:0000000000000000 $t
     /tmp/ccqE7r6W.s:451    .text.chHeapStatus:0000000000000000 chHeapStatus
     /tmp/ccqE7r6W.s:538    .text.chHeapStatus:0000000000000054 $d
     /tmp/ccqE7r6W.s:544    .bss.default_heap:0000000000000000 $d
     /tmp/ccqE7r6W.s:548    .bss.default_heap:0000000000000000 default_heap
                     .debug_frame:0000000000000010 $d

UNDEFINED SYMBOLS
chMtxObjectInit
chCoreAllocAlignedWithOffset
chMtxLock
chMtxUnlock
