ARM GAS  /tmp/ccqE7r6W.s 			page 1


   1              		.cpu cortex-m4
   2              		.eabi_attribute 27, 1
   3              		.eabi_attribute 28, 1
   4              		.eabi_attribute 20, 1
   5              		.eabi_attribute 21, 1
   6              		.eabi_attribute 23, 3
   7              		.eabi_attribute 24, 1
   8              		.eabi_attribute 25, 1
   9              		.eabi_attribute 26, 1
  10              		.eabi_attribute 30, 4
  11              		.eabi_attribute 34, 1
  12              		.eabi_attribute 18, 4
  13              		.file	"chmemheaps.c"
  14              		.text
  15              	.Ltext0:
  16              		.cfi_sections	.debug_frame
  17              		.section	.text._heap_init,"ax",%progbits
  18              		.align	1
  19              		.global	_heap_init
  20              		.syntax unified
  21              		.thumb
  22              		.thumb_func
  23              		.fpu fpv4-sp-d16
  24              		.type	_heap_init, %function
  25              	_heap_init:
  26              	.LFB290:
  27              		.file 1 "../../modules/ChibiOS/os/oslib/src/chmemheaps.c"
  28              		.loc 1 107 0
  29              		.cfi_startproc
  30              		@ args = 0, pretend = 0, frame = 0
  31              		@ frame_needed = 0, uses_anonymous_args = 0
  32              		@ link register save eliminated.
  33              		.loc 1 109 0
  34 0000 0448     		ldr	r0, .L2
  35 0002 054B     		ldr	r3, .L2+4
  36 0004 0360     		str	r3, [r0]
  37              		.loc 1 110 0
  38 0006 0023     		movs	r3, #0
  39 0008 4360     		str	r3, [r0, #4]
  40              		.loc 1 111 0
  41 000a 8360     		str	r3, [r0, #8]
  42              		.loc 1 113 0
  43 000c 0C30     		adds	r0, r0, #12
  44 000e FFF7FEBF 		b	chMtxObjectInit
  45              	.LVL0:
  46              	.L3:
  47 0012 00BF     		.align	2
  48              	.L2:
  49 0014 00000000 		.word	.LANCHOR0
  50 0018 00000000 		.word	chCoreAllocAlignedWithOffset
  51              		.cfi_endproc
  52              	.LFE290:
  53              		.size	_heap_init, .-_heap_init
  54              		.section	.text.chHeapObjectInit,"ax",%progbits
  55              		.align	1
  56              		.global	chHeapObjectInit
  57              		.syntax unified
ARM GAS  /tmp/ccqE7r6W.s 			page 2


  58              		.thumb
  59              		.thumb_func
  60              		.fpu fpv4-sp-d16
  61              		.type	chHeapObjectInit, %function
  62              	chHeapObjectInit:
  63              	.LFB291:
  64              		.loc 1 131 0
  65              		.cfi_startproc
  66              		@ args = 0, pretend = 0, frame = 0
  67              		@ frame_needed = 0, uses_anonymous_args = 0
  68              		@ link register save eliminated.
  69              	.LVL1:
  70              		.loc 1 132 0
  71 0000 CB1D     		adds	r3, r1, #7
  72 0002 23F00703 		bic	r3, r3, #7
  73              	.LVL2:
  74              		.loc 1 147 0
  75 0006 083A     		subs	r2, r2, #8
  76              	.LVL3:
  77              		.loc 1 139 0
  78 0008 591A     		subs	r1, r3, r1
  79              	.LVL4:
  80              		.loc 1 147 0
  81 000a 521A     		subs	r2, r2, r1
  82              	.LVL5:
  83              		.loc 1 131 0
  84 000c 10B4     		push	{r4}
  85              		.cfi_def_cfa_offset 4
  86              		.cfi_offset 4, -4
  87              		.loc 1 147 0
  88 000e D208     		lsrs	r2, r2, #3
  89              		.loc 1 143 0
  90 0010 0024     		movs	r4, #0
  91 0012 0460     		str	r4, [r0]
  92              		.loc 1 144 0
  93 0014 4360     		str	r3, [r0, #4]
  94              		.loc 1 145 0
  95 0016 8460     		str	r4, [r0, #8]
  96              		.loc 1 146 0
  97 0018 1C60     		str	r4, [r3]
  98              		.loc 1 147 0
  99 001a 5A60     		str	r2, [r3, #4]
 100              		.loc 1 149 0
 101 001c 0C30     		adds	r0, r0, #12
 102              	.LVL6:
 103              		.loc 1 153 0
 104 001e 5DF8044B 		ldr	r4, [sp], #4
 105              		.cfi_restore 4
 106              		.cfi_def_cfa_offset 0
 107              		.loc 1 149 0
 108 0022 FFF7FEBF 		b	chMtxObjectInit
 109              	.LVL7:
 110              		.cfi_endproc
 111              	.LFE291:
 112              		.size	chHeapObjectInit, .-chHeapObjectInit
 113              		.section	.text.chHeapAllocAligned,"ax",%progbits
 114              		.align	1
ARM GAS  /tmp/ccqE7r6W.s 			page 3


 115              		.global	chHeapAllocAligned
 116              		.syntax unified
 117              		.thumb
 118              		.thumb_func
 119              		.fpu fpv4-sp-d16
 120              		.type	chHeapAllocAligned, %function
 121              	chHeapAllocAligned:
 122              	.LFB292:
 123              		.loc 1 172 0
 124              		.cfi_startproc
 125              		@ args = 0, pretend = 0, frame = 0
 126              		@ frame_needed = 0, uses_anonymous_args = 0
 127              	.LVL8:
 128 0000 2DE9F84F 		push	{r3, r4, r5, r6, r7, r8, r9, r10, fp, lr}
 129              		.cfi_def_cfa_offset 40
 130              		.cfi_offset 3, -40
 131              		.cfi_offset 4, -36
 132              		.cfi_offset 5, -32
 133              		.cfi_offset 6, -28
 134              		.cfi_offset 7, -24
 135              		.cfi_offset 8, -20
 136              		.cfi_offset 9, -16
 137              		.cfi_offset 10, -12
 138              		.cfi_offset 11, -8
 139              		.cfi_offset 14, -4
 140              		.loc 1 180 0
 141 0004 354E     		ldr	r6, .L18
 142 0006 0028     		cmp	r0, #0
 143 0008 18BF     		it	ne
 144 000a 0646     		movne	r6, r0
 145              	.LVL9:
 146 000c 082A     		cmp	r2, #8
 147 000e 38BF     		it	cc
 148 0010 0822     		movcc	r2, #8
 149              	.LVL10:
 150              		.loc 1 192 0
 151 0012 06F10C08 		add	r8, r6, #12
 152 0016 9146     		mov	r9, r2
 153              	.LVL11:
 154              		.loc 1 189 0
 155 0018 CD1D     		adds	r5, r1, #7
 156              		.loc 1 192 0
 157 001a 4046     		mov	r0, r8
 158              		.loc 1 172 0
 159 001c 0F46     		mov	r7, r1
 160              		.loc 1 189 0
 161 001e ED08     		lsrs	r5, r5, #3
 162              	.LVL12:
 163              		.loc 1 192 0
 164 0020 FFF7FEFF 		bl	chMtxLock
 165              	.LVL13:
 166              		.loc 1 202 0
 167 0024 09F1FF3A 		add	r10, r9, #-1
 168              		.loc 1 195 0
 169 0028 06F1040E 		add	lr, r6, #4
 170              	.LVL14:
 171              		.loc 1 202 0
ARM GAS  /tmp/ccqE7r6W.s 			page 4


 172 002c C9F1000B 		rsb	fp, r9, #0
 173              	.LVL15:
 174              	.L7:
 175              		.loc 1 196 0
 176 0030 DEF80030 		ldr	r3, [lr]
 177 0034 6BB9     		cbnz	r3, .L13
 178              		.loc 1 264 0
 179 0036 4046     		mov	r0, r8
 180 0038 FFF7FEFF 		bl	chMtxUnlock
 181              	.LVL16:
 182              		.loc 1 268 0
 183 003c 3468     		ldr	r4, [r6]
 184 003e A4B3     		cbz	r4, .L5
 185              		.loc 1 269 0
 186 0040 0822     		movs	r2, #8
 187 0042 4946     		mov	r1, r9
 188 0044 E800     		lsls	r0, r5, #3
 189 0046 A047     		blx	r4
 190              	.LVL17:
 191              		.loc 1 272 0
 192 0048 08B1     		cbz	r0, .L16
 193              	.LVL18:
 194              		.loc 1 275 0
 195 004a 00E9C000 		stmdb	r0, {r6, r7}
 196              	.LVL19:
 197              	.L16:
 198              		.loc 1 283 0
 199 004e 0446     		mov	r4, r0
 200 0050 2BE0     		b	.L5
 201              	.LVL20:
 202              	.L13:
 203              		.loc 1 202 0
 204 0052 03F10801 		add	r1, r3, #8
 205              		.loc 1 204 0
 206 0056 D3F804C0 		ldr	ip, [r3, #4]
 207              		.loc 1 202 0
 208 005a 01EB0A02 		add	r2, r1, r10
 209 005e 02EA0B02 		and	r2, r2, fp
 210              		.loc 1 204 0
 211 0062 0CF10104 		add	r4, ip, #1
 212              		.loc 1 202 0
 213 0066 A2F10800 		sub	r0, r2, #8
 214              	.LVL21:
 215              		.loc 1 204 0
 216 006a 03EBC404 		add	r4, r3, r4, lsl #3
 217 006e A042     		cmp	r0, r4
 218 0070 32D2     		bcs	.L8
 219              		.loc 1 204 0 is_stmt 0 discriminator 1
 220 0072 A21A     		subs	r2, r4, r2
 221 0074 D210     		asrs	r2, r2, #3
 222 0076 9542     		cmp	r5, r2
 223 0078 2ED8     		bhi	.L8
 224              		.loc 1 208 0 is_stmt 1
 225 007a 8342     		cmp	r3, r0
 226 007c 18D2     		bcs	.L9
 227              	.LVL22:
 228              	.LBB2:
ARM GAS  /tmp/ccqE7r6W.s 			page 5


 229              		.loc 1 213 0
 230 007e 411A     		subs	r1, r0, r1
 231 0080 C910     		asrs	r1, r1, #3
 232              		.loc 1 214 0
 233 0082 9542     		cmp	r5, r2
 234              		.loc 1 213 0
 235 0084 5960     		str	r1, [r3, #4]
 236              		.loc 1 214 0
 237 0086 09D2     		bcs	.L10
 238              	.LBB3:
 239              		.loc 1 219 0
 240 0088 6C1C     		adds	r4, r5, #1
 241 008a 00EBC401 		add	r1, r0, r4, lsl #3
 242              	.LVL23:
 243              		.loc 1 220 0
 244 008e ED43     		mvns	r5, r5
 245              	.LVL24:
 246 0090 2A44     		add	r2, r2, r5
 247              	.LVL25:
 248 0092 4A60     		str	r2, [r1, #4]
 249              		.loc 1 223 0
 250 0094 1A68     		ldr	r2, [r3]
 251 0096 40F83420 		str	r2, [r0, r4, lsl #3]
 252              		.loc 1 224 0
 253 009a 1960     		str	r1, [r3]
 254              	.LVL26:
 255              	.L10:
 256              	.LBE3:
 257              	.LBE2:
 258              		.loc 1 249 0
 259 009c 0446     		mov	r4, r0
 260              		.loc 1 248 0
 261 009e 4760     		str	r7, [r0, #4]
 262              		.loc 1 249 0
 263 00a0 44F8086B 		str	r6, [r4], #8
 264              		.loc 1 252 0
 265 00a4 4046     		mov	r0, r8
 266              	.LVL27:
 267 00a6 FFF7FEFF 		bl	chMtxUnlock
 268              	.LVL28:
 269              	.L5:
 270              		.loc 1 284 0
 271 00aa 2046     		mov	r0, r4
 272 00ac BDE8F88F 		pop	{r3, r4, r5, r6, r7, r8, r9, r10, fp, pc}
 273              	.LVL29:
 274              	.L9:
 275              		.loc 1 232 0
 276 00b0 6545     		cmp	r5, ip
 277 00b2 1968     		ldr	r1, [r3]
 278 00b4 03D1     		bne	.L11
 279              		.loc 1 234 0
 280 00b6 CEF80010 		str	r1, [lr]
 281              	.LVL30:
 282              	.L17:
 283              	.LBB4:
 284              		.loc 1 243 0
 285 00ba 1846     		mov	r0, r3
ARM GAS  /tmp/ccqE7r6W.s 			page 6


 286              	.LVL31:
 287 00bc EEE7     		b	.L10
 288              	.LVL32:
 289              	.L11:
 290              		.loc 1 240 0
 291 00be 0135     		adds	r5, r5, #1
 292              	.LVL33:
 293 00c0 03EBC502 		add	r2, r3, r5, lsl #3
 294              	.LVL34:
 295              		.loc 1 241 0
 296 00c4 43F83510 		str	r1, [r3, r5, lsl #3]
 297              		.loc 1 242 0
 298 00c8 02F10801 		add	r1, r2, #8
 299 00cc 641A     		subs	r4, r4, r1
 300 00ce E410     		asrs	r4, r4, #3
 301 00d0 5460     		str	r4, [r2, #4]
 302              		.loc 1 243 0
 303 00d2 CEF80020 		str	r2, [lr]
 304 00d6 F0E7     		b	.L17
 305              	.LVL35:
 306              	.L8:
 307 00d8 9E46     		mov	lr, r3
 308              	.LVL36:
 309 00da A9E7     		b	.L7
 310              	.L19:
 311              		.align	2
 312              	.L18:
 313 00dc 00000000 		.word	.LANCHOR0
 314              	.LBE4:
 315              		.cfi_endproc
 316              	.LFE292:
 317              		.size	chHeapAllocAligned, .-chHeapAllocAligned
 318              		.section	.text.chHeapFree,"ax",%progbits
 319              		.align	1
 320              		.global	chHeapFree
 321              		.syntax unified
 322              		.thumb
 323              		.thumb_func
 324              		.fpu fpv4-sp-d16
 325              		.type	chHeapFree, %function
 326              	chHeapFree:
 327              	.LFB293:
 328              		.loc 1 293 0
 329              		.cfi_startproc
 330              		@ args = 0, pretend = 0, frame = 0
 331              		@ frame_needed = 0, uses_anonymous_args = 0
 332              	.LVL37:
 333 0000 F8B5     		push	{r3, r4, r5, r6, r7, lr}
 334              		.cfi_def_cfa_offset 24
 335              		.cfi_offset 3, -24
 336              		.cfi_offset 4, -20
 337              		.cfi_offset 5, -16
 338              		.cfi_offset 6, -12
 339              		.cfi_offset 7, -8
 340              		.cfi_offset 14, -4
 341              		.loc 1 306 0
 342 0002 50F8043C 		ldr	r3, [r0, #-4]
ARM GAS  /tmp/ccqE7r6W.s 			page 7


 343              		.loc 1 302 0
 344 0006 50F8086C 		ldr	r6, [r0, #-8]
 345              		.loc 1 306 0
 346 000a 0733     		adds	r3, r3, #7
 347              		.loc 1 307 0
 348 000c DB08     		lsrs	r3, r3, #3
 349              		.loc 1 303 0
 350 000e 371D     		adds	r7, r6, #4
 351              		.loc 1 310 0
 352 0010 0C36     		adds	r6, r6, #12
 353              		.loc 1 306 0
 354 0012 40F8043C 		str	r3, [r0, #-4]
 355              		.loc 1 293 0
 356 0016 0446     		mov	r4, r0
 357              		.loc 1 300 0
 358 0018 A0F10805 		sub	r5, r0, #8
 359              	.LVL38:
 360              		.loc 1 310 0
 361 001c 3046     		mov	r0, r6
 362              	.LVL39:
 363 001e FFF7FEFF 		bl	chMtxLock
 364              	.LVL40:
 365              		.loc 1 303 0
 366 0022 3B46     		mov	r3, r7
 367              	.LVL41:
 368              	.L26:
 369              		.loc 1 315 0
 370 0024 BB42     		cmp	r3, r7
 371 0026 1A68     		ldr	r2, [r3]
 372 0028 01D0     		beq	.L21
 373              		.loc 1 315 0 is_stmt 0 discriminator 2
 374 002a AB42     		cmp	r3, r5
 375 002c 29D2     		bcs	.L22
 376              	.L21:
 377              		.loc 1 315 0 discriminator 3
 378 002e 0AB1     		cbz	r2, .L23
 379              		.loc 1 316 0 is_stmt 1
 380 0030 9542     		cmp	r5, r2
 381 0032 26D2     		bcs	.L22
 382              	.L23:
 383              		.loc 1 318 0
 384 0034 44F8082C 		str	r2, [r4, #-8]
 385              		.loc 1 319 0
 386 0038 1D60     		str	r5, [r3]
 387              		.loc 1 321 0
 388 003a 54F8042C 		ldr	r2, [r4, #-4]
 389 003e 54F8080C 		ldr	r0, [r4, #-8]
 390 0042 0132     		adds	r2, r2, #1
 391 0044 05EBC201 		add	r1, r5, r2, lsl #3
 392 0048 8142     		cmp	r1, r0
 393 004a 07D1     		bne	.L24
 394              		.loc 1 323 0
 395 004c 4968     		ldr	r1, [r1, #4]
 396 004e 1144     		add	r1, r1, r2
 397 0050 44F8041C 		str	r1, [r4, #-4]
 398              		.loc 1 324 0
 399 0054 55F83220 		ldr	r2, [r5, r2, lsl #3]
ARM GAS  /tmp/ccqE7r6W.s 			page 8


 400 0058 44F8082C 		str	r2, [r4, #-8]
 401              	.L24:
 402              		.loc 1 326 0
 403 005c 5868     		ldr	r0, [r3, #4]
 404 005e 411C     		adds	r1, r0, #1
 405 0060 03EBC101 		add	r1, r3, r1, lsl #3
 406 0064 8D42     		cmp	r5, r1
 407 0066 07D1     		bne	.L25
 408              		.loc 1 328 0
 409 0068 54F8042C 		ldr	r2, [r4, #-4]
 410 006c 0132     		adds	r2, r2, #1
 411 006e 0244     		add	r2, r2, r0
 412 0070 5A60     		str	r2, [r3, #4]
 413              		.loc 1 329 0
 414 0072 54F8082C 		ldr	r2, [r4, #-8]
 415 0076 1A60     		str	r2, [r3]
 416              	.L25:
 417              		.loc 1 337 0
 418 0078 3046     		mov	r0, r6
 419              		.loc 1 340 0
 420 007a BDE8F840 		pop	{r3, r4, r5, r6, r7, lr}
 421              		.cfi_remember_state
 422              		.cfi_restore 14
 423              		.cfi_restore 7
 424              		.cfi_restore 6
 425              		.cfi_restore 5
 426              		.cfi_restore 4
 427              		.cfi_restore 3
 428              		.cfi_def_cfa_offset 0
 429              	.LVL42:
 430              		.loc 1 337 0
 431 007e FFF7FEBF 		b	chMtxUnlock
 432              	.LVL43:
 433              	.L22:
 434              		.cfi_restore_state
 435              		.loc 1 333 0
 436 0082 1346     		mov	r3, r2
 437              	.LVL44:
 438              		.loc 1 313 0
 439 0084 CEE7     		b	.L26
 440              		.cfi_endproc
 441              	.LFE293:
 442              		.size	chHeapFree, .-chHeapFree
 443              		.section	.text.chHeapStatus,"ax",%progbits
 444              		.align	1
 445              		.global	chHeapStatus
 446              		.syntax unified
 447              		.thumb
 448              		.thumb_func
 449              		.fpu fpv4-sp-d16
 450              		.type	chHeapStatus, %function
 451              	chHeapStatus:
 452              	.LFB294:
 453              		.loc 1 357 0
 454              		.cfi_startproc
 455              		@ args = 0, pretend = 0, frame = 0
 456              		@ frame_needed = 0, uses_anonymous_args = 0
ARM GAS  /tmp/ccqE7r6W.s 			page 9


 457              	.LVL45:
 458 0000 2DE9F041 		push	{r4, r5, r6, r7, r8, lr}
 459              		.cfi_def_cfa_offset 24
 460              		.cfi_offset 4, -24
 461              		.cfi_offset 5, -20
 462              		.cfi_offset 6, -16
 463              		.cfi_offset 7, -12
 464              		.cfi_offset 8, -8
 465              		.cfi_offset 14, -4
 466              		.loc 1 362 0
 467 0004 134C     		ldr	r4, .L42
 468 0006 0028     		cmp	r0, #0
 469 0008 18BF     		it	ne
 470 000a 0446     		movne	r4, r0
 471              	.LVL46:
 472              		.loc 1 365 0
 473 000c 04F10C06 		add	r6, r4, #12
 474 0010 3046     		mov	r0, r6
 475              		.loc 1 357 0
 476 0012 8846     		mov	r8, r1
 477 0014 1746     		mov	r7, r2
 478              		.loc 1 365 0
 479 0016 FFF7FEFF 		bl	chMtxLock
 480              	.LVL47:
 481              		.loc 1 367 0
 482 001a 0023     		movs	r3, #0
 483              		.loc 1 369 0
 484 001c 201D     		adds	r0, r4, #4
 485              	.LVL48:
 486              		.loc 1 368 0
 487 001e 1D46     		mov	r5, r3
 488              		.loc 1 366 0
 489 0020 1C46     		mov	r4, r3
 490              	.LVL49:
 491              	.L32:
 492              		.loc 1 370 0
 493 0022 0068     		ldr	r0, [r0]
 494              	.LVL50:
 495 0024 70B9     		cbnz	r0, .L33
 496              		.loc 1 384 0
 497 0026 B8F1000F 		cmp	r8, #0
 498 002a 02D0     		beq	.L34
 499              		.loc 1 385 0
 500 002c E400     		lsls	r4, r4, #3
 501              	.LVL51:
 502 002e C8F80040 		str	r4, [r8]
 503              	.L34:
 504              		.loc 1 389 0
 505 0032 0FB1     		cbz	r7, .L35
 506              		.loc 1 390 0
 507 0034 DB00     		lsls	r3, r3, #3
 508              	.LVL52:
 509 0036 3B60     		str	r3, [r7]
 510              	.L35:
 511              		.loc 1 392 0
 512 0038 3046     		mov	r0, r6
 513 003a FFF7FEFF 		bl	chMtxUnlock
ARM GAS  /tmp/ccqE7r6W.s 			page 10


 514              	.LVL53:
 515              		.loc 1 395 0
 516 003e 2846     		mov	r0, r5
 517 0040 BDE8F081 		pop	{r4, r5, r6, r7, r8, pc}
 518              	.LVL54:
 519              	.L33:
 520              	.LBB5:
 521              		.loc 1 371 0
 522 0044 4268     		ldr	r2, [r0, #4]
 523              	.LVL55:
 524 0046 9342     		cmp	r3, r2
 525              		.loc 1 374 0
 526 0048 05F10105 		add	r5, r5, #1
 527              	.LVL56:
 528              		.loc 1 375 0
 529 004c 1444     		add	r4, r4, r2
 530              	.LVL57:
 531 004e 38BF     		it	cc
 532 0050 1346     		movcc	r3, r2
 533              	.LVL58:
 534 0052 E6E7     		b	.L32
 535              	.L43:
 536              		.align	2
 537              	.L42:
 538 0054 00000000 		.word	.LANCHOR0
 539              	.LBE5:
 540              		.cfi_endproc
 541              	.LFE294:
 542              		.size	chHeapStatus, .-chHeapStatus
 543              		.section	.bss.default_heap,"aw",%nobits
 544              		.align	2
 545              		.set	.LANCHOR0,. + 0
 546              		.type	default_heap, %object
 547              		.size	default_heap, 28
 548              	default_heap:
 549 0000 00000000 		.space	28
 549      00000000 
 549      00000000 
 549      00000000 
 549      00000000 
 550              		.text
 551              	.Letext0:
 552              		.file 2 "/opt/gcc-arm-none-eabi-6-2017-q2-update/lib/gcc/arm-none-eabi/6.3.1/include/stddef.h"
 553              		.file 3 "/opt/gcc-arm-none-eabi-6-2017-q2-update/arm-none-eabi/include/machine/_default_types.h"
 554              		.file 4 "/opt/gcc-arm-none-eabi-6-2017-q2-update/arm-none-eabi/include/sys/_stdint.h"
 555              		.file 5 "../../modules/ChibiOS/os/common/ports/ARMCMx/compilers/GCC/chtypes.h"
 556              		.file 6 "../../modules/ChibiOS/os/rt/include/chsystypes.h"
 557              		.file 7 "../../modules/ChibiOS/os/rt/include/chschd.h"
 558              		.file 8 "../../modules/ChibiOS/os/rt/include/chtime.h"
 559              		.file 9 "../../modules/ChibiOS/os/common/ext/ARM/CMSIS/Core/Include/core_cm4.h"
 560              		.file 10 "../../modules/ChibiOS/os/common/ext/ST/STM32F4xx/system_stm32f4xx.h"
 561              		.file 11 "../../modules/ChibiOS/os/common/ports/ARMCMx/chcore.h"
 562              		.file 12 "../../modules/ChibiOS/os/common/ports/ARMCMx/chcore_v7m.h"
 563              		.file 13 "../../modules/ChibiOS/os/rt/include/chtm.h"
 564              		.file 14 "../../modules/ChibiOS/os/rt/include/chstats.h"
 565              		.file 15 "../../modules/ChibiOS/os/rt/include/chsem.h"
 566              		.file 16 "../../modules/ChibiOS/os/rt/include/chmtx.h"
ARM GAS  /tmp/ccqE7r6W.s 			page 11


 567              		.file 17 "../../modules/ChibiOS/os/rt/include/chsys.h"
 568              		.file 18 "../../modules/ChibiOS/os/rt/include/chregistry.h"
 569              		.file 19 "../../modules/ChibiOS/os/oslib/include/chmemcore.h"
 570              		.file 20 "../../modules/ChibiOS/os/oslib/include/chmemheaps.h"
 571              		.file 21 "../../modules/ChibiOS/os/oslib/include/chmempools.h"
 572              		.file 22 "../../modules/ChibiOS/os/oslib/include/chfactory.h"