ARM GAS  /tmp/ccrJKiGC.s 			page 1


   1              		.cpu cortex-m4
   2              		.eabi_attribute 27, 1
   3              		.eabi_attribute 28, 1
   4              		.eabi_attribute 20, 1
   5              		.eabi_attribute 21, 1
   6              		.eabi_attribute 23, 3
   7              		.eabi_attribute 24, 1
   8              		.eabi_attribute 25, 1
   9              		.eabi_attribute 26, 1
  10              		.eabi_attribute 30, 4
  11              		.eabi_attribute 34, 1
  12              		.eabi_attribute 18, 4
  13              		.file	"chregistry.c"
  14              		.text
  15              	.Ltext0:
  16              		.cfi_sections	.debug_frame
  17              		.section	.text.chRegFirstThread,"ax",%progbits
  18              		.align	1
  19              		.global	chRegFirstThread
  20              		.syntax unified
  21              		.thumb
  22              		.thumb_func
  23              		.fpu fpv4-sp-d16
  24              		.type	chRegFirstThread, %function
  25              	chRegFirstThread:
  26              	.LFB290:
  27              		.file 1 "../../modules/ChibiOS/os/rt/src/chregistry.c"
  28              		.loc 1 134 0
  29              		.cfi_startproc
  30              		@ args = 0, pretend = 0, frame = 0
  31              		@ frame_needed = 0, uses_anonymous_args = 0
  32              	.LVL0:
  33 0000 10B5     		push	{r4, lr}
  34              		.cfi_def_cfa_offset 8
  35              		.cfi_offset 4, -8
  36              		.cfi_offset 14, -4
  37              	.LBB28:
  38              	.LBB29:
  39              	.LBB30:
  40              	.LBB31:
  41              	.LBB32:
  42              		.file 2 "../../modules/ChibiOS/os/common/ext/ARM/CMSIS/Core/Include/cmsis_gcc.h"
  43              		.loc 2 493 0
  44 0002 2023     		movs	r3, #32
  45              		.syntax unified
  46              	@ 493 "../../modules/ChibiOS/os/common/ext/ARM/CMSIS/Core/Include/cmsis_gcc.h" 1
  47 0004 83F31188 		MSR basepri, r3
  48              	@ 0 "" 2
  49              	.LVL1:
  50              		.thumb
  51              		.syntax unified
  52              	.LBE32:
  53              	.LBE31:
  54              	.LBE30:
  55              		.file 3 "../../modules/ChibiOS/os/rt/include/chsys.h"
  56              		.loc 3 356 0
  57 0008 FFF7FEFF 		bl	_stats_start_measure_crit_thd
ARM GAS  /tmp/ccrJKiGC.s 			page 2


  58              	.LVL2:
  59              	.LBE29:
  60              	.LBE28:
  61              		.loc 1 138 0
  62 000c 064B     		ldr	r3, .L2
  63 000e 1C69     		ldr	r4, [r3, #16]
  64              	.LVL3:
  65              		.loc 1 140 0
  66 0010 94F82230 		ldrb	r3, [r4, #34]	@ zero_extendqisi2
  67 0014 0133     		adds	r3, r3, #1
  68 0016 84F82230 		strb	r3, [r4, #34]
  69              	.LBB33:
  70              	.LBB34:
  71              		.loc 3 368 0
  72 001a FFF7FEFF 		bl	_stats_stop_measure_crit_thd
  73              	.LVL4:
  74              	.LBB35:
  75              	.LBB36:
  76              	.LBB37:
  77              		.loc 2 493 0
  78 001e 0023     		movs	r3, #0
  79              		.syntax unified
  80              	@ 493 "../../modules/ChibiOS/os/common/ext/ARM/CMSIS/Core/Include/cmsis_gcc.h" 1
  81 0020 83F31188 		MSR basepri, r3
  82              	@ 0 "" 2
  83              	.LVL5:
  84              		.thumb
  85              		.syntax unified
  86              	.LBE37:
  87              	.LBE36:
  88              	.LBE35:
  89              	.LBE34:
  90              	.LBE33:
  91              		.loc 1 145 0
  92 0024 2046     		mov	r0, r4
  93 0026 10BD     		pop	{r4, pc}
  94              	.LVL6:
  95              	.L3:
  96              		.align	2
  97              	.L2:
  98 0028 00000000 		.word	ch
  99              		.cfi_endproc
 100              	.LFE290:
 101              		.size	chRegFirstThread, .-chRegFirstThread
 102              		.section	.text.chRegNextThread,"ax",%progbits
 103              		.align	1
 104              		.global	chRegNextThread
 105              		.syntax unified
 106              		.thumb
 107              		.thumb_func
 108              		.fpu fpv4-sp-d16
 109              		.type	chRegNextThread, %function
 110              	chRegNextThread:
 111              	.LFB291:
 112              		.loc 1 158 0
 113              		.cfi_startproc
 114              		@ args = 0, pretend = 0, frame = 0
ARM GAS  /tmp/ccrJKiGC.s 			page 3


 115              		@ frame_needed = 0, uses_anonymous_args = 0
 116              	.LVL7:
 117 0000 38B5     		push	{r3, r4, r5, lr}
 118              		.cfi_def_cfa_offset 16
 119              		.cfi_offset 3, -16
 120              		.cfi_offset 4, -12
 121              		.cfi_offset 5, -8
 122              		.cfi_offset 14, -4
 123              		.loc 1 158 0
 124 0002 0546     		mov	r5, r0
 125              	.LBB48:
 126              	.LBB49:
 127              	.LBB50:
 128              	.LBB51:
 129              	.LBB52:
 130              		.loc 2 493 0
 131 0004 2023     		movs	r3, #32
 132              		.syntax unified
 133              	@ 493 "../../modules/ChibiOS/os/common/ext/ARM/CMSIS/Core/Include/cmsis_gcc.h" 1
 134 0006 83F31188 		MSR basepri, r3
 135              	@ 0 "" 2
 136              	.LVL8:
 137              		.thumb
 138              		.syntax unified
 139              	.LBE52:
 140              	.LBE51:
 141              	.LBE50:
 142              		.loc 3 356 0
 143 000a FFF7FEFF 		bl	_stats_start_measure_crit_thd
 144              	.LVL9:
 145              	.LBE49:
 146              	.LBE48:
 147              		.loc 1 162 0
 148 000e 2C69     		ldr	r4, [r5, #16]
 149              	.LVL10:
 150              		.loc 1 164 0
 151 0010 094B     		ldr	r3, .L7
 152 0012 9C42     		cmp	r4, r3
 153              		.loc 1 171 0
 154 0014 1DBF     		ittte	ne
 155 0016 94F82230 		ldrbne	r3, [r4, #34]	@ zero_extendqisi2
 156 001a 0133     		addne	r3, r3, #1
 157 001c 84F82230 		strbne	r3, [r4, #34]
 158              		.loc 1 166 0
 159 0020 0024     		moveq	r4, #0
 160              	.LVL11:
 161              	.LBB53:
 162              	.LBB54:
 163              		.loc 3 368 0
 164 0022 FFF7FEFF 		bl	_stats_stop_measure_crit_thd
 165              	.LVL12:
 166              	.LBB55:
 167              	.LBB56:
 168              	.LBB57:
 169              		.loc 2 493 0
 170 0026 0023     		movs	r3, #0
 171              		.syntax unified
ARM GAS  /tmp/ccrJKiGC.s 			page 4


 172              	@ 493 "../../modules/ChibiOS/os/common/ext/ARM/CMSIS/Core/Include/cmsis_gcc.h" 1
 173 0028 83F31188 		MSR basepri, r3
 174              	@ 0 "" 2
 175              	.LVL13:
 176              		.thumb
 177              		.syntax unified
 178              	.LBE57:
 179              	.LBE56:
 180              	.LBE55:
 181              	.LBE54:
 182              	.LBE53:
 183              		.loc 1 176 0
 184 002c 2846     		mov	r0, r5
 185 002e FFF7FEFF 		bl	chThdRelease
 186              	.LVL14:
 187              		.loc 1 180 0
 188 0032 2046     		mov	r0, r4
 189 0034 38BD     		pop	{r3, r4, r5, pc}
 190              	.LVL15:
 191              	.L8:
 192 0036 00BF     		.align	2
 193              	.L7:
 194 0038 00000000 		.word	ch
 195              		.cfi_endproc
 196              	.LFE291:
 197              		.size	chRegNextThread, .-chRegNextThread
 198              		.section	.text.chRegFindThreadByName,"ax",%progbits
 199              		.align	1
 200              		.global	chRegFindThreadByName
 201              		.syntax unified
 202              		.thumb
 203              		.thumb_func
 204              		.fpu fpv4-sp-d16
 205              		.type	chRegFindThreadByName, %function
 206              	chRegFindThreadByName:
 207              	.LFB292:
 208              		.loc 1 194 0
 209              		.cfi_startproc
 210              		@ args = 0, pretend = 0, frame = 0
 211              		@ frame_needed = 0, uses_anonymous_args = 0
 212              	.LVL16:
 213 0000 38B5     		push	{r3, r4, r5, lr}
 214              		.cfi_def_cfa_offset 16
 215              		.cfi_offset 3, -16
 216              		.cfi_offset 4, -12
 217              		.cfi_offset 5, -8
 218              		.cfi_offset 14, -4
 219              		.loc 1 194 0
 220 0002 0546     		mov	r5, r0
 221              		.loc 1 198 0
 222 0004 FFF7FEFF 		bl	chRegFirstThread
 223              	.LVL17:
 224 0008 0446     		mov	r4, r0
 225              	.LVL18:
 226              	.L11:
 227              		.loc 1 200 0
 228 000a 2946     		mov	r1, r5
ARM GAS  /tmp/ccrJKiGC.s 			page 5


 229 000c A069     		ldr	r0, [r4, #24]
 230              	.LVL19:
 231 000e FFF7FEFF 		bl	strcmp
 232              	.LVL20:
 233 0012 28B1     		cbz	r0, .L9
 234              		.loc 1 203 0
 235 0014 2046     		mov	r0, r4
 236 0016 FFF7FEFF 		bl	chRegNextThread
 237              	.LVL21:
 238              		.loc 1 204 0
 239 001a 0446     		mov	r4, r0
 240              	.LVL22:
 241 001c 0028     		cmp	r0, #0
 242 001e F4D1     		bne	.L11
 243              	.LVL23:
 244              	.L9:
 245              		.loc 1 207 0
 246 0020 2046     		mov	r0, r4
 247 0022 38BD     		pop	{r3, r4, r5, pc}
 248              		.cfi_endproc
 249              	.LFE292:
 250              		.size	chRegFindThreadByName, .-chRegFindThreadByName
 251              		.section	.text.chRegFindThreadByPointer,"ax",%progbits
 252              		.align	1
 253              		.global	chRegFindThreadByPointer
 254              		.syntax unified
 255              		.thumb
 256              		.thumb_func
 257              		.fpu fpv4-sp-d16
 258              		.type	chRegFindThreadByPointer, %function
 259              	chRegFindThreadByPointer:
 260              	.LFB293:
 261              		.loc 1 221 0
 262              		.cfi_startproc
 263              		@ args = 0, pretend = 0, frame = 0
 264              		@ frame_needed = 0, uses_anonymous_args = 0
 265              	.LVL24:
 266 0000 10B5     		push	{r4, lr}
 267              		.cfi_def_cfa_offset 8
 268              		.cfi_offset 4, -8
 269              		.cfi_offset 14, -4
 270              		.loc 1 221 0
 271 0002 0446     		mov	r4, r0
 272              		.loc 1 225 0
 273 0004 FFF7FEFF 		bl	chRegFirstThread
 274              	.LVL25:
 275              	.L18:
 276              		.loc 1 227 0
 277 0008 A042     		cmp	r0, r4
 278 000a 03D0     		beq	.L16
 279              		.loc 1 230 0
 280 000c FFF7FEFF 		bl	chRegNextThread
 281              	.LVL26:
 282              		.loc 1 231 0
 283 0010 0028     		cmp	r0, #0
 284 0012 F9D1     		bne	.L18
 285              	.L16:
ARM GAS  /tmp/ccrJKiGC.s 			page 6


 286              		.loc 1 234 0
 287 0014 10BD     		pop	{r4, pc}
 288              		.cfi_endproc
 289              	.LFE293:
 290              		.size	chRegFindThreadByPointer, .-chRegFindThreadByPointer
 291              		.section	.text.chRegFindThreadByWorkingArea,"ax",%progbits
 292              		.align	1
 293              		.global	chRegFindThreadByWorkingArea
 294              		.syntax unified
 295              		.thumb
 296              		.thumb_func
 297              		.fpu fpv4-sp-d16
 298              		.type	chRegFindThreadByWorkingArea, %function
 299              	chRegFindThreadByWorkingArea:
 300              	.LFB294:
 301              		.loc 1 250 0
 302              		.cfi_startproc
 303              		@ args = 0, pretend = 0, frame = 0
 304              		@ frame_needed = 0, uses_anonymous_args = 0
 305              	.LVL27:
 306 0000 10B5     		push	{r4, lr}
 307              		.cfi_def_cfa_offset 8
 308              		.cfi_offset 4, -8
 309              		.cfi_offset 14, -4
 310              		.loc 1 250 0
 311 0002 0446     		mov	r4, r0
 312              		.loc 1 254 0
 313 0004 FFF7FEFF 		bl	chRegFirstThread
 314              	.LVL28:
 315              	.L23:
 316              		.loc 1 256 0
 317 0008 C369     		ldr	r3, [r0, #28]
 318 000a 9C42     		cmp	r4, r3
 319 000c 03D0     		beq	.L21
 320              		.loc 1 259 0
 321 000e FFF7FEFF 		bl	chRegNextThread
 322              	.LVL29:
 323              		.loc 1 260 0
 324 0012 0028     		cmp	r0, #0
 325 0014 F8D1     		bne	.L23
 326              	.L21:
 327              		.loc 1 263 0
 328 0016 10BD     		pop	{r4, pc}
 329              		.cfi_endproc
 330              	.LFE294:
 331              		.size	chRegFindThreadByWorkingArea, .-chRegFindThreadByWorkingArea
 332              		.global	ch_debug
 333              		.section	.rodata.ch_debug,"a",%progbits
 334              		.align	1
 335              		.type	ch_debug, %object
 336              		.size	ch_debug, 22
 337              	ch_debug:
 338 0000 6D       		.byte	109
 339 0001 61       		.byte	97
 340 0002 69       		.byte	105
 341 0003 6E       		.byte	110
 342 0004 00       		.byte	0
ARM GAS  /tmp/ccrJKiGC.s 			page 7


 343 0005 16       		.byte	22
 344 0006 0030     		.short	12288
 345 0008 04       		.byte	4
 346 0009 04       		.byte	4
 347 000a 60       		.byte	96
 348 000b 08       		.byte	8
 349 000c 0C       		.byte	12
 350 000d 10       		.byte	16
 351 000e 14       		.byte	20
 352 000f 18       		.byte	24
 353 0010 1C       		.byte	28
 354 0011 20       		.byte	32
 355 0012 21       		.byte	33
 356 0013 22       		.byte	34
 357 0014 00       		.byte	0
 358 0015 00       		.byte	0
 359              		.text
 360              	.Letext0:
 361              		.file 4 "/opt/gcc-arm-none-eabi-6-2017-q2-update/lib/gcc/arm-none-eabi/6.3.1/include/stddef.h"
 362              		.file 5 "/opt/gcc-arm-none-eabi-6-2017-q2-update/arm-none-eabi/include/machine/_default_types.h"
 363              		.file 6 "/opt/gcc-arm-none-eabi-6-2017-q2-update/arm-none-eabi/include/sys/lock.h"
 364              		.file 7 "/opt/gcc-arm-none-eabi-6-2017-q2-update/arm-none-eabi/include/sys/_types.h"
 365              		.file 8 "/opt/gcc-arm-none-eabi-6-2017-q2-update/arm-none-eabi/include/sys/reent.h"
 366              		.file 9 "/opt/gcc-arm-none-eabi-6-2017-q2-update/arm-none-eabi/include/sys/_stdint.h"
 367              		.file 10 "../../modules/ChibiOS/os/common/ports/ARMCMx/compilers/GCC/chtypes.h"
 368              		.file 11 "../../modules/ChibiOS/os/rt/include/chsystypes.h"
 369              		.file 12 "../../modules/ChibiOS/os/rt/include/chschd.h"
 370              		.file 13 "../../modules/ChibiOS/os/rt/include/chtime.h"
 371              		.file 14 "../../modules/ChibiOS/os/common/ext/ARM/CMSIS/Core/Include/core_cm4.h"
 372              		.file 15 "../../modules/ChibiOS/os/common/ext/ST/STM32F4xx/system_stm32f4xx.h"
 373              		.file 16 "../../modules/ChibiOS/os/common/ports/ARMCMx/chcore.h"
 374              		.file 17 "../../modules/ChibiOS/os/common/ports/ARMCMx/chcore_v7m.h"
 375              		.file 18 "../../modules/ChibiOS/os/rt/include/chtm.h"
 376              		.file 19 "../../modules/ChibiOS/os/rt/include/chstats.h"
 377              		.file 20 "../../modules/ChibiOS/os/rt/include/chsem.h"
 378              		.file 21 "../../modules/ChibiOS/os/rt/include/chmtx.h"
 379              		.file 22 "../../modules/ChibiOS/os/rt/include/chregistry.h"
 380              		.file 23 "../../modules/ChibiOS/os/oslib/include/chmemcore.h"
 381              		.file 24 "../../modules/ChibiOS/os/oslib/include/chmempools.h"
 382              		.file 25 "../../modules/ChibiOS/os/oslib/include/chfactory.h"
 383              		.file 26 "../../modules/ChibiOS/os/rt/include/chthreads.h"
 384              		.file 27 "/opt/gcc-arm-none-eabi-6-2017-q2-update/arm-none-eabi/include/string.h"
 385              		.section	.debug_info,"",%progbits
 386              	.Ldebug_info0:
 387 0000 BD160000 		.4byte	0x16bd
 388 0004 0400     		.2byte	0x4
 389 0006 00000000 		.4byte	.Ldebug_abbrev0
 390 000a 04       		.byte	0x4
 391 000b 01       		.uleb128 0x1
 392 000c 78030000 		.4byte	.LASF285
 393 0010 0C       		.byte	0xc
 394 0011 0D050000 		.4byte	.LASF286
 395 0015 700A0000 		.4byte	.LASF287
 396 0019 00000000 		.4byte	.Ldebug_ranges0+0
 397 001d 00000000 		.4byte	0
 398 0021 00000000 		.4byte	.Ldebug_line0
 399 0025 02       		.uleb128 0x2
ARM GAS  /tmp/ccrJKiGC.s 			page 8


 400 0026 04       		.byte	0x4
 401 0027 05       		.byte	0x5
 402 0028 696E7400 		.ascii	"int\000"
 403 002c 03       		.uleb128 0x3
 404 002d 08000000 		.4byte	.LASF4
 405 0031 04       		.byte	0x4
 406 0032 D8       		.byte	0xd8
 407 0033 37000000 		.4byte	0x37
 408 0037 04       		.uleb128 0x4
 409 0038 04       		.byte	0x4
 410 0039 07       		.byte	0x7
 411 003a 71070000 		.4byte	.LASF0
 412 003e 04       		.uleb128 0x4
 413 003f 08       		.byte	0x8
 414 0040 05       		.byte	0x5
 415 0041 D7060000 		.4byte	.LASF1
 416 0045 04       		.uleb128 0x4
 417 0046 08       		.byte	0x8
 418 0047 04       		.byte	0x4
 419 0048 4A080000 		.4byte	.LASF2
 420 004c 04       		.uleb128 0x4
 421 004d 01       		.byte	0x1
 422 004e 06       		.byte	0x6
 423 004f 8D020000 		.4byte	.LASF3
 424 0053 03       		.uleb128 0x3
 425 0054 90010000 		.4byte	.LASF5
 426 0058 05       		.byte	0x5
 427 0059 2B       		.byte	0x2b
 428 005a 5E000000 		.4byte	0x5e
 429 005e 04       		.uleb128 0x4
 430 005f 01       		.byte	0x1
 431 0060 08       		.byte	0x8
 432 0061 D3020000 		.4byte	.LASF6
 433 0065 04       		.uleb128 0x4
 434 0066 02       		.byte	0x2
 435 0067 05       		.byte	0x5
 436 0068 C50A0000 		.4byte	.LASF7
 437 006c 03       		.uleb128 0x3
 438 006d 56030000 		.4byte	.LASF8
 439 0071 05       		.byte	0x5
 440 0072 39       		.byte	0x39
 441 0073 77000000 		.4byte	0x77
 442 0077 04       		.uleb128 0x4
 443 0078 02       		.byte	0x2
 444 0079 07       		.byte	0x7
 445 007a 060C0000 		.4byte	.LASF9
 446 007e 03       		.uleb128 0x3
 447 007f 6D0C0000 		.4byte	.LASF10
 448 0083 05       		.byte	0x5
 449 0084 4D       		.byte	0x4d
 450 0085 89000000 		.4byte	0x89
 451 0089 04       		.uleb128 0x4
 452 008a 04       		.byte	0x4
 453 008b 05       		.byte	0x5
 454 008c C3010000 		.4byte	.LASF11
 455 0090 03       		.uleb128 0x3
 456 0091 B9060000 		.4byte	.LASF12
ARM GAS  /tmp/ccrJKiGC.s 			page 9


 457 0095 05       		.byte	0x5
 458 0096 4F       		.byte	0x4f
 459 0097 9B000000 		.4byte	0x9b
 460 009b 04       		.uleb128 0x4
 461 009c 04       		.byte	0x4
 462 009d 07       		.byte	0x7
 463 009e 86050000 		.4byte	.LASF13
 464 00a2 03       		.uleb128 0x3
 465 00a3 60050000 		.4byte	.LASF14
 466 00a7 05       		.byte	0x5
 467 00a8 69       		.byte	0x69
 468 00a9 AD000000 		.4byte	0xad
 469 00ad 04       		.uleb128 0x4
 470 00ae 08       		.byte	0x8
 471 00af 07       		.byte	0x7
 472 00b0 06090000 		.4byte	.LASF15
 473 00b4 03       		.uleb128 0x3
 474 00b5 7E0B0000 		.4byte	.LASF16
 475 00b9 06       		.byte	0x6
 476 00ba 22       		.byte	0x22
 477 00bb BF000000 		.4byte	0xbf
 478 00bf 05       		.uleb128 0x5
 479 00c0 04       		.byte	0x4
 480 00c1 C5000000 		.4byte	0xc5
 481 00c5 06       		.uleb128 0x6
 482 00c6 EB040000 		.4byte	.LASF124
 483 00ca 03       		.uleb128 0x3
 484 00cb F30B0000 		.4byte	.LASF17
 485 00cf 07       		.byte	0x7
 486 00d0 2C       		.byte	0x2c
 487 00d1 89000000 		.4byte	0x89
 488 00d5 03       		.uleb128 0x3
 489 00d6 9B080000 		.4byte	.LASF18
 490 00da 07       		.byte	0x7
 491 00db 72       		.byte	0x72
 492 00dc 89000000 		.4byte	0x89
 493 00e0 07       		.uleb128 0x7
 494 00e1 210A0000 		.4byte	.LASF19
 495 00e5 04       		.byte	0x4
 496 00e6 6501     		.2byte	0x165
 497 00e8 37000000 		.4byte	0x37
 498 00ec 08       		.uleb128 0x8
 499 00ed 04       		.byte	0x4
 500 00ee 07       		.byte	0x7
 501 00ef A6       		.byte	0xa6
 502 00f0 0B010000 		.4byte	0x10b
 503 00f4 09       		.uleb128 0x9
 504 00f5 81010000 		.4byte	.LASF20
 505 00f9 07       		.byte	0x7
 506 00fa A8       		.byte	0xa8
 507 00fb E0000000 		.4byte	0xe0
 508 00ff 09       		.uleb128 0x9
 509 0100 A3080000 		.4byte	.LASF21
 510 0104 07       		.byte	0x7
 511 0105 A9       		.byte	0xa9
 512 0106 0B010000 		.4byte	0x10b
 513 010a 00       		.byte	0
ARM GAS  /tmp/ccrJKiGC.s 			page 10


 514 010b 0A       		.uleb128 0xa
 515 010c 5E000000 		.4byte	0x5e
 516 0110 1B010000 		.4byte	0x11b
 517 0114 0B       		.uleb128 0xb
 518 0115 1B010000 		.4byte	0x11b
 519 0119 03       		.byte	0x3
 520 011a 00       		.byte	0
 521 011b 04       		.uleb128 0x4
 522 011c 04       		.byte	0x4
 523 011d 07       		.byte	0x7
 524 011e 18000000 		.4byte	.LASF22
 525 0122 0C       		.uleb128 0xc
 526 0123 08       		.byte	0x8
 527 0124 07       		.byte	0x7
 528 0125 A3       		.byte	0xa3
 529 0126 43010000 		.4byte	0x143
 530 012a 0D       		.uleb128 0xd
 531 012b 22080000 		.4byte	.LASF23
 532 012f 07       		.byte	0x7
 533 0130 A5       		.byte	0xa5
 534 0131 25000000 		.4byte	0x25
 535 0135 00       		.byte	0
 536 0136 0D       		.uleb128 0xd
 537 0137 2C000000 		.4byte	.LASF24
 538 013b 07       		.byte	0x7
 539 013c AA       		.byte	0xaa
 540 013d EC000000 		.4byte	0xec
 541 0141 04       		.byte	0x4
 542 0142 00       		.byte	0
 543 0143 03       		.uleb128 0x3
 544 0144 0A0A0000 		.4byte	.LASF25
 545 0148 07       		.byte	0x7
 546 0149 AB       		.byte	0xab
 547 014a 22010000 		.4byte	0x122
 548 014e 03       		.uleb128 0x3
 549 014f DF090000 		.4byte	.LASF26
 550 0153 07       		.byte	0x7
 551 0154 AF       		.byte	0xaf
 552 0155 B4000000 		.4byte	0xb4
 553 0159 0E       		.uleb128 0xe
 554 015a 04       		.byte	0x4
 555 015b 05       		.uleb128 0x5
 556 015c 04       		.byte	0x4
 557 015d 61010000 		.4byte	0x161
 558 0161 04       		.uleb128 0x4
 559 0162 01       		.byte	0x1
 560 0163 08       		.byte	0x8
 561 0164 3C030000 		.4byte	.LASF27
 562 0168 0F       		.uleb128 0xf
 563 0169 61010000 		.4byte	0x161
 564 016d 03       		.uleb128 0x3
 565 016e CB0B0000 		.4byte	.LASF28
 566 0172 08       		.byte	0x8
 567 0173 16       		.byte	0x16
 568 0174 9B000000 		.4byte	0x9b
 569 0178 10       		.uleb128 0x10
 570 0179 80060000 		.4byte	.LASF33
ARM GAS  /tmp/ccrJKiGC.s 			page 11


 571 017d 18       		.byte	0x18
 572 017e 08       		.byte	0x8
 573 017f 2F       		.byte	0x2f
 574 0180 CB010000 		.4byte	0x1cb
 575 0184 0D       		.uleb128 0xd
 576 0185 360A0000 		.4byte	.LASF29
 577 0189 08       		.byte	0x8
 578 018a 31       		.byte	0x31
 579 018b CB010000 		.4byte	0x1cb
 580 018f 00       		.byte	0
 581 0190 11       		.uleb128 0x11
 582 0191 5F6B00   		.ascii	"_k\000"
 583 0194 08       		.byte	0x8
 584 0195 32       		.byte	0x32
 585 0196 25000000 		.4byte	0x25
 586 019a 04       		.byte	0x4
 587 019b 0D       		.uleb128 0xd
 588 019c 98060000 		.4byte	.LASF30
 589 01a0 08       		.byte	0x8
 590 01a1 32       		.byte	0x32
 591 01a2 25000000 		.4byte	0x25
 592 01a6 08       		.byte	0x8
 593 01a7 0D       		.uleb128 0xd
 594 01a8 56070000 		.4byte	.LASF31
 595 01ac 08       		.byte	0x8
 596 01ad 32       		.byte	0x32
 597 01ae 25000000 		.4byte	0x25
 598 01b2 0C       		.byte	0xc
 599 01b3 0D       		.uleb128 0xd
 600 01b4 D8040000 		.4byte	.LASF32
 601 01b8 08       		.byte	0x8
 602 01b9 32       		.byte	0x32
 603 01ba 25000000 		.4byte	0x25
 604 01be 10       		.byte	0x10
 605 01bf 11       		.uleb128 0x11
 606 01c0 5F7800   		.ascii	"_x\000"
 607 01c3 08       		.byte	0x8
 608 01c4 33       		.byte	0x33
 609 01c5 D1010000 		.4byte	0x1d1
 610 01c9 14       		.byte	0x14
 611 01ca 00       		.byte	0
 612 01cb 05       		.uleb128 0x5
 613 01cc 04       		.byte	0x4
 614 01cd 78010000 		.4byte	0x178
 615 01d1 0A       		.uleb128 0xa
 616 01d2 6D010000 		.4byte	0x16d
 617 01d6 E1010000 		.4byte	0x1e1
 618 01da 0B       		.uleb128 0xb
 619 01db 1B010000 		.4byte	0x11b
 620 01df 00       		.byte	0
 621 01e0 00       		.byte	0
 622 01e1 10       		.uleb128 0x10
 623 01e2 DA000000 		.4byte	.LASF34
 624 01e6 24       		.byte	0x24
 625 01e7 08       		.byte	0x8
 626 01e8 37       		.byte	0x37
 627 01e9 5A020000 		.4byte	0x25a
ARM GAS  /tmp/ccrJKiGC.s 			page 12


 628 01ed 0D       		.uleb128 0xd
 629 01ee F6000000 		.4byte	.LASF35
 630 01f2 08       		.byte	0x8
 631 01f3 39       		.byte	0x39
 632 01f4 25000000 		.4byte	0x25
 633 01f8 00       		.byte	0
 634 01f9 0D       		.uleb128 0xd
 635 01fa A40C0000 		.4byte	.LASF36
 636 01fe 08       		.byte	0x8
 637 01ff 3A       		.byte	0x3a
 638 0200 25000000 		.4byte	0x25
 639 0204 04       		.byte	0x4
 640 0205 0D       		.uleb128 0xd
 641 0206 190C0000 		.4byte	.LASF37
 642 020a 08       		.byte	0x8
 643 020b 3B       		.byte	0x3b
 644 020c 25000000 		.4byte	0x25
 645 0210 08       		.byte	0x8
 646 0211 0D       		.uleb128 0xd
 647 0212 A3070000 		.4byte	.LASF38
 648 0216 08       		.byte	0x8
 649 0217 3C       		.byte	0x3c
 650 0218 25000000 		.4byte	0x25
 651 021c 0C       		.byte	0xc
 652 021d 0D       		.uleb128 0xd
 653 021e 33020000 		.4byte	.LASF39
 654 0222 08       		.byte	0x8
 655 0223 3D       		.byte	0x3d
 656 0224 25000000 		.4byte	0x25
 657 0228 10       		.byte	0x10
 658 0229 0D       		.uleb128 0xd
 659 022a 290B0000 		.4byte	.LASF40
 660 022e 08       		.byte	0x8
 661 022f 3E       		.byte	0x3e
 662 0230 25000000 		.4byte	0x25
 663 0234 14       		.byte	0x14
 664 0235 0D       		.uleb128 0xd
 665 0236 37080000 		.4byte	.LASF41
 666 023a 08       		.byte	0x8
 667 023b 3F       		.byte	0x3f
 668 023c 25000000 		.4byte	0x25
 669 0240 18       		.byte	0x18
 670 0241 0D       		.uleb128 0xd
 671 0242 56080000 		.4byte	.LASF42
 672 0246 08       		.byte	0x8
 673 0247 40       		.byte	0x40
 674 0248 25000000 		.4byte	0x25
 675 024c 1C       		.byte	0x1c
 676 024d 0D       		.uleb128 0xd
 677 024e 940C0000 		.4byte	.LASF43
 678 0252 08       		.byte	0x8
 679 0253 41       		.byte	0x41
 680 0254 25000000 		.4byte	0x25
 681 0258 20       		.byte	0x20
 682 0259 00       		.byte	0
 683 025a 12       		.uleb128 0x12
 684 025b A0010000 		.4byte	.LASF44
ARM GAS  /tmp/ccrJKiGC.s 			page 13


 685 025f 0801     		.2byte	0x108
 686 0261 08       		.byte	0x8
 687 0262 4A       		.byte	0x4a
 688 0263 9A020000 		.4byte	0x29a
 689 0267 0D       		.uleb128 0xd
 690 0268 8C0C0000 		.4byte	.LASF45
 691 026c 08       		.byte	0x8
 692 026d 4B       		.byte	0x4b
 693 026e 9A020000 		.4byte	0x29a
 694 0272 00       		.byte	0
 695 0273 0D       		.uleb128 0xd
 696 0274 2F090000 		.4byte	.LASF46
 697 0278 08       		.byte	0x8
 698 0279 4C       		.byte	0x4c
 699 027a 9A020000 		.4byte	0x29a
 700 027e 80       		.byte	0x80
 701 027f 13       		.uleb128 0x13
 702 0280 050B0000 		.4byte	.LASF47
 703 0284 08       		.byte	0x8
 704 0285 4E       		.byte	0x4e
 705 0286 6D010000 		.4byte	0x16d
 706 028a 0001     		.2byte	0x100
 707 028c 13       		.uleb128 0x13
 708 028d 760B0000 		.4byte	.LASF48
 709 0291 08       		.byte	0x8
 710 0292 51       		.byte	0x51
 711 0293 6D010000 		.4byte	0x16d
 712 0297 0401     		.2byte	0x104
 713 0299 00       		.byte	0
 714 029a 0A       		.uleb128 0xa
 715 029b 59010000 		.4byte	0x159
 716 029f AA020000 		.4byte	0x2aa
 717 02a3 0B       		.uleb128 0xb
 718 02a4 1B010000 		.4byte	0x11b
 719 02a8 1F       		.byte	0x1f
 720 02a9 00       		.byte	0
 721 02aa 12       		.uleb128 0x12
 722 02ab 1A080000 		.4byte	.LASF49
 723 02af 9001     		.2byte	0x190
 724 02b1 08       		.byte	0x8
 725 02b2 5D       		.byte	0x5d
 726 02b3 E8020000 		.4byte	0x2e8
 727 02b7 0D       		.uleb128 0xd
 728 02b8 360A0000 		.4byte	.LASF29
 729 02bc 08       		.byte	0x8
 730 02bd 5E       		.byte	0x5e
 731 02be E8020000 		.4byte	0x2e8
 732 02c2 00       		.byte	0
 733 02c3 0D       		.uleb128 0xd
 734 02c4 540B0000 		.4byte	.LASF50
 735 02c8 08       		.byte	0x8
 736 02c9 5F       		.byte	0x5f
 737 02ca 25000000 		.4byte	0x25
 738 02ce 04       		.byte	0x4
 739 02cf 0D       		.uleb128 0xd
 740 02d0 41030000 		.4byte	.LASF51
 741 02d4 08       		.byte	0x8
ARM GAS  /tmp/ccrJKiGC.s 			page 14


 742 02d5 61       		.byte	0x61
 743 02d6 EE020000 		.4byte	0x2ee
 744 02da 08       		.byte	0x8
 745 02db 0D       		.uleb128 0xd
 746 02dc A0010000 		.4byte	.LASF44
 747 02e0 08       		.byte	0x8
 748 02e1 62       		.byte	0x62
 749 02e2 5A020000 		.4byte	0x25a
 750 02e6 88       		.byte	0x88
 751 02e7 00       		.byte	0
 752 02e8 05       		.uleb128 0x5
 753 02e9 04       		.byte	0x4
 754 02ea AA020000 		.4byte	0x2aa
 755 02ee 0A       		.uleb128 0xa
 756 02ef FE020000 		.4byte	0x2fe
 757 02f3 FE020000 		.4byte	0x2fe
 758 02f7 0B       		.uleb128 0xb
 759 02f8 1B010000 		.4byte	0x11b
 760 02fc 1F       		.byte	0x1f
 761 02fd 00       		.byte	0
 762 02fe 05       		.uleb128 0x5
 763 02ff 04       		.byte	0x4
 764 0300 04030000 		.4byte	0x304
 765 0304 14       		.uleb128 0x14
 766 0305 10       		.uleb128 0x10
 767 0306 610B0000 		.4byte	.LASF52
 768 030a 08       		.byte	0x8
 769 030b 08       		.byte	0x8
 770 030c 75       		.byte	0x75
 771 030d 2A030000 		.4byte	0x32a
 772 0311 0D       		.uleb128 0xd
 773 0312 71090000 		.4byte	.LASF53
 774 0316 08       		.byte	0x8
 775 0317 76       		.byte	0x76
 776 0318 2A030000 		.4byte	0x32a
 777 031c 00       		.byte	0
 778 031d 0D       		.uleb128 0xd
 779 031e EE010000 		.4byte	.LASF54
 780 0322 08       		.byte	0x8
 781 0323 77       		.byte	0x77
 782 0324 25000000 		.4byte	0x25
 783 0328 04       		.byte	0x4
 784 0329 00       		.byte	0
 785 032a 05       		.uleb128 0x5
 786 032b 04       		.byte	0x4
 787 032c 5E000000 		.4byte	0x5e
 788 0330 10       		.uleb128 0x10
 789 0331 AD050000 		.4byte	.LASF55
 790 0335 68       		.byte	0x68
 791 0336 08       		.byte	0x8
 792 0337 B5       		.byte	0xb5
 793 0338 5A040000 		.4byte	0x45a
 794 033c 11       		.uleb128 0x11
 795 033d 5F7000   		.ascii	"_p\000"
 796 0340 08       		.byte	0x8
 797 0341 B6       		.byte	0xb6
 798 0342 2A030000 		.4byte	0x32a
ARM GAS  /tmp/ccrJKiGC.s 			page 15


 799 0346 00       		.byte	0
 800 0347 11       		.uleb128 0x11
 801 0348 5F7200   		.ascii	"_r\000"
 802 034b 08       		.byte	0x8
 803 034c B7       		.byte	0xb7
 804 034d 25000000 		.4byte	0x25
 805 0351 04       		.byte	0x4
 806 0352 11       		.uleb128 0x11
 807 0353 5F7700   		.ascii	"_w\000"
 808 0356 08       		.byte	0x8
 809 0357 B8       		.byte	0xb8
 810 0358 25000000 		.4byte	0x25
 811 035c 08       		.byte	0x8
 812 035d 0D       		.uleb128 0xd
 813 035e F9070000 		.4byte	.LASF56
 814 0362 08       		.byte	0x8
 815 0363 B9       		.byte	0xb9
 816 0364 65000000 		.4byte	0x65
 817 0368 0C       		.byte	0xc
 818 0369 0D       		.uleb128 0xd
 819 036a 9A010000 		.4byte	.LASF57
 820 036e 08       		.byte	0x8
 821 036f BA       		.byte	0xba
 822 0370 65000000 		.4byte	0x65
 823 0374 0E       		.byte	0xe
 824 0375 11       		.uleb128 0x11
 825 0376 5F626600 		.ascii	"_bf\000"
 826 037a 08       		.byte	0x8
 827 037b BB       		.byte	0xbb
 828 037c 05030000 		.4byte	0x305
 829 0380 10       		.byte	0x10
 830 0381 0D       		.uleb128 0xd
 831 0382 3F0B0000 		.4byte	.LASF58
 832 0386 08       		.byte	0x8
 833 0387 BC       		.byte	0xbc
 834 0388 25000000 		.4byte	0x25
 835 038c 18       		.byte	0x18
 836 038d 0D       		.uleb128 0xd
 837 038e C9040000 		.4byte	.LASF59
 838 0392 08       		.byte	0x8
 839 0393 C3       		.byte	0xc3
 840 0394 59010000 		.4byte	0x159
 841 0398 1C       		.byte	0x1c
 842 0399 0D       		.uleb128 0xd
 843 039a 65000000 		.4byte	.LASF60
 844 039e 08       		.byte	0x8
 845 039f C5       		.byte	0xc5
 846 03a0 B5050000 		.4byte	0x5b5
 847 03a4 20       		.byte	0x20
 848 03a5 0D       		.uleb128 0xd
 849 03a6 85000000 		.4byte	.LASF61
 850 03aa 08       		.byte	0x8
 851 03ab C7       		.byte	0xc7
 852 03ac E4050000 		.4byte	0x5e4
 853 03b0 24       		.byte	0x24
 854 03b1 0D       		.uleb128 0xd
 855 03b2 95080000 		.4byte	.LASF62
ARM GAS  /tmp/ccrJKiGC.s 			page 16


 856 03b6 08       		.byte	0x8
 857 03b7 CA       		.byte	0xca
 858 03b8 08060000 		.4byte	0x608
 859 03bc 28       		.byte	0x28
 860 03bd 0D       		.uleb128 0xd
 861 03be 46030000 		.4byte	.LASF63
 862 03c2 08       		.byte	0x8
 863 03c3 CB       		.byte	0xcb
 864 03c4 22060000 		.4byte	0x622
 865 03c8 2C       		.byte	0x2c
 866 03c9 11       		.uleb128 0x11
 867 03ca 5F756200 		.ascii	"_ub\000"
 868 03ce 08       		.byte	0x8
 869 03cf CE       		.byte	0xce
 870 03d0 05030000 		.4byte	0x305
 871 03d4 30       		.byte	0x30
 872 03d5 11       		.uleb128 0x11
 873 03d6 5F757000 		.ascii	"_up\000"
 874 03da 08       		.byte	0x8
 875 03db CF       		.byte	0xcf
 876 03dc 2A030000 		.4byte	0x32a
 877 03e0 38       		.byte	0x38
 878 03e1 11       		.uleb128 0x11
 879 03e2 5F757200 		.ascii	"_ur\000"
 880 03e6 08       		.byte	0x8
 881 03e7 D0       		.byte	0xd0
 882 03e8 25000000 		.4byte	0x25
 883 03ec 3C       		.byte	0x3c
 884 03ed 0D       		.uleb128 0xd
 885 03ee C1070000 		.4byte	.LASF64
 886 03f2 08       		.byte	0x8
 887 03f3 D3       		.byte	0xd3
 888 03f4 28060000 		.4byte	0x628
 889 03f8 40       		.byte	0x40
 890 03f9 0D       		.uleb128 0xd
 891 03fa F0000000 		.4byte	.LASF65
 892 03fe 08       		.byte	0x8
 893 03ff D4       		.byte	0xd4
 894 0400 38060000 		.4byte	0x638
 895 0404 43       		.byte	0x43
 896 0405 11       		.uleb128 0x11
 897 0406 5F6C6200 		.ascii	"_lb\000"
 898 040a 08       		.byte	0x8
 899 040b D7       		.byte	0xd7
 900 040c 05030000 		.4byte	0x305
 901 0410 44       		.byte	0x44
 902 0411 0D       		.uleb128 0xd
 903 0412 68090000 		.4byte	.LASF66
 904 0416 08       		.byte	0x8
 905 0417 DA       		.byte	0xda
 906 0418 25000000 		.4byte	0x25
 907 041c 4C       		.byte	0x4c
 908 041d 0D       		.uleb128 0xd
 909 041e 05050000 		.4byte	.LASF67
 910 0422 08       		.byte	0x8
 911 0423 DB       		.byte	0xdb
 912 0424 CA000000 		.4byte	0xca
ARM GAS  /tmp/ccrJKiGC.s 			page 17


 913 0428 50       		.byte	0x50
 914 0429 0D       		.uleb128 0xd
 915 042a 3C0A0000 		.4byte	.LASF68
 916 042e 08       		.byte	0x8
 917 042f DE       		.byte	0xde
 918 0430 78040000 		.4byte	0x478
 919 0434 54       		.byte	0x54
 920 0435 0D       		.uleb128 0xd
 921 0436 1E010000 		.4byte	.LASF69
 922 043a 08       		.byte	0x8
 923 043b E2       		.byte	0xe2
 924 043c 4E010000 		.4byte	0x14e
 925 0440 58       		.byte	0x58
 926 0441 0D       		.uleb128 0xd
 927 0442 DD070000 		.4byte	.LASF70
 928 0446 08       		.byte	0x8
 929 0447 E4       		.byte	0xe4
 930 0448 43010000 		.4byte	0x143
 931 044c 5C       		.byte	0x5c
 932 044d 0D       		.uleb128 0xd
 933 044e C0050000 		.4byte	.LASF71
 934 0452 08       		.byte	0x8
 935 0453 E5       		.byte	0xe5
 936 0454 25000000 		.4byte	0x25
 937 0458 64       		.byte	0x64
 938 0459 00       		.byte	0
 939 045a 15       		.uleb128 0x15
 940 045b 25000000 		.4byte	0x25
 941 045f 78040000 		.4byte	0x478
 942 0463 16       		.uleb128 0x16
 943 0464 78040000 		.4byte	0x478
 944 0468 16       		.uleb128 0x16
 945 0469 59010000 		.4byte	0x159
 946 046d 16       		.uleb128 0x16
 947 046e 5B010000 		.4byte	0x15b
 948 0472 16       		.uleb128 0x16
 949 0473 25000000 		.4byte	0x25
 950 0477 00       		.byte	0
 951 0478 05       		.uleb128 0x5
 952 0479 04       		.byte	0x4
 953 047a 83040000 		.4byte	0x483
 954 047e 0F       		.uleb128 0xf
 955 047f 78040000 		.4byte	0x478
 956 0483 17       		.uleb128 0x17
 957 0484 0D030000 		.4byte	.LASF72
 958 0488 2804     		.2byte	0x428
 959 048a 08       		.byte	0x8
 960 048b 3902     		.2byte	0x239
 961 048d B5050000 		.4byte	0x5b5
 962 0491 18       		.uleb128 0x18
 963 0492 17060000 		.4byte	.LASF73
 964 0496 08       		.byte	0x8
 965 0497 3B02     		.2byte	0x23b
 966 0499 25000000 		.4byte	0x25
 967 049d 00       		.byte	0
 968 049e 18       		.uleb128 0x18
 969 049f 71030000 		.4byte	.LASF74
ARM GAS  /tmp/ccrJKiGC.s 			page 18


 970 04a3 08       		.byte	0x8
 971 04a4 4002     		.2byte	0x240
 972 04a6 8F060000 		.4byte	0x68f
 973 04aa 04       		.byte	0x4
 974 04ab 18       		.uleb128 0x18
 975 04ac 5A090000 		.4byte	.LASF75
 976 04b0 08       		.byte	0x8
 977 04b1 4002     		.2byte	0x240
 978 04b3 8F060000 		.4byte	0x68f
 979 04b7 08       		.byte	0x8
 980 04b8 18       		.uleb128 0x18
 981 04b9 C7070000 		.4byte	.LASF76
 982 04bd 08       		.byte	0x8
 983 04be 4002     		.2byte	0x240
 984 04c0 8F060000 		.4byte	0x68f
 985 04c4 0C       		.byte	0xc
 986 04c5 18       		.uleb128 0x18
 987 04c6 4F0B0000 		.4byte	.LASF77
 988 04ca 08       		.byte	0x8
 989 04cb 4202     		.2byte	0x242
 990 04cd 25000000 		.4byte	0x25
 991 04d1 10       		.byte	0x10
 992 04d2 18       		.uleb128 0x18
 993 04d3 C4060000 		.4byte	.LASF78
 994 04d7 08       		.byte	0x8
 995 04d8 4302     		.2byte	0x243
 996 04da 71080000 		.4byte	0x871
 997 04de 14       		.byte	0x14
 998 04df 18       		.uleb128 0x18
 999 04e0 F4020000 		.4byte	.LASF79
 1000 04e4 08       		.byte	0x8
 1001 04e5 4602     		.2byte	0x246
 1002 04e7 25000000 		.4byte	0x25
 1003 04eb 30       		.byte	0x30
 1004 04ec 18       		.uleb128 0x18
 1005 04ed C30B0000 		.4byte	.LASF80
 1006 04f1 08       		.byte	0x8
 1007 04f2 4702     		.2byte	0x247
 1008 04f4 86080000 		.4byte	0x886
 1009 04f8 34       		.byte	0x34
 1010 04f9 18       		.uleb128 0x18
 1011 04fa B5050000 		.4byte	.LASF81
 1012 04fe 08       		.byte	0x8
 1013 04ff 4902     		.2byte	0x249
 1014 0501 25000000 		.4byte	0x25
 1015 0505 38       		.byte	0x38
 1016 0506 18       		.uleb128 0x18
 1017 0507 A6060000 		.4byte	.LASF82
 1018 050b 08       		.byte	0x8
 1019 050c 4B02     		.2byte	0x24b
 1020 050e 97080000 		.4byte	0x897
 1021 0512 3C       		.byte	0x3c
 1022 0513 18       		.uleb128 0x18
 1023 0514 E20B0000 		.4byte	.LASF83
 1024 0518 08       		.byte	0x8
 1025 0519 4E02     		.2byte	0x24e
 1026 051b CB010000 		.4byte	0x1cb
ARM GAS  /tmp/ccrJKiGC.s 			page 19


 1027 051f 40       		.byte	0x40
 1028 0520 18       		.uleb128 0x18
 1029 0521 E4010000 		.4byte	.LASF84
 1030 0525 08       		.byte	0x8
 1031 0526 4F02     		.2byte	0x24f
 1032 0528 25000000 		.4byte	0x25
 1033 052c 44       		.byte	0x44
 1034 052d 18       		.uleb128 0x18
 1035 052e 81050000 		.4byte	.LASF85
 1036 0532 08       		.byte	0x8
 1037 0533 5002     		.2byte	0x250
 1038 0535 CB010000 		.4byte	0x1cb
 1039 0539 48       		.byte	0x48
 1040 053a 18       		.uleb128 0x18
 1041 053b 2D070000 		.4byte	.LASF86
 1042 053f 08       		.byte	0x8
 1043 0540 5102     		.2byte	0x251
 1044 0542 9D080000 		.4byte	0x89d
 1045 0546 4C       		.byte	0x4c
 1046 0547 18       		.uleb128 0x18
 1047 0548 A1000000 		.4byte	.LASF87
 1048 054c 08       		.byte	0x8
 1049 054d 5402     		.2byte	0x254
 1050 054f 25000000 		.4byte	0x25
 1051 0553 50       		.byte	0x50
 1052 0554 18       		.uleb128 0x18
 1053 0555 3A050000 		.4byte	.LASF88
 1054 0559 08       		.byte	0x8
 1055 055a 5502     		.2byte	0x255
 1056 055c 5B010000 		.4byte	0x15b
 1057 0560 54       		.byte	0x54
 1058 0561 18       		.uleb128 0x18
 1059 0562 BC070000 		.4byte	.LASF89
 1060 0566 08       		.byte	0x8
 1061 0567 7802     		.2byte	0x278
 1062 0569 4F080000 		.4byte	0x84f
 1063 056d 58       		.byte	0x58
 1064 056e 19       		.uleb128 0x19
 1065 056f 1A080000 		.4byte	.LASF49
 1066 0573 08       		.byte	0x8
 1067 0574 7C02     		.2byte	0x27c
 1068 0576 E8020000 		.4byte	0x2e8
 1069 057a 4801     		.2byte	0x148
 1070 057c 19       		.uleb128 0x19
 1071 057d B0060000 		.4byte	.LASF90
 1072 0581 08       		.byte	0x8
 1073 0582 7D02     		.2byte	0x27d
 1074 0584 AA020000 		.4byte	0x2aa
 1075 0588 4C01     		.2byte	0x14c
 1076 058a 19       		.uleb128 0x19
 1077 058b F2040000 		.4byte	.LASF91
 1078 058f 08       		.byte	0x8
 1079 0590 8102     		.2byte	0x281
 1080 0592 AE080000 		.4byte	0x8ae
 1081 0596 DC02     		.2byte	0x2dc
 1082 0598 19       		.uleb128 0x19
 1083 0599 0D070000 		.4byte	.LASF92
ARM GAS  /tmp/ccrJKiGC.s 			page 20


 1084 059d 08       		.byte	0x8
 1085 059e 8602     		.2byte	0x286
 1086 05a0 54060000 		.4byte	0x654
 1087 05a4 E002     		.2byte	0x2e0
 1088 05a6 19       		.uleb128 0x19
 1089 05a7 4A000000 		.4byte	.LASF93
 1090 05ab 08       		.byte	0x8
 1091 05ac 8702     		.2byte	0x287
 1092 05ae BA080000 		.4byte	0x8ba
 1093 05b2 EC02     		.2byte	0x2ec
 1094 05b4 00       		.byte	0
 1095 05b5 05       		.uleb128 0x5
 1096 05b6 04       		.byte	0x4
 1097 05b7 5A040000 		.4byte	0x45a
 1098 05bb 15       		.uleb128 0x15
 1099 05bc 25000000 		.4byte	0x25
 1100 05c0 D9050000 		.4byte	0x5d9
 1101 05c4 16       		.uleb128 0x16
 1102 05c5 78040000 		.4byte	0x478
 1103 05c9 16       		.uleb128 0x16
 1104 05ca 59010000 		.4byte	0x159
 1105 05ce 16       		.uleb128 0x16
 1106 05cf D9050000 		.4byte	0x5d9
 1107 05d3 16       		.uleb128 0x16
 1108 05d4 25000000 		.4byte	0x25
 1109 05d8 00       		.byte	0
 1110 05d9 05       		.uleb128 0x5
 1111 05da 04       		.byte	0x4
 1112 05db 68010000 		.4byte	0x168
 1113 05df 1A       		.uleb128 0x1a
 1114 05e0 D9050000 		.4byte	0x5d9
 1115 05e4 05       		.uleb128 0x5
 1116 05e5 04       		.byte	0x4
 1117 05e6 BB050000 		.4byte	0x5bb
 1118 05ea 15       		.uleb128 0x15
 1119 05eb D5000000 		.4byte	0xd5
 1120 05ef 08060000 		.4byte	0x608
 1121 05f3 16       		.uleb128 0x16
 1122 05f4 78040000 		.4byte	0x478
 1123 05f8 16       		.uleb128 0x16
 1124 05f9 59010000 		.4byte	0x159
 1125 05fd 16       		.uleb128 0x16
 1126 05fe D5000000 		.4byte	0xd5
 1127 0602 16       		.uleb128 0x16
 1128 0603 25000000 		.4byte	0x25
 1129 0607 00       		.byte	0
 1130 0608 05       		.uleb128 0x5
 1131 0609 04       		.byte	0x4
 1132 060a EA050000 		.4byte	0x5ea
 1133 060e 15       		.uleb128 0x15
 1134 060f 25000000 		.4byte	0x25
 1135 0613 22060000 		.4byte	0x622
 1136 0617 16       		.uleb128 0x16
 1137 0618 78040000 		.4byte	0x478
 1138 061c 16       		.uleb128 0x16
 1139 061d 59010000 		.4byte	0x159
 1140 0621 00       		.byte	0
ARM GAS  /tmp/ccrJKiGC.s 			page 21


 1141 0622 05       		.uleb128 0x5
 1142 0623 04       		.byte	0x4
 1143 0624 0E060000 		.4byte	0x60e
 1144 0628 0A       		.uleb128 0xa
 1145 0629 5E000000 		.4byte	0x5e
 1146 062d 38060000 		.4byte	0x638
 1147 0631 0B       		.uleb128 0xb
 1148 0632 1B010000 		.4byte	0x11b
 1149 0636 02       		.byte	0x2
 1150 0637 00       		.byte	0
 1151 0638 0A       		.uleb128 0xa
 1152 0639 5E000000 		.4byte	0x5e
 1153 063d 48060000 		.4byte	0x648
 1154 0641 0B       		.uleb128 0xb
 1155 0642 1B010000 		.4byte	0x11b
 1156 0646 00       		.byte	0
 1157 0647 00       		.byte	0
 1158 0648 07       		.uleb128 0x7
 1159 0649 F0090000 		.4byte	.LASF94
 1160 064d 08       		.byte	0x8
 1161 064e 1F01     		.2byte	0x11f
 1162 0650 30030000 		.4byte	0x330
 1163 0654 1B       		.uleb128 0x1b
 1164 0655 43070000 		.4byte	.LASF95
 1165 0659 0C       		.byte	0xc
 1166 065a 08       		.byte	0x8
 1167 065b 2301     		.2byte	0x123
 1168 065d 89060000 		.4byte	0x689
 1169 0661 18       		.uleb128 0x18
 1170 0662 360A0000 		.4byte	.LASF29
 1171 0666 08       		.byte	0x8
 1172 0667 2501     		.2byte	0x125
 1173 0669 89060000 		.4byte	0x689
 1174 066d 00       		.byte	0
 1175 066e 18       		.uleb128 0x18
 1176 066f F3060000 		.4byte	.LASF96
 1177 0673 08       		.byte	0x8
 1178 0674 2601     		.2byte	0x126
 1179 0676 25000000 		.4byte	0x25
 1180 067a 04       		.byte	0x4
 1181 067b 18       		.uleb128 0x18
 1182 067c 37070000 		.4byte	.LASF97
 1183 0680 08       		.byte	0x8
 1184 0681 2701     		.2byte	0x127
 1185 0683 8F060000 		.4byte	0x68f
 1186 0687 08       		.byte	0x8
 1187 0688 00       		.byte	0
 1188 0689 05       		.uleb128 0x5
 1189 068a 04       		.byte	0x4
 1190 068b 54060000 		.4byte	0x654
 1191 068f 05       		.uleb128 0x5
 1192 0690 04       		.byte	0x4
 1193 0691 48060000 		.4byte	0x648
 1194 0695 1B       		.uleb128 0x1b
 1195 0696 52090000 		.4byte	.LASF98
 1196 069a 0E       		.byte	0xe
 1197 069b 08       		.byte	0x8
ARM GAS  /tmp/ccrJKiGC.s 			page 22


 1198 069c 3F01     		.2byte	0x13f
 1199 069e CA060000 		.4byte	0x6ca
 1200 06a2 18       		.uleb128 0x18
 1201 06a3 86080000 		.4byte	.LASF99
 1202 06a7 08       		.byte	0x8
 1203 06a8 4001     		.2byte	0x140
 1204 06aa CA060000 		.4byte	0x6ca
 1205 06ae 00       		.byte	0
 1206 06af 18       		.uleb128 0x18
 1207 06b0 32010000 		.4byte	.LASF100
 1208 06b4 08       		.byte	0x8
 1209 06b5 4101     		.2byte	0x141
 1210 06b7 CA060000 		.4byte	0x6ca
 1211 06bb 06       		.byte	0x6
 1212 06bc 18       		.uleb128 0x18
 1213 06bd 010C0000 		.4byte	.LASF101
 1214 06c1 08       		.byte	0x8
 1215 06c2 4201     		.2byte	0x142
 1216 06c4 77000000 		.4byte	0x77
 1217 06c8 0C       		.byte	0xc
 1218 06c9 00       		.byte	0
 1219 06ca 0A       		.uleb128 0xa
 1220 06cb 77000000 		.4byte	0x77
 1221 06cf DA060000 		.4byte	0x6da
 1222 06d3 0B       		.uleb128 0xb
 1223 06d4 1B010000 		.4byte	0x11b
 1224 06d8 02       		.byte	0x2
 1225 06d9 00       		.byte	0
 1226 06da 1C       		.uleb128 0x1c
 1227 06db D0       		.byte	0xd0
 1228 06dc 08       		.byte	0x8
 1229 06dd 5902     		.2byte	0x259
 1230 06df DB070000 		.4byte	0x7db
 1231 06e3 18       		.uleb128 0x18
 1232 06e4 76020000 		.4byte	.LASF102
 1233 06e8 08       		.byte	0x8
 1234 06e9 5B02     		.2byte	0x25b
 1235 06eb 37000000 		.4byte	0x37
 1236 06ef 00       		.byte	0
 1237 06f0 18       		.uleb128 0x18
 1238 06f1 A4090000 		.4byte	.LASF103
 1239 06f5 08       		.byte	0x8
 1240 06f6 5C02     		.2byte	0x25c
 1241 06f8 5B010000 		.4byte	0x15b
 1242 06fc 04       		.byte	0x4
 1243 06fd 18       		.uleb128 0x18
 1244 06fe 94000000 		.4byte	.LASF104
 1245 0702 08       		.byte	0x8
 1246 0703 5D02     		.2byte	0x25d
 1247 0705 DB070000 		.4byte	0x7db
 1248 0709 08       		.byte	0x8
 1249 070a 18       		.uleb128 0x18
 1250 070b F9010000 		.4byte	.LASF105
 1251 070f 08       		.byte	0x8
 1252 0710 5E02     		.2byte	0x25e
 1253 0712 E1010000 		.4byte	0x1e1
 1254 0716 24       		.byte	0x24
ARM GAS  /tmp/ccrJKiGC.s 			page 23


 1255 0717 18       		.uleb128 0x18
 1256 0718 1E070000 		.4byte	.LASF106
 1257 071c 08       		.byte	0x8
 1258 071d 5F02     		.2byte	0x25f
 1259 071f 25000000 		.4byte	0x25
 1260 0723 48       		.byte	0x48
 1261 0724 18       		.uleb128 0x18
 1262 0725 EE070000 		.4byte	.LASF107
 1263 0729 08       		.byte	0x8
 1264 072a 6002     		.2byte	0x260
 1265 072c AD000000 		.4byte	0xad
 1266 0730 50       		.byte	0x50
 1267 0731 18       		.uleb128 0x18
 1268 0732 150A0000 		.4byte	.LASF108
 1269 0736 08       		.byte	0x8
 1270 0737 6102     		.2byte	0x261
 1271 0739 95060000 		.4byte	0x695
 1272 073d 58       		.byte	0x58
 1273 073e 18       		.uleb128 0x18
 1274 073f B80A0000 		.4byte	.LASF109
 1275 0743 08       		.byte	0x8
 1276 0744 6202     		.2byte	0x262
 1277 0746 43010000 		.4byte	0x143
 1278 074a 68       		.byte	0x68
 1279 074b 18       		.uleb128 0x18
 1280 074c E6080000 		.4byte	.LASF110
 1281 0750 08       		.byte	0x8
 1282 0751 6302     		.2byte	0x263
 1283 0753 43010000 		.4byte	0x143
 1284 0757 70       		.byte	0x70
 1285 0758 18       		.uleb128 0x18
 1286 0759 CF070000 		.4byte	.LASF111
 1287 075d 08       		.byte	0x8
 1288 075e 6402     		.2byte	0x264
 1289 0760 43010000 		.4byte	0x143
 1290 0764 78       		.byte	0x78
 1291 0765 18       		.uleb128 0x18
 1292 0766 FF000000 		.4byte	.LASF112
 1293 076a 08       		.byte	0x8
 1294 076b 6502     		.2byte	0x265
 1295 076d EB070000 		.4byte	0x7eb
 1296 0771 80       		.byte	0x80
 1297 0772 18       		.uleb128 0x18
 1298 0773 4B060000 		.4byte	.LASF113
 1299 0777 08       		.byte	0x8
 1300 0778 6602     		.2byte	0x266
 1301 077a FB070000 		.4byte	0x7fb
 1302 077e 88       		.byte	0x88
 1303 077f 18       		.uleb128 0x18
 1304 0780 C40C0000 		.4byte	.LASF114
 1305 0784 08       		.byte	0x8
 1306 0785 6702     		.2byte	0x267
 1307 0787 25000000 		.4byte	0x25
 1308 078b A0       		.byte	0xa0
 1309 078c 18       		.uleb128 0x18
 1310 078d B5010000 		.4byte	.LASF115
 1311 0791 08       		.byte	0x8
ARM GAS  /tmp/ccrJKiGC.s 			page 24


 1312 0792 6802     		.2byte	0x268
 1313 0794 43010000 		.4byte	0x143
 1314 0798 A4       		.byte	0xa4
 1315 0799 18       		.uleb128 0x18
 1316 079a BC090000 		.4byte	.LASF116
 1317 079e 08       		.byte	0x8
 1318 079f 6902     		.2byte	0x269
 1319 07a1 43010000 		.4byte	0x143
 1320 07a5 AC       		.byte	0xac
 1321 07a6 18       		.uleb128 0x18
 1322 07a7 4E0C0000 		.4byte	.LASF117
 1323 07ab 08       		.byte	0x8
 1324 07ac 6A02     		.2byte	0x26a
 1325 07ae 43010000 		.4byte	0x143
 1326 07b2 B4       		.byte	0xb4
 1327 07b3 18       		.uleb128 0x18
 1328 07b4 94070000 		.4byte	.LASF118
 1329 07b8 08       		.byte	0x8
 1330 07b9 6B02     		.2byte	0x26b
 1331 07bb 43010000 		.4byte	0x143
 1332 07bf BC       		.byte	0xbc
 1333 07c0 18       		.uleb128 0x18
 1334 07c1 DF000000 		.4byte	.LASF119
 1335 07c5 08       		.byte	0x8
 1336 07c6 6C02     		.2byte	0x26c
 1337 07c8 43010000 		.4byte	0x143
 1338 07cc C4       		.byte	0xc4
 1339 07cd 18       		.uleb128 0x18
 1340 07ce 8B070000 		.4byte	.LASF120
 1341 07d2 08       		.byte	0x8
 1342 07d3 6D02     		.2byte	0x26d
 1343 07d5 25000000 		.4byte	0x25
 1344 07d9 CC       		.byte	0xcc
 1345 07da 00       		.byte	0
 1346 07db 0A       		.uleb128 0xa
 1347 07dc 61010000 		.4byte	0x161
 1348 07e0 EB070000 		.4byte	0x7eb
 1349 07e4 0B       		.uleb128 0xb
 1350 07e5 1B010000 		.4byte	0x11b
 1351 07e9 19       		.byte	0x19
 1352 07ea 00       		.byte	0
 1353 07eb 0A       		.uleb128 0xa
 1354 07ec 61010000 		.4byte	0x161
 1355 07f0 FB070000 		.4byte	0x7fb
 1356 07f4 0B       		.uleb128 0xb
 1357 07f5 1B010000 		.4byte	0x11b
 1358 07f9 07       		.byte	0x7
 1359 07fa 00       		.byte	0
 1360 07fb 0A       		.uleb128 0xa
 1361 07fc 61010000 		.4byte	0x161
 1362 0800 0B080000 		.4byte	0x80b
 1363 0804 0B       		.uleb128 0xb
 1364 0805 1B010000 		.4byte	0x11b
 1365 0809 17       		.byte	0x17
 1366 080a 00       		.byte	0
 1367 080b 1C       		.uleb128 0x1c
 1368 080c F0       		.byte	0xf0
ARM GAS  /tmp/ccrJKiGC.s 			page 25


 1369 080d 08       		.byte	0x8
 1370 080e 7202     		.2byte	0x272
 1371 0810 2F080000 		.4byte	0x82f
 1372 0814 18       		.uleb128 0x18
 1373 0815 960B0000 		.4byte	.LASF121
 1374 0819 08       		.byte	0x8
 1375 081a 7502     		.2byte	0x275
 1376 081c 2F080000 		.4byte	0x82f
 1377 0820 00       		.byte	0
 1378 0821 18       		.uleb128 0x18
 1379 0822 15070000 		.4byte	.LASF122
 1380 0826 08       		.byte	0x8
 1381 0827 7602     		.2byte	0x276
 1382 0829 3F080000 		.4byte	0x83f
 1383 082d 78       		.byte	0x78
 1384 082e 00       		.byte	0
 1385 082f 0A       		.uleb128 0xa
 1386 0830 2A030000 		.4byte	0x32a
 1387 0834 3F080000 		.4byte	0x83f
 1388 0838 0B       		.uleb128 0xb
 1389 0839 1B010000 		.4byte	0x11b
 1390 083d 1D       		.byte	0x1d
 1391 083e 00       		.byte	0
 1392 083f 0A       		.uleb128 0xa
 1393 0840 37000000 		.4byte	0x37
 1394 0844 4F080000 		.4byte	0x84f
 1395 0848 0B       		.uleb128 0xb
 1396 0849 1B010000 		.4byte	0x11b
 1397 084d 1D       		.byte	0x1d
 1398 084e 00       		.byte	0
 1399 084f 1D       		.uleb128 0x1d
 1400 0850 F0       		.byte	0xf0
 1401 0851 08       		.byte	0x8
 1402 0852 5702     		.2byte	0x257
 1403 0854 71080000 		.4byte	0x871
 1404 0858 1E       		.uleb128 0x1e
 1405 0859 0D030000 		.4byte	.LASF72
 1406 085d 08       		.byte	0x8
 1407 085e 6E02     		.2byte	0x26e
 1408 0860 DA060000 		.4byte	0x6da
 1409 0864 1E       		.uleb128 0x1e
 1410 0865 D2000000 		.4byte	.LASF123
 1411 0869 08       		.byte	0x8
 1412 086a 7702     		.2byte	0x277
 1413 086c 0B080000 		.4byte	0x80b
 1414 0870 00       		.byte	0
 1415 0871 0A       		.uleb128 0xa
 1416 0872 61010000 		.4byte	0x161
 1417 0876 81080000 		.4byte	0x881
 1418 087a 0B       		.uleb128 0xb
 1419 087b 1B010000 		.4byte	0x11b
 1420 087f 18       		.byte	0x18
 1421 0880 00       		.byte	0
 1422 0881 06       		.uleb128 0x6
 1423 0882 21000000 		.4byte	.LASF125
 1424 0886 05       		.uleb128 0x5
 1425 0887 04       		.byte	0x4
ARM GAS  /tmp/ccrJKiGC.s 			page 26


 1426 0888 81080000 		.4byte	0x881
 1427 088c 1F       		.uleb128 0x1f
 1428 088d 97080000 		.4byte	0x897
 1429 0891 16       		.uleb128 0x16
 1430 0892 78040000 		.4byte	0x478
 1431 0896 00       		.byte	0
 1432 0897 05       		.uleb128 0x5
 1433 0898 04       		.byte	0x4
 1434 0899 8C080000 		.4byte	0x88c
 1435 089d 05       		.uleb128 0x5
 1436 089e 04       		.byte	0x4
 1437 089f CB010000 		.4byte	0x1cb
 1438 08a3 1F       		.uleb128 0x1f
 1439 08a4 AE080000 		.4byte	0x8ae
 1440 08a8 16       		.uleb128 0x16
 1441 08a9 25000000 		.4byte	0x25
 1442 08ad 00       		.byte	0
 1443 08ae 05       		.uleb128 0x5
 1444 08af 04       		.byte	0x4
 1445 08b0 B4080000 		.4byte	0x8b4
 1446 08b4 05       		.uleb128 0x5
 1447 08b5 04       		.byte	0x4
 1448 08b6 A3080000 		.4byte	0x8a3
 1449 08ba 0A       		.uleb128 0xa
 1450 08bb 48060000 		.4byte	0x648
 1451 08bf CA080000 		.4byte	0x8ca
 1452 08c3 0B       		.uleb128 0xb
 1453 08c4 1B010000 		.4byte	0x11b
 1454 08c8 02       		.byte	0x2
 1455 08c9 00       		.byte	0
 1456 08ca 20       		.uleb128 0x20
 1457 08cb D8010000 		.4byte	.LASF126
 1458 08cf 08       		.byte	0x8
 1459 08d0 FE02     		.2byte	0x2fe
 1460 08d2 78040000 		.4byte	0x478
 1461 08d6 20       		.uleb128 0x20
 1462 08d7 14030000 		.4byte	.LASF127
 1463 08db 08       		.byte	0x8
 1464 08dc FF02     		.2byte	0x2ff
 1465 08de 7E040000 		.4byte	0x47e
 1466 08e2 03       		.uleb128 0x3
 1467 08e3 A0020000 		.4byte	.LASF128
 1468 08e7 09       		.byte	0x9
 1469 08e8 18       		.byte	0x18
 1470 08e9 53000000 		.4byte	0x53
 1471 08ed 0F       		.uleb128 0xf
 1472 08ee E2080000 		.4byte	0x8e2
 1473 08f2 03       		.uleb128 0x3
 1474 08f3 1D090000 		.4byte	.LASF129
 1475 08f7 09       		.byte	0x9
 1476 08f8 24       		.byte	0x24
 1477 08f9 6C000000 		.4byte	0x6c
 1478 08fd 03       		.uleb128 0x3
 1479 08fe 8C000000 		.4byte	.LASF130
 1480 0902 09       		.byte	0x9
 1481 0903 2C       		.byte	0x2c
 1482 0904 7E000000 		.4byte	0x7e
ARM GAS  /tmp/ccrJKiGC.s 			page 27


 1483 0908 1A       		.uleb128 0x1a
 1484 0909 FD080000 		.4byte	0x8fd
 1485 090d 03       		.uleb128 0x3
 1486 090e D90B0000 		.4byte	.LASF131
 1487 0912 09       		.byte	0x9
 1488 0913 30       		.byte	0x30
 1489 0914 90000000 		.4byte	0x90
 1490 0918 03       		.uleb128 0x3
 1491 0919 CF0A0000 		.4byte	.LASF132
 1492 091d 09       		.byte	0x9
 1493 091e 3C       		.byte	0x3c
 1494 091f A2000000 		.4byte	0xa2
 1495 0923 03       		.uleb128 0x3
 1496 0924 7E070000 		.4byte	.LASF133
 1497 0928 0A       		.byte	0xa
 1498 0929 27       		.byte	0x27
 1499 092a 0D090000 		.4byte	0x90d
 1500 092e 03       		.uleb128 0x3
 1501 092f 11020000 		.4byte	.LASF134
 1502 0933 0A       		.byte	0xa
 1503 0934 28       		.byte	0x28
 1504 0935 18090000 		.4byte	0x918
 1505 0939 03       		.uleb128 0x3
 1506 093a 480A0000 		.4byte	.LASF135
 1507 093e 0A       		.byte	0xa
 1508 093f 2A       		.byte	0x2a
 1509 0940 E2080000 		.4byte	0x8e2
 1510 0944 03       		.uleb128 0x3
 1511 0945 08020000 		.4byte	.LASF136
 1512 0949 0A       		.byte	0xa
 1513 094a 2B       		.byte	0x2b
 1514 094b E2080000 		.4byte	0x8e2
 1515 094f 03       		.uleb128 0x3
 1516 0950 8E0B0000 		.4byte	.LASF137
 1517 0954 0A       		.byte	0xa
 1518 0955 2C       		.byte	0x2c
 1519 0956 E2080000 		.4byte	0x8e2
 1520 095a 03       		.uleb128 0x3
 1521 095b 6B000000 		.4byte	.LASF138
 1522 095f 0A       		.byte	0xa
 1523 0960 2E       		.byte	0x2e
 1524 0961 0D090000 		.4byte	0x90d
 1525 0965 03       		.uleb128 0x3
 1526 0966 3B090000 		.4byte	.LASF139
 1527 096a 0A       		.byte	0xa
 1528 096b 2F       		.byte	0x2f
 1529 096c FD080000 		.4byte	0x8fd
 1530 0970 03       		.uleb128 0x3
 1531 0971 A8020000 		.4byte	.LASF140
 1532 0975 0A       		.byte	0xa
 1533 0976 31       		.byte	0x31
 1534 0977 0D090000 		.4byte	0x90d
 1535 097b 03       		.uleb128 0x3
 1536 097c C3040000 		.4byte	.LASF141
 1537 0980 0A       		.byte	0xa
 1538 0981 33       		.byte	0x33
 1539 0982 FD080000 		.4byte	0x8fd
ARM GAS  /tmp/ccrJKiGC.s 			page 28


 1540 0986 03       		.uleb128 0x3
 1541 0987 60060000 		.4byte	.LASF142
 1542 098b 0A       		.byte	0xa
 1543 098c 34       		.byte	0x34
 1544 098d 0D090000 		.4byte	0x90d
 1545 0991 03       		.uleb128 0x3
 1546 0992 41080000 		.4byte	.LASF143
 1547 0996 0B       		.byte	0xb
 1548 0997 34       		.byte	0x34
 1549 0998 9C090000 		.4byte	0x99c
 1550 099c 10       		.uleb128 0x10
 1551 099d E5050000 		.4byte	.LASF144
 1552 09a1 60       		.byte	0x60
 1553 09a2 0C       		.byte	0xc
 1554 09a3 8E       		.byte	0x8e
 1555 09a4 870A0000 		.4byte	0xa87
 1556 09a8 0D       		.uleb128 0xd
 1557 09a9 77090000 		.4byte	.LASF145
 1558 09ad 0C       		.byte	0xc
 1559 09ae 8F       		.byte	0x8f
 1560 09af BC0A0000 		.4byte	0xabc
 1561 09b3 00       		.byte	0
 1562 09b4 0D       		.uleb128 0xd
 1563 09b5 6B010000 		.4byte	.LASF146
 1564 09b9 0C       		.byte	0xc
 1565 09ba 90       		.byte	0x90
 1566 09bb 5A090000 		.4byte	0x95a
 1567 09bf 08       		.byte	0x8
 1568 09c0 11       		.uleb128 0x11
 1569 09c1 63747800 		.ascii	"ctx\000"
 1570 09c5 0C       		.byte	0xc
 1571 09c6 91       		.byte	0x91
 1572 09c7 250D0000 		.4byte	0xd25
 1573 09cb 0C       		.byte	0xc
 1574 09cc 0D       		.uleb128 0xd
 1575 09cd D30B0000 		.4byte	.LASF147
 1576 09d1 0C       		.byte	0xc
 1577 09d2 93       		.byte	0x93
 1578 09d3 920A0000 		.4byte	0xa92
 1579 09d7 10       		.byte	0x10
 1580 09d8 0D       		.uleb128 0xd
 1581 09d9 45060000 		.4byte	.LASF148
 1582 09dd 0C       		.byte	0xc
 1583 09de 94       		.byte	0x94
 1584 09df 920A0000 		.4byte	0xa92
 1585 09e3 14       		.byte	0x14
 1586 09e4 0D       		.uleb128 0xd
 1587 09e5 610A0000 		.4byte	.LASF149
 1588 09e9 0C       		.byte	0xc
 1589 09ea 9B       		.byte	0x9b
 1590 09eb D9050000 		.4byte	0x5d9
 1591 09ef 18       		.byte	0x18
 1592 09f0 0D       		.uleb128 0xd
 1593 09f1 1A0A0000 		.4byte	.LASF150
 1594 09f5 0C       		.byte	0xc
 1595 09f6 A4       		.byte	0xa4
 1596 09f7 0B100000 		.4byte	0x100b
ARM GAS  /tmp/ccrJKiGC.s 			page 29


 1597 09fb 1C       		.byte	0x1c
 1598 09fc 0D       		.uleb128 0xd
 1599 09fd 18010000 		.4byte	.LASF151
 1600 0a01 0C       		.byte	0xc
 1601 0a02 A9       		.byte	0xa9
 1602 0a03 44090000 		.4byte	0x944
 1603 0a07 20       		.byte	0x20
 1604 0a08 0D       		.uleb128 0xd
 1605 0a09 8E040000 		.4byte	.LASF152
 1606 0a0d 0C       		.byte	0xc
 1607 0a0e AD       		.byte	0xad
 1608 0a0f 39090000 		.4byte	0x939
 1609 0a13 21       		.byte	0x21
 1610 0a14 0D       		.uleb128 0xd
 1611 0a15 86070000 		.4byte	.LASF153
 1612 0a19 0C       		.byte	0xc
 1613 0a1a B2       		.byte	0xb2
 1614 0a1b 4F090000 		.4byte	0x94f
 1615 0a1f 22       		.byte	0x22
 1616 0a20 21       		.uleb128 0x21
 1617 0a21 7500     		.ascii	"u\000"
 1618 0a23 0C       		.byte	0xc
 1619 0a24 0301     		.2byte	0x103
 1620 0a26 410F0000 		.4byte	0xf41
 1621 0a2a 24       		.byte	0x24
 1622 0a2b 18       		.uleb128 0x18
 1623 0a2c 590B0000 		.4byte	.LASF154
 1624 0a30 0C       		.byte	0xc
 1625 0a31 0801     		.2byte	0x108
 1626 0a33 980A0000 		.4byte	0xa98
 1627 0a37 28       		.byte	0x28
 1628 0a38 18       		.uleb128 0x18
 1629 0a39 FC0A0000 		.4byte	.LASF155
 1630 0a3d 0C       		.byte	0xc
 1631 0a3e 0E01     		.2byte	0x10e
 1632 0a40 BC0A0000 		.4byte	0xabc
 1633 0a44 2C       		.byte	0x2c
 1634 0a45 18       		.uleb128 0x18
 1635 0a46 7D090000 		.4byte	.LASF156
 1636 0a4a 0C       		.byte	0xc
 1637 0a4b 1401     		.2byte	0x114
 1638 0a4d 70090000 		.4byte	0x970
 1639 0a51 34       		.byte	0x34
 1640 0a52 18       		.uleb128 0x18
 1641 0a53 CF060000 		.4byte	.LASF157
 1642 0a57 0C       		.byte	0xc
 1643 0a58 1B01     		.2byte	0x11b
 1644 0a5a 05100000 		.4byte	0x1005
 1645 0a5e 38       		.byte	0x38
 1646 0a5f 18       		.uleb128 0x18
 1647 0a60 57060000 		.4byte	.LASF158
 1648 0a64 0C       		.byte	0xc
 1649 0a65 1F01     		.2byte	0x11f
 1650 0a67 5A090000 		.4byte	0x95a
 1651 0a6b 3C       		.byte	0x3c
 1652 0a6c 18       		.uleb128 0x18
 1653 0a6d A6040000 		.4byte	.LASF159
ARM GAS  /tmp/ccrJKiGC.s 			page 30


 1654 0a71 0C       		.byte	0xc
 1655 0a72 2601     		.2byte	0x126
 1656 0a74 59010000 		.4byte	0x159
 1657 0a78 40       		.byte	0x40
 1658 0a79 18       		.uleb128 0x18
 1659 0a7a 24010000 		.4byte	.LASF160
 1660 0a7e 0C       		.byte	0xc
 1661 0a7f 2C01     		.2byte	0x12c
 1662 0a81 F20E0000 		.4byte	0xef2
 1663 0a85 48       		.byte	0x48
 1664 0a86 00       		.byte	0
 1665 0a87 03       		.uleb128 0x3
 1666 0a88 07080000 		.4byte	.LASF161
 1667 0a8c 0B       		.byte	0xb
 1668 0a8d 39       		.byte	0x39
 1669 0a8e 920A0000 		.4byte	0xa92
 1670 0a92 05       		.uleb128 0x5
 1671 0a93 04       		.byte	0x4
 1672 0a94 91090000 		.4byte	0x991
 1673 0a98 03       		.uleb128 0x3
 1674 0a99 AA0B0000 		.4byte	.LASF162
 1675 0a9d 0B       		.byte	0xb
 1676 0a9e 3E       		.byte	0x3e
 1677 0a9f A30A0000 		.4byte	0xaa3
 1678 0aa3 10       		.uleb128 0x10
 1679 0aa4 88060000 		.4byte	.LASF163
 1680 0aa8 04       		.byte	0x4
 1681 0aa9 0C       		.byte	0xc
 1682 0aaa 7C       		.byte	0x7c
 1683 0aab BC0A0000 		.4byte	0xabc
 1684 0aaf 0D       		.uleb128 0xd
 1685 0ab0 9F0C0000 		.4byte	.LASF164
 1686 0ab4 0C       		.byte	0xc
 1687 0ab5 7D       		.byte	0x7d
 1688 0ab6 920A0000 		.4byte	0xa92
 1689 0aba 00       		.byte	0
 1690 0abb 00       		.byte	0
 1691 0abc 03       		.uleb128 0x3
 1692 0abd 1A020000 		.4byte	.LASF165
 1693 0ac1 0B       		.byte	0xb
 1694 0ac2 45       		.byte	0x45
 1695 0ac3 C70A0000 		.4byte	0xac7
 1696 0ac7 10       		.uleb128 0x10
 1697 0ac8 41090000 		.4byte	.LASF166
 1698 0acc 08       		.byte	0x8
 1699 0acd 0C       		.byte	0xc
 1700 0ace 83       		.byte	0x83
 1701 0acf EC0A0000 		.4byte	0xaec
 1702 0ad3 0D       		.uleb128 0xd
 1703 0ad4 9F0C0000 		.4byte	.LASF164
 1704 0ad8 0C       		.byte	0xc
 1705 0ad9 84       		.byte	0x84
 1706 0ada 920A0000 		.4byte	0xa92
 1707 0ade 00       		.byte	0
 1708 0adf 0D       		.uleb128 0xd
 1709 0ae0 5F0C0000 		.4byte	.LASF167
 1710 0ae4 0C       		.byte	0xc
ARM GAS  /tmp/ccrJKiGC.s 			page 31


 1711 0ae5 85       		.byte	0x85
 1712 0ae6 920A0000 		.4byte	0xa92
 1713 0aea 04       		.byte	0x4
 1714 0aeb 00       		.byte	0
 1715 0aec 03       		.uleb128 0x3
 1716 0aed 38060000 		.4byte	.LASF168
 1717 0af1 0B       		.byte	0xb
 1718 0af2 4C       		.byte	0x4c
 1719 0af3 F70A0000 		.4byte	0xaf7
 1720 0af7 1B       		.uleb128 0x1b
 1721 0af8 DD040000 		.4byte	.LASF169
 1722 0afc 1C       		.byte	0x1c
 1723 0afd 0C       		.byte	0xc
 1724 0afe 5E01     		.2byte	0x15e
 1725 0b00 530B0000 		.4byte	0xb53
 1726 0b04 18       		.uleb128 0x18
 1727 0b05 77090000 		.4byte	.LASF145
 1728 0b09 0C       		.byte	0xc
 1729 0b0a 5F01     		.2byte	0x15f
 1730 0b0c BC0A0000 		.4byte	0xabc
 1731 0b10 00       		.byte	0
 1732 0b11 18       		.uleb128 0x18
 1733 0b12 6B010000 		.4byte	.LASF146
 1734 0b16 0C       		.byte	0xc
 1735 0b17 6001     		.2byte	0x160
 1736 0b19 5A090000 		.4byte	0x95a
 1737 0b1d 08       		.byte	0x8
 1738 0b1e 21       		.uleb128 0x21
 1739 0b1f 63747800 		.ascii	"ctx\000"
 1740 0b23 0C       		.byte	0xc
 1741 0b24 6201     		.2byte	0x162
 1742 0b26 250D0000 		.4byte	0xd25
 1743 0b2a 0C       		.byte	0xc
 1744 0b2b 18       		.uleb128 0x18
 1745 0b2c D30B0000 		.4byte	.LASF147
 1746 0b30 0C       		.byte	0xc
 1747 0b31 6501     		.2byte	0x165
 1748 0b33 920A0000 		.4byte	0xa92
 1749 0b37 10       		.byte	0x10
 1750 0b38 18       		.uleb128 0x18
 1751 0b39 45060000 		.4byte	.LASF148
 1752 0b3d 0C       		.byte	0xc
 1753 0b3e 6601     		.2byte	0x166
 1754 0b40 920A0000 		.4byte	0xa92
 1755 0b44 14       		.byte	0x14
 1756 0b45 18       		.uleb128 0x18
 1757 0b46 E6070000 		.4byte	.LASF170
 1758 0b4a 0C       		.byte	0xc
 1759 0b4b 6901     		.2byte	0x169
 1760 0b4d 920A0000 		.4byte	0xa92
 1761 0b51 18       		.byte	0x18
 1762 0b52 00       		.byte	0
 1763 0b53 03       		.uleb128 0x3
 1764 0b54 A9000000 		.4byte	.LASF171
 1765 0b58 0B       		.byte	0xb
 1766 0b59 51       		.byte	0x51
 1767 0b5a 5E0B0000 		.4byte	0xb5e
ARM GAS  /tmp/ccrJKiGC.s 			page 32


 1768 0b5e 05       		.uleb128 0x5
 1769 0b5f 04       		.byte	0x4
 1770 0b60 640B0000 		.4byte	0xb64
 1771 0b64 1F       		.uleb128 0x1f
 1772 0b65 6F0B0000 		.4byte	0xb6f
 1773 0b69 16       		.uleb128 0x16
 1774 0b6a 59010000 		.4byte	0x159
 1775 0b6e 00       		.byte	0
 1776 0b6f 03       		.uleb128 0x3
 1777 0b70 28060000 		.4byte	.LASF172
 1778 0b74 0B       		.byte	0xb
 1779 0b75 56       		.byte	0x56
 1780 0b76 7A0B0000 		.4byte	0xb7a
 1781 0b7a 1B       		.uleb128 0x1b
 1782 0b7b D5080000 		.4byte	.LASF173
 1783 0b7f 14       		.byte	0x14
 1784 0b80 0C       		.byte	0xc
 1785 0b81 3901     		.2byte	0x139
 1786 0b83 C90B0000 		.4byte	0xbc9
 1787 0b87 18       		.uleb128 0x18
 1788 0b88 9F0C0000 		.4byte	.LASF164
 1789 0b8c 0C       		.byte	0xc
 1790 0b8d 3A01     		.2byte	0x13a
 1791 0b8f 11100000 		.4byte	0x1011
 1792 0b93 00       		.byte	0
 1793 0b94 18       		.uleb128 0x18
 1794 0b95 5F0C0000 		.4byte	.LASF167
 1795 0b99 0C       		.byte	0xc
 1796 0b9a 3B01     		.2byte	0x13b
 1797 0b9c 11100000 		.4byte	0x1011
 1798 0ba0 04       		.byte	0x4
 1799 0ba1 18       		.uleb128 0x18
 1800 0ba2 62090000 		.4byte	.LASF174
 1801 0ba6 0C       		.byte	0xc
 1802 0ba7 3C01     		.2byte	0x13c
 1803 0ba9 AD0C0000 		.4byte	0xcad
 1804 0bad 08       		.byte	0x8
 1805 0bae 18       		.uleb128 0x18
 1806 0baf D80A0000 		.4byte	.LASF175
 1807 0bb3 0C       		.byte	0xc
 1808 0bb4 3D01     		.2byte	0x13d
 1809 0bb6 530B0000 		.4byte	0xb53
 1810 0bba 0C       		.byte	0xc
 1811 0bbb 21       		.uleb128 0x21
 1812 0bbc 70617200 		.ascii	"par\000"
 1813 0bc0 0C       		.byte	0xc
 1814 0bc1 3F01     		.2byte	0x13f
 1815 0bc3 59010000 		.4byte	0x159
 1816 0bc7 10       		.byte	0x10
 1817 0bc8 00       		.byte	0
 1818 0bc9 03       		.uleb128 0x3
 1819 0bca EF050000 		.4byte	.LASF176
 1820 0bce 0B       		.byte	0xb
 1821 0bcf 5B       		.byte	0x5b
 1822 0bd0 D40B0000 		.4byte	0xbd4
 1823 0bd4 1B       		.uleb128 0x1b
 1824 0bd5 BB000000 		.4byte	.LASF177
ARM GAS  /tmp/ccrJKiGC.s 			page 33


 1825 0bd9 10       		.byte	0x10
 1826 0bda 0C       		.byte	0xc
 1827 0bdb 4901     		.2byte	0x149
 1828 0bdd 160C0000 		.4byte	0xc16
 1829 0be1 18       		.uleb128 0x18
 1830 0be2 9F0C0000 		.4byte	.LASF164
 1831 0be6 0C       		.byte	0xc
 1832 0be7 4A01     		.2byte	0x14a
 1833 0be9 11100000 		.4byte	0x1011
 1834 0bed 00       		.byte	0
 1835 0bee 18       		.uleb128 0x18
 1836 0bef 5F0C0000 		.4byte	.LASF167
 1837 0bf3 0C       		.byte	0xc
 1838 0bf4 4C01     		.2byte	0x14c
 1839 0bf6 11100000 		.4byte	0x1011
 1840 0bfa 04       		.byte	0x4
 1841 0bfb 18       		.uleb128 0x18
 1842 0bfc 62090000 		.4byte	.LASF174
 1843 0c00 0C       		.byte	0xc
 1844 0c01 4E01     		.2byte	0x14e
 1845 0c03 AD0C0000 		.4byte	0xcad
 1846 0c07 08       		.byte	0x8
 1847 0c08 18       		.uleb128 0x18
 1848 0c09 E1020000 		.4byte	.LASF178
 1849 0c0d 0C       		.byte	0xc
 1850 0c0e 5601     		.2byte	0x156
 1851 0c10 A20C0000 		.4byte	0xca2
 1852 0c14 0C       		.byte	0xc
 1853 0c15 00       		.byte	0
 1854 0c16 03       		.uleb128 0x3
 1855 0c17 27030000 		.4byte	.LASF179
 1856 0c1b 0B       		.byte	0xb
 1857 0c1c 60       		.byte	0x60
 1858 0c1d 210C0000 		.4byte	0xc21
 1859 0c21 1B       		.uleb128 0x1b
 1860 0c22 0E0B0000 		.4byte	.LASF180
 1861 0c26 04       		.byte	0x4
 1862 0c27 0C       		.byte	0xc
 1863 0c28 7001     		.2byte	0x170
 1864 0c2a 3C0C0000 		.4byte	0xc3c
 1865 0c2e 18       		.uleb128 0x18
 1866 0c2f EA020000 		.4byte	.LASF181
 1867 0c33 0C       		.byte	0xc
 1868 0c34 7801     		.2byte	0x178
 1869 0c36 DF050000 		.4byte	0x5df
 1870 0c3a 00       		.byte	0
 1871 0c3b 00       		.byte	0
 1872 0c3c 03       		.uleb128 0x3
 1873 0c3d 230C0000 		.4byte	.LASF182
 1874 0c41 0B       		.byte	0xb
 1875 0c42 65       		.byte	0x65
 1876 0c43 470C0000 		.4byte	0xc47
 1877 0c47 1B       		.uleb128 0x1b
 1878 0c48 B90B0000 		.4byte	.LASF183
 1879 0c4c D0       		.byte	0xd0
 1880 0c4d 0C       		.byte	0xc
 1881 0c4e 9001     		.2byte	0x190
ARM GAS  /tmp/ccrJKiGC.s 			page 34


 1882 0c50 A20C0000 		.4byte	0xca2
 1883 0c54 18       		.uleb128 0x18
 1884 0c55 420A0000 		.4byte	.LASF184
 1885 0c59 0C       		.byte	0xc
 1886 0c5a 9401     		.2byte	0x194
 1887 0c5c EC0A0000 		.4byte	0xaec
 1888 0c60 00       		.byte	0
 1889 0c61 18       		.uleb128 0x18
 1890 0c62 480B0000 		.4byte	.LASF185
 1891 0c66 0C       		.byte	0xc
 1892 0c67 9801     		.2byte	0x198
 1893 0c69 C90B0000 		.4byte	0xbc9
 1894 0c6d 1C       		.byte	0x1c
 1895 0c6e 21       		.uleb128 0x21
 1896 0c6f 64626700 		.ascii	"dbg\000"
 1897 0c73 0C       		.byte	0xc
 1898 0c74 9C01     		.2byte	0x19c
 1899 0c76 160C0000 		.4byte	0xc16
 1900 0c7a 2C       		.byte	0x2c
 1901 0c7b 18       		.uleb128 0x18
 1902 0c7c D4090000 		.4byte	.LASF186
 1903 0c80 0C       		.byte	0xc
 1904 0c81 A001     		.2byte	0x1a0
 1905 0c83 91090000 		.4byte	0x991
 1906 0c87 30       		.byte	0x30
 1907 0c88 21       		.uleb128 0x21
 1908 0c89 746D00   		.ascii	"tm\000"
 1909 0c8c 0C       		.byte	0xc
 1910 0c8d A501     		.2byte	0x1a5
 1911 0c8f A40E0000 		.4byte	0xea4
 1912 0c93 90       		.byte	0x90
 1913 0c94 18       		.uleb128 0x18
 1914 0c95 F4080000 		.4byte	.LASF187
 1915 0c99 0C       		.byte	0xc
 1916 0c9a AB01     		.2byte	0x1ab
 1917 0c9c 360F0000 		.4byte	0xf36
 1918 0ca0 98       		.byte	0x98
 1919 0ca1 00       		.byte	0
 1920 0ca2 03       		.uleb128 0x3
 1921 0ca3 34000000 		.4byte	.LASF188
 1922 0ca7 0D       		.byte	0xd
 1923 0ca8 6D       		.byte	0x6d
 1924 0ca9 0D090000 		.4byte	0x90d
 1925 0cad 03       		.uleb128 0x3
 1926 0cae E5060000 		.4byte	.LASF189
 1927 0cb2 0D       		.byte	0xd
 1928 0cb3 79       		.byte	0x79
 1929 0cb4 0D090000 		.4byte	0x90d
 1930 0cb8 20       		.uleb128 0x20
 1931 0cb9 49070000 		.4byte	.LASF190
 1932 0cbd 0E       		.byte	0xe
 1933 0cbe 0408     		.2byte	0x804
 1934 0cc0 08090000 		.4byte	0x908
 1935 0cc4 22       		.uleb128 0x22
 1936 0cc5 C8050000 		.4byte	.LASF191
 1937 0cc9 0F       		.byte	0xf
 1938 0cca 4C       		.byte	0x4c
ARM GAS  /tmp/ccrJKiGC.s 			page 35


 1939 0ccb 0D090000 		.4byte	0x90d
 1940 0ccf 0A       		.uleb128 0xa
 1941 0cd0 ED080000 		.4byte	0x8ed
 1942 0cd4 DF0C0000 		.4byte	0xcdf
 1943 0cd8 0B       		.uleb128 0xb
 1944 0cd9 1B010000 		.4byte	0x11b
 1945 0cdd 0F       		.byte	0xf
 1946 0cde 00       		.byte	0
 1947 0cdf 0F       		.uleb128 0xf
 1948 0ce0 CF0C0000 		.4byte	0xccf
 1949 0ce4 22       		.uleb128 0x22
 1950 0ce5 C7080000 		.4byte	.LASF192
 1951 0ce9 0F       		.byte	0xf
 1952 0cea 4E       		.byte	0x4e
 1953 0ceb DF0C0000 		.4byte	0xcdf
 1954 0cef 0A       		.uleb128 0xa
 1955 0cf0 ED080000 		.4byte	0x8ed
 1956 0cf4 FF0C0000 		.4byte	0xcff
 1957 0cf8 0B       		.uleb128 0xb
 1958 0cf9 1B010000 		.4byte	0x11b
 1959 0cfd 07       		.byte	0x7
 1960 0cfe 00       		.byte	0
 1961 0cff 0F       		.uleb128 0xf
 1962 0d00 EF0C0000 		.4byte	0xcef
 1963 0d04 22       		.uleb128 0x22
 1964 0d05 AA0A0000 		.4byte	.LASF193
 1965 0d09 0F       		.byte	0xf
 1966 0d0a 4F       		.byte	0x4f
 1967 0d0b FF0C0000 		.4byte	0xcff
 1968 0d0f 03       		.uleb128 0x3
 1969 0d10 2A020000 		.4byte	.LASF194
 1970 0d14 10       		.byte	0x10
 1971 0d15 65       		.byte	0x65
 1972 0d16 59010000 		.4byte	0x159
 1973 0d1a 03       		.uleb128 0x3
 1974 0d1b 94040000 		.4byte	.LASF195
 1975 0d1f 10       		.byte	0x10
 1976 0d20 6D       		.byte	0x6d
 1977 0d21 18090000 		.4byte	0x918
 1978 0d25 10       		.uleb128 0x10
 1979 0d26 9D0B0000 		.4byte	.LASF196
 1980 0d2a 04       		.byte	0x4
 1981 0d2b 10       		.byte	0x10
 1982 0d2c 89       		.byte	0x89
 1983 0d2d 3D0D0000 		.4byte	0xd3d
 1984 0d31 11       		.uleb128 0x11
 1985 0d32 737000   		.ascii	"sp\000"
 1986 0d35 10       		.byte	0x10
 1987 0d36 8A       		.byte	0x8a
 1988 0d37 890E0000 		.4byte	0xe89
 1989 0d3b 00       		.byte	0
 1990 0d3c 00       		.byte	0
 1991 0d3d 1B       		.uleb128 0x1b
 1992 0d3e 68080000 		.4byte	.LASF197
 1993 0d42 64       		.byte	0x64
 1994 0d43 11       		.byte	0x11
 1995 0d44 5901     		.2byte	0x159
ARM GAS  /tmp/ccrJKiGC.s 			page 36


 1996 0d46 890E0000 		.4byte	0xe89
 1997 0d4a 21       		.uleb128 0x21
 1998 0d4b 73313600 		.ascii	"s16\000"
 1999 0d4f 11       		.byte	0x11
 2000 0d50 5B01     		.2byte	0x15b
 2001 0d52 0F0D0000 		.4byte	0xd0f
 2002 0d56 00       		.byte	0
 2003 0d57 21       		.uleb128 0x21
 2004 0d58 73313700 		.ascii	"s17\000"
 2005 0d5c 11       		.byte	0x11
 2006 0d5d 5C01     		.2byte	0x15c
 2007 0d5f 0F0D0000 		.4byte	0xd0f
 2008 0d63 04       		.byte	0x4
 2009 0d64 21       		.uleb128 0x21
 2010 0d65 73313800 		.ascii	"s18\000"
 2011 0d69 11       		.byte	0x11
 2012 0d6a 5D01     		.2byte	0x15d
 2013 0d6c 0F0D0000 		.4byte	0xd0f
 2014 0d70 08       		.byte	0x8
 2015 0d71 21       		.uleb128 0x21
 2016 0d72 73313900 		.ascii	"s19\000"
 2017 0d76 11       		.byte	0x11
 2018 0d77 5E01     		.2byte	0x15e
 2019 0d79 0F0D0000 		.4byte	0xd0f
 2020 0d7d 0C       		.byte	0xc
 2021 0d7e 21       		.uleb128 0x21
 2022 0d7f 73323000 		.ascii	"s20\000"
 2023 0d83 11       		.byte	0x11
 2024 0d84 5F01     		.2byte	0x15f
 2025 0d86 0F0D0000 		.4byte	0xd0f
 2026 0d8a 10       		.byte	0x10
 2027 0d8b 21       		.uleb128 0x21
 2028 0d8c 73323100 		.ascii	"s21\000"
 2029 0d90 11       		.byte	0x11
 2030 0d91 6001     		.2byte	0x160
 2031 0d93 0F0D0000 		.4byte	0xd0f
 2032 0d97 14       		.byte	0x14
 2033 0d98 21       		.uleb128 0x21
 2034 0d99 73323200 		.ascii	"s22\000"
 2035 0d9d 11       		.byte	0x11
 2036 0d9e 6101     		.2byte	0x161
 2037 0da0 0F0D0000 		.4byte	0xd0f
 2038 0da4 18       		.byte	0x18
 2039 0da5 21       		.uleb128 0x21
 2040 0da6 73323300 		.ascii	"s23\000"
 2041 0daa 11       		.byte	0x11
 2042 0dab 6201     		.2byte	0x162
 2043 0dad 0F0D0000 		.4byte	0xd0f
 2044 0db1 1C       		.byte	0x1c
 2045 0db2 21       		.uleb128 0x21
 2046 0db3 73323400 		.ascii	"s24\000"
 2047 0db7 11       		.byte	0x11
 2048 0db8 6301     		.2byte	0x163
 2049 0dba 0F0D0000 		.4byte	0xd0f
 2050 0dbe 20       		.byte	0x20
 2051 0dbf 21       		.uleb128 0x21
 2052 0dc0 73323500 		.ascii	"s25\000"
ARM GAS  /tmp/ccrJKiGC.s 			page 37


 2053 0dc4 11       		.byte	0x11
 2054 0dc5 6401     		.2byte	0x164
 2055 0dc7 0F0D0000 		.4byte	0xd0f
 2056 0dcb 24       		.byte	0x24
 2057 0dcc 21       		.uleb128 0x21
 2058 0dcd 73323600 		.ascii	"s26\000"
 2059 0dd1 11       		.byte	0x11
 2060 0dd2 6501     		.2byte	0x165
 2061 0dd4 0F0D0000 		.4byte	0xd0f
 2062 0dd8 28       		.byte	0x28
 2063 0dd9 21       		.uleb128 0x21
 2064 0dda 73323700 		.ascii	"s27\000"
 2065 0dde 11       		.byte	0x11
 2066 0ddf 6601     		.2byte	0x166
 2067 0de1 0F0D0000 		.4byte	0xd0f
 2068 0de5 2C       		.byte	0x2c
 2069 0de6 21       		.uleb128 0x21
 2070 0de7 73323800 		.ascii	"s28\000"
 2071 0deb 11       		.byte	0x11
 2072 0dec 6701     		.2byte	0x167
 2073 0dee 0F0D0000 		.4byte	0xd0f
 2074 0df2 30       		.byte	0x30
 2075 0df3 21       		.uleb128 0x21
 2076 0df4 73323900 		.ascii	"s29\000"
 2077 0df8 11       		.byte	0x11
 2078 0df9 6801     		.2byte	0x168
 2079 0dfb 0F0D0000 		.4byte	0xd0f
 2080 0dff 34       		.byte	0x34
 2081 0e00 21       		.uleb128 0x21
 2082 0e01 73333000 		.ascii	"s30\000"
 2083 0e05 11       		.byte	0x11
 2084 0e06 6901     		.2byte	0x169
 2085 0e08 0F0D0000 		.4byte	0xd0f
 2086 0e0c 38       		.byte	0x38
 2087 0e0d 21       		.uleb128 0x21
 2088 0e0e 73333100 		.ascii	"s31\000"
 2089 0e12 11       		.byte	0x11
 2090 0e13 6A01     		.2byte	0x16a
 2091 0e15 0F0D0000 		.4byte	0xd0f
 2092 0e19 3C       		.byte	0x3c
 2093 0e1a 21       		.uleb128 0x21
 2094 0e1b 723400   		.ascii	"r4\000"
 2095 0e1e 11       		.byte	0x11
 2096 0e1f 6C01     		.2byte	0x16c
 2097 0e21 0F0D0000 		.4byte	0xd0f
 2098 0e25 40       		.byte	0x40
 2099 0e26 21       		.uleb128 0x21
 2100 0e27 723500   		.ascii	"r5\000"
 2101 0e2a 11       		.byte	0x11
 2102 0e2b 6D01     		.2byte	0x16d
 2103 0e2d 0F0D0000 		.4byte	0xd0f
 2104 0e31 44       		.byte	0x44
 2105 0e32 21       		.uleb128 0x21
 2106 0e33 723600   		.ascii	"r6\000"
 2107 0e36 11       		.byte	0x11
 2108 0e37 6E01     		.2byte	0x16e
 2109 0e39 0F0D0000 		.4byte	0xd0f
ARM GAS  /tmp/ccrJKiGC.s 			page 38


 2110 0e3d 48       		.byte	0x48
 2111 0e3e 21       		.uleb128 0x21
 2112 0e3f 723700   		.ascii	"r7\000"
 2113 0e42 11       		.byte	0x11
 2114 0e43 6F01     		.2byte	0x16f
 2115 0e45 0F0D0000 		.4byte	0xd0f
 2116 0e49 4C       		.byte	0x4c
 2117 0e4a 21       		.uleb128 0x21
 2118 0e4b 723800   		.ascii	"r8\000"
 2119 0e4e 11       		.byte	0x11
 2120 0e4f 7001     		.2byte	0x170
 2121 0e51 0F0D0000 		.4byte	0xd0f
 2122 0e55 50       		.byte	0x50
 2123 0e56 21       		.uleb128 0x21
 2124 0e57 723900   		.ascii	"r9\000"
 2125 0e5a 11       		.byte	0x11
 2126 0e5b 7101     		.2byte	0x171
 2127 0e5d 0F0D0000 		.4byte	0xd0f
 2128 0e61 54       		.byte	0x54
 2129 0e62 21       		.uleb128 0x21
 2130 0e63 72313000 		.ascii	"r10\000"
 2131 0e67 11       		.byte	0x11
 2132 0e68 7201     		.2byte	0x172
 2133 0e6a 0F0D0000 		.4byte	0xd0f
 2134 0e6e 58       		.byte	0x58
 2135 0e6f 21       		.uleb128 0x21
 2136 0e70 72313100 		.ascii	"r11\000"
 2137 0e74 11       		.byte	0x11
 2138 0e75 7301     		.2byte	0x173
 2139 0e77 0F0D0000 		.4byte	0xd0f
 2140 0e7b 5C       		.byte	0x5c
 2141 0e7c 21       		.uleb128 0x21
 2142 0e7d 6C7200   		.ascii	"lr\000"
 2143 0e80 11       		.byte	0x11
 2144 0e81 7401     		.2byte	0x174
 2145 0e83 0F0D0000 		.4byte	0xd0f
 2146 0e87 60       		.byte	0x60
 2147 0e88 00       		.byte	0
 2148 0e89 05       		.uleb128 0x5
 2149 0e8a 04       		.byte	0x4
 2150 0e8b 3D0D0000 		.4byte	0xd3d
 2151 0e8f 0C       		.uleb128 0xc
 2152 0e90 04       		.byte	0x4
 2153 0e91 12       		.byte	0x12
 2154 0e92 38       		.byte	0x38
 2155 0e93 A40E0000 		.4byte	0xea4
 2156 0e97 0D       		.uleb128 0xd
 2157 0e98 00080000 		.4byte	.LASF198
 2158 0e9c 12       		.byte	0x12
 2159 0e9d 3C       		.byte	0x3c
 2160 0e9e 23090000 		.4byte	0x923
 2161 0ea2 00       		.byte	0
 2162 0ea3 00       		.byte	0
 2163 0ea4 03       		.uleb128 0x3
 2164 0ea5 500A0000 		.4byte	.LASF199
 2165 0ea9 12       		.byte	0x12
 2166 0eaa 3D       		.byte	0x3d
ARM GAS  /tmp/ccrJKiGC.s 			page 39


 2167 0eab 8F0E0000 		.4byte	0xe8f
 2168 0eaf 0C       		.uleb128 0xc
 2169 0eb0 18       		.byte	0x18
 2170 0eb1 12       		.byte	0x12
 2171 0eb2 48       		.byte	0x48
 2172 0eb3 F20E0000 		.4byte	0xef2
 2173 0eb7 0D       		.uleb128 0xd
 2174 0eb8 050A0000 		.4byte	.LASF200
 2175 0ebc 12       		.byte	0x12
 2176 0ebd 49       		.byte	0x49
 2177 0ebe 23090000 		.4byte	0x923
 2178 0ec2 00       		.byte	0
 2179 0ec3 0D       		.uleb128 0xd
 2180 0ec4 AC040000 		.4byte	.LASF201
 2181 0ec8 12       		.byte	0x12
 2182 0ec9 4A       		.byte	0x4a
 2183 0eca 23090000 		.4byte	0x923
 2184 0ece 04       		.byte	0x4
 2185 0ecf 0D       		.uleb128 0xd
 2186 0ed0 D80C0000 		.4byte	.LASF202
 2187 0ed4 12       		.byte	0x12
 2188 0ed5 4B       		.byte	0x4b
 2189 0ed6 23090000 		.4byte	0x923
 2190 0eda 08       		.byte	0x8
 2191 0edb 11       		.uleb128 0x11
 2192 0edc 6E00     		.ascii	"n\000"
 2193 0ede 12       		.byte	0x12
 2194 0edf 4C       		.byte	0x4c
 2195 0ee0 86090000 		.4byte	0x986
 2196 0ee4 0C       		.byte	0xc
 2197 0ee5 0D       		.uleb128 0xd
 2198 0ee6 42050000 		.4byte	.LASF203
 2199 0eea 12       		.byte	0x12
 2200 0eeb 4D       		.byte	0x4d
 2201 0eec 2E090000 		.4byte	0x92e
 2202 0ef0 10       		.byte	0x10
 2203 0ef1 00       		.byte	0
 2204 0ef2 03       		.uleb128 0x3
 2205 0ef3 4E010000 		.4byte	.LASF204
 2206 0ef7 12       		.byte	0x12
 2207 0ef8 4E       		.byte	0x4e
 2208 0ef9 AF0E0000 		.4byte	0xeaf
 2209 0efd 0C       		.uleb128 0xc
 2210 0efe 38       		.byte	0x38
 2211 0eff 13       		.byte	0x13
 2212 0f00 38       		.byte	0x38
 2213 0f01 360F0000 		.4byte	0xf36
 2214 0f05 0D       		.uleb128 0xd
 2215 0f06 A0060000 		.4byte	.LASF205
 2216 0f0a 13       		.byte	0x13
 2217 0f0b 39       		.byte	0x39
 2218 0f0c 86090000 		.4byte	0x986
 2219 0f10 00       		.byte	0
 2220 0f11 0D       		.uleb128 0xd
 2221 0f12 68030000 		.4byte	.LASF206
 2222 0f16 13       		.byte	0x13
 2223 0f17 3A       		.byte	0x3a
ARM GAS  /tmp/ccrJKiGC.s 			page 40


 2224 0f18 86090000 		.4byte	0x986
 2225 0f1c 04       		.byte	0x4
 2226 0f1d 0D       		.uleb128 0xd
 2227 0f1e 55050000 		.4byte	.LASF207
 2228 0f22 13       		.byte	0x13
 2229 0f23 3B       		.byte	0x3b
 2230 0f24 F20E0000 		.4byte	0xef2
 2231 0f28 08       		.byte	0x8
 2232 0f29 0D       		.uleb128 0xd
 2233 0f2a 66070000 		.4byte	.LASF208
 2234 0f2e 13       		.byte	0x13
 2235 0f2f 3D       		.byte	0x3d
 2236 0f30 F20E0000 		.4byte	0xef2
 2237 0f34 20       		.byte	0x20
 2238 0f35 00       		.byte	0
 2239 0f36 03       		.uleb128 0x3
 2240 0f37 AD070000 		.4byte	.LASF209
 2241 0f3b 13       		.byte	0x13
 2242 0f3c 3F       		.byte	0x3f
 2243 0f3d FD0E0000 		.4byte	0xefd
 2244 0f41 08       		.uleb128 0x8
 2245 0f42 04       		.byte	0x4
 2246 0f43 0C       		.byte	0xc
 2247 0f44 C6       		.byte	0xc6
 2248 0f45 A30F0000 		.4byte	0xfa3
 2249 0f49 09       		.uleb128 0x9
 2250 0f4a FA0B0000 		.4byte	.LASF210
 2251 0f4e 0C       		.byte	0xc
 2252 0f4f CD       		.byte	0xcd
 2253 0f50 65090000 		.4byte	0x965
 2254 0f54 09       		.uleb128 0x9
 2255 0f55 87010000 		.4byte	.LASF211
 2256 0f59 0C       		.byte	0xc
 2257 0f5a D4       		.byte	0xd4
 2258 0f5b 65090000 		.4byte	0x965
 2259 0f5f 09       		.uleb128 0x9
 2260 0f60 61030000 		.4byte	.LASF212
 2261 0f64 0C       		.byte	0xc
 2262 0f65 DB       		.byte	0xdb
 2263 0f66 59010000 		.4byte	0x159
 2264 0f6a 09       		.uleb128 0x9
 2265 0f6b B4020000 		.4byte	.LASF213
 2266 0f6f 0C       		.byte	0xc
 2267 0f70 E2       		.byte	0xe2
 2268 0f71 A30F0000 		.4byte	0xfa3
 2269 0f75 09       		.uleb128 0x9
 2270 0f76 60080000 		.4byte	.LASF214
 2271 0f7a 0C       		.byte	0xc
 2272 0f7b E7       		.byte	0xe7
 2273 0f7c 65090000 		.4byte	0x965
 2274 0f80 09       		.uleb128 0x9
 2275 0f81 D10C0000 		.4byte	.LASF215
 2276 0f85 0C       		.byte	0xc
 2277 0f86 F0       		.byte	0xf0
 2278 0f87 CE0F0000 		.4byte	0xfce
 2279 0f8b 09       		.uleb128 0x9
 2280 0f8c D1040000 		.4byte	.LASF216
ARM GAS  /tmp/ccrJKiGC.s 			page 41


 2281 0f90 0C       		.byte	0xc
 2282 0f91 F9       		.byte	0xf9
 2283 0f92 05100000 		.4byte	0x1005
 2284 0f96 1E       		.uleb128 0x1e
 2285 0f97 99020000 		.4byte	.LASF217
 2286 0f9b 0C       		.byte	0xc
 2287 0f9c 0101     		.2byte	0x101
 2288 0f9e 70090000 		.4byte	0x970
 2289 0fa2 00       		.byte	0
 2290 0fa3 05       		.uleb128 0x5
 2291 0fa4 04       		.byte	0x4
 2292 0fa5 870A0000 		.4byte	0xa87
 2293 0fa9 10       		.uleb128 0x10
 2294 0faa D8050000 		.4byte	.LASF218
 2295 0fae 0C       		.byte	0xc
 2296 0faf 14       		.byte	0x14
 2297 0fb0 34       		.byte	0x34
 2298 0fb1 CE0F0000 		.4byte	0xfce
 2299 0fb5 0D       		.uleb128 0xd
 2300 0fb6 77090000 		.4byte	.LASF145
 2301 0fba 14       		.byte	0x14
 2302 0fbb 35       		.byte	0x35
 2303 0fbc BC0A0000 		.4byte	0xabc
 2304 0fc0 00       		.byte	0
 2305 0fc1 11       		.uleb128 0x11
 2306 0fc2 636E7400 		.ascii	"cnt\000"
 2307 0fc6 14       		.byte	0x14
 2308 0fc7 37       		.byte	0x37
 2309 0fc8 7B090000 		.4byte	0x97b
 2310 0fcc 08       		.byte	0x8
 2311 0fcd 00       		.byte	0
 2312 0fce 05       		.uleb128 0x5
 2313 0fcf 04       		.byte	0x4
 2314 0fd0 A90F0000 		.4byte	0xfa9
 2315 0fd4 10       		.uleb128 0x10
 2316 0fd5 F30A0000 		.4byte	.LASF219
 2317 0fd9 10       		.byte	0x10
 2318 0fda 15       		.byte	0x15
 2319 0fdb 39       		.byte	0x39
 2320 0fdc 05100000 		.4byte	0x1005
 2321 0fe0 0D       		.uleb128 0xd
 2322 0fe1 77090000 		.4byte	.LASF145
 2323 0fe5 15       		.byte	0x15
 2324 0fe6 3A       		.byte	0x3a
 2325 0fe7 BC0A0000 		.4byte	0xabc
 2326 0feb 00       		.byte	0
 2327 0fec 0D       		.uleb128 0xd
 2328 0fed 5F000000 		.4byte	.LASF220
 2329 0ff1 15       		.byte	0x15
 2330 0ff2 3C       		.byte	0x3c
 2331 0ff3 920A0000 		.4byte	0xa92
 2332 0ff7 08       		.byte	0x8
 2333 0ff8 0D       		.uleb128 0xd
 2334 0ff9 9F0C0000 		.4byte	.LASF164
 2335 0ffd 15       		.byte	0x15
 2336 0ffe 3E       		.byte	0x3e
 2337 0fff 50110000 		.4byte	0x1150
ARM GAS  /tmp/ccrJKiGC.s 			page 42


 2338 1003 0C       		.byte	0xc
 2339 1004 00       		.byte	0
 2340 1005 05       		.uleb128 0x5
 2341 1006 04       		.byte	0x4
 2342 1007 D40F0000 		.4byte	0xfd4
 2343 100b 05       		.uleb128 0x5
 2344 100c 04       		.byte	0x4
 2345 100d 1A0D0000 		.4byte	0xd1a
 2346 1011 05       		.uleb128 0x5
 2347 1012 04       		.byte	0x4
 2348 1013 6F0B0000 		.4byte	0xb6f
 2349 1017 23       		.uleb128 0x23
 2350 1018 636800   		.ascii	"ch\000"
 2351 101b 0C       		.byte	0xc
 2352 101c C701     		.2byte	0x1c7
 2353 101e 3C0C0000 		.4byte	0xc3c
 2354 1022 0A       		.uleb128 0xa
 2355 1023 1A0D0000 		.4byte	0xd1a
 2356 1027 2D100000 		.4byte	0x102d
 2357 102b 24       		.uleb128 0x24
 2358 102c 00       		.byte	0
 2359 102d 20       		.uleb128 0x20
 2360 102e 05060000 		.4byte	.LASF221
 2361 1032 03       		.byte	0x3
 2362 1033 1701     		.2byte	0x117
 2363 1035 22100000 		.4byte	0x1022
 2364 1039 0C       		.uleb128 0xc
 2365 103a 16       		.byte	0x16
 2366 103b 16       		.byte	0x16
 2367 103c 34       		.byte	0x34
 2368 103d 1A110000 		.4byte	0x111a
 2369 1041 0D       		.uleb128 0xd
 2370 1042 B90C0000 		.4byte	.LASF222
 2371 1046 16       		.byte	0x16
 2372 1047 35       		.byte	0x35
 2373 1048 1A110000 		.4byte	0x111a
 2374 104c 00       		.byte	0
 2375 104d 0D       		.uleb128 0xd
 2376 104e F4010000 		.4byte	.LASF223
 2377 1052 16       		.byte	0x16
 2378 1053 36       		.byte	0x36
 2379 1054 E2080000 		.4byte	0x8e2
 2380 1058 04       		.byte	0x4
 2381 1059 0D       		.uleb128 0xd
 2382 105a 01090000 		.4byte	.LASF224
 2383 105e 16       		.byte	0x16
 2384 105f 37       		.byte	0x37
 2385 1060 E2080000 		.4byte	0x8e2
 2386 1064 05       		.byte	0x5
 2387 1065 0D       		.uleb128 0xd
 2388 1066 E8090000 		.4byte	.LASF225
 2389 106a 16       		.byte	0x16
 2390 106b 38       		.byte	0x38
 2391 106c F2080000 		.4byte	0x8f2
 2392 1070 06       		.byte	0x6
 2393 1071 0D       		.uleb128 0xd
 2394 1072 B2040000 		.4byte	.LASF226
ARM GAS  /tmp/ccrJKiGC.s 			page 43


 2395 1076 16       		.byte	0x16
 2396 1077 39       		.byte	0x39
 2397 1078 E2080000 		.4byte	0x8e2
 2398 107c 08       		.byte	0x8
 2399 107d 0D       		.uleb128 0xd
 2400 107e 640C0000 		.4byte	.LASF227
 2401 1082 16       		.byte	0x16
 2402 1083 3A       		.byte	0x3a
 2403 1084 E2080000 		.4byte	0x8e2
 2404 1088 09       		.byte	0x9
 2405 1089 0D       		.uleb128 0xd
 2406 108a 98050000 		.4byte	.LASF228
 2407 108e 16       		.byte	0x16
 2408 108f 3B       		.byte	0x3b
 2409 1090 E2080000 		.4byte	0x8e2
 2410 1094 0A       		.byte	0xa
 2411 1095 0D       		.uleb128 0xd
 2412 1096 0F000000 		.4byte	.LASF229
 2413 109a 16       		.byte	0x16
 2414 109b 3C       		.byte	0x3c
 2415 109c E2080000 		.4byte	0x8e2
 2416 10a0 0B       		.byte	0xb
 2417 10a1 0D       		.uleb128 0xd
 2418 10a2 00000000 		.4byte	.LASF230
 2419 10a6 16       		.byte	0x16
 2420 10a7 3D       		.byte	0x3d
 2421 10a8 E2080000 		.4byte	0x8e2
 2422 10ac 0C       		.byte	0xc
 2423 10ad 0D       		.uleb128 0xd
 2424 10ae 5C070000 		.4byte	.LASF231
 2425 10b2 16       		.byte	0x16
 2426 10b3 3E       		.byte	0x3e
 2427 10b4 E2080000 		.4byte	0x8e2
 2428 10b8 0D       		.byte	0xd
 2429 10b9 0D       		.uleb128 0xd
 2430 10ba 61010000 		.4byte	.LASF232
 2431 10be 16       		.byte	0x16
 2432 10bf 3F       		.byte	0x3f
 2433 10c0 E2080000 		.4byte	0x8e2
 2434 10c4 0E       		.byte	0xe
 2435 10c5 0D       		.uleb128 0xd
 2436 10c6 26090000 		.4byte	.LASF233
 2437 10ca 16       		.byte	0x16
 2438 10cb 40       		.byte	0x40
 2439 10cc E2080000 		.4byte	0x8e2
 2440 10d0 0F       		.byte	0xf
 2441 10d1 0D       		.uleb128 0xd
 2442 10d2 67060000 		.4byte	.LASF234
 2443 10d6 16       		.byte	0x16
 2444 10d7 41       		.byte	0x41
 2445 10d8 E2080000 		.4byte	0x8e2
 2446 10dc 10       		.byte	0x10
 2447 10dd 0D       		.uleb128 0xd
 2448 10de 6B050000 		.4byte	.LASF235
 2449 10e2 16       		.byte	0x16
 2450 10e3 42       		.byte	0x42
 2451 10e4 E2080000 		.4byte	0x8e2
ARM GAS  /tmp/ccrJKiGC.s 			page 44


 2452 10e8 11       		.byte	0x11
 2453 10e9 0D       		.uleb128 0xd
 2454 10ea 820C0000 		.4byte	.LASF236
 2455 10ee 16       		.byte	0x16
 2456 10ef 43       		.byte	0x43
 2457 10f0 E2080000 		.4byte	0x8e2
 2458 10f4 12       		.byte	0x12
 2459 10f5 0D       		.uleb128 0xd
 2460 10f6 EA0B0000 		.4byte	.LASF237
 2461 10fa 16       		.byte	0x16
 2462 10fb 44       		.byte	0x44
 2463 10fc E2080000 		.4byte	0x8e2
 2464 1100 13       		.byte	0x13
 2465 1101 0D       		.uleb128 0xd
 2466 1102 3E000000 		.4byte	.LASF238
 2467 1106 16       		.byte	0x16
 2468 1107 45       		.byte	0x45
 2469 1108 E2080000 		.4byte	0x8e2
 2470 110c 14       		.byte	0x14
 2471 110d 0D       		.uleb128 0xd
 2472 110e BA040000 		.4byte	.LASF239
 2473 1112 16       		.byte	0x16
 2474 1113 46       		.byte	0x46
 2475 1114 E2080000 		.4byte	0x8e2
 2476 1118 15       		.byte	0x15
 2477 1119 00       		.byte	0
 2478 111a 0A       		.uleb128 0xa
 2479 111b 61010000 		.4byte	0x161
 2480 111f 2A110000 		.4byte	0x112a
 2481 1123 0B       		.uleb128 0xb
 2482 1124 1B010000 		.4byte	0x11b
 2483 1128 03       		.byte	0x3
 2484 1129 00       		.byte	0
 2485 112a 03       		.uleb128 0x3
 2486 112b 2F0C0000 		.4byte	.LASF240
 2487 112f 16       		.byte	0x16
 2488 1130 47       		.byte	0x47
 2489 1131 39100000 		.4byte	0x1039
 2490 1135 0F       		.uleb128 0xf
 2491 1136 2A110000 		.4byte	0x112a
 2492 113a 22       		.uleb128 0x22
 2493 113b 73000000 		.4byte	.LASF241
 2494 113f 16       		.byte	0x16
 2495 1140 6C       		.byte	0x6c
 2496 1141 35110000 		.4byte	0x1135
 2497 1145 03       		.uleb128 0x3
 2498 1146 860B0000 		.4byte	.LASF242
 2499 114a 15       		.byte	0x15
 2500 114b 34       		.byte	0x34
 2501 114c D40F0000 		.4byte	0xfd4
 2502 1150 05       		.uleb128 0x5
 2503 1151 04       		.byte	0x4
 2504 1152 45110000 		.4byte	0x1145
 2505 1156 04       		.uleb128 0x4
 2506 1157 01       		.byte	0x1
 2507 1158 02       		.byte	0x2
 2508 1159 36030000 		.4byte	.LASF243
ARM GAS  /tmp/ccrJKiGC.s 			page 45


 2509 115d 03       		.uleb128 0x3
 2510 115e 2A080000 		.4byte	.LASF244
 2511 1162 17       		.byte	0x17
 2512 1163 47       		.byte	0x47
 2513 1164 68110000 		.4byte	0x1168
 2514 1168 05       		.uleb128 0x5
 2515 1169 04       		.byte	0x4
 2516 116a 6E110000 		.4byte	0x116e
 2517 116e 15       		.uleb128 0x15
 2518 116f 59010000 		.4byte	0x159
 2519 1173 82110000 		.4byte	0x1182
 2520 1177 16       		.uleb128 0x16
 2521 1178 2C000000 		.4byte	0x2c
 2522 117c 16       		.uleb128 0x16
 2523 117d 37000000 		.4byte	0x37
 2524 1181 00       		.byte	0
 2525 1182 0C       		.uleb128 0xc
 2526 1183 08       		.byte	0x8
 2527 1184 17       		.byte	0x17
 2528 1185 51       		.byte	0x51
 2529 1186 A3110000 		.4byte	0x11a3
 2530 118a 0D       		.uleb128 0xd
 2531 118b 4D050000 		.4byte	.LASF245
 2532 118f 17       		.byte	0x17
 2533 1190 55       		.byte	0x55
 2534 1191 A3110000 		.4byte	0x11a3
 2535 1195 00       		.byte	0
 2536 1196 0D       		.uleb128 0xd
 2537 1197 AE010000 		.4byte	.LASF246
 2538 119b 17       		.byte	0x17
 2539 119c 59       		.byte	0x59
 2540 119d A3110000 		.4byte	0x11a3
 2541 11a1 04       		.byte	0x4
 2542 11a2 00       		.byte	0
 2543 11a3 05       		.uleb128 0x5
 2544 11a4 04       		.byte	0x4
 2545 11a5 E2080000 		.4byte	0x8e2
 2546 11a9 03       		.uleb128 0x3
 2547 11aa 83020000 		.4byte	.LASF247
 2548 11ae 17       		.byte	0x17
 2549 11af 5A       		.byte	0x5a
 2550 11b0 82110000 		.4byte	0x1182
 2551 11b4 22       		.uleb128 0x22
 2552 11b5 770C0000 		.4byte	.LASF248
 2553 11b9 17       		.byte	0x17
 2554 11ba 65       		.byte	0x65
 2555 11bb A9110000 		.4byte	0x11a9
 2556 11bf 10       		.uleb128 0x10
 2557 11c0 74060000 		.4byte	.LASF249
 2558 11c4 04       		.byte	0x4
 2559 11c5 18       		.byte	0x18
 2560 11c6 38       		.byte	0x38
 2561 11c7 D8110000 		.4byte	0x11d8
 2562 11cb 0D       		.uleb128 0xd
 2563 11cc 9F0C0000 		.4byte	.LASF164
 2564 11d0 18       		.byte	0x18
 2565 11d1 39       		.byte	0x39
ARM GAS  /tmp/ccrJKiGC.s 			page 46


 2566 11d2 D8110000 		.4byte	0x11d8
 2567 11d6 00       		.byte	0
 2568 11d7 00       		.byte	0
 2569 11d8 05       		.uleb128 0x5
 2570 11d9 04       		.byte	0x4
 2571 11da BF110000 		.4byte	0x11bf
 2572 11de 0C       		.uleb128 0xc
 2573 11df 10       		.byte	0x10
 2574 11e0 18       		.byte	0x18
 2575 11e1 40       		.byte	0x40
 2576 11e2 17120000 		.4byte	0x1217
 2577 11e6 0D       		.uleb128 0xd
 2578 11e7 9F0C0000 		.4byte	.LASF164
 2579 11eb 18       		.byte	0x18
 2580 11ec 41       		.byte	0x41
 2581 11ed D8110000 		.4byte	0x11d8
 2582 11f1 00       		.byte	0
 2583 11f2 0D       		.uleb128 0xd
 2584 11f3 330B0000 		.4byte	.LASF250
 2585 11f7 18       		.byte	0x18
 2586 11f8 42       		.byte	0x42
 2587 11f9 2C000000 		.4byte	0x2c
 2588 11fd 04       		.byte	0x4
 2589 11fe 0D       		.uleb128 0xd
 2590 11ff 3D070000 		.4byte	.LASF251
 2591 1203 18       		.byte	0x18
 2592 1204 44       		.byte	0x44
 2593 1205 37000000 		.4byte	0x37
 2594 1209 08       		.byte	0x8
 2595 120a 0D       		.uleb128 0xd
 2596 120b 7C000000 		.4byte	.LASF252
 2597 120f 18       		.byte	0x18
 2598 1210 45       		.byte	0x45
 2599 1211 5D110000 		.4byte	0x115d
 2600 1215 0C       		.byte	0xc
 2601 1216 00       		.byte	0
 2602 1217 03       		.uleb128 0x3
 2603 1218 280A0000 		.4byte	.LASF253
 2604 121c 18       		.byte	0x18
 2605 121d 47       		.byte	0x47
 2606 121e DE110000 		.4byte	0x11de
 2607 1222 10       		.uleb128 0x10
 2608 1223 09010000 		.4byte	.LASF254
 2609 1227 10       		.byte	0x10
 2610 1228 19       		.byte	0x19
 2611 1229 A9       		.byte	0xa9
 2612 122a 53120000 		.4byte	0x1253
 2613 122e 0D       		.uleb128 0xd
 2614 122f 9F0C0000 		.4byte	.LASF164
 2615 1233 19       		.byte	0x19
 2616 1234 AD       		.byte	0xad
 2617 1235 53120000 		.4byte	0x1253
 2618 1239 00       		.byte	0
 2619 123a 0D       		.uleb128 0xd
 2620 123b 86070000 		.4byte	.LASF153
 2621 123f 19       		.byte	0x19
 2622 1240 B1       		.byte	0xb1
ARM GAS  /tmp/ccrJKiGC.s 			page 47


 2623 1241 86090000 		.4byte	0x986
 2624 1245 04       		.byte	0x4
 2625 1246 0D       		.uleb128 0xd
 2626 1247 610A0000 		.4byte	.LASF149
 2627 124b 19       		.byte	0x19
 2628 124c B3       		.byte	0xb3
 2629 124d EB070000 		.4byte	0x7eb
 2630 1251 08       		.byte	0x8
 2631 1252 00       		.byte	0
 2632 1253 05       		.uleb128 0x5
 2633 1254 04       		.byte	0x4
 2634 1255 22120000 		.4byte	0x1222
 2635 1259 03       		.uleb128 0x3
 2636 125a 680B0000 		.4byte	.LASF255
 2637 125e 19       		.byte	0x19
 2638 125f B7       		.byte	0xb7
 2639 1260 22120000 		.4byte	0x1222
 2640 1264 10       		.uleb128 0x10
 2641 1265 AD0C0000 		.4byte	.LASF256
 2642 1269 04       		.byte	0x4
 2643 126a 19       		.byte	0x19
 2644 126b BC       		.byte	0xbc
 2645 126c 7D120000 		.4byte	0x127d
 2646 1270 0D       		.uleb128 0xd
 2647 1271 9F0C0000 		.4byte	.LASF164
 2648 1275 19       		.byte	0x19
 2649 1276 BD       		.byte	0xbd
 2650 1277 7D120000 		.4byte	0x127d
 2651 127b 00       		.byte	0
 2652 127c 00       		.byte	0
 2653 127d 05       		.uleb128 0x5
 2654 127e 04       		.byte	0x4
 2655 127f 59120000 		.4byte	0x1259
 2656 1283 03       		.uleb128 0x3
 2657 1284 1E0B0000 		.4byte	.LASF257
 2658 1288 19       		.byte	0x19
 2659 1289 BE       		.byte	0xbe
 2660 128a 64120000 		.4byte	0x1264
 2661 128e 1B       		.uleb128 0x1b
 2662 128f FA060000 		.4byte	.LASF258
 2663 1293 44       		.byte	0x44
 2664 1294 19       		.byte	0x19
 2665 1295 3E01     		.2byte	0x13e
 2666 1297 04130000 		.4byte	0x1304
 2667 129b 21       		.uleb128 0x21
 2668 129c 6D747800 		.ascii	"mtx\000"
 2669 12a0 19       		.byte	0x19
 2670 12a1 4301     		.2byte	0x143
 2671 12a3 45110000 		.4byte	0x1145
 2672 12a7 00       		.byte	0
 2673 12a8 18       		.uleb128 0x18
 2674 12a9 38010000 		.4byte	.LASF259
 2675 12ad 19       		.byte	0x19
 2676 12ae 4A01     		.2byte	0x14a
 2677 12b0 83120000 		.4byte	0x1283
 2678 12b4 10       		.byte	0x10
 2679 12b5 18       		.uleb128 0x18
ARM GAS  /tmp/ccrJKiGC.s 			page 48


 2680 12b6 50020000 		.4byte	.LASF260
 2681 12ba 19       		.byte	0x19
 2682 12bb 4E01     		.2byte	0x14e
 2683 12bd 17120000 		.4byte	0x1217
 2684 12c1 14       		.byte	0x14
 2685 12c2 18       		.uleb128 0x18
 2686 12c3 8C080000 		.4byte	.LASF261
 2687 12c7 19       		.byte	0x19
 2688 12c8 5301     		.2byte	0x153
 2689 12ca 83120000 		.4byte	0x1283
 2690 12ce 24       		.byte	0x24
 2691 12cf 18       		.uleb128 0x18
 2692 12d0 4D030000 		.4byte	.LASF262
 2693 12d4 19       		.byte	0x19
 2694 12d5 5901     		.2byte	0x159
 2695 12d7 83120000 		.4byte	0x1283
 2696 12db 28       		.byte	0x28
 2697 12dc 18       		.uleb128 0x18
 2698 12dd FC040000 		.4byte	.LASF263
 2699 12e1 19       		.byte	0x19
 2700 12e2 5D01     		.2byte	0x15d
 2701 12e4 17120000 		.4byte	0x1217
 2702 12e8 2C       		.byte	0x2c
 2703 12e9 18       		.uleb128 0x18
 2704 12ea CB090000 		.4byte	.LASF264
 2705 12ee 19       		.byte	0x19
 2706 12ef 6301     		.2byte	0x163
 2707 12f1 83120000 		.4byte	0x1283
 2708 12f5 3C       		.byte	0x3c
 2709 12f6 18       		.uleb128 0x18
 2710 12f7 1E060000 		.4byte	.LASF265
 2711 12fb 19       		.byte	0x19
 2712 12fc 6901     		.2byte	0x169
 2713 12fe 83120000 		.4byte	0x1283
 2714 1302 40       		.byte	0x40
 2715 1303 00       		.byte	0
 2716 1304 07       		.uleb128 0x7
 2717 1305 74080000 		.4byte	.LASF266
 2718 1309 19       		.byte	0x19
 2719 130a 7101     		.2byte	0x171
 2720 130c 8E120000 		.4byte	0x128e
 2721 1310 20       		.uleb128 0x20
 2722 1311 B1090000 		.4byte	.LASF267
 2723 1315 19       		.byte	0x19
 2724 1316 7C01     		.2byte	0x17c
 2725 1318 04130000 		.4byte	0x1304
 2726 131c 25       		.uleb128 0x25
 2727 131d 3A110000 		.4byte	0x113a
 2728 1321 01       		.byte	0x1
 2729 1322 53       		.byte	0x53
 2730 1323 05       		.uleb128 0x5
 2731 1324 03       		.byte	0x3
 2732 1325 00000000 		.4byte	ch_debug
 2733 1329 26       		.uleb128 0x26
 2734 132a AA080000 		.4byte	.LASF268
 2735 132e 01       		.byte	0x1
 2736 132f FA       		.byte	0xfa
ARM GAS  /tmp/ccrJKiGC.s 			page 49


 2737 1330 920A0000 		.4byte	0xa92
 2738 1334 00000000 		.4byte	.LFB294
 2739 1338 18000000 		.4byte	.LFE294-.LFB294
 2740 133c 01       		.uleb128 0x1
 2741 133d 9C       		.byte	0x9c
 2742 133e 72130000 		.4byte	0x1372
 2743 1342 27       		.uleb128 0x27
 2744 1343 776100   		.ascii	"wa\000"
 2745 1346 01       		.byte	0x1
 2746 1347 FA       		.byte	0xfa
 2747 1348 0B100000 		.4byte	0x100b
 2748 134c 00000000 		.4byte	.LLST11
 2749 1350 28       		.uleb128 0x28
 2750 1351 63747000 		.ascii	"ctp\000"
 2751 1355 01       		.byte	0x1
 2752 1356 FB       		.byte	0xfb
 2753 1357 920A0000 		.4byte	0xa92
 2754 135b 1E000000 		.4byte	.LLST12
 2755 135f 29       		.uleb128 0x29
 2756 1360 08000000 		.4byte	.LVL28
 2757 1364 2C150000 		.4byte	0x152c
 2758 1368 29       		.uleb128 0x29
 2759 1369 12000000 		.4byte	.LVL29
 2760 136d 20140000 		.4byte	0x1420
 2761 1371 00       		.byte	0
 2762 1372 26       		.uleb128 0x26
 2763 1373 BA020000 		.4byte	.LASF269
 2764 1377 01       		.byte	0x1
 2765 1378 DD       		.byte	0xdd
 2766 1379 920A0000 		.4byte	0xa92
 2767 137d 00000000 		.4byte	.LFB293
 2768 1381 16000000 		.4byte	.LFE293-.LFB293
 2769 1385 01       		.uleb128 0x1
 2770 1386 9C       		.byte	0x9c
 2771 1387 BB130000 		.4byte	0x13bb
 2772 138b 27       		.uleb128 0x27
 2773 138c 747000   		.ascii	"tp\000"
 2774 138f 01       		.byte	0x1
 2775 1390 DD       		.byte	0xdd
 2776 1391 920A0000 		.4byte	0xa92
 2777 1395 3C000000 		.4byte	.LLST9
 2778 1399 28       		.uleb128 0x28
 2779 139a 63747000 		.ascii	"ctp\000"
 2780 139e 01       		.byte	0x1
 2781 139f DE       		.byte	0xde
 2782 13a0 920A0000 		.4byte	0xa92
 2783 13a4 5A000000 		.4byte	.LLST10
 2784 13a8 29       		.uleb128 0x29
 2785 13a9 08000000 		.4byte	.LVL25
 2786 13ad 2C150000 		.4byte	0x152c
 2787 13b1 29       		.uleb128 0x29
 2788 13b2 10000000 		.4byte	.LVL26
 2789 13b6 20140000 		.4byte	0x1420
 2790 13ba 00       		.byte	0
 2791 13bb 26       		.uleb128 0x26
 2792 13bc DD0A0000 		.4byte	.LASF270
 2793 13c0 01       		.byte	0x1
ARM GAS  /tmp/ccrJKiGC.s 			page 50


 2794 13c1 C2       		.byte	0xc2
 2795 13c2 920A0000 		.4byte	0xa92
 2796 13c6 00000000 		.4byte	.LFB292
 2797 13ca 24000000 		.4byte	.LFE292-.LFB292
 2798 13ce 01       		.uleb128 0x1
 2799 13cf 9C       		.byte	0x9c
 2800 13d0 20140000 		.4byte	0x1420
 2801 13d4 2A       		.uleb128 0x2a
 2802 13d5 610A0000 		.4byte	.LASF149
 2803 13d9 01       		.byte	0x1
 2804 13da C2       		.byte	0xc2
 2805 13db D9050000 		.4byte	0x5d9
 2806 13df 78000000 		.4byte	.LLST7
 2807 13e3 28       		.uleb128 0x28
 2808 13e4 63747000 		.ascii	"ctp\000"
 2809 13e8 01       		.byte	0x1
 2810 13e9 C3       		.byte	0xc3
 2811 13ea 920A0000 		.4byte	0xa92
 2812 13ee 96000000 		.4byte	.LLST8
 2813 13f2 29       		.uleb128 0x29
 2814 13f3 08000000 		.4byte	.LVL17
 2815 13f7 2C150000 		.4byte	0x152c
 2816 13fb 2B       		.uleb128 0x2b
 2817 13fc 12000000 		.4byte	.LVL20
 2818 1400 94160000 		.4byte	0x1694
 2819 1404 0F140000 		.4byte	0x140f
 2820 1408 2C       		.uleb128 0x2c
 2821 1409 01       		.uleb128 0x1
 2822 140a 51       		.byte	0x51
 2823 140b 02       		.uleb128 0x2
 2824 140c 75       		.byte	0x75
 2825 140d 00       		.sleb128 0
 2826 140e 00       		.byte	0
 2827 140f 2D       		.uleb128 0x2d
 2828 1410 1A000000 		.4byte	.LVL21
 2829 1414 20140000 		.4byte	0x1420
 2830 1418 2C       		.uleb128 0x2c
 2831 1419 01       		.uleb128 0x1
 2832 141a 50       		.byte	0x50
 2833 141b 02       		.uleb128 0x2
 2834 141c 74       		.byte	0x74
 2835 141d 00       		.sleb128 0
 2836 141e 00       		.byte	0
 2837 141f 00       		.byte	0
 2838 1420 26       		.uleb128 0x26
 2839 1421 4F000000 		.4byte	.LASF271
 2840 1425 01       		.byte	0x1
 2841 1426 9E       		.byte	0x9e
 2842 1427 920A0000 		.4byte	0xa92
 2843 142b 00000000 		.4byte	.LFB291
 2844 142f 3C000000 		.4byte	.LFE291-.LFB291
 2845 1433 01       		.uleb128 0x1
 2846 1434 9C       		.byte	0x9c
 2847 1435 17150000 		.4byte	0x1517
 2848 1439 27       		.uleb128 0x27
 2849 143a 747000   		.ascii	"tp\000"
 2850 143d 01       		.byte	0x1
ARM GAS  /tmp/ccrJKiGC.s 			page 51


 2851 143e 9E       		.byte	0x9e
 2852 143f 920A0000 		.4byte	0xa92
 2853 1443 CA000000 		.4byte	.LLST3
 2854 1447 28       		.uleb128 0x28
 2855 1448 6E747000 		.ascii	"ntp\000"
 2856 144c 01       		.byte	0x1
 2857 144d 9F       		.byte	0x9f
 2858 144e 920A0000 		.4byte	0xa92
 2859 1452 F6000000 		.4byte	.LLST4
 2860 1456 2E       		.uleb128 0x2e
 2861 1457 B2000000 		.4byte	.LASF288
 2862 145b 27150000 		.4byte	0x1527
 2863 145f 2F       		.uleb128 0x2f
 2864 1460 5F160000 		.4byte	0x165f
 2865 1464 04000000 		.4byte	.LBB48
 2866 1468 0A000000 		.4byte	.LBE48-.LBB48
 2867 146c 01       		.byte	0x1
 2868 146d A1       		.byte	0xa1
 2869 146e AB140000 		.4byte	0x14ab
 2870 1472 30       		.uleb128 0x30
 2871 1473 71160000 		.4byte	0x1671
 2872 1477 04000000 		.4byte	.LBB50
 2873 147b 06000000 		.4byte	.LBE50-.LBB50
 2874 147f 03       		.byte	0x3
 2875 1480 6301     		.2byte	0x163
 2876 1482 A1140000 		.4byte	0x14a1
 2877 1486 31       		.uleb128 0x31
 2878 1487 7A160000 		.4byte	0x167a
 2879 148b 04000000 		.4byte	.LBB51
 2880 148f 06000000 		.4byte	.LBE51-.LBB51
 2881 1493 11       		.byte	0x11
 2882 1494 6202     		.2byte	0x262
 2883 1496 32       		.uleb128 0x32
 2884 1497 87160000 		.4byte	0x1687
 2885 149b 14010000 		.4byte	.LLST5
 2886 149f 00       		.byte	0
 2887 14a0 00       		.byte	0
 2888 14a1 29       		.uleb128 0x29
 2889 14a2 0E000000 		.4byte	.LVL9
 2890 14a6 9F160000 		.4byte	0x169f
 2891 14aa 00       		.byte	0
 2892 14ab 2F       		.uleb128 0x2f
 2893 14ac 2F160000 		.4byte	0x162f
 2894 14b0 22000000 		.4byte	.LBB53
 2895 14b4 0A000000 		.4byte	.LBE53-.LBB53
 2896 14b8 01       		.byte	0x1
 2897 14b9 AE       		.byte	0xae
 2898 14ba 06150000 		.4byte	0x1506
 2899 14be 33       		.uleb128 0x33
 2900 14bf 22000000 		.4byte	.LBB54
 2901 14c3 0A000000 		.4byte	.LBE54-.LBB54
 2902 14c7 34       		.uleb128 0x34
 2903 14c8 3C160000 		.4byte	0x163c
 2904 14cc 30       		.uleb128 0x30
 2905 14cd 68160000 		.4byte	0x1668
 2906 14d1 26000000 		.4byte	.LBB55
 2907 14d5 06000000 		.4byte	.LBE55-.LBB55
ARM GAS  /tmp/ccrJKiGC.s 			page 52


 2908 14d9 03       		.byte	0x3
 2909 14da 7A01     		.2byte	0x17a
 2910 14dc FB140000 		.4byte	0x14fb
 2911 14e0 31       		.uleb128 0x31
 2912 14e1 7A160000 		.4byte	0x167a
 2913 14e5 26000000 		.4byte	.LBB56
 2914 14e9 06000000 		.4byte	.LBE56-.LBB56
 2915 14ed 11       		.byte	0x11
 2916 14ee 7502     		.2byte	0x275
 2917 14f0 32       		.uleb128 0x32
 2918 14f1 87160000 		.4byte	0x1687
 2919 14f5 29010000 		.4byte	.LLST6
 2920 14f9 00       		.byte	0
 2921 14fa 00       		.byte	0
 2922 14fb 29       		.uleb128 0x29
 2923 14fc 26000000 		.4byte	.LVL12
 2924 1500 AA160000 		.4byte	0x16aa
 2925 1504 00       		.byte	0
 2926 1505 00       		.byte	0
 2927 1506 2D       		.uleb128 0x2d
 2928 1507 32000000 		.4byte	.LVL14
 2929 150b B5160000 		.4byte	0x16b5
 2930 150f 2C       		.uleb128 0x2c
 2931 1510 01       		.uleb128 0x1
 2932 1511 50       		.byte	0x50
 2933 1512 02       		.uleb128 0x2
 2934 1513 75       		.byte	0x75
 2935 1514 00       		.sleb128 0
 2936 1515 00       		.byte	0
 2937 1516 00       		.byte	0
 2938 1517 0A       		.uleb128 0xa
 2939 1518 68010000 		.4byte	0x168
 2940 151c 27150000 		.4byte	0x1527
 2941 1520 0B       		.uleb128 0xb
 2942 1521 1B010000 		.4byte	0x11b
 2943 1525 0F       		.byte	0xf
 2944 1526 00       		.byte	0
 2945 1527 0F       		.uleb128 0xf
 2946 1528 17150000 		.4byte	0x1517
 2947 152c 26       		.uleb128 0x26
 2948 152d 70010000 		.4byte	.LASF272
 2949 1531 01       		.byte	0x1
 2950 1532 86       		.byte	0x86
 2951 1533 920A0000 		.4byte	0xa92
 2952 1537 00000000 		.4byte	.LFB290
 2953 153b 2C000000 		.4byte	.LFE290-.LFB290
 2954 153f 01       		.uleb128 0x1
 2955 1540 9C       		.byte	0x9c
 2956 1541 F7150000 		.4byte	0x15f7
 2957 1545 28       		.uleb128 0x28
 2958 1546 747000   		.ascii	"tp\000"
 2959 1549 01       		.byte	0x1
 2960 154a 87       		.byte	0x87
 2961 154b 920A0000 		.4byte	0xa92
 2962 154f 3D010000 		.4byte	.LLST0
 2963 1553 2F       		.uleb128 0x2f
 2964 1554 5F160000 		.4byte	0x165f
ARM GAS  /tmp/ccrJKiGC.s 			page 53


 2965 1558 02000000 		.4byte	.LBB28
 2966 155c 0A000000 		.4byte	.LBE28-.LBB28
 2967 1560 01       		.byte	0x1
 2968 1561 89       		.byte	0x89
 2969 1562 9F150000 		.4byte	0x159f
 2970 1566 30       		.uleb128 0x30
 2971 1567 71160000 		.4byte	0x1671
 2972 156b 02000000 		.4byte	.LBB30
 2973 156f 06000000 		.4byte	.LBE30-.LBB30
 2974 1573 03       		.byte	0x3
 2975 1574 6301     		.2byte	0x163
 2976 1576 95150000 		.4byte	0x1595
 2977 157a 31       		.uleb128 0x31
 2978 157b 7A160000 		.4byte	0x167a
 2979 157f 02000000 		.4byte	.LBB31
 2980 1583 06000000 		.4byte	.LBE31-.LBB31
 2981 1587 11       		.byte	0x11
 2982 1588 6202     		.2byte	0x262
 2983 158a 32       		.uleb128 0x32
 2984 158b 87160000 		.4byte	0x1687
 2985 158f 5B010000 		.4byte	.LLST1
 2986 1593 00       		.byte	0
 2987 1594 00       		.byte	0
 2988 1595 29       		.uleb128 0x29
 2989 1596 0C000000 		.4byte	.LVL2
 2990 159a 9F160000 		.4byte	0x169f
 2991 159e 00       		.byte	0
 2992 159f 35       		.uleb128 0x35
 2993 15a0 2F160000 		.4byte	0x162f
 2994 15a4 1A000000 		.4byte	.LBB33
 2995 15a8 0A000000 		.4byte	.LBE33-.LBB33
 2996 15ac 01       		.byte	0x1
 2997 15ad 8E       		.byte	0x8e
 2998 15ae 33       		.uleb128 0x33
 2999 15af 1A000000 		.4byte	.LBB34
 3000 15b3 0A000000 		.4byte	.LBE34-.LBB34
 3001 15b7 34       		.uleb128 0x34
 3002 15b8 3C160000 		.4byte	0x163c
 3003 15bc 30       		.uleb128 0x30
 3004 15bd 68160000 		.4byte	0x1668
 3005 15c1 1E000000 		.4byte	.LBB35
 3006 15c5 06000000 		.4byte	.LBE35-.LBB35
 3007 15c9 03       		.byte	0x3
 3008 15ca 7A01     		.2byte	0x17a
 3009 15cc EB150000 		.4byte	0x15eb
 3010 15d0 31       		.uleb128 0x31
 3011 15d1 7A160000 		.4byte	0x167a
 3012 15d5 1E000000 		.4byte	.LBB36
 3013 15d9 06000000 		.4byte	.LBE36-.LBB36
 3014 15dd 11       		.byte	0x11
 3015 15de 7502     		.2byte	0x275
 3016 15e0 32       		.uleb128 0x32
 3017 15e1 87160000 		.4byte	0x1687
 3018 15e5 70010000 		.4byte	.LLST2
 3019 15e9 00       		.byte	0
 3020 15ea 00       		.byte	0
 3021 15eb 29       		.uleb128 0x29
ARM GAS  /tmp/ccrJKiGC.s 			page 54


 3022 15ec 1E000000 		.4byte	.LVL4
 3023 15f0 AA160000 		.4byte	0x16aa
 3024 15f4 00       		.byte	0
 3025 15f5 00       		.byte	0
 3026 15f6 00       		.byte	0
 3027 15f7 36       		.uleb128 0x36
 3028 15f8 3C020000 		.4byte	.LASF273
 3029 15fc 16       		.byte	0x16
 3030 15fd 99       		.byte	0x99
 3031 15fe D9050000 		.4byte	0x5d9
 3032 1602 03       		.byte	0x3
 3033 1603 12160000 		.4byte	0x1612
 3034 1607 37       		.uleb128 0x37
 3035 1608 747000   		.ascii	"tp\000"
 3036 160b 16       		.byte	0x16
 3037 160c 99       		.byte	0x99
 3038 160d 920A0000 		.4byte	0xa92
 3039 1611 00       		.byte	0
 3040 1612 38       		.uleb128 0x38
 3041 1613 390C0000 		.4byte	.LASF274
 3042 1617 1A       		.byte	0x1a
 3043 1618 3D01     		.2byte	0x13d
 3044 161a 0B100000 		.4byte	0x100b
 3045 161e 03       		.byte	0x3
 3046 161f 2F160000 		.4byte	0x162f
 3047 1623 39       		.uleb128 0x39
 3048 1624 747000   		.ascii	"tp\000"
 3049 1627 1A       		.byte	0x1a
 3050 1628 3D01     		.2byte	0x13d
 3051 162a 920A0000 		.4byte	0xa92
 3052 162e 00       		.byte	0
 3053 162f 3A       		.uleb128 0x3a
 3054 1630 75050000 		.4byte	.LASF278
 3055 1634 03       		.byte	0x3
 3056 1635 6D01     		.2byte	0x16d
 3057 1637 03       		.byte	0x3
 3058 1638 4A160000 		.4byte	0x164a
 3059 163c 3B       		.uleb128 0x3b
 3060 163d B2000000 		.4byte	.LASF288
 3061 1641 5A160000 		.4byte	0x165a
 3062 1645 75050000 		.4byte	.LASF278
 3063 1649 00       		.byte	0
 3064 164a 0A       		.uleb128 0xa
 3065 164b 68010000 		.4byte	0x168
 3066 164f 5A160000 		.4byte	0x165a
 3067 1653 0B       		.uleb128 0xb
 3068 1654 1B010000 		.4byte	0x11b
 3069 1658 0B       		.byte	0xb
 3070 1659 00       		.byte	0
 3071 165a 0F       		.uleb128 0xf
 3072 165b 4A160000 		.4byte	0x164a
 3073 165f 3C       		.uleb128 0x3c
 3074 1660 A3050000 		.4byte	.LASF275
 3075 1664 03       		.byte	0x3
 3076 1665 6101     		.2byte	0x161
 3077 1667 03       		.byte	0x3
 3078 1668 3C       		.uleb128 0x3c
ARM GAS  /tmp/ccrJKiGC.s 			page 55


 3079 1669 CC010000 		.4byte	.LASF276
 3080 166d 11       		.byte	0x11
 3081 166e 7202     		.2byte	0x272
 3082 1670 03       		.byte	0x3
 3083 1671 3C       		.uleb128 0x3c
 3084 1672 660A0000 		.4byte	.LASF277
 3085 1676 11       		.byte	0x11
 3086 1677 5A02     		.2byte	0x25a
 3087 1679 03       		.byte	0x3
 3088 167a 3A       		.uleb128 0x3a
 3089 167b F7090000 		.4byte	.LASF279
 3090 167f 02       		.byte	0x2
 3091 1680 EB01     		.2byte	0x1eb
 3092 1682 03       		.byte	0x3
 3093 1683 94160000 		.4byte	0x1694
 3094 1687 3D       		.uleb128 0x3d
 3095 1688 2A010000 		.4byte	.LASF280
 3096 168c 02       		.byte	0x2
 3097 168d EB01     		.2byte	0x1eb
 3098 168f 0D090000 		.4byte	0x90d
 3099 1693 00       		.byte	0
 3100 1694 3E       		.uleb128 0x3e
 3101 1695 9F040000 		.4byte	.LASF281
 3102 1699 9F040000 		.4byte	.LASF281
 3103 169d 1B       		.byte	0x1b
 3104 169e 20       		.byte	0x20
 3105 169f 3E       		.uleb128 0x3e
 3106 16a0 86090000 		.4byte	.LASF282
 3107 16a4 86090000 		.4byte	.LASF282
 3108 16a8 13       		.byte	0x13
 3109 16a9 4F       		.byte	0x4f
 3110 16aa 3E       		.uleb128 0x3e
 3111 16ab 59020000 		.4byte	.LASF283
 3112 16af 59020000 		.4byte	.LASF283
 3113 16b3 13       		.byte	0x13
 3114 16b4 50       		.byte	0x50
 3115 16b5 3E       		.uleb128 0x3e
 3116 16b6 41010000 		.4byte	.LASF284
 3117 16ba 41010000 		.4byte	.LASF284
 3118 16be 1A       		.byte	0x1a
 3119 16bf EC       		.byte	0xec
 3120 16c0 00       		.byte	0
 3121              		.section	.debug_abbrev,"",%progbits
 3122              	.Ldebug_abbrev0:
 3123 0000 01       		.uleb128 0x1
 3124 0001 11       		.uleb128 0x11
 3125 0002 01       		.byte	0x1
 3126 0003 25       		.uleb128 0x25
 3127 0004 0E       		.uleb128 0xe
 3128 0005 13       		.uleb128 0x13
 3129 0006 0B       		.uleb128 0xb
 3130 0007 03       		.uleb128 0x3
 3131 0008 0E       		.uleb128 0xe
 3132 0009 1B       		.uleb128 0x1b
 3133 000a 0E       		.uleb128 0xe
 3134 000b 55       		.uleb128 0x55
 3135 000c 17       		.uleb128 0x17
ARM GAS  /tmp/ccrJKiGC.s 			page 56


 3136 000d 11       		.uleb128 0x11
 3137 000e 01       		.uleb128 0x1
 3138 000f 10       		.uleb128 0x10
 3139 0010 17       		.uleb128 0x17
 3140 0011 00       		.byte	0
 3141 0012 00       		.byte	0
 3142 0013 02       		.uleb128 0x2
 3143 0014 24       		.uleb128 0x24
 3144 0015 00       		.byte	0
 3145 0016 0B       		.uleb128 0xb
 3146 0017 0B       		.uleb128 0xb
 3147 0018 3E       		.uleb128 0x3e
 3148 0019 0B       		.uleb128 0xb
 3149 001a 03       		.uleb128 0x3
 3150 001b 08       		.uleb128 0x8
 3151 001c 00       		.byte	0
 3152 001d 00       		.byte	0
 3153 001e 03       		.uleb128 0x3
 3154 001f 16       		.uleb128 0x16
 3155 0020 00       		.byte	0
 3156 0021 03       		.uleb128 0x3
 3157 0022 0E       		.uleb128 0xe
 3158 0023 3A       		.uleb128 0x3a
 3159 0024 0B       		.uleb128 0xb
 3160 0025 3B       		.uleb128 0x3b
 3161 0026 0B       		.uleb128 0xb
 3162 0027 49       		.uleb128 0x49
 3163 0028 13       		.uleb128 0x13
 3164 0029 00       		.byte	0
 3165 002a 00       		.byte	0
 3166 002b 04       		.uleb128 0x4
 3167 002c 24       		.uleb128 0x24
 3168 002d 00       		.byte	0
 3169 002e 0B       		.uleb128 0xb
 3170 002f 0B       		.uleb128 0xb
 3171 0030 3E       		.uleb128 0x3e
 3172 0031 0B       		.uleb128 0xb
 3173 0032 03       		.uleb128 0x3
 3174 0033 0E       		.uleb128 0xe
 3175 0034 00       		.byte	0
 3176 0035 00       		.byte	0
 3177 0036 05       		.uleb128 0x5
 3178 0037 0F       		.uleb128 0xf
 3179 0038 00       		.byte	0
 3180 0039 0B       		.uleb128 0xb
 3181 003a 0B       		.uleb128 0xb
 3182 003b 49       		.uleb128 0x49
 3183 003c 13       		.uleb128 0x13
 3184 003d 00       		.byte	0
 3185 003e 00       		.byte	0
 3186 003f 06       		.uleb128 0x6
 3187 0040 13       		.uleb128 0x13
 3188 0041 00       		.byte	0
 3189 0042 03       		.uleb128 0x3
 3190 0043 0E       		.uleb128 0xe
 3191 0044 3C       		.uleb128 0x3c
 3192 0045 19       		.uleb128 0x19
ARM GAS  /tmp/ccrJKiGC.s 			page 57


 3193 0046 00       		.byte	0
 3194 0047 00       		.byte	0
 3195 0048 07       		.uleb128 0x7
 3196 0049 16       		.uleb128 0x16
 3197 004a 00       		.byte	0
 3198 004b 03       		.uleb128 0x3
 3199 004c 0E       		.uleb128 0xe
 3200 004d 3A       		.uleb128 0x3a
 3201 004e 0B       		.uleb128 0xb
 3202 004f 3B       		.uleb128 0x3b
 3203 0050 05       		.uleb128 0x5
 3204 0051 49       		.uleb128 0x49
 3205 0052 13       		.uleb128 0x13
 3206 0053 00       		.byte	0
 3207 0054 00       		.byte	0
 3208 0055 08       		.uleb128 0x8
 3209 0056 17       		.uleb128 0x17
 3210 0057 01       		.byte	0x1
 3211 0058 0B       		.uleb128 0xb
 3212 0059 0B       		.uleb128 0xb
 3213 005a 3A       		.uleb128 0x3a
 3214 005b 0B       		.uleb128 0xb
 3215 005c 3B       		.uleb128 0x3b
 3216 005d 0B       		.uleb128 0xb
 3217 005e 01       		.uleb128 0x1
 3218 005f 13       		.uleb128 0x13
 3219 0060 00       		.byte	0
 3220 0061 00       		.byte	0
 3221 0062 09       		.uleb128 0x9
 3222 0063 0D       		.uleb128 0xd
 3223 0064 00       		.byte	0
 3224 0065 03       		.uleb128 0x3
 3225 0066 0E       		.uleb128 0xe
 3226 0067 3A       		.uleb128 0x3a
 3227 0068 0B       		.uleb128 0xb
 3228 0069 3B       		.uleb128 0x3b
 3229 006a 0B       		.uleb128 0xb
 3230 006b 49       		.uleb128 0x49
 3231 006c 13       		.uleb128 0x13
 3232 006d 00       		.byte	0
 3233 006e 00       		.byte	0
 3234 006f 0A       		.uleb128 0xa
 3235 0070 01       		.uleb128 0x1
 3236 0071 01       		.byte	0x1
 3237 0072 49       		.uleb128 0x49
 3238 0073 13       		.uleb128 0x13
 3239 0074 01       		.uleb128 0x1
 3240 0075 13       		.uleb128 0x13
 3241 0076 00       		.byte	0
 3242 0077 00       		.byte	0
 3243 0078 0B       		.uleb128 0xb
 3244 0079 21       		.uleb128 0x21
 3245 007a 00       		.byte	0
 3246 007b 49       		.uleb128 0x49
 3247 007c 13       		.uleb128 0x13
 3248 007d 2F       		.uleb128 0x2f
 3249 007e 0B       		.uleb128 0xb
ARM GAS  /tmp/ccrJKiGC.s 			page 58


 3250 007f 00       		.byte	0
 3251 0080 00       		.byte	0
 3252 0081 0C       		.uleb128 0xc
 3253 0082 13       		.uleb128 0x13
 3254 0083 01       		.byte	0x1
 3255 0084 0B       		.uleb128 0xb
 3256 0085 0B       		.uleb128 0xb
 3257 0086 3A       		.uleb128 0x3a
 3258 0087 0B       		.uleb128 0xb
 3259 0088 3B       		.uleb128 0x3b
 3260 0089 0B       		.uleb128 0xb
 3261 008a 01       		.uleb128 0x1
 3262 008b 13       		.uleb128 0x13
 3263 008c 00       		.byte	0
 3264 008d 00       		.byte	0
 3265 008e 0D       		.uleb128 0xd
 3266 008f 0D       		.uleb128 0xd
 3267 0090 00       		.byte	0
 3268 0091 03       		.uleb128 0x3
 3269 0092 0E       		.uleb128 0xe
 3270 0093 3A       		.uleb128 0x3a
 3271 0094 0B       		.uleb128 0xb
 3272 0095 3B       		.uleb128 0x3b
 3273 0096 0B       		.uleb128 0xb
 3274 0097 49       		.uleb128 0x49
 3275 0098 13       		.uleb128 0x13
 3276 0099 38       		.uleb128 0x38
 3277 009a 0B       		.uleb128 0xb
 3278 009b 00       		.byte	0
 3279 009c 00       		.byte	0
 3280 009d 0E       		.uleb128 0xe
 3281 009e 0F       		.uleb128 0xf
 3282 009f 00       		.byte	0
 3283 00a0 0B       		.uleb128 0xb
 3284 00a1 0B       		.uleb128 0xb
 3285 00a2 00       		.byte	0
 3286 00a3 00       		.byte	0
 3287 00a4 0F       		.uleb128 0xf
 3288 00a5 26       		.uleb128 0x26
 3289 00a6 00       		.byte	0
 3290 00a7 49       		.uleb128 0x49
 3291 00a8 13       		.uleb128 0x13
 3292 00a9 00       		.byte	0
 3293 00aa 00       		.byte	0
 3294 00ab 10       		.uleb128 0x10
 3295 00ac 13       		.uleb128 0x13
 3296 00ad 01       		.byte	0x1
 3297 00ae 03       		.uleb128 0x3
 3298 00af 0E       		.uleb128 0xe
 3299 00b0 0B       		.uleb128 0xb
 3300 00b1 0B       		.uleb128 0xb
 3301 00b2 3A       		.uleb128 0x3a
 3302 00b3 0B       		.uleb128 0xb
 3303 00b4 3B       		.uleb128 0x3b
 3304 00b5 0B       		.uleb128 0xb
 3305 00b6 01       		.uleb128 0x1
 3306 00b7 13       		.uleb128 0x13
ARM GAS  /tmp/ccrJKiGC.s 			page 59


 3307 00b8 00       		.byte	0
 3308 00b9 00       		.byte	0
 3309 00ba 11       		.uleb128 0x11
 3310 00bb 0D       		.uleb128 0xd
 3311 00bc 00       		.byte	0
 3312 00bd 03       		.uleb128 0x3
 3313 00be 08       		.uleb128 0x8
 3314 00bf 3A       		.uleb128 0x3a
 3315 00c0 0B       		.uleb128 0xb
 3316 00c1 3B       		.uleb128 0x3b
 3317 00c2 0B       		.uleb128 0xb
 3318 00c3 49       		.uleb128 0x49
 3319 00c4 13       		.uleb128 0x13
 3320 00c5 38       		.uleb128 0x38
 3321 00c6 0B       		.uleb128 0xb
 3322 00c7 00       		.byte	0
 3323 00c8 00       		.byte	0
 3324 00c9 12       		.uleb128 0x12
 3325 00ca 13       		.uleb128 0x13
 3326 00cb 01       		.byte	0x1
 3327 00cc 03       		.uleb128 0x3
 3328 00cd 0E       		.uleb128 0xe
 3329 00ce 0B       		.uleb128 0xb
 3330 00cf 05       		.uleb128 0x5
 3331 00d0 3A       		.uleb128 0x3a
 3332 00d1 0B       		.uleb128 0xb
 3333 00d2 3B       		.uleb128 0x3b
 3334 00d3 0B       		.uleb128 0xb
 3335 00d4 01       		.uleb128 0x1
 3336 00d5 13       		.uleb128 0x13
 3337 00d6 00       		.byte	0
 3338 00d7 00       		.byte	0
 3339 00d8 13       		.uleb128 0x13
 3340 00d9 0D       		.uleb128 0xd
 3341 00da 00       		.byte	0
 3342 00db 03       		.uleb128 0x3
 3343 00dc 0E       		.uleb128 0xe
 3344 00dd 3A       		.uleb128 0x3a
 3345 00de 0B       		.uleb128 0xb
 3346 00df 3B       		.uleb128 0x3b
 3347 00e0 0B       		.uleb128 0xb
 3348 00e1 49       		.uleb128 0x49
 3349 00e2 13       		.uleb128 0x13
 3350 00e3 38       		.uleb128 0x38
 3351 00e4 05       		.uleb128 0x5
 3352 00e5 00       		.byte	0
 3353 00e6 00       		.byte	0
 3354 00e7 14       		.uleb128 0x14
 3355 00e8 15       		.uleb128 0x15
 3356 00e9 00       		.byte	0
 3357 00ea 27       		.uleb128 0x27
 3358 00eb 19       		.uleb128 0x19
 3359 00ec 00       		.byte	0
 3360 00ed 00       		.byte	0
 3361 00ee 15       		.uleb128 0x15
 3362 00ef 15       		.uleb128 0x15
 3363 00f0 01       		.byte	0x1
ARM GAS  /tmp/ccrJKiGC.s 			page 60


 3364 00f1 27       		.uleb128 0x27
 3365 00f2 19       		.uleb128 0x19
 3366 00f3 49       		.uleb128 0x49
 3367 00f4 13       		.uleb128 0x13
 3368 00f5 01       		.uleb128 0x1
 3369 00f6 13       		.uleb128 0x13
 3370 00f7 00       		.byte	0
 3371 00f8 00       		.byte	0
 3372 00f9 16       		.uleb128 0x16
 3373 00fa 05       		.uleb128 0x5
 3374 00fb 00       		.byte	0
 3375 00fc 49       		.uleb128 0x49
 3376 00fd 13       		.uleb128 0x13
 3377 00fe 00       		.byte	0
 3378 00ff 00       		.byte	0
 3379 0100 17       		.uleb128 0x17
 3380 0101 13       		.uleb128 0x13
 3381 0102 01       		.byte	0x1
 3382 0103 03       		.uleb128 0x3
 3383 0104 0E       		.uleb128 0xe
 3384 0105 0B       		.uleb128 0xb
 3385 0106 05       		.uleb128 0x5
 3386 0107 3A       		.uleb128 0x3a
 3387 0108 0B       		.uleb128 0xb
 3388 0109 3B       		.uleb128 0x3b
 3389 010a 05       		.uleb128 0x5
 3390 010b 01       		.uleb128 0x1
 3391 010c 13       		.uleb128 0x13
 3392 010d 00       		.byte	0
 3393 010e 00       		.byte	0
 3394 010f 18       		.uleb128 0x18
 3395 0110 0D       		.uleb128 0xd
 3396 0111 00       		.byte	0
 3397 0112 03       		.uleb128 0x3
 3398 0113 0E       		.uleb128 0xe
 3399 0114 3A       		.uleb128 0x3a
 3400 0115 0B       		.uleb128 0xb
 3401 0116 3B       		.uleb128 0x3b
 3402 0117 05       		.uleb128 0x5
 3403 0118 49       		.uleb128 0x49
 3404 0119 13       		.uleb128 0x13
 3405 011a 38       		.uleb128 0x38
 3406 011b 0B       		.uleb128 0xb
 3407 011c 00       		.byte	0
 3408 011d 00       		.byte	0
 3409 011e 19       		.uleb128 0x19
 3410 011f 0D       		.uleb128 0xd
 3411 0120 00       		.byte	0
 3412 0121 03       		.uleb128 0x3
 3413 0122 0E       		.uleb128 0xe
 3414 0123 3A       		.uleb128 0x3a
 3415 0124 0B       		.uleb128 0xb
 3416 0125 3B       		.uleb128 0x3b
 3417 0126 05       		.uleb128 0x5
 3418 0127 49       		.uleb128 0x49
 3419 0128 13       		.uleb128 0x13
 3420 0129 38       		.uleb128 0x38
ARM GAS  /tmp/ccrJKiGC.s 			page 61


 3421 012a 05       		.uleb128 0x5
 3422 012b 00       		.byte	0
 3423 012c 00       		.byte	0
 3424 012d 1A       		.uleb128 0x1a
 3425 012e 35       		.uleb128 0x35
 3426 012f 00       		.byte	0
 3427 0130 49       		.uleb128 0x49
 3428 0131 13       		.uleb128 0x13
 3429 0132 00       		.byte	0
 3430 0133 00       		.byte	0
 3431 0134 1B       		.uleb128 0x1b
 3432 0135 13       		.uleb128 0x13
 3433 0136 01       		.byte	0x1
 3434 0137 03       		.uleb128 0x3
 3435 0138 0E       		.uleb128 0xe
 3436 0139 0B       		.uleb128 0xb
 3437 013a 0B       		.uleb128 0xb
 3438 013b 3A       		.uleb128 0x3a
 3439 013c 0B       		.uleb128 0xb
 3440 013d 3B       		.uleb128 0x3b
 3441 013e 05       		.uleb128 0x5
 3442 013f 01       		.uleb128 0x1
 3443 0140 13       		.uleb128 0x13
 3444 0141 00       		.byte	0
 3445 0142 00       		.byte	0
 3446 0143 1C       		.uleb128 0x1c
 3447 0144 13       		.uleb128 0x13
 3448 0145 01       		.byte	0x1
 3449 0146 0B       		.uleb128 0xb
 3450 0147 0B       		.uleb128 0xb
 3451 0148 3A       		.uleb128 0x3a
 3452 0149 0B       		.uleb128 0xb
 3453 014a 3B       		.uleb128 0x3b
 3454 014b 05       		.uleb128 0x5
 3455 014c 01       		.uleb128 0x1
 3456 014d 13       		.uleb128 0x13
 3457 014e 00       		.byte	0
 3458 014f 00       		.byte	0
 3459 0150 1D       		.uleb128 0x1d
 3460 0151 17       		.uleb128 0x17
 3461 0152 01       		.byte	0x1
 3462 0153 0B       		.uleb128 0xb
 3463 0154 0B       		.uleb128 0xb
 3464 0155 3A       		.uleb128 0x3a
 3465 0156 0B       		.uleb128 0xb
 3466 0157 3B       		.uleb128 0x3b
 3467 0158 05       		.uleb128 0x5
 3468 0159 01       		.uleb128 0x1
 3469 015a 13       		.uleb128 0x13
 3470 015b 00       		.byte	0
 3471 015c 00       		.byte	0
 3472 015d 1E       		.uleb128 0x1e
 3473 015e 0D       		.uleb128 0xd
 3474 015f 00       		.byte	0
 3475 0160 03       		.uleb128 0x3
 3476 0161 0E       		.uleb128 0xe
 3477 0162 3A       		.uleb128 0x3a
ARM GAS  /tmp/ccrJKiGC.s 			page 62


 3478 0163 0B       		.uleb128 0xb
 3479 0164 3B       		.uleb128 0x3b
 3480 0165 05       		.uleb128 0x5
 3481 0166 49       		.uleb128 0x49
 3482 0167 13       		.uleb128 0x13
 3483 0168 00       		.byte	0
 3484 0169 00       		.byte	0
 3485 016a 1F       		.uleb128 0x1f
 3486 016b 15       		.uleb128 0x15
 3487 016c 01       		.byte	0x1
 3488 016d 27       		.uleb128 0x27
 3489 016e 19       		.uleb128 0x19
 3490 016f 01       		.uleb128 0x1
 3491 0170 13       		.uleb128 0x13
 3492 0171 00       		.byte	0
 3493 0172 00       		.byte	0
 3494 0173 20       		.uleb128 0x20
 3495 0174 34       		.uleb128 0x34
 3496 0175 00       		.byte	0
 3497 0176 03       		.uleb128 0x3
 3498 0177 0E       		.uleb128 0xe
 3499 0178 3A       		.uleb128 0x3a
 3500 0179 0B       		.uleb128 0xb
 3501 017a 3B       		.uleb128 0x3b
 3502 017b 05       		.uleb128 0x5
 3503 017c 49       		.uleb128 0x49
 3504 017d 13       		.uleb128 0x13
 3505 017e 3F       		.uleb128 0x3f
 3506 017f 19       		.uleb128 0x19
 3507 0180 3C       		.uleb128 0x3c
 3508 0181 19       		.uleb128 0x19
 3509 0182 00       		.byte	0
 3510 0183 00       		.byte	0
 3511 0184 21       		.uleb128 0x21
 3512 0185 0D       		.uleb128 0xd
 3513 0186 00       		.byte	0
 3514 0187 03       		.uleb128 0x3
 3515 0188 08       		.uleb128 0x8
 3516 0189 3A       		.uleb128 0x3a
 3517 018a 0B       		.uleb128 0xb
 3518 018b 3B       		.uleb128 0x3b
 3519 018c 05       		.uleb128 0x5
 3520 018d 49       		.uleb128 0x49
 3521 018e 13       		.uleb128 0x13
 3522 018f 38       		.uleb128 0x38
 3523 0190 0B       		.uleb128 0xb
 3524 0191 00       		.byte	0
 3525 0192 00       		.byte	0
 3526 0193 22       		.uleb128 0x22
 3527 0194 34       		.uleb128 0x34
 3528 0195 00       		.byte	0
 3529 0196 03       		.uleb128 0x3
 3530 0197 0E       		.uleb128 0xe
 3531 0198 3A       		.uleb128 0x3a
 3532 0199 0B       		.uleb128 0xb
 3533 019a 3B       		.uleb128 0x3b
 3534 019b 0B       		.uleb128 0xb
ARM GAS  /tmp/ccrJKiGC.s 			page 63


 3535 019c 49       		.uleb128 0x49
 3536 019d 13       		.uleb128 0x13
 3537 019e 3F       		.uleb128 0x3f
 3538 019f 19       		.uleb128 0x19
 3539 01a0 3C       		.uleb128 0x3c
 3540 01a1 19       		.uleb128 0x19
 3541 01a2 00       		.byte	0
 3542 01a3 00       		.byte	0
 3543 01a4 23       		.uleb128 0x23
 3544 01a5 34       		.uleb128 0x34
 3545 01a6 00       		.byte	0
 3546 01a7 03       		.uleb128 0x3
 3547 01a8 08       		.uleb128 0x8
 3548 01a9 3A       		.uleb128 0x3a
 3549 01aa 0B       		.uleb128 0xb
 3550 01ab 3B       		.uleb128 0x3b
 3551 01ac 05       		.uleb128 0x5
 3552 01ad 49       		.uleb128 0x49
 3553 01ae 13       		.uleb128 0x13
 3554 01af 3F       		.uleb128 0x3f
 3555 01b0 19       		.uleb128 0x19
 3556 01b1 3C       		.uleb128 0x3c
 3557 01b2 19       		.uleb128 0x19
 3558 01b3 00       		.byte	0
 3559 01b4 00       		.byte	0
 3560 01b5 24       		.uleb128 0x24
 3561 01b6 21       		.uleb128 0x21
 3562 01b7 00       		.byte	0
 3563 01b8 00       		.byte	0
 3564 01b9 00       		.byte	0
 3565 01ba 25       		.uleb128 0x25
 3566 01bb 34       		.uleb128 0x34
 3567 01bc 00       		.byte	0
 3568 01bd 47       		.uleb128 0x47
 3569 01be 13       		.uleb128 0x13
 3570 01bf 3A       		.uleb128 0x3a
 3571 01c0 0B       		.uleb128 0xb
 3572 01c1 3B       		.uleb128 0x3b
 3573 01c2 0B       		.uleb128 0xb
 3574 01c3 02       		.uleb128 0x2
 3575 01c4 18       		.uleb128 0x18
 3576 01c5 00       		.byte	0
 3577 01c6 00       		.byte	0
 3578 01c7 26       		.uleb128 0x26
 3579 01c8 2E       		.uleb128 0x2e
 3580 01c9 01       		.byte	0x1
 3581 01ca 3F       		.uleb128 0x3f
 3582 01cb 19       		.uleb128 0x19
 3583 01cc 03       		.uleb128 0x3
 3584 01cd 0E       		.uleb128 0xe
 3585 01ce 3A       		.uleb128 0x3a
 3586 01cf 0B       		.uleb128 0xb
 3587 01d0 3B       		.uleb128 0x3b
 3588 01d1 0B       		.uleb128 0xb
 3589 01d2 27       		.uleb128 0x27
 3590 01d3 19       		.uleb128 0x19
 3591 01d4 49       		.uleb128 0x49
ARM GAS  /tmp/ccrJKiGC.s 			page 64


 3592 01d5 13       		.uleb128 0x13
 3593 01d6 11       		.uleb128 0x11
 3594 01d7 01       		.uleb128 0x1
 3595 01d8 12       		.uleb128 0x12
 3596 01d9 06       		.uleb128 0x6
 3597 01da 40       		.uleb128 0x40
 3598 01db 18       		.uleb128 0x18
 3599 01dc 9742     		.uleb128 0x2117
 3600 01de 19       		.uleb128 0x19
 3601 01df 01       		.uleb128 0x1
 3602 01e0 13       		.uleb128 0x13
 3603 01e1 00       		.byte	0
 3604 01e2 00       		.byte	0
 3605 01e3 27       		.uleb128 0x27
 3606 01e4 05       		.uleb128 0x5
 3607 01e5 00       		.byte	0
 3608 01e6 03       		.uleb128 0x3
 3609 01e7 08       		.uleb128 0x8
 3610 01e8 3A       		.uleb128 0x3a
 3611 01e9 0B       		.uleb128 0xb
 3612 01ea 3B       		.uleb128 0x3b
 3613 01eb 0B       		.uleb128 0xb
 3614 01ec 49       		.uleb128 0x49
 3615 01ed 13       		.uleb128 0x13
 3616 01ee 02       		.uleb128 0x2
 3617 01ef 17       		.uleb128 0x17
 3618 01f0 00       		.byte	0
 3619 01f1 00       		.byte	0
 3620 01f2 28       		.uleb128 0x28
 3621 01f3 34       		.uleb128 0x34
 3622 01f4 00       		.byte	0
 3623 01f5 03       		.uleb128 0x3
 3624 01f6 08       		.uleb128 0x8
 3625 01f7 3A       		.uleb128 0x3a
 3626 01f8 0B       		.uleb128 0xb
 3627 01f9 3B       		.uleb128 0x3b
 3628 01fa 0B       		.uleb128 0xb
 3629 01fb 49       		.uleb128 0x49
 3630 01fc 13       		.uleb128 0x13
 3631 01fd 02       		.uleb128 0x2
 3632 01fe 17       		.uleb128 0x17
 3633 01ff 00       		.byte	0
 3634 0200 00       		.byte	0
 3635 0201 29       		.uleb128 0x29
 3636 0202 898201   		.uleb128 0x4109
 3637 0205 00       		.byte	0
 3638 0206 11       		.uleb128 0x11
 3639 0207 01       		.uleb128 0x1
 3640 0208 31       		.uleb128 0x31
 3641 0209 13       		.uleb128 0x13
 3642 020a 00       		.byte	0
 3643 020b 00       		.byte	0
 3644 020c 2A       		.uleb128 0x2a
 3645 020d 05       		.uleb128 0x5
 3646 020e 00       		.byte	0
 3647 020f 03       		.uleb128 0x3
 3648 0210 0E       		.uleb128 0xe
ARM GAS  /tmp/ccrJKiGC.s 			page 65


 3649 0211 3A       		.uleb128 0x3a
 3650 0212 0B       		.uleb128 0xb
 3651 0213 3B       		.uleb128 0x3b
 3652 0214 0B       		.uleb128 0xb
 3653 0215 49       		.uleb128 0x49
 3654 0216 13       		.uleb128 0x13
 3655 0217 02       		.uleb128 0x2
 3656 0218 17       		.uleb128 0x17
 3657 0219 00       		.byte	0
 3658 021a 00       		.byte	0
 3659 021b 2B       		.uleb128 0x2b
 3660 021c 898201   		.uleb128 0x4109
 3661 021f 01       		.byte	0x1
 3662 0220 11       		.uleb128 0x11
 3663 0221 01       		.uleb128 0x1
 3664 0222 31       		.uleb128 0x31
 3665 0223 13       		.uleb128 0x13
 3666 0224 01       		.uleb128 0x1
 3667 0225 13       		.uleb128 0x13
 3668 0226 00       		.byte	0
 3669 0227 00       		.byte	0
 3670 0228 2C       		.uleb128 0x2c
 3671 0229 8A8201   		.uleb128 0x410a
 3672 022c 00       		.byte	0
 3673 022d 02       		.uleb128 0x2
 3674 022e 18       		.uleb128 0x18
 3675 022f 9142     		.uleb128 0x2111
 3676 0231 18       		.uleb128 0x18
 3677 0232 00       		.byte	0
 3678 0233 00       		.byte	0
 3679 0234 2D       		.uleb128 0x2d
 3680 0235 898201   		.uleb128 0x4109
 3681 0238 01       		.byte	0x1
 3682 0239 11       		.uleb128 0x11
 3683 023a 01       		.uleb128 0x1
 3684 023b 31       		.uleb128 0x31
 3685 023c 13       		.uleb128 0x13
 3686 023d 00       		.byte	0
 3687 023e 00       		.byte	0
 3688 023f 2E       		.uleb128 0x2e
 3689 0240 34       		.uleb128 0x34
 3690 0241 00       		.byte	0
 3691 0242 03       		.uleb128 0x3
 3692 0243 0E       		.uleb128 0xe
 3693 0244 49       		.uleb128 0x49
 3694 0245 13       		.uleb128 0x13
 3695 0246 34       		.uleb128 0x34
 3696 0247 19       		.uleb128 0x19
 3697 0248 00       		.byte	0
 3698 0249 00       		.byte	0
 3699 024a 2F       		.uleb128 0x2f
 3700 024b 1D       		.uleb128 0x1d
 3701 024c 01       		.byte	0x1
 3702 024d 31       		.uleb128 0x31
 3703 024e 13       		.uleb128 0x13
 3704 024f 11       		.uleb128 0x11
 3705 0250 01       		.uleb128 0x1
ARM GAS  /tmp/ccrJKiGC.s 			page 66


 3706 0251 12       		.uleb128 0x12
 3707 0252 06       		.uleb128 0x6
 3708 0253 58       		.uleb128 0x58
 3709 0254 0B       		.uleb128 0xb
 3710 0255 59       		.uleb128 0x59
 3711 0256 0B       		.uleb128 0xb
 3712 0257 01       		.uleb128 0x1
 3713 0258 13       		.uleb128 0x13
 3714 0259 00       		.byte	0
 3715 025a 00       		.byte	0
 3716 025b 30       		.uleb128 0x30
 3717 025c 1D       		.uleb128 0x1d
 3718 025d 01       		.byte	0x1
 3719 025e 31       		.uleb128 0x31
 3720 025f 13       		.uleb128 0x13
 3721 0260 11       		.uleb128 0x11
 3722 0261 01       		.uleb128 0x1
 3723 0262 12       		.uleb128 0x12
 3724 0263 06       		.uleb128 0x6
 3725 0264 58       		.uleb128 0x58
 3726 0265 0B       		.uleb128 0xb
 3727 0266 59       		.uleb128 0x59
 3728 0267 05       		.uleb128 0x5
 3729 0268 01       		.uleb128 0x1
 3730 0269 13       		.uleb128 0x13
 3731 026a 00       		.byte	0
 3732 026b 00       		.byte	0
 3733 026c 31       		.uleb128 0x31
 3734 026d 1D       		.uleb128 0x1d
 3735 026e 01       		.byte	0x1
 3736 026f 31       		.uleb128 0x31
 3737 0270 13       		.uleb128 0x13
 3738 0271 11       		.uleb128 0x11
 3739 0272 01       		.uleb128 0x1
 3740 0273 12       		.uleb128 0x12
 3741 0274 06       		.uleb128 0x6
 3742 0275 58       		.uleb128 0x58
 3743 0276 0B       		.uleb128 0xb
 3744 0277 59       		.uleb128 0x59
 3745 0278 05       		.uleb128 0x5
 3746 0279 00       		.byte	0
 3747 027a 00       		.byte	0
 3748 027b 32       		.uleb128 0x32
 3749 027c 05       		.uleb128 0x5
 3750 027d 00       		.byte	0
 3751 027e 31       		.uleb128 0x31
 3752 027f 13       		.uleb128 0x13
 3753 0280 02       		.uleb128 0x2
 3754 0281 17       		.uleb128 0x17
 3755 0282 00       		.byte	0
 3756 0283 00       		.byte	0
 3757 0284 33       		.uleb128 0x33
 3758 0285 0B       		.uleb128 0xb
 3759 0286 01       		.byte	0x1
 3760 0287 11       		.uleb128 0x11
 3761 0288 01       		.uleb128 0x1
 3762 0289 12       		.uleb128 0x12
ARM GAS  /tmp/ccrJKiGC.s 			page 67


 3763 028a 06       		.uleb128 0x6
 3764 028b 00       		.byte	0
 3765 028c 00       		.byte	0
 3766 028d 34       		.uleb128 0x34
 3767 028e 34       		.uleb128 0x34
 3768 028f 00       		.byte	0
 3769 0290 31       		.uleb128 0x31
 3770 0291 13       		.uleb128 0x13
 3771 0292 00       		.byte	0
 3772 0293 00       		.byte	0
 3773 0294 35       		.uleb128 0x35
 3774 0295 1D       		.uleb128 0x1d
 3775 0296 01       		.byte	0x1
 3776 0297 31       		.uleb128 0x31
 3777 0298 13       		.uleb128 0x13
 3778 0299 11       		.uleb128 0x11
 3779 029a 01       		.uleb128 0x1
 3780 029b 12       		.uleb128 0x12
 3781 029c 06       		.uleb128 0x6
 3782 029d 58       		.uleb128 0x58
 3783 029e 0B       		.uleb128 0xb
 3784 029f 59       		.uleb128 0x59
 3785 02a0 0B       		.uleb128 0xb
 3786 02a1 00       		.byte	0
 3787 02a2 00       		.byte	0
 3788 02a3 36       		.uleb128 0x36
 3789 02a4 2E       		.uleb128 0x2e
 3790 02a5 01       		.byte	0x1
 3791 02a6 03       		.uleb128 0x3
 3792 02a7 0E       		.uleb128 0xe
 3793 02a8 3A       		.uleb128 0x3a
 3794 02a9 0B       		.uleb128 0xb
 3795 02aa 3B       		.uleb128 0x3b
 3796 02ab 0B       		.uleb128 0xb
 3797 02ac 27       		.uleb128 0x27
 3798 02ad 19       		.uleb128 0x19
 3799 02ae 49       		.uleb128 0x49
 3800 02af 13       		.uleb128 0x13
 3801 02b0 20       		.uleb128 0x20
 3802 02b1 0B       		.uleb128 0xb
 3803 02b2 01       		.uleb128 0x1
 3804 02b3 13       		.uleb128 0x13
 3805 02b4 00       		.byte	0
 3806 02b5 00       		.byte	0
 3807 02b6 37       		.uleb128 0x37
 3808 02b7 05       		.uleb128 0x5
 3809 02b8 00       		.byte	0
 3810 02b9 03       		.uleb128 0x3
 3811 02ba 08       		.uleb128 0x8
 3812 02bb 3A       		.uleb128 0x3a
 3813 02bc 0B       		.uleb128 0xb
 3814 02bd 3B       		.uleb128 0x3b
 3815 02be 0B       		.uleb128 0xb
 3816 02bf 49       		.uleb128 0x49
 3817 02c0 13       		.uleb128 0x13
 3818 02c1 00       		.byte	0
 3819 02c2 00       		.byte	0
ARM GAS  /tmp/ccrJKiGC.s 			page 68


 3820 02c3 38       		.uleb128 0x38
 3821 02c4 2E       		.uleb128 0x2e
 3822 02c5 01       		.byte	0x1
 3823 02c6 03       		.uleb128 0x3
 3824 02c7 0E       		.uleb128 0xe
 3825 02c8 3A       		.uleb128 0x3a
 3826 02c9 0B       		.uleb128 0xb
 3827 02ca 3B       		.uleb128 0x3b
 3828 02cb 05       		.uleb128 0x5
 3829 02cc 27       		.uleb128 0x27
 3830 02cd 19       		.uleb128 0x19
 3831 02ce 49       		.uleb128 0x49
 3832 02cf 13       		.uleb128 0x13
 3833 02d0 20       		.uleb128 0x20
 3834 02d1 0B       		.uleb128 0xb
 3835 02d2 01       		.uleb128 0x1
 3836 02d3 13       		.uleb128 0x13
 3837 02d4 00       		.byte	0
 3838 02d5 00       		.byte	0
 3839 02d6 39       		.uleb128 0x39
 3840 02d7 05       		.uleb128 0x5
 3841 02d8 00       		.byte	0
 3842 02d9 03       		.uleb128 0x3
 3843 02da 08       		.uleb128 0x8
 3844 02db 3A       		.uleb128 0x3a
 3845 02dc 0B       		.uleb128 0xb
 3846 02dd 3B       		.uleb128 0x3b
 3847 02de 05       		.uleb128 0x5
 3848 02df 49       		.uleb128 0x49
 3849 02e0 13       		.uleb128 0x13
 3850 02e1 00       		.byte	0
 3851 02e2 00       		.byte	0
 3852 02e3 3A       		.uleb128 0x3a
 3853 02e4 2E       		.uleb128 0x2e
 3854 02e5 01       		.byte	0x1
 3855 02e6 03       		.uleb128 0x3
 3856 02e7 0E       		.uleb128 0xe
 3857 02e8 3A       		.uleb128 0x3a
 3858 02e9 0B       		.uleb128 0xb
 3859 02ea 3B       		.uleb128 0x3b
 3860 02eb 05       		.uleb128 0x5
 3861 02ec 27       		.uleb128 0x27
 3862 02ed 19       		.uleb128 0x19
 3863 02ee 20       		.uleb128 0x20
 3864 02ef 0B       		.uleb128 0xb
 3865 02f0 01       		.uleb128 0x1
 3866 02f1 13       		.uleb128 0x13
 3867 02f2 00       		.byte	0
 3868 02f3 00       		.byte	0
 3869 02f4 3B       		.uleb128 0x3b
 3870 02f5 34       		.uleb128 0x34
 3871 02f6 00       		.byte	0
 3872 02f7 03       		.uleb128 0x3
 3873 02f8 0E       		.uleb128 0xe
 3874 02f9 49       		.uleb128 0x49
 3875 02fa 13       		.uleb128 0x13
 3876 02fb 34       		.uleb128 0x34
ARM GAS  /tmp/ccrJKiGC.s 			page 69


 3877 02fc 19       		.uleb128 0x19
 3878 02fd 1C       		.uleb128 0x1c
 3879 02fe 0E       		.uleb128 0xe
 3880 02ff 00       		.byte	0
 3881 0300 00       		.byte	0
 3882 0301 3C       		.uleb128 0x3c
 3883 0302 2E       		.uleb128 0x2e
 3884 0303 00       		.byte	0
 3885 0304 03       		.uleb128 0x3
 3886 0305 0E       		.uleb128 0xe
 3887 0306 3A       		.uleb128 0x3a
 3888 0307 0B       		.uleb128 0xb
 3889 0308 3B       		.uleb128 0x3b
 3890 0309 05       		.uleb128 0x5
 3891 030a 27       		.uleb128 0x27
 3892 030b 19       		.uleb128 0x19
 3893 030c 20       		.uleb128 0x20
 3894 030d 0B       		.uleb128 0xb
 3895 030e 00       		.byte	0
 3896 030f 00       		.byte	0
 3897 0310 3D       		.uleb128 0x3d
 3898 0311 05       		.uleb128 0x5
 3899 0312 00       		.byte	0
 3900 0313 03       		.uleb128 0x3
 3901 0314 0E       		.uleb128 0xe
 3902 0315 3A       		.uleb128 0x3a
 3903 0316 0B       		.uleb128 0xb
 3904 0317 3B       		.uleb128 0x3b
 3905 0318 05       		.uleb128 0x5
 3906 0319 49       		.uleb128 0x49
 3907 031a 13       		.uleb128 0x13
 3908 031b 00       		.byte	0
 3909 031c 00       		.byte	0
 3910 031d 3E       		.uleb128 0x3e
 3911 031e 2E       		.uleb128 0x2e
 3912 031f 00       		.byte	0
 3913 0320 3F       		.uleb128 0x3f
 3914 0321 19       		.uleb128 0x19
 3915 0322 3C       		.uleb128 0x3c
 3916 0323 19       		.uleb128 0x19
 3917 0324 6E       		.uleb128 0x6e
 3918 0325 0E       		.uleb128 0xe
 3919 0326 03       		.uleb128 0x3
 3920 0327 0E       		.uleb128 0xe
 3921 0328 3A       		.uleb128 0x3a
 3922 0329 0B       		.uleb128 0xb
 3923 032a 3B       		.uleb128 0x3b
 3924 032b 0B       		.uleb128 0xb
 3925 032c 00       		.byte	0
 3926 032d 00       		.byte	0
 3927 032e 00       		.byte	0
 3928              		.section	.debug_loc,"",%progbits
 3929              	.Ldebug_loc0:
 3930              	.LLST11:
 3931 0000 00000000 		.4byte	.LVL27
 3932 0004 07000000 		.4byte	.LVL28-1
 3933 0008 0100     		.2byte	0x1
ARM GAS  /tmp/ccrJKiGC.s 			page 70


 3934 000a 50       		.byte	0x50
 3935 000b 07000000 		.4byte	.LVL28-1
 3936 000f 18000000 		.4byte	.LFE294
 3937 0013 0100     		.2byte	0x1
 3938 0015 54       		.byte	0x54
 3939 0016 00000000 		.4byte	0
 3940 001a 00000000 		.4byte	0
 3941              	.LLST12:
 3942 001e 08000000 		.4byte	.LVL28
 3943 0022 11000000 		.4byte	.LVL29-1
 3944 0026 0100     		.2byte	0x1
 3945 0028 50       		.byte	0x50
 3946 0029 12000000 		.4byte	.LVL29
 3947 002d 18000000 		.4byte	.LFE294
 3948 0031 0100     		.2byte	0x1
 3949 0033 50       		.byte	0x50
 3950 0034 00000000 		.4byte	0
 3951 0038 00000000 		.4byte	0
 3952              	.LLST9:
 3953 003c 00000000 		.4byte	.LVL24
 3954 0040 07000000 		.4byte	.LVL25-1
 3955 0044 0100     		.2byte	0x1
 3956 0046 50       		.byte	0x50
 3957 0047 07000000 		.4byte	.LVL25-1
 3958 004b 16000000 		.4byte	.LFE293
 3959 004f 0100     		.2byte	0x1
 3960 0051 54       		.byte	0x54
 3961 0052 00000000 		.4byte	0
 3962 0056 00000000 		.4byte	0
 3963              	.LLST10:
 3964 005a 08000000 		.4byte	.LVL25
 3965 005e 0F000000 		.4byte	.LVL26-1
 3966 0062 0100     		.2byte	0x1
 3967 0064 50       		.byte	0x50
 3968 0065 10000000 		.4byte	.LVL26
 3969 0069 16000000 		.4byte	.LFE293
 3970 006d 0100     		.2byte	0x1
 3971 006f 50       		.byte	0x50
 3972 0070 00000000 		.4byte	0
 3973 0074 00000000 		.4byte	0
 3974              	.LLST7:
 3975 0078 00000000 		.4byte	.LVL16
 3976 007c 07000000 		.4byte	.LVL17-1
 3977 0080 0100     		.2byte	0x1
 3978 0082 50       		.byte	0x50
 3979 0083 07000000 		.4byte	.LVL17-1
 3980 0087 24000000 		.4byte	.LFE292
 3981 008b 0100     		.2byte	0x1
 3982 008d 55       		.byte	0x55
 3983 008e 00000000 		.4byte	0
 3984 0092 00000000 		.4byte	0
 3985              	.LLST8:
 3986 0096 0A000000 		.4byte	.LVL18
 3987 009a 0E000000 		.4byte	.LVL19
 3988 009e 0100     		.2byte	0x1
 3989 00a0 50       		.byte	0x50
 3990 00a1 0E000000 		.4byte	.LVL19
ARM GAS  /tmp/ccrJKiGC.s 			page 71


 3991 00a5 1A000000 		.4byte	.LVL21
 3992 00a9 0100     		.2byte	0x1
 3993 00ab 54       		.byte	0x54
 3994 00ac 1A000000 		.4byte	.LVL21
 3995 00b0 20000000 		.4byte	.LVL23
 3996 00b4 0100     		.2byte	0x1
 3997 00b6 50       		.byte	0x50
 3998 00b7 20000000 		.4byte	.LVL23
 3999 00bb 24000000 		.4byte	.LFE292
 4000 00bf 0100     		.2byte	0x1
 4001 00c1 54       		.byte	0x54
 4002 00c2 00000000 		.4byte	0
 4003 00c6 00000000 		.4byte	0
 4004              	.LLST3:
 4005 00ca 00000000 		.4byte	.LVL7
 4006 00ce 0D000000 		.4byte	.LVL9-1
 4007 00d2 0100     		.2byte	0x1
 4008 00d4 50       		.byte	0x50
 4009 00d5 0D000000 		.4byte	.LVL9-1
 4010 00d9 36000000 		.4byte	.LVL15
 4011 00dd 0100     		.2byte	0x1
 4012 00df 55       		.byte	0x55
 4013 00e0 36000000 		.4byte	.LVL15
 4014 00e4 3C000000 		.4byte	.LFE291
 4015 00e8 0400     		.2byte	0x4
 4016 00ea F3       		.byte	0xf3
 4017 00eb 01       		.uleb128 0x1
 4018 00ec 50       		.byte	0x50
 4019 00ed 9F       		.byte	0x9f
 4020 00ee 00000000 		.4byte	0
 4021 00f2 00000000 		.4byte	0
 4022              	.LLST4:
 4023 00f6 10000000 		.4byte	.LVL10
 4024 00fa 36000000 		.4byte	.LVL15
 4025 00fe 0100     		.2byte	0x1
 4026 0100 54       		.byte	0x54
 4027 0101 36000000 		.4byte	.LVL15
 4028 0105 3C000000 		.4byte	.LFE291
 4029 0109 0100     		.2byte	0x1
 4030 010b 50       		.byte	0x50
 4031 010c 00000000 		.4byte	0
 4032 0110 00000000 		.4byte	0
 4033              	.LLST5:
 4034 0114 00000000 		.4byte	.LVL7
 4035 0118 0A000000 		.4byte	.LVL8
 4036 011c 0300     		.2byte	0x3
 4037 011e 08       		.byte	0x8
 4038 011f 20       		.byte	0x20
 4039 0120 9F       		.byte	0x9f
 4040 0121 00000000 		.4byte	0
 4041 0125 00000000 		.4byte	0
 4042              	.LLST6:
 4043 0129 26000000 		.4byte	.LVL12
 4044 012d 2C000000 		.4byte	.LVL13
 4045 0131 0200     		.2byte	0x2
 4046 0133 30       		.byte	0x30
 4047 0134 9F       		.byte	0x9f
ARM GAS  /tmp/ccrJKiGC.s 			page 72


 4048 0135 00000000 		.4byte	0
 4049 0139 00000000 		.4byte	0
 4050              	.LLST0:
 4051 013d 10000000 		.4byte	.LVL3
 4052 0141 28000000 		.4byte	.LVL6
 4053 0145 0100     		.2byte	0x1
 4054 0147 54       		.byte	0x54
 4055 0148 28000000 		.4byte	.LVL6
 4056 014c 2C000000 		.4byte	.LFE290
 4057 0150 0100     		.2byte	0x1
 4058 0152 50       		.byte	0x50
 4059 0153 00000000 		.4byte	0
 4060 0157 00000000 		.4byte	0
 4061              	.LLST1:
 4062 015b 00000000 		.4byte	.LVL0
 4063 015f 08000000 		.4byte	.LVL1
 4064 0163 0300     		.2byte	0x3
 4065 0165 08       		.byte	0x8
 4066 0166 20       		.byte	0x20
 4067 0167 9F       		.byte	0x9f
 4068 0168 00000000 		.4byte	0
 4069 016c 00000000 		.4byte	0
 4070              	.LLST2:
 4071 0170 1E000000 		.4byte	.LVL4
 4072 0174 24000000 		.4byte	.LVL5
 4073 0178 0200     		.2byte	0x2
 4074 017a 30       		.byte	0x30
 4075 017b 9F       		.byte	0x9f
 4076 017c 00000000 		.4byte	0
 4077 0180 00000000 		.4byte	0
 4078              		.section	.debug_aranges,"",%progbits
 4079 0000 3C000000 		.4byte	0x3c
 4080 0004 0200     		.2byte	0x2
 4081 0006 00000000 		.4byte	.Ldebug_info0
 4082 000a 04       		.byte	0x4
 4083 000b 00       		.byte	0
 4084 000c 0000     		.2byte	0
 4085 000e 0000     		.2byte	0
 4086 0010 00000000 		.4byte	.LFB290
 4087 0014 2C000000 		.4byte	.LFE290-.LFB290
 4088 0018 00000000 		.4byte	.LFB291
 4089 001c 3C000000 		.4byte	.LFE291-.LFB291
 4090 0020 00000000 		.4byte	.LFB292
 4091 0024 24000000 		.4byte	.LFE292-.LFB292
 4092 0028 00000000 		.4byte	.LFB293
 4093 002c 16000000 		.4byte	.LFE293-.LFB293
 4094 0030 00000000 		.4byte	.LFB294
 4095 0034 18000000 		.4byte	.LFE294-.LFB294
 4096 0038 00000000 		.4byte	0
 4097 003c 00000000 		.4byte	0
 4098              		.section	.debug_ranges,"",%progbits
 4099              	.Ldebug_ranges0:
 4100 0000 00000000 		.4byte	.LFB290
 4101 0004 2C000000 		.4byte	.LFE290
 4102 0008 00000000 		.4byte	.LFB291
 4103 000c 3C000000 		.4byte	.LFE291
 4104 0010 00000000 		.4byte	.LFB292
ARM GAS  /tmp/ccrJKiGC.s 			page 73


 4105 0014 24000000 		.4byte	.LFE292
 4106 0018 00000000 		.4byte	.LFB293
 4107 001c 16000000 		.4byte	.LFE293
 4108 0020 00000000 		.4byte	.LFB294
 4109 0024 18000000 		.4byte	.LFE294
 4110 0028 00000000 		.4byte	0
 4111 002c 00000000 		.4byte	0
 4112              		.section	.debug_line,"",%progbits
 4113              	.Ldebug_line0:
 4114 0000 8D040000 		.section	.debug_str,"MS",%progbits,1
 4114      0200D703 
 4114      00000201 
 4114      FB0E0D00 
 4114      01010101 
 4115              	.LASF230:
 4116 0000 6F66665F 		.ascii	"off_ctx\000"
 4116      63747800 
 4117              	.LASF4:
 4118 0008 73697A65 		.ascii	"size_t\000"
 4118      5F7400
 4119              	.LASF229:
 4120 000f 6F66665F 		.ascii	"off_prio\000"
 4120      7072696F 
 4120      00
 4121              	.LASF22:
 4122 0018 73697A65 		.ascii	"sizetype\000"
 4122      74797065 
 4122      00
 4123              	.LASF125:
 4124 0021 5F5F6C6F 		.ascii	"__locale_t\000"
 4124      63616C65 
 4124      5F7400
 4125              	.LASF24:
 4126 002c 5F5F7661 		.ascii	"__value\000"
 4126      6C756500 
 4127              	.LASF188:
 4128 0034 73797374 		.ascii	"systime_t\000"
 4128      696D655F 
 4128      7400
 4129              	.LASF238:
 4130 003e 6F66665F 		.ascii	"off_preempt\000"
 4130      70726565 
 4130      6D707400 
 4131              	.LASF93:
 4132 004a 5F5F7366 		.ascii	"__sf\000"
 4132      00
 4133              	.LASF271:
 4134 004f 63685265 		.ascii	"chRegNextThread\000"
 4134      674E6578 
 4134      74546872 
 4134      65616400 
 4135              	.LASF220:
 4136 005f 6F776E65 		.ascii	"owner\000"
 4136      7200
 4137              	.LASF60:
 4138 0065 5F726561 		.ascii	"_read\000"
 4138      6400
ARM GAS  /tmp/ccrJKiGC.s 			page 74


 4139              	.LASF138:
 4140 006b 74707269 		.ascii	"tprio_t\000"
 4140      6F5F7400 
 4141              	.LASF241:
 4142 0073 63685F64 		.ascii	"ch_debug\000"
 4142      65627567 
 4142      00
 4143              	.LASF252:
 4144 007c 70726F76 		.ascii	"provider\000"
 4144      69646572 
 4144      00
 4145              	.LASF61:
 4146 0085 5F777269 		.ascii	"_write\000"
 4146      746500
 4147              	.LASF130:
 4148 008c 696E7433 		.ascii	"int32_t\000"
 4148      325F7400 
 4149              	.LASF104:
 4150 0094 5F617363 		.ascii	"_asctime_buf\000"
 4150      74696D65 
 4150      5F627566 
 4150      00
 4151              	.LASF87:
 4152 00a1 5F637674 		.ascii	"_cvtlen\000"
 4152      6C656E00 
 4153              	.LASF171:
 4154 00a9 76746675 		.ascii	"vtfunc_t\000"
 4154      6E635F74 
 4154      00
 4155              	.LASF288:
 4156 00b2 5F5F6675 		.ascii	"__func__\000"
 4156      6E635F5F 
 4156      00
 4157              	.LASF177:
 4158 00bb 63685F76 		.ascii	"ch_virtual_timers_list\000"
 4158      69727475 
 4158      616C5F74 
 4158      696D6572 
 4158      735F6C69 
 4159              	.LASF123:
 4160 00d2 5F756E75 		.ascii	"_unused\000"
 4160      73656400 
 4161              	.LASF34:
 4162 00da 5F5F746D 		.ascii	"__tm\000"
 4162      00
 4163              	.LASF119:
 4164 00df 5F776373 		.ascii	"_wcsrtombs_state\000"
 4164      72746F6D 
 4164      62735F73 
 4164      74617465 
 4164      00
 4165              	.LASF65:
 4166 00f0 5F6E6275 		.ascii	"_nbuf\000"
 4166      6600
 4167              	.LASF35:
 4168 00f6 5F5F746D 		.ascii	"__tm_sec\000"
 4168      5F736563 
ARM GAS  /tmp/ccrJKiGC.s 			page 75


 4168      00
 4169              	.LASF112:
 4170 00ff 5F6C3634 		.ascii	"_l64a_buf\000"
 4170      615F6275 
 4170      6600
 4171              	.LASF254:
 4172 0109 63685F64 		.ascii	"ch_dyn_element\000"
 4172      796E5F65 
 4172      6C656D65 
 4172      6E7400
 4173              	.LASF151:
 4174 0118 73746174 		.ascii	"state\000"
 4174      6500
 4175              	.LASF69:
 4176 011e 5F6C6F63 		.ascii	"_lock\000"
 4176      6B00
 4177              	.LASF160:
 4178 0124 73746174 		.ascii	"stats\000"
 4178      7300
 4179              	.LASF280:
 4180 012a 62617365 		.ascii	"basePri\000"
 4180      50726900 
 4181              	.LASF100:
 4182 0132 5F6D756C 		.ascii	"_mult\000"
 4182      7400
 4183              	.LASF259:
 4184 0138 6F626A5F 		.ascii	"obj_list\000"
 4184      6C697374 
 4184      00
 4185              	.LASF284:
 4186 0141 63685468 		.ascii	"chThdRelease\000"
 4186      6452656C 
 4186      65617365 
 4186      00
 4187              	.LASF204:
 4188 014e 74696D65 		.ascii	"time_measurement_t\000"
 4188      5F6D6561 
 4188      73757265 
 4188      6D656E74 
 4188      5F7400
 4189              	.LASF232:
 4190 0161 6F66665F 		.ascii	"off_older\000"
 4190      6F6C6465 
 4190      7200
 4191              	.LASF146:
 4192 016b 7072696F 		.ascii	"prio\000"
 4192      00
 4193              	.LASF272:
 4194 0170 63685265 		.ascii	"chRegFirstThread\000"
 4194      67466972 
 4194      73745468 
 4194      72656164 
 4194      00
 4195              	.LASF20:
 4196 0181 5F5F7763 		.ascii	"__wch\000"
 4196      6800
 4197              	.LASF211:
ARM GAS  /tmp/ccrJKiGC.s 			page 76


 4198 0187 65786974 		.ascii	"exitcode\000"
 4198      636F6465 
 4198      00
 4199              	.LASF5:
 4200 0190 5F5F7569 		.ascii	"__uint8_t\000"
 4200      6E74385F 
 4200      7400
 4201              	.LASF57:
 4202 019a 5F66696C 		.ascii	"_file\000"
 4202      6500
 4203              	.LASF44:
 4204 01a0 5F6F6E5F 		.ascii	"_on_exit_args\000"
 4204      65786974 
 4204      5F617267 
 4204      7300
 4205              	.LASF246:
 4206 01ae 656E646D 		.ascii	"endmem\000"
 4206      656D00
 4207              	.LASF115:
 4208 01b5 5F6D6272 		.ascii	"_mbrlen_state\000"
 4208      6C656E5F 
 4208      73746174 
 4208      6500
 4209              	.LASF11:
 4210 01c3 6C6F6E67 		.ascii	"long int\000"
 4210      20696E74 
 4210      00
 4211              	.LASF276:
 4212 01cc 706F7274 		.ascii	"port_unlock\000"
 4212      5F756E6C 
 4212      6F636B00 
 4213              	.LASF126:
 4214 01d8 5F696D70 		.ascii	"_impure_ptr\000"
 4214      7572655F 
 4214      70747200 
 4215              	.LASF84:
 4216 01e4 5F726573 		.ascii	"_result_k\000"
 4216      756C745F 
 4216      6B00
 4217              	.LASF54:
 4218 01ee 5F73697A 		.ascii	"_size\000"
 4218      6500
 4219              	.LASF223:
 4220 01f4 7A65726F 		.ascii	"zero\000"
 4220      00
 4221              	.LASF105:
 4222 01f9 5F6C6F63 		.ascii	"_localtime_buf\000"
 4222      616C7469 
 4222      6D655F62 
 4222      756600
 4223              	.LASF136:
 4224 0208 74737461 		.ascii	"tstate_t\000"
 4224      74655F74 
 4224      00
 4225              	.LASF134:
 4226 0211 72747469 		.ascii	"rttime_t\000"
 4226      6D655F74 
ARM GAS  /tmp/ccrJKiGC.s 			page 77


 4226      00
 4227              	.LASF165:
 4228 021a 74687265 		.ascii	"threads_queue_t\000"
 4228      6164735F 
 4228      71756575 
 4228      655F7400 
 4229              	.LASF194:
 4230 022a 72656761 		.ascii	"regarm_t\000"
 4230      726D5F74 
 4230      00
 4231              	.LASF39:
 4232 0233 5F5F746D 		.ascii	"__tm_mon\000"
 4232      5F6D6F6E 
 4232      00
 4233              	.LASF273:
 4234 023c 63685265 		.ascii	"chRegGetThreadNameX\000"
 4234      67476574 
 4234      54687265 
 4234      61644E61 
 4234      6D655800 
 4235              	.LASF260:
 4236 0250 6F626A5F 		.ascii	"obj_pool\000"
 4236      706F6F6C 
 4236      00
 4237              	.LASF283:
 4238 0259 5F737461 		.ascii	"_stats_stop_measure_crit_thd\000"
 4238      74735F73 
 4238      746F705F 
 4238      6D656173 
 4238      7572655F 
 4239              	.LASF102:
 4240 0276 5F756E75 		.ascii	"_unused_rand\000"
 4240      7365645F 
 4240      72616E64 
 4240      00
 4241              	.LASF247:
 4242 0283 6D656D63 		.ascii	"memcore_t\000"
 4242      6F72655F 
 4242      7400
 4243              	.LASF3:
 4244 028d 7369676E 		.ascii	"signed char\000"
 4244      65642063 
 4244      68617200 
 4245              	.LASF217:
 4246 0299 65776D61 		.ascii	"ewmask\000"
 4246      736B00
 4247              	.LASF128:
 4248 02a0 75696E74 		.ascii	"uint8_t\000"
 4248      385F7400 
 4249              	.LASF140:
 4250 02a8 6576656E 		.ascii	"eventmask_t\000"
 4250      746D6173 
 4250      6B5F7400 
 4251              	.LASF213:
 4252 02b4 77747472 		.ascii	"wttrp\000"
 4252      7000
 4253              	.LASF269:
ARM GAS  /tmp/ccrJKiGC.s 			page 78


 4254 02ba 63685265 		.ascii	"chRegFindThreadByPointer\000"
 4254      6746696E 
 4254      64546872 
 4254      65616442 
 4254      79506F69 
 4255              	.LASF6:
 4256 02d3 756E7369 		.ascii	"unsigned char\000"
 4256      676E6564 
 4256      20636861 
 4256      7200
 4257              	.LASF178:
 4258 02e1 6C617374 		.ascii	"lasttime\000"
 4258      74696D65 
 4258      00
 4259              	.LASF181:
 4260 02ea 70616E69 		.ascii	"panic_msg\000"
 4260      635F6D73 
 4260      6700
 4261              	.LASF79:
 4262 02f4 5F756E73 		.ascii	"_unspecified_locale_info\000"
 4262      70656369 
 4262      66696564 
 4262      5F6C6F63 
 4262      616C655F 
 4263              	.LASF72:
 4264 030d 5F726565 		.ascii	"_reent\000"
 4264      6E7400
 4265              	.LASF127:
 4266 0314 5F676C6F 		.ascii	"_global_impure_ptr\000"
 4266      62616C5F 
 4266      696D7075 
 4266      72655F70 
 4266      747200
 4267              	.LASF179:
 4268 0327 73797374 		.ascii	"system_debug_t\000"
 4268      656D5F64 
 4268      65627567 
 4268      5F7400
 4269              	.LASF243:
 4270 0336 5F426F6F 		.ascii	"_Bool\000"
 4270      6C00
 4271              	.LASF27:
 4272 033c 63686172 		.ascii	"char\000"
 4272      00
 4273              	.LASF51:
 4274 0341 5F666E73 		.ascii	"_fns\000"
 4274      00
 4275              	.LASF63:
 4276 0346 5F636C6F 		.ascii	"_close\000"
 4276      736500
 4277              	.LASF262:
 4278 034d 73656D5F 		.ascii	"sem_list\000"
 4278      6C697374 
 4278      00
 4279              	.LASF8:
 4280 0356 5F5F7569 		.ascii	"__uint16_t\000"
 4280      6E743136 
ARM GAS  /tmp/ccrJKiGC.s 			page 79


 4280      5F7400
 4281              	.LASF212:
 4282 0361 77746F62 		.ascii	"wtobjp\000"
 4282      6A7000
 4283              	.LASF206:
 4284 0368 6E5F6374 		.ascii	"n_ctxswc\000"
 4284      78737763 
 4284      00
 4285              	.LASF74:
 4286 0371 5F737464 		.ascii	"_stdin\000"
 4286      696E00
 4287              	.LASF285:
 4288 0378 474E5520 		.ascii	"GNU C11 6.3.1 20170620 (release) [ARM/embedded-6-br"
 4288      43313120 
 4288      362E332E 
 4288      31203230 
 4288      31373036 
 4289 03ab 616E6368 		.ascii	"anch revision 249437] -mcpu=cortex-m4 -mfloat-abi=h"
 4289      20726576 
 4289      6973696F 
 4289      6E203234 
 4289      39343337 
 4290 03de 61726420 		.ascii	"ard -mfpu=fpv4-sp-d16 -mno-thumb-interwork -mthumb "
 4290      2D6D6670 
 4290      753D6670 
 4290      76342D73 
 4290      702D6431 
 4291 0411 2D67202D 		.ascii	"-g -Os -fomit-frame-pointer -falign-functions=16 -f"
 4291      4F73202D 
 4291      666F6D69 
 4291      742D6672 
 4291      616D652D 
 4292 0444 66756E63 		.ascii	"function-sections -fdata-sections -fno-common -fsin"
 4292      74696F6E 
 4292      2D736563 
 4292      74696F6E 
 4292      73202D66 
 4293 0477 676C652D 		.ascii	"gle-precision-constant\000"
 4293      70726563 
 4293      6973696F 
 4293      6E2D636F 
 4293      6E737461 
 4294              	.LASF152:
 4295 048e 666C6167 		.ascii	"flags\000"
 4295      7300
 4296              	.LASF195:
 4297 0494 73746B61 		.ascii	"stkalign_t\000"
 4297      6C69676E 
 4297      5F7400
 4298              	.LASF281:
 4299 049f 73747263 		.ascii	"strcmp\000"
 4299      6D7000
 4300              	.LASF159:
 4301 04a6 6D706F6F 		.ascii	"mpool\000"
 4301      6C00
 4302              	.LASF201:
 4303 04ac 776F7273 		.ascii	"worst\000"
ARM GAS  /tmp/ccrJKiGC.s 			page 80


 4303      7400
 4304              	.LASF226:
 4305 04b2 70747273 		.ascii	"ptrsize\000"
 4305      697A6500 
 4306              	.LASF239:
 4307 04ba 6F66665F 		.ascii	"off_time\000"
 4307      74696D65 
 4307      00
 4308              	.LASF141:
 4309 04c3 636E745F 		.ascii	"cnt_t\000"
 4309      7400
 4310              	.LASF59:
 4311 04c9 5F636F6F 		.ascii	"_cookie\000"
 4311      6B696500 
 4312              	.LASF216:
 4313 04d1 77746D74 		.ascii	"wtmtxp\000"
 4313      787000
 4314              	.LASF32:
 4315 04d8 5F776473 		.ascii	"_wds\000"
 4315      00
 4316              	.LASF169:
 4317 04dd 63685F72 		.ascii	"ch_ready_list\000"
 4317      65616479 
 4317      5F6C6973 
 4317      7400
 4318              	.LASF124:
 4319 04eb 5F5F6C6F 		.ascii	"__lock\000"
 4319      636B00
 4320              	.LASF91:
 4321 04f2 5F736967 		.ascii	"_sig_func\000"
 4321      5F66756E 
 4321      6300
 4322              	.LASF263:
 4323 04fc 73656D5F 		.ascii	"sem_pool\000"
 4323      706F6F6C 
 4323      00
 4324              	.LASF67:
 4325 0505 5F6F6666 		.ascii	"_offset\000"
 4325      73657400 
 4326              	.LASF286:
 4327 050d 2E2E2F2E 		.ascii	"../../modules/ChibiOS/os/rt/src/chregistry.c\000"
 4327      2E2F6D6F 
 4327      64756C65 
 4327      732F4368 
 4327      6962694F 
 4328              	.LASF88:
 4329 053a 5F637674 		.ascii	"_cvtbuf\000"
 4329      62756600 
 4330              	.LASF203:
 4331 0542 63756D75 		.ascii	"cumulative\000"
 4331      6C617469 
 4331      766500
 4332              	.LASF245:
 4333 054d 6E657874 		.ascii	"nextmem\000"
 4333      6D656D00 
 4334              	.LASF207:
 4335 0555 6D5F6372 		.ascii	"m_crit_thd\000"
ARM GAS  /tmp/ccrJKiGC.s 			page 81


 4335      69745F74 
 4335      686400
 4336              	.LASF14:
 4337 0560 5F5F7569 		.ascii	"__uint64_t\000"
 4337      6E743634 
 4337      5F7400
 4338              	.LASF235:
 4339 056b 6F66665F 		.ascii	"off_state\000"
 4339      73746174 
 4339      6500
 4340              	.LASF278:
 4341 0575 63685379 		.ascii	"chSysUnlock\000"
 4341      73556E6C 
 4341      6F636B00 
 4342              	.LASF85:
 4343 0581 5F703573 		.ascii	"_p5s\000"
 4343      00
 4344              	.LASF13:
 4345 0586 6C6F6E67 		.ascii	"long unsigned int\000"
 4345      20756E73 
 4345      69676E65 
 4345      6420696E 
 4345      7400
 4346              	.LASF228:
 4347 0598 74687265 		.ascii	"threadsize\000"
 4347      61647369 
 4347      7A6500
 4348              	.LASF275:
 4349 05a3 63685379 		.ascii	"chSysLock\000"
 4349      734C6F63 
 4349      6B00
 4350              	.LASF55:
 4351 05ad 5F5F7346 		.ascii	"__sFILE\000"
 4351      494C4500 
 4352              	.LASF81:
 4353 05b5 5F5F7364 		.ascii	"__sdidinit\000"
 4353      6964696E 
 4353      697400
 4354              	.LASF71:
 4355 05c0 5F666C61 		.ascii	"_flags2\000"
 4355      67733200 
 4356              	.LASF191:
 4357 05c8 53797374 		.ascii	"SystemCoreClock\000"
 4357      656D436F 
 4357      7265436C 
 4357      6F636B00 
 4358              	.LASF218:
 4359 05d8 63685F73 		.ascii	"ch_semaphore\000"
 4359      656D6170 
 4359      686F7265 
 4359      00
 4360              	.LASF144:
 4361 05e5 63685F74 		.ascii	"ch_thread\000"
 4361      68726561 
 4361      6400
 4362              	.LASF176:
 4363 05ef 76697274 		.ascii	"virtual_timers_list_t\000"
ARM GAS  /tmp/ccrJKiGC.s 			page 82


 4363      75616C5F 
 4363      74696D65 
 4363      72735F6C 
 4363      6973745F 
 4364              	.LASF221:
 4365 0605 63685F69 		.ascii	"ch_idle_thread_wa\000"
 4365      646C655F 
 4365      74687265 
 4365      61645F77 
 4365      6100
 4366              	.LASF73:
 4367 0617 5F657272 		.ascii	"_errno\000"
 4367      6E6F00
 4368              	.LASF265:
 4369 061e 6669666F 		.ascii	"fifo_list\000"
 4369      5F6C6973 
 4369      7400
 4370              	.LASF172:
 4371 0628 76697274 		.ascii	"virtual_timer_t\000"
 4371      75616C5F 
 4371      74696D65 
 4371      725F7400 
 4372              	.LASF168:
 4373 0638 72656164 		.ascii	"ready_list_t\000"
 4373      795F6C69 
 4373      73745F74 
 4373      00
 4374              	.LASF148:
 4375 0645 6F6C6465 		.ascii	"older\000"
 4375      7200
 4376              	.LASF113:
 4377 064b 5F736967 		.ascii	"_signal_buf\000"
 4377      6E616C5F 
 4377      62756600 
 4378              	.LASF158:
 4379 0657 7265616C 		.ascii	"realprio\000"
 4379      7072696F 
 4379      00
 4380              	.LASF142:
 4381 0660 75636E74 		.ascii	"ucnt_t\000"
 4381      5F7400
 4382              	.LASF234:
 4383 0667 6F66665F 		.ascii	"off_stklimit\000"
 4383      73746B6C 
 4383      696D6974 
 4383      00
 4384              	.LASF249:
 4385 0674 706F6F6C 		.ascii	"pool_header\000"
 4385      5F686561 
 4385      64657200 
 4386              	.LASF33:
 4387 0680 5F426967 		.ascii	"_Bigint\000"
 4387      696E7400 
 4388              	.LASF163:
 4389 0688 63685F74 		.ascii	"ch_threads_list\000"
 4389      68726561 
 4389      64735F6C 
ARM GAS  /tmp/ccrJKiGC.s 			page 83


 4389      69737400 
 4390              	.LASF30:
 4391 0698 5F6D6178 		.ascii	"_maxwds\000"
 4391      77647300 
 4392              	.LASF205:
 4393 06a0 6E5F6972 		.ascii	"n_irq\000"
 4393      7100
 4394              	.LASF82:
 4395 06a6 5F5F636C 		.ascii	"__cleanup\000"
 4395      65616E75 
 4395      7000
 4396              	.LASF90:
 4397 06b0 5F617465 		.ascii	"_atexit0\000"
 4397      78697430 
 4397      00
 4398              	.LASF12:
 4399 06b9 5F5F7569 		.ascii	"__uint32_t\000"
 4399      6E743332 
 4399      5F7400
 4400              	.LASF78:
 4401 06c4 5F656D65 		.ascii	"_emergency\000"
 4401      7267656E 
 4401      637900
 4402              	.LASF157:
 4403 06cf 6D74786C 		.ascii	"mtxlist\000"
 4403      69737400 
 4404              	.LASF1:
 4405 06d7 6C6F6E67 		.ascii	"long long int\000"
 4405      206C6F6E 
 4405      6720696E 
 4405      7400
 4406              	.LASF189:
 4407 06e5 73797369 		.ascii	"sysinterval_t\000"
 4407      6E746572 
 4407      76616C5F 
 4407      7400
 4408              	.LASF96:
 4409 06f3 5F6E696F 		.ascii	"_niobs\000"
 4409      627300
 4410              	.LASF258:
 4411 06fa 63685F6F 		.ascii	"ch_objects_factory\000"
 4411      626A6563 
 4411      74735F66 
 4411      6163746F 
 4411      727900
 4412              	.LASF92:
 4413 070d 5F5F7367 		.ascii	"__sglue\000"
 4413      6C756500 
 4414              	.LASF122:
 4415 0715 5F6E6D61 		.ascii	"_nmalloc\000"
 4415      6C6C6F63 
 4415      00
 4416              	.LASF106:
 4417 071e 5F67616D 		.ascii	"_gamma_signgam\000"
 4417      6D615F73 
 4417      69676E67 
 4417      616D00
ARM GAS  /tmp/ccrJKiGC.s 			page 84


 4418              	.LASF86:
 4419 072d 5F667265 		.ascii	"_freelist\000"
 4419      656C6973 
 4419      7400
 4420              	.LASF97:
 4421 0737 5F696F62 		.ascii	"_iobs\000"
 4421      7300
 4422              	.LASF251:
 4423 073d 616C6967 		.ascii	"align\000"
 4423      6E00
 4424              	.LASF95:
 4425 0743 5F676C75 		.ascii	"_glue\000"
 4425      6500
 4426              	.LASF190:
 4427 0749 49544D5F 		.ascii	"ITM_RxBuffer\000"
 4427      52784275 
 4427      66666572 
 4427      00
 4428              	.LASF31:
 4429 0756 5F736967 		.ascii	"_sign\000"
 4429      6E00
 4430              	.LASF231:
 4431 075c 6F66665F 		.ascii	"off_newer\000"
 4431      6E657765 
 4431      7200
 4432              	.LASF208:
 4433 0766 6D5F6372 		.ascii	"m_crit_isr\000"
 4433      69745F69 
 4433      737200
 4434              	.LASF0:
 4435 0771 756E7369 		.ascii	"unsigned int\000"
 4435      676E6564 
 4435      20696E74 
 4435      00
 4436              	.LASF133:
 4437 077e 7274636E 		.ascii	"rtcnt_t\000"
 4437      745F7400 
 4438              	.LASF153:
 4439 0786 72656673 		.ascii	"refs\000"
 4439      00
 4440              	.LASF120:
 4441 078b 5F685F65 		.ascii	"_h_errno\000"
 4441      72726E6F 
 4441      00
 4442              	.LASF118:
 4443 0794 5F776372 		.ascii	"_wcrtomb_state\000"
 4443      746F6D62 
 4443      5F737461 
 4443      746500
 4444              	.LASF38:
 4445 07a3 5F5F746D 		.ascii	"__tm_mday\000"
 4445      5F6D6461 
 4445      7900
 4446              	.LASF209:
 4447 07ad 6B65726E 		.ascii	"kernel_stats_t\000"
 4447      656C5F73 
 4447      74617473 
ARM GAS  /tmp/ccrJKiGC.s 			page 85


 4447      5F7400
 4448              	.LASF89:
 4449 07bc 5F6E6577 		.ascii	"_new\000"
 4449      00
 4450              	.LASF64:
 4451 07c1 5F756275 		.ascii	"_ubuf\000"
 4451      6600
 4452              	.LASF76:
 4453 07c7 5F737464 		.ascii	"_stderr\000"
 4453      65727200 
 4454              	.LASF111:
 4455 07cf 5F776374 		.ascii	"_wctomb_state\000"
 4455      6F6D625F 
 4455      73746174 
 4455      6500
 4456              	.LASF70:
 4457 07dd 5F6D6273 		.ascii	"_mbstate\000"
 4457      74617465 
 4457      00
 4458              	.LASF170:
 4459 07e6 63757272 		.ascii	"current\000"
 4459      656E7400 
 4460              	.LASF107:
 4461 07ee 5F72616E 		.ascii	"_rand_next\000"
 4461      645F6E65 
 4461      787400
 4462              	.LASF56:
 4463 07f9 5F666C61 		.ascii	"_flags\000"
 4463      677300
 4464              	.LASF198:
 4465 0800 6F666673 		.ascii	"offset\000"
 4465      657400
 4466              	.LASF161:
 4467 0807 74687265 		.ascii	"thread_reference_t\000"
 4467      61645F72 
 4467      65666572 
 4467      656E6365 
 4467      5F7400
 4468              	.LASF49:
 4469 081a 5F617465 		.ascii	"_atexit\000"
 4469      78697400 
 4470              	.LASF23:
 4471 0822 5F5F636F 		.ascii	"__count\000"
 4471      756E7400 
 4472              	.LASF244:
 4473 082a 6D656D67 		.ascii	"memgetfunc_t\000"
 4473      65746675 
 4473      6E635F74 
 4473      00
 4474              	.LASF41:
 4475 0837 5F5F746D 		.ascii	"__tm_wday\000"
 4475      5F776461 
 4475      7900
 4476              	.LASF143:
 4477 0841 74687265 		.ascii	"thread_t\000"
 4477      61645F74 
 4477      00
ARM GAS  /tmp/ccrJKiGC.s 			page 86


 4478              	.LASF2:
 4479 084a 6C6F6E67 		.ascii	"long double\000"
 4479      20646F75 
 4479      626C6500 
 4480              	.LASF42:
 4481 0856 5F5F746D 		.ascii	"__tm_yday\000"
 4481      5F796461 
 4481      7900
 4482              	.LASF214:
 4483 0860 73656E74 		.ascii	"sentmsg\000"
 4483      6D736700 
 4484              	.LASF197:
 4485 0868 706F7274 		.ascii	"port_intctx\000"
 4485      5F696E74 
 4485      63747800 
 4486              	.LASF266:
 4487 0874 6F626A65 		.ascii	"objects_factory_t\000"
 4487      6374735F 
 4487      66616374 
 4487      6F72795F 
 4487      7400
 4488              	.LASF99:
 4489 0886 5F736565 		.ascii	"_seed\000"
 4489      6400
 4490              	.LASF261:
 4491 088c 6275665F 		.ascii	"buf_list\000"
 4491      6C697374 
 4491      00
 4492              	.LASF62:
 4493 0895 5F736565 		.ascii	"_seek\000"
 4493      6B00
 4494              	.LASF18:
 4495 089b 5F66706F 		.ascii	"_fpos_t\000"
 4495      735F7400 
 4496              	.LASF21:
 4497 08a3 5F5F7763 		.ascii	"__wchb\000"
 4497      686200
 4498              	.LASF268:
 4499 08aa 63685265 		.ascii	"chRegFindThreadByWorkingArea\000"
 4499      6746696E 
 4499      64546872 
 4499      65616442 
 4499      79576F72 
 4500              	.LASF192:
 4501 08c7 41484250 		.ascii	"AHBPrescTable\000"
 4501      72657363 
 4501      5461626C 
 4501      6500
 4502              	.LASF173:
 4503 08d5 63685F76 		.ascii	"ch_virtual_timer\000"
 4503      69727475 
 4503      616C5F74 
 4503      696D6572 
 4503      00
 4504              	.LASF110:
 4505 08e6 5F6D6274 		.ascii	"_mbtowc_state\000"
 4505      6F77635F 
ARM GAS  /tmp/ccrJKiGC.s 			page 87


 4505      73746174 
 4505      6500
 4506              	.LASF187:
 4507 08f4 6B65726E 		.ascii	"kernel_stats\000"
 4507      656C5F73 
 4507      74617473 
 4507      00
 4508              	.LASF224:
 4509 0901 73697A65 		.ascii	"size\000"
 4509      00
 4510              	.LASF15:
 4511 0906 6C6F6E67 		.ascii	"long long unsigned int\000"
 4511      206C6F6E 
 4511      6720756E 
 4511      7369676E 
 4511      65642069 
 4512              	.LASF129:
 4513 091d 75696E74 		.ascii	"uint16_t\000"
 4513      31365F74 
 4513      00
 4514              	.LASF233:
 4515 0926 6F66665F 		.ascii	"off_name\000"
 4515      6E616D65 
 4515      00
 4516              	.LASF46:
 4517 092f 5F64736F 		.ascii	"_dso_handle\000"
 4517      5F68616E 
 4517      646C6500 
 4518              	.LASF139:
 4519 093b 6D73675F 		.ascii	"msg_t\000"
 4519      7400
 4520              	.LASF166:
 4521 0941 63685F74 		.ascii	"ch_threads_queue\000"
 4521      68726561 
 4521      64735F71 
 4521      75657565 
 4521      00
 4522              	.LASF98:
 4523 0952 5F72616E 		.ascii	"_rand48\000"
 4523      64343800 
 4524              	.LASF75:
 4525 095a 5F737464 		.ascii	"_stdout\000"
 4525      6F757400 
 4526              	.LASF174:
 4527 0962 64656C74 		.ascii	"delta\000"
 4527      6100
 4528              	.LASF66:
 4529 0968 5F626C6B 		.ascii	"_blksize\000"
 4529      73697A65 
 4529      00
 4530              	.LASF53:
 4531 0971 5F626173 		.ascii	"_base\000"
 4531      6500
 4532              	.LASF145:
 4533 0977 71756575 		.ascii	"queue\000"
 4533      6500
 4534              	.LASF156:
ARM GAS  /tmp/ccrJKiGC.s 			page 88


 4535 097d 6570656E 		.ascii	"epending\000"
 4535      64696E67 
 4535      00
 4536              	.LASF282:
 4537 0986 5F737461 		.ascii	"_stats_start_measure_crit_thd\000"
 4537      74735F73 
 4537      74617274 
 4537      5F6D6561 
 4537      73757265 
 4538              	.LASF103:
 4539 09a4 5F737472 		.ascii	"_strtok_last\000"
 4539      746F6B5F 
 4539      6C617374 
 4539      00
 4540              	.LASF267:
 4541 09b1 63685F66 		.ascii	"ch_factory\000"
 4541      6163746F 
 4541      727900
 4542              	.LASF116:
 4543 09bc 5F6D6272 		.ascii	"_mbrtowc_state\000"
 4543      746F7763 
 4543      5F737461 
 4543      746500
 4544              	.LASF264:
 4545 09cb 6D62785F 		.ascii	"mbx_list\000"
 4545      6C697374 
 4545      00
 4546              	.LASF186:
 4547 09d4 6D61696E 		.ascii	"mainthread\000"
 4547      74687265 
 4547      616400
 4548              	.LASF26:
 4549 09df 5F666C6F 		.ascii	"_flock_t\000"
 4549      636B5F74 
 4549      00
 4550              	.LASF225:
 4551 09e8 76657273 		.ascii	"version\000"
 4551      696F6E00 
 4552              	.LASF94:
 4553 09f0 5F5F4649 		.ascii	"__FILE\000"
 4553      4C4500
 4554              	.LASF279:
 4555 09f7 5F5F7365 		.ascii	"__set_BASEPRI\000"
 4555      745F4241 
 4555      53455052 
 4555      4900
 4556              	.LASF200:
 4557 0a05 62657374 		.ascii	"best\000"
 4557      00
 4558              	.LASF25:
 4559 0a0a 5F6D6273 		.ascii	"_mbstate_t\000"
 4559      74617465 
 4559      5F7400
 4560              	.LASF108:
 4561 0a15 5F723438 		.ascii	"_r48\000"
 4561      00
 4562              	.LASF150:
ARM GAS  /tmp/ccrJKiGC.s 			page 89


 4563 0a1a 77616261 		.ascii	"wabase\000"
 4563      736500
 4564              	.LASF19:
 4565 0a21 77696E74 		.ascii	"wint_t\000"
 4565      5F7400
 4566              	.LASF253:
 4567 0a28 6D656D6F 		.ascii	"memory_pool_t\000"
 4567      72795F70 
 4567      6F6F6C5F 
 4567      7400
 4568              	.LASF29:
 4569 0a36 5F6E6578 		.ascii	"_next\000"
 4569      7400
 4570              	.LASF68:
 4571 0a3c 5F646174 		.ascii	"_data\000"
 4571      6100
 4572              	.LASF184:
 4573 0a42 726C6973 		.ascii	"rlist\000"
 4573      7400
 4574              	.LASF135:
 4575 0a48 746D6F64 		.ascii	"tmode_t\000"
 4575      655F7400 
 4576              	.LASF199:
 4577 0a50 746D5F63 		.ascii	"tm_calibration_t\000"
 4577      616C6962 
 4577      72617469 
 4577      6F6E5F74 
 4577      00
 4578              	.LASF149:
 4579 0a61 6E616D65 		.ascii	"name\000"
 4579      00
 4580              	.LASF277:
 4581 0a66 706F7274 		.ascii	"port_lock\000"
 4581      5F6C6F63 
 4581      6B00
 4582              	.LASF287:
 4583 0a70 2F686F6D 		.ascii	"/home/haggisaerospace/ardupilot/ardupilot/build/Cub"
 4583      652F6861 
 4583      67676973 
 4583      6165726F 
 4583      73706163 
 4584 0aa3 65426C61 		.ascii	"eBlack\000"
 4584      636B00
 4585              	.LASF193:
 4586 0aaa 41504250 		.ascii	"APBPrescTable\000"
 4586      72657363 
 4586      5461626C 
 4586      6500
 4587              	.LASF109:
 4588 0ab8 5F6D626C 		.ascii	"_mblen_state\000"
 4588      656E5F73 
 4588      74617465 
 4588      00
 4589              	.LASF7:
 4590 0ac5 73686F72 		.ascii	"short int\000"
 4590      7420696E 
 4590      7400
ARM GAS  /tmp/ccrJKiGC.s 			page 90


 4591              	.LASF132:
 4592 0acf 75696E74 		.ascii	"uint64_t\000"
 4592      36345F74 
 4592      00
 4593              	.LASF175:
 4594 0ad8 66756E63 		.ascii	"func\000"
 4594      00
 4595              	.LASF270:
 4596 0add 63685265 		.ascii	"chRegFindThreadByName\000"
 4596      6746696E 
 4596      64546872 
 4596      65616442 
 4596      794E616D 
 4597              	.LASF219:
 4598 0af3 63685F6D 		.ascii	"ch_mutex\000"
 4598      75746578 
 4598      00
 4599              	.LASF155:
 4600 0afc 6D736771 		.ascii	"msgqueue\000"
 4600      75657565 
 4600      00
 4601              	.LASF47:
 4602 0b05 5F666E74 		.ascii	"_fntypes\000"
 4602      79706573 
 4602      00
 4603              	.LASF180:
 4604 0b0e 63685F73 		.ascii	"ch_system_debug\000"
 4604      79737465 
 4604      6D5F6465 
 4604      62756700 
 4605              	.LASF257:
 4606 0b1e 64796E5F 		.ascii	"dyn_list_t\000"
 4606      6C697374 
 4606      5F7400
 4607              	.LASF40:
 4608 0b29 5F5F746D 		.ascii	"__tm_year\000"
 4608      5F796561 
 4608      7200
 4609              	.LASF250:
 4610 0b33 6F626A65 		.ascii	"object_size\000"
 4610      63745F73 
 4610      697A6500 
 4611              	.LASF58:
 4612 0b3f 5F6C6266 		.ascii	"_lbfsize\000"
 4612      73697A65 
 4612      00
 4613              	.LASF185:
 4614 0b48 76746C69 		.ascii	"vtlist\000"
 4614      737400
 4615              	.LASF77:
 4616 0b4f 5F696E63 		.ascii	"_inc\000"
 4616      00
 4617              	.LASF50:
 4618 0b54 5F696E64 		.ascii	"_ind\000"
 4618      00
 4619              	.LASF154:
 4620 0b59 77616974 		.ascii	"waiting\000"
ARM GAS  /tmp/ccrJKiGC.s 			page 91


 4620      696E6700 
 4621              	.LASF52:
 4622 0b61 5F5F7362 		.ascii	"__sbuf\000"
 4622      756600
 4623              	.LASF255:
 4624 0b68 64796E5F 		.ascii	"dyn_element_t\000"
 4624      656C656D 
 4624      656E745F 
 4624      7400
 4625              	.LASF48:
 4626 0b76 5F69735F 		.ascii	"_is_cxa\000"
 4626      63786100 
 4627              	.LASF16:
 4628 0b7e 5F4C4F43 		.ascii	"_LOCK_T\000"
 4628      4B5F5400 
 4629              	.LASF242:
 4630 0b86 6D757465 		.ascii	"mutex_t\000"
 4630      785F7400 
 4631              	.LASF137:
 4632 0b8e 74726566 		.ascii	"trefs_t\000"
 4632      735F7400 
 4633              	.LASF121:
 4634 0b96 5F6E6578 		.ascii	"_nextf\000"
 4634      746600
 4635              	.LASF196:
 4636 0b9d 706F7274 		.ascii	"port_context\000"
 4636      5F636F6E 
 4636      74657874 
 4636      00
 4637              	.LASF162:
 4638 0baa 74687265 		.ascii	"threads_list_t\000"
 4638      6164735F 
 4638      6C697374 
 4638      5F7400
 4639              	.LASF183:
 4640 0bb9 63685F73 		.ascii	"ch_system\000"
 4640      79737465 
 4640      6D00
 4641              	.LASF80:
 4642 0bc3 5F6C6F63 		.ascii	"_locale\000"
 4642      616C6500 
 4643              	.LASF28:
 4644 0bcb 5F5F554C 		.ascii	"__ULong\000"
 4644      6F6E6700 
 4645              	.LASF147:
 4646 0bd3 6E657765 		.ascii	"newer\000"
 4646      7200
 4647              	.LASF131:
 4648 0bd9 75696E74 		.ascii	"uint32_t\000"
 4648      33325F74 
 4648      00
 4649              	.LASF83:
 4650 0be2 5F726573 		.ascii	"_result\000"
 4650      756C7400 
 4651              	.LASF237:
 4652 0bea 6F66665F 		.ascii	"off_refs\000"
 4652      72656673 
ARM GAS  /tmp/ccrJKiGC.s 			page 92


 4652      00
 4653              	.LASF17:
 4654 0bf3 5F6F6666 		.ascii	"_off_t\000"
 4654      5F7400
 4655              	.LASF210:
 4656 0bfa 7264796D 		.ascii	"rdymsg\000"
 4656      736700
 4657              	.LASF101:
 4658 0c01 5F616464 		.ascii	"_add\000"
 4658      00
 4659              	.LASF9:
 4660 0c06 73686F72 		.ascii	"short unsigned int\000"
 4660      7420756E 
 4660      7369676E 
 4660      65642069 
 4660      6E7400
 4661              	.LASF37:
 4662 0c19 5F5F746D 		.ascii	"__tm_hour\000"
 4662      5F686F75 
 4662      7200
 4663              	.LASF182:
 4664 0c23 63685F73 		.ascii	"ch_system_t\000"
 4664      79737465 
 4664      6D5F7400 
 4665              	.LASF240:
 4666 0c2f 63686465 		.ascii	"chdebug_t\000"
 4666      6275675F 
 4666      7400
 4667              	.LASF274:
 4668 0c39 63685468 		.ascii	"chThdGetWorkingAreaX\000"
 4668      64476574 
 4668      576F726B 
 4668      696E6741 
 4668      72656158 
 4669              	.LASF117:
 4670 0c4e 5F6D6273 		.ascii	"_mbsrtowcs_state\000"
 4670      72746F77 
 4670      63735F73 
 4670      74617465 
 4670      00
 4671              	.LASF167:
 4672 0c5f 70726576 		.ascii	"prev\000"
 4672      00
 4673              	.LASF227:
 4674 0c64 74696D65 		.ascii	"timesize\000"
 4674      73697A65 
 4674      00
 4675              	.LASF10:
 4676 0c6d 5F5F696E 		.ascii	"__int32_t\000"
 4676      7433325F 
 4676      7400
 4677              	.LASF248:
 4678 0c77 63685F6D 		.ascii	"ch_memcore\000"
 4678      656D636F 
 4678      726500
 4679              	.LASF236:
 4680 0c82 6F66665F 		.ascii	"off_flags\000"
ARM GAS  /tmp/ccrJKiGC.s 			page 93


 4680      666C6167 
 4680      7300
 4681              	.LASF45:
 4682 0c8c 5F666E61 		.ascii	"_fnargs\000"
 4682      72677300 
 4683              	.LASF43:
 4684 0c94 5F5F746D 		.ascii	"__tm_isdst\000"
 4684      5F697364 
 4684      737400
 4685              	.LASF164:
 4686 0c9f 6E657874 		.ascii	"next\000"
 4686      00
 4687              	.LASF36:
 4688 0ca4 5F5F746D 		.ascii	"__tm_min\000"
 4688      5F6D696E 
 4688      00
 4689              	.LASF256:
 4690 0cad 63685F64 		.ascii	"ch_dyn_list\000"
 4690      796E5F6C 
 4690      69737400 
 4691              	.LASF222:
 4692 0cb9 6964656E 		.ascii	"identifier\000"
 4692      74696669 
 4692      657200
 4693              	.LASF114:
 4694 0cc4 5F676574 		.ascii	"_getdate_err\000"
 4694      64617465 
 4694      5F657272 
 4694      00
 4695              	.LASF215:
 4696 0cd1 77747365 		.ascii	"wtsemp\000"
 4696      6D7000
 4697              	.LASF202:
 4698 0cd8 6C617374 		.ascii	"last\000"
 4698      00
 4699              		.ident	"GCC: (GNU Tools for ARM Embedded Processors 6-2017-q2-update) 6.3.1 20170620 (release) [AR
ARM GAS  /tmp/ccrJKiGC.s 			page 94


DEFINED SYMBOLS
                            *ABS*:0000000000000000 chregistry.c
     /tmp/ccrJKiGC.s:18     .text.chRegFirstThread:0000000000000000 $t
     /tmp/ccrJKiGC.s:25     .text.chRegFirstThread:0000000000000000 chRegFirstThread
     /tmp/ccrJKiGC.s:98     .text.chRegFirstThread:0000000000000028 $d
     /tmp/ccrJKiGC.s:103    .text.chRegNextThread:0000000000000000 $t
     /tmp/ccrJKiGC.s:110    .text.chRegNextThread:0000000000000000 chRegNextThread
     /tmp/ccrJKiGC.s:194    .text.chRegNextThread:0000000000000038 $d
     /tmp/ccrJKiGC.s:199    .text.chRegFindThreadByName:0000000000000000 $t
     /tmp/ccrJKiGC.s:206    .text.chRegFindThreadByName:0000000000000000 chRegFindThreadByName
     /tmp/ccrJKiGC.s:252    .text.chRegFindThreadByPointer:0000000000000000 $t
     /tmp/ccrJKiGC.s:259    .text.chRegFindThreadByPointer:0000000000000000 chRegFindThreadByPointer
     /tmp/ccrJKiGC.s:292    .text.chRegFindThreadByWorkingArea:0000000000000000 $t
     /tmp/ccrJKiGC.s:299    .text.chRegFindThreadByWorkingArea:0000000000000000 chRegFindThreadByWorkingArea
     /tmp/ccrJKiGC.s:337    .rodata.ch_debug:0000000000000000 ch_debug
     /tmp/ccrJKiGC.s:334    .rodata.ch_debug:0000000000000000 $d
                     .debug_frame:0000000000000010 $d

UNDEFINED SYMBOLS
_stats_start_measure_crit_thd
_stats_stop_measure_crit_thd
ch
chThdRelease
strcmp
