ARM GAS  /tmp/ccwIqr9G.s 			page 1


   1              		.cpu cortex-m4
   2              		.eabi_attribute 27, 1
   3              		.eabi_attribute 28, 1
   4              		.eabi_attribute 20, 1
   5              		.eabi_attribute 21, 1
   6              		.eabi_attribute 23, 3
   7              		.eabi_attribute 24, 1
   8              		.eabi_attribute 25, 1
   9              		.eabi_attribute 26, 1
  10              		.eabi_attribute 30, 4
  11              		.eabi_attribute 34, 1
  12              		.eabi_attribute 18, 4
  13              		.file	"chschd.c"
  14              		.text
  15              	.Ltext0:
  16              		.cfi_sections	.debug_frame
  17              		.section	.text._scheduler_init,"ax",%progbits
  18              		.align	1
  19              		.global	_scheduler_init
  20              		.syntax unified
  21              		.thumb
  22              		.thumb_func
  23              		.fpu fpv4-sp-d16
  24              		.type	_scheduler_init, %function
  25              	_scheduler_init:
  26              	.LFB290:
  27              		.file 1 "../../modules/ChibiOS/os/rt/src/chschd.c"
  28              		.loc 1 65 0
  29              		.cfi_startproc
  30              		@ args = 0, pretend = 0, frame = 0
  31              		@ frame_needed = 0, uses_anonymous_args = 0
  32              		@ link register save eliminated.
  33              	.LVL0:
  34              	.LBB39:
  35              	.LBB40:
  36              		.file 2 "../../modules/ChibiOS/os/rt/include/chschd.h"
  37              		.loc 2 539 0
  38 0000 034B     		ldr	r3, .L2
  39              	.LBE40:
  40              	.LBE39:
  41              		.loc 1 68 0
  42 0002 0022     		movs	r2, #0
  43              	.LBB42:
  44              	.LBB41:
  45              		.loc 2 539 0
  46 0004 1B60     		str	r3, [r3]
  47              		.loc 2 540 0
  48 0006 5B60     		str	r3, [r3, #4]
  49              	.LVL1:
  50              	.LBE41:
  51              	.LBE42:
  52              		.loc 1 68 0
  53 0008 9A60     		str	r2, [r3, #8]
  54              		.loc 1 70 0
  55 000a 1B61     		str	r3, [r3, #16]
  56              		.loc 1 71 0
  57 000c 5B61     		str	r3, [r3, #20]
ARM GAS  /tmp/ccwIqr9G.s 			page 2


  58 000e 7047     		bx	lr
  59              	.L3:
  60              		.align	2
  61              	.L2:
  62 0010 00000000 		.word	.LANCHOR0
  63              		.cfi_endproc
  64              	.LFE290:
  65              		.size	_scheduler_init, .-_scheduler_init
  66              		.section	.text.chSchReadyI,"ax",%progbits
  67              		.align	1
  68              		.global	chSchReadyI
  69              		.syntax unified
  70              		.thumb
  71              		.thumb_func
  72              		.fpu fpv4-sp-d16
  73              		.type	chSchReadyI, %function
  74              	chSchReadyI:
  75              	.LFB291:
  76              		.loc 1 218 0
  77              		.cfi_startproc
  78              		@ args = 0, pretend = 0, frame = 0
  79              		@ frame_needed = 0, uses_anonymous_args = 0
  80              		@ link register save eliminated.
  81              	.LVL2:
  82              		.loc 1 227 0
  83 0000 0023     		movs	r3, #0
  84 0002 80F82030 		strb	r3, [r0, #32]
  85              	.LVL3:
  86              		.loc 1 231 0
  87 0006 8268     		ldr	r2, [r0, #8]
  88              		.loc 1 228 0
  89 0008 054B     		ldr	r3, .L7
  90              	.LVL4:
  91              	.L5:
  92              		.loc 1 230 0 discriminator 1
  93 000a 1B68     		ldr	r3, [r3]
  94              	.LVL5:
  95              		.loc 1 231 0 discriminator 1
  96 000c 9968     		ldr	r1, [r3, #8]
  97 000e 9142     		cmp	r1, r2
  98 0010 FBD2     		bcs	.L5
  99              		.loc 1 234 0
 100 0012 5A68     		ldr	r2, [r3, #4]
 101              		.loc 1 233 0
 102 0014 0360     		str	r3, [r0]
 103              		.loc 1 234 0
 104 0016 4260     		str	r2, [r0, #4]
 105              		.loc 1 235 0
 106 0018 1060     		str	r0, [r2]
 107              		.loc 1 236 0
 108 001a 5860     		str	r0, [r3, #4]
 109              		.loc 1 239 0
 110 001c 7047     		bx	lr
 111              	.L8:
 112 001e 00BF     		.align	2
 113              	.L7:
 114 0020 00000000 		.word	.LANCHOR0
ARM GAS  /tmp/ccwIqr9G.s 			page 3


 115              		.cfi_endproc
 116              	.LFE291:
 117              		.size	chSchReadyI, .-chSchReadyI
 118              		.section	.text.wakeup,"ax",%progbits
 119              		.align	1
 120              		.syntax unified
 121              		.thumb
 122              		.thumb_func
 123              		.fpu fpv4-sp-d16
 124              		.type	wakeup, %function
 125              	wakeup:
 126              	.LFB294:
 127              		.loc 1 319 0
 128              		.cfi_startproc
 129              		@ args = 0, pretend = 0, frame = 0
 130              		@ frame_needed = 0, uses_anonymous_args = 0
 131              	.LVL6:
 132 0000 38B5     		push	{r3, r4, r5, lr}
 133              		.cfi_def_cfa_offset 16
 134              		.cfi_offset 3, -16
 135              		.cfi_offset 4, -12
 136              		.cfi_offset 5, -8
 137              		.cfi_offset 14, -4
 138              		.loc 1 319 0
 139 0002 0446     		mov	r4, r0
 140              	.LVL7:
 141              	.LBB65:
 142              	.LBB66:
 143              	.LBB67:
 144              	.LBB68:
 145              	.LBB69:
 146              	.LBB70:
 147              		.file 3 "../../modules/ChibiOS/os/common/ext/ARM/CMSIS/Core/Include/cmsis_gcc.h"
 148              		.loc 3 493 0
 149 0004 2023     		movs	r3, #32
 150              		.syntax unified
 151              	@ 493 "../../modules/ChibiOS/os/common/ext/ARM/CMSIS/Core/Include/cmsis_gcc.h" 1
 152 0006 83F31188 		MSR basepri, r3
 153              	@ 0 "" 2
 154              	.LVL8:
 155              		.thumb
 156              		.syntax unified
 157              	.LBE70:
 158              	.LBE69:
 159              	.LBE68:
 160              	.LBE67:
 161              		.file 4 "../../modules/ChibiOS/os/rt/include/chsys.h"
 162              		.loc 4 396 0
 163 000a FFF7FEFF 		bl	_stats_start_measure_crit_isr
 164              	.LVL9:
 165              	.LBE66:
 166              	.LBE65:
 167              		.loc 1 323 0
 168 000e 94F82030 		ldrb	r3, [r4, #32]	@ zero_extendqisi2
 169 0012 0025     		movs	r5, #0
 170 0014 072B     		cmp	r3, #7
 171 0016 0CD8     		bhi	.L10
ARM GAS  /tmp/ccwIqr9G.s 			page 4


 172 0018 DFE803F0 		tbb	[pc, r3]
 173              	.L12:
 174 001c 04       		.byte	(.L11-.L12)/2
 175 001d 0B       		.byte	(.L10-.L12)/2
 176 001e 0B       		.byte	(.L10-.L12)/2
 177 001f 09       		.byte	(.L13-.L12)/2
 178 0020 1B       		.byte	(.L14-.L12)/2
 179 0021 17       		.byte	(.L15-.L12)/2
 180 0022 0B       		.byte	(.L10-.L12)/2
 181 0023 1B       		.byte	(.L14-.L12)/2
 182              		.p2align 1
 183              	.L11:
 184              	.LBB71:
 185              	.LBB72:
 186              		.loc 4 416 0
 187 0024 FFF7FEFF 		bl	_stats_stop_measure_crit_isr
 188              	.LVL10:
 189              	.LBB73:
 190              	.LBB74:
 191              	.LBB75:
 192              	.LBB76:
 193              		.loc 3 493 0
 194              		.syntax unified
 195              	@ 493 "../../modules/ChibiOS/os/common/ext/ARM/CMSIS/Core/Include/cmsis_gcc.h" 1
 196 0028 85F31188 		MSR basepri, r5
 197              	@ 0 "" 2
 198              	.LVL11:
 199              		.thumb
 200              		.syntax unified
 201 002c 38BD     		pop	{r3, r4, r5, pc}
 202              	.LVL12:
 203              	.L13:
 204              	.LBE76:
 205              	.LBE75:
 206              	.LBE74:
 207              	.LBE73:
 208              	.LBE72:
 209              	.LBE71:
 210              		.loc 1 330 0
 211 002e 636A     		ldr	r3, [r4, #36]
 212 0030 1D60     		str	r5, [r3]
 213              	.L10:
 214              		.loc 1 349 0
 215 0032 4FF0FF33 		mov	r3, #-1
 216 0036 6362     		str	r3, [r4, #36]
 217              		.loc 1 350 0
 218 0038 2046     		mov	r0, r4
 219 003a FFF7FEFF 		bl	chSchReadyI
 220              	.LVL13:
 221              	.LBB77:
 222              	.LBB78:
 223              		.loc 4 416 0
 224 003e FFF7FEFF 		bl	_stats_stop_measure_crit_isr
 225              	.LVL14:
 226              	.LBB79:
 227              	.LBB80:
 228              	.LBB81:
ARM GAS  /tmp/ccwIqr9G.s 			page 5


 229              	.LBB82:
 230              		.loc 3 493 0
 231 0042 0023     		movs	r3, #0
 232              		.syntax unified
 233              	@ 493 "../../modules/ChibiOS/os/common/ext/ARM/CMSIS/Core/Include/cmsis_gcc.h" 1
 234 0044 83F31188 		MSR basepri, r3
 235              	@ 0 "" 2
 236              	.LVL15:
 237              		.thumb
 238              		.syntax unified
 239 0048 38BD     		pop	{r3, r4, r5, pc}
 240              	.LVL16:
 241              	.L15:
 242              	.LBE82:
 243              	.LBE81:
 244              	.LBE80:
 245              	.LBE79:
 246              	.LBE78:
 247              	.LBE77:
 248              		.loc 1 334 0
 249 004a 626A     		ldr	r2, [r4, #36]
 250              	.LVL17:
 251              	.LBB83:
 252              	.LBB84:
 253              		.file 5 "../../modules/ChibiOS/os/rt/include/chsem.h"
 254              		.loc 5 138 0
 255 004c 9368     		ldr	r3, [r2, #8]
 256 004e 0133     		adds	r3, r3, #1
 257 0050 9360     		str	r3, [r2, #8]
 258              	.LVL18:
 259              	.L14:
 260              	.LBE84:
 261              	.LBE83:
 262              	.LBB85:
 263              	.LBB86:
 264              		.loc 2 626 0
 265 0052 94E80C00 		ldm	r4, {r2, r3}
 266 0056 1A60     		str	r2, [r3]
 267              		.loc 2 627 0
 268 0058 2268     		ldr	r2, [r4]
 269 005a 5360     		str	r3, [r2, #4]
 270 005c E9E7     		b	.L10
 271              	.LBE86:
 272              	.LBE85:
 273              		.cfi_endproc
 274              	.LFE294:
 275              		.size	wakeup, .-wakeup
 276              		.section	.text.chSchReadyAheadI,"ax",%progbits
 277              		.align	1
 278              		.global	chSchReadyAheadI
 279              		.syntax unified
 280              		.thumb
 281              		.thumb_func
 282              		.fpu fpv4-sp-d16
 283              		.type	chSchReadyAheadI, %function
 284              	chSchReadyAheadI:
 285              	.LFB292:
ARM GAS  /tmp/ccwIqr9G.s 			page 6


 286              		.loc 1 257 0
 287              		.cfi_startproc
 288              		@ args = 0, pretend = 0, frame = 0
 289              		@ frame_needed = 0, uses_anonymous_args = 0
 290              		@ link register save eliminated.
 291              	.LVL19:
 292              		.loc 1 266 0
 293 0000 0023     		movs	r3, #0
 294 0002 80F82030 		strb	r3, [r0, #32]
 295              	.LVL20:
 296              		.loc 1 270 0
 297 0006 8268     		ldr	r2, [r0, #8]
 298              		.loc 1 267 0
 299 0008 054B     		ldr	r3, .L20
 300              	.LVL21:
 301              	.L18:
 302              		.loc 1 269 0 discriminator 1
 303 000a 1B68     		ldr	r3, [r3]
 304              	.LVL22:
 305              		.loc 1 270 0 discriminator 1
 306 000c 9968     		ldr	r1, [r3, #8]
 307 000e 9142     		cmp	r1, r2
 308 0010 FBD8     		bhi	.L18
 309              		.loc 1 273 0
 310 0012 5A68     		ldr	r2, [r3, #4]
 311              		.loc 1 272 0
 312 0014 0360     		str	r3, [r0]
 313              		.loc 1 273 0
 314 0016 4260     		str	r2, [r0, #4]
 315              		.loc 1 274 0
 316 0018 1060     		str	r0, [r2]
 317              		.loc 1 275 0
 318 001a 5860     		str	r0, [r3, #4]
 319              		.loc 1 278 0
 320 001c 7047     		bx	lr
 321              	.L21:
 322 001e 00BF     		.align	2
 323              	.L20:
 324 0020 00000000 		.word	.LANCHOR0
 325              		.cfi_endproc
 326              	.LFE292:
 327              		.size	chSchReadyAheadI, .-chSchReadyAheadI
 328              		.section	.text.chSchGoSleepS,"ax",%progbits
 329              		.align	1
 330              		.global	chSchGoSleepS
 331              		.syntax unified
 332              		.thumb
 333              		.thumb_func
 334              		.fpu fpv4-sp-d16
 335              		.type	chSchGoSleepS, %function
 336              	chSchGoSleepS:
 337              	.LFB293:
 338              		.loc 1 289 0
 339              		.cfi_startproc
 340              		@ args = 0, pretend = 0, frame = 0
 341              		@ frame_needed = 0, uses_anonymous_args = 0
 342              	.LVL23:
ARM GAS  /tmp/ccwIqr9G.s 			page 7


 343 0000 38B5     		push	{r3, r4, r5, lr}
 344              		.cfi_def_cfa_offset 16
 345              		.cfi_offset 3, -16
 346              		.cfi_offset 4, -12
 347              		.cfi_offset 5, -8
 348              		.cfi_offset 14, -4
 349              		.loc 1 290 0
 350 0002 0A4C     		ldr	r4, .L23
 351 0004 A569     		ldr	r5, [r4, #24]
 352              	.LVL24:
 353              		.loc 1 295 0
 354 0006 85F82000 		strb	r0, [r5, #32]
 355              	.LVL25:
 356              	.LBB87:
 357              	.LBB88:
 358              		.loc 2 607 0
 359 000a 2068     		ldr	r0, [r4]
 360              	.LVL26:
 361              		.loc 2 609 0
 362 000c 0368     		ldr	r3, [r0]
 363 000e 2360     		str	r3, [r4]
 364              		.loc 2 610 0
 365 0010 5C60     		str	r4, [r3, #4]
 366              	.LVL27:
 367              	.LBE88:
 368              	.LBE87:
 369              		.loc 1 305 0
 370 0012 0123     		movs	r3, #1
 371 0014 80F82030 		strb	r3, [r0, #32]
 372              		.loc 1 313 0
 373 0018 2946     		mov	r1, r5
 374              		.loc 1 304 0
 375 001a A061     		str	r0, [r4, #24]
 376              		.loc 1 313 0
 377 001c FFF7FEFF 		bl	_stats_ctxswc
 378              	.LVL28:
 379 0020 2946     		mov	r1, r5
 380 0022 A069     		ldr	r0, [r4, #24]
 381              		.loc 1 314 0
 382 0024 BDE83840 		pop	{r3, r4, r5, lr}
 383              		.cfi_restore 14
 384              		.cfi_restore 5
 385              		.cfi_restore 4
 386              		.cfi_restore 3
 387              		.cfi_def_cfa_offset 0
 388              	.LVL29:
 389              		.loc 1 313 0
 390 0028 FFF7FEBF 		b	_port_switch
 391              	.LVL30:
 392              	.L24:
 393              		.align	2
 394              	.L23:
 395 002c 00000000 		.word	.LANCHOR0
 396              		.cfi_endproc
 397              	.LFE293:
 398              		.size	chSchGoSleepS, .-chSchGoSleepS
 399              		.section	.text.chSchGoSleepTimeoutS,"ax",%progbits
ARM GAS  /tmp/ccwIqr9G.s 			page 8


 400              		.align	1
 401              		.global	chSchGoSleepTimeoutS
 402              		.syntax unified
 403              		.thumb
 404              		.thumb_func
 405              		.fpu fpv4-sp-d16
 406              		.type	chSchGoSleepTimeoutS, %function
 407              	chSchGoSleepTimeoutS:
 408              	.LFB295:
 409              		.loc 1 375 0
 410              		.cfi_startproc
 411              		@ args = 0, pretend = 0, frame = 24
 412              		@ frame_needed = 0, uses_anonymous_args = 0
 413              	.LVL31:
 414 0000 30B5     		push	{r4, r5, lr}
 415              		.cfi_def_cfa_offset 12
 416              		.cfi_offset 4, -12
 417              		.cfi_offset 5, -8
 418              		.cfi_offset 14, -4
 419              		.loc 1 379 0
 420 0002 4B1C     		adds	r3, r1, #1
 421              		.loc 1 375 0
 422 0004 87B0     		sub	sp, sp, #28
 423              		.cfi_def_cfa_offset 40
 424              		.loc 1 375 0
 425 0006 0546     		mov	r5, r0
 426 0008 0A4C     		ldr	r4, .L32
 427              		.loc 1 379 0
 428 000a 10D0     		beq	.L26
 429              	.LBB89:
 430              		.loc 1 382 0
 431 000c A369     		ldr	r3, [r4, #24]
 432 000e 0A4A     		ldr	r2, .L32+4
 433 0010 01A8     		add	r0, sp, #4
 434              	.LVL32:
 435 0012 FFF7FEFF 		bl	chVTDoSetI
 436              	.LVL33:
 437              		.loc 1 383 0
 438 0016 2846     		mov	r0, r5
 439 0018 FFF7FEFF 		bl	chSchGoSleepS
 440              	.LVL34:
 441              		.loc 1 384 0
 442 001c 049B     		ldr	r3, [sp, #16]
 443 001e 13B1     		cbz	r3, .L28
 444              		.loc 1 385 0
 445 0020 01A8     		add	r0, sp, #4
 446              	.LVL35:
 447 0022 FFF7FEFF 		bl	chVTDoResetI
 448              	.LVL36:
 449              	.L28:
 450              	.LBE89:
 451              		.loc 1 392 0
 452 0026 A369     		ldr	r3, [r4, #24]
 453              		.loc 1 393 0
 454 0028 586A     		ldr	r0, [r3, #36]
 455 002a 07B0     		add	sp, sp, #28
 456              		.cfi_remember_state
ARM GAS  /tmp/ccwIqr9G.s 			page 9


 457              		.cfi_def_cfa_offset 12
 458              		@ sp needed
 459 002c 30BD     		pop	{r4, r5, pc}
 460              	.LVL37:
 461              	.L26:
 462              		.cfi_restore_state
 463              		.loc 1 389 0
 464 002e FFF7FEFF 		bl	chSchGoSleepS
 465              	.LVL38:
 466 0032 F8E7     		b	.L28
 467              	.L33:
 468              		.align	2
 469              	.L32:
 470 0034 00000000 		.word	.LANCHOR0
 471 0038 00000000 		.word	wakeup
 472              		.cfi_endproc
 473              	.LFE295:
 474              		.size	chSchGoSleepTimeoutS, .-chSchGoSleepTimeoutS
 475              		.section	.text.chSchWakeupS,"ax",%progbits
 476              		.align	1
 477              		.global	chSchWakeupS
 478              		.syntax unified
 479              		.thumb
 480              		.thumb_func
 481              		.fpu fpv4-sp-d16
 482              		.type	chSchWakeupS, %function
 483              	chSchWakeupS:
 484              	.LFB296:
 485              		.loc 1 412 0
 486              		.cfi_startproc
 487              		@ args = 0, pretend = 0, frame = 0
 488              		@ frame_needed = 0, uses_anonymous_args = 0
 489              	.LVL39:
 490 0000 70B5     		push	{r4, r5, r6, lr}
 491              		.cfi_def_cfa_offset 16
 492              		.cfi_offset 4, -16
 493              		.cfi_offset 5, -12
 494              		.cfi_offset 6, -8
 495              		.cfi_offset 14, -4
 496              		.loc 1 413 0
 497 0002 0F4E     		ldr	r6, .L36
 498              		.loc 1 423 0
 499 0004 4162     		str	r1, [r0, #36]
 500              		.loc 1 413 0
 501 0006 B369     		ldr	r3, [r6, #24]
 502              	.LVL40:
 503              		.loc 1 429 0
 504 0008 8168     		ldr	r1, [r0, #8]
 505              	.LVL41:
 506 000a 9A68     		ldr	r2, [r3, #8]
 507 000c 9142     		cmp	r1, r2
 508              		.loc 1 412 0
 509 000e 0446     		mov	r4, r0
 510              		.loc 1 429 0
 511 0010 03D8     		bhi	.L35
 512              		.loc 1 447 0
 513 0012 BDE87040 		pop	{r4, r5, r6, lr}
ARM GAS  /tmp/ccwIqr9G.s 			page 10


 514              		.cfi_remember_state
 515              		.cfi_restore 14
 516              		.cfi_restore 6
 517              		.cfi_restore 5
 518              		.cfi_restore 4
 519              		.cfi_def_cfa_offset 0
 520              		.loc 1 430 0
 521 0016 FFF7FEBF 		b	chSchReadyI
 522              	.LVL42:
 523              	.L35:
 524              		.cfi_restore_state
 525              		.loc 1 433 0
 526 001a 1846     		mov	r0, r3
 527              	.LVL43:
 528 001c FFF7FEFF 		bl	chSchReadyI
 529              	.LVL44:
 530              		.loc 1 442 0
 531 0020 0123     		movs	r3, #1
 532              		.loc 1 433 0
 533 0022 0546     		mov	r5, r0
 534              	.LVL45:
 535              		.loc 1 445 0
 536 0024 0146     		mov	r1, r0
 537              		.loc 1 442 0
 538 0026 84F82030 		strb	r3, [r4, #32]
 539              		.loc 1 445 0
 540 002a 2046     		mov	r0, r4
 541              	.LVL46:
 542              		.loc 1 441 0
 543 002c B461     		str	r4, [r6, #24]
 544              		.loc 1 445 0
 545 002e FFF7FEFF 		bl	_stats_ctxswc
 546              	.LVL47:
 547 0032 2946     		mov	r1, r5
 548 0034 2046     		mov	r0, r4
 549              		.loc 1 447 0
 550 0036 BDE87040 		pop	{r4, r5, r6, lr}
 551              		.cfi_restore 14
 552              		.cfi_restore 6
 553              		.cfi_restore 5
 554              		.cfi_restore 4
 555              		.cfi_def_cfa_offset 0
 556              	.LVL48:
 557              		.loc 1 445 0
 558 003a FFF7FEBF 		b	_port_switch
 559              	.LVL49:
 560              	.L37:
 561 003e 00BF     		.align	2
 562              	.L36:
 563 0040 00000000 		.word	.LANCHOR0
 564              		.cfi_endproc
 565              	.LFE296:
 566              		.size	chSchWakeupS, .-chSchWakeupS
 567              		.section	.text.chSchIsPreemptionRequired,"ax",%progbits
 568              		.align	1
 569              		.global	chSchIsPreemptionRequired
 570              		.syntax unified
ARM GAS  /tmp/ccwIqr9G.s 			page 11


 571              		.thumb
 572              		.thumb_func
 573              		.fpu fpv4-sp-d16
 574              		.type	chSchIsPreemptionRequired, %function
 575              	chSchIsPreemptionRequired:
 576              	.LFB298:
 577              		.loc 1 479 0
 578              		.cfi_startproc
 579              		@ args = 0, pretend = 0, frame = 0
 580              		@ frame_needed = 0, uses_anonymous_args = 0
 581              		@ link register save eliminated.
 582              	.LVL50:
 583              		.loc 1 480 0
 584 0000 044B     		ldr	r3, .L39
 585 0002 1A68     		ldr	r2, [r3]
 586              		.loc 1 481 0
 587 0004 9B69     		ldr	r3, [r3, #24]
 588              		.loc 1 492 0
 589 0006 9068     		ldr	r0, [r2, #8]
 590 0008 9B68     		ldr	r3, [r3, #8]
 591              		.loc 1 494 0
 592 000a 9842     		cmp	r0, r3
 593 000c 94BF     		ite	ls
 594 000e 0020     		movls	r0, #0
 595 0010 0120     		movhi	r0, #1
 596 0012 7047     		bx	lr
 597              	.L40:
 598              		.align	2
 599              	.L39:
 600 0014 00000000 		.word	.LANCHOR0
 601              		.cfi_endproc
 602              	.LFE298:
 603              		.size	chSchIsPreemptionRequired, .-chSchIsPreemptionRequired
 604              		.thumb_set chSchIsRescRequiredI,chSchIsPreemptionRequired
 605              		.section	.text.chSchDoRescheduleBehind,"ax",%progbits
 606              		.align	1
 607              		.global	chSchDoRescheduleBehind
 608              		.syntax unified
 609              		.thumb
 610              		.thumb_func
 611              		.fpu fpv4-sp-d16
 612              		.type	chSchDoRescheduleBehind, %function
 613              	chSchDoRescheduleBehind:
 614              	.LFB299:
 615              		.loc 1 507 0
 616              		.cfi_startproc
 617              		@ args = 0, pretend = 0, frame = 0
 618              		@ frame_needed = 0, uses_anonymous_args = 0
 619 0000 38B5     		push	{r3, r4, r5, lr}
 620              		.cfi_def_cfa_offset 16
 621              		.cfi_offset 3, -16
 622              		.cfi_offset 4, -12
 623              		.cfi_offset 5, -8
 624              		.cfi_offset 14, -4
 625              		.loc 1 508 0
 626 0002 0B4C     		ldr	r4, .L42
 627              	.LBB90:
ARM GAS  /tmp/ccwIqr9G.s 			page 12


 628              	.LBB91:
 629              		.loc 2 607 0
 630 0004 2368     		ldr	r3, [r4]
 631              	.LBE91:
 632              	.LBE90:
 633              		.loc 1 508 0
 634 0006 A069     		ldr	r0, [r4, #24]
 635              	.LVL51:
 636              	.LBB93:
 637              	.LBB92:
 638              		.loc 2 609 0
 639 0008 1A68     		ldr	r2, [r3]
 640 000a 2260     		str	r2, [r4]
 641              		.loc 2 610 0
 642 000c 5460     		str	r4, [r2, #4]
 643              	.LVL52:
 644              	.LBE92:
 645              	.LBE93:
 646              		.loc 1 512 0
 647 000e 0122     		movs	r2, #1
 648 0010 83F82020 		strb	r2, [r3, #32]
 649              		.loc 1 511 0
 650 0014 A361     		str	r3, [r4, #24]
 651              		.loc 1 525 0
 652 0016 FFF7FEFF 		bl	chSchReadyI
 653              	.LVL53:
 654 001a 0546     		mov	r5, r0
 655              	.LVL54:
 656              		.loc 1 528 0
 657 001c 0146     		mov	r1, r0
 658 001e A069     		ldr	r0, [r4, #24]
 659              	.LVL55:
 660 0020 FFF7FEFF 		bl	_stats_ctxswc
 661              	.LVL56:
 662 0024 2946     		mov	r1, r5
 663 0026 A069     		ldr	r0, [r4, #24]
 664              		.loc 1 529 0
 665 0028 BDE83840 		pop	{r3, r4, r5, lr}
 666              		.cfi_restore 14
 667              		.cfi_restore 5
 668              		.cfi_restore 4
 669              		.cfi_restore 3
 670              		.cfi_def_cfa_offset 0
 671              	.LVL57:
 672              		.loc 1 528 0
 673 002c FFF7FEBF 		b	_port_switch
 674              	.LVL58:
 675              	.L43:
 676              		.align	2
 677              	.L42:
 678 0030 00000000 		.word	.LANCHOR0
 679              		.cfi_endproc
 680              	.LFE299:
 681              		.size	chSchDoRescheduleBehind, .-chSchDoRescheduleBehind
 682              		.section	.text.chSchDoReschedule,"ax",%progbits
 683              		.align	1
 684              		.global	chSchDoReschedule
ARM GAS  /tmp/ccwIqr9G.s 			page 13


 685              		.syntax unified
 686              		.thumb
 687              		.thumb_func
 688              		.fpu fpv4-sp-d16
 689              		.type	chSchDoReschedule, %function
 690              	chSchDoReschedule:
 691              	.LFB301:
 692              		.loc 1 570 0
 693              		.cfi_startproc
 694              		@ args = 0, pretend = 0, frame = 0
 695              		@ frame_needed = 0, uses_anonymous_args = 0
 696 0000 38B5     		push	{r3, r4, r5, lr}
 697              		.cfi_def_cfa_offset 16
 698              		.cfi_offset 3, -16
 699              		.cfi_offset 4, -12
 700              		.cfi_offset 5, -8
 701              		.cfi_offset 14, -4
 702              		.loc 1 571 0
 703 0002 0B4C     		ldr	r4, .L45
 704              	.LBB94:
 705              	.LBB95:
 706              		.loc 2 607 0
 707 0004 2368     		ldr	r3, [r4]
 708              	.LBE95:
 709              	.LBE94:
 710              		.loc 1 571 0
 711 0006 A069     		ldr	r0, [r4, #24]
 712              	.LVL59:
 713              	.LBB97:
 714              	.LBB96:
 715              		.loc 2 609 0
 716 0008 1A68     		ldr	r2, [r3]
 717 000a 2260     		str	r2, [r4]
 718              		.loc 2 610 0
 719 000c 5460     		str	r4, [r2, #4]
 720              	.LVL60:
 721              	.LBE96:
 722              	.LBE97:
 723              		.loc 1 575 0
 724 000e 0122     		movs	r2, #1
 725 0010 83F82020 		strb	r2, [r3, #32]
 726              		.loc 1 574 0
 727 0014 A361     		str	r3, [r4, #24]
 728              		.loc 1 602 0
 729 0016 FFF7FEFF 		bl	chSchReadyAheadI
 730              	.LVL61:
 731 001a 0546     		mov	r5, r0
 732              	.LVL62:
 733              		.loc 1 606 0
 734 001c 0146     		mov	r1, r0
 735 001e A069     		ldr	r0, [r4, #24]
 736              	.LVL63:
 737 0020 FFF7FEFF 		bl	_stats_ctxswc
 738              	.LVL64:
 739 0024 2946     		mov	r1, r5
 740 0026 A069     		ldr	r0, [r4, #24]
 741              		.loc 1 607 0
ARM GAS  /tmp/ccwIqr9G.s 			page 14


 742 0028 BDE83840 		pop	{r3, r4, r5, lr}
 743              		.cfi_restore 14
 744              		.cfi_restore 5
 745              		.cfi_restore 4
 746              		.cfi_restore 3
 747              		.cfi_def_cfa_offset 0
 748              	.LVL65:
 749              		.loc 1 606 0
 750 002c FFF7FEBF 		b	_port_switch
 751              	.LVL66:
 752              	.L46:
 753              		.align	2
 754              	.L45:
 755 0030 00000000 		.word	.LANCHOR0
 756              		.cfi_endproc
 757              	.LFE301:
 758              		.size	chSchDoReschedule, .-chSchDoReschedule
 759              		.section	.text.chSchRescheduleS,"ax",%progbits
 760              		.align	1
 761              		.global	chSchRescheduleS
 762              		.syntax unified
 763              		.thumb
 764              		.thumb_func
 765              		.fpu fpv4-sp-d16
 766              		.type	chSchRescheduleS, %function
 767              	chSchRescheduleS:
 768              	.LFB297:
 769              		.loc 1 456 0
 770              		.cfi_startproc
 771              		@ args = 0, pretend = 0, frame = 0
 772              		@ frame_needed = 0, uses_anonymous_args = 0
 773 0000 08B5     		push	{r3, lr}
 774              		.cfi_def_cfa_offset 8
 775              		.cfi_offset 3, -8
 776              		.cfi_offset 14, -4
 777              		.loc 1 460 0
 778 0002 FFF7FEFF 		bl	chSchIsRescRequiredI
 779              	.LVL67:
 780 0006 18B1     		cbz	r0, .L47
 781              		.loc 1 463 0
 782 0008 BDE80840 		pop	{r3, lr}
 783              		.cfi_remember_state
 784              		.cfi_restore 14
 785              		.cfi_restore 3
 786              		.cfi_def_cfa_offset 0
 787              		.loc 1 461 0
 788 000c FFF7FEBF 		b	chSchDoReschedule
 789              	.LVL68:
 790              	.L47:
 791              		.cfi_restore_state
 792 0010 08BD     		pop	{r3, pc}
 793              		.cfi_endproc
 794              	.LFE297:
 795              		.size	chSchRescheduleS, .-chSchRescheduleS
 796              		.section	.text.chSchDoRescheduleAhead,"ax",%progbits
 797              		.align	1
 798              		.global	chSchDoRescheduleAhead
ARM GAS  /tmp/ccwIqr9G.s 			page 15


 799              		.syntax unified
 800              		.thumb
 801              		.thumb_func
 802              		.fpu fpv4-sp-d16
 803              		.type	chSchDoRescheduleAhead, %function
 804              	chSchDoRescheduleAhead:
 805              	.LFB305:
 806              		.cfi_startproc
 807              		@ args = 0, pretend = 0, frame = 0
 808              		@ frame_needed = 0, uses_anonymous_args = 0
 809              		@ link register save eliminated.
 810 0000 FFF7FEBF 		b	chSchDoReschedule
 811              		.cfi_endproc
 812              	.LFE305:
 813              		.size	chSchDoRescheduleAhead, .-chSchDoRescheduleAhead
 814              		.global	ch
 815              		.section	.bss.ch,"aw",%nobits
 816              		.align	3
 817              		.set	.LANCHOR0,. + 0
 818              		.type	ch, %object
 819              		.size	ch, 208
 820              	ch:
 821 0000 00000000 		.space	208
 821      00000000 
 821      00000000 
 821      00000000 
 821      00000000 
 822              		.text
 823              	.Letext0:
 824              		.file 6 "/opt/gcc-arm-none-eabi-6-2017-q2-update/lib/gcc/arm-none-eabi/6.3.1/include/stddef.h"
 825              		.file 7 "/opt/gcc-arm-none-eabi-6-2017-q2-update/arm-none-eabi/include/machine/_default_types.h"
 826              		.file 8 "/opt/gcc-arm-none-eabi-6-2017-q2-update/arm-none-eabi/include/sys/_stdint.h"
 827              		.file 9 "../../modules/ChibiOS/os/common/ports/ARMCMx/compilers/GCC/chtypes.h"
 828              		.file 10 "../../modules/ChibiOS/os/rt/include/chsystypes.h"
 829              		.file 11 "../../modules/ChibiOS/os/rt/include/chtime.h"
 830              		.file 12 "../../modules/ChibiOS/os/common/ext/ARM/CMSIS/Core/Include/core_cm4.h"
 831              		.file 13 "../../modules/ChibiOS/os/common/ext/ST/STM32F4xx/system_stm32f4xx.h"
 832              		.file 14 "../../modules/ChibiOS/os/common/ports/ARMCMx/chcore.h"
 833              		.file 15 "../../modules/ChibiOS/os/common/ports/ARMCMx/chcore_v7m.h"
 834              		.file 16 "../../modules/ChibiOS/os/rt/include/chtm.h"
 835              		.file 17 "../../modules/ChibiOS/os/rt/include/chstats.h"
 836              		.file 18 "../../modules/ChibiOS/os/rt/include/chmtx.h"
 837              		.file 19 "../../modules/ChibiOS/os/rt/include/chregistry.h"
 838              		.file 20 "../../modules/ChibiOS/os/oslib/include/chmemcore.h"
 839              		.file 21 "../../modules/ChibiOS/os/oslib/include/chmempools.h"
 840              		.file 22 "../../modules/ChibiOS/os/oslib/include/chfactory.h"
 841              		.file 23 "../../modules/ChibiOS/os/rt/include/chvt.h"