ARM GAS  /tmp/ccwIqr9G.s 			page 1


   1              		.cpu cortex-m4
   2              		.eabi_attribute 27, 1
   3              		.eabi_attribute 28, 1
   4              		.eabi_attribute 20, 1
   5              		.eabi_attribute 21, 1
   6              		.eabi_attribute 23, 3
   7              		.eabi_attribute 24, 1
   8              		.eabi_attribute 25, 1
   9              		.eabi_attribute 26, 1
  10              		.eabi_attribute 30, 4
  11              		.eabi_attribute 34, 1
  12              		.eabi_attribute 18, 4
  13              		.file	"chschd.c"
  14              		.text
  15              	.Ltext0:
  16              		.cfi_sections	.debug_frame
  17              		.section	.text._scheduler_init,"ax",%progbits
  18              		.align	1
  19              		.global	_scheduler_init
  20              		.syntax unified
  21              		.thumb
  22              		.thumb_func
  23              		.fpu fpv4-sp-d16
  24              		.type	_scheduler_init, %function
  25              	_scheduler_init:
  26              	.LFB290:
  27              		.file 1 "../../modules/ChibiOS/os/rt/src/chschd.c"
  28              		.loc 1 65 0
  29              		.cfi_startproc
  30              		@ args = 0, pretend = 0, frame = 0
  31              		@ frame_needed = 0, uses_anonymous_args = 0
  32              		@ link register save eliminated.
  33              	.LVL0:
  34              	.LBB39:
  35              	.LBB40:
  36              		.file 2 "../../modules/ChibiOS/os/rt/include/chschd.h"
  37              		.loc 2 539 0
  38 0000 034B     		ldr	r3, .L2
  39              	.LBE40:
  40              	.LBE39:
  41              		.loc 1 68 0
  42 0002 0022     		movs	r2, #0
  43              	.LBB42:
  44              	.LBB41:
  45              		.loc 2 539 0
  46 0004 1B60     		str	r3, [r3]
  47              		.loc 2 540 0
  48 0006 5B60     		str	r3, [r3, #4]
  49              	.LVL1:
  50              	.LBE41:
  51              	.LBE42:
  52              		.loc 1 68 0
  53 0008 9A60     		str	r2, [r3, #8]
  54              		.loc 1 70 0
  55 000a 1B61     		str	r3, [r3, #16]
  56              		.loc 1 71 0
  57 000c 5B61     		str	r3, [r3, #20]
ARM GAS  /tmp/ccwIqr9G.s 			page 2


  58 000e 7047     		bx	lr
  59              	.L3:
  60              		.align	2
  61              	.L2:
  62 0010 00000000 		.word	.LANCHOR0
  63              		.cfi_endproc
  64              	.LFE290:
  65              		.size	_scheduler_init, .-_scheduler_init
  66              		.section	.text.chSchReadyI,"ax",%progbits
  67              		.align	1
  68              		.global	chSchReadyI
  69              		.syntax unified
  70              		.thumb
  71              		.thumb_func
  72              		.fpu fpv4-sp-d16
  73              		.type	chSchReadyI, %function
  74              	chSchReadyI:
  75              	.LFB291:
  76              		.loc 1 218 0
  77              		.cfi_startproc
  78              		@ args = 0, pretend = 0, frame = 0
  79              		@ frame_needed = 0, uses_anonymous_args = 0
  80              		@ link register save eliminated.
  81              	.LVL2:
  82              		.loc 1 227 0
  83 0000 0023     		movs	r3, #0
  84 0002 80F82030 		strb	r3, [r0, #32]
  85              	.LVL3:
  86              		.loc 1 231 0
  87 0006 8268     		ldr	r2, [r0, #8]
  88              		.loc 1 228 0
  89 0008 054B     		ldr	r3, .L7
  90              	.LVL4:
  91              	.L5:
  92              		.loc 1 230 0 discriminator 1
  93 000a 1B68     		ldr	r3, [r3]
  94              	.LVL5:
  95              		.loc 1 231 0 discriminator 1
  96 000c 9968     		ldr	r1, [r3, #8]
  97 000e 9142     		cmp	r1, r2
  98 0010 FBD2     		bcs	.L5
  99              		.loc 1 234 0
 100 0012 5A68     		ldr	r2, [r3, #4]
 101              		.loc 1 233 0
 102 0014 0360     		str	r3, [r0]
 103              		.loc 1 234 0
 104 0016 4260     		str	r2, [r0, #4]
 105              		.loc 1 235 0
 106 0018 1060     		str	r0, [r2]
 107              		.loc 1 236 0
 108 001a 5860     		str	r0, [r3, #4]
 109              		.loc 1 239 0
 110 001c 7047     		bx	lr
 111              	.L8:
 112 001e 00BF     		.align	2
 113              	.L7:
 114 0020 00000000 		.word	.LANCHOR0
ARM GAS  /tmp/ccwIqr9G.s 			page 3


 115              		.cfi_endproc
 116              	.LFE291:
 117              		.size	chSchReadyI, .-chSchReadyI
 118              		.section	.text.wakeup,"ax",%progbits
 119              		.align	1
 120              		.syntax unified
 121              		.thumb
 122              		.thumb_func
 123              		.fpu fpv4-sp-d16
 124              		.type	wakeup, %function
 125              	wakeup:
 126              	.LFB294:
 127              		.loc 1 319 0
 128              		.cfi_startproc
 129              		@ args = 0, pretend = 0, frame = 0
 130              		@ frame_needed = 0, uses_anonymous_args = 0
 131              	.LVL6:
 132 0000 38B5     		push	{r3, r4, r5, lr}
 133              		.cfi_def_cfa_offset 16
 134              		.cfi_offset 3, -16
 135              		.cfi_offset 4, -12
 136              		.cfi_offset 5, -8
 137              		.cfi_offset 14, -4
 138              		.loc 1 319 0
 139 0002 0446     		mov	r4, r0
 140              	.LVL7:
 141              	.LBB65:
 142              	.LBB66:
 143              	.LBB67:
 144              	.LBB68:
 145              	.LBB69:
 146              	.LBB70:
 147              		.file 3 "../../modules/ChibiOS/os/common/ext/ARM/CMSIS/Core/Include/cmsis_gcc.h"
 148              		.loc 3 493 0
 149 0004 2023     		movs	r3, #32
 150              		.syntax unified
 151              	@ 493 "../../modules/ChibiOS/os/common/ext/ARM/CMSIS/Core/Include/cmsis_gcc.h" 1
 152 0006 83F31188 		MSR basepri, r3
 153              	@ 0 "" 2
 154              	.LVL8:
 155              		.thumb
 156              		.syntax unified
 157              	.LBE70:
 158              	.LBE69:
 159              	.LBE68:
 160              	.LBE67:
 161              		.file 4 "../../modules/ChibiOS/os/rt/include/chsys.h"
 162              		.loc 4 396 0
 163 000a FFF7FEFF 		bl	_stats_start_measure_crit_isr
 164              	.LVL9:
 165              	.LBE66:
 166              	.LBE65:
 167              		.loc 1 323 0
 168 000e 94F82030 		ldrb	r3, [r4, #32]	@ zero_extendqisi2
 169 0012 0025     		movs	r5, #0
 170 0014 072B     		cmp	r3, #7
 171 0016 0CD8     		bhi	.L10
ARM GAS  /tmp/ccwIqr9G.s 			page 4


 172 0018 DFE803F0 		tbb	[pc, r3]
 173              	.L12:
 174 001c 04       		.byte	(.L11-.L12)/2
 175 001d 0B       		.byte	(.L10-.L12)/2
 176 001e 0B       		.byte	(.L10-.L12)/2
 177 001f 09       		.byte	(.L13-.L12)/2
 178 0020 1B       		.byte	(.L14-.L12)/2
 179 0021 17       		.byte	(.L15-.L12)/2
 180 0022 0B       		.byte	(.L10-.L12)/2
 181 0023 1B       		.byte	(.L14-.L12)/2
 182              		.p2align 1
 183              	.L11:
 184              	.LBB71:
 185              	.LBB72:
 186              		.loc 4 416 0
 187 0024 FFF7FEFF 		bl	_stats_stop_measure_crit_isr
 188              	.LVL10:
 189              	.LBB73:
 190              	.LBB74:
 191              	.LBB75:
 192              	.LBB76:
 193              		.loc 3 493 0
 194              		.syntax unified
 195              	@ 493 "../../modules/ChibiOS/os/common/ext/ARM/CMSIS/Core/Include/cmsis_gcc.h" 1
 196 0028 85F31188 		MSR basepri, r5
 197              	@ 0 "" 2
 198              	.LVL11:
 199              		.thumb
 200              		.syntax unified
 201 002c 38BD     		pop	{r3, r4, r5, pc}
 202              	.LVL12:
 203              	.L13:
 204              	.LBE76:
 205              	.LBE75:
 206              	.LBE74:
 207              	.LBE73:
 208              	.LBE72:
 209              	.LBE71:
 210              		.loc 1 330 0
 211 002e 636A     		ldr	r3, [r4, #36]
 212 0030 1D60     		str	r5, [r3]
 213              	.L10:
 214              		.loc 1 349 0
 215 0032 4FF0FF33 		mov	r3, #-1
 216 0036 6362     		str	r3, [r4, #36]
 217              		.loc 1 350 0
 218 0038 2046     		mov	r0, r4
 219 003a FFF7FEFF 		bl	chSchReadyI
 220              	.LVL13:
 221              	.LBB77:
 222              	.LBB78:
 223              		.loc 4 416 0
 224 003e FFF7FEFF 		bl	_stats_stop_measure_crit_isr
 225              	.LVL14:
 226              	.LBB79:
 227              	.LBB80:
 228              	.LBB81:
ARM GAS  /tmp/ccwIqr9G.s 			page 5


 229              	.LBB82:
 230              		.loc 3 493 0
 231 0042 0023     		movs	r3, #0
 232              		.syntax unified
 233              	@ 493 "../../modules/ChibiOS/os/common/ext/ARM/CMSIS/Core/Include/cmsis_gcc.h" 1
 234 0044 83F31188 		MSR basepri, r3
 235              	@ 0 "" 2
 236              	.LVL15:
 237              		.thumb
 238              		.syntax unified
 239 0048 38BD     		pop	{r3, r4, r5, pc}
 240              	.LVL16:
 241              	.L15:
 242              	.LBE82:
 243              	.LBE81:
 244              	.LBE80:
 245              	.LBE79:
 246              	.LBE78:
 247              	.LBE77:
 248              		.loc 1 334 0
 249 004a 626A     		ldr	r2, [r4, #36]
 250              	.LVL17:
 251              	.LBB83:
 252              	.LBB84:
 253              		.file 5 "../../modules/ChibiOS/os/rt/include/chsem.h"
 254              		.loc 5 138 0
 255 004c 9368     		ldr	r3, [r2, #8]
 256 004e 0133     		adds	r3, r3, #1
 257 0050 9360     		str	r3, [r2, #8]
 258              	.LVL18:
 259              	.L14:
 260              	.LBE84:
 261              	.LBE83:
 262              	.LBB85:
 263              	.LBB86:
 264              		.loc 2 626 0
 265 0052 94E80C00 		ldm	r4, {r2, r3}
 266 0056 1A60     		str	r2, [r3]
 267              		.loc 2 627 0
 268 0058 2268     		ldr	r2, [r4]
 269 005a 5360     		str	r3, [r2, #4]
 270 005c E9E7     		b	.L10
 271              	.LBE86:
 272              	.LBE85:
 273              		.cfi_endproc
 274              	.LFE294:
 275              		.size	wakeup, .-wakeup
 276              		.section	.text.chSchReadyAheadI,"ax",%progbits
 277              		.align	1
 278              		.global	chSchReadyAheadI
 279              		.syntax unified
 280              		.thumb
 281              		.thumb_func
 282              		.fpu fpv4-sp-d16
 283              		.type	chSchReadyAheadI, %function
 284              	chSchReadyAheadI:
 285              	.LFB292:
ARM GAS  /tmp/ccwIqr9G.s 			page 6


 286              		.loc 1 257 0
 287              		.cfi_startproc
 288              		@ args = 0, pretend = 0, frame = 0
 289              		@ frame_needed = 0, uses_anonymous_args = 0
 290              		@ link register save eliminated.
 291              	.LVL19:
 292              		.loc 1 266 0
 293 0000 0023     		movs	r3, #0
 294 0002 80F82030 		strb	r3, [r0, #32]
 295              	.LVL20:
 296              		.loc 1 270 0
 297 0006 8268     		ldr	r2, [r0, #8]
 298              		.loc 1 267 0
 299 0008 054B     		ldr	r3, .L20
 300              	.LVL21:
 301              	.L18:
 302              		.loc 1 269 0 discriminator 1
 303 000a 1B68     		ldr	r3, [r3]
 304              	.LVL22:
 305              		.loc 1 270 0 discriminator 1
 306 000c 9968     		ldr	r1, [r3, #8]
 307 000e 9142     		cmp	r1, r2
 308 0010 FBD8     		bhi	.L18
 309              		.loc 1 273 0
 310 0012 5A68     		ldr	r2, [r3, #4]
 311              		.loc 1 272 0
 312 0014 0360     		str	r3, [r0]
 313              		.loc 1 273 0
 314 0016 4260     		str	r2, [r0, #4]
 315              		.loc 1 274 0
 316 0018 1060     		str	r0, [r2]
 317              		.loc 1 275 0
 318 001a 5860     		str	r0, [r3, #4]
 319              		.loc 1 278 0
 320 001c 7047     		bx	lr
 321              	.L21:
 322 001e 00BF     		.align	2
 323              	.L20:
 324 0020 00000000 		.word	.LANCHOR0
 325              		.cfi_endproc
 326              	.LFE292:
 327              		.size	chSchReadyAheadI, .-chSchReadyAheadI
 328              		.section	.text.chSchGoSleepS,"ax",%progbits
 329              		.align	1
 330              		.global	chSchGoSleepS
 331              		.syntax unified
 332              		.thumb
 333              		.thumb_func
 334              		.fpu fpv4-sp-d16
 335              		.type	chSchGoSleepS, %function
 336              	chSchGoSleepS:
 337              	.LFB293:
 338              		.loc 1 289 0
 339              		.cfi_startproc
 340              		@ args = 0, pretend = 0, frame = 0
 341              		@ frame_needed = 0, uses_anonymous_args = 0
 342              	.LVL23:
ARM GAS  /tmp/ccwIqr9G.s 			page 7


 343 0000 38B5     		push	{r3, r4, r5, lr}
 344              		.cfi_def_cfa_offset 16
 345              		.cfi_offset 3, -16
 346              		.cfi_offset 4, -12
 347              		.cfi_offset 5, -8
 348              		.cfi_offset 14, -4
 349              		.loc 1 290 0
 350 0002 0A4C     		ldr	r4, .L23
 351 0004 A569     		ldr	r5, [r4, #24]
 352              	.LVL24:
 353              		.loc 1 295 0
 354 0006 85F82000 		strb	r0, [r5, #32]
 355              	.LVL25:
 356              	.LBB87:
 357              	.LBB88:
 358              		.loc 2 607 0
 359 000a 2068     		ldr	r0, [r4]
 360              	.LVL26:
 361              		.loc 2 609 0
 362 000c 0368     		ldr	r3, [r0]
 363 000e 2360     		str	r3, [r4]
 364              		.loc 2 610 0
 365 0010 5C60     		str	r4, [r3, #4]
 366              	.LVL27:
 367              	.LBE88:
 368              	.LBE87:
 369              		.loc 1 305 0
 370 0012 0123     		movs	r3, #1
 371 0014 80F82030 		strb	r3, [r0, #32]
 372              		.loc 1 313 0
 373 0018 2946     		mov	r1, r5
 374              		.loc 1 304 0
 375 001a A061     		str	r0, [r4, #24]
 376              		.loc 1 313 0
 377 001c FFF7FEFF 		bl	_stats_ctxswc
 378              	.LVL28:
 379 0020 2946     		mov	r1, r5
 380 0022 A069     		ldr	r0, [r4, #24]
 381              		.loc 1 314 0
 382 0024 BDE83840 		pop	{r3, r4, r5, lr}
 383              		.cfi_restore 14
 384              		.cfi_restore 5
 385              		.cfi_restore 4
 386              		.cfi_restore 3
 387              		.cfi_def_cfa_offset 0
 388              	.LVL29:
 389              		.loc 1 313 0
 390 0028 FFF7FEBF 		b	_port_switch
 391              	.LVL30:
 392              	.L24:
 393              		.align	2
 394              	.L23:
 395 002c 00000000 		.word	.LANCHOR0
 396              		.cfi_endproc
 397              	.LFE293:
 398              		.size	chSchGoSleepS, .-chSchGoSleepS
 399              		.section	.text.chSchGoSleepTimeoutS,"ax",%progbits
ARM GAS  /tmp/ccwIqr9G.s 			page 8


 400              		.align	1
 401              		.global	chSchGoSleepTimeoutS
 402              		.syntax unified
 403              		.thumb
 404              		.thumb_func
 405              		.fpu fpv4-sp-d16
 406              		.type	chSchGoSleepTimeoutS, %function
 407              	chSchGoSleepTimeoutS:
 408              	.LFB295:
 409              		.loc 1 375 0
 410              		.cfi_startproc
 411              		@ args = 0, pretend = 0, frame = 24
 412              		@ frame_needed = 0, uses_anonymous_args = 0
 413              	.LVL31:
 414 0000 30B5     		push	{r4, r5, lr}
 415              		.cfi_def_cfa_offset 12
 416              		.cfi_offset 4, -12
 417              		.cfi_offset 5, -8
 418              		.cfi_offset 14, -4
 419              		.loc 1 379 0
 420 0002 4B1C     		adds	r3, r1, #1
 421              		.loc 1 375 0
 422 0004 87B0     		sub	sp, sp, #28
 423              		.cfi_def_cfa_offset 40
 424              		.loc 1 375 0
 425 0006 0546     		mov	r5, r0
 426 0008 0A4C     		ldr	r4, .L32
 427              		.loc 1 379 0
 428 000a 10D0     		beq	.L26
 429              	.LBB89:
 430              		.loc 1 382 0
 431 000c A369     		ldr	r3, [r4, #24]
 432 000e 0A4A     		ldr	r2, .L32+4
 433 0010 01A8     		add	r0, sp, #4
 434              	.LVL32:
 435 0012 FFF7FEFF 		bl	chVTDoSetI
 436              	.LVL33:
 437              		.loc 1 383 0
 438 0016 2846     		mov	r0, r5
 439 0018 FFF7FEFF 		bl	chSchGoSleepS
 440              	.LVL34:
 441              		.loc 1 384 0
 442 001c 049B     		ldr	r3, [sp, #16]
 443 001e 13B1     		cbz	r3, .L28
 444              		.loc 1 385 0
 445 0020 01A8     		add	r0, sp, #4
 446              	.LVL35:
 447 0022 FFF7FEFF 		bl	chVTDoResetI
 448              	.LVL36:
 449              	.L28:
 450              	.LBE89:
 451              		.loc 1 392 0
 452 0026 A369     		ldr	r3, [r4, #24]
 453              		.loc 1 393 0
 454 0028 586A     		ldr	r0, [r3, #36]
 455 002a 07B0     		add	sp, sp, #28
 456              		.cfi_remember_state
ARM GAS  /tmp/ccwIqr9G.s 			page 9


 457              		.cfi_def_cfa_offset 12
 458              		@ sp needed
 459 002c 30BD     		pop	{r4, r5, pc}
 460              	.LVL37:
 461              	.L26:
 462              		.cfi_restore_state
 463              		.loc 1 389 0
 464 002e FFF7FEFF 		bl	chSchGoSleepS
 465              	.LVL38:
 466 0032 F8E7     		b	.L28
 467              	.L33:
 468              		.align	2
 469              	.L32:
 470 0034 00000000 		.word	.LANCHOR0
 471 0038 00000000 		.word	wakeup
 472              		.cfi_endproc
 473              	.LFE295:
 474              		.size	chSchGoSleepTimeoutS, .-chSchGoSleepTimeoutS
 475              		.section	.text.chSchWakeupS,"ax",%progbits
 476              		.align	1
 477              		.global	chSchWakeupS
 478              		.syntax unified
 479              		.thumb
 480              		.thumb_func
 481              		.fpu fpv4-sp-d16
 482              		.type	chSchWakeupS, %function
 483              	chSchWakeupS:
 484              	.LFB296:
 485              		.loc 1 412 0
 486              		.cfi_startproc
 487              		@ args = 0, pretend = 0, frame = 0
 488              		@ frame_needed = 0, uses_anonymous_args = 0
 489              	.LVL39:
 490 0000 70B5     		push	{r4, r5, r6, lr}
 491              		.cfi_def_cfa_offset 16
 492              		.cfi_offset 4, -16
 493              		.cfi_offset 5, -12
 494              		.cfi_offset 6, -8
 495              		.cfi_offset 14, -4
 496              		.loc 1 413 0
 497 0002 0F4E     		ldr	r6, .L36
 498              		.loc 1 423 0
 499 0004 4162     		str	r1, [r0, #36]
 500              		.loc 1 413 0
 501 0006 B369     		ldr	r3, [r6, #24]
 502              	.LVL40:
 503              		.loc 1 429 0
 504 0008 8168     		ldr	r1, [r0, #8]
 505              	.LVL41:
 506 000a 9A68     		ldr	r2, [r3, #8]
 507 000c 9142     		cmp	r1, r2
 508              		.loc 1 412 0
 509 000e 0446     		mov	r4, r0
 510              		.loc 1 429 0
 511 0010 03D8     		bhi	.L35
 512              		.loc 1 447 0
 513 0012 BDE87040 		pop	{r4, r5, r6, lr}
ARM GAS  /tmp/ccwIqr9G.s 			page 10


 514              		.cfi_remember_state
 515              		.cfi_restore 14
 516              		.cfi_restore 6
 517              		.cfi_restore 5
 518              		.cfi_restore 4
 519              		.cfi_def_cfa_offset 0
 520              		.loc 1 430 0
 521 0016 FFF7FEBF 		b	chSchReadyI
 522              	.LVL42:
 523              	.L35:
 524              		.cfi_restore_state
 525              		.loc 1 433 0
 526 001a 1846     		mov	r0, r3
 527              	.LVL43:
 528 001c FFF7FEFF 		bl	chSchReadyI
 529              	.LVL44:
 530              		.loc 1 442 0
 531 0020 0123     		movs	r3, #1
 532              		.loc 1 433 0
 533 0022 0546     		mov	r5, r0
 534              	.LVL45:
 535              		.loc 1 445 0
 536 0024 0146     		mov	r1, r0
 537              		.loc 1 442 0
 538 0026 84F82030 		strb	r3, [r4, #32]
 539              		.loc 1 445 0
 540 002a 2046     		mov	r0, r4
 541              	.LVL46:
 542              		.loc 1 441 0
 543 002c B461     		str	r4, [r6, #24]
 544              		.loc 1 445 0
 545 002e FFF7FEFF 		bl	_stats_ctxswc
 546              	.LVL47:
 547 0032 2946     		mov	r1, r5
 548 0034 2046     		mov	r0, r4
 549              		.loc 1 447 0
 550 0036 BDE87040 		pop	{r4, r5, r6, lr}
 551              		.cfi_restore 14
 552              		.cfi_restore 6
 553              		.cfi_restore 5
 554              		.cfi_restore 4
 555              		.cfi_def_cfa_offset 0
 556              	.LVL48:
 557              		.loc 1 445 0
 558 003a FFF7FEBF 		b	_port_switch
 559              	.LVL49:
 560              	.L37:
 561 003e 00BF     		.align	2
 562              	.L36:
 563 0040 00000000 		.word	.LANCHOR0
 564              		.cfi_endproc
 565              	.LFE296:
 566              		.size	chSchWakeupS, .-chSchWakeupS
 567              		.section	.text.chSchIsPreemptionRequired,"ax",%progbits
 568              		.align	1
 569              		.global	chSchIsPreemptionRequired
 570              		.syntax unified
ARM GAS  /tmp/ccwIqr9G.s 			page 11


 571              		.thumb
 572              		.thumb_func
 573              		.fpu fpv4-sp-d16
 574              		.type	chSchIsPreemptionRequired, %function
 575              	chSchIsPreemptionRequired:
 576              	.LFB298:
 577              		.loc 1 479 0
 578              		.cfi_startproc
 579              		@ args = 0, pretend = 0, frame = 0
 580              		@ frame_needed = 0, uses_anonymous_args = 0
 581              		@ link register save eliminated.
 582              	.LVL50:
 583              		.loc 1 480 0
 584 0000 044B     		ldr	r3, .L39
 585 0002 1A68     		ldr	r2, [r3]
 586              		.loc 1 481 0
 587 0004 9B69     		ldr	r3, [r3, #24]
 588              		.loc 1 492 0
 589 0006 9068     		ldr	r0, [r2, #8]
 590 0008 9B68     		ldr	r3, [r3, #8]
 591              		.loc 1 494 0
 592 000a 9842     		cmp	r0, r3
 593 000c 94BF     		ite	ls
 594 000e 0020     		movls	r0, #0
 595 0010 0120     		movhi	r0, #1
 596 0012 7047     		bx	lr
 597              	.L40:
 598              		.align	2
 599              	.L39:
 600 0014 00000000 		.word	.LANCHOR0
 601              		.cfi_endproc
 602              	.LFE298:
 603              		.size	chSchIsPreemptionRequired, .-chSchIsPreemptionRequired
 604              		.thumb_set chSchIsRescRequiredI,chSchIsPreemptionRequired
 605              		.section	.text.chSchDoRescheduleBehind,"ax",%progbits
 606              		.align	1
 607              		.global	chSchDoRescheduleBehind
 608              		.syntax unified
 609              		.thumb
 610              		.thumb_func
 611              		.fpu fpv4-sp-d16
 612              		.type	chSchDoRescheduleBehind, %function
 613              	chSchDoRescheduleBehind:
 614              	.LFB299:
 615              		.loc 1 507 0
 616              		.cfi_startproc
 617              		@ args = 0, pretend = 0, frame = 0
 618              		@ frame_needed = 0, uses_anonymous_args = 0
 619 0000 38B5     		push	{r3, r4, r5, lr}
 620              		.cfi_def_cfa_offset 16
 621              		.cfi_offset 3, -16
 622              		.cfi_offset 4, -12
 623              		.cfi_offset 5, -8
 624              		.cfi_offset 14, -4
 625              		.loc 1 508 0
 626 0002 0B4C     		ldr	r4, .L42
 627              	.LBB90:
ARM GAS  /tmp/ccwIqr9G.s 			page 12


 628              	.LBB91:
 629              		.loc 2 607 0
 630 0004 2368     		ldr	r3, [r4]
 631              	.LBE91:
 632              	.LBE90:
 633              		.loc 1 508 0
 634 0006 A069     		ldr	r0, [r4, #24]
 635              	.LVL51:
 636              	.LBB93:
 637              	.LBB92:
 638              		.loc 2 609 0
 639 0008 1A68     		ldr	r2, [r3]
 640 000a 2260     		str	r2, [r4]
 641              		.loc 2 610 0
 642 000c 5460     		str	r4, [r2, #4]
 643              	.LVL52:
 644              	.LBE92:
 645              	.LBE93:
 646              		.loc 1 512 0
 647 000e 0122     		movs	r2, #1
 648 0010 83F82020 		strb	r2, [r3, #32]
 649              		.loc 1 511 0
 650 0014 A361     		str	r3, [r4, #24]
 651              		.loc 1 525 0
 652 0016 FFF7FEFF 		bl	chSchReadyI
 653              	.LVL53:
 654 001a 0546     		mov	r5, r0
 655              	.LVL54:
 656              		.loc 1 528 0
 657 001c 0146     		mov	r1, r0
 658 001e A069     		ldr	r0, [r4, #24]
 659              	.LVL55:
 660 0020 FFF7FEFF 		bl	_stats_ctxswc
 661              	.LVL56:
 662 0024 2946     		mov	r1, r5
 663 0026 A069     		ldr	r0, [r4, #24]
 664              		.loc 1 529 0
 665 0028 BDE83840 		pop	{r3, r4, r5, lr}
 666              		.cfi_restore 14
 667              		.cfi_restore 5
 668              		.cfi_restore 4
 669              		.cfi_restore 3
 670              		.cfi_def_cfa_offset 0
 671              	.LVL57:
 672              		.loc 1 528 0
 673 002c FFF7FEBF 		b	_port_switch
 674              	.LVL58:
 675              	.L43:
 676              		.align	2
 677              	.L42:
 678 0030 00000000 		.word	.LANCHOR0
 679              		.cfi_endproc
 680              	.LFE299:
 681              		.size	chSchDoRescheduleBehind, .-chSchDoRescheduleBehind
 682              		.section	.text.chSchDoReschedule,"ax",%progbits
 683              		.align	1
 684              		.global	chSchDoReschedule
ARM GAS  /tmp/ccwIqr9G.s 			page 13


 685              		.syntax unified
 686              		.thumb
 687              		.thumb_func
 688              		.fpu fpv4-sp-d16
 689              		.type	chSchDoReschedule, %function
 690              	chSchDoReschedule:
 691              	.LFB301:
 692              		.loc 1 570 0
 693              		.cfi_startproc
 694              		@ args = 0, pretend = 0, frame = 0
 695              		@ frame_needed = 0, uses_anonymous_args = 0
 696 0000 38B5     		push	{r3, r4, r5, lr}
 697              		.cfi_def_cfa_offset 16
 698              		.cfi_offset 3, -16
 699              		.cfi_offset 4, -12
 700              		.cfi_offset 5, -8
 701              		.cfi_offset 14, -4
 702              		.loc 1 571 0
 703 0002 0B4C     		ldr	r4, .L45
 704              	.LBB94:
 705              	.LBB95:
 706              		.loc 2 607 0
 707 0004 2368     		ldr	r3, [r4]
 708              	.LBE95:
 709              	.LBE94:
 710              		.loc 1 571 0
 711 0006 A069     		ldr	r0, [r4, #24]
 712              	.LVL59:
 713              	.LBB97:
 714              	.LBB96:
 715              		.loc 2 609 0
 716 0008 1A68     		ldr	r2, [r3]
 717 000a 2260     		str	r2, [r4]
 718              		.loc 2 610 0
 719 000c 5460     		str	r4, [r2, #4]
 720              	.LVL60:
 721              	.LBE96:
 722              	.LBE97:
 723              		.loc 1 575 0
 724 000e 0122     		movs	r2, #1
 725 0010 83F82020 		strb	r2, [r3, #32]
 726              		.loc 1 574 0
 727 0014 A361     		str	r3, [r4, #24]
 728              		.loc 1 602 0
 729 0016 FFF7FEFF 		bl	chSchReadyAheadI
 730              	.LVL61:
 731 001a 0546     		mov	r5, r0
 732              	.LVL62:
 733              		.loc 1 606 0
 734 001c 0146     		mov	r1, r0
 735 001e A069     		ldr	r0, [r4, #24]
 736              	.LVL63:
 737 0020 FFF7FEFF 		bl	_stats_ctxswc
 738              	.LVL64:
 739 0024 2946     		mov	r1, r5
 740 0026 A069     		ldr	r0, [r4, #24]
 741              		.loc 1 607 0
ARM GAS  /tmp/ccwIqr9G.s 			page 14


 742 0028 BDE83840 		pop	{r3, r4, r5, lr}
 743              		.cfi_restore 14
 744              		.cfi_restore 5
 745              		.cfi_restore 4
 746              		.cfi_restore 3
 747              		.cfi_def_cfa_offset 0
 748              	.LVL65:
 749              		.loc 1 606 0
 750 002c FFF7FEBF 		b	_port_switch
 751              	.LVL66:
 752              	.L46:
 753              		.align	2
 754              	.L45:
 755 0030 00000000 		.word	.LANCHOR0
 756              		.cfi_endproc
 757              	.LFE301:
 758              		.size	chSchDoReschedule, .-chSchDoReschedule
 759              		.section	.text.chSchRescheduleS,"ax",%progbits
 760              		.align	1
 761              		.global	chSchRescheduleS
 762              		.syntax unified
 763              		.thumb
 764              		.thumb_func
 765              		.fpu fpv4-sp-d16
 766              		.type	chSchRescheduleS, %function
 767              	chSchRescheduleS:
 768              	.LFB297:
 769              		.loc 1 456 0
 770              		.cfi_startproc
 771              		@ args = 0, pretend = 0, frame = 0
 772              		@ frame_needed = 0, uses_anonymous_args = 0
 773 0000 08B5     		push	{r3, lr}
 774              		.cfi_def_cfa_offset 8
 775              		.cfi_offset 3, -8
 776              		.cfi_offset 14, -4
 777              		.loc 1 460 0
 778 0002 FFF7FEFF 		bl	chSchIsRescRequiredI
 779              	.LVL67:
 780 0006 18B1     		cbz	r0, .L47
 781              		.loc 1 463 0
 782 0008 BDE80840 		pop	{r3, lr}
 783              		.cfi_remember_state
 784              		.cfi_restore 14
 785              		.cfi_restore 3
 786              		.cfi_def_cfa_offset 0
 787              		.loc 1 461 0
 788 000c FFF7FEBF 		b	chSchDoReschedule
 789              	.LVL68:
 790              	.L47:
 791              		.cfi_restore_state
 792 0010 08BD     		pop	{r3, pc}
 793              		.cfi_endproc
 794              	.LFE297:
 795              		.size	chSchRescheduleS, .-chSchRescheduleS
 796              		.section	.text.chSchDoRescheduleAhead,"ax",%progbits
 797              		.align	1
 798              		.global	chSchDoRescheduleAhead
ARM GAS  /tmp/ccwIqr9G.s 			page 15


 799              		.syntax unified
 800              		.thumb
 801              		.thumb_func
 802              		.fpu fpv4-sp-d16
 803              		.type	chSchDoRescheduleAhead, %function
 804              	chSchDoRescheduleAhead:
 805              	.LFB305:
 806              		.cfi_startproc
 807              		@ args = 0, pretend = 0, frame = 0
 808              		@ frame_needed = 0, uses_anonymous_args = 0
 809              		@ link register save eliminated.
 810 0000 FFF7FEBF 		b	chSchDoReschedule
 811              		.cfi_endproc
 812              	.LFE305:
 813              		.size	chSchDoRescheduleAhead, .-chSchDoRescheduleAhead
 814              		.global	ch
 815              		.section	.bss.ch,"aw",%nobits
 816              		.align	3
 817              		.set	.LANCHOR0,. + 0
 818              		.type	ch, %object
 819              		.size	ch, 208
 820              	ch:
 821 0000 00000000 		.space	208
 821      00000000 
 821      00000000 
 821      00000000 
 821      00000000 
 822              		.text
 823              	.Letext0:
 824              		.file 6 "/opt/gcc-arm-none-eabi-6-2017-q2-update/lib/gcc/arm-none-eabi/6.3.1/include/stddef.h"
 825              		.file 7 "/opt/gcc-arm-none-eabi-6-2017-q2-update/arm-none-eabi/include/machine/_default_types.h"
 826              		.file 8 "/opt/gcc-arm-none-eabi-6-2017-q2-update/arm-none-eabi/include/sys/_stdint.h"
 827              		.file 9 "../../modules/ChibiOS/os/common/ports/ARMCMx/compilers/GCC/chtypes.h"
 828              		.file 10 "../../modules/ChibiOS/os/rt/include/chsystypes.h"
 829              		.file 11 "../../modules/ChibiOS/os/rt/include/chtime.h"
 830              		.file 12 "../../modules/ChibiOS/os/common/ext/ARM/CMSIS/Core/Include/core_cm4.h"
 831              		.file 13 "../../modules/ChibiOS/os/common/ext/ST/STM32F4xx/system_stm32f4xx.h"
 832              		.file 14 "../../modules/ChibiOS/os/common/ports/ARMCMx/chcore.h"
 833              		.file 15 "../../modules/ChibiOS/os/common/ports/ARMCMx/chcore_v7m.h"
 834              		.file 16 "../../modules/ChibiOS/os/rt/include/chtm.h"
 835              		.file 17 "../../modules/ChibiOS/os/rt/include/chstats.h"
 836              		.file 18 "../../modules/ChibiOS/os/rt/include/chmtx.h"
 837              		.file 19 "../../modules/ChibiOS/os/rt/include/chregistry.h"
 838              		.file 20 "../../modules/ChibiOS/os/oslib/include/chmemcore.h"
 839              		.file 21 "../../modules/ChibiOS/os/oslib/include/chmempools.h"
 840              		.file 22 "../../modules/ChibiOS/os/oslib/include/chfactory.h"
 841              		.file 23 "../../modules/ChibiOS/os/rt/include/chvt.h"
 842              		.section	.debug_info,"",%progbits
 843              	.Ldebug_info0:
 844 0000 5E120000 		.4byte	0x125e
 845 0004 0400     		.2byte	0x4
 846 0006 00000000 		.4byte	.Ldebug_abbrev0
 847 000a 04       		.byte	0x4
 848 000b 01       		.uleb128 0x1
 849 000c 83010000 		.4byte	.LASF192
 850 0010 0C       		.byte	0xc
 851 0011 B2040000 		.4byte	.LASF193
ARM GAS  /tmp/ccwIqr9G.s 			page 16


 852 0015 C5090000 		.4byte	.LASF194
 853 0019 48000000 		.4byte	.Ldebug_ranges0+0x48
 854 001d 00000000 		.4byte	0
 855 0021 00000000 		.4byte	.Ldebug_line0
 856 0025 02       		.uleb128 0x2
 857 0026 04       		.byte	0x4
 858 0027 05       		.byte	0x5
 859 0028 696E7400 		.ascii	"int\000"
 860 002c 03       		.uleb128 0x3
 861 002d 0D000000 		.4byte	.LASF4
 862 0031 06       		.byte	0x6
 863 0032 D8       		.byte	0xd8
 864 0033 37000000 		.4byte	0x37
 865 0037 04       		.uleb128 0x4
 866 0038 04       		.byte	0x4
 867 0039 07       		.byte	0x7
 868 003a 99030000 		.4byte	.LASF0
 869 003e 04       		.uleb128 0x4
 870 003f 08       		.byte	0x8
 871 0040 05       		.byte	0x5
 872 0041 64010000 		.4byte	.LASF1
 873 0045 04       		.uleb128 0x4
 874 0046 08       		.byte	0x8
 875 0047 04       		.byte	0x4
 876 0048 30050000 		.4byte	.LASF2
 877 004c 04       		.uleb128 0x4
 878 004d 01       		.byte	0x1
 879 004e 06       		.byte	0x6
 880 004f 72010000 		.4byte	.LASF3
 881 0053 03       		.uleb128 0x3
 882 0054 4D000000 		.4byte	.LASF5
 883 0058 07       		.byte	0x7
 884 0059 2B       		.byte	0x2b
 885 005a 5E000000 		.4byte	0x5e
 886 005e 04       		.uleb128 0x4
 887 005f 01       		.byte	0x1
 888 0060 08       		.byte	0x8
 889 0061 67060000 		.4byte	.LASF6
 890 0065 04       		.uleb128 0x4
 891 0066 02       		.byte	0x2
 892 0067 05       		.byte	0x5
 893 0068 94060000 		.4byte	.LASF7
 894 006c 03       		.uleb128 0x3
 895 006d CB070000 		.4byte	.LASF8
 896 0071 07       		.byte	0x7
 897 0072 39       		.byte	0x39
 898 0073 77000000 		.4byte	0x77
 899 0077 04       		.uleb128 0x4
 900 0078 02       		.byte	0x2
 901 0079 07       		.byte	0x7
 902 007a DA060000 		.4byte	.LASF9
 903 007e 03       		.uleb128 0x3
 904 007f B8070000 		.4byte	.LASF10
 905 0083 07       		.byte	0x7
 906 0084 4D       		.byte	0x4d
 907 0085 89000000 		.4byte	0x89
 908 0089 04       		.uleb128 0x4
ARM GAS  /tmp/ccwIqr9G.s 			page 17


 909 008a 04       		.byte	0x4
 910 008b 05       		.byte	0x5
 911 008c C3020000 		.4byte	.LASF11
 912 0090 03       		.uleb128 0x3
 913 0091 25030000 		.4byte	.LASF12
 914 0095 07       		.byte	0x7
 915 0096 4F       		.byte	0x4f
 916 0097 9B000000 		.4byte	0x9b
 917 009b 04       		.uleb128 0x4
 918 009c 04       		.byte	0x4
 919 009d 07       		.byte	0x7
 920 009e 94070000 		.4byte	.LASF13
 921 00a2 03       		.uleb128 0x3
 922 00a3 B0050000 		.4byte	.LASF14
 923 00a7 07       		.byte	0x7
 924 00a8 69       		.byte	0x69
 925 00a9 AD000000 		.4byte	0xad
 926 00ad 04       		.uleb128 0x4
 927 00ae 08       		.byte	0x8
 928 00af 07       		.byte	0x7
 929 00b0 D5000000 		.4byte	.LASF15
 930 00b4 03       		.uleb128 0x3
 931 00b5 E7080000 		.4byte	.LASF16
 932 00b9 08       		.byte	0x8
 933 00ba 18       		.byte	0x18
 934 00bb 53000000 		.4byte	0x53
 935 00bf 05       		.uleb128 0x5
 936 00c0 B4000000 		.4byte	0xb4
 937 00c4 03       		.uleb128 0x3
 938 00c5 AD030000 		.4byte	.LASF17
 939 00c9 08       		.byte	0x8
 940 00ca 24       		.byte	0x24
 941 00cb 6C000000 		.4byte	0x6c
 942 00cf 03       		.uleb128 0x3
 943 00d0 5F060000 		.4byte	.LASF18
 944 00d4 08       		.byte	0x8
 945 00d5 2C       		.byte	0x2c
 946 00d6 7E000000 		.4byte	0x7e
 947 00da 06       		.uleb128 0x6
 948 00db CF000000 		.4byte	0xcf
 949 00df 03       		.uleb128 0x3
 950 00e0 62070000 		.4byte	.LASF19
 951 00e4 08       		.byte	0x8
 952 00e5 30       		.byte	0x30
 953 00e6 90000000 		.4byte	0x90
 954 00ea 03       		.uleb128 0x3
 955 00eb 21000000 		.4byte	.LASF20
 956 00ef 08       		.byte	0x8
 957 00f0 3C       		.byte	0x3c
 958 00f1 A2000000 		.4byte	0xa2
 959 00f5 03       		.uleb128 0x3
 960 00f6 73080000 		.4byte	.LASF21
 961 00fa 09       		.byte	0x9
 962 00fb 27       		.byte	0x27
 963 00fc DF000000 		.4byte	0xdf
 964 0100 03       		.uleb128 0x3
 965 0101 4B010000 		.4byte	.LASF22
ARM GAS  /tmp/ccwIqr9G.s 			page 18


 966 0105 09       		.byte	0x9
 967 0106 28       		.byte	0x28
 968 0107 EA000000 		.4byte	0xea
 969 010b 03       		.uleb128 0x3
 970 010c C9060000 		.4byte	.LASF23
 971 0110 09       		.byte	0x9
 972 0111 2A       		.byte	0x2a
 973 0112 B4000000 		.4byte	0xb4
 974 0116 03       		.uleb128 0x3
 975 0117 DA020000 		.4byte	.LASF24
 976 011b 09       		.byte	0x9
 977 011c 2B       		.byte	0x2b
 978 011d B4000000 		.4byte	0xb4
 979 0121 03       		.uleb128 0x3
 980 0122 DD050000 		.4byte	.LASF25
 981 0126 09       		.byte	0x9
 982 0127 2C       		.byte	0x2c
 983 0128 B4000000 		.4byte	0xb4
 984 012c 03       		.uleb128 0x3
 985 012d 1E060000 		.4byte	.LASF26
 986 0131 09       		.byte	0x9
 987 0132 2E       		.byte	0x2e
 988 0133 DF000000 		.4byte	0xdf
 989 0137 03       		.uleb128 0x3
 990 0138 3E040000 		.4byte	.LASF27
 991 013c 09       		.byte	0x9
 992 013d 2F       		.byte	0x2f
 993 013e CF000000 		.4byte	0xcf
 994 0142 03       		.uleb128 0x3
 995 0143 41000000 		.4byte	.LASF28
 996 0147 09       		.byte	0x9
 997 0148 31       		.byte	0x31
 998 0149 DF000000 		.4byte	0xdf
 999 014d 03       		.uleb128 0x3
 1000 014e 93030000 		.4byte	.LASF29
 1001 0152 09       		.byte	0x9
 1002 0153 33       		.byte	0x33
 1003 0154 CF000000 		.4byte	0xcf
 1004 0158 03       		.uleb128 0x3
 1005 0159 49040000 		.4byte	.LASF30
 1006 015d 09       		.byte	0x9
 1007 015e 34       		.byte	0x34
 1008 015f DF000000 		.4byte	0xdf
 1009 0163 03       		.uleb128 0x3
 1010 0164 EB070000 		.4byte	.LASF31
 1011 0168 0A       		.byte	0xa
 1012 0169 34       		.byte	0x34
 1013 016a 6E010000 		.4byte	0x16e
 1014 016e 07       		.uleb128 0x7
 1015 016f 34040000 		.4byte	.LASF50
 1016 0173 60       		.byte	0x60
 1017 0174 02       		.byte	0x2
 1018 0175 8E       		.byte	0x8e
 1019 0176 59020000 		.4byte	0x259
 1020 017a 08       		.uleb128 0x8
 1021 017b 10040000 		.4byte	.LASF32
 1022 017f 02       		.byte	0x2
ARM GAS  /tmp/ccwIqr9G.s 			page 19


 1023 0180 8F       		.byte	0x8f
 1024 0181 8E020000 		.4byte	0x28e
 1025 0185 00       		.byte	0
 1026 0186 08       		.uleb128 0x8
 1027 0187 7C050000 		.4byte	.LASF33
 1028 018b 02       		.byte	0x2
 1029 018c 90       		.byte	0x90
 1030 018d 2C010000 		.4byte	0x12c
 1031 0191 08       		.byte	0x8
 1032 0192 09       		.uleb128 0x9
 1033 0193 63747800 		.ascii	"ctx\000"
 1034 0197 02       		.byte	0x2
 1035 0198 91       		.byte	0x91
 1036 0199 05050000 		.4byte	0x505
 1037 019d 0C       		.byte	0xc
 1038 019e 08       		.uleb128 0x8
 1039 019f E6040000 		.4byte	.LASF34
 1040 01a3 02       		.byte	0x2
 1041 01a4 93       		.byte	0x93
 1042 01a5 64020000 		.4byte	0x264
 1043 01a9 10       		.byte	0x10
 1044 01aa 08       		.uleb128 0x8
 1045 01ab B2070000 		.4byte	.LASF35
 1046 01af 02       		.byte	0x2
 1047 01b0 94       		.byte	0x94
 1048 01b1 64020000 		.4byte	0x264
 1049 01b5 14       		.byte	0x14
 1050 01b6 08       		.uleb128 0x8
 1051 01b7 59040000 		.4byte	.LASF36
 1052 01bb 02       		.byte	0x2
 1053 01bc 9B       		.byte	0x9b
 1054 01bd EB070000 		.4byte	0x7eb
 1055 01c1 18       		.byte	0x18
 1056 01c2 08       		.uleb128 0x8
 1057 01c3 A6070000 		.4byte	.LASF37
 1058 01c7 02       		.byte	0x2
 1059 01c8 A4       		.byte	0xa4
 1060 01c9 02080000 		.4byte	0x802
 1061 01cd 1C       		.byte	0x1c
 1062 01ce 08       		.uleb128 0x8
 1063 01cf BD020000 		.4byte	.LASF38
 1064 01d3 02       		.byte	0x2
 1065 01d4 A9       		.byte	0xa9
 1066 01d5 16010000 		.4byte	0x116
 1067 01d9 20       		.byte	0x20
 1068 01da 08       		.uleb128 0x8
 1069 01db EF080000 		.4byte	.LASF39
 1070 01df 02       		.byte	0x2
 1071 01e0 AD       		.byte	0xad
 1072 01e1 0B010000 		.4byte	0x10b
 1073 01e5 21       		.byte	0x21
 1074 01e6 08       		.uleb128 0x8
 1075 01e7 FA050000 		.4byte	.LASF40
 1076 01eb 02       		.byte	0x2
 1077 01ec B2       		.byte	0xb2
 1078 01ed 21010000 		.4byte	0x121
 1079 01f1 22       		.byte	0x22
ARM GAS  /tmp/ccwIqr9G.s 			page 20


 1080 01f2 0A       		.uleb128 0xa
 1081 01f3 7500     		.ascii	"u\000"
 1082 01f5 02       		.byte	0x2
 1083 01f6 0301     		.2byte	0x103
 1084 01f8 21070000 		.4byte	0x721
 1085 01fc 24       		.byte	0x24
 1086 01fd 0B       		.uleb128 0xb
 1087 01fe 64030000 		.4byte	.LASF41
 1088 0202 02       		.byte	0x2
 1089 0203 0801     		.2byte	0x108
 1090 0205 6A020000 		.4byte	0x26a
 1091 0209 28       		.byte	0x28
 1092 020a 0B       		.uleb128 0xb
 1093 020b B4020000 		.4byte	.LASF42
 1094 020f 02       		.byte	0x2
 1095 0210 0E01     		.2byte	0x10e
 1096 0212 8E020000 		.4byte	0x28e
 1097 0216 2C       		.byte	0x2c
 1098 0217 0B       		.uleb128 0xb
 1099 0218 50040000 		.4byte	.LASF43
 1100 021c 02       		.byte	0x2
 1101 021d 1401     		.2byte	0x114
 1102 021f 42010000 		.4byte	0x142
 1103 0223 34       		.byte	0x34
 1104 0224 0B       		.uleb128 0xb
 1105 0225 B2090000 		.4byte	.LASF44
 1106 0229 02       		.byte	0x2
 1107 022a 1B01     		.2byte	0x11b
 1108 022c E5070000 		.4byte	0x7e5
 1109 0230 38       		.byte	0x38
 1110 0231 0B       		.uleb128 0xb
 1111 0232 EC040000 		.4byte	.LASF45
 1112 0236 02       		.byte	0x2
 1113 0237 1F01     		.2byte	0x11f
 1114 0239 2C010000 		.4byte	0x12c
 1115 023d 3C       		.byte	0x3c
 1116 023e 0B       		.uleb128 0xb
 1117 023f 16040000 		.4byte	.LASF46
 1118 0243 02       		.byte	0x2
 1119 0244 2601     		.2byte	0x126
 1120 0246 41030000 		.4byte	0x341
 1121 024a 40       		.byte	0x40
 1122 024b 0B       		.uleb128 0xb
 1123 024c E8020000 		.4byte	.LASF47
 1124 0250 02       		.byte	0x2
 1125 0251 2C01     		.2byte	0x12c
 1126 0253 D2060000 		.4byte	0x6d2
 1127 0257 48       		.byte	0x48
 1128 0258 00       		.byte	0
 1129 0259 03       		.uleb128 0x3
 1130 025a 06050000 		.4byte	.LASF48
 1131 025e 0A       		.byte	0xa
 1132 025f 39       		.byte	0x39
 1133 0260 64020000 		.4byte	0x264
 1134 0264 0C       		.uleb128 0xc
 1135 0265 04       		.byte	0x4
 1136 0266 63010000 		.4byte	0x163
ARM GAS  /tmp/ccwIqr9G.s 			page 21


 1137 026a 03       		.uleb128 0x3
 1138 026b 1E090000 		.4byte	.LASF49
 1139 026f 0A       		.byte	0xa
 1140 0270 3E       		.byte	0x3e
 1141 0271 75020000 		.4byte	0x275
 1142 0275 07       		.uleb128 0x7
 1143 0276 7E070000 		.4byte	.LASF51
 1144 027a 04       		.byte	0x4
 1145 027b 02       		.byte	0x2
 1146 027c 7C       		.byte	0x7c
 1147 027d 8E020000 		.4byte	0x28e
 1148 0281 08       		.uleb128 0x8
 1149 0282 46010000 		.4byte	.LASF52
 1150 0286 02       		.byte	0x2
 1151 0287 7D       		.byte	0x7d
 1152 0288 64020000 		.4byte	0x264
 1153 028c 00       		.byte	0
 1154 028d 00       		.byte	0
 1155 028e 03       		.uleb128 0x3
 1156 028f C2080000 		.4byte	.LASF53
 1157 0293 0A       		.byte	0xa
 1158 0294 45       		.byte	0x45
 1159 0295 99020000 		.4byte	0x299
 1160 0299 07       		.uleb128 0x7
 1161 029a 68000000 		.4byte	.LASF54
 1162 029e 08       		.byte	0x8
 1163 029f 02       		.byte	0x2
 1164 02a0 83       		.byte	0x83
 1165 02a1 BE020000 		.4byte	0x2be
 1166 02a5 08       		.uleb128 0x8
 1167 02a6 46010000 		.4byte	.LASF52
 1168 02aa 02       		.byte	0x2
 1169 02ab 84       		.byte	0x84
 1170 02ac 64020000 		.4byte	0x264
 1171 02b0 00       		.byte	0
 1172 02b1 08       		.uleb128 0x8
 1173 02b2 57000000 		.4byte	.LASF55
 1174 02b6 02       		.byte	0x2
 1175 02b7 85       		.byte	0x85
 1176 02b8 64020000 		.4byte	0x264
 1177 02bc 04       		.byte	0x4
 1178 02bd 00       		.byte	0
 1179 02be 03       		.uleb128 0x3
 1180 02bf 00000000 		.4byte	.LASF56
 1181 02c3 0A       		.byte	0xa
 1182 02c4 4C       		.byte	0x4c
 1183 02c5 C9020000 		.4byte	0x2c9
 1184 02c9 0D       		.uleb128 0xd
 1185 02ca 84040000 		.4byte	.LASF57
 1186 02ce 1C       		.byte	0x1c
 1187 02cf 02       		.byte	0x2
 1188 02d0 5E01     		.2byte	0x15e
 1189 02d2 25030000 		.4byte	0x325
 1190 02d6 0B       		.uleb128 0xb
 1191 02d7 10040000 		.4byte	.LASF32
 1192 02db 02       		.byte	0x2
 1193 02dc 5F01     		.2byte	0x15f
ARM GAS  /tmp/ccwIqr9G.s 			page 22


 1194 02de 8E020000 		.4byte	0x28e
 1195 02e2 00       		.byte	0
 1196 02e3 0B       		.uleb128 0xb
 1197 02e4 7C050000 		.4byte	.LASF33
 1198 02e8 02       		.byte	0x2
 1199 02e9 6001     		.2byte	0x160
 1200 02eb 2C010000 		.4byte	0x12c
 1201 02ef 08       		.byte	0x8
 1202 02f0 0A       		.uleb128 0xa
 1203 02f1 63747800 		.ascii	"ctx\000"
 1204 02f5 02       		.byte	0x2
 1205 02f6 6201     		.2byte	0x162
 1206 02f8 05050000 		.4byte	0x505
 1207 02fc 0C       		.byte	0xc
 1208 02fd 0B       		.uleb128 0xb
 1209 02fe E6040000 		.4byte	.LASF34
 1210 0302 02       		.byte	0x2
 1211 0303 6501     		.2byte	0x165
 1212 0305 64020000 		.4byte	0x264
 1213 0309 10       		.byte	0x10
 1214 030a 0B       		.uleb128 0xb
 1215 030b B2070000 		.4byte	.LASF35
 1216 030f 02       		.byte	0x2
 1217 0310 6601     		.2byte	0x166
 1218 0312 64020000 		.4byte	0x264
 1219 0316 14       		.byte	0x14
 1220 0317 0B       		.uleb128 0xb
 1221 0318 A8050000 		.4byte	.LASF58
 1222 031c 02       		.byte	0x2
 1223 031d 6901     		.2byte	0x169
 1224 031f 64020000 		.4byte	0x264
 1225 0323 18       		.byte	0x18
 1226 0324 00       		.byte	0
 1227 0325 03       		.uleb128 0x3
 1228 0326 20080000 		.4byte	.LASF59
 1229 032a 0A       		.byte	0xa
 1230 032b 51       		.byte	0x51
 1231 032c 30030000 		.4byte	0x330
 1232 0330 0C       		.uleb128 0xc
 1233 0331 04       		.byte	0x4
 1234 0332 36030000 		.4byte	0x336
 1235 0336 0E       		.uleb128 0xe
 1236 0337 41030000 		.4byte	0x341
 1237 033b 0F       		.uleb128 0xf
 1238 033c 41030000 		.4byte	0x341
 1239 0340 00       		.byte	0
 1240 0341 10       		.uleb128 0x10
 1241 0342 04       		.byte	0x4
 1242 0343 03       		.uleb128 0x3
 1243 0344 FF050000 		.4byte	.LASF60
 1244 0348 0A       		.byte	0xa
 1245 0349 56       		.byte	0x56
 1246 034a 53030000 		.4byte	0x353
 1247 034e 05       		.uleb128 0x5
 1248 034f 43030000 		.4byte	0x343
 1249 0353 0D       		.uleb128 0xd
 1250 0354 02070000 		.4byte	.LASF61
ARM GAS  /tmp/ccwIqr9G.s 			page 23


 1251 0358 14       		.byte	0x14
 1252 0359 02       		.byte	0x2
 1253 035a 3901     		.2byte	0x139
 1254 035c A2030000 		.4byte	0x3a2
 1255 0360 0B       		.uleb128 0xb
 1256 0361 46010000 		.4byte	.LASF52
 1257 0365 02       		.byte	0x2
 1258 0366 3A01     		.2byte	0x13a
 1259 0368 08080000 		.4byte	0x808
 1260 036c 00       		.byte	0
 1261 036d 0B       		.uleb128 0xb
 1262 036e 57000000 		.4byte	.LASF55
 1263 0372 02       		.byte	0x2
 1264 0373 3B01     		.2byte	0x13b
 1265 0375 08080000 		.4byte	0x808
 1266 0379 04       		.byte	0x4
 1267 037a 0B       		.uleb128 0xb
 1268 037b 14000000 		.4byte	.LASF62
 1269 037f 02       		.byte	0x2
 1270 0380 3C01     		.2byte	0x13c
 1271 0382 86040000 		.4byte	0x486
 1272 0386 08       		.byte	0x8
 1273 0387 0B       		.uleb128 0xb
 1274 0388 E3020000 		.4byte	.LASF63
 1275 038c 02       		.byte	0x2
 1276 038d 3D01     		.2byte	0x13d
 1277 038f 25030000 		.4byte	0x325
 1278 0393 0C       		.byte	0xc
 1279 0394 0A       		.uleb128 0xa
 1280 0395 70617200 		.ascii	"par\000"
 1281 0399 02       		.byte	0x2
 1282 039a 3F01     		.2byte	0x13f
 1283 039c 41030000 		.4byte	0x341
 1284 03a0 10       		.byte	0x10
 1285 03a1 00       		.byte	0
 1286 03a2 03       		.uleb128 0x3
 1287 03a3 15010000 		.4byte	.LASF64
 1288 03a7 0A       		.byte	0xa
 1289 03a8 5B       		.byte	0x5b
 1290 03a9 AD030000 		.4byte	0x3ad
 1291 03ad 0D       		.uleb128 0xd
 1292 03ae 19050000 		.4byte	.LASF65
 1293 03b2 10       		.byte	0x10
 1294 03b3 02       		.byte	0x2
 1295 03b4 4901     		.2byte	0x149
 1296 03b6 EF030000 		.4byte	0x3ef
 1297 03ba 0B       		.uleb128 0xb
 1298 03bb 46010000 		.4byte	.LASF52
 1299 03bf 02       		.byte	0x2
 1300 03c0 4A01     		.2byte	0x14a
 1301 03c2 08080000 		.4byte	0x808
 1302 03c6 00       		.byte	0
 1303 03c7 0B       		.uleb128 0xb
 1304 03c8 57000000 		.4byte	.LASF55
 1305 03cc 02       		.byte	0x2
 1306 03cd 4C01     		.2byte	0x14c
 1307 03cf 08080000 		.4byte	0x808
ARM GAS  /tmp/ccwIqr9G.s 			page 24


 1308 03d3 04       		.byte	0x4
 1309 03d4 0B       		.uleb128 0xb
 1310 03d5 14000000 		.4byte	.LASF62
 1311 03d9 02       		.byte	0x2
 1312 03da 4E01     		.2byte	0x14e
 1313 03dc 86040000 		.4byte	0x486
 1314 03e0 08       		.byte	0x8
 1315 03e1 0B       		.uleb128 0xb
 1316 03e2 9E060000 		.4byte	.LASF66
 1317 03e6 02       		.byte	0x2
 1318 03e7 5601     		.2byte	0x156
 1319 03e9 7B040000 		.4byte	0x47b
 1320 03ed 0C       		.byte	0xc
 1321 03ee 00       		.byte	0
 1322 03ef 03       		.uleb128 0x3
 1323 03f0 79000000 		.4byte	.LASF67
 1324 03f4 0A       		.byte	0xa
 1325 03f5 60       		.byte	0x60
 1326 03f6 FA030000 		.4byte	0x3fa
 1327 03fa 0D       		.uleb128 0xd
 1328 03fb 54030000 		.4byte	.LASF68
 1329 03ff 04       		.byte	0x4
 1330 0400 02       		.byte	0x2
 1331 0401 7001     		.2byte	0x170
 1332 0403 15040000 		.4byte	0x415
 1333 0407 0B       		.uleb128 0xb
 1334 0408 37080000 		.4byte	.LASF69
 1335 040c 02       		.byte	0x2
 1336 040d 7801     		.2byte	0x178
 1337 040f F1070000 		.4byte	0x7f1
 1338 0413 00       		.byte	0
 1339 0414 00       		.byte	0
 1340 0415 03       		.uleb128 0x3
 1341 0416 5E040000 		.4byte	.LASF70
 1342 041a 0A       		.byte	0xa
 1343 041b 65       		.byte	0x65
 1344 041c 20040000 		.4byte	0x420
 1345 0420 0D       		.uleb128 0xd
 1346 0421 BF060000 		.4byte	.LASF71
 1347 0425 D0       		.byte	0xd0
 1348 0426 02       		.byte	0x2
 1349 0427 9001     		.2byte	0x190
 1350 0429 7B040000 		.4byte	0x47b
 1351 042d 0B       		.uleb128 0xb
 1352 042e 6C030000 		.4byte	.LASF72
 1353 0432 02       		.byte	0x2
 1354 0433 9401     		.2byte	0x194
 1355 0435 BE020000 		.4byte	0x2be
 1356 0439 00       		.byte	0
 1357 043a 0B       		.uleb128 0xb
 1358 043b A1020000 		.4byte	.LASF73
 1359 043f 02       		.byte	0x2
 1360 0440 9801     		.2byte	0x198
 1361 0442 A2030000 		.4byte	0x3a2
 1362 0446 1C       		.byte	0x1c
 1363 0447 0A       		.uleb128 0xa
 1364 0448 64626700 		.ascii	"dbg\000"
ARM GAS  /tmp/ccwIqr9G.s 			page 25


 1365 044c 02       		.byte	0x2
 1366 044d 9C01     		.2byte	0x19c
 1367 044f EF030000 		.4byte	0x3ef
 1368 0453 2C       		.byte	0x2c
 1369 0454 0B       		.uleb128 0xb
 1370 0455 02010000 		.4byte	.LASF74
 1371 0459 02       		.byte	0x2
 1372 045a A001     		.2byte	0x1a0
 1373 045c 63010000 		.4byte	0x163
 1374 0460 30       		.byte	0x30
 1375 0461 0A       		.uleb128 0xa
 1376 0462 746D00   		.ascii	"tm\000"
 1377 0465 02       		.byte	0x2
 1378 0466 A501     		.2byte	0x1a5
 1379 0468 84060000 		.4byte	0x684
 1380 046c 90       		.byte	0x90
 1381 046d 0B       		.uleb128 0xb
 1382 046e 5B080000 		.4byte	.LASF75
 1383 0472 02       		.byte	0x2
 1384 0473 AB01     		.2byte	0x1ab
 1385 0475 16070000 		.4byte	0x716
 1386 0479 98       		.byte	0x98
 1387 047a 00       		.byte	0
 1388 047b 03       		.uleb128 0x3
 1389 047c 16080000 		.4byte	.LASF76
 1390 0480 0B       		.byte	0xb
 1391 0481 6D       		.byte	0x6d
 1392 0482 DF000000 		.4byte	0xdf
 1393 0486 03       		.uleb128 0x3
 1394 0487 85030000 		.4byte	.LASF77
 1395 048b 0B       		.byte	0xb
 1396 048c 79       		.byte	0x79
 1397 048d DF000000 		.4byte	0xdf
 1398 0491 04       		.uleb128 0x4
 1399 0492 04       		.byte	0x4
 1400 0493 07       		.byte	0x7
 1401 0494 FD040000 		.4byte	.LASF78
 1402 0498 11       		.uleb128 0x11
 1403 0499 2B010000 		.4byte	.LASF79
 1404 049d 0C       		.byte	0xc
 1405 049e 0408     		.2byte	0x804
 1406 04a0 DA000000 		.4byte	0xda
 1407 04a4 12       		.uleb128 0x12
 1408 04a5 B6030000 		.4byte	.LASF80
 1409 04a9 0D       		.byte	0xd
 1410 04aa 4C       		.byte	0x4c
 1411 04ab DF000000 		.4byte	0xdf
 1412 04af 13       		.uleb128 0x13
 1413 04b0 BF000000 		.4byte	0xbf
 1414 04b4 BF040000 		.4byte	0x4bf
 1415 04b8 14       		.uleb128 0x14
 1416 04b9 91040000 		.4byte	0x491
 1417 04bd 0F       		.byte	0xf
 1418 04be 00       		.byte	0
 1419 04bf 05       		.uleb128 0x5
 1420 04c0 AF040000 		.4byte	0x4af
 1421 04c4 12       		.uleb128 0x12
ARM GAS  /tmp/ccwIqr9G.s 			page 26


 1422 04c5 9D040000 		.4byte	.LASF81
 1423 04c9 0D       		.byte	0xd
 1424 04ca 4E       		.byte	0x4e
 1425 04cb BF040000 		.4byte	0x4bf
 1426 04cf 13       		.uleb128 0x13
 1427 04d0 BF000000 		.4byte	0xbf
 1428 04d4 DF040000 		.4byte	0x4df
 1429 04d8 14       		.uleb128 0x14
 1430 04d9 91040000 		.4byte	0x491
 1431 04dd 07       		.byte	0x7
 1432 04de 00       		.byte	0
 1433 04df 05       		.uleb128 0x5
 1434 04e0 CF040000 		.4byte	0x4cf
 1435 04e4 12       		.uleb128 0x12
 1436 04e5 52050000 		.4byte	.LASF82
 1437 04e9 0D       		.byte	0xd
 1438 04ea 4F       		.byte	0x4f
 1439 04eb DF040000 		.4byte	0x4df
 1440 04ef 03       		.uleb128 0x3
 1441 04f0 30030000 		.4byte	.LASF83
 1442 04f4 0E       		.byte	0xe
 1443 04f5 65       		.byte	0x65
 1444 04f6 41030000 		.4byte	0x341
 1445 04fa 03       		.uleb128 0x3
 1446 04fb DB040000 		.4byte	.LASF84
 1447 04ff 0E       		.byte	0xe
 1448 0500 6D       		.byte	0x6d
 1449 0501 EA000000 		.4byte	0xea
 1450 0505 07       		.uleb128 0x7
 1451 0506 AF000000 		.4byte	.LASF85
 1452 050a 04       		.byte	0x4
 1453 050b 0E       		.byte	0xe
 1454 050c 89       		.byte	0x89
 1455 050d 1D050000 		.4byte	0x51d
 1456 0511 09       		.uleb128 0x9
 1457 0512 737000   		.ascii	"sp\000"
 1458 0515 0E       		.byte	0xe
 1459 0516 8A       		.byte	0x8a
 1460 0517 69060000 		.4byte	0x669
 1461 051b 00       		.byte	0
 1462 051c 00       		.byte	0
 1463 051d 0D       		.uleb128 0xd
 1464 051e 5C000000 		.4byte	.LASF86
 1465 0522 64       		.byte	0x64
 1466 0523 0F       		.byte	0xf
 1467 0524 5901     		.2byte	0x159
 1468 0526 69060000 		.4byte	0x669
 1469 052a 0A       		.uleb128 0xa
 1470 052b 73313600 		.ascii	"s16\000"
 1471 052f 0F       		.byte	0xf
 1472 0530 5B01     		.2byte	0x15b
 1473 0532 EF040000 		.4byte	0x4ef
 1474 0536 00       		.byte	0
 1475 0537 0A       		.uleb128 0xa
 1476 0538 73313700 		.ascii	"s17\000"
 1477 053c 0F       		.byte	0xf
 1478 053d 5C01     		.2byte	0x15c
ARM GAS  /tmp/ccwIqr9G.s 			page 27


 1479 053f EF040000 		.4byte	0x4ef
 1480 0543 04       		.byte	0x4
 1481 0544 0A       		.uleb128 0xa
 1482 0545 73313800 		.ascii	"s18\000"
 1483 0549 0F       		.byte	0xf
 1484 054a 5D01     		.2byte	0x15d
 1485 054c EF040000 		.4byte	0x4ef
 1486 0550 08       		.byte	0x8
 1487 0551 0A       		.uleb128 0xa
 1488 0552 73313900 		.ascii	"s19\000"
 1489 0556 0F       		.byte	0xf
 1490 0557 5E01     		.2byte	0x15e
 1491 0559 EF040000 		.4byte	0x4ef
 1492 055d 0C       		.byte	0xc
 1493 055e 0A       		.uleb128 0xa
 1494 055f 73323000 		.ascii	"s20\000"
 1495 0563 0F       		.byte	0xf
 1496 0564 5F01     		.2byte	0x15f
 1497 0566 EF040000 		.4byte	0x4ef
 1498 056a 10       		.byte	0x10
 1499 056b 0A       		.uleb128 0xa
 1500 056c 73323100 		.ascii	"s21\000"
 1501 0570 0F       		.byte	0xf
 1502 0571 6001     		.2byte	0x160
 1503 0573 EF040000 		.4byte	0x4ef
 1504 0577 14       		.byte	0x14
 1505 0578 0A       		.uleb128 0xa
 1506 0579 73323200 		.ascii	"s22\000"
 1507 057d 0F       		.byte	0xf
 1508 057e 6101     		.2byte	0x161
 1509 0580 EF040000 		.4byte	0x4ef
 1510 0584 18       		.byte	0x18
 1511 0585 0A       		.uleb128 0xa
 1512 0586 73323300 		.ascii	"s23\000"
 1513 058a 0F       		.byte	0xf
 1514 058b 6201     		.2byte	0x162
 1515 058d EF040000 		.4byte	0x4ef
 1516 0591 1C       		.byte	0x1c
 1517 0592 0A       		.uleb128 0xa
 1518 0593 73323400 		.ascii	"s24\000"
 1519 0597 0F       		.byte	0xf
 1520 0598 6301     		.2byte	0x163
 1521 059a EF040000 		.4byte	0x4ef
 1522 059e 20       		.byte	0x20
 1523 059f 0A       		.uleb128 0xa
 1524 05a0 73323500 		.ascii	"s25\000"
 1525 05a4 0F       		.byte	0xf
 1526 05a5 6401     		.2byte	0x164
 1527 05a7 EF040000 		.4byte	0x4ef
 1528 05ab 24       		.byte	0x24
 1529 05ac 0A       		.uleb128 0xa
 1530 05ad 73323600 		.ascii	"s26\000"
 1531 05b1 0F       		.byte	0xf
 1532 05b2 6501     		.2byte	0x165
 1533 05b4 EF040000 		.4byte	0x4ef
 1534 05b8 28       		.byte	0x28
 1535 05b9 0A       		.uleb128 0xa
ARM GAS  /tmp/ccwIqr9G.s 			page 28


 1536 05ba 73323700 		.ascii	"s27\000"
 1537 05be 0F       		.byte	0xf
 1538 05bf 6601     		.2byte	0x166
 1539 05c1 EF040000 		.4byte	0x4ef
 1540 05c5 2C       		.byte	0x2c
 1541 05c6 0A       		.uleb128 0xa
 1542 05c7 73323800 		.ascii	"s28\000"
 1543 05cb 0F       		.byte	0xf
 1544 05cc 6701     		.2byte	0x167
 1545 05ce EF040000 		.4byte	0x4ef
 1546 05d2 30       		.byte	0x30
 1547 05d3 0A       		.uleb128 0xa
 1548 05d4 73323900 		.ascii	"s29\000"
 1549 05d8 0F       		.byte	0xf
 1550 05d9 6801     		.2byte	0x168
 1551 05db EF040000 		.4byte	0x4ef
 1552 05df 34       		.byte	0x34
 1553 05e0 0A       		.uleb128 0xa
 1554 05e1 73333000 		.ascii	"s30\000"
 1555 05e5 0F       		.byte	0xf
 1556 05e6 6901     		.2byte	0x169
 1557 05e8 EF040000 		.4byte	0x4ef
 1558 05ec 38       		.byte	0x38
 1559 05ed 0A       		.uleb128 0xa
 1560 05ee 73333100 		.ascii	"s31\000"
 1561 05f2 0F       		.byte	0xf
 1562 05f3 6A01     		.2byte	0x16a
 1563 05f5 EF040000 		.4byte	0x4ef
 1564 05f9 3C       		.byte	0x3c
 1565 05fa 0A       		.uleb128 0xa
 1566 05fb 723400   		.ascii	"r4\000"
 1567 05fe 0F       		.byte	0xf
 1568 05ff 6C01     		.2byte	0x16c
 1569 0601 EF040000 		.4byte	0x4ef
 1570 0605 40       		.byte	0x40
 1571 0606 0A       		.uleb128 0xa
 1572 0607 723500   		.ascii	"r5\000"
 1573 060a 0F       		.byte	0xf
 1574 060b 6D01     		.2byte	0x16d
 1575 060d EF040000 		.4byte	0x4ef
 1576 0611 44       		.byte	0x44
 1577 0612 0A       		.uleb128 0xa
 1578 0613 723600   		.ascii	"r6\000"
 1579 0616 0F       		.byte	0xf
 1580 0617 6E01     		.2byte	0x16e
 1581 0619 EF040000 		.4byte	0x4ef
 1582 061d 48       		.byte	0x48
 1583 061e 0A       		.uleb128 0xa
 1584 061f 723700   		.ascii	"r7\000"
 1585 0622 0F       		.byte	0xf
 1586 0623 6F01     		.2byte	0x16f
 1587 0625 EF040000 		.4byte	0x4ef
 1588 0629 4C       		.byte	0x4c
 1589 062a 0A       		.uleb128 0xa
 1590 062b 723800   		.ascii	"r8\000"
 1591 062e 0F       		.byte	0xf
 1592 062f 7001     		.2byte	0x170
ARM GAS  /tmp/ccwIqr9G.s 			page 29


 1593 0631 EF040000 		.4byte	0x4ef
 1594 0635 50       		.byte	0x50
 1595 0636 0A       		.uleb128 0xa
 1596 0637 723900   		.ascii	"r9\000"
 1597 063a 0F       		.byte	0xf
 1598 063b 7101     		.2byte	0x171
 1599 063d EF040000 		.4byte	0x4ef
 1600 0641 54       		.byte	0x54
 1601 0642 0A       		.uleb128 0xa
 1602 0643 72313000 		.ascii	"r10\000"
 1603 0647 0F       		.byte	0xf
 1604 0648 7201     		.2byte	0x172
 1605 064a EF040000 		.4byte	0x4ef
 1606 064e 58       		.byte	0x58
 1607 064f 0A       		.uleb128 0xa
 1608 0650 72313100 		.ascii	"r11\000"
 1609 0654 0F       		.byte	0xf
 1610 0655 7301     		.2byte	0x173
 1611 0657 EF040000 		.4byte	0x4ef
 1612 065b 5C       		.byte	0x5c
 1613 065c 0A       		.uleb128 0xa
 1614 065d 6C7200   		.ascii	"lr\000"
 1615 0660 0F       		.byte	0xf
 1616 0661 7401     		.2byte	0x174
 1617 0663 EF040000 		.4byte	0x4ef
 1618 0667 60       		.byte	0x60
 1619 0668 00       		.byte	0
 1620 0669 0C       		.uleb128 0xc
 1621 066a 04       		.byte	0x4
 1622 066b 1D050000 		.4byte	0x51d
 1623 066f 15       		.uleb128 0x15
 1624 0670 04       		.byte	0x4
 1625 0671 10       		.byte	0x10
 1626 0672 38       		.byte	0x38
 1627 0673 84060000 		.4byte	0x684
 1628 0677 08       		.uleb128 0x8
 1629 0678 41080000 		.4byte	.LASF87
 1630 067c 10       		.byte	0x10
 1631 067d 3C       		.byte	0x3c
 1632 067e F5000000 		.4byte	0xf5
 1633 0682 00       		.byte	0
 1634 0683 00       		.byte	0
 1635 0684 03       		.uleb128 0x3
 1636 0685 6B050000 		.4byte	.LASF88
 1637 0689 10       		.byte	0x10
 1638 068a 3D       		.byte	0x3d
 1639 068b 6F060000 		.4byte	0x66f
 1640 068f 15       		.uleb128 0x15
 1641 0690 18       		.byte	0x18
 1642 0691 10       		.byte	0x10
 1643 0692 48       		.byte	0x48
 1644 0693 D2060000 		.4byte	0x6d2
 1645 0697 08       		.uleb128 0x8
 1646 0698 F4070000 		.4byte	.LASF89
 1647 069c 10       		.byte	0x10
 1648 069d 49       		.byte	0x49
 1649 069e F5000000 		.4byte	0xf5
ARM GAS  /tmp/ccwIqr9G.s 			page 30


 1650 06a2 00       		.byte	0
 1651 06a3 08       		.uleb128 0x8
 1652 06a4 BC000000 		.4byte	.LASF90
 1653 06a8 10       		.byte	0x10
 1654 06a9 4A       		.byte	0x4a
 1655 06aa F5000000 		.4byte	0xf5
 1656 06ae 04       		.byte	0x4
 1657 06af 08       		.uleb128 0x8
 1658 06b0 44040000 		.4byte	.LASF91
 1659 06b4 10       		.byte	0x10
 1660 06b5 4B       		.byte	0x4b
 1661 06b6 F5000000 		.4byte	0xf5
 1662 06ba 08       		.byte	0x8
 1663 06bb 09       		.uleb128 0x9
 1664 06bc 6E00     		.ascii	"n\000"
 1665 06be 10       		.byte	0x10
 1666 06bf 4C       		.byte	0x4c
 1667 06c0 58010000 		.4byte	0x158
 1668 06c4 0C       		.byte	0xc
 1669 06c5 08       		.uleb128 0x8
 1670 06c6 C5050000 		.4byte	.LASF92
 1671 06ca 10       		.byte	0x10
 1672 06cb 4D       		.byte	0x4d
 1673 06cc 00010000 		.4byte	0x100
 1674 06d0 10       		.byte	0x10
 1675 06d1 00       		.byte	0
 1676 06d2 03       		.uleb128 0x3
 1677 06d3 C2000000 		.4byte	.LASF93
 1678 06d7 10       		.byte	0x10
 1679 06d8 4E       		.byte	0x4e
 1680 06d9 8F060000 		.4byte	0x68f
 1681 06dd 15       		.uleb128 0x15
 1682 06de 38       		.byte	0x38
 1683 06df 11       		.byte	0x11
 1684 06e0 38       		.byte	0x38
 1685 06e1 16070000 		.4byte	0x716
 1686 06e5 08       		.uleb128 0x8
 1687 06e6 0A040000 		.4byte	.LASF94
 1688 06ea 11       		.byte	0x11
 1689 06eb 39       		.byte	0x39
 1690 06ec 58010000 		.4byte	0x158
 1691 06f0 00       		.byte	0
 1692 06f1 08       		.uleb128 0x8
 1693 06f2 50060000 		.4byte	.LASF95
 1694 06f6 11       		.byte	0x11
 1695 06f7 3A       		.byte	0x3a
 1696 06f8 58010000 		.4byte	0x158
 1697 06fc 04       		.byte	0x4
 1698 06fd 08       		.uleb128 0x8
 1699 06fe BA090000 		.4byte	.LASF96
 1700 0702 11       		.byte	0x11
 1701 0703 3B       		.byte	0x3b
 1702 0704 D2060000 		.4byte	0x6d2
 1703 0708 08       		.byte	0x8
 1704 0709 08       		.uleb128 0x8
 1705 070a 79040000 		.4byte	.LASF97
 1706 070e 11       		.byte	0x11
ARM GAS  /tmp/ccwIqr9G.s 			page 31


 1707 070f 3D       		.byte	0x3d
 1708 0710 D2060000 		.4byte	0x6d2
 1709 0714 20       		.byte	0x20
 1710 0715 00       		.byte	0
 1711 0716 03       		.uleb128 0x3
 1712 0717 25040000 		.4byte	.LASF98
 1713 071b 11       		.byte	0x11
 1714 071c 3F       		.byte	0x3f
 1715 071d DD060000 		.4byte	0x6dd
 1716 0721 16       		.uleb128 0x16
 1717 0722 04       		.byte	0x4
 1718 0723 02       		.byte	0x2
 1719 0724 C6       		.byte	0xc6
 1720 0725 83070000 		.4byte	0x783
 1721 0729 17       		.uleb128 0x17
 1722 072a 1A000000 		.4byte	.LASF99
 1723 072e 02       		.byte	0x2
 1724 072f CD       		.byte	0xcd
 1725 0730 37010000 		.4byte	0x137
 1726 0734 17       		.uleb128 0x17
 1727 0735 F9000000 		.4byte	.LASF100
 1728 0739 02       		.byte	0x2
 1729 073a D4       		.byte	0xd4
 1730 073b 37010000 		.4byte	0x137
 1731 073f 17       		.uleb128 0x17
 1732 0740 72040000 		.4byte	.LASF101
 1733 0744 02       		.byte	0x2
 1734 0745 DB       		.byte	0xdb
 1735 0746 41030000 		.4byte	0x341
 1736 074a 17       		.uleb128 0x17
 1737 074b DA030000 		.4byte	.LASF102
 1738 074f 02       		.byte	0x2
 1739 0750 E2       		.byte	0xe2
 1740 0751 83070000 		.4byte	0x783
 1741 0755 17       		.uleb128 0x17
 1742 0756 0D010000 		.4byte	.LASF103
 1743 075a 02       		.byte	0x2
 1744 075b E7       		.byte	0xe7
 1745 075c 37010000 		.4byte	0x137
 1746 0760 17       		.uleb128 0x17
 1747 0761 C6030000 		.4byte	.LASF104
 1748 0765 02       		.byte	0x2
 1749 0766 F0       		.byte	0xf0
 1750 0767 AE070000 		.4byte	0x7ae
 1751 076b 17       		.uleb128 0x17
 1752 076c 6B070000 		.4byte	.LASF105
 1753 0770 02       		.byte	0x2
 1754 0771 F9       		.byte	0xf9
 1755 0772 E5070000 		.4byte	0x7e5
 1756 0776 18       		.uleb128 0x18
 1757 0777 B8060000 		.4byte	.LASF106
 1758 077b 02       		.byte	0x2
 1759 077c 0101     		.2byte	0x101
 1760 077e 42010000 		.4byte	0x142
 1761 0782 00       		.byte	0
 1762 0783 0C       		.uleb128 0xc
 1763 0784 04       		.byte	0x4
ARM GAS  /tmp/ccwIqr9G.s 			page 32


 1764 0785 59020000 		.4byte	0x259
 1765 0789 07       		.uleb128 0x7
 1766 078a 13070000 		.4byte	.LASF107
 1767 078e 0C       		.byte	0xc
 1768 078f 05       		.byte	0x5
 1769 0790 34       		.byte	0x34
 1770 0791 AE070000 		.4byte	0x7ae
 1771 0795 08       		.uleb128 0x8
 1772 0796 10040000 		.4byte	.LASF32
 1773 079a 05       		.byte	0x5
 1774 079b 35       		.byte	0x35
 1775 079c 8E020000 		.4byte	0x28e
 1776 07a0 00       		.byte	0
 1777 07a1 09       		.uleb128 0x9
 1778 07a2 636E7400 		.ascii	"cnt\000"
 1779 07a6 05       		.byte	0x5
 1780 07a7 37       		.byte	0x37
 1781 07a8 4D010000 		.4byte	0x14d
 1782 07ac 08       		.byte	0x8
 1783 07ad 00       		.byte	0
 1784 07ae 0C       		.uleb128 0xc
 1785 07af 04       		.byte	0x4
 1786 07b0 89070000 		.4byte	0x789
 1787 07b4 07       		.uleb128 0x7
 1788 07b5 48080000 		.4byte	.LASF108
 1789 07b9 10       		.byte	0x10
 1790 07ba 12       		.byte	0x12
 1791 07bb 39       		.byte	0x39
 1792 07bc E5070000 		.4byte	0x7e5
 1793 07c0 08       		.uleb128 0x8
 1794 07c1 10040000 		.4byte	.LASF32
 1795 07c5 12       		.byte	0x12
 1796 07c6 3A       		.byte	0x3a
 1797 07c7 8E020000 		.4byte	0x28e
 1798 07cb 00       		.byte	0
 1799 07cc 08       		.uleb128 0x8
 1800 07cd 8E070000 		.4byte	.LASF109
 1801 07d1 12       		.byte	0x12
 1802 07d2 3C       		.byte	0x3c
 1803 07d3 64020000 		.4byte	0x264
 1804 07d7 08       		.byte	0x8
 1805 07d8 08       		.uleb128 0x8
 1806 07d9 46010000 		.4byte	.LASF52
 1807 07dd 12       		.byte	0x12
 1808 07de 3E       		.byte	0x3e
 1809 07df 52090000 		.4byte	0x952
 1810 07e3 0C       		.byte	0xc
 1811 07e4 00       		.byte	0
 1812 07e5 0C       		.uleb128 0xc
 1813 07e6 04       		.byte	0x4
 1814 07e7 B4070000 		.4byte	0x7b4
 1815 07eb 0C       		.uleb128 0xc
 1816 07ec 04       		.byte	0x4
 1817 07ed FD070000 		.4byte	0x7fd
 1818 07f1 06       		.uleb128 0x6
 1819 07f2 EB070000 		.4byte	0x7eb
 1820 07f6 04       		.uleb128 0x4
ARM GAS  /tmp/ccwIqr9G.s 			page 33


 1821 07f7 01       		.byte	0x1
 1822 07f8 08       		.byte	0x8
 1823 07f9 AD070000 		.4byte	.LASF110
 1824 07fd 05       		.uleb128 0x5
 1825 07fe F6070000 		.4byte	0x7f6
 1826 0802 0C       		.uleb128 0xc
 1827 0803 04       		.byte	0x4
 1828 0804 FA040000 		.4byte	0x4fa
 1829 0808 0C       		.uleb128 0xc
 1830 0809 04       		.byte	0x4
 1831 080a 43030000 		.4byte	0x343
 1832 080e 19       		.uleb128 0x19
 1833 080f 636800   		.ascii	"ch\000"
 1834 0812 02       		.byte	0x2
 1835 0813 C701     		.2byte	0x1c7
 1836 0815 15040000 		.4byte	0x415
 1837 0819 13       		.uleb128 0x13
 1838 081a FA040000 		.4byte	0x4fa
 1839 081e 24080000 		.4byte	0x824
 1840 0822 1A       		.uleb128 0x1a
 1841 0823 00       		.byte	0
 1842 0824 11       		.uleb128 0x11
 1843 0825 29070000 		.4byte	.LASF111
 1844 0829 04       		.byte	0x4
 1845 082a 1701     		.2byte	0x117
 1846 082c 19080000 		.4byte	0x819
 1847 0830 15       		.uleb128 0x15
 1848 0831 16       		.byte	0x16
 1849 0832 13       		.byte	0x13
 1850 0833 34       		.byte	0x34
 1851 0834 11090000 		.4byte	0x911
 1852 0838 08       		.uleb128 0x8
 1853 0839 68080000 		.4byte	.LASF112
 1854 083d 13       		.byte	0x13
 1855 083e 35       		.byte	0x35
 1856 083f 11090000 		.4byte	0x911
 1857 0843 00       		.byte	0
 1858 0844 08       		.uleb128 0x8
 1859 0845 72030000 		.4byte	.LASF113
 1860 0849 13       		.byte	0x13
 1861 084a 36       		.byte	0x36
 1862 084b B4000000 		.4byte	0xb4
 1863 084f 04       		.byte	0x4
 1864 0850 08       		.uleb128 0x8
 1865 0851 7E010000 		.4byte	.LASF114
 1866 0855 13       		.byte	0x13
 1867 0856 37       		.byte	0x37
 1868 0857 B4000000 		.4byte	0xb4
 1869 085b 05       		.byte	0x5
 1870 085c 08       		.uleb128 0x8
 1871 085d F5040000 		.4byte	.LASF115
 1872 0861 13       		.byte	0x13
 1873 0862 38       		.byte	0x38
 1874 0863 C4000000 		.4byte	0xc4
 1875 0867 06       		.byte	0x6
 1876 0868 08       		.uleb128 0x8
 1877 0869 A7080000 		.4byte	.LASF116
ARM GAS  /tmp/ccwIqr9G.s 			page 34


 1878 086d 13       		.byte	0x13
 1879 086e 39       		.byte	0x39
 1880 086f B4000000 		.4byte	0xb4
 1881 0873 08       		.byte	0x8
 1882 0874 08       		.uleb128 0x8
 1883 0875 3B070000 		.4byte	.LASF117
 1884 0879 13       		.byte	0x13
 1885 087a 3A       		.byte	0x3a
 1886 087b B4000000 		.4byte	0xb4
 1887 087f 09       		.byte	0x9
 1888 0880 08       		.uleb128 0x8
 1889 0881 EF050000 		.4byte	.LASF118
 1890 0885 13       		.byte	0x13
 1891 0886 3B       		.byte	0x3b
 1892 0887 B4000000 		.4byte	0xb4
 1893 088b 0A       		.byte	0xa
 1894 088c 08       		.uleb128 0x8
 1895 088d 75060000 		.4byte	.LASF119
 1896 0891 13       		.byte	0x13
 1897 0892 3C       		.byte	0x3c
 1898 0893 B4000000 		.4byte	0xb4
 1899 0897 0B       		.byte	0xb
 1900 0898 08       		.uleb128 0x8
 1901 0899 6A040000 		.4byte	.LASF120
 1902 089d 13       		.byte	0x13
 1903 089e 3D       		.byte	0x3d
 1904 089f B4000000 		.4byte	0xb4
 1905 08a3 0C       		.byte	0xc
 1906 08a4 08       		.uleb128 0x8
 1907 08a5 48050000 		.4byte	.LASF121
 1908 08a9 13       		.byte	0x13
 1909 08aa 3E       		.byte	0x3e
 1910 08ab B4000000 		.4byte	0xb4
 1911 08af 0D       		.byte	0xd
 1912 08b0 08       		.uleb128 0x8
 1913 08b1 51080000 		.4byte	.LASF122
 1914 08b5 13       		.byte	0x13
 1915 08b6 3F       		.byte	0x3f
 1916 08b7 B4000000 		.4byte	0xb4
 1917 08bb 0E       		.byte	0xe
 1918 08bc 08       		.uleb128 0x8
 1919 08bd DE080000 		.4byte	.LASF123
 1920 08c1 13       		.byte	0x13
 1921 08c2 40       		.byte	0x40
 1922 08c3 B4000000 		.4byte	0xb4
 1923 08c7 0F       		.byte	0xf
 1924 08c8 08       		.uleb128 0x8
 1925 08c9 7E060000 		.4byte	.LASF124
 1926 08cd 13       		.byte	0x13
 1927 08ce 41       		.byte	0x41
 1928 08cf B4000000 		.4byte	0xb4
 1929 08d3 10       		.byte	0x10
 1930 08d4 08       		.uleb128 0x8
 1931 08d5 2D090000 		.4byte	.LASF125
 1932 08d9 13       		.byte	0x13
 1933 08da 42       		.byte	0x42
 1934 08db B4000000 		.4byte	0xb4
ARM GAS  /tmp/ccwIqr9G.s 			page 35


 1935 08df 11       		.byte	0x11
 1936 08e0 08       		.uleb128 0x8
 1937 08e1 A8090000 		.4byte	.LASF126
 1938 08e5 13       		.byte	0x13
 1939 08e6 43       		.byte	0x43
 1940 08e7 B4000000 		.4byte	0xb4
 1941 08eb 12       		.byte	0x12
 1942 08ec 08       		.uleb128 0x8
 1943 08ed 1C040000 		.4byte	.LASF127
 1944 08f1 13       		.byte	0x13
 1945 08f2 44       		.byte	0x44
 1946 08f3 B4000000 		.4byte	0xb4
 1947 08f7 13       		.byte	0x13
 1948 08f8 08       		.uleb128 0x8
 1949 08f9 EE020000 		.4byte	.LASF128
 1950 08fd 13       		.byte	0x13
 1951 08fe 45       		.byte	0x45
 1952 08ff B4000000 		.4byte	0xb4
 1953 0903 14       		.byte	0x14
 1954 0904 08       		.uleb128 0x8
 1955 0905 20070000 		.4byte	.LASF129
 1956 0909 13       		.byte	0x13
 1957 090a 46       		.byte	0x46
 1958 090b B4000000 		.4byte	0xb4
 1959 090f 15       		.byte	0x15
 1960 0910 00       		.byte	0
 1961 0911 13       		.uleb128 0x13
 1962 0912 F6070000 		.4byte	0x7f6
 1963 0916 21090000 		.4byte	0x921
 1964 091a 14       		.uleb128 0x14
 1965 091b 91040000 		.4byte	0x491
 1966 091f 03       		.byte	0x3
 1967 0920 00       		.byte	0
 1968 0921 03       		.uleb128 0x3
 1969 0922 E5050000 		.4byte	.LASF130
 1970 0926 13       		.byte	0x13
 1971 0927 47       		.byte	0x47
 1972 0928 30080000 		.4byte	0x830
 1973 092c 05       		.uleb128 0x5
 1974 092d 21090000 		.4byte	0x921
 1975 0931 12       		.uleb128 0x12
 1976 0932 E0030000 		.4byte	.LASF131
 1977 0936 13       		.byte	0x13
 1978 0937 6C       		.byte	0x6c
 1979 0938 2C090000 		.4byte	0x92c
 1980 093c 03       		.uleb128 0x3
 1981 093d F6060000 		.4byte	.LASF132
 1982 0941 05       		.byte	0x5
 1983 0942 38       		.byte	0x38
 1984 0943 89070000 		.4byte	0x789
 1985 0947 03       		.uleb128 0x3
 1986 0948 77030000 		.4byte	.LASF133
 1987 094c 12       		.byte	0x12
 1988 094d 34       		.byte	0x34
 1989 094e B4070000 		.4byte	0x7b4
 1990 0952 0C       		.uleb128 0xc
 1991 0953 04       		.byte	0x4
ARM GAS  /tmp/ccwIqr9G.s 			page 36


 1992 0954 47090000 		.4byte	0x947
 1993 0958 04       		.uleb128 0x4
 1994 0959 01       		.byte	0x1
 1995 095a 02       		.byte	0x2
 1996 095b 59060000 		.4byte	.LASF134
 1997 095f 03       		.uleb128 0x3
 1998 0960 D0050000 		.4byte	.LASF135
 1999 0964 14       		.byte	0x14
 2000 0965 47       		.byte	0x47
 2001 0966 6A090000 		.4byte	0x96a
 2002 096a 0C       		.uleb128 0xc
 2003 096b 04       		.byte	0x4
 2004 096c 70090000 		.4byte	0x970
 2005 0970 1B       		.uleb128 0x1b
 2006 0971 41030000 		.4byte	0x341
 2007 0975 84090000 		.4byte	0x984
 2008 0979 0F       		.uleb128 0xf
 2009 097a 2C000000 		.4byte	0x2c
 2010 097e 0F       		.uleb128 0xf
 2011 097f 37000000 		.4byte	0x37
 2012 0983 00       		.byte	0
 2013 0984 15       		.uleb128 0x15
 2014 0985 08       		.byte	0x8
 2015 0986 14       		.byte	0x14
 2016 0987 51       		.byte	0x51
 2017 0988 A5090000 		.4byte	0x9a5
 2018 098c 08       		.uleb128 0x8
 2019 098d FF090000 		.4byte	.LASF136
 2020 0991 14       		.byte	0x14
 2021 0992 55       		.byte	0x55
 2022 0993 A5090000 		.4byte	0x9a5
 2023 0997 00       		.byte	0
 2024 0998 08       		.uleb128 0x8
 2025 0999 AB040000 		.4byte	.LASF137
 2026 099d 14       		.byte	0x14
 2027 099e 59       		.byte	0x59
 2028 099f A5090000 		.4byte	0x9a5
 2029 09a3 04       		.byte	0x4
 2030 09a4 00       		.byte	0
 2031 09a5 0C       		.uleb128 0xc
 2032 09a6 04       		.byte	0x4
 2033 09a7 B4000000 		.4byte	0xb4
 2034 09ab 03       		.uleb128 0x3
 2035 09ac BB050000 		.4byte	.LASF138
 2036 09b0 14       		.byte	0x14
 2037 09b1 5A       		.byte	0x5a
 2038 09b2 84090000 		.4byte	0x984
 2039 09b6 12       		.uleb128 0x12
 2040 09b7 F9070000 		.4byte	.LASF139
 2041 09bb 14       		.byte	0x14
 2042 09bc 65       		.byte	0x65
 2043 09bd AB090000 		.4byte	0x9ab
 2044 09c1 07       		.uleb128 0x7
 2045 09c2 D2080000 		.4byte	.LASF140
 2046 09c6 04       		.byte	0x4
 2047 09c7 15       		.byte	0x15
 2048 09c8 38       		.byte	0x38
ARM GAS  /tmp/ccwIqr9G.s 			page 37


 2049 09c9 DA090000 		.4byte	0x9da
 2050 09cd 08       		.uleb128 0x8
 2051 09ce 46010000 		.4byte	.LASF52
 2052 09d2 15       		.byte	0x15
 2053 09d3 39       		.byte	0x39
 2054 09d4 DA090000 		.4byte	0x9da
 2055 09d8 00       		.byte	0
 2056 09d9 00       		.byte	0
 2057 09da 0C       		.uleb128 0xc
 2058 09db 04       		.byte	0x4
 2059 09dc C1090000 		.4byte	0x9c1
 2060 09e0 15       		.uleb128 0x15
 2061 09e1 10       		.byte	0x10
 2062 09e2 15       		.byte	0x15
 2063 09e3 40       		.byte	0x40
 2064 09e4 190A0000 		.4byte	0xa19
 2065 09e8 08       		.uleb128 0x8
 2066 09e9 46010000 		.4byte	.LASF52
 2067 09ed 15       		.byte	0x15
 2068 09ee 41       		.byte	0x41
 2069 09ef DA090000 		.4byte	0x9da
 2070 09f3 00       		.byte	0
 2071 09f4 08       		.uleb128 0x8
 2072 09f5 9B080000 		.4byte	.LASF141
 2073 09f9 15       		.byte	0x15
 2074 09fa 42       		.byte	0x42
 2075 09fb 2C000000 		.4byte	0x2c
 2076 09ff 04       		.byte	0x4
 2077 0a00 08       		.uleb128 0x8
 2078 0a01 7F030000 		.4byte	.LASF142
 2079 0a05 15       		.byte	0x15
 2080 0a06 44       		.byte	0x44
 2081 0a07 37000000 		.4byte	0x37
 2082 0a0b 08       		.byte	0x8
 2083 0a0c 08       		.uleb128 0x8
 2084 0a0d 88000000 		.4byte	.LASF143
 2085 0a11 15       		.byte	0x15
 2086 0a12 45       		.byte	0x45
 2087 0a13 5F090000 		.4byte	0x95f
 2088 0a17 0C       		.byte	0xc
 2089 0a18 00       		.byte	0
 2090 0a19 03       		.uleb128 0x3
 2091 0a1a FC030000 		.4byte	.LASF144
 2092 0a1e 15       		.byte	0x15
 2093 0a1f 47       		.byte	0x47
 2094 0a20 E0090000 		.4byte	0x9e0
 2095 0a24 07       		.uleb128 0x7
 2096 0a25 0F060000 		.4byte	.LASF145
 2097 0a29 10       		.byte	0x10
 2098 0a2a 16       		.byte	0x16
 2099 0a2b A9       		.byte	0xa9
 2100 0a2c 550A0000 		.4byte	0xa55
 2101 0a30 08       		.uleb128 0x8
 2102 0a31 46010000 		.4byte	.LASF52
 2103 0a35 16       		.byte	0x16
 2104 0a36 AD       		.byte	0xad
 2105 0a37 550A0000 		.4byte	0xa55
ARM GAS  /tmp/ccwIqr9G.s 			page 38


 2106 0a3b 00       		.byte	0
 2107 0a3c 08       		.uleb128 0x8
 2108 0a3d FA050000 		.4byte	.LASF40
 2109 0a41 16       		.byte	0x16
 2110 0a42 B1       		.byte	0xb1
 2111 0a43 58010000 		.4byte	0x158
 2112 0a47 04       		.byte	0x4
 2113 0a48 08       		.uleb128 0x8
 2114 0a49 59040000 		.4byte	.LASF36
 2115 0a4d 16       		.byte	0x16
 2116 0a4e B3       		.byte	0xb3
 2117 0a4f 5B0A0000 		.4byte	0xa5b
 2118 0a53 08       		.byte	0x8
 2119 0a54 00       		.byte	0
 2120 0a55 0C       		.uleb128 0xc
 2121 0a56 04       		.byte	0x4
 2122 0a57 240A0000 		.4byte	0xa24
 2123 0a5b 13       		.uleb128 0x13
 2124 0a5c F6070000 		.4byte	0x7f6
 2125 0a60 6B0A0000 		.4byte	0xa6b
 2126 0a64 14       		.uleb128 0x14
 2127 0a65 91040000 		.4byte	0x491
 2128 0a69 07       		.byte	0x7
 2129 0a6a 00       		.byte	0
 2130 0a6b 03       		.uleb128 0x3
 2131 0a6c 38010000 		.4byte	.LASF146
 2132 0a70 16       		.byte	0x16
 2133 0a71 B7       		.byte	0xb7
 2134 0a72 240A0000 		.4byte	0xa24
 2135 0a76 07       		.uleb128 0x7
 2136 0a77 3C050000 		.4byte	.LASF147
 2137 0a7b 04       		.byte	0x4
 2138 0a7c 16       		.byte	0x16
 2139 0a7d BC       		.byte	0xbc
 2140 0a7e 8F0A0000 		.4byte	0xa8f
 2141 0a82 08       		.uleb128 0x8
 2142 0a83 46010000 		.4byte	.LASF52
 2143 0a87 16       		.byte	0x16
 2144 0a88 BD       		.byte	0xbd
 2145 0a89 8F0A0000 		.4byte	0xa8f
 2146 0a8d 00       		.byte	0
 2147 0a8e 00       		.byte	0
 2148 0a8f 0C       		.uleb128 0xc
 2149 0a90 04       		.byte	0x4
 2150 0a91 6B0A0000 		.4byte	0xa6b
 2151 0a95 03       		.uleb128 0x3
 2152 0a96 60050000 		.4byte	.LASF148
 2153 0a9a 16       		.byte	0x16
 2154 0a9b BE       		.byte	0xbe
 2155 0a9c 760A0000 		.4byte	0xa76
 2156 0aa0 0D       		.uleb128 0xd
 2157 0aa1 AF080000 		.4byte	.LASF149
 2158 0aa5 44       		.byte	0x44
 2159 0aa6 16       		.byte	0x16
 2160 0aa7 3E01     		.2byte	0x13e
 2161 0aa9 160B0000 		.4byte	0xb16
 2162 0aad 0A       		.uleb128 0xa
ARM GAS  /tmp/ccwIqr9G.s 			page 39


 2163 0aae 6D747800 		.ascii	"mtx\000"
 2164 0ab2 16       		.byte	0x16
 2165 0ab3 4301     		.2byte	0x143
 2166 0ab5 47090000 		.4byte	0x947
 2167 0ab9 00       		.byte	0
 2168 0aba 0B       		.uleb128 0xb
 2169 0abb C2070000 		.4byte	.LASF150
 2170 0abf 16       		.byte	0x16
 2171 0ac0 4A01     		.2byte	0x14a
 2172 0ac2 950A0000 		.4byte	0xa95
 2173 0ac6 10       		.byte	0x10
 2174 0ac7 0B       		.uleb128 0xb
 2175 0ac8 ED060000 		.4byte	.LASF151
 2176 0acc 16       		.byte	0x16
 2177 0acd 4E01     		.2byte	0x14e
 2178 0acf 190A0000 		.4byte	0xa19
 2179 0ad3 14       		.byte	0x14
 2180 0ad4 0B       		.uleb128 0xb
 2181 0ad5 39060000 		.4byte	.LASF152
 2182 0ad9 16       		.byte	0x16
 2183 0ada 5301     		.2byte	0x153
 2184 0adc 950A0000 		.4byte	0xa95
 2185 0ae0 24       		.byte	0x24
 2186 0ae1 0B       		.uleb128 0xb
 2187 0ae2 9C000000 		.4byte	.LASF153
 2188 0ae6 16       		.byte	0x16
 2189 0ae7 5901     		.2byte	0x159
 2190 0ae9 950A0000 		.4byte	0xa95
 2191 0aed 28       		.byte	0x28
 2192 0aee 0B       		.uleb128 0xb
 2193 0aef 9F050000 		.4byte	.LASF154
 2194 0af3 16       		.byte	0x16
 2195 0af4 5D01     		.2byte	0x15d
 2196 0af6 190A0000 		.4byte	0xa19
 2197 0afa 2C       		.byte	0x2c
 2198 0afb 0B       		.uleb128 0xb
 2199 0afc 4B030000 		.4byte	.LASF155
 2200 0b00 16       		.byte	0x16
 2201 0b01 6301     		.2byte	0x163
 2202 0b03 950A0000 		.4byte	0xa95
 2203 0b07 3C       		.byte	0x3c
 2204 0b08 0B       		.uleb128 0xb
 2205 0b09 F5080000 		.4byte	.LASF156
 2206 0b0d 16       		.byte	0x16
 2207 0b0e 6901     		.2byte	0x169
 2208 0b10 950A0000 		.4byte	0xa95
 2209 0b14 40       		.byte	0x40
 2210 0b15 00       		.byte	0
 2211 0b16 1C       		.uleb128 0x1c
 2212 0b17 79090000 		.4byte	.LASF157
 2213 0b1b 16       		.byte	0x16
 2214 0b1c 7101     		.2byte	0x171
 2215 0b1e A00A0000 		.4byte	0xaa0
 2216 0b22 11       		.uleb128 0x11
 2217 0b23 E9030000 		.4byte	.LASF158
 2218 0b27 16       		.byte	0x16
 2219 0b28 7C01     		.2byte	0x17c
ARM GAS  /tmp/ccwIqr9G.s 			page 40


 2220 0b2a 160B0000 		.4byte	0xb16
 2221 0b2e 1D       		.uleb128 0x1d
 2222 0b2f 0E080000 		.4byte	0x80e
 2223 0b33 01       		.byte	0x1
 2224 0b34 2A       		.byte	0x2a
 2225 0b35 05       		.uleb128 0x5
 2226 0b36 03       		.byte	0x3
 2227 0b37 00000000 		.4byte	ch
 2228 0b3b 1E       		.uleb128 0x1e
 2229 0b3c 39030000 		.4byte	.LASF159
 2230 0b40 01       		.byte	0x1
 2231 0b41 3A02     		.2byte	0x23a
 2232 0b43 00000000 		.4byte	.LFB301
 2233 0b47 34000000 		.4byte	.LFE301-.LFB301
 2234 0b4b 01       		.uleb128 0x1
 2235 0b4c 9C       		.byte	0x9c
 2236 0b4d C00B0000 		.4byte	0xbc0
 2237 0b51 1F       		.uleb128 0x1f
 2238 0b52 6F747000 		.ascii	"otp\000"
 2239 0b56 01       		.byte	0x1
 2240 0b57 3B02     		.2byte	0x23b
 2241 0b59 64020000 		.4byte	0x264
 2242 0b5d 00000000 		.4byte	.LLST21
 2243 0b61 20       		.uleb128 0x20
 2244 0b62 97110000 		.4byte	0x1197
 2245 0b66 04000000 		.4byte	.LBB94
 2246 0b6a 30000000 		.4byte	.Ldebug_ranges0+0x30
 2247 0b6e 01       		.byte	0x1
 2248 0b6f 3E02     		.2byte	0x23e
 2249 0b71 8E0B0000 		.4byte	0xb8e
 2250 0b75 21       		.uleb128 0x21
 2251 0b76 A8110000 		.4byte	0x11a8
 2252 0b7a 3F000000 		.4byte	.LLST22
 2253 0b7e 22       		.uleb128 0x22
 2254 0b7f 30000000 		.4byte	.Ldebug_ranges0+0x30
 2255 0b83 23       		.uleb128 0x23
 2256 0b84 B4110000 		.4byte	0x11b4
 2257 0b88 57000000 		.4byte	.LLST23
 2258 0b8c 00       		.byte	0
 2259 0b8d 00       		.byte	0
 2260 0b8e 24       		.uleb128 0x24
 2261 0b8f 1A000000 		.4byte	.LVL61
 2262 0b93 47100000 		.4byte	0x1047
 2263 0b97 A20B0000 		.4byte	0xba2
 2264 0b9b 25       		.uleb128 0x25
 2265 0b9c 01       		.uleb128 0x1
 2266 0b9d 50       		.byte	0x50
 2267 0b9e 02       		.uleb128 0x2
 2268 0b9f 70       		.byte	0x70
 2269 0ba0 00       		.sleb128 0
 2270 0ba1 00       		.byte	0
 2271 0ba2 24       		.uleb128 0x24
 2272 0ba3 24000000 		.4byte	.LVL64
 2273 0ba7 1E120000 		.4byte	0x121e
 2274 0bab B60B0000 		.4byte	0xbb6
 2275 0baf 25       		.uleb128 0x25
 2276 0bb0 01       		.uleb128 0x1
ARM GAS  /tmp/ccwIqr9G.s 			page 41


 2277 0bb1 51       		.byte	0x51
 2278 0bb2 02       		.uleb128 0x2
 2279 0bb3 75       		.byte	0x75
 2280 0bb4 00       		.sleb128 0
 2281 0bb5 00       		.byte	0
 2282 0bb6 26       		.uleb128 0x26
 2283 0bb7 30000000 		.4byte	.LVL66
 2284 0bbb 29120000 		.4byte	0x1229
 2285 0bbf 00       		.byte	0
 2286 0bc0 27       		.uleb128 0x27
 2287 0bc1 2A000000 		.4byte	.LASF195
 2288 0bc5 01       		.byte	0x1
 2289 0bc6 1C02     		.2byte	0x21c
 2290 0bc8 D90B0000 		.4byte	0xbd9
 2291 0bcc 28       		.uleb128 0x28
 2292 0bcd 6F747000 		.ascii	"otp\000"
 2293 0bd1 01       		.byte	0x1
 2294 0bd2 1D02     		.2byte	0x21d
 2295 0bd4 64020000 		.4byte	0x264
 2296 0bd8 00       		.byte	0
 2297 0bd9 1E       		.uleb128 0x1e
 2298 0bda 61090000 		.4byte	.LASF160
 2299 0bde 01       		.byte	0x1
 2300 0bdf FB01     		.2byte	0x1fb
 2301 0be1 00000000 		.4byte	.LFB299
 2302 0be5 34000000 		.4byte	.LFE299-.LFB299
 2303 0be9 01       		.uleb128 0x1
 2304 0bea 9C       		.byte	0x9c
 2305 0beb 5E0C0000 		.4byte	0xc5e
 2306 0bef 1F       		.uleb128 0x1f
 2307 0bf0 6F747000 		.ascii	"otp\000"
 2308 0bf4 01       		.byte	0x1
 2309 0bf5 FC01     		.2byte	0x1fc
 2310 0bf7 64020000 		.4byte	0x264
 2311 0bfb 6A000000 		.4byte	.LLST18
 2312 0bff 20       		.uleb128 0x20
 2313 0c00 97110000 		.4byte	0x1197
 2314 0c04 04000000 		.4byte	.LBB90
 2315 0c08 18000000 		.4byte	.Ldebug_ranges0+0x18
 2316 0c0c 01       		.byte	0x1
 2317 0c0d FF01     		.2byte	0x1ff
 2318 0c0f 2C0C0000 		.4byte	0xc2c
 2319 0c13 21       		.uleb128 0x21
 2320 0c14 A8110000 		.4byte	0x11a8
 2321 0c18 A9000000 		.4byte	.LLST19
 2322 0c1c 22       		.uleb128 0x22
 2323 0c1d 18000000 		.4byte	.Ldebug_ranges0+0x18
 2324 0c21 23       		.uleb128 0x23
 2325 0c22 B4110000 		.4byte	0x11b4
 2326 0c26 C1000000 		.4byte	.LLST20
 2327 0c2a 00       		.byte	0
 2328 0c2b 00       		.byte	0
 2329 0c2c 24       		.uleb128 0x24
 2330 0c2d 1A000000 		.4byte	.LVL53
 2331 0c31 9C100000 		.4byte	0x109c
 2332 0c35 400C0000 		.4byte	0xc40
 2333 0c39 25       		.uleb128 0x25
ARM GAS  /tmp/ccwIqr9G.s 			page 42


 2334 0c3a 01       		.uleb128 0x1
 2335 0c3b 50       		.byte	0x50
 2336 0c3c 02       		.uleb128 0x2
 2337 0c3d 70       		.byte	0x70
 2338 0c3e 00       		.sleb128 0
 2339 0c3f 00       		.byte	0
 2340 0c40 24       		.uleb128 0x24
 2341 0c41 24000000 		.4byte	.LVL56
 2342 0c45 1E120000 		.4byte	0x121e
 2343 0c49 540C0000 		.4byte	0xc54
 2344 0c4d 25       		.uleb128 0x25
 2345 0c4e 01       		.uleb128 0x1
 2346 0c4f 51       		.byte	0x51
 2347 0c50 02       		.uleb128 0x2
 2348 0c51 75       		.byte	0x75
 2349 0c52 00       		.sleb128 0
 2350 0c53 00       		.byte	0
 2351 0c54 26       		.uleb128 0x26
 2352 0c55 30000000 		.4byte	.LVL58
 2353 0c59 29120000 		.4byte	0x1229
 2354 0c5d 00       		.byte	0
 2355 0c5e 29       		.uleb128 0x29
 2356 0c5f FA020000 		.4byte	.LASF163
 2357 0c63 01       		.byte	0x1
 2358 0c64 DF01     		.2byte	0x1df
 2359 0c66 58090000 		.4byte	0x958
 2360 0c6a 00000000 		.4byte	.LFB298
 2361 0c6e 18000000 		.4byte	.LFE298-.LFB298
 2362 0c72 01       		.uleb128 0x1
 2363 0c73 9C       		.byte	0x9c
 2364 0c74 A10C0000 		.4byte	0xca1
 2365 0c78 2A       		.uleb128 0x2a
 2366 0c79 703100   		.ascii	"p1\000"
 2367 0c7c 01       		.byte	0x1
 2368 0c7d E001     		.2byte	0x1e0
 2369 0c7f 2C010000 		.4byte	0x12c
 2370 0c83 08       		.uleb128 0x8
 2371 0c84 03       		.byte	0x3
 2372 0c85 00000000 		.4byte	ch
 2373 0c89 06       		.byte	0x6
 2374 0c8a 23       		.byte	0x23
 2375 0c8b 08       		.uleb128 0x8
 2376 0c8c 2A       		.uleb128 0x2a
 2377 0c8d 703200   		.ascii	"p2\000"
 2378 0c90 01       		.byte	0x1
 2379 0c91 E101     		.2byte	0x1e1
 2380 0c93 2C010000 		.4byte	0x12c
 2381 0c97 08       		.uleb128 0x8
 2382 0c98 03       		.byte	0x3
 2383 0c99 18000000 		.4byte	ch+24
 2384 0c9d 06       		.byte	0x6
 2385 0c9e 23       		.byte	0x23
 2386 0c9f 08       		.uleb128 0x8
 2387 0ca0 00       		.byte	0
 2388 0ca1 1E       		.uleb128 0x1e
 2389 0ca2 14030000 		.4byte	.LASF161
 2390 0ca6 01       		.byte	0x1
ARM GAS  /tmp/ccwIqr9G.s 			page 43


 2391 0ca7 C801     		.2byte	0x1c8
 2392 0ca9 00000000 		.4byte	.LFB297
 2393 0cad 12000000 		.4byte	.LFE297-.LFB297
 2394 0cb1 01       		.uleb128 0x1
 2395 0cb2 9C       		.byte	0x9c
 2396 0cb3 CA0C0000 		.4byte	0xcca
 2397 0cb7 2B       		.uleb128 0x2b
 2398 0cb8 06000000 		.4byte	.LVL67
 2399 0cbc 6E110000 		.4byte	0x116e
 2400 0cc0 26       		.uleb128 0x26
 2401 0cc1 10000000 		.4byte	.LVL68
 2402 0cc5 3B0B0000 		.4byte	0xb3b
 2403 0cc9 00       		.byte	0
 2404 0cca 1E       		.uleb128 0x1e
 2405 0ccb 8E080000 		.4byte	.LASF162
 2406 0ccf 01       		.byte	0x1
 2407 0cd0 9C01     		.2byte	0x19c
 2408 0cd2 00000000 		.4byte	.LFB296
 2409 0cd6 44000000 		.4byte	.LFE296-.LFB296
 2410 0cda 01       		.uleb128 0x1
 2411 0cdb 9C       		.byte	0x9c
 2412 0cdc 6D0D0000 		.4byte	0xd6d
 2413 0ce0 2C       		.uleb128 0x2c
 2414 0ce1 6E747000 		.ascii	"ntp\000"
 2415 0ce5 01       		.byte	0x1
 2416 0ce6 9C01     		.2byte	0x19c
 2417 0ce8 64020000 		.4byte	0x264
 2418 0cec D4000000 		.4byte	.LLST15
 2419 0cf0 2C       		.uleb128 0x2c
 2420 0cf1 6D736700 		.ascii	"msg\000"
 2421 0cf5 01       		.byte	0x1
 2422 0cf6 9C01     		.2byte	0x19c
 2423 0cf8 37010000 		.4byte	0x137
 2424 0cfc 16010000 		.4byte	.LLST16
 2425 0d00 1F       		.uleb128 0x1f
 2426 0d01 6F747000 		.ascii	"otp\000"
 2427 0d05 01       		.byte	0x1
 2428 0d06 9D01     		.2byte	0x19d
 2429 0d08 64020000 		.4byte	0x264
 2430 0d0c 69010000 		.4byte	.LLST17
 2431 0d10 2D       		.uleb128 0x2d
 2432 0d11 D1060000 		.4byte	.LASF169
 2433 0d15 7D0D0000 		.4byte	0xd7d
 2434 0d19 2E       		.uleb128 0x2e
 2435 0d1a 1A000000 		.4byte	.LVL42
 2436 0d1e 9C100000 		.4byte	0x109c
 2437 0d22 2D0D0000 		.4byte	0xd2d
 2438 0d26 25       		.uleb128 0x25
 2439 0d27 01       		.uleb128 0x1
 2440 0d28 50       		.byte	0x50
 2441 0d29 02       		.uleb128 0x2
 2442 0d2a 70       		.byte	0x70
 2443 0d2b 00       		.sleb128 0
 2444 0d2c 00       		.byte	0
 2445 0d2d 24       		.uleb128 0x24
 2446 0d2e 20000000 		.4byte	.LVL44
 2447 0d32 9C100000 		.4byte	0x109c
ARM GAS  /tmp/ccwIqr9G.s 			page 44


 2448 0d36 410D0000 		.4byte	0xd41
 2449 0d3a 25       		.uleb128 0x25
 2450 0d3b 01       		.uleb128 0x1
 2451 0d3c 50       		.byte	0x50
 2452 0d3d 02       		.uleb128 0x2
 2453 0d3e 70       		.byte	0x70
 2454 0d3f 00       		.sleb128 0
 2455 0d40 00       		.byte	0
 2456 0d41 24       		.uleb128 0x24
 2457 0d42 32000000 		.4byte	.LVL47
 2458 0d46 1E120000 		.4byte	0x121e
 2459 0d4a 5B0D0000 		.4byte	0xd5b
 2460 0d4e 25       		.uleb128 0x25
 2461 0d4f 01       		.uleb128 0x1
 2462 0d50 50       		.byte	0x50
 2463 0d51 02       		.uleb128 0x2
 2464 0d52 74       		.byte	0x74
 2465 0d53 00       		.sleb128 0
 2466 0d54 25       		.uleb128 0x25
 2467 0d55 01       		.uleb128 0x1
 2468 0d56 51       		.byte	0x51
 2469 0d57 02       		.uleb128 0x2
 2470 0d58 75       		.byte	0x75
 2471 0d59 00       		.sleb128 0
 2472 0d5a 00       		.byte	0
 2473 0d5b 2F       		.uleb128 0x2f
 2474 0d5c 3E000000 		.4byte	.LVL49
 2475 0d60 29120000 		.4byte	0x1229
 2476 0d64 25       		.uleb128 0x25
 2477 0d65 01       		.uleb128 0x1
 2478 0d66 50       		.byte	0x50
 2479 0d67 03       		.uleb128 0x3
 2480 0d68 F3       		.byte	0xf3
 2481 0d69 01       		.uleb128 0x1
 2482 0d6a 50       		.byte	0x50
 2483 0d6b 00       		.byte	0
 2484 0d6c 00       		.byte	0
 2485 0d6d 13       		.uleb128 0x13
 2486 0d6e FD070000 		.4byte	0x7fd
 2487 0d72 7D0D0000 		.4byte	0xd7d
 2488 0d76 14       		.uleb128 0x14
 2489 0d77 91040000 		.4byte	0x491
 2490 0d7b 0C       		.byte	0xc
 2491 0d7c 00       		.byte	0
 2492 0d7d 05       		.uleb128 0x5
 2493 0d7e 6D0D0000 		.4byte	0xd6d
 2494 0d82 29       		.uleb128 0x29
 2495 0d83 37090000 		.4byte	.LASF164
 2496 0d87 01       		.byte	0x1
 2497 0d88 7701     		.2byte	0x177
 2498 0d8a 37010000 		.4byte	0x137
 2499 0d8e 00000000 		.4byte	.LFB295
 2500 0d92 3C000000 		.4byte	.LFE295-.LFB295
 2501 0d96 01       		.uleb128 0x1
 2502 0d97 9C       		.byte	0x9c
 2503 0d98 2A0E0000 		.4byte	0xe2a
 2504 0d9c 30       		.uleb128 0x30
ARM GAS  /tmp/ccwIqr9G.s 			page 45


 2505 0d9d 8B060000 		.4byte	.LASF165
 2506 0da1 01       		.byte	0x1
 2507 0da2 7701     		.2byte	0x177
 2508 0da4 16010000 		.4byte	0x116
 2509 0da8 BE010000 		.4byte	.LLST13
 2510 0dac 30       		.uleb128 0x30
 2511 0dad F4030000 		.4byte	.LASF166
 2512 0db1 01       		.byte	0x1
 2513 0db2 7701     		.2byte	0x177
 2514 0db4 86040000 		.4byte	0x486
 2515 0db8 F8010000 		.4byte	.LLST14
 2516 0dbc 31       		.uleb128 0x31
 2517 0dbd 0C000000 		.4byte	.LBB89
 2518 0dc1 1A000000 		.4byte	.LBE89-.LBB89
 2519 0dc5 200E0000 		.4byte	0xe20
 2520 0dc9 2A       		.uleb128 0x2a
 2521 0dca 767400   		.ascii	"vt\000"
 2522 0dcd 01       		.byte	0x1
 2523 0dce 7C01     		.2byte	0x17c
 2524 0dd0 43030000 		.4byte	0x343
 2525 0dd4 02       		.uleb128 0x2
 2526 0dd5 91       		.byte	0x91
 2527 0dd6 5C       		.sleb128 -36
 2528 0dd7 24       		.uleb128 0x24
 2529 0dd8 16000000 		.4byte	.LVL33
 2530 0ddc 35120000 		.4byte	0x1235
 2531 0de0 FB0D0000 		.4byte	0xdfb
 2532 0de4 25       		.uleb128 0x25
 2533 0de5 01       		.uleb128 0x1
 2534 0de6 50       		.byte	0x50
 2535 0de7 02       		.uleb128 0x2
 2536 0de8 91       		.byte	0x91
 2537 0de9 5C       		.sleb128 -36
 2538 0dea 25       		.uleb128 0x25
 2539 0deb 01       		.uleb128 0x1
 2540 0dec 51       		.byte	0x51
 2541 0ded 03       		.uleb128 0x3
 2542 0dee F3       		.byte	0xf3
 2543 0def 01       		.uleb128 0x1
 2544 0df0 51       		.byte	0x51
 2545 0df1 25       		.uleb128 0x25
 2546 0df2 01       		.uleb128 0x1
 2547 0df3 52       		.byte	0x52
 2548 0df4 05       		.uleb128 0x5
 2549 0df5 03       		.byte	0x3
 2550 0df6 00000000 		.4byte	wakeup
 2551 0dfa 00       		.byte	0
 2552 0dfb 24       		.uleb128 0x24
 2553 0dfc 1C000000 		.4byte	.LVL34
 2554 0e00 C20F0000 		.4byte	0xfc2
 2555 0e04 0F0E0000 		.4byte	0xe0f
 2556 0e08 25       		.uleb128 0x25
 2557 0e09 01       		.uleb128 0x1
 2558 0e0a 50       		.byte	0x50
 2559 0e0b 02       		.uleb128 0x2
 2560 0e0c 75       		.byte	0x75
 2561 0e0d 00       		.sleb128 0
ARM GAS  /tmp/ccwIqr9G.s 			page 46


 2562 0e0e 00       		.byte	0
 2563 0e0f 32       		.uleb128 0x32
 2564 0e10 26000000 		.4byte	.LVL36
 2565 0e14 40120000 		.4byte	0x1240
 2566 0e18 25       		.uleb128 0x25
 2567 0e19 01       		.uleb128 0x1
 2568 0e1a 50       		.byte	0x50
 2569 0e1b 02       		.uleb128 0x2
 2570 0e1c 91       		.byte	0x91
 2571 0e1d 5C       		.sleb128 -36
 2572 0e1e 00       		.byte	0
 2573 0e1f 00       		.byte	0
 2574 0e20 2B       		.uleb128 0x2b
 2575 0e21 32000000 		.4byte	.LVL38
 2576 0e25 C20F0000 		.4byte	0xfc2
 2577 0e29 00       		.byte	0
 2578 0e2a 33       		.uleb128 0x33
 2579 0e2b A6030000 		.4byte	.LASF196
 2580 0e2f 01       		.byte	0x1
 2581 0e30 3F01     		.2byte	0x13f
 2582 0e32 00000000 		.4byte	.LFB294
 2583 0e36 5E000000 		.4byte	.LFE294-.LFB294
 2584 0e3a 01       		.uleb128 0x1
 2585 0e3b 9C       		.byte	0x9c
 2586 0e3c C20F0000 		.4byte	0xfc2
 2587 0e40 2C       		.uleb128 0x2c
 2588 0e41 7000     		.ascii	"p\000"
 2589 0e43 01       		.byte	0x1
 2590 0e44 3F01     		.2byte	0x13f
 2591 0e46 41030000 		.4byte	0x341
 2592 0e4a 32020000 		.4byte	.LLST2
 2593 0e4e 1F       		.uleb128 0x1f
 2594 0e4f 747000   		.ascii	"tp\000"
 2595 0e52 01       		.byte	0x1
 2596 0e53 4001     		.2byte	0x140
 2597 0e55 64020000 		.4byte	0x264
 2598 0e59 50020000 		.4byte	.LLST3
 2599 0e5d 34       		.uleb128 0x34
 2600 0e5e 65110000 		.4byte	0x1165
 2601 0e62 04000000 		.4byte	.LBB65
 2602 0e66 0A000000 		.4byte	.LBE65-.LBB65
 2603 0e6a 01       		.byte	0x1
 2604 0e6b 4201     		.2byte	0x142
 2605 0e6d BB0E0000 		.4byte	0xebb
 2606 0e71 34       		.uleb128 0x34
 2607 0e72 E9110000 		.4byte	0x11e9
 2608 0e76 04000000 		.4byte	.LBB67
 2609 0e7a 06000000 		.4byte	.LBE67-.LBB67
 2610 0e7e 04       		.byte	0x4
 2611 0e7f 8B01     		.2byte	0x18b
 2612 0e81 B10E0000 		.4byte	0xeb1
 2613 0e85 35       		.uleb128 0x35
 2614 0e86 FB110000 		.4byte	0x11fb
 2615 0e8a 04000000 		.4byte	.LBB68
 2616 0e8e 06000000 		.4byte	.LBE68-.LBB68
 2617 0e92 0F       		.byte	0xf
 2618 0e93 8302     		.2byte	0x283
ARM GAS  /tmp/ccwIqr9G.s 			page 47


 2619 0e95 35       		.uleb128 0x35
 2620 0e96 04120000 		.4byte	0x1204
 2621 0e9a 04000000 		.4byte	.LBB69
 2622 0e9e 06000000 		.4byte	.LBE69-.LBB69
 2623 0ea2 0F       		.byte	0xf
 2624 0ea3 6202     		.2byte	0x262
 2625 0ea5 21       		.uleb128 0x21
 2626 0ea6 11120000 		.4byte	0x1211
 2627 0eaa 6E020000 		.4byte	.LLST4
 2628 0eae 00       		.byte	0
 2629 0eaf 00       		.byte	0
 2630 0eb0 00       		.byte	0
 2631 0eb1 2B       		.uleb128 0x2b
 2632 0eb2 0E000000 		.4byte	.LVL9
 2633 0eb6 4B120000 		.4byte	0x124b
 2634 0eba 00       		.byte	0
 2635 0ebb 34       		.uleb128 0x34
 2636 0ebc 5C110000 		.4byte	0x115c
 2637 0ec0 24000000 		.4byte	.LBB71
 2638 0ec4 0A000000 		.4byte	.LBE71-.LBB71
 2639 0ec8 01       		.byte	0x1
 2640 0ec9 4701     		.2byte	0x147
 2641 0ecb 190F0000 		.4byte	0xf19
 2642 0ecf 34       		.uleb128 0x34
 2643 0ed0 E0110000 		.4byte	0x11e0
 2644 0ed4 28000000 		.4byte	.LBB73
 2645 0ed8 06000000 		.4byte	.LBE73-.LBB73
 2646 0edc 04       		.byte	0x4
 2647 0edd A101     		.2byte	0x1a1
 2648 0edf 0F0F0000 		.4byte	0xf0f
 2649 0ee3 35       		.uleb128 0x35
 2650 0ee4 F2110000 		.4byte	0x11f2
 2651 0ee8 28000000 		.4byte	.LBB74
 2652 0eec 06000000 		.4byte	.LBE74-.LBB74
 2653 0ef0 0F       		.byte	0xf
 2654 0ef1 8E02     		.2byte	0x28e
 2655 0ef3 35       		.uleb128 0x35
 2656 0ef4 04120000 		.4byte	0x1204
 2657 0ef8 28000000 		.4byte	.LBB75
 2658 0efc 06000000 		.4byte	.LBE75-.LBB75
 2659 0f00 0F       		.byte	0xf
 2660 0f01 7502     		.2byte	0x275
 2661 0f03 21       		.uleb128 0x21
 2662 0f04 11120000 		.4byte	0x1211
 2663 0f08 83020000 		.4byte	.LLST5
 2664 0f0c 00       		.byte	0
 2665 0f0d 00       		.byte	0
 2666 0f0e 00       		.byte	0
 2667 0f0f 2B       		.uleb128 0x2b
 2668 0f10 28000000 		.4byte	.LVL10
 2669 0f14 56120000 		.4byte	0x1256
 2670 0f18 00       		.byte	0
 2671 0f19 34       		.uleb128 0x34
 2672 0f1a 5C110000 		.4byte	0x115c
 2673 0f1e 3E000000 		.4byte	.LBB77
 2674 0f22 0C000000 		.4byte	.LBE77-.LBB77
 2675 0f26 01       		.byte	0x1
ARM GAS  /tmp/ccwIqr9G.s 			page 48


 2676 0f27 5F01     		.2byte	0x15f
 2677 0f29 770F0000 		.4byte	0xf77
 2678 0f2d 34       		.uleb128 0x34
 2679 0f2e E0110000 		.4byte	0x11e0
 2680 0f32 42000000 		.4byte	.LBB79
 2681 0f36 08000000 		.4byte	.LBE79-.LBB79
 2682 0f3a 04       		.byte	0x4
 2683 0f3b A101     		.2byte	0x1a1
 2684 0f3d 6D0F0000 		.4byte	0xf6d
 2685 0f41 35       		.uleb128 0x35
 2686 0f42 F2110000 		.4byte	0x11f2
 2687 0f46 42000000 		.4byte	.LBB80
 2688 0f4a 08000000 		.4byte	.LBE80-.LBB80
 2689 0f4e 0F       		.byte	0xf
 2690 0f4f 8E02     		.2byte	0x28e
 2691 0f51 35       		.uleb128 0x35
 2692 0f52 04120000 		.4byte	0x1204
 2693 0f56 42000000 		.4byte	.LBB81
 2694 0f5a 08000000 		.4byte	.LBE81-.LBB81
 2695 0f5e 0F       		.byte	0xf
 2696 0f5f 7502     		.2byte	0x275
 2697 0f61 21       		.uleb128 0x21
 2698 0f62 11120000 		.4byte	0x1211
 2699 0f66 97020000 		.4byte	.LLST6
 2700 0f6a 00       		.byte	0
 2701 0f6b 00       		.byte	0
 2702 0f6c 00       		.byte	0
 2703 0f6d 2B       		.uleb128 0x2b
 2704 0f6e 42000000 		.4byte	.LVL14
 2705 0f72 56120000 		.4byte	0x1256
 2706 0f76 00       		.byte	0
 2707 0f77 34       		.uleb128 0x34
 2708 0f78 1D110000 		.4byte	0x111d
 2709 0f7c 4C000000 		.4byte	.LBB83
 2710 0f80 06000000 		.4byte	.LBE83-.LBB83
 2711 0f84 01       		.byte	0x1
 2712 0f85 4E01     		.2byte	0x14e
 2713 0f87 950F0000 		.4byte	0xf95
 2714 0f8b 21       		.uleb128 0x21
 2715 0f8c 29110000 		.4byte	0x1129
 2716 0f90 AB020000 		.4byte	.LLST7
 2717 0f94 00       		.byte	0
 2718 0f95 34       		.uleb128 0x34
 2719 0f96 7A110000 		.4byte	0x117a
 2720 0f9a 52000000 		.4byte	.LBB85
 2721 0f9e 0C000000 		.4byte	.LBE85-.LBB85
 2722 0fa2 01       		.byte	0x1
 2723 0fa3 5701     		.2byte	0x157
 2724 0fa5 B10F0000 		.4byte	0xfb1
 2725 0fa9 36       		.uleb128 0x36
 2726 0faa 8B110000 		.4byte	0x118b
 2727 0fae 01       		.uleb128 0x1
 2728 0faf 54       		.byte	0x54
 2729 0fb0 00       		.byte	0
 2730 0fb1 32       		.uleb128 0x32
 2731 0fb2 3E000000 		.4byte	.LVL13
 2732 0fb6 9C100000 		.4byte	0x109c
ARM GAS  /tmp/ccwIqr9G.s 			page 49


 2733 0fba 25       		.uleb128 0x25
 2734 0fbb 01       		.uleb128 0x1
 2735 0fbc 50       		.byte	0x50
 2736 0fbd 02       		.uleb128 0x2
 2737 0fbe 70       		.byte	0x70
 2738 0fbf 00       		.sleb128 0
 2739 0fc0 00       		.byte	0
 2740 0fc1 00       		.byte	0
 2741 0fc2 1E       		.uleb128 0x1e
 2742 0fc3 42060000 		.4byte	.LASF167
 2743 0fc7 01       		.byte	0x1
 2744 0fc8 2101     		.2byte	0x121
 2745 0fca 00000000 		.4byte	.LFB293
 2746 0fce 30000000 		.4byte	.LFE293-.LFB293
 2747 0fd2 01       		.uleb128 0x1
 2748 0fd3 9C       		.byte	0x9c
 2749 0fd4 47100000 		.4byte	0x1047
 2750 0fd8 30       		.uleb128 0x30
 2751 0fd9 8B060000 		.4byte	.LASF165
 2752 0fdd 01       		.byte	0x1
 2753 0fde 2101     		.2byte	0x121
 2754 0fe0 16010000 		.4byte	0x116
 2755 0fe4 BE020000 		.4byte	.LLST9
 2756 0fe8 1F       		.uleb128 0x1f
 2757 0fe9 6F747000 		.ascii	"otp\000"
 2758 0fed 01       		.byte	0x1
 2759 0fee 2201     		.2byte	0x122
 2760 0ff0 64020000 		.4byte	0x264
 2761 0ff4 EB020000 		.4byte	.LLST10
 2762 0ff8 34       		.uleb128 0x34
 2763 0ff9 97110000 		.4byte	0x1197
 2764 0ffd 0A000000 		.4byte	.LBB87
 2765 1001 08000000 		.4byte	.LBE87-.LBB87
 2766 1005 01       		.byte	0x1
 2767 1006 3001     		.2byte	0x130
 2768 1008 29100000 		.4byte	0x1029
 2769 100c 21       		.uleb128 0x21
 2770 100d A8110000 		.4byte	0x11a8
 2771 1011 09030000 		.4byte	.LLST11
 2772 1015 37       		.uleb128 0x37
 2773 1016 0A000000 		.4byte	.LBB88
 2774 101a 08000000 		.4byte	.LBE88-.LBB88
 2775 101e 23       		.uleb128 0x23
 2776 101f B4110000 		.4byte	0x11b4
 2777 1023 21030000 		.4byte	.LLST12
 2778 1027 00       		.byte	0
 2779 1028 00       		.byte	0
 2780 1029 24       		.uleb128 0x24
 2781 102a 20000000 		.4byte	.LVL28
 2782 102e 1E120000 		.4byte	0x121e
 2783 1032 3D100000 		.4byte	0x103d
 2784 1036 25       		.uleb128 0x25
 2785 1037 01       		.uleb128 0x1
 2786 1038 51       		.byte	0x51
 2787 1039 02       		.uleb128 0x2
 2788 103a 75       		.byte	0x75
 2789 103b 00       		.sleb128 0
ARM GAS  /tmp/ccwIqr9G.s 			page 50


 2790 103c 00       		.byte	0
 2791 103d 26       		.uleb128 0x26
 2792 103e 2C000000 		.4byte	.LVL30
 2793 1042 29120000 		.4byte	0x1229
 2794 1046 00       		.byte	0
 2795 1047 29       		.uleb128 0x29
 2796 1048 51070000 		.4byte	.LASF168
 2797 104c 01       		.byte	0x1
 2798 104d 0101     		.2byte	0x101
 2799 104f 64020000 		.4byte	0x264
 2800 1053 00000000 		.4byte	.LFB292
 2801 1057 24000000 		.4byte	.LFE292-.LFB292
 2802 105b 01       		.uleb128 0x1
 2803 105c 9C       		.byte	0x9c
 2804 105d 87100000 		.4byte	0x1087
 2805 1061 38       		.uleb128 0x38
 2806 1062 747000   		.ascii	"tp\000"
 2807 1065 01       		.byte	0x1
 2808 1066 0101     		.2byte	0x101
 2809 1068 64020000 		.4byte	0x264
 2810 106c 01       		.uleb128 0x1
 2811 106d 50       		.byte	0x50
 2812 106e 1F       		.uleb128 0x1f
 2813 106f 637000   		.ascii	"cp\000"
 2814 1072 01       		.byte	0x1
 2815 1073 0201     		.2byte	0x102
 2816 1075 64020000 		.4byte	0x264
 2817 1079 34030000 		.4byte	.LLST8
 2818 107d 2D       		.uleb128 0x2d
 2819 107e D1060000 		.4byte	.LASF169
 2820 1082 97100000 		.4byte	0x1097
 2821 1086 00       		.byte	0
 2822 1087 13       		.uleb128 0x13
 2823 1088 FD070000 		.4byte	0x7fd
 2824 108c 97100000 		.4byte	0x1097
 2825 1090 14       		.uleb128 0x14
 2826 1091 91040000 		.4byte	0x491
 2827 1095 10       		.byte	0x10
 2828 1096 00       		.byte	0
 2829 1097 05       		.uleb128 0x5
 2830 1098 87100000 		.4byte	0x1087
 2831 109c 39       		.uleb128 0x39
 2832 109d 72070000 		.4byte	.LASF170
 2833 10a1 01       		.byte	0x1
 2834 10a2 DA       		.byte	0xda
 2835 10a3 64020000 		.4byte	0x264
 2836 10a7 00000000 		.4byte	.LFB291
 2837 10ab 24000000 		.4byte	.LFE291-.LFB291
 2838 10af 01       		.uleb128 0x1
 2839 10b0 9C       		.byte	0x9c
 2840 10b1 D9100000 		.4byte	0x10d9
 2841 10b5 3A       		.uleb128 0x3a
 2842 10b6 747000   		.ascii	"tp\000"
 2843 10b9 01       		.byte	0x1
 2844 10ba DA       		.byte	0xda
 2845 10bb 64020000 		.4byte	0x264
 2846 10bf 01       		.uleb128 0x1
ARM GAS  /tmp/ccwIqr9G.s 			page 51


 2847 10c0 50       		.byte	0x50
 2848 10c1 3B       		.uleb128 0x3b
 2849 10c2 637000   		.ascii	"cp\000"
 2850 10c5 01       		.byte	0x1
 2851 10c6 DB       		.byte	0xdb
 2852 10c7 64020000 		.4byte	0x264
 2853 10cb 57030000 		.4byte	.LLST1
 2854 10cf 2D       		.uleb128 0x2d
 2855 10d0 D1060000 		.4byte	.LASF169
 2856 10d4 E9100000 		.4byte	0x10e9
 2857 10d8 00       		.byte	0
 2858 10d9 13       		.uleb128 0x13
 2859 10da FD070000 		.4byte	0x7fd
 2860 10de E9100000 		.4byte	0x10e9
 2861 10e2 14       		.uleb128 0x14
 2862 10e3 91040000 		.4byte	0x491
 2863 10e7 0B       		.byte	0xb
 2864 10e8 00       		.byte	0
 2865 10e9 05       		.uleb128 0x5
 2866 10ea D9100000 		.4byte	0x10d9
 2867 10ee 3C       		.uleb128 0x3c
 2868 10ef 54010000 		.4byte	.LASF171
 2869 10f3 01       		.byte	0x1
 2870 10f4 41       		.byte	0x41
 2871 10f5 00000000 		.4byte	.LFB290
 2872 10f9 14000000 		.4byte	.LFE290-.LFB290
 2873 10fd 01       		.uleb128 0x1
 2874 10fe 9C       		.byte	0x9c
 2875 10ff 1D110000 		.4byte	0x111d
 2876 1103 3D       		.uleb128 0x3d
 2877 1104 C6110000 		.4byte	0x11c6
 2878 1108 00000000 		.4byte	.LBB39
 2879 110c 00000000 		.4byte	.Ldebug_ranges0+0
 2880 1110 01       		.byte	0x1
 2881 1111 43       		.byte	0x43
 2882 1112 21       		.uleb128 0x21
 2883 1113 D3110000 		.4byte	0x11d3
 2884 1117 7A030000 		.4byte	.LLST0
 2885 111b 00       		.byte	0
 2886 111c 00       		.byte	0
 2887 111d 3E       		.uleb128 0x3e
 2888 111e A7060000 		.4byte	.LASF178
 2889 1122 05       		.byte	0x5
 2890 1123 86       		.byte	0x86
 2891 1124 03       		.byte	0x3
 2892 1125 34110000 		.4byte	0x1134
 2893 1129 3F       		.uleb128 0x3f
 2894 112a 737000   		.ascii	"sp\000"
 2895 112d 05       		.byte	0x5
 2896 112e 86       		.byte	0x86
 2897 112f 34110000 		.4byte	0x1134
 2898 1133 00       		.byte	0
 2899 1134 0C       		.uleb128 0xc
 2900 1135 04       		.byte	0x4
 2901 1136 3C090000 		.4byte	0x93c
 2902 113a 40       		.uleb128 0x40
 2903 113b 44070000 		.4byte	.LASF175
ARM GAS  /tmp/ccwIqr9G.s 			page 52


 2904 113f 17       		.byte	0x17
 2905 1140 F1       		.byte	0xf1
 2906 1141 58090000 		.4byte	0x958
 2907 1145 03       		.byte	0x3
 2908 1146 56110000 		.4byte	0x1156
 2909 114a 3F       		.uleb128 0x3f
 2910 114b 76747000 		.ascii	"vtp\000"
 2911 114f 17       		.byte	0x17
 2912 1150 F1       		.byte	0xf1
 2913 1151 56110000 		.4byte	0x1156
 2914 1155 00       		.byte	0
 2915 1156 0C       		.uleb128 0xc
 2916 1157 04       		.byte	0x4
 2917 1158 4E030000 		.4byte	0x34e
 2918 115c 41       		.uleb128 0x41
 2919 115d 26060000 		.4byte	.LASF172
 2920 1161 04       		.byte	0x4
 2921 1162 9D01     		.2byte	0x19d
 2922 1164 03       		.byte	0x3
 2923 1165 41       		.uleb128 0x41
 2924 1166 0D090000 		.4byte	.LASF173
 2925 116a 04       		.byte	0x4
 2926 116b 8901     		.2byte	0x189
 2927 116d 03       		.byte	0x3
 2928 116e 42       		.uleb128 0x42
 2929 116f 4C090000 		.4byte	.LASF174
 2930 1173 02       		.byte	0x2
 2931 1174 8402     		.2byte	0x284
 2932 1176 58090000 		.4byte	0x958
 2933 117a 43       		.uleb128 0x43
 2934 117b CC020000 		.4byte	.LASF176
 2935 117f 02       		.byte	0x2
 2936 1180 7002     		.2byte	0x270
 2937 1182 64020000 		.4byte	0x264
 2938 1186 03       		.byte	0x3
 2939 1187 97110000 		.4byte	0x1197
 2940 118b 44       		.uleb128 0x44
 2941 118c 747000   		.ascii	"tp\000"
 2942 118f 02       		.byte	0x2
 2943 1190 7002     		.2byte	0x270
 2944 1192 64020000 		.4byte	0x264
 2945 1196 00       		.byte	0
 2946 1197 43       		.uleb128 0x43
 2947 1198 04080000 		.4byte	.LASF177
 2948 119c 02       		.byte	0x2
 2949 119d 5E02     		.2byte	0x25e
 2950 119f 64020000 		.4byte	0x264
 2951 11a3 03       		.byte	0x3
 2952 11a4 C0110000 		.4byte	0x11c0
 2953 11a8 44       		.uleb128 0x44
 2954 11a9 74717000 		.ascii	"tqp\000"
 2955 11ad 02       		.byte	0x2
 2956 11ae 5E02     		.2byte	0x25e
 2957 11b0 C0110000 		.4byte	0x11c0
 2958 11b4 28       		.uleb128 0x28
 2959 11b5 747000   		.ascii	"tp\000"
 2960 11b8 02       		.byte	0x2
ARM GAS  /tmp/ccwIqr9G.s 			page 53


 2961 11b9 5F02     		.2byte	0x25f
 2962 11bb 64020000 		.4byte	0x264
 2963 11bf 00       		.byte	0
 2964 11c0 0C       		.uleb128 0xc
 2965 11c1 04       		.byte	0x4
 2966 11c2 8E020000 		.4byte	0x28e
 2967 11c6 45       		.uleb128 0x45
 2968 11c7 91000000 		.4byte	.LASF179
 2969 11cb 02       		.byte	0x2
 2970 11cc 1902     		.2byte	0x219
 2971 11ce 03       		.byte	0x3
 2972 11cf E0110000 		.4byte	0x11e0
 2973 11d3 44       		.uleb128 0x44
 2974 11d4 74717000 		.ascii	"tqp\000"
 2975 11d8 02       		.byte	0x2
 2976 11d9 1902     		.2byte	0x219
 2977 11db C0110000 		.4byte	0x11c0
 2978 11df 00       		.byte	0
 2979 11e0 41       		.uleb128 0x41
 2980 11e1 D6070000 		.4byte	.LASF180
 2981 11e5 0F       		.byte	0xf
 2982 11e6 8C02     		.2byte	0x28c
 2983 11e8 03       		.byte	0x3
 2984 11e9 41       		.uleb128 0x41
 2985 11ea 7B080000 		.4byte	.LASF181
 2986 11ee 0F       		.byte	0xf
 2987 11ef 8102     		.2byte	0x281
 2988 11f1 03       		.byte	0x3
 2989 11f2 41       		.uleb128 0x41
 2990 11f3 A8020000 		.4byte	.LASF182
 2991 11f7 0F       		.byte	0xf
 2992 11f8 7202     		.2byte	0x272
 2993 11fa 03       		.byte	0x3
 2994 11fb 41       		.uleb128 0x41
 2995 11fc A5000000 		.4byte	.LASF183
 2996 1200 0F       		.byte	0xf
 2997 1201 5A02     		.2byte	0x25a
 2998 1203 03       		.byte	0x3
 2999 1204 45       		.uleb128 0x45
 3000 1205 29080000 		.4byte	.LASF184
 3001 1209 03       		.byte	0x3
 3002 120a EB01     		.2byte	0x1eb
 3003 120c 03       		.byte	0x3
 3004 120d 1E120000 		.4byte	0x121e
 3005 1211 46       		.uleb128 0x46
 3006 1212 99020000 		.4byte	.LASF185
 3007 1216 03       		.byte	0x3
 3008 1217 EB01     		.2byte	0x1eb
 3009 1219 DF000000 		.4byte	0xdf
 3010 121d 00       		.byte	0
 3011 121e 47       		.uleb128 0x47
 3012 121f FF080000 		.4byte	.LASF186
 3013 1223 FF080000 		.4byte	.LASF186
 3014 1227 11       		.byte	0x11
 3015 1228 4E       		.byte	0x4e
 3016 1229 48       		.uleb128 0x48
 3017 122a CD030000 		.4byte	.LASF187
ARM GAS  /tmp/ccwIqr9G.s 			page 54


 3018 122e CD030000 		.4byte	.LASF187
 3019 1232 0F       		.byte	0xf
 3020 1233 F301     		.2byte	0x1f3
 3021 1235 47       		.uleb128 0x47
 3022 1236 92040000 		.4byte	.LASF188
 3023 123a 92040000 		.4byte	.LASF188
 3024 123e 17       		.byte	0x17
 3025 123f 4B       		.byte	0x4b
 3026 1240 47       		.uleb128 0x47
 3027 1241 EC000000 		.4byte	.LASF189
 3028 1245 EC000000 		.4byte	.LASF189
 3029 1249 17       		.byte	0x17
 3030 124a 4D       		.byte	0x4d
 3031 124b 47       		.uleb128 0x47
 3032 124c 81050000 		.4byte	.LASF190
 3033 1250 81050000 		.4byte	.LASF190
 3034 1254 11       		.byte	0x11
 3035 1255 51       		.byte	0x51
 3036 1256 47       		.uleb128 0x47
 3037 1257 8B090000 		.4byte	.LASF191
 3038 125b 8B090000 		.4byte	.LASF191
 3039 125f 11       		.byte	0x11
 3040 1260 52       		.byte	0x52
 3041 1261 00       		.byte	0
 3042              		.section	.debug_abbrev,"",%progbits
 3043              	.Ldebug_abbrev0:
 3044 0000 01       		.uleb128 0x1
 3045 0001 11       		.uleb128 0x11
 3046 0002 01       		.byte	0x1
 3047 0003 25       		.uleb128 0x25
 3048 0004 0E       		.uleb128 0xe
 3049 0005 13       		.uleb128 0x13
 3050 0006 0B       		.uleb128 0xb
 3051 0007 03       		.uleb128 0x3
 3052 0008 0E       		.uleb128 0xe
 3053 0009 1B       		.uleb128 0x1b
 3054 000a 0E       		.uleb128 0xe
 3055 000b 55       		.uleb128 0x55
 3056 000c 17       		.uleb128 0x17
 3057 000d 11       		.uleb128 0x11
 3058 000e 01       		.uleb128 0x1
 3059 000f 10       		.uleb128 0x10
 3060 0010 17       		.uleb128 0x17
 3061 0011 00       		.byte	0
 3062 0012 00       		.byte	0
 3063 0013 02       		.uleb128 0x2
 3064 0014 24       		.uleb128 0x24
 3065 0015 00       		.byte	0
 3066 0016 0B       		.uleb128 0xb
 3067 0017 0B       		.uleb128 0xb
 3068 0018 3E       		.uleb128 0x3e
 3069 0019 0B       		.uleb128 0xb
 3070 001a 03       		.uleb128 0x3
 3071 001b 08       		.uleb128 0x8
 3072 001c 00       		.byte	0
 3073 001d 00       		.byte	0
 3074 001e 03       		.uleb128 0x3
ARM GAS  /tmp/ccwIqr9G.s 			page 55


 3075 001f 16       		.uleb128 0x16
 3076 0020 00       		.byte	0
 3077 0021 03       		.uleb128 0x3
 3078 0022 0E       		.uleb128 0xe
 3079 0023 3A       		.uleb128 0x3a
 3080 0024 0B       		.uleb128 0xb
 3081 0025 3B       		.uleb128 0x3b
 3082 0026 0B       		.uleb128 0xb
 3083 0027 49       		.uleb128 0x49
 3084 0028 13       		.uleb128 0x13
 3085 0029 00       		.byte	0
 3086 002a 00       		.byte	0
 3087 002b 04       		.uleb128 0x4
 3088 002c 24       		.uleb128 0x24
 3089 002d 00       		.byte	0
 3090 002e 0B       		.uleb128 0xb
 3091 002f 0B       		.uleb128 0xb
 3092 0030 3E       		.uleb128 0x3e
 3093 0031 0B       		.uleb128 0xb
 3094 0032 03       		.uleb128 0x3
 3095 0033 0E       		.uleb128 0xe
 3096 0034 00       		.byte	0
 3097 0035 00       		.byte	0
 3098 0036 05       		.uleb128 0x5
 3099 0037 26       		.uleb128 0x26
 3100 0038 00       		.byte	0
 3101 0039 49       		.uleb128 0x49
 3102 003a 13       		.uleb128 0x13
 3103 003b 00       		.byte	0
 3104 003c 00       		.byte	0
 3105 003d 06       		.uleb128 0x6
 3106 003e 35       		.uleb128 0x35
 3107 003f 00       		.byte	0
 3108 0040 49       		.uleb128 0x49
 3109 0041 13       		.uleb128 0x13
 3110 0042 00       		.byte	0
 3111 0043 00       		.byte	0
 3112 0044 07       		.uleb128 0x7
 3113 0045 13       		.uleb128 0x13
 3114 0046 01       		.byte	0x1
 3115 0047 03       		.uleb128 0x3
 3116 0048 0E       		.uleb128 0xe
 3117 0049 0B       		.uleb128 0xb
 3118 004a 0B       		.uleb128 0xb
 3119 004b 3A       		.uleb128 0x3a
 3120 004c 0B       		.uleb128 0xb
 3121 004d 3B       		.uleb128 0x3b
 3122 004e 0B       		.uleb128 0xb
 3123 004f 01       		.uleb128 0x1
 3124 0050 13       		.uleb128 0x13
 3125 0051 00       		.byte	0
 3126 0052 00       		.byte	0
 3127 0053 08       		.uleb128 0x8
 3128 0054 0D       		.uleb128 0xd
 3129 0055 00       		.byte	0
 3130 0056 03       		.uleb128 0x3
 3131 0057 0E       		.uleb128 0xe
ARM GAS  /tmp/ccwIqr9G.s 			page 56


 3132 0058 3A       		.uleb128 0x3a
 3133 0059 0B       		.uleb128 0xb
 3134 005a 3B       		.uleb128 0x3b
 3135 005b 0B       		.uleb128 0xb
 3136 005c 49       		.uleb128 0x49
 3137 005d 13       		.uleb128 0x13
 3138 005e 38       		.uleb128 0x38
 3139 005f 0B       		.uleb128 0xb
 3140 0060 00       		.byte	0
 3141 0061 00       		.byte	0
 3142 0062 09       		.uleb128 0x9
 3143 0063 0D       		.uleb128 0xd
 3144 0064 00       		.byte	0
 3145 0065 03       		.uleb128 0x3
 3146 0066 08       		.uleb128 0x8
 3147 0067 3A       		.uleb128 0x3a
 3148 0068 0B       		.uleb128 0xb
 3149 0069 3B       		.uleb128 0x3b
 3150 006a 0B       		.uleb128 0xb
 3151 006b 49       		.uleb128 0x49
 3152 006c 13       		.uleb128 0x13
 3153 006d 38       		.uleb128 0x38
 3154 006e 0B       		.uleb128 0xb
 3155 006f 00       		.byte	0
 3156 0070 00       		.byte	0
 3157 0071 0A       		.uleb128 0xa
 3158 0072 0D       		.uleb128 0xd
 3159 0073 00       		.byte	0
 3160 0074 03       		.uleb128 0x3
 3161 0075 08       		.uleb128 0x8
 3162 0076 3A       		.uleb128 0x3a
 3163 0077 0B       		.uleb128 0xb
 3164 0078 3B       		.uleb128 0x3b
 3165 0079 05       		.uleb128 0x5
 3166 007a 49       		.uleb128 0x49
 3167 007b 13       		.uleb128 0x13
 3168 007c 38       		.uleb128 0x38
 3169 007d 0B       		.uleb128 0xb
 3170 007e 00       		.byte	0
 3171 007f 00       		.byte	0
 3172 0080 0B       		.uleb128 0xb
 3173 0081 0D       		.uleb128 0xd
 3174 0082 00       		.byte	0
 3175 0083 03       		.uleb128 0x3
 3176 0084 0E       		.uleb128 0xe
 3177 0085 3A       		.uleb128 0x3a
 3178 0086 0B       		.uleb128 0xb
 3179 0087 3B       		.uleb128 0x3b
 3180 0088 05       		.uleb128 0x5
 3181 0089 49       		.uleb128 0x49
 3182 008a 13       		.uleb128 0x13
 3183 008b 38       		.uleb128 0x38
 3184 008c 0B       		.uleb128 0xb
 3185 008d 00       		.byte	0
 3186 008e 00       		.byte	0
 3187 008f 0C       		.uleb128 0xc
 3188 0090 0F       		.uleb128 0xf
ARM GAS  /tmp/ccwIqr9G.s 			page 57


 3189 0091 00       		.byte	0
 3190 0092 0B       		.uleb128 0xb
 3191 0093 0B       		.uleb128 0xb
 3192 0094 49       		.uleb128 0x49
 3193 0095 13       		.uleb128 0x13
 3194 0096 00       		.byte	0
 3195 0097 00       		.byte	0
 3196 0098 0D       		.uleb128 0xd
 3197 0099 13       		.uleb128 0x13
 3198 009a 01       		.byte	0x1
 3199 009b 03       		.uleb128 0x3
 3200 009c 0E       		.uleb128 0xe
 3201 009d 0B       		.uleb128 0xb
 3202 009e 0B       		.uleb128 0xb
 3203 009f 3A       		.uleb128 0x3a
 3204 00a0 0B       		.uleb128 0xb
 3205 00a1 3B       		.uleb128 0x3b
 3206 00a2 05       		.uleb128 0x5
 3207 00a3 01       		.uleb128 0x1
 3208 00a4 13       		.uleb128 0x13
 3209 00a5 00       		.byte	0
 3210 00a6 00       		.byte	0
 3211 00a7 0E       		.uleb128 0xe
 3212 00a8 15       		.uleb128 0x15
 3213 00a9 01       		.byte	0x1
 3214 00aa 27       		.uleb128 0x27
 3215 00ab 19       		.uleb128 0x19
 3216 00ac 01       		.uleb128 0x1
 3217 00ad 13       		.uleb128 0x13
 3218 00ae 00       		.byte	0
 3219 00af 00       		.byte	0
 3220 00b0 0F       		.uleb128 0xf
 3221 00b1 05       		.uleb128 0x5
 3222 00b2 00       		.byte	0
 3223 00b3 49       		.uleb128 0x49
 3224 00b4 13       		.uleb128 0x13
 3225 00b5 00       		.byte	0
 3226 00b6 00       		.byte	0
 3227 00b7 10       		.uleb128 0x10
 3228 00b8 0F       		.uleb128 0xf
 3229 00b9 00       		.byte	0
 3230 00ba 0B       		.uleb128 0xb
 3231 00bb 0B       		.uleb128 0xb
 3232 00bc 00       		.byte	0
 3233 00bd 00       		.byte	0
 3234 00be 11       		.uleb128 0x11
 3235 00bf 34       		.uleb128 0x34
 3236 00c0 00       		.byte	0
 3237 00c1 03       		.uleb128 0x3
 3238 00c2 0E       		.uleb128 0xe
 3239 00c3 3A       		.uleb128 0x3a
 3240 00c4 0B       		.uleb128 0xb
 3241 00c5 3B       		.uleb128 0x3b
 3242 00c6 05       		.uleb128 0x5
 3243 00c7 49       		.uleb128 0x49
 3244 00c8 13       		.uleb128 0x13
 3245 00c9 3F       		.uleb128 0x3f
ARM GAS  /tmp/ccwIqr9G.s 			page 58


 3246 00ca 19       		.uleb128 0x19
 3247 00cb 3C       		.uleb128 0x3c
 3248 00cc 19       		.uleb128 0x19
 3249 00cd 00       		.byte	0
 3250 00ce 00       		.byte	0
 3251 00cf 12       		.uleb128 0x12
 3252 00d0 34       		.uleb128 0x34
 3253 00d1 00       		.byte	0
 3254 00d2 03       		.uleb128 0x3
 3255 00d3 0E       		.uleb128 0xe
 3256 00d4 3A       		.uleb128 0x3a
 3257 00d5 0B       		.uleb128 0xb
 3258 00d6 3B       		.uleb128 0x3b
 3259 00d7 0B       		.uleb128 0xb
 3260 00d8 49       		.uleb128 0x49
 3261 00d9 13       		.uleb128 0x13
 3262 00da 3F       		.uleb128 0x3f
 3263 00db 19       		.uleb128 0x19
 3264 00dc 3C       		.uleb128 0x3c
 3265 00dd 19       		.uleb128 0x19
 3266 00de 00       		.byte	0
 3267 00df 00       		.byte	0
 3268 00e0 13       		.uleb128 0x13
 3269 00e1 01       		.uleb128 0x1
 3270 00e2 01       		.byte	0x1
 3271 00e3 49       		.uleb128 0x49
 3272 00e4 13       		.uleb128 0x13
 3273 00e5 01       		.uleb128 0x1
 3274 00e6 13       		.uleb128 0x13
 3275 00e7 00       		.byte	0
 3276 00e8 00       		.byte	0
 3277 00e9 14       		.uleb128 0x14
 3278 00ea 21       		.uleb128 0x21
 3279 00eb 00       		.byte	0
 3280 00ec 49       		.uleb128 0x49
 3281 00ed 13       		.uleb128 0x13
 3282 00ee 2F       		.uleb128 0x2f
 3283 00ef 0B       		.uleb128 0xb
 3284 00f0 00       		.byte	0
 3285 00f1 00       		.byte	0
 3286 00f2 15       		.uleb128 0x15
 3287 00f3 13       		.uleb128 0x13
 3288 00f4 01       		.byte	0x1
 3289 00f5 0B       		.uleb128 0xb
 3290 00f6 0B       		.uleb128 0xb
 3291 00f7 3A       		.uleb128 0x3a
 3292 00f8 0B       		.uleb128 0xb
 3293 00f9 3B       		.uleb128 0x3b
 3294 00fa 0B       		.uleb128 0xb
 3295 00fb 01       		.uleb128 0x1
 3296 00fc 13       		.uleb128 0x13
 3297 00fd 00       		.byte	0
 3298 00fe 00       		.byte	0
 3299 00ff 16       		.uleb128 0x16
 3300 0100 17       		.uleb128 0x17
 3301 0101 01       		.byte	0x1
 3302 0102 0B       		.uleb128 0xb
ARM GAS  /tmp/ccwIqr9G.s 			page 59


 3303 0103 0B       		.uleb128 0xb
 3304 0104 3A       		.uleb128 0x3a
 3305 0105 0B       		.uleb128 0xb
 3306 0106 3B       		.uleb128 0x3b
 3307 0107 0B       		.uleb128 0xb
 3308 0108 01       		.uleb128 0x1
 3309 0109 13       		.uleb128 0x13
 3310 010a 00       		.byte	0
 3311 010b 00       		.byte	0
 3312 010c 17       		.uleb128 0x17
 3313 010d 0D       		.uleb128 0xd
 3314 010e 00       		.byte	0
 3315 010f 03       		.uleb128 0x3
 3316 0110 0E       		.uleb128 0xe
 3317 0111 3A       		.uleb128 0x3a
 3318 0112 0B       		.uleb128 0xb
 3319 0113 3B       		.uleb128 0x3b
 3320 0114 0B       		.uleb128 0xb
 3321 0115 49       		.uleb128 0x49
 3322 0116 13       		.uleb128 0x13
 3323 0117 00       		.byte	0
 3324 0118 00       		.byte	0
 3325 0119 18       		.uleb128 0x18
 3326 011a 0D       		.uleb128 0xd
 3327 011b 00       		.byte	0
 3328 011c 03       		.uleb128 0x3
 3329 011d 0E       		.uleb128 0xe
 3330 011e 3A       		.uleb128 0x3a
 3331 011f 0B       		.uleb128 0xb
 3332 0120 3B       		.uleb128 0x3b
 3333 0121 05       		.uleb128 0x5
 3334 0122 49       		.uleb128 0x49
 3335 0123 13       		.uleb128 0x13
 3336 0124 00       		.byte	0
 3337 0125 00       		.byte	0
 3338 0126 19       		.uleb128 0x19
 3339 0127 34       		.uleb128 0x34
 3340 0128 00       		.byte	0
 3341 0129 03       		.uleb128 0x3
 3342 012a 08       		.uleb128 0x8
 3343 012b 3A       		.uleb128 0x3a
 3344 012c 0B       		.uleb128 0xb
 3345 012d 3B       		.uleb128 0x3b
 3346 012e 05       		.uleb128 0x5
 3347 012f 49       		.uleb128 0x49
 3348 0130 13       		.uleb128 0x13
 3349 0131 3F       		.uleb128 0x3f
 3350 0132 19       		.uleb128 0x19
 3351 0133 3C       		.uleb128 0x3c
 3352 0134 19       		.uleb128 0x19
 3353 0135 00       		.byte	0
 3354 0136 00       		.byte	0
 3355 0137 1A       		.uleb128 0x1a
 3356 0138 21       		.uleb128 0x21
 3357 0139 00       		.byte	0
 3358 013a 00       		.byte	0
 3359 013b 00       		.byte	0
ARM GAS  /tmp/ccwIqr9G.s 			page 60


 3360 013c 1B       		.uleb128 0x1b
 3361 013d 15       		.uleb128 0x15
 3362 013e 01       		.byte	0x1
 3363 013f 27       		.uleb128 0x27
 3364 0140 19       		.uleb128 0x19
 3365 0141 49       		.uleb128 0x49
 3366 0142 13       		.uleb128 0x13
 3367 0143 01       		.uleb128 0x1
 3368 0144 13       		.uleb128 0x13
 3369 0145 00       		.byte	0
 3370 0146 00       		.byte	0
 3371 0147 1C       		.uleb128 0x1c
 3372 0148 16       		.uleb128 0x16
 3373 0149 00       		.byte	0
 3374 014a 03       		.uleb128 0x3
 3375 014b 0E       		.uleb128 0xe
 3376 014c 3A       		.uleb128 0x3a
 3377 014d 0B       		.uleb128 0xb
 3378 014e 3B       		.uleb128 0x3b
 3379 014f 05       		.uleb128 0x5
 3380 0150 49       		.uleb128 0x49
 3381 0151 13       		.uleb128 0x13
 3382 0152 00       		.byte	0
 3383 0153 00       		.byte	0
 3384 0154 1D       		.uleb128 0x1d
 3385 0155 34       		.uleb128 0x34
 3386 0156 00       		.byte	0
 3387 0157 47       		.uleb128 0x47
 3388 0158 13       		.uleb128 0x13
 3389 0159 3A       		.uleb128 0x3a
 3390 015a 0B       		.uleb128 0xb
 3391 015b 3B       		.uleb128 0x3b
 3392 015c 0B       		.uleb128 0xb
 3393 015d 02       		.uleb128 0x2
 3394 015e 18       		.uleb128 0x18
 3395 015f 00       		.byte	0
 3396 0160 00       		.byte	0
 3397 0161 1E       		.uleb128 0x1e
 3398 0162 2E       		.uleb128 0x2e
 3399 0163 01       		.byte	0x1
 3400 0164 3F       		.uleb128 0x3f
 3401 0165 19       		.uleb128 0x19
 3402 0166 03       		.uleb128 0x3
 3403 0167 0E       		.uleb128 0xe
 3404 0168 3A       		.uleb128 0x3a
 3405 0169 0B       		.uleb128 0xb
 3406 016a 3B       		.uleb128 0x3b
 3407 016b 05       		.uleb128 0x5
 3408 016c 27       		.uleb128 0x27
 3409 016d 19       		.uleb128 0x19
 3410 016e 11       		.uleb128 0x11
 3411 016f 01       		.uleb128 0x1
 3412 0170 12       		.uleb128 0x12
 3413 0171 06       		.uleb128 0x6
 3414 0172 40       		.uleb128 0x40
 3415 0173 18       		.uleb128 0x18
 3416 0174 9742     		.uleb128 0x2117
ARM GAS  /tmp/ccwIqr9G.s 			page 61


 3417 0176 19       		.uleb128 0x19
 3418 0177 01       		.uleb128 0x1
 3419 0178 13       		.uleb128 0x13
 3420 0179 00       		.byte	0
 3421 017a 00       		.byte	0
 3422 017b 1F       		.uleb128 0x1f
 3423 017c 34       		.uleb128 0x34
 3424 017d 00       		.byte	0
 3425 017e 03       		.uleb128 0x3
 3426 017f 08       		.uleb128 0x8
 3427 0180 3A       		.uleb128 0x3a
 3428 0181 0B       		.uleb128 0xb
 3429 0182 3B       		.uleb128 0x3b
 3430 0183 05       		.uleb128 0x5
 3431 0184 49       		.uleb128 0x49
 3432 0185 13       		.uleb128 0x13
 3433 0186 02       		.uleb128 0x2
 3434 0187 17       		.uleb128 0x17
 3435 0188 00       		.byte	0
 3436 0189 00       		.byte	0
 3437 018a 20       		.uleb128 0x20
 3438 018b 1D       		.uleb128 0x1d
 3439 018c 01       		.byte	0x1
 3440 018d 31       		.uleb128 0x31
 3441 018e 13       		.uleb128 0x13
 3442 018f 52       		.uleb128 0x52
 3443 0190 01       		.uleb128 0x1
 3444 0191 55       		.uleb128 0x55
 3445 0192 17       		.uleb128 0x17
 3446 0193 58       		.uleb128 0x58
 3447 0194 0B       		.uleb128 0xb
 3448 0195 59       		.uleb128 0x59
 3449 0196 05       		.uleb128 0x5
 3450 0197 01       		.uleb128 0x1
 3451 0198 13       		.uleb128 0x13
 3452 0199 00       		.byte	0
 3453 019a 00       		.byte	0
 3454 019b 21       		.uleb128 0x21
 3455 019c 05       		.uleb128 0x5
 3456 019d 00       		.byte	0
 3457 019e 31       		.uleb128 0x31
 3458 019f 13       		.uleb128 0x13
 3459 01a0 02       		.uleb128 0x2
 3460 01a1 17       		.uleb128 0x17
 3461 01a2 00       		.byte	0
 3462 01a3 00       		.byte	0
 3463 01a4 22       		.uleb128 0x22
 3464 01a5 0B       		.uleb128 0xb
 3465 01a6 01       		.byte	0x1
 3466 01a7 55       		.uleb128 0x55
 3467 01a8 17       		.uleb128 0x17
 3468 01a9 00       		.byte	0
 3469 01aa 00       		.byte	0
 3470 01ab 23       		.uleb128 0x23
 3471 01ac 34       		.uleb128 0x34
 3472 01ad 00       		.byte	0
 3473 01ae 31       		.uleb128 0x31
ARM GAS  /tmp/ccwIqr9G.s 			page 62


 3474 01af 13       		.uleb128 0x13
 3475 01b0 02       		.uleb128 0x2
 3476 01b1 17       		.uleb128 0x17
 3477 01b2 00       		.byte	0
 3478 01b3 00       		.byte	0
 3479 01b4 24       		.uleb128 0x24
 3480 01b5 898201   		.uleb128 0x4109
 3481 01b8 01       		.byte	0x1
 3482 01b9 11       		.uleb128 0x11
 3483 01ba 01       		.uleb128 0x1
 3484 01bb 31       		.uleb128 0x31
 3485 01bc 13       		.uleb128 0x13
 3486 01bd 01       		.uleb128 0x1
 3487 01be 13       		.uleb128 0x13
 3488 01bf 00       		.byte	0
 3489 01c0 00       		.byte	0
 3490 01c1 25       		.uleb128 0x25
 3491 01c2 8A8201   		.uleb128 0x410a
 3492 01c5 00       		.byte	0
 3493 01c6 02       		.uleb128 0x2
 3494 01c7 18       		.uleb128 0x18
 3495 01c8 9142     		.uleb128 0x2111
 3496 01ca 18       		.uleb128 0x18
 3497 01cb 00       		.byte	0
 3498 01cc 00       		.byte	0
 3499 01cd 26       		.uleb128 0x26
 3500 01ce 898201   		.uleb128 0x4109
 3501 01d1 00       		.byte	0
 3502 01d2 11       		.uleb128 0x11
 3503 01d3 01       		.uleb128 0x1
 3504 01d4 9542     		.uleb128 0x2115
 3505 01d6 19       		.uleb128 0x19
 3506 01d7 31       		.uleb128 0x31
 3507 01d8 13       		.uleb128 0x13
 3508 01d9 00       		.byte	0
 3509 01da 00       		.byte	0
 3510 01db 27       		.uleb128 0x27
 3511 01dc 2E       		.uleb128 0x2e
 3512 01dd 01       		.byte	0x1
 3513 01de 3F       		.uleb128 0x3f
 3514 01df 19       		.uleb128 0x19
 3515 01e0 03       		.uleb128 0x3
 3516 01e1 0E       		.uleb128 0xe
 3517 01e2 3A       		.uleb128 0x3a
 3518 01e3 0B       		.uleb128 0xb
 3519 01e4 3B       		.uleb128 0x3b
 3520 01e5 05       		.uleb128 0x5
 3521 01e6 27       		.uleb128 0x27
 3522 01e7 19       		.uleb128 0x19
 3523 01e8 01       		.uleb128 0x1
 3524 01e9 13       		.uleb128 0x13
 3525 01ea 00       		.byte	0
 3526 01eb 00       		.byte	0
 3527 01ec 28       		.uleb128 0x28
 3528 01ed 34       		.uleb128 0x34
 3529 01ee 00       		.byte	0
 3530 01ef 03       		.uleb128 0x3
ARM GAS  /tmp/ccwIqr9G.s 			page 63


 3531 01f0 08       		.uleb128 0x8
 3532 01f1 3A       		.uleb128 0x3a
 3533 01f2 0B       		.uleb128 0xb
 3534 01f3 3B       		.uleb128 0x3b
 3535 01f4 05       		.uleb128 0x5
 3536 01f5 49       		.uleb128 0x49
 3537 01f6 13       		.uleb128 0x13
 3538 01f7 00       		.byte	0
 3539 01f8 00       		.byte	0
 3540 01f9 29       		.uleb128 0x29
 3541 01fa 2E       		.uleb128 0x2e
 3542 01fb 01       		.byte	0x1
 3543 01fc 3F       		.uleb128 0x3f
 3544 01fd 19       		.uleb128 0x19
 3545 01fe 03       		.uleb128 0x3
 3546 01ff 0E       		.uleb128 0xe
 3547 0200 3A       		.uleb128 0x3a
 3548 0201 0B       		.uleb128 0xb
 3549 0202 3B       		.uleb128 0x3b
 3550 0203 05       		.uleb128 0x5
 3551 0204 27       		.uleb128 0x27
 3552 0205 19       		.uleb128 0x19
 3553 0206 49       		.uleb128 0x49
 3554 0207 13       		.uleb128 0x13
 3555 0208 11       		.uleb128 0x11
 3556 0209 01       		.uleb128 0x1
 3557 020a 12       		.uleb128 0x12
 3558 020b 06       		.uleb128 0x6
 3559 020c 40       		.uleb128 0x40
 3560 020d 18       		.uleb128 0x18
 3561 020e 9742     		.uleb128 0x2117
 3562 0210 19       		.uleb128 0x19
 3563 0211 01       		.uleb128 0x1
 3564 0212 13       		.uleb128 0x13
 3565 0213 00       		.byte	0
 3566 0214 00       		.byte	0
 3567 0215 2A       		.uleb128 0x2a
 3568 0216 34       		.uleb128 0x34
 3569 0217 00       		.byte	0
 3570 0218 03       		.uleb128 0x3
 3571 0219 08       		.uleb128 0x8
 3572 021a 3A       		.uleb128 0x3a
 3573 021b 0B       		.uleb128 0xb
 3574 021c 3B       		.uleb128 0x3b
 3575 021d 05       		.uleb128 0x5
 3576 021e 49       		.uleb128 0x49
 3577 021f 13       		.uleb128 0x13
 3578 0220 02       		.uleb128 0x2
 3579 0221 18       		.uleb128 0x18
 3580 0222 00       		.byte	0
 3581 0223 00       		.byte	0
 3582 0224 2B       		.uleb128 0x2b
 3583 0225 898201   		.uleb128 0x4109
 3584 0228 00       		.byte	0
 3585 0229 11       		.uleb128 0x11
 3586 022a 01       		.uleb128 0x1
 3587 022b 31       		.uleb128 0x31
ARM GAS  /tmp/ccwIqr9G.s 			page 64


 3588 022c 13       		.uleb128 0x13
 3589 022d 00       		.byte	0
 3590 022e 00       		.byte	0
 3591 022f 2C       		.uleb128 0x2c
 3592 0230 05       		.uleb128 0x5
 3593 0231 00       		.byte	0
 3594 0232 03       		.uleb128 0x3
 3595 0233 08       		.uleb128 0x8
 3596 0234 3A       		.uleb128 0x3a
 3597 0235 0B       		.uleb128 0xb
 3598 0236 3B       		.uleb128 0x3b
 3599 0237 05       		.uleb128 0x5
 3600 0238 49       		.uleb128 0x49
 3601 0239 13       		.uleb128 0x13
 3602 023a 02       		.uleb128 0x2
 3603 023b 17       		.uleb128 0x17
 3604 023c 00       		.byte	0
 3605 023d 00       		.byte	0
 3606 023e 2D       		.uleb128 0x2d
 3607 023f 34       		.uleb128 0x34
 3608 0240 00       		.byte	0
 3609 0241 03       		.uleb128 0x3
 3610 0242 0E       		.uleb128 0xe
 3611 0243 49       		.uleb128 0x49
 3612 0244 13       		.uleb128 0x13
 3613 0245 34       		.uleb128 0x34
 3614 0246 19       		.uleb128 0x19
 3615 0247 00       		.byte	0
 3616 0248 00       		.byte	0
 3617 0249 2E       		.uleb128 0x2e
 3618 024a 898201   		.uleb128 0x4109
 3619 024d 01       		.byte	0x1
 3620 024e 11       		.uleb128 0x11
 3621 024f 01       		.uleb128 0x1
 3622 0250 9542     		.uleb128 0x2115
 3623 0252 19       		.uleb128 0x19
 3624 0253 31       		.uleb128 0x31
 3625 0254 13       		.uleb128 0x13
 3626 0255 01       		.uleb128 0x1
 3627 0256 13       		.uleb128 0x13
 3628 0257 00       		.byte	0
 3629 0258 00       		.byte	0
 3630 0259 2F       		.uleb128 0x2f
 3631 025a 898201   		.uleb128 0x4109
 3632 025d 01       		.byte	0x1
 3633 025e 11       		.uleb128 0x11
 3634 025f 01       		.uleb128 0x1
 3635 0260 9542     		.uleb128 0x2115
 3636 0262 19       		.uleb128 0x19
 3637 0263 31       		.uleb128 0x31
 3638 0264 13       		.uleb128 0x13
 3639 0265 00       		.byte	0
 3640 0266 00       		.byte	0
 3641 0267 30       		.uleb128 0x30
 3642 0268 05       		.uleb128 0x5
 3643 0269 00       		.byte	0
 3644 026a 03       		.uleb128 0x3
ARM GAS  /tmp/ccwIqr9G.s 			page 65


 3645 026b 0E       		.uleb128 0xe
 3646 026c 3A       		.uleb128 0x3a
 3647 026d 0B       		.uleb128 0xb
 3648 026e 3B       		.uleb128 0x3b
 3649 026f 05       		.uleb128 0x5
 3650 0270 49       		.uleb128 0x49
 3651 0271 13       		.uleb128 0x13
 3652 0272 02       		.uleb128 0x2
 3653 0273 17       		.uleb128 0x17
 3654 0274 00       		.byte	0
 3655 0275 00       		.byte	0
 3656 0276 31       		.uleb128 0x31
 3657 0277 0B       		.uleb128 0xb
 3658 0278 01       		.byte	0x1
 3659 0279 11       		.uleb128 0x11
 3660 027a 01       		.uleb128 0x1
 3661 027b 12       		.uleb128 0x12
 3662 027c 06       		.uleb128 0x6
 3663 027d 01       		.uleb128 0x1
 3664 027e 13       		.uleb128 0x13
 3665 027f 00       		.byte	0
 3666 0280 00       		.byte	0
 3667 0281 32       		.uleb128 0x32
 3668 0282 898201   		.uleb128 0x4109
 3669 0285 01       		.byte	0x1
 3670 0286 11       		.uleb128 0x11
 3671 0287 01       		.uleb128 0x1
 3672 0288 31       		.uleb128 0x31
 3673 0289 13       		.uleb128 0x13
 3674 028a 00       		.byte	0
 3675 028b 00       		.byte	0
 3676 028c 33       		.uleb128 0x33
 3677 028d 2E       		.uleb128 0x2e
 3678 028e 01       		.byte	0x1
 3679 028f 03       		.uleb128 0x3
 3680 0290 0E       		.uleb128 0xe
 3681 0291 3A       		.uleb128 0x3a
 3682 0292 0B       		.uleb128 0xb
 3683 0293 3B       		.uleb128 0x3b
 3684 0294 05       		.uleb128 0x5
 3685 0295 27       		.uleb128 0x27
 3686 0296 19       		.uleb128 0x19
 3687 0297 11       		.uleb128 0x11
 3688 0298 01       		.uleb128 0x1
 3689 0299 12       		.uleb128 0x12
 3690 029a 06       		.uleb128 0x6
 3691 029b 40       		.uleb128 0x40
 3692 029c 18       		.uleb128 0x18
 3693 029d 9742     		.uleb128 0x2117
 3694 029f 19       		.uleb128 0x19
 3695 02a0 01       		.uleb128 0x1
 3696 02a1 13       		.uleb128 0x13
 3697 02a2 00       		.byte	0
 3698 02a3 00       		.byte	0
 3699 02a4 34       		.uleb128 0x34
 3700 02a5 1D       		.uleb128 0x1d
 3701 02a6 01       		.byte	0x1
ARM GAS  /tmp/ccwIqr9G.s 			page 66


 3702 02a7 31       		.uleb128 0x31
 3703 02a8 13       		.uleb128 0x13
 3704 02a9 11       		.uleb128 0x11
 3705 02aa 01       		.uleb128 0x1
 3706 02ab 12       		.uleb128 0x12
 3707 02ac 06       		.uleb128 0x6
 3708 02ad 58       		.uleb128 0x58
 3709 02ae 0B       		.uleb128 0xb
 3710 02af 59       		.uleb128 0x59
 3711 02b0 05       		.uleb128 0x5
 3712 02b1 01       		.uleb128 0x1
 3713 02b2 13       		.uleb128 0x13
 3714 02b3 00       		.byte	0
 3715 02b4 00       		.byte	0
 3716 02b5 35       		.uleb128 0x35
 3717 02b6 1D       		.uleb128 0x1d
 3718 02b7 01       		.byte	0x1
 3719 02b8 31       		.uleb128 0x31
 3720 02b9 13       		.uleb128 0x13
 3721 02ba 11       		.uleb128 0x11
 3722 02bb 01       		.uleb128 0x1
 3723 02bc 12       		.uleb128 0x12
 3724 02bd 06       		.uleb128 0x6
 3725 02be 58       		.uleb128 0x58
 3726 02bf 0B       		.uleb128 0xb
 3727 02c0 59       		.uleb128 0x59
 3728 02c1 05       		.uleb128 0x5
 3729 02c2 00       		.byte	0
 3730 02c3 00       		.byte	0
 3731 02c4 36       		.uleb128 0x36
 3732 02c5 05       		.uleb128 0x5
 3733 02c6 00       		.byte	0
 3734 02c7 31       		.uleb128 0x31
 3735 02c8 13       		.uleb128 0x13
 3736 02c9 02       		.uleb128 0x2
 3737 02ca 18       		.uleb128 0x18
 3738 02cb 00       		.byte	0
 3739 02cc 00       		.byte	0
 3740 02cd 37       		.uleb128 0x37
 3741 02ce 0B       		.uleb128 0xb
 3742 02cf 01       		.byte	0x1
 3743 02d0 11       		.uleb128 0x11
 3744 02d1 01       		.uleb128 0x1
 3745 02d2 12       		.uleb128 0x12
 3746 02d3 06       		.uleb128 0x6
 3747 02d4 00       		.byte	0
 3748 02d5 00       		.byte	0
 3749 02d6 38       		.uleb128 0x38
 3750 02d7 05       		.uleb128 0x5
 3751 02d8 00       		.byte	0
 3752 02d9 03       		.uleb128 0x3
 3753 02da 08       		.uleb128 0x8
 3754 02db 3A       		.uleb128 0x3a
 3755 02dc 0B       		.uleb128 0xb
 3756 02dd 3B       		.uleb128 0x3b
 3757 02de 05       		.uleb128 0x5
 3758 02df 49       		.uleb128 0x49
ARM GAS  /tmp/ccwIqr9G.s 			page 67


 3759 02e0 13       		.uleb128 0x13
 3760 02e1 02       		.uleb128 0x2
 3761 02e2 18       		.uleb128 0x18
 3762 02e3 00       		.byte	0
 3763 02e4 00       		.byte	0
 3764 02e5 39       		.uleb128 0x39
 3765 02e6 2E       		.uleb128 0x2e
 3766 02e7 01       		.byte	0x1
 3767 02e8 3F       		.uleb128 0x3f
 3768 02e9 19       		.uleb128 0x19
 3769 02ea 03       		.uleb128 0x3
 3770 02eb 0E       		.uleb128 0xe
 3771 02ec 3A       		.uleb128 0x3a
 3772 02ed 0B       		.uleb128 0xb
 3773 02ee 3B       		.uleb128 0x3b
 3774 02ef 0B       		.uleb128 0xb
 3775 02f0 27       		.uleb128 0x27
 3776 02f1 19       		.uleb128 0x19
 3777 02f2 49       		.uleb128 0x49
 3778 02f3 13       		.uleb128 0x13
 3779 02f4 11       		.uleb128 0x11
 3780 02f5 01       		.uleb128 0x1
 3781 02f6 12       		.uleb128 0x12
 3782 02f7 06       		.uleb128 0x6
 3783 02f8 40       		.uleb128 0x40
 3784 02f9 18       		.uleb128 0x18
 3785 02fa 9742     		.uleb128 0x2117
 3786 02fc 19       		.uleb128 0x19
 3787 02fd 01       		.uleb128 0x1
 3788 02fe 13       		.uleb128 0x13
 3789 02ff 00       		.byte	0
 3790 0300 00       		.byte	0
 3791 0301 3A       		.uleb128 0x3a
 3792 0302 05       		.uleb128 0x5
 3793 0303 00       		.byte	0
 3794 0304 03       		.uleb128 0x3
 3795 0305 08       		.uleb128 0x8
 3796 0306 3A       		.uleb128 0x3a
 3797 0307 0B       		.uleb128 0xb
 3798 0308 3B       		.uleb128 0x3b
 3799 0309 0B       		.uleb128 0xb
 3800 030a 49       		.uleb128 0x49
 3801 030b 13       		.uleb128 0x13
 3802 030c 02       		.uleb128 0x2
 3803 030d 18       		.uleb128 0x18
 3804 030e 00       		.byte	0
 3805 030f 00       		.byte	0
 3806 0310 3B       		.uleb128 0x3b
 3807 0311 34       		.uleb128 0x34
 3808 0312 00       		.byte	0
 3809 0313 03       		.uleb128 0x3
 3810 0314 08       		.uleb128 0x8
 3811 0315 3A       		.uleb128 0x3a
 3812 0316 0B       		.uleb128 0xb
 3813 0317 3B       		.uleb128 0x3b
 3814 0318 0B       		.uleb128 0xb
 3815 0319 49       		.uleb128 0x49
ARM GAS  /tmp/ccwIqr9G.s 			page 68


 3816 031a 13       		.uleb128 0x13
 3817 031b 02       		.uleb128 0x2
 3818 031c 17       		.uleb128 0x17
 3819 031d 00       		.byte	0
 3820 031e 00       		.byte	0
 3821 031f 3C       		.uleb128 0x3c
 3822 0320 2E       		.uleb128 0x2e
 3823 0321 01       		.byte	0x1
 3824 0322 3F       		.uleb128 0x3f
 3825 0323 19       		.uleb128 0x19
 3826 0324 03       		.uleb128 0x3
 3827 0325 0E       		.uleb128 0xe
 3828 0326 3A       		.uleb128 0x3a
 3829 0327 0B       		.uleb128 0xb
 3830 0328 3B       		.uleb128 0x3b
 3831 0329 0B       		.uleb128 0xb
 3832 032a 27       		.uleb128 0x27
 3833 032b 19       		.uleb128 0x19
 3834 032c 11       		.uleb128 0x11
 3835 032d 01       		.uleb128 0x1
 3836 032e 12       		.uleb128 0x12
 3837 032f 06       		.uleb128 0x6
 3838 0330 40       		.uleb128 0x40
 3839 0331 18       		.uleb128 0x18
 3840 0332 9742     		.uleb128 0x2117
 3841 0334 19       		.uleb128 0x19
 3842 0335 01       		.uleb128 0x1
 3843 0336 13       		.uleb128 0x13
 3844 0337 00       		.byte	0
 3845 0338 00       		.byte	0
 3846 0339 3D       		.uleb128 0x3d
 3847 033a 1D       		.uleb128 0x1d
 3848 033b 01       		.byte	0x1
 3849 033c 31       		.uleb128 0x31
 3850 033d 13       		.uleb128 0x13
 3851 033e 52       		.uleb128 0x52
 3852 033f 01       		.uleb128 0x1
 3853 0340 55       		.uleb128 0x55
 3854 0341 17       		.uleb128 0x17
 3855 0342 58       		.uleb128 0x58
 3856 0343 0B       		.uleb128 0xb
 3857 0344 59       		.uleb128 0x59
 3858 0345 0B       		.uleb128 0xb
 3859 0346 00       		.byte	0
 3860 0347 00       		.byte	0
 3861 0348 3E       		.uleb128 0x3e
 3862 0349 2E       		.uleb128 0x2e
 3863 034a 01       		.byte	0x1
 3864 034b 03       		.uleb128 0x3
 3865 034c 0E       		.uleb128 0xe
 3866 034d 3A       		.uleb128 0x3a
 3867 034e 0B       		.uleb128 0xb
 3868 034f 3B       		.uleb128 0x3b
 3869 0350 0B       		.uleb128 0xb
 3870 0351 27       		.uleb128 0x27
 3871 0352 19       		.uleb128 0x19
 3872 0353 20       		.uleb128 0x20
ARM GAS  /tmp/ccwIqr9G.s 			page 69


 3873 0354 0B       		.uleb128 0xb
 3874 0355 01       		.uleb128 0x1
 3875 0356 13       		.uleb128 0x13
 3876 0357 00       		.byte	0
 3877 0358 00       		.byte	0
 3878 0359 3F       		.uleb128 0x3f
 3879 035a 05       		.uleb128 0x5
 3880 035b 00       		.byte	0
 3881 035c 03       		.uleb128 0x3
 3882 035d 08       		.uleb128 0x8
 3883 035e 3A       		.uleb128 0x3a
 3884 035f 0B       		.uleb128 0xb
 3885 0360 3B       		.uleb128 0x3b
 3886 0361 0B       		.uleb128 0xb
 3887 0362 49       		.uleb128 0x49
 3888 0363 13       		.uleb128 0x13
 3889 0364 00       		.byte	0
 3890 0365 00       		.byte	0
 3891 0366 40       		.uleb128 0x40
 3892 0367 2E       		.uleb128 0x2e
 3893 0368 01       		.byte	0x1
 3894 0369 03       		.uleb128 0x3
 3895 036a 0E       		.uleb128 0xe
 3896 036b 3A       		.uleb128 0x3a
 3897 036c 0B       		.uleb128 0xb
 3898 036d 3B       		.uleb128 0x3b
 3899 036e 0B       		.uleb128 0xb
 3900 036f 27       		.uleb128 0x27
 3901 0370 19       		.uleb128 0x19
 3902 0371 49       		.uleb128 0x49
 3903 0372 13       		.uleb128 0x13
 3904 0373 20       		.uleb128 0x20
 3905 0374 0B       		.uleb128 0xb
 3906 0375 01       		.uleb128 0x1
 3907 0376 13       		.uleb128 0x13
 3908 0377 00       		.byte	0
 3909 0378 00       		.byte	0
 3910 0379 41       		.uleb128 0x41
 3911 037a 2E       		.uleb128 0x2e
 3912 037b 00       		.byte	0
 3913 037c 03       		.uleb128 0x3
 3914 037d 0E       		.uleb128 0xe
 3915 037e 3A       		.uleb128 0x3a
 3916 037f 0B       		.uleb128 0xb
 3917 0380 3B       		.uleb128 0x3b
 3918 0381 05       		.uleb128 0x5
 3919 0382 27       		.uleb128 0x27
 3920 0383 19       		.uleb128 0x19
 3921 0384 20       		.uleb128 0x20
 3922 0385 0B       		.uleb128 0xb
 3923 0386 00       		.byte	0
 3924 0387 00       		.byte	0
 3925 0388 42       		.uleb128 0x42
 3926 0389 2E       		.uleb128 0x2e
 3927 038a 00       		.byte	0
 3928 038b 03       		.uleb128 0x3
 3929 038c 0E       		.uleb128 0xe
ARM GAS  /tmp/ccwIqr9G.s 			page 70


 3930 038d 3A       		.uleb128 0x3a
 3931 038e 0B       		.uleb128 0xb
 3932 038f 3B       		.uleb128 0x3b
 3933 0390 05       		.uleb128 0x5
 3934 0391 27       		.uleb128 0x27
 3935 0392 19       		.uleb128 0x19
 3936 0393 49       		.uleb128 0x49
 3937 0394 13       		.uleb128 0x13
 3938 0395 00       		.byte	0
 3939 0396 00       		.byte	0
 3940 0397 43       		.uleb128 0x43
 3941 0398 2E       		.uleb128 0x2e
 3942 0399 01       		.byte	0x1
 3943 039a 03       		.uleb128 0x3
 3944 039b 0E       		.uleb128 0xe
 3945 039c 3A       		.uleb128 0x3a
 3946 039d 0B       		.uleb128 0xb
 3947 039e 3B       		.uleb128 0x3b
 3948 039f 05       		.uleb128 0x5
 3949 03a0 27       		.uleb128 0x27
 3950 03a1 19       		.uleb128 0x19
 3951 03a2 49       		.uleb128 0x49
 3952 03a3 13       		.uleb128 0x13
 3953 03a4 20       		.uleb128 0x20
 3954 03a5 0B       		.uleb128 0xb
 3955 03a6 01       		.uleb128 0x1
 3956 03a7 13       		.uleb128 0x13
 3957 03a8 00       		.byte	0
 3958 03a9 00       		.byte	0
 3959 03aa 44       		.uleb128 0x44
 3960 03ab 05       		.uleb128 0x5
 3961 03ac 00       		.byte	0
 3962 03ad 03       		.uleb128 0x3
 3963 03ae 08       		.uleb128 0x8
 3964 03af 3A       		.uleb128 0x3a
 3965 03b0 0B       		.uleb128 0xb
 3966 03b1 3B       		.uleb128 0x3b
 3967 03b2 05       		.uleb128 0x5
 3968 03b3 49       		.uleb128 0x49
 3969 03b4 13       		.uleb128 0x13
 3970 03b5 00       		.byte	0
 3971 03b6 00       		.byte	0
 3972 03b7 45       		.uleb128 0x45
 3973 03b8 2E       		.uleb128 0x2e
 3974 03b9 01       		.byte	0x1
 3975 03ba 03       		.uleb128 0x3
 3976 03bb 0E       		.uleb128 0xe
 3977 03bc 3A       		.uleb128 0x3a
 3978 03bd 0B       		.uleb128 0xb
 3979 03be 3B       		.uleb128 0x3b
 3980 03bf 05       		.uleb128 0x5
 3981 03c0 27       		.uleb128 0x27
 3982 03c1 19       		.uleb128 0x19
 3983 03c2 20       		.uleb128 0x20
 3984 03c3 0B       		.uleb128 0xb
 3985 03c4 01       		.uleb128 0x1
 3986 03c5 13       		.uleb128 0x13
ARM GAS  /tmp/ccwIqr9G.s 			page 71


 3987 03c6 00       		.byte	0
 3988 03c7 00       		.byte	0
 3989 03c8 46       		.uleb128 0x46
 3990 03c9 05       		.uleb128 0x5
 3991 03ca 00       		.byte	0
 3992 03cb 03       		.uleb128 0x3
 3993 03cc 0E       		.uleb128 0xe
 3994 03cd 3A       		.uleb128 0x3a
 3995 03ce 0B       		.uleb128 0xb
 3996 03cf 3B       		.uleb128 0x3b
 3997 03d0 05       		.uleb128 0x5
 3998 03d1 49       		.uleb128 0x49
 3999 03d2 13       		.uleb128 0x13
 4000 03d3 00       		.byte	0
 4001 03d4 00       		.byte	0
 4002 03d5 47       		.uleb128 0x47
 4003 03d6 2E       		.uleb128 0x2e
 4004 03d7 00       		.byte	0
 4005 03d8 3F       		.uleb128 0x3f
 4006 03d9 19       		.uleb128 0x19
 4007 03da 3C       		.uleb128 0x3c
 4008 03db 19       		.uleb128 0x19
 4009 03dc 6E       		.uleb128 0x6e
 4010 03dd 0E       		.uleb128 0xe
 4011 03de 03       		.uleb128 0x3
 4012 03df 0E       		.uleb128 0xe
 4013 03e0 3A       		.uleb128 0x3a
 4014 03e1 0B       		.uleb128 0xb
 4015 03e2 3B       		.uleb128 0x3b
 4016 03e3 0B       		.uleb128 0xb
 4017 03e4 00       		.byte	0
 4018 03e5 00       		.byte	0
 4019 03e6 48       		.uleb128 0x48
 4020 03e7 2E       		.uleb128 0x2e
 4021 03e8 00       		.byte	0
 4022 03e9 3F       		.uleb128 0x3f
 4023 03ea 19       		.uleb128 0x19
 4024 03eb 3C       		.uleb128 0x3c
 4025 03ec 19       		.uleb128 0x19
 4026 03ed 6E       		.uleb128 0x6e
 4027 03ee 0E       		.uleb128 0xe
 4028 03ef 03       		.uleb128 0x3
 4029 03f0 0E       		.uleb128 0xe
 4030 03f1 3A       		.uleb128 0x3a
 4031 03f2 0B       		.uleb128 0xb
 4032 03f3 3B       		.uleb128 0x3b
 4033 03f4 05       		.uleb128 0x5
 4034 03f5 00       		.byte	0
 4035 03f6 00       		.byte	0
 4036 03f7 00       		.byte	0
 4037              		.section	.debug_loc,"",%progbits
 4038              	.Ldebug_loc0:
 4039              	.LLST21:
 4040 0000 08000000 		.4byte	.LVL59
 4041 0004 1A000000 		.4byte	.LVL61
 4042 0008 0100     		.2byte	0x1
 4043 000a 50       		.byte	0x50
ARM GAS  /tmp/ccwIqr9G.s 			page 72


 4044 000b 1C000000 		.4byte	.LVL62
 4045 000f 20000000 		.4byte	.LVL63
 4046 0013 0100     		.2byte	0x1
 4047 0015 50       		.byte	0x50
 4048 0016 20000000 		.4byte	.LVL63
 4049 001a 23000000 		.4byte	.LVL64-1
 4050 001e 0100     		.2byte	0x1
 4051 0020 51       		.byte	0x51
 4052 0021 23000000 		.4byte	.LVL64-1
 4053 0025 2C000000 		.4byte	.LVL65
 4054 0029 0100     		.2byte	0x1
 4055 002b 55       		.byte	0x55
 4056 002c 2C000000 		.4byte	.LVL65
 4057 0030 2F000000 		.4byte	.LVL66-1
 4058 0034 0100     		.2byte	0x1
 4059 0036 51       		.byte	0x51
 4060 0037 00000000 		.4byte	0
 4061 003b 00000000 		.4byte	0
 4062              	.LLST22:
 4063 003f 08000000 		.4byte	.LVL59
 4064 0043 0E000000 		.4byte	.LVL60
 4065 0047 0600     		.2byte	0x6
 4066 0049 03       		.byte	0x3
 4067 004a 00000000 		.4byte	ch
 4068 004e 9F       		.byte	0x9f
 4069 004f 00000000 		.4byte	0
 4070 0053 00000000 		.4byte	0
 4071              	.LLST23:
 4072 0057 08000000 		.4byte	.LVL59
 4073 005b 0E000000 		.4byte	.LVL60
 4074 005f 0100     		.2byte	0x1
 4075 0061 53       		.byte	0x53
 4076 0062 00000000 		.4byte	0
 4077 0066 00000000 		.4byte	0
 4078              	.LLST18:
 4079 006a 08000000 		.4byte	.LVL51
 4080 006e 1A000000 		.4byte	.LVL53
 4081 0072 0100     		.2byte	0x1
 4082 0074 50       		.byte	0x50
 4083 0075 1C000000 		.4byte	.LVL54
 4084 0079 20000000 		.4byte	.LVL55
 4085 007d 0100     		.2byte	0x1
 4086 007f 50       		.byte	0x50
 4087 0080 20000000 		.4byte	.LVL55
 4088 0084 23000000 		.4byte	.LVL56-1
 4089 0088 0100     		.2byte	0x1
 4090 008a 51       		.byte	0x51
 4091 008b 23000000 		.4byte	.LVL56-1
 4092 008f 2C000000 		.4byte	.LVL57
 4093 0093 0100     		.2byte	0x1
 4094 0095 55       		.byte	0x55
 4095 0096 2C000000 		.4byte	.LVL57
 4096 009a 2F000000 		.4byte	.LVL58-1
 4097 009e 0100     		.2byte	0x1
 4098 00a0 51       		.byte	0x51
 4099 00a1 00000000 		.4byte	0
 4100 00a5 00000000 		.4byte	0
ARM GAS  /tmp/ccwIqr9G.s 			page 73


 4101              	.LLST19:
 4102 00a9 08000000 		.4byte	.LVL51
 4103 00ad 0E000000 		.4byte	.LVL52
 4104 00b1 0600     		.2byte	0x6
 4105 00b3 03       		.byte	0x3
 4106 00b4 00000000 		.4byte	ch
 4107 00b8 9F       		.byte	0x9f
 4108 00b9 00000000 		.4byte	0
 4109 00bd 00000000 		.4byte	0
 4110              	.LLST20:
 4111 00c1 08000000 		.4byte	.LVL51
 4112 00c5 0E000000 		.4byte	.LVL52
 4113 00c9 0100     		.2byte	0x1
 4114 00cb 53       		.byte	0x53
 4115 00cc 00000000 		.4byte	0
 4116 00d0 00000000 		.4byte	0
 4117              	.LLST15:
 4118 00d4 00000000 		.4byte	.LVL39
 4119 00d8 1A000000 		.4byte	.LVL42
 4120 00dc 0100     		.2byte	0x1
 4121 00de 50       		.byte	0x50
 4122 00df 1A000000 		.4byte	.LVL42
 4123 00e3 1C000000 		.4byte	.LVL43
 4124 00e7 0100     		.2byte	0x1
 4125 00e9 50       		.byte	0x50
 4126 00ea 1C000000 		.4byte	.LVL43
 4127 00ee 3A000000 		.4byte	.LVL48
 4128 00f2 0100     		.2byte	0x1
 4129 00f4 54       		.byte	0x54
 4130 00f5 3A000000 		.4byte	.LVL48
 4131 00f9 3D000000 		.4byte	.LVL49-1
 4132 00fd 0100     		.2byte	0x1
 4133 00ff 50       		.byte	0x50
 4134 0100 3D000000 		.4byte	.LVL49-1
 4135 0104 44000000 		.4byte	.LFE296
 4136 0108 0400     		.2byte	0x4
 4137 010a F3       		.byte	0xf3
 4138 010b 01       		.uleb128 0x1
 4139 010c 50       		.byte	0x50
 4140 010d 9F       		.byte	0x9f
 4141 010e 00000000 		.4byte	0
 4142 0112 00000000 		.4byte	0
 4143              	.LLST16:
 4144 0116 00000000 		.4byte	.LVL39
 4145 011a 0A000000 		.4byte	.LVL41
 4146 011e 0100     		.2byte	0x1
 4147 0120 51       		.byte	0x51
 4148 0121 0A000000 		.4byte	.LVL41
 4149 0125 19000000 		.4byte	.LVL42-1
 4150 0129 0200     		.2byte	0x2
 4151 012b 70       		.byte	0x70
 4152 012c 24       		.sleb128 36
 4153 012d 19000000 		.4byte	.LVL42-1
 4154 0131 1A000000 		.4byte	.LVL42
 4155 0135 0400     		.2byte	0x4
 4156 0137 F3       		.byte	0xf3
 4157 0138 01       		.uleb128 0x1
ARM GAS  /tmp/ccwIqr9G.s 			page 74


 4158 0139 51       		.byte	0x51
 4159 013a 9F       		.byte	0x9f
 4160 013b 1A000000 		.4byte	.LVL42
 4161 013f 1C000000 		.4byte	.LVL43
 4162 0143 0200     		.2byte	0x2
 4163 0145 70       		.byte	0x70
 4164 0146 24       		.sleb128 36
 4165 0147 1C000000 		.4byte	.LVL43
 4166 014b 1F000000 		.4byte	.LVL44-1
 4167 014f 0200     		.2byte	0x2
 4168 0151 74       		.byte	0x74
 4169 0152 24       		.sleb128 36
 4170 0153 1F000000 		.4byte	.LVL44-1
 4171 0157 44000000 		.4byte	.LFE296
 4172 015b 0400     		.2byte	0x4
 4173 015d F3       		.byte	0xf3
 4174 015e 01       		.uleb128 0x1
 4175 015f 51       		.byte	0x51
 4176 0160 9F       		.byte	0x9f
 4177 0161 00000000 		.4byte	0
 4178 0165 00000000 		.4byte	0
 4179              	.LLST17:
 4180 0169 08000000 		.4byte	.LVL40
 4181 016d 19000000 		.4byte	.LVL42-1
 4182 0171 0100     		.2byte	0x1
 4183 0173 53       		.byte	0x53
 4184 0174 1A000000 		.4byte	.LVL42
 4185 0178 1F000000 		.4byte	.LVL44-1
 4186 017c 0100     		.2byte	0x1
 4187 017e 53       		.byte	0x53
 4188 017f 1F000000 		.4byte	.LVL44-1
 4189 0183 20000000 		.4byte	.LVL44
 4190 0187 0100     		.2byte	0x1
 4191 0189 50       		.byte	0x50
 4192 018a 24000000 		.4byte	.LVL45
 4193 018e 2C000000 		.4byte	.LVL46
 4194 0192 0100     		.2byte	0x1
 4195 0194 50       		.byte	0x50
 4196 0195 2C000000 		.4byte	.LVL46
 4197 0199 31000000 		.4byte	.LVL47-1
 4198 019d 0100     		.2byte	0x1
 4199 019f 51       		.byte	0x51
 4200 01a0 31000000 		.4byte	.LVL47-1
 4201 01a4 3A000000 		.4byte	.LVL48
 4202 01a8 0100     		.2byte	0x1
 4203 01aa 55       		.byte	0x55
 4204 01ab 3A000000 		.4byte	.LVL48
 4205 01af 3D000000 		.4byte	.LVL49-1
 4206 01b3 0100     		.2byte	0x1
 4207 01b5 51       		.byte	0x51
 4208 01b6 00000000 		.4byte	0
 4209 01ba 00000000 		.4byte	0
 4210              	.LLST13:
 4211 01be 00000000 		.4byte	.LVL31
 4212 01c2 12000000 		.4byte	.LVL32
 4213 01c6 0100     		.2byte	0x1
 4214 01c8 50       		.byte	0x50
ARM GAS  /tmp/ccwIqr9G.s 			page 75


 4215 01c9 12000000 		.4byte	.LVL32
 4216 01cd 2E000000 		.4byte	.LVL37
 4217 01d1 0400     		.2byte	0x4
 4218 01d3 F3       		.byte	0xf3
 4219 01d4 01       		.uleb128 0x1
 4220 01d5 50       		.byte	0x50
 4221 01d6 9F       		.byte	0x9f
 4222 01d7 2E000000 		.4byte	.LVL37
 4223 01db 31000000 		.4byte	.LVL38-1
 4224 01df 0100     		.2byte	0x1
 4225 01e1 50       		.byte	0x50
 4226 01e2 31000000 		.4byte	.LVL38-1
 4227 01e6 3C000000 		.4byte	.LFE295
 4228 01ea 0400     		.2byte	0x4
 4229 01ec F3       		.byte	0xf3
 4230 01ed 01       		.uleb128 0x1
 4231 01ee 50       		.byte	0x50
 4232 01ef 9F       		.byte	0x9f
 4233 01f0 00000000 		.4byte	0
 4234 01f4 00000000 		.4byte	0
 4235              	.LLST14:
 4236 01f8 00000000 		.4byte	.LVL31
 4237 01fc 15000000 		.4byte	.LVL33-1
 4238 0200 0100     		.2byte	0x1
 4239 0202 51       		.byte	0x51
 4240 0203 15000000 		.4byte	.LVL33-1
 4241 0207 2E000000 		.4byte	.LVL37
 4242 020b 0400     		.2byte	0x4
 4243 020d F3       		.byte	0xf3
 4244 020e 01       		.uleb128 0x1
 4245 020f 51       		.byte	0x51
 4246 0210 9F       		.byte	0x9f
 4247 0211 2E000000 		.4byte	.LVL37
 4248 0215 31000000 		.4byte	.LVL38-1
 4249 0219 0100     		.2byte	0x1
 4250 021b 51       		.byte	0x51
 4251 021c 31000000 		.4byte	.LVL38-1
 4252 0220 3C000000 		.4byte	.LFE295
 4253 0224 0400     		.2byte	0x4
 4254 0226 F3       		.byte	0xf3
 4255 0227 01       		.uleb128 0x1
 4256 0228 51       		.byte	0x51
 4257 0229 9F       		.byte	0x9f
 4258 022a 00000000 		.4byte	0
 4259 022e 00000000 		.4byte	0
 4260              	.LLST2:
 4261 0232 00000000 		.4byte	.LVL6
 4262 0236 0D000000 		.4byte	.LVL9-1
 4263 023a 0100     		.2byte	0x1
 4264 023c 50       		.byte	0x50
 4265 023d 0D000000 		.4byte	.LVL9-1
 4266 0241 5E000000 		.4byte	.LFE294
 4267 0245 0100     		.2byte	0x1
 4268 0247 54       		.byte	0x54
 4269 0248 00000000 		.4byte	0
 4270 024c 00000000 		.4byte	0
 4271              	.LLST3:
ARM GAS  /tmp/ccwIqr9G.s 			page 76


 4272 0250 04000000 		.4byte	.LVL7
 4273 0254 0D000000 		.4byte	.LVL9-1
 4274 0258 0100     		.2byte	0x1
 4275 025a 50       		.byte	0x50
 4276 025b 0D000000 		.4byte	.LVL9-1
 4277 025f 5E000000 		.4byte	.LFE294
 4278 0263 0100     		.2byte	0x1
 4279 0265 54       		.byte	0x54
 4280 0266 00000000 		.4byte	0
 4281 026a 00000000 		.4byte	0
 4282              	.LLST4:
 4283 026e 04000000 		.4byte	.LVL7
 4284 0272 0A000000 		.4byte	.LVL8
 4285 0276 0300     		.2byte	0x3
 4286 0278 08       		.byte	0x8
 4287 0279 20       		.byte	0x20
 4288 027a 9F       		.byte	0x9f
 4289 027b 00000000 		.4byte	0
 4290 027f 00000000 		.4byte	0
 4291              	.LLST5:
 4292 0283 28000000 		.4byte	.LVL10
 4293 0287 2C000000 		.4byte	.LVL11
 4294 028b 0200     		.2byte	0x2
 4295 028d 30       		.byte	0x30
 4296 028e 9F       		.byte	0x9f
 4297 028f 00000000 		.4byte	0
 4298 0293 00000000 		.4byte	0
 4299              	.LLST6:
 4300 0297 42000000 		.4byte	.LVL14
 4301 029b 48000000 		.4byte	.LVL15
 4302 029f 0200     		.2byte	0x2
 4303 02a1 30       		.byte	0x30
 4304 02a2 9F       		.byte	0x9f
 4305 02a3 00000000 		.4byte	0
 4306 02a7 00000000 		.4byte	0
 4307              	.LLST7:
 4308 02ab 4C000000 		.4byte	.LVL17
 4309 02af 52000000 		.4byte	.LVL18
 4310 02b3 0100     		.2byte	0x1
 4311 02b5 52       		.byte	0x52
 4312 02b6 00000000 		.4byte	0
 4313 02ba 00000000 		.4byte	0
 4314              	.LLST9:
 4315 02be 00000000 		.4byte	.LVL23
 4316 02c2 0C000000 		.4byte	.LVL26
 4317 02c6 0100     		.2byte	0x1
 4318 02c8 50       		.byte	0x50
 4319 02c9 0C000000 		.4byte	.LVL26
 4320 02cd 12000000 		.4byte	.LVL27
 4321 02d1 0200     		.2byte	0x2
 4322 02d3 75       		.byte	0x75
 4323 02d4 20       		.sleb128 32
 4324 02d5 12000000 		.4byte	.LVL27
 4325 02d9 30000000 		.4byte	.LFE293
 4326 02dd 0400     		.2byte	0x4
 4327 02df F3       		.byte	0xf3
 4328 02e0 01       		.uleb128 0x1
ARM GAS  /tmp/ccwIqr9G.s 			page 77


 4329 02e1 50       		.byte	0x50
 4330 02e2 9F       		.byte	0x9f
 4331 02e3 00000000 		.4byte	0
 4332 02e7 00000000 		.4byte	0
 4333              	.LLST10:
 4334 02eb 06000000 		.4byte	.LVL24
 4335 02ef 28000000 		.4byte	.LVL29
 4336 02f3 0100     		.2byte	0x1
 4337 02f5 55       		.byte	0x55
 4338 02f6 28000000 		.4byte	.LVL29
 4339 02fa 2B000000 		.4byte	.LVL30-1
 4340 02fe 0100     		.2byte	0x1
 4341 0300 51       		.byte	0x51
 4342 0301 00000000 		.4byte	0
 4343 0305 00000000 		.4byte	0
 4344              	.LLST11:
 4345 0309 0A000000 		.4byte	.LVL25
 4346 030d 12000000 		.4byte	.LVL27
 4347 0311 0600     		.2byte	0x6
 4348 0313 03       		.byte	0x3
 4349 0314 00000000 		.4byte	ch
 4350 0318 9F       		.byte	0x9f
 4351 0319 00000000 		.4byte	0
 4352 031d 00000000 		.4byte	0
 4353              	.LLST12:
 4354 0321 0C000000 		.4byte	.LVL26
 4355 0325 12000000 		.4byte	.LVL27
 4356 0329 0100     		.2byte	0x1
 4357 032b 50       		.byte	0x50
 4358 032c 00000000 		.4byte	0
 4359 0330 00000000 		.4byte	0
 4360              	.LLST8:
 4361 0334 06000000 		.4byte	.LVL20
 4362 0338 0A000000 		.4byte	.LVL21
 4363 033c 0600     		.2byte	0x6
 4364 033e 03       		.byte	0x3
 4365 033f 00000000 		.4byte	ch
 4366 0343 9F       		.byte	0x9f
 4367 0344 0A000000 		.4byte	.LVL21
 4368 0348 24000000 		.4byte	.LFE292
 4369 034c 0100     		.2byte	0x1
 4370 034e 53       		.byte	0x53
 4371 034f 00000000 		.4byte	0
 4372 0353 00000000 		.4byte	0
 4373              	.LLST1:
 4374 0357 06000000 		.4byte	.LVL3
 4375 035b 0A000000 		.4byte	.LVL4
 4376 035f 0600     		.2byte	0x6
 4377 0361 03       		.byte	0x3
 4378 0362 00000000 		.4byte	ch
 4379 0366 9F       		.byte	0x9f
 4380 0367 0A000000 		.4byte	.LVL4
 4381 036b 24000000 		.4byte	.LFE291
 4382 036f 0100     		.2byte	0x1
 4383 0371 53       		.byte	0x53
 4384 0372 00000000 		.4byte	0
 4385 0376 00000000 		.4byte	0
ARM GAS  /tmp/ccwIqr9G.s 			page 78


 4386              	.LLST0:
 4387 037a 00000000 		.4byte	.LVL0
 4388 037e 08000000 		.4byte	.LVL1
 4389 0382 0600     		.2byte	0x6
 4390 0384 03       		.byte	0x3
 4391 0385 00000000 		.4byte	ch
 4392 0389 9F       		.byte	0x9f
 4393 038a 00000000 		.4byte	0
 4394 038e 00000000 		.4byte	0
 4395              		.section	.debug_aranges,"",%progbits
 4396 0000 6C000000 		.4byte	0x6c
 4397 0004 0200     		.2byte	0x2
 4398 0006 00000000 		.4byte	.Ldebug_info0
 4399 000a 04       		.byte	0x4
 4400 000b 00       		.byte	0
 4401 000c 0000     		.2byte	0
 4402 000e 0000     		.2byte	0
 4403 0010 00000000 		.4byte	.LFB290
 4404 0014 14000000 		.4byte	.LFE290-.LFB290
 4405 0018 00000000 		.4byte	.LFB291
 4406 001c 24000000 		.4byte	.LFE291-.LFB291
 4407 0020 00000000 		.4byte	.LFB294
 4408 0024 5E000000 		.4byte	.LFE294-.LFB294
 4409 0028 00000000 		.4byte	.LFB292
 4410 002c 24000000 		.4byte	.LFE292-.LFB292
 4411 0030 00000000 		.4byte	.LFB293
 4412 0034 30000000 		.4byte	.LFE293-.LFB293
 4413 0038 00000000 		.4byte	.LFB295
 4414 003c 3C000000 		.4byte	.LFE295-.LFB295
 4415 0040 00000000 		.4byte	.LFB296
 4416 0044 44000000 		.4byte	.LFE296-.LFB296
 4417 0048 00000000 		.4byte	.LFB298
 4418 004c 18000000 		.4byte	.LFE298-.LFB298
 4419 0050 00000000 		.4byte	.LFB299
 4420 0054 34000000 		.4byte	.LFE299-.LFB299
 4421 0058 00000000 		.4byte	.LFB301
 4422 005c 34000000 		.4byte	.LFE301-.LFB301
 4423 0060 00000000 		.4byte	.LFB297
 4424 0064 12000000 		.4byte	.LFE297-.LFB297
 4425 0068 00000000 		.4byte	0
 4426 006c 00000000 		.4byte	0
 4427              		.section	.debug_ranges,"",%progbits
 4428              	.Ldebug_ranges0:
 4429 0000 00000000 		.4byte	.LBB39
 4430 0004 02000000 		.4byte	.LBE39
 4431 0008 04000000 		.4byte	.LBB42
 4432 000c 08000000 		.4byte	.LBE42
 4433 0010 00000000 		.4byte	0
 4434 0014 00000000 		.4byte	0
 4435 0018 04000000 		.4byte	.LBB90
 4436 001c 06000000 		.4byte	.LBE90
 4437 0020 08000000 		.4byte	.LBB93
 4438 0024 0E000000 		.4byte	.LBE93
 4439 0028 00000000 		.4byte	0
 4440 002c 00000000 		.4byte	0
 4441 0030 04000000 		.4byte	.LBB94
 4442 0034 06000000 		.4byte	.LBE94
ARM GAS  /tmp/ccwIqr9G.s 			page 79


 4443 0038 08000000 		.4byte	.LBB97
 4444 003c 0E000000 		.4byte	.LBE97
 4445 0040 00000000 		.4byte	0
 4446 0044 00000000 		.4byte	0
 4447 0048 00000000 		.4byte	.LFB290
 4448 004c 14000000 		.4byte	.LFE290
 4449 0050 00000000 		.4byte	.LFB291
 4450 0054 24000000 		.4byte	.LFE291
 4451 0058 00000000 		.4byte	.LFB294
 4452 005c 5E000000 		.4byte	.LFE294
 4453 0060 00000000 		.4byte	.LFB292
 4454 0064 24000000 		.4byte	.LFE292
 4455 0068 00000000 		.4byte	.LFB293
 4456 006c 30000000 		.4byte	.LFE293
 4457 0070 00000000 		.4byte	.LFB295
 4458 0074 3C000000 		.4byte	.LFE295
 4459 0078 00000000 		.4byte	.LFB296
 4460 007c 44000000 		.4byte	.LFE296
 4461 0080 00000000 		.4byte	.LFB298
 4462 0084 18000000 		.4byte	.LFE298
 4463 0088 00000000 		.4byte	.LFB299
 4464 008c 34000000 		.4byte	.LFE299
 4465 0090 00000000 		.4byte	.LFB301
 4466 0094 34000000 		.4byte	.LFE301
 4467 0098 00000000 		.4byte	.LFB297
 4468 009c 12000000 		.4byte	.LFE297
 4469 00a0 00000000 		.4byte	0
 4470 00a4 00000000 		.4byte	0
 4471              		.section	.debug_line,"",%progbits
 4472              	.Ldebug_line0:
 4473 0000 37050000 		.section	.debug_str,"MS",%progbits,1
 4473      02006303 
 4473      00000201 
 4473      FB0E0D00 
 4473      01010101 
 4474              	.LASF56:
 4475 0000 72656164 		.ascii	"ready_list_t\000"
 4475      795F6C69 
 4475      73745F74 
 4475      00
 4476              	.LASF4:
 4477 000d 73697A65 		.ascii	"size_t\000"
 4477      5F7400
 4478              	.LASF62:
 4479 0014 64656C74 		.ascii	"delta\000"
 4479      6100
 4480              	.LASF99:
 4481 001a 7264796D 		.ascii	"rdymsg\000"
 4481      736700
 4482              	.LASF20:
 4483 0021 75696E74 		.ascii	"uint64_t\000"
 4483      36345F74 
 4483      00
 4484              	.LASF195:
 4485 002a 63685363 		.ascii	"chSchDoRescheduleAhead\000"
 4485      68446F52 
 4485      65736368 
ARM GAS  /tmp/ccwIqr9G.s 			page 80


 4485      6564756C 
 4485      65416865 
 4486              	.LASF28:
 4487 0041 6576656E 		.ascii	"eventmask_t\000"
 4487      746D6173 
 4487      6B5F7400 
 4488              	.LASF5:
 4489 004d 5F5F7569 		.ascii	"__uint8_t\000"
 4489      6E74385F 
 4489      7400
 4490              	.LASF55:
 4491 0057 70726576 		.ascii	"prev\000"
 4491      00
 4492              	.LASF86:
 4493 005c 706F7274 		.ascii	"port_intctx\000"
 4493      5F696E74 
 4493      63747800 
 4494              	.LASF54:
 4495 0068 63685F74 		.ascii	"ch_threads_queue\000"
 4495      68726561 
 4495      64735F71 
 4495      75657565 
 4495      00
 4496              	.LASF67:
 4497 0079 73797374 		.ascii	"system_debug_t\000"
 4497      656D5F64 
 4497      65627567 
 4497      5F7400
 4498              	.LASF143:
 4499 0088 70726F76 		.ascii	"provider\000"
 4499      69646572 
 4499      00
 4500              	.LASF179:
 4501 0091 71756575 		.ascii	"queue_init\000"
 4501      655F696E 
 4501      697400
 4502              	.LASF153:
 4503 009c 73656D5F 		.ascii	"sem_list\000"
 4503      6C697374 
 4503      00
 4504              	.LASF183:
 4505 00a5 706F7274 		.ascii	"port_lock\000"
 4505      5F6C6F63 
 4505      6B00
 4506              	.LASF85:
 4507 00af 706F7274 		.ascii	"port_context\000"
 4507      5F636F6E 
 4507      74657874 
 4507      00
 4508              	.LASF90:
 4509 00bc 776F7273 		.ascii	"worst\000"
 4509      7400
 4510              	.LASF93:
 4511 00c2 74696D65 		.ascii	"time_measurement_t\000"
 4511      5F6D6561 
 4511      73757265 
 4511      6D656E74 
ARM GAS  /tmp/ccwIqr9G.s 			page 81


 4511      5F7400
 4512              	.LASF15:
 4513 00d5 6C6F6E67 		.ascii	"long long unsigned int\000"
 4513      206C6F6E 
 4513      6720756E 
 4513      7369676E 
 4513      65642069 
 4514              	.LASF189:
 4515 00ec 63685654 		.ascii	"chVTDoResetI\000"
 4515      446F5265 
 4515      73657449 
 4515      00
 4516              	.LASF100:
 4517 00f9 65786974 		.ascii	"exitcode\000"
 4517      636F6465 
 4517      00
 4518              	.LASF74:
 4519 0102 6D61696E 		.ascii	"mainthread\000"
 4519      74687265 
 4519      616400
 4520              	.LASF103:
 4521 010d 73656E74 		.ascii	"sentmsg\000"
 4521      6D736700 
 4522              	.LASF64:
 4523 0115 76697274 		.ascii	"virtual_timers_list_t\000"
 4523      75616C5F 
 4523      74696D65 
 4523      72735F6C 
 4523      6973745F 
 4524              	.LASF79:
 4525 012b 49544D5F 		.ascii	"ITM_RxBuffer\000"
 4525      52784275 
 4525      66666572 
 4525      00
 4526              	.LASF146:
 4527 0138 64796E5F 		.ascii	"dyn_element_t\000"
 4527      656C656D 
 4527      656E745F 
 4527      7400
 4528              	.LASF52:
 4529 0146 6E657874 		.ascii	"next\000"
 4529      00
 4530              	.LASF22:
 4531 014b 72747469 		.ascii	"rttime_t\000"
 4531      6D655F74 
 4531      00
 4532              	.LASF171:
 4533 0154 5F736368 		.ascii	"_scheduler_init\000"
 4533      6564756C 
 4533      65725F69 
 4533      6E697400 
 4534              	.LASF1:
 4535 0164 6C6F6E67 		.ascii	"long long int\000"
 4535      206C6F6E 
 4535      6720696E 
 4535      7400
 4536              	.LASF3:
ARM GAS  /tmp/ccwIqr9G.s 			page 82


 4537 0172 7369676E 		.ascii	"signed char\000"
 4537      65642063 
 4537      68617200 
 4538              	.LASF114:
 4539 017e 73697A65 		.ascii	"size\000"
 4539      00
 4540              	.LASF192:
 4541 0183 474E5520 		.ascii	"GNU C11 6.3.1 20170620 (release) [ARM/embedded-6-br"
 4541      43313120 
 4541      362E332E 
 4541      31203230 
 4541      31373036 
 4542 01b6 616E6368 		.ascii	"anch revision 249437] -mcpu=cortex-m4 -mfloat-abi=h"
 4542      20726576 
 4542      6973696F 
 4542      6E203234 
 4542      39343337 
 4543 01e9 61726420 		.ascii	"ard -mfpu=fpv4-sp-d16 -mno-thumb-interwork -mthumb "
 4543      2D6D6670 
 4543      753D6670 
 4543      76342D73 
 4543      702D6431 
 4544 021c 2D67202D 		.ascii	"-g -Os -fomit-frame-pointer -falign-functions=16 -f"
 4544      4F73202D 
 4544      666F6D69 
 4544      742D6672 
 4544      616D652D 
 4545 024f 66756E63 		.ascii	"function-sections -fdata-sections -fno-common -fsin"
 4545      74696F6E 
 4545      2D736563 
 4545      74696F6E 
 4545      73202D66 
 4546 0282 676C652D 		.ascii	"gle-precision-constant\000"
 4546      70726563 
 4546      6973696F 
 4546      6E2D636F 
 4546      6E737461 
 4547              	.LASF185:
 4548 0299 62617365 		.ascii	"basePri\000"
 4548      50726900 
 4549              	.LASF73:
 4550 02a1 76746C69 		.ascii	"vtlist\000"
 4550      737400
 4551              	.LASF182:
 4552 02a8 706F7274 		.ascii	"port_unlock\000"
 4552      5F756E6C 
 4552      6F636B00 
 4553              	.LASF42:
 4554 02b4 6D736771 		.ascii	"msgqueue\000"
 4554      75657565 
 4554      00
 4555              	.LASF38:
 4556 02bd 73746174 		.ascii	"state\000"
 4556      6500
 4557              	.LASF11:
 4558 02c3 6C6F6E67 		.ascii	"long int\000"
 4558      20696E74 
ARM GAS  /tmp/ccwIqr9G.s 			page 83


 4558      00
 4559              	.LASF176:
 4560 02cc 71756575 		.ascii	"queue_dequeue\000"
 4560      655F6465 
 4560      71756575 
 4560      6500
 4561              	.LASF24:
 4562 02da 74737461 		.ascii	"tstate_t\000"
 4562      74655F74 
 4562      00
 4563              	.LASF63:
 4564 02e3 66756E63 		.ascii	"func\000"
 4564      00
 4565              	.LASF47:
 4566 02e8 73746174 		.ascii	"stats\000"
 4566      7300
 4567              	.LASF128:
 4568 02ee 6F66665F 		.ascii	"off_preempt\000"
 4568      70726565 
 4568      6D707400 
 4569              	.LASF163:
 4570 02fa 63685363 		.ascii	"chSchIsPreemptionRequired\000"
 4570      68497350 
 4570      7265656D 
 4570      7074696F 
 4570      6E526571 
 4571              	.LASF161:
 4572 0314 63685363 		.ascii	"chSchRescheduleS\000"
 4572      68526573 
 4572      63686564 
 4572      756C6553 
 4572      00
 4573              	.LASF12:
 4574 0325 5F5F7569 		.ascii	"__uint32_t\000"
 4574      6E743332 
 4574      5F7400
 4575              	.LASF83:
 4576 0330 72656761 		.ascii	"regarm_t\000"
 4576      726D5F74 
 4576      00
 4577              	.LASF159:
 4578 0339 63685363 		.ascii	"chSchDoReschedule\000"
 4578      68446F52 
 4578      65736368 
 4578      6564756C 
 4578      6500
 4579              	.LASF155:
 4580 034b 6D62785F 		.ascii	"mbx_list\000"
 4580      6C697374 
 4580      00
 4581              	.LASF68:
 4582 0354 63685F73 		.ascii	"ch_system_debug\000"
 4582      79737465 
 4582      6D5F6465 
 4582      62756700 
 4583              	.LASF41:
 4584 0364 77616974 		.ascii	"waiting\000"
ARM GAS  /tmp/ccwIqr9G.s 			page 84


 4584      696E6700 
 4585              	.LASF72:
 4586 036c 726C6973 		.ascii	"rlist\000"
 4586      7400
 4587              	.LASF113:
 4588 0372 7A65726F 		.ascii	"zero\000"
 4588      00
 4589              	.LASF133:
 4590 0377 6D757465 		.ascii	"mutex_t\000"
 4590      785F7400 
 4591              	.LASF142:
 4592 037f 616C6967 		.ascii	"align\000"
 4592      6E00
 4593              	.LASF77:
 4594 0385 73797369 		.ascii	"sysinterval_t\000"
 4594      6E746572 
 4594      76616C5F 
 4594      7400
 4595              	.LASF29:
 4596 0393 636E745F 		.ascii	"cnt_t\000"
 4596      7400
 4597              	.LASF0:
 4598 0399 756E7369 		.ascii	"unsigned int\000"
 4598      676E6564 
 4598      20696E74 
 4598      00
 4599              	.LASF196:
 4600 03a6 77616B65 		.ascii	"wakeup\000"
 4600      757000
 4601              	.LASF17:
 4602 03ad 75696E74 		.ascii	"uint16_t\000"
 4602      31365F74 
 4602      00
 4603              	.LASF80:
 4604 03b6 53797374 		.ascii	"SystemCoreClock\000"
 4604      656D436F 
 4604      7265436C 
 4604      6F636B00 
 4605              	.LASF104:
 4606 03c6 77747365 		.ascii	"wtsemp\000"
 4606      6D7000
 4607              	.LASF187:
 4608 03cd 5F706F72 		.ascii	"_port_switch\000"
 4608      745F7377 
 4608      69746368 
 4608      00
 4609              	.LASF102:
 4610 03da 77747472 		.ascii	"wttrp\000"
 4610      7000
 4611              	.LASF131:
 4612 03e0 63685F64 		.ascii	"ch_debug\000"
 4612      65627567 
 4612      00
 4613              	.LASF158:
 4614 03e9 63685F66 		.ascii	"ch_factory\000"
 4614      6163746F 
 4614      727900
ARM GAS  /tmp/ccwIqr9G.s 			page 85


 4615              	.LASF166:
 4616 03f4 74696D65 		.ascii	"timeout\000"
 4616      6F757400 
 4617              	.LASF144:
 4618 03fc 6D656D6F 		.ascii	"memory_pool_t\000"
 4618      72795F70 
 4618      6F6F6C5F 
 4618      7400
 4619              	.LASF94:
 4620 040a 6E5F6972 		.ascii	"n_irq\000"
 4620      7100
 4621              	.LASF32:
 4622 0410 71756575 		.ascii	"queue\000"
 4622      6500
 4623              	.LASF46:
 4624 0416 6D706F6F 		.ascii	"mpool\000"
 4624      6C00
 4625              	.LASF127:
 4626 041c 6F66665F 		.ascii	"off_refs\000"
 4626      72656673 
 4626      00
 4627              	.LASF98:
 4628 0425 6B65726E 		.ascii	"kernel_stats_t\000"
 4628      656C5F73 
 4628      74617473 
 4628      5F7400
 4629              	.LASF50:
 4630 0434 63685F74 		.ascii	"ch_thread\000"
 4630      68726561 
 4630      6400
 4631              	.LASF27:
 4632 043e 6D73675F 		.ascii	"msg_t\000"
 4632      7400
 4633              	.LASF91:
 4634 0444 6C617374 		.ascii	"last\000"
 4634      00
 4635              	.LASF30:
 4636 0449 75636E74 		.ascii	"ucnt_t\000"
 4636      5F7400
 4637              	.LASF43:
 4638 0450 6570656E 		.ascii	"epending\000"
 4638      64696E67 
 4638      00
 4639              	.LASF36:
 4640 0459 6E616D65 		.ascii	"name\000"
 4640      00
 4641              	.LASF70:
 4642 045e 63685F73 		.ascii	"ch_system_t\000"
 4642      79737465 
 4642      6D5F7400 
 4643              	.LASF120:
 4644 046a 6F66665F 		.ascii	"off_ctx\000"
 4644      63747800 
 4645              	.LASF101:
 4646 0472 77746F62 		.ascii	"wtobjp\000"
 4646      6A7000
 4647              	.LASF97:
ARM GAS  /tmp/ccwIqr9G.s 			page 86


 4648 0479 6D5F6372 		.ascii	"m_crit_isr\000"
 4648      69745F69 
 4648      737200
 4649              	.LASF57:
 4650 0484 63685F72 		.ascii	"ch_ready_list\000"
 4650      65616479 
 4650      5F6C6973 
 4650      7400
 4651              	.LASF188:
 4652 0492 63685654 		.ascii	"chVTDoSetI\000"
 4652      446F5365 
 4652      744900
 4653              	.LASF81:
 4654 049d 41484250 		.ascii	"AHBPrescTable\000"
 4654      72657363 
 4654      5461626C 
 4654      6500
 4655              	.LASF137:
 4656 04ab 656E646D 		.ascii	"endmem\000"
 4656      656D00
 4657              	.LASF193:
 4658 04b2 2E2E2F2E 		.ascii	"../../modules/ChibiOS/os/rt/src/chschd.c\000"
 4658      2E2F6D6F 
 4658      64756C65 
 4658      732F4368 
 4658      6962694F 
 4659              	.LASF84:
 4660 04db 73746B61 		.ascii	"stkalign_t\000"
 4660      6C69676E 
 4660      5F7400
 4661              	.LASF34:
 4662 04e6 6E657765 		.ascii	"newer\000"
 4662      7200
 4663              	.LASF45:
 4664 04ec 7265616C 		.ascii	"realprio\000"
 4664      7072696F 
 4664      00
 4665              	.LASF115:
 4666 04f5 76657273 		.ascii	"version\000"
 4666      696F6E00 
 4667              	.LASF78:
 4668 04fd 73697A65 		.ascii	"sizetype\000"
 4668      74797065 
 4668      00
 4669              	.LASF48:
 4670 0506 74687265 		.ascii	"thread_reference_t\000"
 4670      61645F72 
 4670      65666572 
 4670      656E6365 
 4670      5F7400
 4671              	.LASF65:
 4672 0519 63685F76 		.ascii	"ch_virtual_timers_list\000"
 4672      69727475 
 4672      616C5F74 
 4672      696D6572 
 4672      735F6C69 
 4673              	.LASF2:
ARM GAS  /tmp/ccwIqr9G.s 			page 87


 4674 0530 6C6F6E67 		.ascii	"long double\000"
 4674      20646F75 
 4674      626C6500 
 4675              	.LASF147:
 4676 053c 63685F64 		.ascii	"ch_dyn_list\000"
 4676      796E5F6C 
 4676      69737400 
 4677              	.LASF121:
 4678 0548 6F66665F 		.ascii	"off_newer\000"
 4678      6E657765 
 4678      7200
 4679              	.LASF82:
 4680 0552 41504250 		.ascii	"APBPrescTable\000"
 4680      72657363 
 4680      5461626C 
 4680      6500
 4681              	.LASF148:
 4682 0560 64796E5F 		.ascii	"dyn_list_t\000"
 4682      6C697374 
 4682      5F7400
 4683              	.LASF88:
 4684 056b 746D5F63 		.ascii	"tm_calibration_t\000"
 4684      616C6962 
 4684      72617469 
 4684      6F6E5F74 
 4684      00
 4685              	.LASF33:
 4686 057c 7072696F 		.ascii	"prio\000"
 4686      00
 4687              	.LASF190:
 4688 0581 5F737461 		.ascii	"_stats_start_measure_crit_isr\000"
 4688      74735F73 
 4688      74617274 
 4688      5F6D6561 
 4688      73757265 
 4689              	.LASF154:
 4690 059f 73656D5F 		.ascii	"sem_pool\000"
 4690      706F6F6C 
 4690      00
 4691              	.LASF58:
 4692 05a8 63757272 		.ascii	"current\000"
 4692      656E7400 
 4693              	.LASF14:
 4694 05b0 5F5F7569 		.ascii	"__uint64_t\000"
 4694      6E743634 
 4694      5F7400
 4695              	.LASF138:
 4696 05bb 6D656D63 		.ascii	"memcore_t\000"
 4696      6F72655F 
 4696      7400
 4697              	.LASF92:
 4698 05c5 63756D75 		.ascii	"cumulative\000"
 4698      6C617469 
 4698      766500
 4699              	.LASF135:
 4700 05d0 6D656D67 		.ascii	"memgetfunc_t\000"
 4700      65746675 
ARM GAS  /tmp/ccwIqr9G.s 			page 88


 4700      6E635F74 
 4700      00
 4701              	.LASF25:
 4702 05dd 74726566 		.ascii	"trefs_t\000"
 4702      735F7400 
 4703              	.LASF130:
 4704 05e5 63686465 		.ascii	"chdebug_t\000"
 4704      6275675F 
 4704      7400
 4705              	.LASF118:
 4706 05ef 74687265 		.ascii	"threadsize\000"
 4706      61647369 
 4706      7A6500
 4707              	.LASF40:
 4708 05fa 72656673 		.ascii	"refs\000"
 4708      00
 4709              	.LASF60:
 4710 05ff 76697274 		.ascii	"virtual_timer_t\000"
 4710      75616C5F 
 4710      74696D65 
 4710      725F7400 
 4711              	.LASF145:
 4712 060f 63685F64 		.ascii	"ch_dyn_element\000"
 4712      796E5F65 
 4712      6C656D65 
 4712      6E7400
 4713              	.LASF26:
 4714 061e 74707269 		.ascii	"tprio_t\000"
 4714      6F5F7400 
 4715              	.LASF172:
 4716 0626 63685379 		.ascii	"chSysUnlockFromISR\000"
 4716      73556E6C 
 4716      6F636B46 
 4716      726F6D49 
 4716      535200
 4717              	.LASF152:
 4718 0639 6275665F 		.ascii	"buf_list\000"
 4718      6C697374 
 4718      00
 4719              	.LASF167:
 4720 0642 63685363 		.ascii	"chSchGoSleepS\000"
 4720      68476F53 
 4720      6C656570 
 4720      5300
 4721              	.LASF95:
 4722 0650 6E5F6374 		.ascii	"n_ctxswc\000"
 4722      78737763 
 4722      00
 4723              	.LASF134:
 4724 0659 5F426F6F 		.ascii	"_Bool\000"
 4724      6C00
 4725              	.LASF18:
 4726 065f 696E7433 		.ascii	"int32_t\000"
 4726      325F7400 
 4727              	.LASF6:
 4728 0667 756E7369 		.ascii	"unsigned char\000"
 4728      676E6564 
ARM GAS  /tmp/ccwIqr9G.s 			page 89


 4728      20636861 
 4728      7200
 4729              	.LASF119:
 4730 0675 6F66665F 		.ascii	"off_prio\000"
 4730      7072696F 
 4730      00
 4731              	.LASF124:
 4732 067e 6F66665F 		.ascii	"off_stklimit\000"
 4732      73746B6C 
 4732      696D6974 
 4732      00
 4733              	.LASF165:
 4734 068b 6E657773 		.ascii	"newstate\000"
 4734      74617465 
 4734      00
 4735              	.LASF7:
 4736 0694 73686F72 		.ascii	"short int\000"
 4736      7420696E 
 4736      7400
 4737              	.LASF66:
 4738 069e 6C617374 		.ascii	"lasttime\000"
 4738      74696D65 
 4738      00
 4739              	.LASF178:
 4740 06a7 63685365 		.ascii	"chSemFastSignalI\000"
 4740      6D466173 
 4740      74536967 
 4740      6E616C49 
 4740      00
 4741              	.LASF106:
 4742 06b8 65776D61 		.ascii	"ewmask\000"
 4742      736B00
 4743              	.LASF71:
 4744 06bf 63685F73 		.ascii	"ch_system\000"
 4744      79737465 
 4744      6D00
 4745              	.LASF23:
 4746 06c9 746D6F64 		.ascii	"tmode_t\000"
 4746      655F7400 
 4747              	.LASF169:
 4748 06d1 5F5F6675 		.ascii	"__func__\000"
 4748      6E635F5F 
 4748      00
 4749              	.LASF9:
 4750 06da 73686F72 		.ascii	"short unsigned int\000"
 4750      7420756E 
 4750      7369676E 
 4750      65642069 
 4750      6E7400
 4751              	.LASF151:
 4752 06ed 6F626A5F 		.ascii	"obj_pool\000"
 4752      706F6F6C 
 4752      00
 4753              	.LASF132:
 4754 06f6 73656D61 		.ascii	"semaphore_t\000"
 4754      70686F72 
 4754      655F7400 
ARM GAS  /tmp/ccwIqr9G.s 			page 90


 4755              	.LASF61:
 4756 0702 63685F76 		.ascii	"ch_virtual_timer\000"
 4756      69727475 
 4756      616C5F74 
 4756      696D6572 
 4756      00
 4757              	.LASF107:
 4758 0713 63685F73 		.ascii	"ch_semaphore\000"
 4758      656D6170 
 4758      686F7265 
 4758      00
 4759              	.LASF129:
 4760 0720 6F66665F 		.ascii	"off_time\000"
 4760      74696D65 
 4760      00
 4761              	.LASF111:
 4762 0729 63685F69 		.ascii	"ch_idle_thread_wa\000"
 4762      646C655F 
 4762      74687265 
 4762      61645F77 
 4762      6100
 4763              	.LASF117:
 4764 073b 74696D65 		.ascii	"timesize\000"
 4764      73697A65 
 4764      00
 4765              	.LASF175:
 4766 0744 63685654 		.ascii	"chVTIsArmedI\000"
 4766      49734172 
 4766      6D656449 
 4766      00
 4767              	.LASF168:
 4768 0751 63685363 		.ascii	"chSchReadyAheadI\000"
 4768      68526561 
 4768      64794168 
 4768      65616449 
 4768      00
 4769              	.LASF19:
 4770 0762 75696E74 		.ascii	"uint32_t\000"
 4770      33325F74 
 4770      00
 4771              	.LASF105:
 4772 076b 77746D74 		.ascii	"wtmtxp\000"
 4772      787000
 4773              	.LASF170:
 4774 0772 63685363 		.ascii	"chSchReadyI\000"
 4774      68526561 
 4774      64794900 
 4775              	.LASF51:
 4776 077e 63685F74 		.ascii	"ch_threads_list\000"
 4776      68726561 
 4776      64735F6C 
 4776      69737400 
 4777              	.LASF109:
 4778 078e 6F776E65 		.ascii	"owner\000"
 4778      7200
 4779              	.LASF13:
 4780 0794 6C6F6E67 		.ascii	"long unsigned int\000"
ARM GAS  /tmp/ccwIqr9G.s 			page 91


 4780      20756E73 
 4780      69676E65 
 4780      6420696E 
 4780      7400
 4781              	.LASF37:
 4782 07a6 77616261 		.ascii	"wabase\000"
 4782      736500
 4783              	.LASF110:
 4784 07ad 63686172 		.ascii	"char\000"
 4784      00
 4785              	.LASF35:
 4786 07b2 6F6C6465 		.ascii	"older\000"
 4786      7200
 4787              	.LASF10:
 4788 07b8 5F5F696E 		.ascii	"__int32_t\000"
 4788      7433325F 
 4788      7400
 4789              	.LASF150:
 4790 07c2 6F626A5F 		.ascii	"obj_list\000"
 4790      6C697374 
 4790      00
 4791              	.LASF8:
 4792 07cb 5F5F7569 		.ascii	"__uint16_t\000"
 4792      6E743136 
 4792      5F7400
 4793              	.LASF180:
 4794 07d6 706F7274 		.ascii	"port_unlock_from_isr\000"
 4794      5F756E6C 
 4794      6F636B5F 
 4794      66726F6D 
 4794      5F697372 
 4795              	.LASF31:
 4796 07eb 74687265 		.ascii	"thread_t\000"
 4796      61645F74 
 4796      00
 4797              	.LASF89:
 4798 07f4 62657374 		.ascii	"best\000"
 4798      00
 4799              	.LASF139:
 4800 07f9 63685F6D 		.ascii	"ch_memcore\000"
 4800      656D636F 
 4800      726500
 4801              	.LASF177:
 4802 0804 71756575 		.ascii	"queue_fifo_remove\000"
 4802      655F6669 
 4802      666F5F72 
 4802      656D6F76 
 4802      6500
 4803              	.LASF76:
 4804 0816 73797374 		.ascii	"systime_t\000"
 4804      696D655F 
 4804      7400
 4805              	.LASF59:
 4806 0820 76746675 		.ascii	"vtfunc_t\000"
 4806      6E635F74 
 4806      00
 4807              	.LASF184:
ARM GAS  /tmp/ccwIqr9G.s 			page 92


 4808 0829 5F5F7365 		.ascii	"__set_BASEPRI\000"
 4808      745F4241 
 4808      53455052 
 4808      4900
 4809              	.LASF69:
 4810 0837 70616E69 		.ascii	"panic_msg\000"
 4810      635F6D73 
 4810      6700
 4811              	.LASF87:
 4812 0841 6F666673 		.ascii	"offset\000"
 4812      657400
 4813              	.LASF108:
 4814 0848 63685F6D 		.ascii	"ch_mutex\000"
 4814      75746578 
 4814      00
 4815              	.LASF122:
 4816 0851 6F66665F 		.ascii	"off_older\000"
 4816      6F6C6465 
 4816      7200
 4817              	.LASF75:
 4818 085b 6B65726E 		.ascii	"kernel_stats\000"
 4818      656C5F73 
 4818      74617473 
 4818      00
 4819              	.LASF112:
 4820 0868 6964656E 		.ascii	"identifier\000"
 4820      74696669 
 4820      657200
 4821              	.LASF21:
 4822 0873 7274636E 		.ascii	"rtcnt_t\000"
 4822      745F7400 
 4823              	.LASF181:
 4824 087b 706F7274 		.ascii	"port_lock_from_isr\000"
 4824      5F6C6F63 
 4824      6B5F6672 
 4824      6F6D5F69 
 4824      737200
 4825              	.LASF162:
 4826 088e 63685363 		.ascii	"chSchWakeupS\000"
 4826      6857616B 
 4826      65757053 
 4826      00
 4827              	.LASF141:
 4828 089b 6F626A65 		.ascii	"object_size\000"
 4828      63745F73 
 4828      697A6500 
 4829              	.LASF116:
 4830 08a7 70747273 		.ascii	"ptrsize\000"
 4830      697A6500 
 4831              	.LASF149:
 4832 08af 63685F6F 		.ascii	"ch_objects_factory\000"
 4832      626A6563 
 4832      74735F66 
 4832      6163746F 
 4832      727900
 4833              	.LASF53:
 4834 08c2 74687265 		.ascii	"threads_queue_t\000"
ARM GAS  /tmp/ccwIqr9G.s 			page 93


 4834      6164735F 
 4834      71756575 
 4834      655F7400 
 4835              	.LASF140:
 4836 08d2 706F6F6C 		.ascii	"pool_header\000"
 4836      5F686561 
 4836      64657200 
 4837              	.LASF123:
 4838 08de 6F66665F 		.ascii	"off_name\000"
 4838      6E616D65 
 4838      00
 4839              	.LASF16:
 4840 08e7 75696E74 		.ascii	"uint8_t\000"
 4840      385F7400 
 4841              	.LASF39:
 4842 08ef 666C6167 		.ascii	"flags\000"
 4842      7300
 4843              	.LASF156:
 4844 08f5 6669666F 		.ascii	"fifo_list\000"
 4844      5F6C6973 
 4844      7400
 4845              	.LASF186:
 4846 08ff 5F737461 		.ascii	"_stats_ctxswc\000"
 4846      74735F63 
 4846      74787377 
 4846      6300
 4847              	.LASF173:
 4848 090d 63685379 		.ascii	"chSysLockFromISR\000"
 4848      734C6F63 
 4848      6B46726F 
 4848      6D495352 
 4848      00
 4849              	.LASF49:
 4850 091e 74687265 		.ascii	"threads_list_t\000"
 4850      6164735F 
 4850      6C697374 
 4850      5F7400
 4851              	.LASF125:
 4852 092d 6F66665F 		.ascii	"off_state\000"
 4852      73746174 
 4852      6500
 4853              	.LASF164:
 4854 0937 63685363 		.ascii	"chSchGoSleepTimeoutS\000"
 4854      68476F53 
 4854      6C656570 
 4854      54696D65 
 4854      6F757453 
 4855              	.LASF174:
 4856 094c 63685363 		.ascii	"chSchIsRescRequiredI\000"
 4856      68497352 
 4856      65736352 
 4856      65717569 
 4856      72656449 
 4857              	.LASF160:
 4858 0961 63685363 		.ascii	"chSchDoRescheduleBehind\000"
 4858      68446F52 
 4858      65736368 
ARM GAS  /tmp/ccwIqr9G.s 			page 94


 4858      6564756C 
 4858      65426568 
 4859              	.LASF157:
 4860 0979 6F626A65 		.ascii	"objects_factory_t\000"
 4860      6374735F 
 4860      66616374 
 4860      6F72795F 
 4860      7400
 4861              	.LASF191:
 4862 098b 5F737461 		.ascii	"_stats_stop_measure_crit_isr\000"
 4862      74735F73 
 4862      746F705F 
 4862      6D656173 
 4862      7572655F 
 4863              	.LASF126:
 4864 09a8 6F66665F 		.ascii	"off_flags\000"
 4864      666C6167 
 4864      7300
 4865              	.LASF44:
 4866 09b2 6D74786C 		.ascii	"mtxlist\000"
 4866      69737400 
 4867              	.LASF96:
 4868 09ba 6D5F6372 		.ascii	"m_crit_thd\000"
 4868      69745F74 
 4868      686400
 4869              	.LASF194:
 4870 09c5 2F686F6D 		.ascii	"/home/haggisaerospace/ardupilot/ardupilot/build/Cub"
 4870      652F6861 
 4870      67676973 
 4870      6165726F 
 4870      73706163 
 4871 09f8 65426C61 		.ascii	"eBlack\000"
 4871      636B00
 4872              	.LASF136:
 4873 09ff 6E657874 		.ascii	"nextmem\000"
 4873      6D656D00 
 4874              		.ident	"GCC: (GNU Tools for ARM Embedded Processors 6-2017-q2-update) 6.3.1 20170620 (release) [AR
ARM GAS  /tmp/ccwIqr9G.s 			page 95


DEFINED SYMBOLS
                            *ABS*:0000000000000000 chschd.c
     /tmp/ccwIqr9G.s:18     .text._scheduler_init:0000000000000000 $t
     /tmp/ccwIqr9G.s:25     .text._scheduler_init:0000000000000000 _scheduler_init
     /tmp/ccwIqr9G.s:62     .text._scheduler_init:0000000000000010 $d
     /tmp/ccwIqr9G.s:67     .text.chSchReadyI:0000000000000000 $t
     /tmp/ccwIqr9G.s:74     .text.chSchReadyI:0000000000000000 chSchReadyI
     /tmp/ccwIqr9G.s:114    .text.chSchReadyI:0000000000000020 $d
     /tmp/ccwIqr9G.s:119    .text.wakeup:0000000000000000 $t
     /tmp/ccwIqr9G.s:125    .text.wakeup:0000000000000000 wakeup
     /tmp/ccwIqr9G.s:174    .text.wakeup:000000000000001c $d
     /tmp/ccwIqr9G.s:182    .text.wakeup:0000000000000024 $t
     /tmp/ccwIqr9G.s:277    .text.chSchReadyAheadI:0000000000000000 $t
     /tmp/ccwIqr9G.s:284    .text.chSchReadyAheadI:0000000000000000 chSchReadyAheadI
     /tmp/ccwIqr9G.s:324    .text.chSchReadyAheadI:0000000000000020 $d
     /tmp/ccwIqr9G.s:329    .text.chSchGoSleepS:0000000000000000 $t
     /tmp/ccwIqr9G.s:336    .text.chSchGoSleepS:0000000000000000 chSchGoSleepS
     /tmp/ccwIqr9G.s:395    .text.chSchGoSleepS:000000000000002c $d
     /tmp/ccwIqr9G.s:400    .text.chSchGoSleepTimeoutS:0000000000000000 $t
     /tmp/ccwIqr9G.s:407    .text.chSchGoSleepTimeoutS:0000000000000000 chSchGoSleepTimeoutS
     /tmp/ccwIqr9G.s:470    .text.chSchGoSleepTimeoutS:0000000000000034 $d
     /tmp/ccwIqr9G.s:476    .text.chSchWakeupS:0000000000000000 $t
     /tmp/ccwIqr9G.s:483    .text.chSchWakeupS:0000000000000000 chSchWakeupS
     /tmp/ccwIqr9G.s:563    .text.chSchWakeupS:0000000000000040 $d
     /tmp/ccwIqr9G.s:568    .text.chSchIsPreemptionRequired:0000000000000000 $t
     /tmp/ccwIqr9G.s:575    .text.chSchIsPreemptionRequired:0000000000000000 chSchIsPreemptionRequired
     /tmp/ccwIqr9G.s:600    .text.chSchIsPreemptionRequired:0000000000000014 $d
     /tmp/ccwIqr9G.s:575    .text.chSchIsPreemptionRequired:0000000000000000 chSchIsRescRequiredI
     /tmp/ccwIqr9G.s:606    .text.chSchDoRescheduleBehind:0000000000000000 $t
     /tmp/ccwIqr9G.s:613    .text.chSchDoRescheduleBehind:0000000000000000 chSchDoRescheduleBehind
     /tmp/ccwIqr9G.s:678    .text.chSchDoRescheduleBehind:0000000000000030 $d
     /tmp/ccwIqr9G.s:683    .text.chSchDoReschedule:0000000000000000 $t
     /tmp/ccwIqr9G.s:690    .text.chSchDoReschedule:0000000000000000 chSchDoReschedule
     /tmp/ccwIqr9G.s:755    .text.chSchDoReschedule:0000000000000030 $d
     /tmp/ccwIqr9G.s:760    .text.chSchRescheduleS:0000000000000000 $t
     /tmp/ccwIqr9G.s:767    .text.chSchRescheduleS:0000000000000000 chSchRescheduleS
     /tmp/ccwIqr9G.s:797    .text.chSchDoRescheduleAhead:0000000000000000 $t
     /tmp/ccwIqr9G.s:804    .text.chSchDoRescheduleAhead:0000000000000000 chSchDoRescheduleAhead
     /tmp/ccwIqr9G.s:820    .bss.ch:0000000000000000 ch
     /tmp/ccwIqr9G.s:816    .bss.ch:0000000000000000 $d
                     .debug_frame:0000000000000010 $d

UNDEFINED SYMBOLS
_stats_start_measure_crit_isr
_stats_stop_measure_crit_isr
_stats_ctxswc
_port_switch
chVTDoSetI
chVTDoResetI
