ARM GAS  /tmp/ccsg7r3E.s 			page 1


   1              		.cpu cortex-m4
   2              		.eabi_attribute 27, 1
   3              		.eabi_attribute 28, 1
   4              		.eabi_attribute 20, 1
   5              		.eabi_attribute 21, 1
   6              		.eabi_attribute 23, 3
   7              		.eabi_attribute 24, 1
   8              		.eabi_attribute 25, 1
   9              		.eabi_attribute 26, 1
  10              		.eabi_attribute 30, 4
  11              		.eabi_attribute 34, 1
  12              		.eabi_attribute 18, 4
  13              		.file	"chstats.c"
  14              		.text
  15              	.Ltext0:
  16              		.cfi_sections	.debug_frame
  17              		.section	.text._stats_init,"ax",%progbits
  18              		.align	1
  19              		.global	_stats_init
  20              		.syntax unified
  21              		.thumb
  22              		.thumb_func
  23              		.fpu fpv4-sp-d16
  24              		.type	_stats_init, %function
  25              	_stats_init:
  26              	.LFB290:
  27              		.file 1 "../../modules/ChibiOS/os/rt/src/chstats.c"
  28              		.loc 1 62 0
  29              		.cfi_startproc
  30              		@ args = 0, pretend = 0, frame = 0
  31              		@ frame_needed = 0, uses_anonymous_args = 0
  32 0000 10B5     		push	{r4, lr}
  33              		.cfi_def_cfa_offset 8
  34              		.cfi_offset 4, -8
  35              		.cfi_offset 14, -4
  36              		.loc 1 64 0
  37 0002 084C     		ldr	r4, .L2
  38 0004 0023     		movs	r3, #0
  39              		.loc 1 66 0
  40 0006 04F1A000 		add	r0, r4, #160
  41              		.loc 1 64 0
  42 000a C4F89830 		str	r3, [r4, #152]
  43              		.loc 1 65 0
  44 000e C4F89C30 		str	r3, [r4, #156]
  45              		.loc 1 66 0
  46 0012 FFF7FEFF 		bl	chTMObjectInit
  47              	.LVL0:
  48              		.loc 1 67 0
  49 0016 04F1B800 		add	r0, r4, #184
  50              		.loc 1 68 0
  51 001a BDE81040 		pop	{r4, lr}
  52              		.cfi_restore 14
  53              		.cfi_restore 4
  54              		.cfi_def_cfa_offset 0
  55              		.loc 1 67 0
  56 001e FFF7FEBF 		b	chTMObjectInit
  57              	.LVL1:
ARM GAS  /tmp/ccsg7r3E.s 			page 2


  58              	.L3:
  59 0022 00BF     		.align	2
  60              	.L2:
  61 0024 00000000 		.word	ch
  62              		.cfi_endproc
  63              	.LFE290:
  64              		.size	_stats_init, .-_stats_init
  65              		.section	.text._stats_increase_irq,"ax",%progbits
  66              		.align	1
  67              		.global	_stats_increase_irq
  68              		.syntax unified
  69              		.thumb
  70              		.thumb_func
  71              		.fpu fpv4-sp-d16
  72              		.type	_stats_increase_irq, %function
  73              	_stats_increase_irq:
  74              	.LFB291:
  75              		.loc 1 73 0
  76              		.cfi_startproc
  77              		@ args = 0, pretend = 0, frame = 0
  78              		@ frame_needed = 0, uses_anonymous_args = 0
  79              		@ link register save eliminated.
  80              	.LVL2:
  81              	.LBB24:
  82              	.LBB25:
  83              	.LBB26:
  84              	.LBB27:
  85              		.file 2 "../../modules/ChibiOS/os/common/ext/ARM/CMSIS/Core/Include/cmsis_gcc.h"
  86              		.loc 2 493 0
  87 0000 2023     		movs	r3, #32
  88              		.syntax unified
  89              	@ 493 "../../modules/ChibiOS/os/common/ext/ARM/CMSIS/Core/Include/cmsis_gcc.h" 1
  90 0002 83F31188 		MSR basepri, r3
  91              	@ 0 "" 2
  92              	.LVL3:
  93              		.thumb
  94              		.syntax unified
  95              	.LBE27:
  96              	.LBE26:
  97              	.LBE25:
  98              	.LBE24:
  99              		.loc 1 76 0
 100 0006 054A     		ldr	r2, .L5
 101 0008 D2F89830 		ldr	r3, [r2, #152]
 102 000c 0133     		adds	r3, r3, #1
 103 000e C2F89830 		str	r3, [r2, #152]
 104              	.LVL4:
 105              	.LBB28:
 106              	.LBB29:
 107              	.LBB30:
 108              	.LBB31:
 109              		.loc 2 493 0
 110 0012 0023     		movs	r3, #0
 111              		.syntax unified
 112              	@ 493 "../../modules/ChibiOS/os/common/ext/ARM/CMSIS/Core/Include/cmsis_gcc.h" 1
 113 0014 83F31188 		MSR basepri, r3
 114              	@ 0 "" 2
ARM GAS  /tmp/ccsg7r3E.s 			page 3


 115              	.LVL5:
 116              		.thumb
 117              		.syntax unified
 118 0018 7047     		bx	lr
 119              	.L6:
 120 001a 00BF     		.align	2
 121              	.L5:
 122 001c 00000000 		.word	ch
 123              	.LBE31:
 124              	.LBE30:
 125              	.LBE29:
 126              	.LBE28:
 127              		.cfi_endproc
 128              	.LFE291:
 129              		.size	_stats_increase_irq, .-_stats_increase_irq
 130              		.section	.text._stats_ctxswc,"ax",%progbits
 131              		.align	1
 132              		.global	_stats_ctxswc
 133              		.syntax unified
 134              		.thumb
 135              		.thumb_func
 136              		.fpu fpv4-sp-d16
 137              		.type	_stats_ctxswc, %function
 138              	_stats_ctxswc:
 139              	.LFB292:
 140              		.loc 1 86 0
 141              		.cfi_startproc
 142              		@ args = 0, pretend = 0, frame = 0
 143              		@ frame_needed = 0, uses_anonymous_args = 0
 144              		@ link register save eliminated.
 145              	.LVL6:
 146              		.loc 1 88 0
 147 0000 064A     		ldr	r2, .L8
 148 0002 D2F89C30 		ldr	r3, [r2, #156]
 149 0006 0133     		adds	r3, r3, #1
 150 0008 C2F89C30 		str	r3, [r2, #156]
 151              		.loc 1 89 0
 152 000c 01F14803 		add	r3, r1, #72
 153 0010 00F14801 		add	r1, r0, #72
 154              	.LVL7:
 155 0014 1846     		mov	r0, r3
 156              	.LVL8:
 157 0016 FFF7FEBF 		b	chTMChainMeasurementToX
 158              	.LVL9:
 159              	.L9:
 160 001a 00BF     		.align	2
 161              	.L8:
 162 001c 00000000 		.word	ch
 163              		.cfi_endproc
 164              	.LFE292:
 165              		.size	_stats_ctxswc, .-_stats_ctxswc
 166              		.section	.text._stats_start_measure_crit_thd,"ax",%progbits
 167              		.align	1
 168              		.global	_stats_start_measure_crit_thd
 169              		.syntax unified
 170              		.thumb
 171              		.thumb_func
ARM GAS  /tmp/ccsg7r3E.s 			page 4


 172              		.fpu fpv4-sp-d16
 173              		.type	_stats_start_measure_crit_thd, %function
 174              	_stats_start_measure_crit_thd:
 175              	.LFB293:
 176              		.loc 1 95 0
 177              		.cfi_startproc
 178              		@ args = 0, pretend = 0, frame = 0
 179              		@ frame_needed = 0, uses_anonymous_args = 0
 180              		@ link register save eliminated.
 181              		.loc 1 97 0
 182 0000 0148     		ldr	r0, .L11
 183 0002 FFF7FEBF 		b	chTMStartMeasurementX
 184              	.LVL10:
 185              	.L12:
 186 0006 00BF     		.align	2
 187              	.L11:
 188 0008 A0000000 		.word	ch+160
 189              		.cfi_endproc
 190              	.LFE293:
 191              		.size	_stats_start_measure_crit_thd, .-_stats_start_measure_crit_thd
 192              		.section	.text._stats_stop_measure_crit_thd,"ax",%progbits
 193              		.align	1
 194              		.global	_stats_stop_measure_crit_thd
 195              		.syntax unified
 196              		.thumb
 197              		.thumb_func
 198              		.fpu fpv4-sp-d16
 199              		.type	_stats_stop_measure_crit_thd, %function
 200              	_stats_stop_measure_crit_thd:
 201              	.LFB294:
 202              		.loc 1 103 0
 203              		.cfi_startproc
 204              		@ args = 0, pretend = 0, frame = 0
 205              		@ frame_needed = 0, uses_anonymous_args = 0
 206              		@ link register save eliminated.
 207              		.loc 1 105 0
 208 0000 0148     		ldr	r0, .L14
 209 0002 FFF7FEBF 		b	chTMStopMeasurementX
 210              	.LVL11:
 211              	.L15:
 212 0006 00BF     		.align	2
 213              	.L14:
 214 0008 A0000000 		.word	ch+160
 215              		.cfi_endproc
 216              	.LFE294:
 217              		.size	_stats_stop_measure_crit_thd, .-_stats_stop_measure_crit_thd
 218              		.section	.text._stats_start_measure_crit_isr,"ax",%progbits
 219              		.align	1
 220              		.global	_stats_start_measure_crit_isr
 221              		.syntax unified
 222              		.thumb
 223              		.thumb_func
 224              		.fpu fpv4-sp-d16
 225              		.type	_stats_start_measure_crit_isr, %function
 226              	_stats_start_measure_crit_isr:
 227              	.LFB295:
 228              		.loc 1 111 0
ARM GAS  /tmp/ccsg7r3E.s 			page 5


 229              		.cfi_startproc
 230              		@ args = 0, pretend = 0, frame = 0
 231              		@ frame_needed = 0, uses_anonymous_args = 0
 232              		@ link register save eliminated.
 233              		.loc 1 113 0
 234 0000 0148     		ldr	r0, .L17
 235 0002 FFF7FEBF 		b	chTMStartMeasurementX
 236              	.LVL12:
 237              	.L18:
 238 0006 00BF     		.align	2
 239              	.L17:
 240 0008 B8000000 		.word	ch+184
 241              		.cfi_endproc
 242              	.LFE295:
 243              		.size	_stats_start_measure_crit_isr, .-_stats_start_measure_crit_isr
 244              		.section	.text._stats_stop_measure_crit_isr,"ax",%progbits
 245              		.align	1
 246              		.global	_stats_stop_measure_crit_isr
 247              		.syntax unified
 248              		.thumb
 249              		.thumb_func
 250              		.fpu fpv4-sp-d16
 251              		.type	_stats_stop_measure_crit_isr, %function
 252              	_stats_stop_measure_crit_isr:
 253              	.LFB296:
 254              		.loc 1 119 0
 255              		.cfi_startproc
 256              		@ args = 0, pretend = 0, frame = 0
 257              		@ frame_needed = 0, uses_anonymous_args = 0
 258              		@ link register save eliminated.
 259              		.loc 1 121 0
 260 0000 0148     		ldr	r0, .L20
 261 0002 FFF7FEBF 		b	chTMStopMeasurementX
 262              	.LVL13:
 263              	.L21:
 264 0006 00BF     		.align	2
 265              	.L20:
 266 0008 B8000000 		.word	ch+184
 267              		.cfi_endproc
 268              	.LFE296:
 269              		.size	_stats_stop_measure_crit_isr, .-_stats_stop_measure_crit_isr
 270              		.text
 271              	.Letext0:
 272              		.file 3 "/opt/gcc-arm-none-eabi-6-2017-q2-update/lib/gcc/arm-none-eabi/6.3.1/include/stddef.h"
 273              		.file 4 "/opt/gcc-arm-none-eabi-6-2017-q2-update/arm-none-eabi/include/machine/_default_types.h"
 274              		.file 5 "/opt/gcc-arm-none-eabi-6-2017-q2-update/arm-none-eabi/include/sys/_stdint.h"
 275              		.file 6 "../../modules/ChibiOS/os/common/ports/ARMCMx/compilers/GCC/chtypes.h"
 276              		.file 7 "../../modules/ChibiOS/os/rt/include/chsystypes.h"
 277              		.file 8 "../../modules/ChibiOS/os/rt/include/chschd.h"
 278              		.file 9 "../../modules/ChibiOS/os/rt/include/chtime.h"
 279              		.file 10 "../../modules/ChibiOS/os/common/ext/ARM/CMSIS/Core/Include/core_cm4.h"
 280              		.file 11 "../../modules/ChibiOS/os/common/ext/ST/STM32F4xx/system_stm32f4xx.h"
 281              		.file 12 "../../modules/ChibiOS/os/common/ports/ARMCMx/chcore.h"
 282              		.file 13 "../../modules/ChibiOS/os/common/ports/ARMCMx/chcore_v7m.h"
 283              		.file 14 "../../modules/ChibiOS/os/rt/include/chtm.h"
 284              		.file 15 "../../modules/ChibiOS/os/rt/include/chstats.h"
 285              		.file 16 "../../modules/ChibiOS/os/rt/include/chsem.h"
ARM GAS  /tmp/ccsg7r3E.s 			page 6


 286              		.file 17 "../../modules/ChibiOS/os/rt/include/chmtx.h"
 287              		.file 18 "../../modules/ChibiOS/os/rt/include/chsys.h"
 288              		.file 19 "../../modules/ChibiOS/os/rt/include/chregistry.h"
 289              		.file 20 "../../modules/ChibiOS/os/oslib/include/chmemcore.h"
 290              		.file 21 "../../modules/ChibiOS/os/oslib/include/chmempools.h"
 291              		.file 22 "../../modules/ChibiOS/os/oslib/include/chfactory.h"