ARM GAS  /tmp/ccyWADFQ.s 			page 1


   1              		.cpu cortex-m4
   2              		.eabi_attribute 27, 1
   3              		.eabi_attribute 28, 1
   4              		.eabi_attribute 20, 1
   5              		.eabi_attribute 21, 1
   6              		.eabi_attribute 23, 3
   7              		.eabi_attribute 24, 1
   8              		.eabi_attribute 25, 1
   9              		.eabi_attribute 26, 1
  10              		.eabi_attribute 30, 4
  11              		.eabi_attribute 34, 1
  12              		.eabi_attribute 18, 4
  13              		.file	"chthreads.c"
  14              		.text
  15              	.Ltext0:
  16              		.cfi_sections	.debug_frame
  17              		.section	.text.chSysLock,"ax",%progbits
  18              		.align	1
  19              		.syntax unified
  20              		.thumb
  21              		.thumb_func
  22              		.fpu fpv4-sp-d16
  23              		.type	chSysLock, %function
  24              	chSysLock:
  25              	.LFB184:
  26              		.file 1 "../../modules/ChibiOS/os/rt/include/chsys.h"
  27              		.loc 1 353 0
  28              		.cfi_startproc
  29              		@ args = 0, pretend = 0, frame = 0
  30              		@ frame_needed = 0, uses_anonymous_args = 0
  31              		@ link register save eliminated.
  32              	.LVL0:
  33              	.LBB74:
  34              	.LBB75:
  35              	.LBB76:
  36              		.file 2 "../../modules/ChibiOS/os/common/ext/ARM/CMSIS/Core/Include/cmsis_gcc.h"
  37              		.loc 2 493 0
  38 0000 2023     		movs	r3, #32
  39              		.syntax unified
  40              	@ 493 "../../modules/ChibiOS/os/common/ext/ARM/CMSIS/Core/Include/cmsis_gcc.h" 1
  41 0002 83F31188 		MSR basepri, r3
  42              	@ 0 "" 2
  43              	.LVL1:
  44              		.thumb
  45              		.syntax unified
  46              	.LBE76:
  47              	.LBE75:
  48              	.LBE74:
  49              		.loc 1 356 0
  50 0006 FFF7FEBF 		b	_stats_start_measure_crit_thd
  51              	.LVL2:
  52              		.cfi_endproc
  53              	.LFE184:
  54              		.size	chSysLock, .-chSysLock
  55              		.section	.text.chSysUnlock,"ax",%progbits
  56              		.align	1
  57              		.syntax unified
ARM GAS  /tmp/ccyWADFQ.s 			page 2


  58              		.thumb
  59              		.thumb_func
  60              		.fpu fpv4-sp-d16
  61              		.type	chSysUnlock, %function
  62              	chSysUnlock:
  63              	.LFB185:
  64              		.loc 1 365 0
  65              		.cfi_startproc
  66              		@ args = 0, pretend = 0, frame = 0
  67              		@ frame_needed = 0, uses_anonymous_args = 0
  68 0000 08B5     		push	{r3, lr}
  69              		.cfi_def_cfa_offset 8
  70              		.cfi_offset 3, -8
  71              		.cfi_offset 14, -4
  72              		.loc 1 368 0
  73 0002 FFF7FEFF 		bl	_stats_stop_measure_crit_thd
  74              	.LVL3:
  75              	.LBB77:
  76              	.LBB78:
  77              	.LBB79:
  78              		.loc 2 493 0
  79 0006 0023     		movs	r3, #0
  80              		.syntax unified
  81              	@ 493 "../../modules/ChibiOS/os/common/ext/ARM/CMSIS/Core/Include/cmsis_gcc.h" 1
  82 0008 83F31188 		MSR basepri, r3
  83              	@ 0 "" 2
  84              	.LVL4:
  85              		.thumb
  86              		.syntax unified
  87 000c 08BD     		pop	{r3, pc}
  88              	.LBE79:
  89              	.LBE78:
  90              	.LBE77:
  91              		.cfi_endproc
  92              	.LFE185:
  93              		.size	chSysUnlock, .-chSysUnlock
  94              		.section	.text._thread_init,"ax",%progbits
  95              		.align	1
  96              		.global	_thread_init
  97              		.syntax unified
  98              		.thumb
  99              		.thumb_func
 100              		.fpu fpv4-sp-d16
 101              		.type	_thread_init, %function
 102              	_thread_init:
 103              	.LFB290:
 104              		.file 3 "../../modules/ChibiOS/os/rt/src/chthreads.c"
 105              		.loc 3 88 0
 106              		.cfi_startproc
 107              		@ args = 0, pretend = 0, frame = 0
 108              		@ frame_needed = 0, uses_anonymous_args = 0
 109              	.LVL5:
 110              		.loc 3 91 0
 111 0000 0223     		movs	r3, #2
 112              		.loc 3 88 0
 113 0002 10B5     		push	{r4, lr}
 114              		.cfi_def_cfa_offset 8
ARM GAS  /tmp/ccyWADFQ.s 			page 3


 115              		.cfi_offset 4, -8
 116              		.cfi_offset 14, -4
 117              		.loc 3 91 0
 118 0004 80F82030 		strb	r3, [r0, #32]
 119              		.loc 3 92 0
 120 0008 0023     		movs	r3, #0
 121 000a 80F82130 		strb	r3, [r0, #33]
 122              		.loc 3 98 0
 123 000e 8363     		str	r3, [r0, #56]
 124              		.loc 3 101 0
 125 0010 4363     		str	r3, [r0, #52]
 126              		.loc 3 107 0
 127 0012 0123     		movs	r3, #1
 128 0014 80F82230 		strb	r3, [r0, #34]
 129              		.loc 3 109 0
 130 0018 0A4B     		ldr	r3, .L4
 131              		.loc 3 90 0
 132 001a 8260     		str	r2, [r0, #8]
 133              		.loc 3 97 0
 134 001c C263     		str	r2, [r0, #60]
 135              		.loc 3 109 0
 136 001e 5A69     		ldr	r2, [r3, #20]
 137              	.LVL6:
 138 0020 0361     		str	r3, [r0, #16]
 139 0022 4261     		str	r2, [r0, #20]
 140              		.loc 3 108 0
 141 0024 8161     		str	r1, [r0, #24]
 142              		.loc 3 109 0
 143 0026 1061     		str	r0, [r2, #16]
 144 0028 5861     		str	r0, [r3, #20]
 145              	.LVL7:
 146              		.loc 3 114 0
 147 002a 00F12803 		add	r3, r0, #40
 148              	.LVL8:
 149              	.LBB80:
 150              	.LBB81:
 151              		.file 4 "../../modules/ChibiOS/os/rt/include/chschd.h"
 152              		.loc 4 501 0
 153 002e 8362     		str	r3, [r0, #40]
 154              	.LVL9:
 155              	.LBE81:
 156              	.LBE80:
 157              		.loc 3 117 0
 158 0030 00F12C03 		add	r3, r0, #44
 159              	.LVL10:
 160              	.LBB82:
 161              	.LBB83:
 162              		.loc 4 539 0
 163 0034 C362     		str	r3, [r0, #44]
 164              		.loc 4 540 0
 165 0036 0363     		str	r3, [r0, #48]
 166              	.LVL11:
 167              	.LBE83:
 168              	.LBE82:
 169              		.loc 3 88 0
 170 0038 0446     		mov	r4, r0
 171              		.loc 3 120 0
ARM GAS  /tmp/ccyWADFQ.s 			page 4


 172 003a 4830     		adds	r0, r0, #72
 173              	.LVL12:
 174 003c FFF7FEFF 		bl	chTMObjectInit
 175              	.LVL13:
 176              		.loc 3 124 0
 177 0040 2046     		mov	r0, r4
 178 0042 10BD     		pop	{r4, pc}
 179              	.LVL14:
 180              	.L5:
 181              		.align	2
 182              	.L4:
 183 0044 00000000 		.word	ch
 184              		.cfi_endproc
 185              	.LFE290:
 186              		.size	_thread_init, .-_thread_init
 187              		.section	.text._thread_memfill,"ax",%progbits
 188              		.align	1
 189              		.global	_thread_memfill
 190              		.syntax unified
 191              		.thumb
 192              		.thumb_func
 193              		.fpu fpv4-sp-d16
 194              		.type	_thread_memfill, %function
 195              	_thread_memfill:
 196              	.LFB291:
 197              		.loc 3 136 0
 198              		.cfi_startproc
 199              		@ args = 0, pretend = 0, frame = 0
 200              		@ frame_needed = 0, uses_anonymous_args = 0
 201              		@ link register save eliminated.
 202              	.LVL15:
 203              	.L7:
 204              		.loc 3 138 0
 205 0000 8842     		cmp	r0, r1
 206 0002 00D3     		bcc	.L8
 207              		.loc 3 141 0
 208 0004 7047     		bx	lr
 209              	.L8:
 210              		.loc 3 139 0
 211 0006 00F8012B 		strb	r2, [r0], #1
 212              	.LVL16:
 213 000a F9E7     		b	.L7
 214              		.cfi_endproc
 215              	.LFE291:
 216              		.size	_thread_memfill, .-_thread_memfill
 217              		.section	.text.chThdCreateSuspendedI,"ax",%progbits
 218              		.align	1
 219              		.global	chThdCreateSuspendedI
 220              		.syntax unified
 221              		.thumb
 222              		.thumb_func
 223              		.fpu fpv4-sp-d16
 224              		.type	chThdCreateSuspendedI, %function
 225              	chThdCreateSuspendedI:
 226              	.LFB292:
 227              		.loc 3 167 0
 228              		.cfi_startproc
ARM GAS  /tmp/ccyWADFQ.s 			page 5


 229              		@ args = 0, pretend = 0, frame = 0
 230              		@ frame_needed = 0, uses_anonymous_args = 0
 231              		@ link register save eliminated.
 232              	.LVL17:
 233              		.loc 3 181 0
 234 0000 8368     		ldr	r3, [r0, #8]
 235              	.LVL18:
 236              		.loc 3 186 0
 237 0002 4268     		ldr	r2, [r0, #4]
 238 0004 43F8442C 		str	r2, [r3, #-68]
 239              		.loc 3 190 0
 240 0008 A3F1C402 		sub	r2, r3, #196
 241 000c 43F8542C 		str	r2, [r3, #-84]
 242 0010 0269     		ldr	r2, [r0, #16]
 243 0012 43F8842C 		str	r2, [r3, #-132]
 244 0016 4269     		ldr	r2, [r0, #20]
 245 0018 43F8802C 		str	r2, [r3, #-128]
 246 001c 044A     		ldr	r2, .L10
 247 001e 43F8642C 		str	r2, [r3, #-100]
 248              		.loc 3 193 0
 249 0022 0168     		ldr	r1, [r0]
 250 0024 C268     		ldr	r2, [r0, #12]
 251 0026 A3F16000 		sub	r0, r3, #96
 252              	.LVL19:
 253 002a FFF7FEBF 		b	_thread_init
 254              	.LVL20:
 255              	.L11:
 256 002e 00BF     		.align	2
 257              	.L10:
 258 0030 00000000 		.word	_port_thread_start
 259              		.cfi_endproc
 260              	.LFE292:
 261              		.size	chThdCreateSuspendedI, .-chThdCreateSuspendedI
 262              		.section	.text.chThdCreateSuspended,"ax",%progbits
 263              		.align	1
 264              		.global	chThdCreateSuspended
 265              		.syntax unified
 266              		.thumb
 267              		.thumb_func
 268              		.fpu fpv4-sp-d16
 269              		.type	chThdCreateSuspended, %function
 270              	chThdCreateSuspended:
 271              	.LFB293:
 272              		.loc 3 216 0
 273              		.cfi_startproc
 274              		@ args = 0, pretend = 0, frame = 0
 275              		@ frame_needed = 0, uses_anonymous_args = 0
 276              	.LVL21:
 277              		.loc 3 226 0
 278 0000 8268     		ldr	r2, [r0, #8]
 279              	.LVL22:
 280 0002 4368     		ldr	r3, [r0, #4]
 281              		.loc 3 216 0
 282 0004 10B5     		push	{r4, lr}
 283              		.cfi_def_cfa_offset 8
 284              		.cfi_offset 4, -8
 285              		.cfi_offset 14, -4
ARM GAS  /tmp/ccyWADFQ.s 			page 6


 286              	.LBB84:
 287              	.LBB85:
 288              		.loc 3 139 0
 289 0006 5521     		movs	r1, #85
 290              	.LBE85:
 291              	.LBE84:
 292              		.loc 3 216 0
 293 0008 0446     		mov	r4, r0
 294              	.LVL23:
 295              	.L13:
 296              	.LBB88:
 297              	.LBB86:
 298              		.loc 3 138 0
 299 000a 9A42     		cmp	r2, r3
 300 000c 09D8     		bhi	.L14
 301              	.LVL24:
 302              	.LBE86:
 303              	.LBE88:
 304              		.loc 3 230 0
 305 000e FFF7FEFF 		bl	chSysLock
 306              	.LVL25:
 307              		.loc 3 231 0
 308 0012 2046     		mov	r0, r4
 309 0014 FFF7FEFF 		bl	chThdCreateSuspendedI
 310              	.LVL26:
 311 0018 0446     		mov	r4, r0
 312              	.LVL27:
 313              		.loc 3 232 0
 314 001a FFF7FEFF 		bl	chSysUnlock
 315              	.LVL28:
 316              		.loc 3 235 0
 317 001e 2046     		mov	r0, r4
 318 0020 10BD     		pop	{r4, pc}
 319              	.LVL29:
 320              	.L14:
 321              	.LBB89:
 322              	.LBB87:
 323              		.loc 3 139 0
 324 0022 03F8011B 		strb	r1, [r3], #1
 325              	.LVL30:
 326 0026 F0E7     		b	.L13
 327              	.LBE87:
 328              	.LBE89:
 329              		.cfi_endproc
 330              	.LFE293:
 331              		.size	chThdCreateSuspended, .-chThdCreateSuspended
 332              		.section	.text.chThdCreateI,"ax",%progbits
 333              		.align	1
 334              		.global	chThdCreateI
 335              		.syntax unified
 336              		.thumb
 337              		.thumb_func
 338              		.fpu fpv4-sp-d16
 339              		.type	chThdCreateI, %function
 340              	chThdCreateI:
 341              	.LFB294:
 342              		.loc 3 259 0
ARM GAS  /tmp/ccyWADFQ.s 			page 7


 343              		.cfi_startproc
 344              		@ args = 0, pretend = 0, frame = 0
 345              		@ frame_needed = 0, uses_anonymous_args = 0
 346              	.LVL31:
 347 0000 08B5     		push	{r3, lr}
 348              		.cfi_def_cfa_offset 8
 349              		.cfi_offset 3, -8
 350              		.cfi_offset 14, -4
 351              		.loc 3 261 0
 352 0002 FFF7FEFF 		bl	chThdCreateSuspendedI
 353              	.LVL32:
 354              		.loc 3 262 0
 355 0006 BDE80840 		pop	{r3, lr}
 356              		.cfi_restore 14
 357              		.cfi_restore 3
 358              		.cfi_def_cfa_offset 0
 359              		.loc 3 261 0
 360 000a FFF7FEBF 		b	chSchReadyI
 361              	.LVL33:
 362              		.cfi_endproc
 363              	.LFE294:
 364              		.size	chThdCreateI, .-chThdCreateI
 365              		.section	.text.chThdCreate,"ax",%progbits
 366              		.align	1
 367              		.global	chThdCreate
 368              		.syntax unified
 369              		.thumb
 370              		.thumb_func
 371              		.fpu fpv4-sp-d16
 372              		.type	chThdCreate, %function
 373              	chThdCreate:
 374              	.LFB295:
 375              		.loc 3 280 0
 376              		.cfi_startproc
 377              		@ args = 0, pretend = 0, frame = 0
 378              		@ frame_needed = 0, uses_anonymous_args = 0
 379              	.LVL34:
 380              		.loc 3 291 0
 381 0000 8268     		ldr	r2, [r0, #8]
 382              	.LVL35:
 383 0002 4368     		ldr	r3, [r0, #4]
 384              		.loc 3 280 0
 385 0004 10B5     		push	{r4, lr}
 386              		.cfi_def_cfa_offset 8
 387              		.cfi_offset 4, -8
 388              		.cfi_offset 14, -4
 389              	.LBB90:
 390              	.LBB91:
 391              		.loc 3 139 0
 392 0006 5521     		movs	r1, #85
 393              	.LBE91:
 394              	.LBE90:
 395              		.loc 3 280 0
 396 0008 0446     		mov	r4, r0
 397              	.LVL36:
 398              	.L17:
 399              	.LBB94:
ARM GAS  /tmp/ccyWADFQ.s 			page 8


 400              	.LBB92:
 401              		.loc 3 138 0
 402 000a 9A42     		cmp	r2, r3
 403 000c 0CD8     		bhi	.L18
 404              	.LVL37:
 405              	.LBE92:
 406              	.LBE94:
 407              		.loc 3 295 0
 408 000e FFF7FEFF 		bl	chSysLock
 409              	.LVL38:
 410              		.loc 3 296 0
 411 0012 2046     		mov	r0, r4
 412 0014 FFF7FEFF 		bl	chThdCreateSuspendedI
 413              	.LVL39:
 414              		.loc 3 297 0
 415 0018 0021     		movs	r1, #0
 416              		.loc 3 296 0
 417 001a 0446     		mov	r4, r0
 418              	.LVL40:
 419              		.loc 3 297 0
 420 001c FFF7FEFF 		bl	chSchWakeupS
 421              	.LVL41:
 422              		.loc 3 298 0
 423 0020 FFF7FEFF 		bl	chSysUnlock
 424              	.LVL42:
 425              		.loc 3 301 0
 426 0024 2046     		mov	r0, r4
 427 0026 10BD     		pop	{r4, pc}
 428              	.LVL43:
 429              	.L18:
 430              	.LBB95:
 431              	.LBB93:
 432              		.loc 3 139 0
 433 0028 03F8011B 		strb	r1, [r3], #1
 434              	.LVL44:
 435 002c EDE7     		b	.L17
 436              	.LBE93:
 437              	.LBE95:
 438              		.cfi_endproc
 439              	.LFE295:
 440              		.size	chThdCreate, .-chThdCreate
 441              		.section	.text.chThdCreateStatic,"ax",%progbits
 442              		.align	1
 443              		.global	chThdCreateStatic
 444              		.syntax unified
 445              		.thumb
 446              		.thumb_func
 447              		.fpu fpv4-sp-d16
 448              		.type	chThdCreateStatic, %function
 449              	chThdCreateStatic:
 450              	.LFB296:
 451              		.loc 3 324 0
 452              		.cfi_startproc
 453              		@ args = 4, pretend = 0, frame = 0
 454              		@ frame_needed = 0, uses_anonymous_args = 0
 455              	.LVL45:
 456 0000 F8B5     		push	{r3, r4, r5, r6, r7, lr}
ARM GAS  /tmp/ccyWADFQ.s 			page 9


 457              		.cfi_def_cfa_offset 24
 458              		.cfi_offset 3, -24
 459              		.cfi_offset 4, -20
 460              		.cfi_offset 5, -16
 461              		.cfi_offset 6, -12
 462              		.cfi_offset 7, -8
 463              		.cfi_offset 14, -4
 464              		.loc 3 324 0
 465 0002 0C46     		mov	r4, r1
 466 0004 1646     		mov	r6, r2
 467 0006 1F46     		mov	r7, r3
 468 0008 0546     		mov	r5, r0
 469              		.loc 3 340 0
 470 000a 4318     		adds	r3, r0, r1
 471              	.LVL46:
 472              	.LBB96:
 473              	.LBB97:
 474              		.loc 3 139 0
 475 000c 5522     		movs	r2, #85
 476              	.LVL47:
 477              	.LBE97:
 478              	.LBE96:
 479              		.loc 3 340 0
 480 000e 0146     		mov	r1, r0
 481              	.LVL48:
 482              	.L20:
 483              	.LBB100:
 484              	.LBB98:
 485              		.loc 3 138 0
 486 0010 8B42     		cmp	r3, r1
 487 0012 1BD8     		bhi	.L21
 488              	.LVL49:
 489              	.LBE98:
 490              	.LBE100:
 491              		.loc 3 350 0
 492 0014 603C     		subs	r4, r4, #96
 493              	.LVL50:
 494              		.loc 3 345 0
 495 0016 FFF7FEFF 		bl	chSysLock
 496              	.LVL51:
 497              		.loc 3 350 0
 498 001a 2819     		adds	r0, r5, r4
 499              	.LVL52:
 500              		.loc 3 359 0
 501 001c A0F16403 		sub	r3, r0, #100
 502 0020 C360     		str	r3, [r0, #12]
 503 0022 069B     		ldr	r3, [sp, #24]
 504 0024 40F8203C 		str	r3, [r0, #-32]
 505 0028 0A4B     		ldr	r3, .L22
 506 002a 40F8043C 		str	r3, [r0, #-4]
 507              		.loc 3 361 0
 508 002e 3246     		mov	r2, r6
 509              		.loc 3 355 0
 510 0030 C561     		str	r5, [r0, #28]
 511              		.loc 3 359 0
 512 0032 40F8247C 		str	r7, [r0, #-36]
 513              		.loc 3 361 0
ARM GAS  /tmp/ccyWADFQ.s 			page 10


 514 0036 0849     		ldr	r1, .L22+4
 515 0038 FFF7FEFF 		bl	_thread_init
 516              	.LVL53:
 517              		.loc 3 364 0
 518 003c 0021     		movs	r1, #0
 519              		.loc 3 361 0
 520 003e 0446     		mov	r4, r0
 521              	.LVL54:
 522              		.loc 3 364 0
 523 0040 FFF7FEFF 		bl	chSchWakeupS
 524              	.LVL55:
 525              		.loc 3 365 0
 526 0044 FFF7FEFF 		bl	chSysUnlock
 527              	.LVL56:
 528              		.loc 3 368 0
 529 0048 2046     		mov	r0, r4
 530 004a F8BD     		pop	{r3, r4, r5, r6, r7, pc}
 531              	.LVL57:
 532              	.L21:
 533              	.LBB101:
 534              	.LBB99:
 535              		.loc 3 139 0
 536 004c 01F8012B 		strb	r2, [r1], #1
 537              	.LVL58:
 538 0050 DEE7     		b	.L20
 539              	.L23:
 540 0052 00BF     		.align	2
 541              	.L22:
 542 0054 00000000 		.word	_port_thread_start
 543 0058 00000000 		.word	.LC0
 544              	.LBE99:
 545              	.LBE101:
 546              		.cfi_endproc
 547              	.LFE296:
 548              		.size	chThdCreateStatic, .-chThdCreateStatic
 549              		.section	.text.chThdStart,"ax",%progbits
 550              		.align	1
 551              		.global	chThdStart
 552              		.syntax unified
 553              		.thumb
 554              		.thumb_func
 555              		.fpu fpv4-sp-d16
 556              		.type	chThdStart, %function
 557              	chThdStart:
 558              	.LFB297:
 559              		.loc 3 379 0
 560              		.cfi_startproc
 561              		@ args = 0, pretend = 0, frame = 0
 562              		@ frame_needed = 0, uses_anonymous_args = 0
 563              	.LVL59:
 564 0000 10B5     		push	{r4, lr}
 565              		.cfi_def_cfa_offset 8
 566              		.cfi_offset 4, -8
 567              		.cfi_offset 14, -4
 568              		.loc 3 379 0
 569 0002 0446     		mov	r4, r0
 570              		.loc 3 381 0
ARM GAS  /tmp/ccyWADFQ.s 			page 11


 571 0004 FFF7FEFF 		bl	chSysLock
 572              	.LVL60:
 573              		.loc 3 383 0
 574 0008 2046     		mov	r0, r4
 575 000a 0021     		movs	r1, #0
 576 000c FFF7FEFF 		bl	chSchWakeupS
 577              	.LVL61:
 578              		.loc 3 384 0
 579 0010 FFF7FEFF 		bl	chSysUnlock
 580              	.LVL62:
 581              		.loc 3 387 0
 582 0014 2046     		mov	r0, r4
 583 0016 10BD     		pop	{r4, pc}
 584              		.cfi_endproc
 585              	.LFE297:
 586              		.size	chThdStart, .-chThdStart
 587              		.section	.text.chThdAddRef,"ax",%progbits
 588              		.align	1
 589              		.global	chThdAddRef
 590              		.syntax unified
 591              		.thumb
 592              		.thumb_func
 593              		.fpu fpv4-sp-d16
 594              		.type	chThdAddRef, %function
 595              	chThdAddRef:
 596              	.LFB298:
 597              		.loc 3 401 0
 598              		.cfi_startproc
 599              		@ args = 0, pretend = 0, frame = 0
 600              		@ frame_needed = 0, uses_anonymous_args = 0
 601              	.LVL63:
 602 0000 10B5     		push	{r4, lr}
 603              		.cfi_def_cfa_offset 8
 604              		.cfi_offset 4, -8
 605              		.cfi_offset 14, -4
 606              		.loc 3 401 0
 607 0002 0446     		mov	r4, r0
 608              		.loc 3 403 0
 609 0004 FFF7FEFF 		bl	chSysLock
 610              	.LVL64:
 611              		.loc 3 405 0
 612 0008 94F82230 		ldrb	r3, [r4, #34]	@ zero_extendqisi2
 613 000c 0133     		adds	r3, r3, #1
 614 000e 84F82230 		strb	r3, [r4, #34]
 615              		.loc 3 406 0
 616 0012 FFF7FEFF 		bl	chSysUnlock
 617              	.LVL65:
 618              		.loc 3 409 0
 619 0016 2046     		mov	r0, r4
 620 0018 10BD     		pop	{r4, pc}
 621              		.cfi_endproc
 622              	.LFE298:
 623              		.size	chThdAddRef, .-chThdAddRef
 624              		.section	.text.chThdRelease,"ax",%progbits
 625              		.align	1
 626              		.global	chThdRelease
 627              		.syntax unified
ARM GAS  /tmp/ccyWADFQ.s 			page 12


 628              		.thumb
 629              		.thumb_func
 630              		.fpu fpv4-sp-d16
 631              		.type	chThdRelease, %function
 632              	chThdRelease:
 633              	.LFB299:
 634              		.loc 3 427 0
 635              		.cfi_startproc
 636              		@ args = 0, pretend = 0, frame = 0
 637              		@ frame_needed = 0, uses_anonymous_args = 0
 638              	.LVL66:
 639 0000 10B5     		push	{r4, lr}
 640              		.cfi_def_cfa_offset 8
 641              		.cfi_offset 4, -8
 642              		.cfi_offset 14, -4
 643              		.loc 3 427 0
 644 0002 0446     		mov	r4, r0
 645              		.loc 3 429 0
 646 0004 FFF7FEFF 		bl	chSysLock
 647              	.LVL67:
 648              		.loc 3 431 0
 649 0008 94F82230 		ldrb	r3, [r4, #34]	@ zero_extendqisi2
 650 000c 013B     		subs	r3, r3, #1
 651 000e 84F82230 		strb	r3, [r4, #34]
 652              		.loc 3 436 0
 653 0012 236A     		ldr	r3, [r4, #32]
 654 0014 03F0FF13 		and	r3, r3, #16711935
 655 0018 0F2B     		cmp	r3, #15
 656 001a 1AD1     		bne	.L27
 657              		.loc 3 437 0
 658 001c 6369     		ldr	r3, [r4, #20]
 659 001e 2269     		ldr	r2, [r4, #16]
 660 0020 1A61     		str	r2, [r3, #16]
 661 0022 2269     		ldr	r2, [r4, #16]
 662 0024 5361     		str	r3, [r2, #20]
 663              		.loc 3 438 0
 664 0026 FFF7FEFF 		bl	chSysUnlock
 665              	.LVL68:
 666              		.loc 3 441 0
 667 002a 94F82130 		ldrb	r3, [r4, #33]	@ zero_extendqisi2
 668 002e 03F00303 		and	r3, r3, #3
 669 0032 012B     		cmp	r3, #1
 670 0034 02D0     		beq	.L29
 671 0036 022B     		cmp	r3, #2
 672 0038 05D0     		beq	.L30
 673 003a 10BD     		pop	{r4, pc}
 674              	.LVL69:
 675              	.L29:
 676              		.loc 3 444 0
 677 003c E069     		ldr	r0, [r4, #28]
 678              		.loc 3 460 0
 679 003e BDE81040 		pop	{r4, lr}
 680              		.cfi_remember_state
 681              		.cfi_restore 14
 682              		.cfi_restore 4
 683              		.cfi_def_cfa_offset 0
 684              	.LVL70:
ARM GAS  /tmp/ccyWADFQ.s 			page 13


 685              		.loc 3 444 0
 686 0042 FFF7FEBF 		b	chHeapFree
 687              	.LVL71:
 688              	.L30:
 689              		.cfi_restore_state
 690              	.LBB108:
 691              	.LBB109:
 692              		.loc 3 449 0
 693 0046 E169     		ldr	r1, [r4, #28]
 694 0048 206C     		ldr	r0, [r4, #64]
 695              	.LBE109:
 696              	.LBE108:
 697              		.loc 3 460 0
 698 004a BDE81040 		pop	{r4, lr}
 699              		.cfi_remember_state
 700              		.cfi_restore 14
 701              		.cfi_restore 4
 702              		.cfi_def_cfa_offset 0
 703              	.LVL72:
 704              	.LBB111:
 705              	.LBB110:
 706              		.loc 3 449 0
 707 004e FFF7FEBF 		b	chPoolFree
 708              	.LVL73:
 709              	.L27:
 710              		.cfi_restore_state
 711              	.LBE110:
 712              	.LBE111:
 713              		.loc 3 460 0
 714 0052 BDE81040 		pop	{r4, lr}
 715              		.cfi_restore 14
 716              		.cfi_restore 4
 717              		.cfi_def_cfa_offset 0
 718              	.LVL74:
 719              		.loc 3 459 0
 720 0056 FFF7FEBF 		b	chSysUnlock
 721              	.LVL75:
 722              		.cfi_endproc
 723              	.LFE299:
 724              		.size	chThdRelease, .-chThdRelease
 725              		.section	.text.chThdExitS,"ax",%progbits
 726              		.align	1
 727              		.global	chThdExitS
 728              		.syntax unified
 729              		.thumb
 730              		.thumb_func
 731              		.fpu fpv4-sp-d16
 732              		.type	chThdExitS, %function
 733              	chThdExitS:
 734              	.LFB301:
 735              		.loc 3 501 0
 736              		.cfi_startproc
 737              		@ args = 0, pretend = 0, frame = 0
 738              		@ frame_needed = 0, uses_anonymous_args = 0
 739              	.LVL76:
 740 0000 38B5     		push	{r3, r4, r5, lr}
 741              		.cfi_def_cfa_offset 16
ARM GAS  /tmp/ccyWADFQ.s 			page 14


 742              		.cfi_offset 3, -16
 743              		.cfi_offset 4, -12
 744              		.cfi_offset 5, -8
 745              		.cfi_offset 14, -4
 746              		.loc 3 502 0
 747 0002 0F4B     		ldr	r3, .L36
 748 0004 9C69     		ldr	r4, [r3, #24]
 749              	.LVL77:
 750              		.loc 3 505 0
 751 0006 6062     		str	r0, [r4, #36]
 752              		.loc 3 512 0
 753 0008 04F12805 		add	r5, r4, #40
 754              	.LVL78:
 755              	.L33:
 756              	.LBB112:
 757              	.LBB113:
 758              		.loc 4 527 0
 759 000c A06A     		ldr	r0, [r4, #40]
 760              	.LVL79:
 761              	.LBE113:
 762              	.LBE112:
 763              		.loc 3 512 0
 764 000e A842     		cmp	r0, r5
 765 0010 10D1     		bne	.L34
 766              		.loc 3 521 0
 767 0012 94F82230 		ldrb	r3, [r4, #34]	@ zero_extendqisi2
 768 0016 43B9     		cbnz	r3, .L35
 769              		.loc 3 521 0 is_stmt 0 discriminator 1
 770 0018 94F82130 		ldrb	r3, [r4, #33]	@ zero_extendqisi2
 771 001c 9B07     		lsls	r3, r3, #30
 772 001e 04D1     		bne	.L35
 773              		.loc 3 523 0 is_stmt 1
 774 0020 6369     		ldr	r3, [r4, #20]
 775 0022 2269     		ldr	r2, [r4, #16]
 776 0024 1A61     		str	r2, [r3, #16]
 777 0026 2269     		ldr	r2, [r4, #16]
 778 0028 5361     		str	r3, [r2, #20]
 779              	.L35:
 780              		.loc 3 533 0
 781 002a 0F20     		movs	r0, #15
 782              		.loc 3 537 0
 783 002c BDE83840 		pop	{r3, r4, r5, lr}
 784              		.cfi_remember_state
 785              		.cfi_restore 14
 786              		.cfi_restore 5
 787              		.cfi_restore 4
 788              		.cfi_restore 3
 789              		.cfi_def_cfa_offset 0
 790              	.LVL80:
 791              		.loc 3 533 0
 792 0030 FFF7FEBF 		b	chSchGoSleepS
 793              	.LVL81:
 794              	.L34:
 795              		.cfi_restore_state
 796              	.LBB114:
 797              	.LBB115:
 798              		.loc 4 581 0
ARM GAS  /tmp/ccyWADFQ.s 			page 15


 799 0034 0368     		ldr	r3, [r0]
 800 0036 A362     		str	r3, [r4, #40]
 801              	.LVL82:
 802              	.LBE115:
 803              	.LBE114:
 804              		.loc 3 513 0
 805 0038 FFF7FEFF 		bl	chSchReadyI
 806              	.LVL83:
 807 003c E6E7     		b	.L33
 808              	.L37:
 809 003e 00BF     		.align	2
 810              	.L36:
 811 0040 00000000 		.word	ch
 812              		.cfi_endproc
 813              	.LFE301:
 814              		.size	chThdExitS, .-chThdExitS
 815              		.section	.text.chThdExit,"ax",%progbits
 816              		.align	1
 817              		.global	chThdExit
 818              		.syntax unified
 819              		.thumb
 820              		.thumb_func
 821              		.fpu fpv4-sp-d16
 822              		.type	chThdExit, %function
 823              	chThdExit:
 824              	.LFB300:
 825              		.loc 3 477 0
 826              		.cfi_startproc
 827              		@ args = 0, pretend = 0, frame = 0
 828              		@ frame_needed = 0, uses_anonymous_args = 0
 829              	.LVL84:
 830 0000 10B5     		push	{r4, lr}
 831              		.cfi_def_cfa_offset 8
 832              		.cfi_offset 4, -8
 833              		.cfi_offset 14, -4
 834              		.loc 3 477 0
 835 0002 0446     		mov	r4, r0
 836              		.loc 3 479 0
 837 0004 FFF7FEFF 		bl	chSysLock
 838              	.LVL85:
 839              		.loc 3 480 0
 840 0008 2046     		mov	r0, r4
 841              		.loc 3 482 0
 842 000a BDE81040 		pop	{r4, lr}
 843              		.cfi_restore 14
 844              		.cfi_restore 4
 845              		.cfi_def_cfa_offset 0
 846              	.LVL86:
 847              		.loc 3 480 0
 848 000e FFF7FEBF 		b	chThdExitS
 849              	.LVL87:
 850              		.cfi_endproc
 851              	.LFE300:
 852              		.size	chThdExit, .-chThdExit
 853              		.section	.text.chThdWait,"ax",%progbits
 854              		.align	1
 855              		.global	chThdWait
ARM GAS  /tmp/ccyWADFQ.s 			page 16


 856              		.syntax unified
 857              		.thumb
 858              		.thumb_func
 859              		.fpu fpv4-sp-d16
 860              		.type	chThdWait, %function
 861              	chThdWait:
 862              	.LFB302:
 863              		.loc 3 559 0
 864              		.cfi_startproc
 865              		@ args = 0, pretend = 0, frame = 0
 866              		@ frame_needed = 0, uses_anonymous_args = 0
 867              	.LVL88:
 868 0000 38B5     		push	{r3, r4, r5, lr}
 869              		.cfi_def_cfa_offset 16
 870              		.cfi_offset 3, -16
 871              		.cfi_offset 4, -12
 872              		.cfi_offset 5, -8
 873              		.cfi_offset 14, -4
 874              		.loc 3 559 0
 875 0002 0446     		mov	r4, r0
 876              		.loc 3 564 0
 877 0004 FFF7FEFF 		bl	chSysLock
 878              	.LVL89:
 879              		.loc 3 570 0
 880 0008 94F82030 		ldrb	r3, [r4, #32]	@ zero_extendqisi2
 881 000c 0F2B     		cmp	r3, #15
 882 000e 07D0     		beq	.L40
 883              		.loc 3 571 0
 884 0010 074B     		ldr	r3, .L44
 885              	.LBB116:
 886              	.LBB117:
 887              		.loc 4 574 0
 888 0012 A26A     		ldr	r2, [r4, #40]
 889              	.LBE117:
 890              	.LBE116:
 891              		.loc 3 571 0
 892 0014 9B69     		ldr	r3, [r3, #24]
 893              	.LVL90:
 894              		.loc 3 572 0
 895 0016 0920     		movs	r0, #9
 896              	.LBB119:
 897              	.LBB118:
 898              		.loc 4 574 0
 899 0018 1A60     		str	r2, [r3]
 900              		.loc 4 575 0
 901 001a A362     		str	r3, [r4, #40]
 902              	.LVL91:
 903              	.LBE118:
 904              	.LBE119:
 905              		.loc 3 572 0
 906 001c FFF7FEFF 		bl	chSchGoSleepS
 907              	.LVL92:
 908              	.L40:
 909              		.loc 3 574 0
 910 0020 656A     		ldr	r5, [r4, #36]
 911              	.LVL93:
 912              		.loc 3 575 0
ARM GAS  /tmp/ccyWADFQ.s 			page 17


 913 0022 FFF7FEFF 		bl	chSysUnlock
 914              	.LVL94:
 915              		.loc 3 579 0
 916 0026 2046     		mov	r0, r4
 917 0028 FFF7FEFF 		bl	chThdRelease
 918              	.LVL95:
 919              		.loc 3 583 0
 920 002c 2846     		mov	r0, r5
 921 002e 38BD     		pop	{r3, r4, r5, pc}
 922              	.LVL96:
 923              	.L45:
 924              		.align	2
 925              	.L44:
 926 0030 00000000 		.word	ch
 927              		.cfi_endproc
 928              	.LFE302:
 929              		.size	chThdWait, .-chThdWait
 930              		.section	.text.chThdSetPriority,"ax",%progbits
 931              		.align	1
 932              		.global	chThdSetPriority
 933              		.syntax unified
 934              		.thumb
 935              		.thumb_func
 936              		.fpu fpv4-sp-d16
 937              		.type	chThdSetPriority, %function
 938              	chThdSetPriority:
 939              	.LFB303:
 940              		.loc 3 598 0
 941              		.cfi_startproc
 942              		@ args = 0, pretend = 0, frame = 0
 943              		@ frame_needed = 0, uses_anonymous_args = 0
 944              	.LVL97:
 945 0000 38B5     		push	{r3, r4, r5, lr}
 946              		.cfi_def_cfa_offset 16
 947              		.cfi_offset 3, -16
 948              		.cfi_offset 4, -12
 949              		.cfi_offset 5, -8
 950              		.cfi_offset 14, -4
 951              		.loc 3 598 0
 952 0002 0446     		mov	r4, r0
 953              		.loc 3 603 0
 954 0004 FFF7FEFF 		bl	chSysLock
 955              	.LVL98:
 956              		.loc 3 605 0
 957 0008 074B     		ldr	r3, .L49
 958 000a 9B69     		ldr	r3, [r3, #24]
 959 000c DD6B     		ldr	r5, [r3, #60]
 960              	.LVL99:
 961              		.loc 3 606 0
 962 000e 9A68     		ldr	r2, [r3, #8]
 963 0010 9542     		cmp	r5, r2
 964 0012 01D0     		beq	.L47
 965              		.loc 3 606 0 is_stmt 0 discriminator 1
 966 0014 A242     		cmp	r2, r4
 967 0016 00D2     		bcs	.L48
 968              	.L47:
 969              		.loc 3 607 0 is_stmt 1
ARM GAS  /tmp/ccyWADFQ.s 			page 18


 970 0018 9C60     		str	r4, [r3, #8]
 971              	.L48:
 972              		.loc 3 609 0
 973 001a DC63     		str	r4, [r3, #60]
 974              		.loc 3 614 0
 975 001c FFF7FEFF 		bl	chSchRescheduleS
 976              	.LVL100:
 977              		.loc 3 615 0
 978 0020 FFF7FEFF 		bl	chSysUnlock
 979              	.LVL101:
 980              		.loc 3 618 0
 981 0024 2846     		mov	r0, r5
 982 0026 38BD     		pop	{r3, r4, r5, pc}
 983              	.LVL102:
 984              	.L50:
 985              		.align	2
 986              	.L49:
 987 0028 00000000 		.word	ch
 988              		.cfi_endproc
 989              	.LFE303:
 990              		.size	chThdSetPriority, .-chThdSetPriority
 991              		.section	.text.chThdTerminate,"ax",%progbits
 992              		.align	1
 993              		.global	chThdTerminate
 994              		.syntax unified
 995              		.thumb
 996              		.thumb_func
 997              		.fpu fpv4-sp-d16
 998              		.type	chThdTerminate, %function
 999              	chThdTerminate:
 1000              	.LFB304:
 1001              		.loc 3 632 0
 1002              		.cfi_startproc
 1003              		@ args = 0, pretend = 0, frame = 0
 1004              		@ frame_needed = 0, uses_anonymous_args = 0
 1005              	.LVL103:
 1006 0000 10B5     		push	{r4, lr}
 1007              		.cfi_def_cfa_offset 8
 1008              		.cfi_offset 4, -8
 1009              		.cfi_offset 14, -4
 1010              		.loc 3 632 0
 1011 0002 0446     		mov	r4, r0
 1012              		.loc 3 634 0
 1013 0004 FFF7FEFF 		bl	chSysLock
 1014              	.LVL104:
 1015              		.loc 3 635 0
 1016 0008 94F82130 		ldrb	r3, [r4, #33]	@ zero_extendqisi2
 1017 000c 43F00403 		orr	r3, r3, #4
 1018 0010 84F82130 		strb	r3, [r4, #33]
 1019              		.loc 3 637 0
 1020 0014 BDE81040 		pop	{r4, lr}
 1021              		.cfi_restore 14
 1022              		.cfi_restore 4
 1023              		.cfi_def_cfa_offset 0
 1024              	.LVL105:
 1025              		.loc 3 636 0
 1026 0018 FFF7FEBF 		b	chSysUnlock
ARM GAS  /tmp/ccyWADFQ.s 			page 19


 1027              	.LVL106:
 1028              		.cfi_endproc
 1029              	.LFE304:
 1030              		.size	chThdTerminate, .-chThdTerminate
 1031              		.section	.text.chThdSleep,"ax",%progbits
 1032              		.align	1
 1033              		.global	chThdSleep
 1034              		.syntax unified
 1035              		.thumb
 1036              		.thumb_func
 1037              		.fpu fpv4-sp-d16
 1038              		.type	chThdSleep, %function
 1039              	chThdSleep:
 1040              	.LFB305:
 1041              		.loc 3 651 0
 1042              		.cfi_startproc
 1043              		@ args = 0, pretend = 0, frame = 0
 1044              		@ frame_needed = 0, uses_anonymous_args = 0
 1045              	.LVL107:
 1046 0000 10B5     		push	{r4, lr}
 1047              		.cfi_def_cfa_offset 8
 1048              		.cfi_offset 4, -8
 1049              		.cfi_offset 14, -4
 1050              		.loc 3 651 0
 1051 0002 0446     		mov	r4, r0
 1052              		.loc 3 653 0
 1053 0004 FFF7FEFF 		bl	chSysLock
 1054              	.LVL108:
 1055              	.LBB122:
 1056              	.LBB123:
 1057              		.file 5 "../../modules/ChibiOS/os/rt/include/chthreads.h"
 1058              		.loc 5 382 0
 1059 0008 2146     		mov	r1, r4
 1060 000a 0820     		movs	r0, #8
 1061 000c FFF7FEFF 		bl	chSchGoSleepTimeoutS
 1062              	.LVL109:
 1063              	.LBE123:
 1064              	.LBE122:
 1065              		.loc 3 656 0
 1066 0010 BDE81040 		pop	{r4, lr}
 1067              		.cfi_restore 14
 1068              		.cfi_restore 4
 1069              		.cfi_def_cfa_offset 0
 1070              	.LVL110:
 1071              		.loc 3 655 0
 1072 0014 FFF7FEBF 		b	chSysUnlock
 1073              	.LVL111:
 1074              		.cfi_endproc
 1075              	.LFE305:
 1076              		.size	chThdSleep, .-chThdSleep
 1077              		.section	.text.chThdSleepUntil,"ax",%progbits
 1078              		.align	1
 1079              		.global	chThdSleepUntil
 1080              		.syntax unified
 1081              		.thumb
 1082              		.thumb_func
 1083              		.fpu fpv4-sp-d16
ARM GAS  /tmp/ccyWADFQ.s 			page 20


 1084              		.type	chThdSleepUntil, %function
 1085              	chThdSleepUntil:
 1086              	.LFB306:
 1087              		.loc 3 671 0
 1088              		.cfi_startproc
 1089              		@ args = 0, pretend = 0, frame = 0
 1090              		@ frame_needed = 0, uses_anonymous_args = 0
 1091              	.LVL112:
 1092 0000 10B5     		push	{r4, lr}
 1093              		.cfi_def_cfa_offset 8
 1094              		.cfi_offset 4, -8
 1095              		.cfi_offset 14, -4
 1096              		.loc 3 671 0
 1097 0002 0446     		mov	r4, r0
 1098              		.loc 3 674 0
 1099 0004 FFF7FEFF 		bl	chSysLock
 1100              	.LVL113:
 1101              	.LBB132:
 1102              	.LBB133:
 1103              	.LBB134:
 1104              	.LBB135:
 1105              		.file 6 "../../modules/ChibiOS/os/hal/ports/STM32/LLD/TIMv1/hal_st_lld.h"
 1106              		.loc 6 147 0
 1107 0008 054B     		ldr	r3, .L58
 1108 000a 596A     		ldr	r1, [r3, #36]
 1109              	.LBE135:
 1110              	.LBE134:
 1111              	.LBE133:
 1112              	.LBE132:
 1113              		.loc 3 676 0
 1114 000c 611A     		subs	r1, r4, r1
 1115 000e 02D0     		beq	.L54
 1116              	.LVL114:
 1117              	.LBB136:
 1118              	.LBB137:
 1119              		.loc 5 382 0
 1120 0010 0820     		movs	r0, #8
 1121 0012 FFF7FEFF 		bl	chSchGoSleepTimeoutS
 1122              	.LVL115:
 1123              	.L54:
 1124              	.LBE137:
 1125              	.LBE136:
 1126              		.loc 3 680 0
 1127 0016 BDE81040 		pop	{r4, lr}
 1128              		.cfi_restore 14
 1129              		.cfi_restore 4
 1130              		.cfi_def_cfa_offset 0
 1131              	.LVL116:
 1132              		.loc 3 679 0
 1133 001a FFF7FEBF 		b	chSysUnlock
 1134              	.LVL117:
 1135              	.L59:
 1136 001e 00BF     		.align	2
 1137              	.L58:
 1138 0020 000C0040 		.word	1073744896
 1139              		.cfi_endproc
 1140              	.LFE306:
ARM GAS  /tmp/ccyWADFQ.s 			page 21


 1141              		.size	chThdSleepUntil, .-chThdSleepUntil
 1142              		.section	.text.chThdSleepUntilWindowed,"ax",%progbits
 1143              		.align	1
 1144              		.global	chThdSleepUntilWindowed
 1145              		.syntax unified
 1146              		.thumb
 1147              		.thumb_func
 1148              		.fpu fpv4-sp-d16
 1149              		.type	chThdSleepUntilWindowed, %function
 1150              	chThdSleepUntilWindowed:
 1151              	.LFB307:
 1152              		.loc 3 696 0
 1153              		.cfi_startproc
 1154              		@ args = 0, pretend = 0, frame = 0
 1155              		@ frame_needed = 0, uses_anonymous_args = 0
 1156              	.LVL118:
 1157 0000 38B5     		push	{r3, r4, r5, lr}
 1158              		.cfi_def_cfa_offset 16
 1159              		.cfi_offset 3, -16
 1160              		.cfi_offset 4, -12
 1161              		.cfi_offset 5, -8
 1162              		.cfi_offset 14, -4
 1163              		.loc 3 696 0
 1164 0002 0446     		mov	r4, r0
 1165 0004 0D46     		mov	r5, r1
 1166              		.loc 3 699 0
 1167 0006 FFF7FEFF 		bl	chSysLock
 1168              	.LVL119:
 1169              	.LBB148:
 1170              	.LBB149:
 1171              	.LBB150:
 1172              	.LBB151:
 1173              		.loc 6 147 0
 1174 000a 074B     		ldr	r3, .L62
 1175 000c 596A     		ldr	r1, [r3, #36]
 1176              	.LBE151:
 1177              	.LBE150:
 1178              	.LBE149:
 1179              	.LBE148:
 1180              	.LBB152:
 1181              	.LBB153:
 1182              		.file 7 "../../modules/ChibiOS/os/rt/include/chtime.h"
 1183              		.loc 7 535 0
 1184 000e 2B1B     		subs	r3, r5, r4
 1185 0010 0C1B     		subs	r4, r1, r4
 1186              	.LVL120:
 1187              	.LBE153:
 1188              	.LBE152:
 1189              		.loc 3 701 0
 1190 0012 A342     		cmp	r3, r4
 1191 0014 03D9     		bls	.L61
 1192              	.LVL121:
 1193              	.LBB154:
 1194              	.LBB155:
 1195              		.loc 5 382 0
 1196 0016 691A     		subs	r1, r5, r1
 1197              	.LVL122:
ARM GAS  /tmp/ccyWADFQ.s 			page 22


 1198 0018 0820     		movs	r0, #8
 1199 001a FFF7FEFF 		bl	chSchGoSleepTimeoutS
 1200              	.LVL123:
 1201              	.L61:
 1202              	.LBE155:
 1203              	.LBE154:
 1204              		.loc 3 704 0
 1205 001e FFF7FEFF 		bl	chSysUnlock
 1206              	.LVL124:
 1207              		.loc 3 707 0
 1208 0022 2846     		mov	r0, r5
 1209 0024 38BD     		pop	{r3, r4, r5, pc}
 1210              	.LVL125:
 1211              	.L63:
 1212 0026 00BF     		.align	2
 1213              	.L62:
 1214 0028 000C0040 		.word	1073744896
 1215              		.cfi_endproc
 1216              	.LFE307:
 1217              		.size	chThdSleepUntilWindowed, .-chThdSleepUntilWindowed
 1218              		.section	.text.chThdYield,"ax",%progbits
 1219              		.align	1
 1220              		.global	chThdYield
 1221              		.syntax unified
 1222              		.thumb
 1223              		.thumb_func
 1224              		.fpu fpv4-sp-d16
 1225              		.type	chThdYield, %function
 1226              	chThdYield:
 1227              	.LFB308:
 1228              		.loc 3 716 0
 1229              		.cfi_startproc
 1230              		@ args = 0, pretend = 0, frame = 0
 1231              		@ frame_needed = 0, uses_anonymous_args = 0
 1232 0000 08B5     		push	{r3, lr}
 1233              		.cfi_def_cfa_offset 8
 1234              		.cfi_offset 3, -8
 1235              		.cfi_offset 14, -4
 1236              		.loc 3 718 0
 1237 0002 FFF7FEFF 		bl	chSysLock
 1238              	.LVL126:
 1239              	.LBB160:
 1240              	.LBB161:
 1241              	.LBB162:
 1242              	.LBB163:
 1243              		.loc 4 666 0
 1244 0006 064B     		ldr	r3, .L66
 1245 0008 1A68     		ldr	r2, [r3]
 1246 000a 9B69     		ldr	r3, [r3, #24]
 1247              	.LBE163:
 1248              	.LBE162:
 1249              		.loc 4 680 0
 1250 000c 9268     		ldr	r2, [r2, #8]
 1251 000e 9B68     		ldr	r3, [r3, #8]
 1252 0010 9A42     		cmp	r2, r3
 1253 0012 01D3     		bcc	.L65
 1254              		.loc 4 681 0
ARM GAS  /tmp/ccyWADFQ.s 			page 23


 1255 0014 FFF7FEFF 		bl	chSchDoRescheduleBehind
 1256              	.LVL127:
 1257              	.L65:
 1258              	.LBE161:
 1259              	.LBE160:
 1260              		.loc 3 721 0
 1261 0018 BDE80840 		pop	{r3, lr}
 1262              		.cfi_restore 14
 1263              		.cfi_restore 3
 1264              		.cfi_def_cfa_offset 0
 1265              		.loc 3 720 0
 1266 001c FFF7FEBF 		b	chSysUnlock
 1267              	.LVL128:
 1268              	.L67:
 1269              		.align	2
 1270              	.L66:
 1271 0020 00000000 		.word	ch
 1272              		.cfi_endproc
 1273              	.LFE308:
 1274              		.size	chThdYield, .-chThdYield
 1275              		.section	.text.chThdSuspendS,"ax",%progbits
 1276              		.align	1
 1277              		.global	chThdSuspendS
 1278              		.syntax unified
 1279              		.thumb
 1280              		.thumb_func
 1281              		.fpu fpv4-sp-d16
 1282              		.type	chThdSuspendS, %function
 1283              	chThdSuspendS:
 1284              	.LFB309:
 1285              		.loc 3 733 0
 1286              		.cfi_startproc
 1287              		@ args = 0, pretend = 0, frame = 0
 1288              		@ frame_needed = 0, uses_anonymous_args = 0
 1289              	.LVL129:
 1290 0000 10B5     		push	{r4, lr}
 1291              		.cfi_def_cfa_offset 8
 1292              		.cfi_offset 4, -8
 1293              		.cfi_offset 14, -4
 1294              	.LBB164:
 1295              	.LBB165:
 1296              		.loc 5 274 0
 1297 0002 054C     		ldr	r4, .L69
 1298 0004 A369     		ldr	r3, [r4, #24]
 1299              	.LBE165:
 1300              	.LBE164:
 1301              		.loc 3 738 0
 1302 0006 0360     		str	r3, [r0]
 1303              		.loc 3 739 0
 1304 0008 5862     		str	r0, [r3, #36]
 1305              		.loc 3 740 0
 1306 000a 0320     		movs	r0, #3
 1307              	.LVL130:
 1308 000c FFF7FEFF 		bl	chSchGoSleepS
 1309              	.LVL131:
 1310              		.loc 3 742 0
 1311 0010 A369     		ldr	r3, [r4, #24]
ARM GAS  /tmp/ccyWADFQ.s 			page 24


 1312              		.loc 3 743 0
 1313 0012 586A     		ldr	r0, [r3, #36]
 1314 0014 10BD     		pop	{r4, pc}
 1315              	.L70:
 1316 0016 00BF     		.align	2
 1317              	.L69:
 1318 0018 00000000 		.word	ch
 1319              		.cfi_endproc
 1320              	.LFE309:
 1321              		.size	chThdSuspendS, .-chThdSuspendS
 1322              		.section	.text.chThdSuspendTimeoutS,"ax",%progbits
 1323              		.align	1
 1324              		.global	chThdSuspendTimeoutS
 1325              		.syntax unified
 1326              		.thumb
 1327              		.thumb_func
 1328              		.fpu fpv4-sp-d16
 1329              		.type	chThdSuspendTimeoutS, %function
 1330              	chThdSuspendTimeoutS:
 1331              	.LFB310:
 1332              		.loc 3 764 0
 1333              		.cfi_startproc
 1334              		@ args = 0, pretend = 0, frame = 0
 1335              		@ frame_needed = 0, uses_anonymous_args = 0
 1336              		@ link register save eliminated.
 1337              	.LVL132:
 1338              	.LBB166:
 1339              	.LBB167:
 1340              		.loc 5 274 0
 1341 0000 054B     		ldr	r3, .L73
 1342 0002 9B69     		ldr	r3, [r3, #24]
 1343              	.LBE167:
 1344              	.LBE166:
 1345              		.loc 3 769 0
 1346 0004 21B1     		cbz	r1, .L72
 1347              		.loc 3 773 0
 1348 0006 0360     		str	r3, [r0]
 1349              		.loc 3 774 0
 1350 0008 5862     		str	r0, [r3, #36]
 1351              		.loc 3 776 0
 1352 000a 0320     		movs	r0, #3
 1353              	.LVL133:
 1354 000c FFF7FEBF 		b	chSchGoSleepTimeoutS
 1355              	.LVL134:
 1356              	.L72:
 1357              		.loc 3 777 0
 1358 0010 4FF0FF30 		mov	r0, #-1
 1359              	.LVL135:
 1360 0014 7047     		bx	lr
 1361              	.L74:
 1362 0016 00BF     		.align	2
 1363              	.L73:
 1364 0018 00000000 		.word	ch
 1365              		.cfi_endproc
 1366              	.LFE310:
 1367              		.size	chThdSuspendTimeoutS, .-chThdSuspendTimeoutS
 1368              		.section	.text.chThdResumeI,"ax",%progbits
ARM GAS  /tmp/ccyWADFQ.s 			page 25


 1369              		.align	1
 1370              		.global	chThdResumeI
 1371              		.syntax unified
 1372              		.thumb
 1373              		.thumb_func
 1374              		.fpu fpv4-sp-d16
 1375              		.type	chThdResumeI, %function
 1376              	chThdResumeI:
 1377              	.LFB311:
 1378              		.loc 3 789 0
 1379              		.cfi_startproc
 1380              		@ args = 0, pretend = 0, frame = 0
 1381              		@ frame_needed = 0, uses_anonymous_args = 0
 1382              		@ link register save eliminated.
 1383              	.LVL136:
 1384              		.loc 3 791 0
 1385 0000 0368     		ldr	r3, [r0]
 1386 0002 2BB1     		cbz	r3, .L75
 1387              	.LVL137:
 1388              	.LBB168:
 1389              		.loc 3 796 0
 1390 0004 0022     		movs	r2, #0
 1391 0006 0260     		str	r2, [r0]
 1392              		.loc 3 797 0
 1393 0008 5962     		str	r1, [r3, #36]
 1394              		.loc 3 798 0
 1395 000a 1846     		mov	r0, r3
 1396              	.LVL138:
 1397 000c FFF7FEBF 		b	chSchReadyI
 1398              	.LVL139:
 1399              	.L75:
 1400 0010 7047     		bx	lr
 1401              	.LBE168:
 1402              		.cfi_endproc
 1403              	.LFE311:
 1404              		.size	chThdResumeI, .-chThdResumeI
 1405              		.section	.text.chThdResumeS,"ax",%progbits
 1406              		.align	1
 1407              		.global	chThdResumeS
 1408              		.syntax unified
 1409              		.thumb
 1410              		.thumb_func
 1411              		.fpu fpv4-sp-d16
 1412              		.type	chThdResumeS, %function
 1413              	chThdResumeS:
 1414              	.LFB312:
 1415              		.loc 3 812 0
 1416              		.cfi_startproc
 1417              		@ args = 0, pretend = 0, frame = 0
 1418              		@ frame_needed = 0, uses_anonymous_args = 0
 1419              		@ link register save eliminated.
 1420              	.LVL140:
 1421              		.loc 3 814 0
 1422 0000 0368     		ldr	r3, [r0]
 1423 0002 23B1     		cbz	r3, .L77
 1424              	.LVL141:
 1425              	.LBB169:
ARM GAS  /tmp/ccyWADFQ.s 			page 26


 1426              		.loc 3 819 0
 1427 0004 0022     		movs	r2, #0
 1428 0006 0260     		str	r2, [r0]
 1429              		.loc 3 820 0
 1430 0008 1846     		mov	r0, r3
 1431              	.LVL142:
 1432 000a FFF7FEBF 		b	chSchWakeupS
 1433              	.LVL143:
 1434              	.L77:
 1435 000e 7047     		bx	lr
 1436              	.LBE169:
 1437              		.cfi_endproc
 1438              	.LFE312:
 1439              		.size	chThdResumeS, .-chThdResumeS
 1440              		.section	.text.chThdResume,"ax",%progbits
 1441              		.align	1
 1442              		.global	chThdResume
 1443              		.syntax unified
 1444              		.thumb
 1445              		.thumb_func
 1446              		.fpu fpv4-sp-d16
 1447              		.type	chThdResume, %function
 1448              	chThdResume:
 1449              	.LFB313:
 1450              		.loc 3 834 0
 1451              		.cfi_startproc
 1452              		@ args = 0, pretend = 0, frame = 0
 1453              		@ frame_needed = 0, uses_anonymous_args = 0
 1454              	.LVL144:
 1455 0000 38B5     		push	{r3, r4, r5, lr}
 1456              		.cfi_def_cfa_offset 16
 1457              		.cfi_offset 3, -16
 1458              		.cfi_offset 4, -12
 1459              		.cfi_offset 5, -8
 1460              		.cfi_offset 14, -4
 1461              		.loc 3 834 0
 1462 0002 0446     		mov	r4, r0
 1463 0004 0D46     		mov	r5, r1
 1464              		.loc 3 836 0
 1465 0006 FFF7FEFF 		bl	chSysLock
 1466              	.LVL145:
 1467              		.loc 3 837 0
 1468 000a 2946     		mov	r1, r5
 1469 000c 2046     		mov	r0, r4
 1470 000e FFF7FEFF 		bl	chThdResumeS
 1471              	.LVL146:
 1472              		.loc 3 839 0
 1473 0012 BDE83840 		pop	{r3, r4, r5, lr}
 1474              		.cfi_restore 14
 1475              		.cfi_restore 5
 1476              		.cfi_restore 4
 1477              		.cfi_restore 3
 1478              		.cfi_def_cfa_offset 0
 1479              	.LVL147:
 1480              		.loc 3 838 0
 1481 0016 FFF7FEBF 		b	chSysUnlock
 1482              	.LVL148:
ARM GAS  /tmp/ccyWADFQ.s 			page 27


 1483              		.cfi_endproc
 1484              	.LFE313:
 1485              		.size	chThdResume, .-chThdResume
 1486              		.section	.text.chThdEnqueueTimeoutS,"ax",%progbits
 1487              		.align	1
 1488              		.global	chThdEnqueueTimeoutS
 1489              		.syntax unified
 1490              		.thumb
 1491              		.thumb_func
 1492              		.fpu fpv4-sp-d16
 1493              		.type	chThdEnqueueTimeoutS, %function
 1494              	chThdEnqueueTimeoutS:
 1495              	.LFB314:
 1496              		.loc 3 864 0
 1497              		.cfi_startproc
 1498              		@ args = 0, pretend = 0, frame = 0
 1499              		@ frame_needed = 0, uses_anonymous_args = 0
 1500              		@ link register save eliminated.
 1501              	.LVL149:
 1502              		.loc 3 866 0
 1503 0000 49B1     		cbz	r1, .L81
 1504              		.loc 3 870 0
 1505 0002 064B     		ldr	r3, .L82
 1506              	.LBB170:
 1507              	.LBB171:
 1508              		.loc 4 601 0
 1509 0004 4268     		ldr	r2, [r0, #4]
 1510              	.LBE171:
 1511              	.LBE170:
 1512              		.loc 3 870 0
 1513 0006 9B69     		ldr	r3, [r3, #24]
 1514              	.LVL150:
 1515              	.LBB173:
 1516              	.LBB172:
 1517              		.loc 4 600 0
 1518 0008 1860     		str	r0, [r3]
 1519              		.loc 4 601 0
 1520 000a 5A60     		str	r2, [r3, #4]
 1521              		.loc 4 602 0
 1522 000c 1360     		str	r3, [r2]
 1523              		.loc 4 603 0
 1524 000e 4360     		str	r3, [r0, #4]
 1525              	.LVL151:
 1526              	.LBE172:
 1527              	.LBE173:
 1528              		.loc 3 872 0
 1529 0010 0420     		movs	r0, #4
 1530              	.LVL152:
 1531 0012 FFF7FEBF 		b	chSchGoSleepTimeoutS
 1532              	.LVL153:
 1533              	.L81:
 1534              		.loc 3 873 0
 1535 0016 4FF0FF30 		mov	r0, #-1
 1536              	.LVL154:
 1537 001a 7047     		bx	lr
 1538              	.L83:
 1539              		.align	2
ARM GAS  /tmp/ccyWADFQ.s 			page 28


 1540              	.L82:
 1541 001c 00000000 		.word	ch
 1542              		.cfi_endproc
 1543              	.LFE314:
 1544              		.size	chThdEnqueueTimeoutS, .-chThdEnqueueTimeoutS
 1545              		.section	.text.chThdDequeueNextI,"ax",%progbits
 1546              		.align	1
 1547              		.global	chThdDequeueNextI
 1548              		.syntax unified
 1549              		.thumb
 1550              		.thumb_func
 1551              		.fpu fpv4-sp-d16
 1552              		.type	chThdDequeueNextI, %function
 1553              	chThdDequeueNextI:
 1554              	.LFB315:
 1555              		.loc 3 884 0
 1556              		.cfi_startproc
 1557              		@ args = 0, pretend = 0, frame = 0
 1558              		@ frame_needed = 0, uses_anonymous_args = 0
 1559              		@ link register save eliminated.
 1560              	.LVL155:
 1561              	.LBB180:
 1562              	.LBB181:
 1563              		.loc 4 566 0
 1564 0000 0368     		ldr	r3, [r0]
 1565              	.LVL156:
 1566              	.LBE181:
 1567              	.LBE180:
 1568              		.loc 3 886 0
 1569 0002 9842     		cmp	r0, r3
 1570 0004 06D0     		beq	.L84
 1571              	.LVL157:
 1572              	.LBB182:
 1573              	.LBB183:
 1574              	.LBB184:
 1575              	.LBB185:
 1576              		.loc 4 609 0
 1577 0006 1A68     		ldr	r2, [r3]
 1578 0008 0260     		str	r2, [r0]
 1579              		.loc 4 610 0
 1580 000a 5060     		str	r0, [r2, #4]
 1581              	.LVL158:
 1582              	.LBE185:
 1583              	.LBE184:
 1584              		.loc 5 434 0
 1585 000c 5962     		str	r1, [r3, #36]
 1586              		.loc 5 435 0
 1587 000e 1846     		mov	r0, r3
 1588              	.LVL159:
 1589 0010 FFF7FEBF 		b	chSchReadyI
 1590              	.LVL160:
 1591              	.L84:
 1592 0014 7047     		bx	lr
 1593              	.LBE183:
 1594              	.LBE182:
 1595              		.cfi_endproc
 1596              	.LFE315:
ARM GAS  /tmp/ccyWADFQ.s 			page 29


 1597              		.size	chThdDequeueNextI, .-chThdDequeueNextI
 1598              		.section	.text.chThdDequeueAllI,"ax",%progbits
 1599              		.align	1
 1600              		.global	chThdDequeueAllI
 1601              		.syntax unified
 1602              		.thumb
 1603              		.thumb_func
 1604              		.fpu fpv4-sp-d16
 1605              		.type	chThdDequeueAllI, %function
 1606              	chThdDequeueAllI:
 1607              	.LFB316:
 1608              		.loc 3 899 0
 1609              		.cfi_startproc
 1610              		@ args = 0, pretend = 0, frame = 0
 1611              		@ frame_needed = 0, uses_anonymous_args = 0
 1612              	.LVL161:
 1613 0000 38B5     		push	{r3, r4, r5, lr}
 1614              		.cfi_def_cfa_offset 16
 1615              		.cfi_offset 3, -16
 1616              		.cfi_offset 4, -12
 1617              		.cfi_offset 5, -8
 1618              		.cfi_offset 14, -4
 1619 0002 0446     		mov	r4, r0
 1620 0004 0D46     		mov	r5, r1
 1621              	.LVL162:
 1622              	.L87:
 1623              	.LBB192:
 1624              	.LBB193:
 1625              		.loc 4 566 0
 1626 0006 2068     		ldr	r0, [r4]
 1627              	.LVL163:
 1628              	.LBE193:
 1629              	.LBE192:
 1630              		.loc 3 901 0
 1631 0008 8442     		cmp	r4, r0
 1632 000a 00D1     		bne	.L88
 1633              		.loc 3 904 0
 1634 000c 38BD     		pop	{r3, r4, r5, pc}
 1635              	.LVL164:
 1636              	.L88:
 1637              	.LBB194:
 1638              	.LBB195:
 1639              	.LBB196:
 1640              	.LBB197:
 1641              		.loc 4 609 0
 1642 000e 0368     		ldr	r3, [r0]
 1643 0010 2360     		str	r3, [r4]
 1644              		.loc 4 610 0
 1645 0012 5C60     		str	r4, [r3, #4]
 1646              	.LVL165:
 1647              	.LBE197:
 1648              	.LBE196:
 1649              		.loc 5 434 0
 1650 0014 4562     		str	r5, [r0, #36]
 1651              		.loc 5 435 0
 1652 0016 FFF7FEFF 		bl	chSchReadyI
 1653              	.LVL166:
ARM GAS  /tmp/ccyWADFQ.s 			page 30


 1654 001a F4E7     		b	.L87
 1655              	.LBE195:
 1656              	.LBE194:
 1657              		.cfi_endproc
 1658              	.LFE316:
 1659              		.size	chThdDequeueAllI, .-chThdDequeueAllI
 1660              		.section	.rodata.chThdCreateStatic.str1.1,"aMS",%progbits,1
 1661              	.LC0:
 1662 0000 6E6F6E61 		.ascii	"noname\000"
 1662      6D6500
 1663              		.text
 1664              	.Letext0:
 1665              		.file 8 "/opt/gcc-arm-none-eabi-6-2017-q2-update/lib/gcc/arm-none-eabi/6.3.1/include/stddef.h"
 1666              		.file 9 "/opt/gcc-arm-none-eabi-6-2017-q2-update/arm-none-eabi/include/machine/_default_types.h"
 1667              		.file 10 "/opt/gcc-arm-none-eabi-6-2017-q2-update/arm-none-eabi/include/sys/_stdint.h"
 1668              		.file 11 "../../modules/ChibiOS/os/common/ports/ARMCMx/compilers/GCC/chtypes.h"
 1669              		.file 12 "../../modules/ChibiOS/os/rt/include/chsystypes.h"
 1670              		.file 13 "../../modules/ChibiOS/os/common/ext/ARM/CMSIS/Core/Include/core_cm4.h"
 1671              		.file 14 "../../modules/ChibiOS/os/common/ext/ST/STM32F4xx/system_stm32f4xx.h"
 1672              		.file 15 "../../modules/ChibiOS/os/common/ports/ARMCMx/chcore.h"
 1673              		.file 16 "../../modules/ChibiOS/os/common/ports/ARMCMx/chcore_v7m.h"
 1674              		.file 17 "../../modules/ChibiOS/os/hal/ports/STM32/LLD/TIMv1/stm32_tim.h"
 1675              		.file 18 "../../modules/ChibiOS/os/rt/include/chtm.h"
 1676              		.file 19 "../../modules/ChibiOS/os/rt/include/chstats.h"
 1677              		.file 20 "../../modules/ChibiOS/os/rt/include/chsem.h"
 1678              		.file 21 "../../modules/ChibiOS/os/rt/include/chmtx.h"
 1679              		.file 22 "../../modules/ChibiOS/os/rt/include/chregistry.h"
 1680              		.file 23 "../../modules/ChibiOS/os/oslib/include/chmemcore.h"
 1681              		.file 24 "../../modules/ChibiOS/os/oslib/include/chmempools.h"
 1682              		.file 25 "../../modules/ChibiOS/os/oslib/include/chfactory.h"
 1683              		.file 26 "../../modules/ChibiOS/os/rt/include/chvt.h"
 1684              		.file 27 "../../modules/ChibiOS/os/common/ports/ARMCMx/chcore_timer.h"
 1685              		.file 28 "../../modules/ChibiOS/os/oslib/include/chmemheaps.h"