ARM GAS  /tmp/ccaJeJ8X.s 			page 1


   1              		.cpu cortex-m4
   2              		.eabi_attribute 27, 1
   3              		.eabi_attribute 28, 1
   4              		.eabi_attribute 20, 1
   5              		.eabi_attribute 21, 1
   6              		.eabi_attribute 23, 3
   7              		.eabi_attribute 24, 1
   8              		.eabi_attribute 25, 1
   9              		.eabi_attribute 26, 1
  10              		.eabi_attribute 30, 4
  11              		.eabi_attribute 34, 1
  12              		.eabi_attribute 18, 4
  13              		.file	"chtm.c"
  14              		.text
  15              	.Ltext0:
  16              		.cfi_sections	.debug_frame
  17              		.section	.text.chTMObjectInit,"ax",%progbits
  18              		.align	1
  19              		.global	chTMObjectInit
  20              		.syntax unified
  21              		.thumb
  22              		.thumb_func
  23              		.fpu fpv4-sp-d16
  24              		.type	chTMObjectInit, %function
  25              	chTMObjectInit:
  26              	.LFB292:
  27              		.file 1 "../../modules/ChibiOS/os/rt/src/chtm.c"
  28              		.loc 1 97 0
  29              		.cfi_startproc
  30              		@ args = 0, pretend = 0, frame = 0
  31              		@ frame_needed = 0, uses_anonymous_args = 0
  32              		@ link register save eliminated.
  33              	.LVL0:
  34              		.loc 1 99 0
  35 0000 4FF0FF33 		mov	r3, #-1
  36 0004 0360     		str	r3, [r0]
  37              		.loc 1 100 0
  38 0006 0023     		movs	r3, #0
  39 0008 4360     		str	r3, [r0, #4]
  40              		.loc 1 101 0
  41 000a 8360     		str	r3, [r0, #8]
  42              		.loc 1 102 0
  43 000c C360     		str	r3, [r0, #12]
  44              		.loc 1 103 0
  45 000e 0022     		movs	r2, #0
  46 0010 0023     		movs	r3, #0
  47 0012 C0E90423 		strd	r2, [r0, #16]
  48 0016 7047     		bx	lr
  49              		.cfi_endproc
  50              	.LFE292:
  51              		.size	chTMObjectInit, .-chTMObjectInit
  52              		.section	.text.chTMStartMeasurementX,"ax",%progbits
  53              		.align	1
  54              		.global	chTMStartMeasurementX
  55              		.syntax unified
  56              		.thumb
  57              		.thumb_func
ARM GAS  /tmp/ccaJeJ8X.s 			page 2


  58              		.fpu fpv4-sp-d16
  59              		.type	chTMStartMeasurementX, %function
  60              	chTMStartMeasurementX:
  61              	.LFB293:
  62              		.loc 1 114 0
  63              		.cfi_startproc
  64              		@ args = 0, pretend = 0, frame = 0
  65              		@ frame_needed = 0, uses_anonymous_args = 0
  66              		@ link register save eliminated.
  67              	.LVL1:
  68              	.LBB8:
  69              	.LBB9:
  70              		.file 2 "../../modules/ChibiOS/os/common/ports/ARMCMx/chcore_v7m.h"
  71              		.loc 2 716 0
  72 0000 014B     		ldr	r3, .L3
  73 0002 5B68     		ldr	r3, [r3, #4]
  74              	.LBE9:
  75              	.LBE8:
  76              		.loc 1 116 0
  77 0004 8360     		str	r3, [r0, #8]
  78 0006 7047     		bx	lr
  79              	.L4:
  80              		.align	2
  81              	.L3:
  82 0008 001000E0 		.word	-536866816
  83              		.cfi_endproc
  84              	.LFE293:
  85              		.size	chTMStartMeasurementX, .-chTMStartMeasurementX
  86              		.section	.text.chTMStopMeasurementX,"ax",%progbits
  87              		.align	1
  88              		.global	chTMStopMeasurementX
  89              		.syntax unified
  90              		.thumb
  91              		.thumb_func
  92              		.fpu fpv4-sp-d16
  93              		.type	chTMStopMeasurementX, %function
  94              	chTMStopMeasurementX:
  95              	.LFB294:
  96              		.loc 1 127 0
  97              		.cfi_startproc
  98              		@ args = 0, pretend = 0, frame = 0
  99              		@ frame_needed = 0, uses_anonymous_args = 0
 100              	.LVL2:
 101              		.loc 1 129 0
 102 0000 0E4A     		ldr	r2, .L8
 103              	.LBB14:
 104              	.LBB15:
 105              		.loc 2 716 0
 106 0002 0F4B     		ldr	r3, .L8+4
 107              	.LBE15:
 108              	.LBE14:
 109              		.loc 1 129 0
 110 0004 D2F89010 		ldr	r1, [r2, #144]
 111              	.LVL3:
 112              	.LBB17:
 113              	.LBB18:
 114              		.loc 1 57 0
ARM GAS  /tmp/ccaJeJ8X.s 			page 3


 115 0008 C268     		ldr	r2, [r0, #12]
 116              	.LBE18:
 117              	.LBE17:
 118              	.LBB21:
 119              	.LBB16:
 120              		.loc 2 716 0
 121 000a 5B68     		ldr	r3, [r3, #4]
 122              	.LVL4:
 123              	.LBE16:
 124              	.LBE21:
 125              	.LBB22:
 126              	.LBB19:
 127              		.loc 1 57 0
 128 000c 0132     		adds	r2, r2, #1
 129 000e C260     		str	r2, [r0, #12]
 130              		.loc 1 58 0
 131 0010 8268     		ldr	r2, [r0, #8]
 132              	.LBE19:
 133              	.LBE22:
 134              		.loc 1 127 0
 135 0012 30B5     		push	{r4, r5, lr}
 136              		.cfi_def_cfa_offset 12
 137              		.cfi_offset 4, -12
 138              		.cfi_offset 5, -8
 139              		.cfi_offset 14, -4
 140              	.LBB23:
 141              	.LBB20:
 142              		.loc 1 59 0
 143 0014 D0E90445 		ldrd	r4, [r0, #16]
 144              		.loc 1 58 0
 145 0018 9B1A     		subs	r3, r3, r2
 146              	.LVL5:
 147 001a 5B1A     		subs	r3, r3, r1
 148              		.loc 1 60 0
 149 001c 4268     		ldr	r2, [r0, #4]
 150              		.loc 1 58 0
 151 001e 8360     		str	r3, [r0, #8]
 152              		.loc 1 59 0
 153 0020 E418     		adds	r4, r4, r3
 154 0022 45F10005 		adc	r5, r5, #0
 155              		.loc 1 60 0
 156 0026 9342     		cmp	r3, r2
 157              		.loc 1 63 0
 158 0028 0268     		ldr	r2, [r0]
 159              		.loc 1 61 0
 160 002a 88BF     		it	hi
 161 002c 4360     		strhi	r3, [r0, #4]
 162              		.loc 1 63 0
 163 002e 9342     		cmp	r3, r2
 164              		.loc 1 59 0
 165 0030 C0E90445 		strd	r4, [r0, #16]
 166              		.loc 1 64 0
 167 0034 38BF     		it	cc
 168 0036 0360     		strcc	r3, [r0]
 169              	.LVL6:
 170 0038 30BD     		pop	{r4, r5, pc}
 171              	.L9:
ARM GAS  /tmp/ccaJeJ8X.s 			page 4


 172 003a 00BF     		.align	2
 173              	.L8:
 174 003c 00000000 		.word	ch
 175 0040 001000E0 		.word	-536866816
 176              	.LBE20:
 177              	.LBE23:
 178              		.cfi_endproc
 179              	.LFE294:
 180              		.size	chTMStopMeasurementX, .-chTMStopMeasurementX
 181              		.section	.text._tm_init,"ax",%progbits
 182              		.align	1
 183              		.global	_tm_init
 184              		.syntax unified
 185              		.thumb
 186              		.thumb_func
 187              		.fpu fpv4-sp-d16
 188              		.type	_tm_init, %function
 189              	_tm_init:
 190              	.LFB291:
 191              		.loc 1 77 0
 192              		.cfi_startproc
 193              		@ args = 0, pretend = 0, frame = 24
 194              		@ frame_needed = 0, uses_anonymous_args = 0
 195 0000 10B5     		push	{r4, lr}
 196              		.cfi_def_cfa_offset 8
 197              		.cfi_offset 4, -8
 198              		.cfi_offset 14, -4
 199              		.loc 1 83 0
 200 0002 094C     		ldr	r4, .L11
 201              		.loc 1 77 0
 202 0004 86B0     		sub	sp, sp, #24
 203              		.cfi_def_cfa_offset 32
 204              		.loc 1 83 0
 205 0006 0023     		movs	r3, #0
 206              		.loc 1 84 0
 207 0008 6846     		mov	r0, sp
 208              		.loc 1 83 0
 209 000a C4F89030 		str	r3, [r4, #144]
 210              		.loc 1 84 0
 211 000e FFF7FEFF 		bl	chTMObjectInit
 212              	.LVL7:
 213              		.loc 1 85 0
 214 0012 6846     		mov	r0, sp
 215 0014 FFF7FEFF 		bl	chTMStartMeasurementX
 216              	.LVL8:
 217              		.loc 1 86 0
 218 0018 6846     		mov	r0, sp
 219 001a FFF7FEFF 		bl	chTMStopMeasurementX
 220              	.LVL9:
 221              		.loc 1 87 0
 222 001e 029B     		ldr	r3, [sp, #8]
 223 0020 C4F89030 		str	r3, [r4, #144]
 224              		.loc 1 88 0
 225 0024 06B0     		add	sp, sp, #24
 226              		.cfi_def_cfa_offset 8
 227              		@ sp needed
 228 0026 10BD     		pop	{r4, pc}
ARM GAS  /tmp/ccaJeJ8X.s 			page 5


 229              	.L12:
 230              		.align	2
 231              	.L11:
 232 0028 00000000 		.word	ch
 233              		.cfi_endproc
 234              	.LFE291:
 235              		.size	_tm_init, .-_tm_init
 236              		.section	.text.chTMChainMeasurementToX,"ax",%progbits
 237              		.align	1
 238              		.global	chTMChainMeasurementToX
 239              		.syntax unified
 240              		.thumb
 241              		.thumb_func
 242              		.fpu fpv4-sp-d16
 243              		.type	chTMChainMeasurementToX, %function
 244              	chTMChainMeasurementToX:
 245              	.LFB295:
 246              		.loc 1 145 0
 247              		.cfi_startproc
 248              		@ args = 0, pretend = 0, frame = 0
 249              		@ frame_needed = 0, uses_anonymous_args = 0
 250              	.LVL10:
 251              	.LBB28:
 252              	.LBB29:
 253              		.loc 2 716 0
 254 0000 0C4B     		ldr	r3, .L16
 255              	.LBE29:
 256              	.LBE28:
 257              	.LBB31:
 258              	.LBB32:
 259              		.loc 1 57 0
 260 0002 C268     		ldr	r2, [r0, #12]
 261              	.LBE32:
 262              	.LBE31:
 263              	.LBB35:
 264              	.LBB30:
 265              		.loc 2 716 0
 266 0004 5B68     		ldr	r3, [r3, #4]
 267              	.LBE30:
 268              	.LBE35:
 269              		.loc 1 145 0
 270 0006 30B5     		push	{r4, r5, lr}
 271              		.cfi_def_cfa_offset 12
 272              		.cfi_offset 4, -12
 273              		.cfi_offset 5, -8
 274              		.cfi_offset 14, -4
 275              	.LBB36:
 276              	.LBB33:
 277              		.loc 1 57 0
 278 0008 0132     		adds	r2, r2, #1
 279              	.LBE33:
 280              	.LBE36:
 281              		.loc 1 148 0
 282 000a 8B60     		str	r3, [r1, #8]
 283              	.LVL11:
 284              	.LBB37:
 285              	.LBB34:
ARM GAS  /tmp/ccaJeJ8X.s 			page 6


 286              		.loc 1 59 0
 287 000c D0E90445 		ldrd	r4, [r0, #16]
 288              		.loc 1 57 0
 289 0010 C260     		str	r2, [r0, #12]
 290              		.loc 1 58 0
 291 0012 8268     		ldr	r2, [r0, #8]
 292 0014 9B1A     		subs	r3, r3, r2
 293              	.LVL12:
 294              		.loc 1 60 0
 295 0016 4268     		ldr	r2, [r0, #4]
 296              		.loc 1 58 0
 297 0018 8360     		str	r3, [r0, #8]
 298              	.LVL13:
 299              		.loc 1 59 0
 300 001a E418     		adds	r4, r4, r3
 301 001c 45F10005 		adc	r5, r5, #0
 302              		.loc 1 60 0
 303 0020 9342     		cmp	r3, r2
 304              		.loc 1 63 0
 305 0022 0268     		ldr	r2, [r0]
 306              		.loc 1 61 0
 307 0024 88BF     		it	hi
 308 0026 4360     		strhi	r3, [r0, #4]
 309              		.loc 1 63 0
 310 0028 9342     		cmp	r3, r2
 311              		.loc 1 59 0
 312 002a C0E90445 		strd	r4, [r0, #16]
 313              		.loc 1 64 0
 314 002e 38BF     		it	cc
 315 0030 0360     		strcc	r3, [r0]
 316              	.LVL14:
 317 0032 30BD     		pop	{r4, r5, pc}
 318              	.L17:
 319              		.align	2
 320              	.L16:
 321 0034 001000E0 		.word	-536866816
 322              	.LBE34:
 323              	.LBE37:
 324              		.cfi_endproc
 325              	.LFE295:
 326              		.size	chTMChainMeasurementToX, .-chTMChainMeasurementToX
 327              		.text
 328              	.Letext0:
 329              		.file 3 "/opt/gcc-arm-none-eabi-6-2017-q2-update/lib/gcc/arm-none-eabi/6.3.1/include/stddef.h"
 330              		.file 4 "/opt/gcc-arm-none-eabi-6-2017-q2-update/arm-none-eabi/include/machine/_default_types.h"
 331              		.file 5 "/opt/gcc-arm-none-eabi-6-2017-q2-update/arm-none-eabi/include/sys/_stdint.h"
 332              		.file 6 "../../modules/ChibiOS/os/common/ports/ARMCMx/compilers/GCC/chtypes.h"
 333              		.file 7 "../../modules/ChibiOS/os/rt/include/chsystypes.h"
 334              		.file 8 "../../modules/ChibiOS/os/rt/include/chschd.h"
 335              		.file 9 "../../modules/ChibiOS/os/rt/include/chtime.h"
 336              		.file 10 "../../modules/ChibiOS/os/common/ext/ARM/CMSIS/Core/Include/core_cm4.h"
 337              		.file 11 "../../modules/ChibiOS/os/common/ext/ST/STM32F4xx/system_stm32f4xx.h"
 338              		.file 12 "../../modules/ChibiOS/os/common/ports/ARMCMx/chcore.h"
 339              		.file 13 "../../modules/ChibiOS/os/rt/include/chtm.h"
 340              		.file 14 "../../modules/ChibiOS/os/rt/include/chstats.h"
 341              		.file 15 "../../modules/ChibiOS/os/rt/include/chsem.h"
 342              		.file 16 "../../modules/ChibiOS/os/rt/include/chmtx.h"
ARM GAS  /tmp/ccaJeJ8X.s 			page 7


 343              		.file 17 "../../modules/ChibiOS/os/rt/include/chsys.h"
 344              		.file 18 "../../modules/ChibiOS/os/rt/include/chregistry.h"
 345              		.file 19 "../../modules/ChibiOS/os/oslib/include/chmemcore.h"
 346              		.file 20 "../../modules/ChibiOS/os/oslib/include/chmempools.h"
 347              		.file 21 "../../modules/ChibiOS/os/oslib/include/chfactory.h"
 348              		.section	.debug_info,"",%progbits
 349              	.Ldebug_info0:
 350 0000 2E0E0000 		.4byte	0xe2e
 351 0004 0400     		.2byte	0x4
 352 0006 00000000 		.4byte	.Ldebug_abbrev0
 353 000a 04       		.byte	0x4
 354 000b 01       		.uleb128 0x1
 355 000c 75010000 		.4byte	.LASF189
 356 0010 0C       		.byte	0xc
 357 0011 37000000 		.4byte	.LASF190
 358 0015 F9060000 		.4byte	.LASF191
 359 0019 70000000 		.4byte	.Ldebug_ranges0+0x70
 360 001d 00000000 		.4byte	0
 361 0021 00000000 		.4byte	.Ldebug_line0
 362 0025 02       		.uleb128 0x2
 363 0026 04       		.byte	0x4
 364 0027 05       		.byte	0x5
 365 0028 696E7400 		.ascii	"int\000"
 366 002c 03       		.uleb128 0x3
 367 002d 0D000000 		.4byte	.LASF4
 368 0031 03       		.byte	0x3
 369 0032 D8       		.byte	0xd8
 370 0033 37000000 		.4byte	0x37
 371 0037 04       		.uleb128 0x4
 372 0038 04       		.byte	0x4
 373 0039 07       		.byte	0x7
 374 003a 73030000 		.4byte	.LASF0
 375 003e 04       		.uleb128 0x4
 376 003f 08       		.byte	0x8
 377 0040 05       		.byte	0x5
 378 0041 4F010000 		.4byte	.LASF1
 379 0045 04       		.uleb128 0x4
 380 0046 08       		.byte	0x8
 381 0047 04       		.byte	0x4
 382 0048 F6020000 		.4byte	.LASF2
 383 004c 04       		.uleb128 0x4
 384 004d 01       		.byte	0x1
 385 004e 06       		.byte	0x6
 386 004f 5D010000 		.4byte	.LASF3
 387 0053 03       		.uleb128 0x3
 388 0054 5E000000 		.4byte	.LASF5
 389 0058 04       		.byte	0x4
 390 0059 2B       		.byte	0x2b
 391 005a 5E000000 		.4byte	0x5e
 392 005e 04       		.uleb128 0x4
 393 005f 01       		.byte	0x1
 394 0060 08       		.byte	0x8
 395 0061 1F060000 		.4byte	.LASF6
 396 0065 04       		.uleb128 0x4
 397 0066 02       		.byte	0x2
 398 0067 05       		.byte	0x5
 399 0068 78060000 		.4byte	.LASF7
ARM GAS  /tmp/ccaJeJ8X.s 			page 8


 400 006c 03       		.uleb128 0x3
 401 006d 83070000 		.4byte	.LASF8
 402 0071 04       		.byte	0x4
 403 0072 39       		.byte	0x39
 404 0073 77000000 		.4byte	0x77
 405 0077 04       		.uleb128 0x4
 406 0078 02       		.byte	0x2
 407 0079 07       		.byte	0x7
 408 007a F3070000 		.4byte	.LASF9
 409 007e 03       		.uleb128 0x3
 410 007f 96040000 		.4byte	.LASF10
 411 0083 04       		.byte	0x4
 412 0084 4D       		.byte	0x4d
 413 0085 89000000 		.4byte	0x89
 414 0089 04       		.uleb128 0x4
 415 008a 04       		.byte	0x4
 416 008b 05       		.byte	0x5
 417 008c C3020000 		.4byte	.LASF11
 418 0090 03       		.uleb128 0x3
 419 0091 02030000 		.4byte	.LASF12
 420 0095 04       		.byte	0x4
 421 0096 4F       		.byte	0x4f
 422 0097 9B000000 		.4byte	0x9b
 423 009b 04       		.uleb128 0x4
 424 009c 04       		.byte	0x4
 425 009d 07       		.byte	0x7
 426 009e 56070000 		.4byte	.LASF13
 427 00a2 03       		.uleb128 0x3
 428 00a3 88050000 		.4byte	.LASF14
 429 00a7 04       		.byte	0x4
 430 00a8 69       		.byte	0x69
 431 00a9 AD000000 		.4byte	0xad
 432 00ad 04       		.uleb128 0x4
 433 00ae 08       		.byte	0x8
 434 00af 07       		.byte	0x7
 435 00b0 D1000000 		.4byte	.LASF15
 436 00b4 03       		.uleb128 0x3
 437 00b5 80080000 		.4byte	.LASF16
 438 00b9 05       		.byte	0x5
 439 00ba 18       		.byte	0x18
 440 00bb 53000000 		.4byte	0x53
 441 00bf 05       		.uleb128 0x5
 442 00c0 B4000000 		.4byte	0xb4
 443 00c4 03       		.uleb128 0x3
 444 00c5 53040000 		.4byte	.LASF17
 445 00c9 05       		.byte	0x5
 446 00ca 24       		.byte	0x24
 447 00cb 6C000000 		.4byte	0x6c
 448 00cf 03       		.uleb128 0x3
 449 00d0 17060000 		.4byte	.LASF18
 450 00d4 05       		.byte	0x5
 451 00d5 2C       		.byte	0x2c
 452 00d6 7E000000 		.4byte	0x7e
 453 00da 06       		.uleb128 0x6
 454 00db CF000000 		.4byte	0xcf
 455 00df 03       		.uleb128 0x3
 456 00e0 F7080000 		.4byte	.LASF19
ARM GAS  /tmp/ccaJeJ8X.s 			page 9


 457 00e4 05       		.byte	0x5
 458 00e5 30       		.byte	0x30
 459 00e6 90000000 		.4byte	0x90
 460 00ea 06       		.uleb128 0x6
 461 00eb DF000000 		.4byte	0xdf
 462 00ef 05       		.uleb128 0x5
 463 00f0 EA000000 		.4byte	0xea
 464 00f4 03       		.uleb128 0x3
 465 00f5 21000000 		.4byte	.LASF20
 466 00f9 05       		.byte	0x5
 467 00fa 3C       		.byte	0x3c
 468 00fb A2000000 		.4byte	0xa2
 469 00ff 03       		.uleb128 0x3
 470 0100 1A080000 		.4byte	.LASF21
 471 0104 06       		.byte	0x6
 472 0105 27       		.byte	0x27
 473 0106 DF000000 		.4byte	0xdf
 474 010a 03       		.uleb128 0x3
 475 010b 3C010000 		.4byte	.LASF22
 476 010f 06       		.byte	0x6
 477 0110 28       		.byte	0x28
 478 0111 F4000000 		.4byte	0xf4
 479 0115 03       		.uleb128 0x3
 480 0116 4B040000 		.4byte	.LASF23
 481 011a 06       		.byte	0x6
 482 011b 2A       		.byte	0x2a
 483 011c B4000000 		.4byte	0xb4
 484 0120 03       		.uleb128 0x3
 485 0121 CC020000 		.4byte	.LASF24
 486 0125 06       		.byte	0x6
 487 0126 2B       		.byte	0x2b
 488 0127 B4000000 		.4byte	0xb4
 489 012b 03       		.uleb128 0x3
 490 012c A8050000 		.4byte	.LASF25
 491 0130 06       		.byte	0x6
 492 0131 2C       		.byte	0x2c
 493 0132 B4000000 		.4byte	0xb4
 494 0136 03       		.uleb128 0x3
 495 0137 F2050000 		.4byte	.LASF26
 496 013b 06       		.byte	0x6
 497 013c 2E       		.byte	0x2e
 498 013d DF000000 		.4byte	0xdf
 499 0141 03       		.uleb128 0x3
 500 0142 11040000 		.4byte	.LASF27
 501 0146 06       		.byte	0x6
 502 0147 2F       		.byte	0x2f
 503 0148 CF000000 		.4byte	0xcf
 504 014c 03       		.uleb128 0x3
 505 014d 75040000 		.4byte	.LASF28
 506 0151 06       		.byte	0x6
 507 0152 31       		.byte	0x31
 508 0153 DF000000 		.4byte	0xdf
 509 0157 03       		.uleb128 0x3
 510 0158 5E030000 		.4byte	.LASF29
 511 015c 06       		.byte	0x6
 512 015d 33       		.byte	0x33
 513 015e CF000000 		.4byte	0xcf
ARM GAS  /tmp/ccaJeJ8X.s 			page 10


 514 0162 03       		.uleb128 0x3
 515 0163 1C040000 		.4byte	.LASF30
 516 0167 06       		.byte	0x6
 517 0168 34       		.byte	0x34
 518 0169 DF000000 		.4byte	0xdf
 519 016d 03       		.uleb128 0x3
 520 016e 8E070000 		.4byte	.LASF31
 521 0172 07       		.byte	0x7
 522 0173 34       		.byte	0x34
 523 0174 78010000 		.4byte	0x178
 524 0178 07       		.uleb128 0x7
 525 0179 B5030000 		.4byte	.LASF50
 526 017d 60       		.byte	0x60
 527 017e 08       		.byte	0x8
 528 017f 8E       		.byte	0x8e
 529 0180 63020000 		.4byte	0x263
 530 0184 08       		.uleb128 0x8
 531 0185 D3030000 		.4byte	.LASF32
 532 0189 08       		.byte	0x8
 533 018a 8F       		.byte	0x8f
 534 018b 98020000 		.4byte	0x298
 535 018f 00       		.byte	0
 536 0190 08       		.uleb128 0x8
 537 0191 72050000 		.4byte	.LASF33
 538 0195 08       		.byte	0x8
 539 0196 90       		.byte	0x90
 540 0197 36010000 		.4byte	0x136
 541 019b 08       		.byte	0x8
 542 019c 09       		.uleb128 0x9
 543 019d 63747800 		.ascii	"ctx\000"
 544 01a1 08       		.byte	0x8
 545 01a2 91       		.byte	0x91
 546 01a3 5B060000 		.4byte	0x65b
 547 01a7 0C       		.byte	0xc
 548 01a8 08       		.uleb128 0x8
 549 01a9 C3040000 		.4byte	.LASF34
 550 01ad 08       		.byte	0x8
 551 01ae 93       		.byte	0x93
 552 01af 6E020000 		.4byte	0x26e
 553 01b3 10       		.byte	0x10
 554 01b4 08       		.uleb128 0x8
 555 01b5 74070000 		.4byte	.LASF35
 556 01b9 08       		.byte	0x8
 557 01ba 94       		.byte	0x94
 558 01bb 6E020000 		.4byte	0x26e
 559 01bf 14       		.byte	0x14
 560 01c0 08       		.uleb128 0x8
 561 01c1 FC030000 		.4byte	.LASF36
 562 01c5 08       		.byte	0x8
 563 01c6 9B       		.byte	0x9b
 564 01c7 41090000 		.4byte	0x941
 565 01cb 18       		.byte	0x18
 566 01cc 08       		.uleb128 0x8
 567 01cd 68070000 		.4byte	.LASF37
 568 01d1 08       		.byte	0x8
 569 01d2 A4       		.byte	0xa4
 570 01d3 58090000 		.4byte	0x958
ARM GAS  /tmp/ccaJeJ8X.s 			page 11


 571 01d7 1C       		.byte	0x1c
 572 01d8 08       		.uleb128 0x8
 573 01d9 A8020000 		.4byte	.LASF38
 574 01dd 08       		.byte	0x8
 575 01de A9       		.byte	0xa9
 576 01df 20010000 		.4byte	0x120
 577 01e3 20       		.byte	0x20
 578 01e4 08       		.uleb128 0x8
 579 01e5 88080000 		.4byte	.LASF39
 580 01e9 08       		.byte	0x8
 581 01ea AD       		.byte	0xad
 582 01eb 15010000 		.4byte	0x115
 583 01ef 21       		.byte	0x21
 584 01f0 08       		.uleb128 0x8
 585 01f1 CE050000 		.4byte	.LASF40
 586 01f5 08       		.byte	0x8
 587 01f6 B2       		.byte	0xb2
 588 01f7 2B010000 		.4byte	0x12b
 589 01fb 22       		.byte	0x22
 590 01fc 0A       		.uleb128 0xa
 591 01fd 7500     		.ascii	"u\000"
 592 01ff 08       		.byte	0x8
 593 0200 0301     		.2byte	0x103
 594 0202 77080000 		.4byte	0x877
 595 0206 24       		.byte	0x24
 596 0207 0B       		.uleb128 0xb
 597 0208 2F030000 		.4byte	.LASF41
 598 020c 08       		.byte	0x8
 599 020d 0801     		.2byte	0x108
 600 020f 74020000 		.4byte	0x274
 601 0213 28       		.byte	0x28
 602 0214 0B       		.uleb128 0xb
 603 0215 64030000 		.4byte	.LASF42
 604 0219 08       		.byte	0x8
 605 021a 0E01     		.2byte	0x10e
 606 021c 98020000 		.4byte	0x298
 607 0220 2C       		.byte	0x2c
 608 0221 0B       		.uleb128 0xb
 609 0222 23040000 		.4byte	.LASF43
 610 0226 08       		.byte	0x8
 611 0227 1401     		.2byte	0x114
 612 0229 4C010000 		.4byte	0x14c
 613 022d 34       		.byte	0x34
 614 022e 0B       		.uleb128 0xb
 615 022f DC080000 		.4byte	.LASF44
 616 0233 08       		.byte	0x8
 617 0234 1B01     		.2byte	0x11b
 618 0236 3B090000 		.4byte	0x93b
 619 023a 38       		.byte	0x38
 620 023b 0B       		.uleb128 0xb
 621 023c D0040000 		.4byte	.LASF45
 622 0240 08       		.byte	0x8
 623 0241 1F01     		.2byte	0x11f
 624 0243 36010000 		.4byte	0x136
 625 0247 3C       		.byte	0x3c
 626 0248 0B       		.uleb128 0xb
 627 0249 D9030000 		.4byte	.LASF46
ARM GAS  /tmp/ccaJeJ8X.s 			page 12


 628 024d 08       		.byte	0x8
 629 024e 2601     		.2byte	0x126
 630 0250 4B030000 		.4byte	0x34b
 631 0254 40       		.byte	0x40
 632 0255 0B       		.uleb128 0xb
 633 0256 DA020000 		.4byte	.LASF47
 634 025a 08       		.byte	0x8
 635 025b 2C01     		.2byte	0x12c
 636 025d 28080000 		.4byte	0x828
 637 0261 48       		.byte	0x48
 638 0262 00       		.byte	0
 639 0263 03       		.uleb128 0x3
 640 0264 EA040000 		.4byte	.LASF48
 641 0268 07       		.byte	0x7
 642 0269 39       		.byte	0x39
 643 026a 6E020000 		.4byte	0x26e
 644 026e 0C       		.uleb128 0xc
 645 026f 04       		.byte	0x4
 646 0270 6D010000 		.4byte	0x16d
 647 0274 03       		.uleb128 0x3
 648 0275 A7080000 		.4byte	.LASF49
 649 0279 07       		.byte	0x7
 650 027a 3E       		.byte	0x3e
 651 027b 7F020000 		.4byte	0x27f
 652 027f 07       		.uleb128 0x7
 653 0280 3A070000 		.4byte	.LASF51
 654 0284 04       		.byte	0x4
 655 0285 08       		.byte	0x8
 656 0286 7C       		.byte	0x7c
 657 0287 98020000 		.4byte	0x298
 658 028b 08       		.uleb128 0x8
 659 028c 37010000 		.4byte	.LASF52
 660 0290 08       		.byte	0x8
 661 0291 7D       		.byte	0x7d
 662 0292 6E020000 		.4byte	0x26e
 663 0296 00       		.byte	0
 664 0297 00       		.byte	0
 665 0298 03       		.uleb128 0x3
 666 0299 5B080000 		.4byte	.LASF53
 667 029d 07       		.byte	0x7
 668 029e 45       		.byte	0x45
 669 029f A3020000 		.4byte	0x2a3
 670 02a3 07       		.uleb128 0x7
 671 02a4 79000000 		.4byte	.LASF54
 672 02a8 08       		.byte	0x8
 673 02a9 08       		.byte	0x8
 674 02aa 83       		.byte	0x83
 675 02ab C8020000 		.4byte	0x2c8
 676 02af 08       		.uleb128 0x8
 677 02b0 37010000 		.4byte	.LASF52
 678 02b4 08       		.byte	0x8
 679 02b5 84       		.byte	0x84
 680 02b6 6E020000 		.4byte	0x26e
 681 02ba 00       		.byte	0
 682 02bb 08       		.uleb128 0x8
 683 02bc 68000000 		.4byte	.LASF55
 684 02c0 08       		.byte	0x8
ARM GAS  /tmp/ccaJeJ8X.s 			page 13


 685 02c1 85       		.byte	0x85
 686 02c2 6E020000 		.4byte	0x26e
 687 02c6 04       		.byte	0x4
 688 02c7 00       		.byte	0
 689 02c8 03       		.uleb128 0x3
 690 02c9 00000000 		.4byte	.LASF56
 691 02cd 07       		.byte	0x7
 692 02ce 4C       		.byte	0x4c
 693 02cf D3020000 		.4byte	0x2d3
 694 02d3 0D       		.uleb128 0xd
 695 02d4 67040000 		.4byte	.LASF57
 696 02d8 1C       		.byte	0x1c
 697 02d9 08       		.byte	0x8
 698 02da 5E01     		.2byte	0x15e
 699 02dc 2F030000 		.4byte	0x32f
 700 02e0 0B       		.uleb128 0xb
 701 02e1 D3030000 		.4byte	.LASF32
 702 02e5 08       		.byte	0x8
 703 02e6 5F01     		.2byte	0x15f
 704 02e8 98020000 		.4byte	0x298
 705 02ec 00       		.byte	0
 706 02ed 0B       		.uleb128 0xb
 707 02ee 72050000 		.4byte	.LASF33
 708 02f2 08       		.byte	0x8
 709 02f3 6001     		.2byte	0x160
 710 02f5 36010000 		.4byte	0x136
 711 02f9 08       		.byte	0x8
 712 02fa 0A       		.uleb128 0xa
 713 02fb 63747800 		.ascii	"ctx\000"
 714 02ff 08       		.byte	0x8
 715 0300 6201     		.2byte	0x162
 716 0302 5B060000 		.4byte	0x65b
 717 0306 0C       		.byte	0xc
 718 0307 0B       		.uleb128 0xb
 719 0308 C3040000 		.4byte	.LASF34
 720 030c 08       		.byte	0x8
 721 030d 6501     		.2byte	0x165
 722 030f 6E020000 		.4byte	0x26e
 723 0313 10       		.byte	0x10
 724 0314 0B       		.uleb128 0xb
 725 0315 74070000 		.4byte	.LASF35
 726 0319 08       		.byte	0x8
 727 031a 6601     		.2byte	0x166
 728 031c 6E020000 		.4byte	0x26e
 729 0320 14       		.byte	0x14
 730 0321 0B       		.uleb128 0xb
 731 0322 80050000 		.4byte	.LASF58
 732 0326 08       		.byte	0x8
 733 0327 6901     		.2byte	0x169
 734 0329 6E020000 		.4byte	0x26e
 735 032d 18       		.byte	0x18
 736 032e 00       		.byte	0
 737 032f 03       		.uleb128 0x3
 738 0330 C6070000 		.4byte	.LASF59
 739 0334 07       		.byte	0x7
 740 0335 51       		.byte	0x51
 741 0336 3A030000 		.4byte	0x33a
ARM GAS  /tmp/ccaJeJ8X.s 			page 14


 742 033a 0C       		.uleb128 0xc
 743 033b 04       		.byte	0x4
 744 033c 40030000 		.4byte	0x340
 745 0340 0E       		.uleb128 0xe
 746 0341 4B030000 		.4byte	0x34b
 747 0345 0F       		.uleb128 0xf
 748 0346 4B030000 		.4byte	0x34b
 749 034a 00       		.byte	0
 750 034b 10       		.uleb128 0x10
 751 034c 04       		.byte	0x4
 752 034d 03       		.uleb128 0x3
 753 034e D3050000 		.4byte	.LASF60
 754 0352 07       		.byte	0x7
 755 0353 56       		.byte	0x56
 756 0354 58030000 		.4byte	0x358
 757 0358 0D       		.uleb128 0xd
 758 0359 B0060000 		.4byte	.LASF61
 759 035d 14       		.byte	0x14
 760 035e 08       		.byte	0x8
 761 035f 3901     		.2byte	0x139
 762 0361 A7030000 		.4byte	0x3a7
 763 0365 0B       		.uleb128 0xb
 764 0366 37010000 		.4byte	.LASF52
 765 036a 08       		.byte	0x8
 766 036b 3A01     		.2byte	0x13a
 767 036d 5E090000 		.4byte	0x95e
 768 0371 00       		.byte	0
 769 0372 0B       		.uleb128 0xb
 770 0373 68000000 		.4byte	.LASF55
 771 0377 08       		.byte	0x8
 772 0378 3B01     		.2byte	0x13b
 773 037a 5E090000 		.4byte	0x95e
 774 037e 04       		.byte	0x4
 775 037f 0B       		.uleb128 0xb
 776 0380 14000000 		.4byte	.LASF62
 777 0384 08       		.byte	0x8
 778 0385 3C01     		.2byte	0x13c
 779 0387 8B040000 		.4byte	0x48b
 780 038b 08       		.byte	0x8
 781 038c 0B       		.uleb128 0xb
 782 038d D5020000 		.4byte	.LASF63
 783 0391 08       		.byte	0x8
 784 0392 3D01     		.2byte	0x13d
 785 0394 2F030000 		.4byte	0x32f
 786 0398 0C       		.byte	0xc
 787 0399 0A       		.uleb128 0xa
 788 039a 70617200 		.ascii	"par\000"
 789 039e 08       		.byte	0x8
 790 039f 3F01     		.2byte	0x13f
 791 03a1 4B030000 		.4byte	0x34b
 792 03a5 10       		.byte	0x10
 793 03a6 00       		.byte	0
 794 03a7 03       		.uleb128 0x3
 795 03a8 04010000 		.4byte	.LASF64
 796 03ac 07       		.byte	0x7
 797 03ad 5B       		.byte	0x5b
 798 03ae B2030000 		.4byte	0x3b2
ARM GAS  /tmp/ccaJeJ8X.s 			page 15


 799 03b2 0D       		.uleb128 0xd
 800 03b3 FD040000 		.4byte	.LASF65
 801 03b7 10       		.byte	0x10
 802 03b8 08       		.byte	0x8
 803 03b9 4901     		.2byte	0x149
 804 03bb F4030000 		.4byte	0x3f4
 805 03bf 0B       		.uleb128 0xb
 806 03c0 37010000 		.4byte	.LASF52
 807 03c4 08       		.byte	0x8
 808 03c5 4A01     		.2byte	0x14a
 809 03c7 5E090000 		.4byte	0x95e
 810 03cb 00       		.byte	0
 811 03cc 0B       		.uleb128 0xb
 812 03cd 68000000 		.4byte	.LASF55
 813 03d1 08       		.byte	0x8
 814 03d2 4C01     		.2byte	0x14c
 815 03d4 5E090000 		.4byte	0x95e
 816 03d8 04       		.byte	0x4
 817 03d9 0B       		.uleb128 0xb
 818 03da 14000000 		.4byte	.LASF62
 819 03de 08       		.byte	0x8
 820 03df 4E01     		.2byte	0x14e
 821 03e1 8B040000 		.4byte	0x48b
 822 03e5 08       		.byte	0x8
 823 03e6 0B       		.uleb128 0xb
 824 03e7 82060000 		.4byte	.LASF66
 825 03eb 08       		.byte	0x8
 826 03ec 5601     		.2byte	0x156
 827 03ee 80040000 		.4byte	0x480
 828 03f2 0C       		.byte	0xc
 829 03f3 00       		.byte	0
 830 03f4 03       		.uleb128 0x3
 831 03f5 8A000000 		.4byte	.LASF67
 832 03f9 07       		.byte	0x7
 833 03fa 60       		.byte	0x60
 834 03fb FF030000 		.4byte	0x3ff
 835 03ff 0D       		.uleb128 0xd
 836 0400 1F030000 		.4byte	.LASF68
 837 0404 04       		.byte	0x4
 838 0405 08       		.byte	0x8
 839 0406 7001     		.2byte	0x170
 840 0408 1A040000 		.4byte	0x41a
 841 040c 0B       		.uleb128 0xb
 842 040d CF070000 		.4byte	.LASF69
 843 0411 08       		.byte	0x8
 844 0412 7801     		.2byte	0x178
 845 0414 47090000 		.4byte	0x947
 846 0418 00       		.byte	0
 847 0419 00       		.byte	0
 848 041a 03       		.uleb128 0x3
 849 041b 37040000 		.4byte	.LASF70
 850 041f 07       		.byte	0x7
 851 0420 65       		.byte	0x65
 852 0421 25040000 		.4byte	0x425
 853 0425 0D       		.uleb128 0xd
 854 0426 92060000 		.4byte	.LASF71
 855 042a D0       		.byte	0xd0
ARM GAS  /tmp/ccaJeJ8X.s 			page 16


 856 042b 08       		.byte	0x8
 857 042c 9001     		.2byte	0x190
 858 042e 80040000 		.4byte	0x480
 859 0432 0B       		.uleb128 0xb
 860 0433 37030000 		.4byte	.LASF72
 861 0437 08       		.byte	0x8
 862 0438 9401     		.2byte	0x194
 863 043a C8020000 		.4byte	0x2c8
 864 043e 00       		.byte	0
 865 043f 0B       		.uleb128 0xb
 866 0440 8B020000 		.4byte	.LASF73
 867 0444 08       		.byte	0x8
 868 0445 9801     		.2byte	0x198
 869 0447 A7030000 		.4byte	0x3a7
 870 044b 1C       		.byte	0x1c
 871 044c 0A       		.uleb128 0xa
 872 044d 64626700 		.ascii	"dbg\000"
 873 0451 08       		.byte	0x8
 874 0452 9C01     		.2byte	0x19c
 875 0454 F4030000 		.4byte	0x3f4
 876 0458 2C       		.byte	0x2c
 877 0459 0B       		.uleb128 0xb
 878 045a F1000000 		.4byte	.LASF74
 879 045e 08       		.byte	0x8
 880 045f A001     		.2byte	0x1a0
 881 0461 6D010000 		.4byte	0x16d
 882 0465 30       		.byte	0x30
 883 0466 0A       		.uleb128 0xa
 884 0467 746D00   		.ascii	"tm\000"
 885 046a 08       		.byte	0x8
 886 046b A501     		.2byte	0x1a5
 887 046d DA070000 		.4byte	0x7da
 888 0471 90       		.byte	0x90
 889 0472 0B       		.uleb128 0xb
 890 0473 2A000000 		.4byte	.LASF75
 891 0477 08       		.byte	0x8
 892 0478 AB01     		.2byte	0x1ab
 893 047a 6C080000 		.4byte	0x86c
 894 047e 98       		.byte	0x98
 895 047f 00       		.byte	0
 896 0480 03       		.uleb128 0x3
 897 0481 BC070000 		.4byte	.LASF76
 898 0485 09       		.byte	0x9
 899 0486 6D       		.byte	0x6d
 900 0487 DF000000 		.4byte	0xdf
 901 048b 03       		.uleb128 0x3
 902 048c 50030000 		.4byte	.LASF77
 903 0490 09       		.byte	0x9
 904 0491 79       		.byte	0x79
 905 0492 DF000000 		.4byte	0xdf
 906 0496 04       		.uleb128 0x4
 907 0497 04       		.byte	0x4
 908 0498 07       		.byte	0x7
 909 0499 E1040000 		.4byte	.LASF78
 910 049d 11       		.uleb128 0x11
 911 049e DF000000 		.4byte	0xdf
 912 04a2 AD040000 		.4byte	0x4ad
ARM GAS  /tmp/ccaJeJ8X.s 			page 17


 913 04a6 12       		.uleb128 0x12
 914 04a7 96040000 		.4byte	0x496
 915 04ab 00       		.byte	0
 916 04ac 00       		.byte	0
 917 04ad 13       		.uleb128 0x13
 918 04ae 5C       		.byte	0x5c
 919 04af 0A       		.byte	0xa
 920 04b0 9203     		.2byte	0x392
 921 04b2 E2050000 		.4byte	0x5e2
 922 04b6 0B       		.uleb128 0xb
 923 04b7 2F080000 		.4byte	.LASF79
 924 04bb 0A       		.byte	0xa
 925 04bc 9403     		.2byte	0x394
 926 04be EA000000 		.4byte	0xea
 927 04c2 00       		.byte	0
 928 04c3 0B       		.uleb128 0xb
 929 04c4 C9040000 		.4byte	.LASF80
 930 04c8 0A       		.byte	0xa
 931 04c9 9503     		.2byte	0x395
 932 04cb EA000000 		.4byte	0xea
 933 04cf 04       		.byte	0x4
 934 04d0 0B       		.uleb128 0xb
 935 04d1 6E010000 		.4byte	.LASF81
 936 04d5 0A       		.byte	0xa
 937 04d6 9603     		.2byte	0x396
 938 04d8 EA000000 		.4byte	0xea
 939 04dc 08       		.byte	0x8
 940 04dd 0B       		.uleb128 0xb
 941 04de 0A040000 		.4byte	.LASF82
 942 04e2 0A       		.byte	0xa
 943 04e3 9703     		.2byte	0x397
 944 04e5 EA000000 		.4byte	0xea
 945 04e9 0C       		.byte	0xc
 946 04ea 0B       		.uleb128 0xb
 947 04eb 01040000 		.4byte	.LASF83
 948 04ef 0A       		.byte	0xa
 949 04f0 9803     		.2byte	0x398
 950 04f2 EA000000 		.4byte	0xea
 951 04f6 10       		.byte	0x10
 952 04f7 0B       		.uleb128 0xb
 953 04f8 F2060000 		.4byte	.LASF84
 954 04fc 0A       		.byte	0xa
 955 04fd 9903     		.2byte	0x399
 956 04ff EA000000 		.4byte	0xea
 957 0503 14       		.byte	0x14
 958 0504 0B       		.uleb128 0xb
 959 0505 98080000 		.4byte	.LASF85
 960 0509 0A       		.byte	0xa
 961 050a 9A03     		.2byte	0x39a
 962 050c EA000000 		.4byte	0xea
 963 0510 18       		.byte	0x18
 964 0511 0B       		.uleb128 0xb
 965 0512 FA050000 		.4byte	.LASF86
 966 0516 0A       		.byte	0xa
 967 0517 9B03     		.2byte	0x39b
 968 0519 EF000000 		.4byte	0xef
 969 051d 1C       		.byte	0x1c
ARM GAS  /tmp/ccaJeJ8X.s 			page 18


 970 051e 0B       		.uleb128 0xb
 971 051f 4F050000 		.4byte	.LASF87
 972 0523 0A       		.byte	0xa
 973 0524 9C03     		.2byte	0x39c
 974 0526 EA000000 		.4byte	0xea
 975 052a 20       		.byte	0x20
 976 052b 0B       		.uleb128 0xb
 977 052c 6D030000 		.4byte	.LASF88
 978 0530 0A       		.byte	0xa
 979 0531 9D03     		.2byte	0x39d
 980 0533 EA000000 		.4byte	0xea
 981 0537 24       		.byte	0x24
 982 0538 0B       		.uleb128 0xb
 983 0539 50060000 		.4byte	.LASF89
 984 053d 0A       		.byte	0xa
 985 053e 9E03     		.2byte	0x39e
 986 0540 EA000000 		.4byte	0xea
 987 0544 28       		.byte	0x28
 988 0545 0B       		.uleb128 0xb
 989 0546 B0050000 		.4byte	.LASF90
 990 054a 0A       		.byte	0xa
 991 054b 9F03     		.2byte	0x39f
 992 054d 9D040000 		.4byte	0x49d
 993 0551 2C       		.byte	0x2c
 994 0552 0B       		.uleb128 0xb
 995 0553 55050000 		.4byte	.LASF91
 996 0557 0A       		.byte	0xa
 997 0558 A003     		.2byte	0x3a0
 998 055a EA000000 		.4byte	0xea
 999 055e 30       		.byte	0x30
 1000 055f 0B       		.uleb128 0xb
 1001 0560 11060000 		.4byte	.LASF92
 1002 0564 0A       		.byte	0xa
 1003 0565 A103     		.2byte	0x3a1
 1004 0567 EA000000 		.4byte	0xea
 1005 056b 34       		.byte	0x34
 1006 056c 0B       		.uleb128 0xb
 1007 056d 5A060000 		.4byte	.LASF93
 1008 0571 0A       		.byte	0xa
 1009 0572 A203     		.2byte	0x3a2
 1010 0574 EA000000 		.4byte	0xea
 1011 0578 38       		.byte	0x38
 1012 0579 0B       		.uleb128 0xb
 1013 057a BA050000 		.4byte	.LASF94
 1014 057e 0A       		.byte	0xa
 1015 057f A303     		.2byte	0x3a3
 1016 0581 9D040000 		.4byte	0x49d
 1017 0585 3C       		.byte	0x3c
 1018 0586 0B       		.uleb128 0xb
 1019 0587 5B050000 		.4byte	.LASF95
 1020 058b 0A       		.byte	0xa
 1021 058c A403     		.2byte	0x3a4
 1022 058e EA000000 		.4byte	0xea
 1023 0592 40       		.byte	0x40
 1024 0593 0B       		.uleb128 0xb
 1025 0594 80030000 		.4byte	.LASF96
 1026 0598 0A       		.byte	0xa
ARM GAS  /tmp/ccaJeJ8X.s 			page 19


 1027 0599 A503     		.2byte	0x3a5
 1028 059b EA000000 		.4byte	0xea
 1029 059f 44       		.byte	0x44
 1030 05a0 0B       		.uleb128 0xb
 1031 05a1 64060000 		.4byte	.LASF97
 1032 05a5 0A       		.byte	0xa
 1033 05a6 A603     		.2byte	0x3a6
 1034 05a8 EA000000 		.4byte	0xea
 1035 05ac 48       		.byte	0x48
 1036 05ad 0B       		.uleb128 0xb
 1037 05ae C4050000 		.4byte	.LASF98
 1038 05b2 0A       		.byte	0xa
 1039 05b3 A703     		.2byte	0x3a7
 1040 05b5 9D040000 		.4byte	0x49d
 1041 05b9 4C       		.byte	0x4c
 1042 05ba 0B       		.uleb128 0xb
 1043 05bb 61050000 		.4byte	.LASF99
 1044 05bf 0A       		.byte	0xa
 1045 05c0 A803     		.2byte	0x3a8
 1046 05c2 EA000000 		.4byte	0xea
 1047 05c6 50       		.byte	0x50
 1048 05c7 0B       		.uleb128 0xb
 1049 05c8 96030000 		.4byte	.LASF100
 1050 05cc 0A       		.byte	0xa
 1051 05cd A903     		.2byte	0x3a9
 1052 05cf EA000000 		.4byte	0xea
 1053 05d3 54       		.byte	0x54
 1054 05d4 0B       		.uleb128 0xb
 1055 05d5 6E060000 		.4byte	.LASF101
 1056 05d9 0A       		.byte	0xa
 1057 05da AA03     		.2byte	0x3aa
 1058 05dc EA000000 		.4byte	0xea
 1059 05e0 58       		.byte	0x58
 1060 05e1 00       		.byte	0
 1061 05e2 14       		.uleb128 0x14
 1062 05e3 06080000 		.4byte	.LASF102
 1063 05e7 0A       		.byte	0xa
 1064 05e8 AB03     		.2byte	0x3ab
 1065 05ea AD040000 		.4byte	0x4ad
 1066 05ee 15       		.uleb128 0x15
 1067 05ef 43060000 		.4byte	.LASF103
 1068 05f3 0A       		.byte	0xa
 1069 05f4 0408     		.2byte	0x804
 1070 05f6 DA000000 		.4byte	0xda
 1071 05fa 16       		.uleb128 0x16
 1072 05fb 86030000 		.4byte	.LASF104
 1073 05ff 0B       		.byte	0xb
 1074 0600 4C       		.byte	0x4c
 1075 0601 DF000000 		.4byte	0xdf
 1076 0605 11       		.uleb128 0x11
 1077 0606 BF000000 		.4byte	0xbf
 1078 060a 15060000 		.4byte	0x615
 1079 060e 12       		.uleb128 0x12
 1080 060f 96040000 		.4byte	0x496
 1081 0613 0F       		.byte	0xf
 1082 0614 00       		.byte	0
 1083 0615 05       		.uleb128 0x5
ARM GAS  /tmp/ccaJeJ8X.s 			page 20


 1084 0616 05060000 		.4byte	0x605
 1085 061a 16       		.uleb128 0x16
 1086 061b 81040000 		.4byte	.LASF105
 1087 061f 0B       		.byte	0xb
 1088 0620 4E       		.byte	0x4e
 1089 0621 15060000 		.4byte	0x615
 1090 0625 11       		.uleb128 0x11
 1091 0626 BF000000 		.4byte	0xbf
 1092 062a 35060000 		.4byte	0x635
 1093 062e 12       		.uleb128 0x12
 1094 062f 96040000 		.4byte	0x496
 1095 0633 07       		.byte	0x7
 1096 0634 00       		.byte	0
 1097 0635 05       		.uleb128 0x5
 1098 0636 25060000 		.4byte	0x625
 1099 063a 16       		.uleb128 0x16
 1100 063b 41050000 		.4byte	.LASF106
 1101 063f 0B       		.byte	0xb
 1102 0640 4F       		.byte	0x4f
 1103 0641 35060000 		.4byte	0x635
 1104 0645 03       		.uleb128 0x3
 1105 0646 0D030000 		.4byte	.LASF107
 1106 064a 0C       		.byte	0xc
 1107 064b 65       		.byte	0x65
 1108 064c 4B030000 		.4byte	0x34b
 1109 0650 03       		.uleb128 0x3
 1110 0651 B8040000 		.4byte	.LASF108
 1111 0655 0C       		.byte	0xc
 1112 0656 6D       		.byte	0x6d
 1113 0657 F4000000 		.4byte	0xf4
 1114 065b 07       		.uleb128 0x7
 1115 065c AB000000 		.4byte	.LASF109
 1116 0660 04       		.byte	0x4
 1117 0661 0C       		.byte	0xc
 1118 0662 89       		.byte	0x89
 1119 0663 73060000 		.4byte	0x673
 1120 0667 09       		.uleb128 0x9
 1121 0668 737000   		.ascii	"sp\000"
 1122 066b 0C       		.byte	0xc
 1123 066c 8A       		.byte	0x8a
 1124 066d BF070000 		.4byte	0x7bf
 1125 0671 00       		.byte	0
 1126 0672 00       		.byte	0
 1127 0673 0D       		.uleb128 0xd
 1128 0674 6D000000 		.4byte	.LASF110
 1129 0678 64       		.byte	0x64
 1130 0679 02       		.byte	0x2
 1131 067a 5901     		.2byte	0x159
 1132 067c BF070000 		.4byte	0x7bf
 1133 0680 0A       		.uleb128 0xa
 1134 0681 73313600 		.ascii	"s16\000"
 1135 0685 02       		.byte	0x2
 1136 0686 5B01     		.2byte	0x15b
 1137 0688 45060000 		.4byte	0x645
 1138 068c 00       		.byte	0
 1139 068d 0A       		.uleb128 0xa
 1140 068e 73313700 		.ascii	"s17\000"
ARM GAS  /tmp/ccaJeJ8X.s 			page 21


 1141 0692 02       		.byte	0x2
 1142 0693 5C01     		.2byte	0x15c
 1143 0695 45060000 		.4byte	0x645
 1144 0699 04       		.byte	0x4
 1145 069a 0A       		.uleb128 0xa
 1146 069b 73313800 		.ascii	"s18\000"
 1147 069f 02       		.byte	0x2
 1148 06a0 5D01     		.2byte	0x15d
 1149 06a2 45060000 		.4byte	0x645
 1150 06a6 08       		.byte	0x8
 1151 06a7 0A       		.uleb128 0xa
 1152 06a8 73313900 		.ascii	"s19\000"
 1153 06ac 02       		.byte	0x2
 1154 06ad 5E01     		.2byte	0x15e
 1155 06af 45060000 		.4byte	0x645
 1156 06b3 0C       		.byte	0xc
 1157 06b4 0A       		.uleb128 0xa
 1158 06b5 73323000 		.ascii	"s20\000"
 1159 06b9 02       		.byte	0x2
 1160 06ba 5F01     		.2byte	0x15f
 1161 06bc 45060000 		.4byte	0x645
 1162 06c0 10       		.byte	0x10
 1163 06c1 0A       		.uleb128 0xa
 1164 06c2 73323100 		.ascii	"s21\000"
 1165 06c6 02       		.byte	0x2
 1166 06c7 6001     		.2byte	0x160
 1167 06c9 45060000 		.4byte	0x645
 1168 06cd 14       		.byte	0x14
 1169 06ce 0A       		.uleb128 0xa
 1170 06cf 73323200 		.ascii	"s22\000"
 1171 06d3 02       		.byte	0x2
 1172 06d4 6101     		.2byte	0x161
 1173 06d6 45060000 		.4byte	0x645
 1174 06da 18       		.byte	0x18
 1175 06db 0A       		.uleb128 0xa
 1176 06dc 73323300 		.ascii	"s23\000"
 1177 06e0 02       		.byte	0x2
 1178 06e1 6201     		.2byte	0x162
 1179 06e3 45060000 		.4byte	0x645
 1180 06e7 1C       		.byte	0x1c
 1181 06e8 0A       		.uleb128 0xa
 1182 06e9 73323400 		.ascii	"s24\000"
 1183 06ed 02       		.byte	0x2
 1184 06ee 6301     		.2byte	0x163
 1185 06f0 45060000 		.4byte	0x645
 1186 06f4 20       		.byte	0x20
 1187 06f5 0A       		.uleb128 0xa
 1188 06f6 73323500 		.ascii	"s25\000"
 1189 06fa 02       		.byte	0x2
 1190 06fb 6401     		.2byte	0x164
 1191 06fd 45060000 		.4byte	0x645
 1192 0701 24       		.byte	0x24
 1193 0702 0A       		.uleb128 0xa
 1194 0703 73323600 		.ascii	"s26\000"
 1195 0707 02       		.byte	0x2
 1196 0708 6501     		.2byte	0x165
 1197 070a 45060000 		.4byte	0x645
ARM GAS  /tmp/ccaJeJ8X.s 			page 22


 1198 070e 28       		.byte	0x28
 1199 070f 0A       		.uleb128 0xa
 1200 0710 73323700 		.ascii	"s27\000"
 1201 0714 02       		.byte	0x2
 1202 0715 6601     		.2byte	0x166
 1203 0717 45060000 		.4byte	0x645
 1204 071b 2C       		.byte	0x2c
 1205 071c 0A       		.uleb128 0xa
 1206 071d 73323800 		.ascii	"s28\000"
 1207 0721 02       		.byte	0x2
 1208 0722 6701     		.2byte	0x167
 1209 0724 45060000 		.4byte	0x645
 1210 0728 30       		.byte	0x30
 1211 0729 0A       		.uleb128 0xa
 1212 072a 73323900 		.ascii	"s29\000"
 1213 072e 02       		.byte	0x2
 1214 072f 6801     		.2byte	0x168
 1215 0731 45060000 		.4byte	0x645
 1216 0735 34       		.byte	0x34
 1217 0736 0A       		.uleb128 0xa
 1218 0737 73333000 		.ascii	"s30\000"
 1219 073b 02       		.byte	0x2
 1220 073c 6901     		.2byte	0x169
 1221 073e 45060000 		.4byte	0x645
 1222 0742 38       		.byte	0x38
 1223 0743 0A       		.uleb128 0xa
 1224 0744 73333100 		.ascii	"s31\000"
 1225 0748 02       		.byte	0x2
 1226 0749 6A01     		.2byte	0x16a
 1227 074b 45060000 		.4byte	0x645
 1228 074f 3C       		.byte	0x3c
 1229 0750 0A       		.uleb128 0xa
 1230 0751 723400   		.ascii	"r4\000"
 1231 0754 02       		.byte	0x2
 1232 0755 6C01     		.2byte	0x16c
 1233 0757 45060000 		.4byte	0x645
 1234 075b 40       		.byte	0x40
 1235 075c 0A       		.uleb128 0xa
 1236 075d 723500   		.ascii	"r5\000"
 1237 0760 02       		.byte	0x2
 1238 0761 6D01     		.2byte	0x16d
 1239 0763 45060000 		.4byte	0x645
 1240 0767 44       		.byte	0x44
 1241 0768 0A       		.uleb128 0xa
 1242 0769 723600   		.ascii	"r6\000"
 1243 076c 02       		.byte	0x2
 1244 076d 6E01     		.2byte	0x16e
 1245 076f 45060000 		.4byte	0x645
 1246 0773 48       		.byte	0x48
 1247 0774 0A       		.uleb128 0xa
 1248 0775 723700   		.ascii	"r7\000"
 1249 0778 02       		.byte	0x2
 1250 0779 6F01     		.2byte	0x16f
 1251 077b 45060000 		.4byte	0x645
 1252 077f 4C       		.byte	0x4c
 1253 0780 0A       		.uleb128 0xa
 1254 0781 723800   		.ascii	"r8\000"
ARM GAS  /tmp/ccaJeJ8X.s 			page 23


 1255 0784 02       		.byte	0x2
 1256 0785 7001     		.2byte	0x170
 1257 0787 45060000 		.4byte	0x645
 1258 078b 50       		.byte	0x50
 1259 078c 0A       		.uleb128 0xa
 1260 078d 723900   		.ascii	"r9\000"
 1261 0790 02       		.byte	0x2
 1262 0791 7101     		.2byte	0x171
 1263 0793 45060000 		.4byte	0x645
 1264 0797 54       		.byte	0x54
 1265 0798 0A       		.uleb128 0xa
 1266 0799 72313000 		.ascii	"r10\000"
 1267 079d 02       		.byte	0x2
 1268 079e 7201     		.2byte	0x172
 1269 07a0 45060000 		.4byte	0x645
 1270 07a4 58       		.byte	0x58
 1271 07a5 0A       		.uleb128 0xa
 1272 07a6 72313100 		.ascii	"r11\000"
 1273 07aa 02       		.byte	0x2
 1274 07ab 7301     		.2byte	0x173
 1275 07ad 45060000 		.4byte	0x645
 1276 07b1 5C       		.byte	0x5c
 1277 07b2 0A       		.uleb128 0xa
 1278 07b3 6C7200   		.ascii	"lr\000"
 1279 07b6 02       		.byte	0x2
 1280 07b7 7401     		.2byte	0x174
 1281 07b9 45060000 		.4byte	0x645
 1282 07bd 60       		.byte	0x60
 1283 07be 00       		.byte	0
 1284 07bf 0C       		.uleb128 0xc
 1285 07c0 04       		.byte	0x4
 1286 07c1 73060000 		.4byte	0x673
 1287 07c5 17       		.uleb128 0x17
 1288 07c6 04       		.byte	0x4
 1289 07c7 0D       		.byte	0xd
 1290 07c8 38       		.byte	0x38
 1291 07c9 DA070000 		.4byte	0x7da
 1292 07cd 08       		.uleb128 0x8
 1293 07ce D9070000 		.4byte	.LASF111
 1294 07d2 0D       		.byte	0xd
 1295 07d3 3C       		.byte	0x3c
 1296 07d4 FF000000 		.4byte	0xff
 1297 07d8 00       		.byte	0
 1298 07d9 00       		.byte	0
 1299 07da 03       		.uleb128 0x3
 1300 07db 30050000 		.4byte	.LASF112
 1301 07df 0D       		.byte	0xd
 1302 07e0 3D       		.byte	0x3d
 1303 07e1 C5070000 		.4byte	0x7c5
 1304 07e5 17       		.uleb128 0x17
 1305 07e6 18       		.byte	0x18
 1306 07e7 0D       		.byte	0xd
 1307 07e8 48       		.byte	0x48
 1308 07e9 28080000 		.4byte	0x828
 1309 07ed 08       		.uleb128 0x8
 1310 07ee DF030000 		.4byte	.LASF113
 1311 07f2 0D       		.byte	0xd
ARM GAS  /tmp/ccaJeJ8X.s 			page 24


 1312 07f3 49       		.byte	0x49
 1313 07f4 FF000000 		.4byte	0xff
 1314 07f8 00       		.byte	0
 1315 07f9 08       		.uleb128 0x8
 1316 07fa B8000000 		.4byte	.LASF114
 1317 07fe 0D       		.byte	0xd
 1318 07ff 4A       		.byte	0x4a
 1319 0800 FF000000 		.4byte	0xff
 1320 0804 04       		.byte	0x4
 1321 0805 08       		.uleb128 0x8
 1322 0806 17040000 		.4byte	.LASF115
 1323 080a 0D       		.byte	0xd
 1324 080b 4B       		.byte	0x4b
 1325 080c FF000000 		.4byte	0xff
 1326 0810 08       		.byte	0x8
 1327 0811 09       		.uleb128 0x9
 1328 0812 6E00     		.ascii	"n\000"
 1329 0814 0D       		.byte	0xd
 1330 0815 4C       		.byte	0x4c
 1331 0816 62010000 		.4byte	0x162
 1332 081a 0C       		.byte	0xc
 1333 081b 08       		.uleb128 0x8
 1334 081c 9D050000 		.4byte	.LASF116
 1335 0820 0D       		.byte	0xd
 1336 0821 4D       		.byte	0x4d
 1337 0822 0A010000 		.4byte	0x10a
 1338 0826 10       		.byte	0x10
 1339 0827 00       		.byte	0
 1340 0828 03       		.uleb128 0x3
 1341 0829 BE000000 		.4byte	.LASF117
 1342 082d 0D       		.byte	0xd
 1343 082e 4E       		.byte	0x4e
 1344 082f E5070000 		.4byte	0x7e5
 1345 0833 17       		.uleb128 0x17
 1346 0834 38       		.byte	0x38
 1347 0835 0E       		.byte	0xe
 1348 0836 38       		.byte	0x38
 1349 0837 6C080000 		.4byte	0x86c
 1350 083b 08       		.uleb128 0x8
 1351 083c CD030000 		.4byte	.LASF118
 1352 0840 0E       		.byte	0xe
 1353 0841 39       		.byte	0x39
 1354 0842 62010000 		.4byte	0x162
 1355 0846 00       		.byte	0
 1356 0847 08       		.uleb128 0x8
 1357 0848 08060000 		.4byte	.LASF119
 1358 084c 0E       		.byte	0xe
 1359 084d 3A       		.byte	0x3a
 1360 084e 62010000 		.4byte	0x162
 1361 0852 04       		.byte	0x4
 1362 0853 08       		.uleb128 0x8
 1363 0854 EC080000 		.4byte	.LASF120
 1364 0858 0E       		.byte	0xe
 1365 0859 3B       		.byte	0x3b
 1366 085a 28080000 		.4byte	0x828
 1367 085e 08       		.byte	0x8
 1368 085f 08       		.uleb128 0x8
ARM GAS  /tmp/ccaJeJ8X.s 			page 25


 1369 0860 5C040000 		.4byte	.LASF121
 1370 0864 0E       		.byte	0xe
 1371 0865 3D       		.byte	0x3d
 1372 0866 28080000 		.4byte	0x828
 1373 086a 20       		.byte	0x20
 1374 086b 00       		.byte	0
 1375 086c 03       		.uleb128 0x3
 1376 086d ED030000 		.4byte	.LASF122
 1377 0871 0E       		.byte	0xe
 1378 0872 3F       		.byte	0x3f
 1379 0873 33080000 		.4byte	0x833
 1380 0877 18       		.uleb128 0x18
 1381 0878 04       		.byte	0x4
 1382 0879 08       		.byte	0x8
 1383 087a C6       		.byte	0xc6
 1384 087b D9080000 		.4byte	0x8d9
 1385 087f 19       		.uleb128 0x19
 1386 0880 1A000000 		.4byte	.LASF123
 1387 0884 08       		.byte	0x8
 1388 0885 CD       		.byte	0xcd
 1389 0886 41010000 		.4byte	0x141
 1390 088a 19       		.uleb128 0x19
 1391 088b E8000000 		.4byte	.LASF124
 1392 088f 08       		.byte	0x8
 1393 0890 D4       		.byte	0xd4
 1394 0891 41010000 		.4byte	0x141
 1395 0895 19       		.uleb128 0x19
 1396 0896 A0080000 		.4byte	.LASF125
 1397 089a 08       		.byte	0x8
 1398 089b DB       		.byte	0xdb
 1399 089c 4B030000 		.4byte	0x34b
 1400 08a0 19       		.uleb128 0x19
 1401 08a1 14050000 		.4byte	.LASF126
 1402 08a5 08       		.byte	0x8
 1403 08a6 E2       		.byte	0xe2
 1404 08a7 D9080000 		.4byte	0x8d9
 1405 08ab 19       		.uleb128 0x19
 1406 08ac E4080000 		.4byte	.LASF127
 1407 08b0 08       		.byte	0x8
 1408 08b1 E7       		.byte	0xe7
 1409 08b2 41010000 		.4byte	0x141
 1410 08b6 19       		.uleb128 0x19
 1411 08b7 9C030000 		.4byte	.LASF128
 1412 08bb 08       		.byte	0x8
 1413 08bc F0       		.byte	0xf0
 1414 08bd 04090000 		.4byte	0x904
 1415 08c1 19       		.uleb128 0x19
 1416 08c2 33070000 		.4byte	.LASF129
 1417 08c6 08       		.byte	0x8
 1418 08c7 F9       		.byte	0xf9
 1419 08c8 3B090000 		.4byte	0x93b
 1420 08cc 1A       		.uleb128 0x1a
 1421 08cd 8B060000 		.4byte	.LASF130
 1422 08d1 08       		.byte	0x8
 1423 08d2 0101     		.2byte	0x101
 1424 08d4 4C010000 		.4byte	0x14c
 1425 08d8 00       		.byte	0
ARM GAS  /tmp/ccaJeJ8X.s 			page 26


 1426 08d9 0C       		.uleb128 0xc
 1427 08da 04       		.byte	0x4
 1428 08db 63020000 		.4byte	0x263
 1429 08df 07       		.uleb128 0x7
 1430 08e0 C1060000 		.4byte	.LASF131
 1431 08e4 0C       		.byte	0xc
 1432 08e5 0F       		.byte	0xf
 1433 08e6 34       		.byte	0x34
 1434 08e7 04090000 		.4byte	0x904
 1435 08eb 08       		.uleb128 0x8
 1436 08ec D3030000 		.4byte	.LASF32
 1437 08f0 0F       		.byte	0xf
 1438 08f1 35       		.byte	0x35
 1439 08f2 98020000 		.4byte	0x298
 1440 08f6 00       		.byte	0
 1441 08f7 09       		.uleb128 0x9
 1442 08f8 636E7400 		.ascii	"cnt\000"
 1443 08fc 0F       		.byte	0xf
 1444 08fd 37       		.byte	0x37
 1445 08fe 57010000 		.4byte	0x157
 1446 0902 08       		.byte	0x8
 1447 0903 00       		.byte	0
 1448 0904 0C       		.uleb128 0xc
 1449 0905 04       		.byte	0x4
 1450 0906 DF080000 		.4byte	0x8df
 1451 090a 07       		.uleb128 0x7
 1452 090b E0070000 		.4byte	.LASF132
 1453 090f 10       		.byte	0x10
 1454 0910 10       		.byte	0x10
 1455 0911 39       		.byte	0x39
 1456 0912 3B090000 		.4byte	0x93b
 1457 0916 08       		.uleb128 0x8
 1458 0917 D3030000 		.4byte	.LASF32
 1459 091b 10       		.byte	0x10
 1460 091c 3A       		.byte	0x3a
 1461 091d 98020000 		.4byte	0x298
 1462 0921 00       		.byte	0
 1463 0922 08       		.uleb128 0x8
 1464 0923 4A070000 		.4byte	.LASF133
 1465 0927 10       		.byte	0x10
 1466 0928 3C       		.byte	0x3c
 1467 0929 6E020000 		.4byte	0x26e
 1468 092d 08       		.byte	0x8
 1469 092e 08       		.uleb128 0x8
 1470 092f 37010000 		.4byte	.LASF52
 1471 0933 10       		.byte	0x10
 1472 0934 3E       		.byte	0x3e
 1473 0935 9D0A0000 		.4byte	0xa9d
 1474 0939 0C       		.byte	0xc
 1475 093a 00       		.byte	0
 1476 093b 0C       		.uleb128 0xc
 1477 093c 04       		.byte	0x4
 1478 093d 0A090000 		.4byte	0x90a
 1479 0941 0C       		.uleb128 0xc
 1480 0942 04       		.byte	0x4
 1481 0943 53090000 		.4byte	0x953
 1482 0947 06       		.uleb128 0x6
ARM GAS  /tmp/ccaJeJ8X.s 			page 27


 1483 0948 41090000 		.4byte	0x941
 1484 094c 04       		.uleb128 0x4
 1485 094d 01       		.byte	0x1
 1486 094e 08       		.byte	0x8
 1487 094f 6F070000 		.4byte	.LASF134
 1488 0953 05       		.uleb128 0x5
 1489 0954 4C090000 		.4byte	0x94c
 1490 0958 0C       		.uleb128 0xc
 1491 0959 04       		.byte	0x4
 1492 095a 50060000 		.4byte	0x650
 1493 095e 0C       		.uleb128 0xc
 1494 095f 04       		.byte	0x4
 1495 0960 4D030000 		.4byte	0x34d
 1496 0964 1B       		.uleb128 0x1b
 1497 0965 636800   		.ascii	"ch\000"
 1498 0968 08       		.byte	0x8
 1499 0969 C701     		.2byte	0x1c7
 1500 096b 1A040000 		.4byte	0x41a
 1501 096f 11       		.uleb128 0x11
 1502 0970 50060000 		.4byte	0x650
 1503 0974 7A090000 		.4byte	0x97a
 1504 0978 1C       		.uleb128 0x1c
 1505 0979 00       		.byte	0
 1506 097a 15       		.uleb128 0x15
 1507 097b D7060000 		.4byte	.LASF135
 1508 097f 11       		.byte	0x11
 1509 0980 1701     		.2byte	0x117
 1510 0982 6F090000 		.4byte	0x96f
 1511 0986 17       		.uleb128 0x17
 1512 0987 16       		.byte	0x16
 1513 0988 12       		.byte	0x12
 1514 0989 34       		.byte	0x34
 1515 098a 670A0000 		.4byte	0xa67
 1516 098e 08       		.uleb128 0x8
 1517 098f 0F080000 		.4byte	.LASF136
 1518 0993 12       		.byte	0x12
 1519 0994 35       		.byte	0x35
 1520 0995 670A0000 		.4byte	0xa67
 1521 0999 00       		.byte	0
 1522 099a 08       		.uleb128 0x8
 1523 099b 3D030000 		.4byte	.LASF137
 1524 099f 12       		.byte	0x12
 1525 09a0 36       		.byte	0x36
 1526 09a1 B4000000 		.4byte	0xb4
 1527 09a5 04       		.byte	0x4
 1528 09a6 08       		.uleb128 0x8
 1529 09a7 69010000 		.4byte	.LASF138
 1530 09ab 12       		.byte	0x12
 1531 09ac 37       		.byte	0x37
 1532 09ad B4000000 		.4byte	0xb4
 1533 09b1 05       		.byte	0x5
 1534 09b2 08       		.uleb128 0x8
 1535 09b3 D9040000 		.4byte	.LASF139
 1536 09b7 12       		.byte	0x12
 1537 09b8 38       		.byte	0x38
 1538 09b9 C4000000 		.4byte	0xc4
 1539 09bd 06       		.byte	0x6
ARM GAS  /tmp/ccaJeJ8X.s 			page 28


 1540 09be 08       		.uleb128 0x8
 1541 09bf 40080000 		.4byte	.LASF140
 1542 09c3 12       		.byte	0x12
 1543 09c4 39       		.byte	0x39
 1544 09c5 B4000000 		.4byte	0xb4
 1545 09c9 08       		.byte	0x8
 1546 09ca 08       		.uleb128 0x8
 1547 09cb E9060000 		.4byte	.LASF141
 1548 09cf 12       		.byte	0x12
 1549 09d0 3A       		.byte	0x3a
 1550 09d1 B4000000 		.4byte	0xb4
 1551 09d5 09       		.byte	0x9
 1552 09d6 08       		.uleb128 0x8
 1553 09d7 67050000 		.4byte	.LASF142
 1554 09db 12       		.byte	0x12
 1555 09dc 3B       		.byte	0x3b
 1556 09dd B4000000 		.4byte	0xb4
 1557 09e1 0A       		.byte	0xa
 1558 09e2 08       		.uleb128 0x8
 1559 09e3 2D060000 		.4byte	.LASF143
 1560 09e7 12       		.byte	0x12
 1561 09e8 3C       		.byte	0x3c
 1562 09e9 B4000000 		.4byte	0xb4
 1563 09ed 0B       		.byte	0xb
 1564 09ee 08       		.uleb128 0x8
 1565 09ef 43040000 		.4byte	.LASF144
 1566 09f3 12       		.byte	0x12
 1567 09f4 3D       		.byte	0x3d
 1568 09f5 B4000000 		.4byte	0xb4
 1569 09f9 0C       		.byte	0xc
 1570 09fa 08       		.uleb128 0x8
 1571 09fb 26050000 		.4byte	.LASF145
 1572 09ff 12       		.byte	0x12
 1573 0a00 3E       		.byte	0x3e
 1574 0a01 B4000000 		.4byte	0xb4
 1575 0a05 0D       		.byte	0xd
 1576 0a06 08       		.uleb128 0x8
 1577 0a07 E9070000 		.4byte	.LASF146
 1578 0a0b 12       		.byte	0x12
 1579 0a0c 3F       		.byte	0x3f
 1580 0a0d B4000000 		.4byte	0xb4
 1581 0a11 0E       		.byte	0xe
 1582 0a12 08       		.uleb128 0x8
 1583 0a13 77080000 		.4byte	.LASF147
 1584 0a17 12       		.byte	0x12
 1585 0a18 40       		.byte	0x40
 1586 0a19 B4000000 		.4byte	0xb4
 1587 0a1d 0F       		.byte	0xf
 1588 0a1e 08       		.uleb128 0x8
 1589 0a1f 36060000 		.4byte	.LASF148
 1590 0a23 12       		.byte	0x12
 1591 0a24 41       		.byte	0x41
 1592 0a25 B4000000 		.4byte	0xb4
 1593 0a29 10       		.byte	0x10
 1594 0a2a 08       		.uleb128 0x8
 1595 0a2b B6080000 		.4byte	.LASF149
 1596 0a2f 12       		.byte	0x12
ARM GAS  /tmp/ccaJeJ8X.s 			page 29


 1597 0a30 42       		.byte	0x42
 1598 0a31 B4000000 		.4byte	0xb4
 1599 0a35 11       		.byte	0x11
 1600 0a36 08       		.uleb128 0x8
 1601 0a37 D2080000 		.4byte	.LASF150
 1602 0a3b 12       		.byte	0x12
 1603 0a3c 43       		.byte	0x43
 1604 0a3d B4000000 		.4byte	0xb4
 1605 0a41 12       		.byte	0x12
 1606 0a42 08       		.uleb128 0x8
 1607 0a43 E4030000 		.4byte	.LASF151
 1608 0a47 12       		.byte	0x12
 1609 0a48 44       		.byte	0x44
 1610 0a49 B4000000 		.4byte	0xb4
 1611 0a4d 13       		.byte	0x13
 1612 0a4e 08       		.uleb128 0x8
 1613 0a4f EA020000 		.4byte	.LASF152
 1614 0a53 12       		.byte	0x12
 1615 0a54 45       		.byte	0x45
 1616 0a55 B4000000 		.4byte	0xb4
 1617 0a59 14       		.byte	0x14
 1618 0a5a 08       		.uleb128 0x8
 1619 0a5b CE060000 		.4byte	.LASF153
 1620 0a5f 12       		.byte	0x12
 1621 0a60 46       		.byte	0x46
 1622 0a61 B4000000 		.4byte	0xb4
 1623 0a65 15       		.byte	0x15
 1624 0a66 00       		.byte	0
 1625 0a67 11       		.uleb128 0x11
 1626 0a68 4C090000 		.4byte	0x94c
 1627 0a6c 770A0000 		.4byte	0xa77
 1628 0a70 12       		.uleb128 0x12
 1629 0a71 96040000 		.4byte	0x496
 1630 0a75 03       		.byte	0x3
 1631 0a76 00       		.byte	0
 1632 0a77 03       		.uleb128 0x3
 1633 0a78 E0020000 		.4byte	.LASF154
 1634 0a7c 12       		.byte	0x12
 1635 0a7d 47       		.byte	0x47
 1636 0a7e 86090000 		.4byte	0x986
 1637 0a82 05       		.uleb128 0x5
 1638 0a83 770A0000 		.4byte	0xa77
 1639 0a87 16       		.uleb128 0x16
 1640 0a88 AC030000 		.4byte	.LASF155
 1641 0a8c 12       		.byte	0x12
 1642 0a8d 6C       		.byte	0x6c
 1643 0a8e 820A0000 		.4byte	0xa82
 1644 0a92 03       		.uleb128 0x3
 1645 0a93 42030000 		.4byte	.LASF156
 1646 0a97 10       		.byte	0x10
 1647 0a98 34       		.byte	0x34
 1648 0a99 0A090000 		.4byte	0x90a
 1649 0a9d 0C       		.uleb128 0xc
 1650 0a9e 04       		.byte	0x4
 1651 0a9f 920A0000 		.4byte	0xa92
 1652 0aa3 04       		.uleb128 0x4
 1653 0aa4 01       		.byte	0x1
ARM GAS  /tmp/ccaJeJ8X.s 			page 30


 1654 0aa5 02       		.byte	0x2
 1655 0aa6 50070000 		.4byte	.LASF157
 1656 0aaa 03       		.uleb128 0x3
 1657 0aab 22080000 		.4byte	.LASF158
 1658 0aaf 13       		.byte	0x13
 1659 0ab0 47       		.byte	0x47
 1660 0ab1 B50A0000 		.4byte	0xab5
 1661 0ab5 0C       		.uleb128 0xc
 1662 0ab6 04       		.byte	0x4
 1663 0ab7 BB0A0000 		.4byte	0xabb
 1664 0abb 1D       		.uleb128 0x1d
 1665 0abc 4B030000 		.4byte	0x34b
 1666 0ac0 CF0A0000 		.4byte	0xacf
 1667 0ac4 0F       		.uleb128 0xf
 1668 0ac5 2C000000 		.4byte	0x2c
 1669 0ac9 0F       		.uleb128 0xf
 1670 0aca 37000000 		.4byte	0x37
 1671 0ace 00       		.byte	0
 1672 0acf 17       		.uleb128 0x17
 1673 0ad0 08       		.byte	0x8
 1674 0ad1 13       		.byte	0x13
 1675 0ad2 51       		.byte	0x51
 1676 0ad3 F00A0000 		.4byte	0xaf0
 1677 0ad7 08       		.uleb128 0x8
 1678 0ad8 00090000 		.4byte	.LASF159
 1679 0adc 13       		.byte	0x13
 1680 0add 55       		.byte	0x55
 1681 0ade F00A0000 		.4byte	0xaf0
 1682 0ae2 00       		.byte	0
 1683 0ae3 08       		.uleb128 0x8
 1684 0ae4 8F040000 		.4byte	.LASF160
 1685 0ae8 13       		.byte	0x13
 1686 0ae9 59       		.byte	0x59
 1687 0aea F00A0000 		.4byte	0xaf0
 1688 0aee 04       		.byte	0x4
 1689 0aef 00       		.byte	0
 1690 0af0 0C       		.uleb128 0xc
 1691 0af1 04       		.byte	0x4
 1692 0af2 B4000000 		.4byte	0xb4
 1693 0af6 03       		.uleb128 0x3
 1694 0af7 93050000 		.4byte	.LASF161
 1695 0afb 13       		.byte	0x13
 1696 0afc 5A       		.byte	0x5a
 1697 0afd CF0A0000 		.4byte	0xacf
 1698 0b01 16       		.uleb128 0x16
 1699 0b02 B1070000 		.4byte	.LASF162
 1700 0b06 13       		.byte	0x13
 1701 0b07 65       		.byte	0x65
 1702 0b08 F60A0000 		.4byte	0xaf6
 1703 0b0c 07       		.uleb128 0x7
 1704 0b0d 6B080000 		.4byte	.LASF163
 1705 0b11 04       		.byte	0x4
 1706 0b12 14       		.byte	0x14
 1707 0b13 38       		.byte	0x38
 1708 0b14 250B0000 		.4byte	0xb25
 1709 0b18 08       		.uleb128 0x8
 1710 0b19 37010000 		.4byte	.LASF52
ARM GAS  /tmp/ccaJeJ8X.s 			page 31


 1711 0b1d 14       		.byte	0x14
 1712 0b1e 39       		.byte	0x39
 1713 0b1f 250B0000 		.4byte	0xb25
 1714 0b23 00       		.byte	0
 1715 0b24 00       		.byte	0
 1716 0b25 0C       		.uleb128 0xc
 1717 0b26 04       		.byte	0x4
 1718 0b27 0C0B0000 		.4byte	0xb0c
 1719 0b2b 17       		.uleb128 0x17
 1720 0b2c 10       		.byte	0x10
 1721 0b2d 14       		.byte	0x14
 1722 0b2e 40       		.byte	0x40
 1723 0b2f 640B0000 		.4byte	0xb64
 1724 0b33 08       		.uleb128 0x8
 1725 0b34 37010000 		.4byte	.LASF52
 1726 0b38 14       		.byte	0x14
 1727 0b39 41       		.byte	0x41
 1728 0b3a 250B0000 		.4byte	0xb25
 1729 0b3e 00       		.byte	0
 1730 0b3f 08       		.uleb128 0x8
 1731 0b40 34080000 		.4byte	.LASF164
 1732 0b44 14       		.byte	0x14
 1733 0b45 42       		.byte	0x42
 1734 0b46 2C000000 		.4byte	0x2c
 1735 0b4a 04       		.byte	0x4
 1736 0b4b 08       		.uleb128 0x8
 1737 0b4c 4A030000 		.4byte	.LASF165
 1738 0b50 14       		.byte	0x14
 1739 0b51 44       		.byte	0x44
 1740 0b52 37000000 		.4byte	0x37
 1741 0b56 08       		.byte	0x8
 1742 0b57 08       		.uleb128 0x8
 1743 0b58 99000000 		.4byte	.LASF166
 1744 0b5c 14       		.byte	0x14
 1745 0b5d 45       		.byte	0x45
 1746 0b5e AA0A0000 		.4byte	0xaaa
 1747 0b62 0C       		.byte	0xc
 1748 0b63 00       		.byte	0
 1749 0b64 03       		.uleb128 0x3
 1750 0b65 BF030000 		.4byte	.LASF167
 1751 0b69 14       		.byte	0x14
 1752 0b6a 47       		.byte	0x47
 1753 0b6b 2B0B0000 		.4byte	0xb2b
 1754 0b6f 07       		.uleb128 0x7
 1755 0b70 E3050000 		.4byte	.LASF168
 1756 0b74 10       		.byte	0x10
 1757 0b75 15       		.byte	0x15
 1758 0b76 A9       		.byte	0xa9
 1759 0b77 A00B0000 		.4byte	0xba0
 1760 0b7b 08       		.uleb128 0x8
 1761 0b7c 37010000 		.4byte	.LASF52
 1762 0b80 15       		.byte	0x15
 1763 0b81 AD       		.byte	0xad
 1764 0b82 A00B0000 		.4byte	0xba0
 1765 0b86 00       		.byte	0
 1766 0b87 08       		.uleb128 0x8
 1767 0b88 CE050000 		.4byte	.LASF40
ARM GAS  /tmp/ccaJeJ8X.s 			page 32


 1768 0b8c 15       		.byte	0x15
 1769 0b8d B1       		.byte	0xb1
 1770 0b8e 62010000 		.4byte	0x162
 1771 0b92 04       		.byte	0x4
 1772 0b93 08       		.uleb128 0x8
 1773 0b94 FC030000 		.4byte	.LASF36
 1774 0b98 15       		.byte	0x15
 1775 0b99 B3       		.byte	0xb3
 1776 0b9a A60B0000 		.4byte	0xba6
 1777 0b9e 08       		.byte	0x8
 1778 0b9f 00       		.byte	0
 1779 0ba0 0C       		.uleb128 0xc
 1780 0ba1 04       		.byte	0x4
 1781 0ba2 6F0B0000 		.4byte	0xb6f
 1782 0ba6 11       		.uleb128 0x11
 1783 0ba7 4C090000 		.4byte	0x94c
 1784 0bab B60B0000 		.4byte	0xbb6
 1785 0baf 12       		.uleb128 0x12
 1786 0bb0 96040000 		.4byte	0x496
 1787 0bb4 07       		.byte	0x7
 1788 0bb5 00       		.byte	0
 1789 0bb6 03       		.uleb128 0x3
 1790 0bb7 29010000 		.4byte	.LASF169
 1791 0bbb 15       		.byte	0x15
 1792 0bbc B7       		.byte	0xb7
 1793 0bbd 6F0B0000 		.4byte	0xb6f
 1794 0bc1 07       		.uleb128 0x7
 1795 0bc2 1A050000 		.4byte	.LASF170
 1796 0bc6 04       		.byte	0x4
 1797 0bc7 15       		.byte	0x15
 1798 0bc8 BC       		.byte	0xbc
 1799 0bc9 DA0B0000 		.4byte	0xbda
 1800 0bcd 08       		.uleb128 0x8
 1801 0bce 37010000 		.4byte	.LASF52
 1802 0bd2 15       		.byte	0x15
 1803 0bd3 BD       		.byte	0xbd
 1804 0bd4 DA0B0000 		.4byte	0xbda
 1805 0bd8 00       		.byte	0
 1806 0bd9 00       		.byte	0
 1807 0bda 0C       		.uleb128 0xc
 1808 0bdb 04       		.byte	0x4
 1809 0bdc B60B0000 		.4byte	0xbb6
 1810 0be0 03       		.uleb128 0x3
 1811 0be1 2C040000 		.4byte	.LASF171
 1812 0be5 15       		.byte	0x15
 1813 0be6 BE       		.byte	0xbe
 1814 0be7 C10B0000 		.4byte	0xbc1
 1815 0beb 0D       		.uleb128 0xd
 1816 0bec 48080000 		.4byte	.LASF172
 1817 0bf0 44       		.byte	0x44
 1818 0bf1 15       		.byte	0x15
 1819 0bf2 3E01     		.2byte	0x13e
 1820 0bf4 610C0000 		.4byte	0xc61
 1821 0bf8 0A       		.uleb128 0xa
 1822 0bf9 6D747800 		.ascii	"mtx\000"
 1823 0bfd 15       		.byte	0x15
 1824 0bfe 4301     		.2byte	0x143
ARM GAS  /tmp/ccaJeJ8X.s 			page 33


 1825 0c00 920A0000 		.4byte	0xa92
 1826 0c04 00       		.byte	0
 1827 0c05 0B       		.uleb128 0xb
 1828 0c06 7A070000 		.4byte	.LASF173
 1829 0c0a 15       		.byte	0x15
 1830 0c0b 4A01     		.2byte	0x14a
 1831 0c0d E00B0000 		.4byte	0xbe0
 1832 0c11 10       		.byte	0x10
 1833 0c12 0B       		.uleb128 0xb
 1834 0c13 A7060000 		.4byte	.LASF174
 1835 0c17 15       		.byte	0x15
 1836 0c18 4E01     		.2byte	0x14e
 1837 0c1a 640B0000 		.4byte	0xb64
 1838 0c1e 14       		.byte	0x14
 1839 0c1f 0B       		.uleb128 0xb
 1840 0c20 FF050000 		.4byte	.LASF175
 1841 0c24 15       		.byte	0x15
 1842 0c25 5301     		.2byte	0x153
 1843 0c27 E00B0000 		.4byte	0xbe0
 1844 0c2b 24       		.byte	0x24
 1845 0c2c 0B       		.uleb128 0xb
 1846 0c2d A2000000 		.4byte	.LASF176
 1847 0c31 15       		.byte	0x15
 1848 0c32 5901     		.2byte	0x159
 1849 0c34 E00B0000 		.4byte	0xbe0
 1850 0c38 28       		.byte	0x28
 1851 0c39 0B       		.uleb128 0xb
 1852 0c3a 77050000 		.4byte	.LASF177
 1853 0c3e 15       		.byte	0x15
 1854 0c3f 5D01     		.2byte	0x15d
 1855 0c41 640B0000 		.4byte	0xb64
 1856 0c45 2C       		.byte	0x2c
 1857 0c46 0B       		.uleb128 0xb
 1858 0c47 16030000 		.4byte	.LASF178
 1859 0c4b 15       		.byte	0x15
 1860 0c4c 6301     		.2byte	0x163
 1861 0c4e E00B0000 		.4byte	0xbe0
 1862 0c52 3C       		.byte	0x3c
 1863 0c53 0B       		.uleb128 0xb
 1864 0c54 8E080000 		.4byte	.LASF179
 1865 0c58 15       		.byte	0x15
 1866 0c59 6901     		.2byte	0x169
 1867 0c5b E00B0000 		.4byte	0xbe0
 1868 0c5f 40       		.byte	0x40
 1869 0c60 00       		.byte	0
 1870 0c61 14       		.uleb128 0x14
 1871 0c62 C0080000 		.4byte	.LASF180
 1872 0c66 15       		.byte	0x15
 1873 0c67 7101     		.2byte	0x171
 1874 0c69 EB0B0000 		.4byte	0xbeb
 1875 0c6d 15       		.uleb128 0x15
 1876 0c6e 9C060000 		.4byte	.LASF181
 1877 0c72 15       		.byte	0x15
 1878 0c73 7C01     		.2byte	0x17c
 1879 0c75 610C0000 		.4byte	0xc61
 1880 0c79 1E       		.uleb128 0x1e
 1881 0c7a A0040000 		.4byte	.LASF184
ARM GAS  /tmp/ccaJeJ8X.s 			page 34


 1882 0c7e 01       		.byte	0x1
 1883 0c7f 90       		.byte	0x90
 1884 0c80 00000000 		.4byte	.LFB295
 1885 0c84 38000000 		.4byte	.LFE295-.LFB295
 1886 0c88 01       		.uleb128 0x1
 1887 0c89 9C       		.byte	0x9c
 1888 0c8a E30C0000 		.4byte	0xce3
 1889 0c8e 1F       		.uleb128 0x1f
 1890 0c8f 45010000 		.4byte	.LASF182
 1891 0c93 01       		.byte	0x1
 1892 0c94 90       		.byte	0x90
 1893 0c95 E30C0000 		.4byte	0xce3
 1894 0c99 01       		.uleb128 0x1
 1895 0c9a 50       		.byte	0x50
 1896 0c9b 1F       		.uleb128 0x1f
 1897 0c9c 4A010000 		.4byte	.LASF183
 1898 0ca0 01       		.byte	0x1
 1899 0ca1 91       		.byte	0x91
 1900 0ca2 E30C0000 		.4byte	0xce3
 1901 0ca6 01       		.uleb128 0x1
 1902 0ca7 51       		.byte	0x51
 1903 0ca8 20       		.uleb128 0x20
 1904 0ca9 240E0000 		.4byte	0xe24
 1905 0cad 00000000 		.4byte	.LBB28
 1906 0cb1 38000000 		.4byte	.Ldebug_ranges0+0x38
 1907 0cb5 01       		.byte	0x1
 1908 0cb6 94       		.byte	0x94
 1909 0cb7 21       		.uleb128 0x21
 1910 0cb8 F60D0000 		.4byte	0xdf6
 1911 0cbc 02000000 		.4byte	.LBB31
 1912 0cc0 50000000 		.4byte	.Ldebug_ranges0+0x50
 1913 0cc4 01       		.byte	0x1
 1914 0cc5 97       		.byte	0x97
 1915 0cc6 22       		.uleb128 0x22
 1916 0cc7 180E0000 		.4byte	0xe18
 1917 0ccb 00000000 		.4byte	.LLST3
 1918 0ccf 22       		.uleb128 0x22
 1919 0cd0 0D0E0000 		.4byte	0xe0d
 1920 0cd4 14000000 		.4byte	.LLST4
 1921 0cd8 22       		.uleb128 0x22
 1922 0cd9 020E0000 		.4byte	0xe02
 1923 0cdd 33000000 		.4byte	.LLST5
 1924 0ce1 00       		.byte	0
 1925 0ce2 00       		.byte	0
 1926 0ce3 0C       		.uleb128 0xc
 1927 0ce4 04       		.byte	0x4
 1928 0ce5 28080000 		.4byte	0x828
 1929 0ce9 1E       		.uleb128 0x1e
 1930 0cea AE020000 		.4byte	.LASF185
 1931 0cee 01       		.byte	0x1
 1932 0cef 7F       		.byte	0x7f
 1933 0cf0 00000000 		.4byte	.LFB294
 1934 0cf4 44000000 		.4byte	.LFE294-.LFB294
 1935 0cf8 01       		.uleb128 0x1
 1936 0cf9 9C       		.byte	0x9c
 1937 0cfa 460D0000 		.4byte	0xd46
 1938 0cfe 23       		.uleb128 0x23
ARM GAS  /tmp/ccaJeJ8X.s 			page 35


 1939 0cff 746D7000 		.ascii	"tmp\000"
 1940 0d03 01       		.byte	0x1
 1941 0d04 7F       		.byte	0x7f
 1942 0d05 E30C0000 		.4byte	0xce3
 1943 0d09 01       		.uleb128 0x1
 1944 0d0a 50       		.byte	0x50
 1945 0d0b 20       		.uleb128 0x20
 1946 0d0c 240E0000 		.4byte	0xe24
 1947 0d10 02000000 		.4byte	.LBB14
 1948 0d14 00000000 		.4byte	.Ldebug_ranges0+0
 1949 0d18 01       		.byte	0x1
 1950 0d19 81       		.byte	0x81
 1951 0d1a 21       		.uleb128 0x21
 1952 0d1b F60D0000 		.4byte	0xdf6
 1953 0d1f 08000000 		.4byte	.LBB17
 1954 0d23 18000000 		.4byte	.Ldebug_ranges0+0x18
 1955 0d27 01       		.byte	0x1
 1956 0d28 81       		.byte	0x81
 1957 0d29 22       		.uleb128 0x22
 1958 0d2a 180E0000 		.4byte	0xe18
 1959 0d2e 46000000 		.4byte	.LLST0
 1960 0d32 22       		.uleb128 0x22
 1961 0d33 0D0E0000 		.4byte	0xe0d
 1962 0d37 59000000 		.4byte	.LLST1
 1963 0d3b 22       		.uleb128 0x22
 1964 0d3c 020E0000 		.4byte	0xe02
 1965 0d40 6C000000 		.4byte	.LLST2
 1966 0d44 00       		.byte	0
 1967 0d45 00       		.byte	0
 1968 0d46 1E       		.uleb128 0x1e
 1969 0d47 92020000 		.4byte	.LASF186
 1970 0d4b 01       		.byte	0x1
 1971 0d4c 72       		.byte	0x72
 1972 0d4d 00000000 		.4byte	.LFB293
 1973 0d51 0C000000 		.4byte	.LFE293-.LFB293
 1974 0d55 01       		.uleb128 0x1
 1975 0d56 9C       		.byte	0x9c
 1976 0d57 780D0000 		.4byte	0xd78
 1977 0d5b 23       		.uleb128 0x23
 1978 0d5c 746D7000 		.ascii	"tmp\000"
 1979 0d60 01       		.byte	0x1
 1980 0d61 72       		.byte	0x72
 1981 0d62 E30C0000 		.4byte	0xce3
 1982 0d66 01       		.uleb128 0x1
 1983 0d67 50       		.byte	0x50
 1984 0d68 24       		.uleb128 0x24
 1985 0d69 240E0000 		.4byte	0xe24
 1986 0d6d 00000000 		.4byte	.LBB8
 1987 0d71 04000000 		.4byte	.LBE8-.LBB8
 1988 0d75 01       		.byte	0x1
 1989 0d76 74       		.byte	0x74
 1990 0d77 00       		.byte	0
 1991 0d78 1E       		.uleb128 0x1e
 1992 0d79 1A010000 		.4byte	.LASF187
 1993 0d7d 01       		.byte	0x1
 1994 0d7e 61       		.byte	0x61
 1995 0d7f 00000000 		.4byte	.LFB292
ARM GAS  /tmp/ccaJeJ8X.s 			page 36


 1996 0d83 18000000 		.4byte	.LFE292-.LFB292
 1997 0d87 01       		.uleb128 0x1
 1998 0d88 9C       		.byte	0x9c
 1999 0d89 9B0D0000 		.4byte	0xd9b
 2000 0d8d 23       		.uleb128 0x23
 2001 0d8e 746D7000 		.ascii	"tmp\000"
 2002 0d92 01       		.byte	0x1
 2003 0d93 61       		.byte	0x61
 2004 0d94 E30C0000 		.4byte	0xce3
 2005 0d98 01       		.uleb128 0x1
 2006 0d99 50       		.byte	0x50
 2007 0d9a 00       		.byte	0
 2008 0d9b 1E       		.uleb128 0x1e
 2009 0d9c A3030000 		.4byte	.LASF188
 2010 0da0 01       		.byte	0x1
 2011 0da1 4D       		.byte	0x4d
 2012 0da2 00000000 		.4byte	.LFB291
 2013 0da6 2C000000 		.4byte	.LFE291-.LFB291
 2014 0daa 01       		.uleb128 0x1
 2015 0dab 9C       		.byte	0x9c
 2016 0dac F60D0000 		.4byte	0xdf6
 2017 0db0 25       		.uleb128 0x25
 2018 0db1 746D00   		.ascii	"tm\000"
 2019 0db4 01       		.byte	0x1
 2020 0db5 4E       		.byte	0x4e
 2021 0db6 28080000 		.4byte	0x828
 2022 0dba 02       		.uleb128 0x2
 2023 0dbb 91       		.byte	0x91
 2024 0dbc 60       		.sleb128 -32
 2025 0dbd 26       		.uleb128 0x26
 2026 0dbe 12000000 		.4byte	.LVL7
 2027 0dc2 780D0000 		.4byte	0xd78
 2028 0dc6 D10D0000 		.4byte	0xdd1
 2029 0dca 27       		.uleb128 0x27
 2030 0dcb 01       		.uleb128 0x1
 2031 0dcc 50       		.byte	0x50
 2032 0dcd 02       		.uleb128 0x2
 2033 0dce 70       		.byte	0x70
 2034 0dcf 00       		.sleb128 0
 2035 0dd0 00       		.byte	0
 2036 0dd1 26       		.uleb128 0x26
 2037 0dd2 18000000 		.4byte	.LVL8
 2038 0dd6 460D0000 		.4byte	0xd46
 2039 0dda E50D0000 		.4byte	0xde5
 2040 0dde 27       		.uleb128 0x27
 2041 0ddf 01       		.uleb128 0x1
 2042 0de0 50       		.byte	0x50
 2043 0de1 02       		.uleb128 0x2
 2044 0de2 70       		.byte	0x70
 2045 0de3 00       		.sleb128 0
 2046 0de4 00       		.byte	0
 2047 0de5 28       		.uleb128 0x28
 2048 0de6 1E000000 		.4byte	.LVL9
 2049 0dea E90C0000 		.4byte	0xce9
 2050 0dee 27       		.uleb128 0x27
 2051 0def 01       		.uleb128 0x1
 2052 0df0 50       		.byte	0x50
ARM GAS  /tmp/ccaJeJ8X.s 			page 37


 2053 0df1 02       		.uleb128 0x2
 2054 0df2 70       		.byte	0x70
 2055 0df3 00       		.sleb128 0
 2056 0df4 00       		.byte	0
 2057 0df5 00       		.byte	0
 2058 0df6 29       		.uleb128 0x29
 2059 0df7 FC000000 		.4byte	.LASF192
 2060 0dfb 01       		.byte	0x1
 2061 0dfc 35       		.byte	0x35
 2062 0dfd 03       		.byte	0x3
 2063 0dfe 240E0000 		.4byte	0xe24
 2064 0e02 2A       		.uleb128 0x2a
 2065 0e03 746D7000 		.ascii	"tmp\000"
 2066 0e07 01       		.byte	0x1
 2067 0e08 35       		.byte	0x35
 2068 0e09 E30C0000 		.4byte	0xce3
 2069 0e0d 2A       		.uleb128 0x2a
 2070 0e0e 6E6F7700 		.ascii	"now\000"
 2071 0e12 01       		.byte	0x1
 2072 0e13 36       		.byte	0x36
 2073 0e14 FF000000 		.4byte	0xff
 2074 0e18 2B       		.uleb128 0x2b
 2075 0e19 D9070000 		.4byte	.LASF111
 2076 0e1d 01       		.byte	0x1
 2077 0e1e 37       		.byte	0x37
 2078 0e1f FF000000 		.4byte	0xff
 2079 0e23 00       		.byte	0
 2080 0e24 2C       		.uleb128 0x2c
 2081 0e25 97070000 		.4byte	.LASF193
 2082 0e29 02       		.byte	0x2
 2083 0e2a CA02     		.2byte	0x2ca
 2084 0e2c FF000000 		.4byte	0xff
 2085 0e30 03       		.byte	0x3
 2086 0e31 00       		.byte	0
 2087              		.section	.debug_abbrev,"",%progbits
 2088              	.Ldebug_abbrev0:
 2089 0000 01       		.uleb128 0x1
 2090 0001 11       		.uleb128 0x11
 2091 0002 01       		.byte	0x1
 2092 0003 25       		.uleb128 0x25
 2093 0004 0E       		.uleb128 0xe
 2094 0005 13       		.uleb128 0x13
 2095 0006 0B       		.uleb128 0xb
 2096 0007 03       		.uleb128 0x3
 2097 0008 0E       		.uleb128 0xe
 2098 0009 1B       		.uleb128 0x1b
 2099 000a 0E       		.uleb128 0xe
 2100 000b 55       		.uleb128 0x55
 2101 000c 17       		.uleb128 0x17
 2102 000d 11       		.uleb128 0x11
 2103 000e 01       		.uleb128 0x1
 2104 000f 10       		.uleb128 0x10
 2105 0010 17       		.uleb128 0x17
 2106 0011 00       		.byte	0
 2107 0012 00       		.byte	0
 2108 0013 02       		.uleb128 0x2
 2109 0014 24       		.uleb128 0x24
ARM GAS  /tmp/ccaJeJ8X.s 			page 38


 2110 0015 00       		.byte	0
 2111 0016 0B       		.uleb128 0xb
 2112 0017 0B       		.uleb128 0xb
 2113 0018 3E       		.uleb128 0x3e
 2114 0019 0B       		.uleb128 0xb
 2115 001a 03       		.uleb128 0x3
 2116 001b 08       		.uleb128 0x8
 2117 001c 00       		.byte	0
 2118 001d 00       		.byte	0
 2119 001e 03       		.uleb128 0x3
 2120 001f 16       		.uleb128 0x16
 2121 0020 00       		.byte	0
 2122 0021 03       		.uleb128 0x3
 2123 0022 0E       		.uleb128 0xe
 2124 0023 3A       		.uleb128 0x3a
 2125 0024 0B       		.uleb128 0xb
 2126 0025 3B       		.uleb128 0x3b
 2127 0026 0B       		.uleb128 0xb
 2128 0027 49       		.uleb128 0x49
 2129 0028 13       		.uleb128 0x13
 2130 0029 00       		.byte	0
 2131 002a 00       		.byte	0
 2132 002b 04       		.uleb128 0x4
 2133 002c 24       		.uleb128 0x24
 2134 002d 00       		.byte	0
 2135 002e 0B       		.uleb128 0xb
 2136 002f 0B       		.uleb128 0xb
 2137 0030 3E       		.uleb128 0x3e
 2138 0031 0B       		.uleb128 0xb
 2139 0032 03       		.uleb128 0x3
 2140 0033 0E       		.uleb128 0xe
 2141 0034 00       		.byte	0
 2142 0035 00       		.byte	0
 2143 0036 05       		.uleb128 0x5
 2144 0037 26       		.uleb128 0x26
 2145 0038 00       		.byte	0
 2146 0039 49       		.uleb128 0x49
 2147 003a 13       		.uleb128 0x13
 2148 003b 00       		.byte	0
 2149 003c 00       		.byte	0
 2150 003d 06       		.uleb128 0x6
 2151 003e 35       		.uleb128 0x35
 2152 003f 00       		.byte	0
 2153 0040 49       		.uleb128 0x49
 2154 0041 13       		.uleb128 0x13
 2155 0042 00       		.byte	0
 2156 0043 00       		.byte	0
 2157 0044 07       		.uleb128 0x7
 2158 0045 13       		.uleb128 0x13
 2159 0046 01       		.byte	0x1
 2160 0047 03       		.uleb128 0x3
 2161 0048 0E       		.uleb128 0xe
 2162 0049 0B       		.uleb128 0xb
 2163 004a 0B       		.uleb128 0xb
 2164 004b 3A       		.uleb128 0x3a
 2165 004c 0B       		.uleb128 0xb
 2166 004d 3B       		.uleb128 0x3b
ARM GAS  /tmp/ccaJeJ8X.s 			page 39


 2167 004e 0B       		.uleb128 0xb
 2168 004f 01       		.uleb128 0x1
 2169 0050 13       		.uleb128 0x13
 2170 0051 00       		.byte	0
 2171 0052 00       		.byte	0
 2172 0053 08       		.uleb128 0x8
 2173 0054 0D       		.uleb128 0xd
 2174 0055 00       		.byte	0
 2175 0056 03       		.uleb128 0x3
 2176 0057 0E       		.uleb128 0xe
 2177 0058 3A       		.uleb128 0x3a
 2178 0059 0B       		.uleb128 0xb
 2179 005a 3B       		.uleb128 0x3b
 2180 005b 0B       		.uleb128 0xb
 2181 005c 49       		.uleb128 0x49
 2182 005d 13       		.uleb128 0x13
 2183 005e 38       		.uleb128 0x38
 2184 005f 0B       		.uleb128 0xb
 2185 0060 00       		.byte	0
 2186 0061 00       		.byte	0
 2187 0062 09       		.uleb128 0x9
 2188 0063 0D       		.uleb128 0xd
 2189 0064 00       		.byte	0
 2190 0065 03       		.uleb128 0x3
 2191 0066 08       		.uleb128 0x8
 2192 0067 3A       		.uleb128 0x3a
 2193 0068 0B       		.uleb128 0xb
 2194 0069 3B       		.uleb128 0x3b
 2195 006a 0B       		.uleb128 0xb
 2196 006b 49       		.uleb128 0x49
 2197 006c 13       		.uleb128 0x13
 2198 006d 38       		.uleb128 0x38
 2199 006e 0B       		.uleb128 0xb
 2200 006f 00       		.byte	0
 2201 0070 00       		.byte	0
 2202 0071 0A       		.uleb128 0xa
 2203 0072 0D       		.uleb128 0xd
 2204 0073 00       		.byte	0
 2205 0074 03       		.uleb128 0x3
 2206 0075 08       		.uleb128 0x8
 2207 0076 3A       		.uleb128 0x3a
 2208 0077 0B       		.uleb128 0xb
 2209 0078 3B       		.uleb128 0x3b
 2210 0079 05       		.uleb128 0x5
 2211 007a 49       		.uleb128 0x49
 2212 007b 13       		.uleb128 0x13
 2213 007c 38       		.uleb128 0x38
 2214 007d 0B       		.uleb128 0xb
 2215 007e 00       		.byte	0
 2216 007f 00       		.byte	0
 2217 0080 0B       		.uleb128 0xb
 2218 0081 0D       		.uleb128 0xd
 2219 0082 00       		.byte	0
 2220 0083 03       		.uleb128 0x3
 2221 0084 0E       		.uleb128 0xe
 2222 0085 3A       		.uleb128 0x3a
 2223 0086 0B       		.uleb128 0xb
ARM GAS  /tmp/ccaJeJ8X.s 			page 40


 2224 0087 3B       		.uleb128 0x3b
 2225 0088 05       		.uleb128 0x5
 2226 0089 49       		.uleb128 0x49
 2227 008a 13       		.uleb128 0x13
 2228 008b 38       		.uleb128 0x38
 2229 008c 0B       		.uleb128 0xb
 2230 008d 00       		.byte	0
 2231 008e 00       		.byte	0
 2232 008f 0C       		.uleb128 0xc
 2233 0090 0F       		.uleb128 0xf
 2234 0091 00       		.byte	0
 2235 0092 0B       		.uleb128 0xb
 2236 0093 0B       		.uleb128 0xb
 2237 0094 49       		.uleb128 0x49
 2238 0095 13       		.uleb128 0x13
 2239 0096 00       		.byte	0
 2240 0097 00       		.byte	0
 2241 0098 0D       		.uleb128 0xd
 2242 0099 13       		.uleb128 0x13
 2243 009a 01       		.byte	0x1
 2244 009b 03       		.uleb128 0x3
 2245 009c 0E       		.uleb128 0xe
 2246 009d 0B       		.uleb128 0xb
 2247 009e 0B       		.uleb128 0xb
 2248 009f 3A       		.uleb128 0x3a
 2249 00a0 0B       		.uleb128 0xb
 2250 00a1 3B       		.uleb128 0x3b
 2251 00a2 05       		.uleb128 0x5
 2252 00a3 01       		.uleb128 0x1
 2253 00a4 13       		.uleb128 0x13
 2254 00a5 00       		.byte	0
 2255 00a6 00       		.byte	0
 2256 00a7 0E       		.uleb128 0xe
 2257 00a8 15       		.uleb128 0x15
 2258 00a9 01       		.byte	0x1
 2259 00aa 27       		.uleb128 0x27
 2260 00ab 19       		.uleb128 0x19
 2261 00ac 01       		.uleb128 0x1
 2262 00ad 13       		.uleb128 0x13
 2263 00ae 00       		.byte	0
 2264 00af 00       		.byte	0
 2265 00b0 0F       		.uleb128 0xf
 2266 00b1 05       		.uleb128 0x5
 2267 00b2 00       		.byte	0
 2268 00b3 49       		.uleb128 0x49
 2269 00b4 13       		.uleb128 0x13
 2270 00b5 00       		.byte	0
 2271 00b6 00       		.byte	0
 2272 00b7 10       		.uleb128 0x10
 2273 00b8 0F       		.uleb128 0xf
 2274 00b9 00       		.byte	0
 2275 00ba 0B       		.uleb128 0xb
 2276 00bb 0B       		.uleb128 0xb
 2277 00bc 00       		.byte	0
 2278 00bd 00       		.byte	0
 2279 00be 11       		.uleb128 0x11
 2280 00bf 01       		.uleb128 0x1
ARM GAS  /tmp/ccaJeJ8X.s 			page 41


 2281 00c0 01       		.byte	0x1
 2282 00c1 49       		.uleb128 0x49
 2283 00c2 13       		.uleb128 0x13
 2284 00c3 01       		.uleb128 0x1
 2285 00c4 13       		.uleb128 0x13
 2286 00c5 00       		.byte	0
 2287 00c6 00       		.byte	0
 2288 00c7 12       		.uleb128 0x12
 2289 00c8 21       		.uleb128 0x21
 2290 00c9 00       		.byte	0
 2291 00ca 49       		.uleb128 0x49
 2292 00cb 13       		.uleb128 0x13
 2293 00cc 2F       		.uleb128 0x2f
 2294 00cd 0B       		.uleb128 0xb
 2295 00ce 00       		.byte	0
 2296 00cf 00       		.byte	0
 2297 00d0 13       		.uleb128 0x13
 2298 00d1 13       		.uleb128 0x13
 2299 00d2 01       		.byte	0x1
 2300 00d3 0B       		.uleb128 0xb
 2301 00d4 0B       		.uleb128 0xb
 2302 00d5 3A       		.uleb128 0x3a
 2303 00d6 0B       		.uleb128 0xb
 2304 00d7 3B       		.uleb128 0x3b
 2305 00d8 05       		.uleb128 0x5
 2306 00d9 01       		.uleb128 0x1
 2307 00da 13       		.uleb128 0x13
 2308 00db 00       		.byte	0
 2309 00dc 00       		.byte	0
 2310 00dd 14       		.uleb128 0x14
 2311 00de 16       		.uleb128 0x16
 2312 00df 00       		.byte	0
 2313 00e0 03       		.uleb128 0x3
 2314 00e1 0E       		.uleb128 0xe
 2315 00e2 3A       		.uleb128 0x3a
 2316 00e3 0B       		.uleb128 0xb
 2317 00e4 3B       		.uleb128 0x3b
 2318 00e5 05       		.uleb128 0x5
 2319 00e6 49       		.uleb128 0x49
 2320 00e7 13       		.uleb128 0x13
 2321 00e8 00       		.byte	0
 2322 00e9 00       		.byte	0
 2323 00ea 15       		.uleb128 0x15
 2324 00eb 34       		.uleb128 0x34
 2325 00ec 00       		.byte	0
 2326 00ed 03       		.uleb128 0x3
 2327 00ee 0E       		.uleb128 0xe
 2328 00ef 3A       		.uleb128 0x3a
 2329 00f0 0B       		.uleb128 0xb
 2330 00f1 3B       		.uleb128 0x3b
 2331 00f2 05       		.uleb128 0x5
 2332 00f3 49       		.uleb128 0x49
 2333 00f4 13       		.uleb128 0x13
 2334 00f5 3F       		.uleb128 0x3f
 2335 00f6 19       		.uleb128 0x19
 2336 00f7 3C       		.uleb128 0x3c
 2337 00f8 19       		.uleb128 0x19
ARM GAS  /tmp/ccaJeJ8X.s 			page 42


 2338 00f9 00       		.byte	0
 2339 00fa 00       		.byte	0
 2340 00fb 16       		.uleb128 0x16
 2341 00fc 34       		.uleb128 0x34
 2342 00fd 00       		.byte	0
 2343 00fe 03       		.uleb128 0x3
 2344 00ff 0E       		.uleb128 0xe
 2345 0100 3A       		.uleb128 0x3a
 2346 0101 0B       		.uleb128 0xb
 2347 0102 3B       		.uleb128 0x3b
 2348 0103 0B       		.uleb128 0xb
 2349 0104 49       		.uleb128 0x49
 2350 0105 13       		.uleb128 0x13
 2351 0106 3F       		.uleb128 0x3f
 2352 0107 19       		.uleb128 0x19
 2353 0108 3C       		.uleb128 0x3c
 2354 0109 19       		.uleb128 0x19
 2355 010a 00       		.byte	0
 2356 010b 00       		.byte	0
 2357 010c 17       		.uleb128 0x17
 2358 010d 13       		.uleb128 0x13
 2359 010e 01       		.byte	0x1
 2360 010f 0B       		.uleb128 0xb
 2361 0110 0B       		.uleb128 0xb
 2362 0111 3A       		.uleb128 0x3a
 2363 0112 0B       		.uleb128 0xb
 2364 0113 3B       		.uleb128 0x3b
 2365 0114 0B       		.uleb128 0xb
 2366 0115 01       		.uleb128 0x1
 2367 0116 13       		.uleb128 0x13
 2368 0117 00       		.byte	0
 2369 0118 00       		.byte	0
 2370 0119 18       		.uleb128 0x18
 2371 011a 17       		.uleb128 0x17
 2372 011b 01       		.byte	0x1
 2373 011c 0B       		.uleb128 0xb
 2374 011d 0B       		.uleb128 0xb
 2375 011e 3A       		.uleb128 0x3a
 2376 011f 0B       		.uleb128 0xb
 2377 0120 3B       		.uleb128 0x3b
 2378 0121 0B       		.uleb128 0xb
 2379 0122 01       		.uleb128 0x1
 2380 0123 13       		.uleb128 0x13
 2381 0124 00       		.byte	0
 2382 0125 00       		.byte	0
 2383 0126 19       		.uleb128 0x19
 2384 0127 0D       		.uleb128 0xd
 2385 0128 00       		.byte	0
 2386 0129 03       		.uleb128 0x3
 2387 012a 0E       		.uleb128 0xe
 2388 012b 3A       		.uleb128 0x3a
 2389 012c 0B       		.uleb128 0xb
 2390 012d 3B       		.uleb128 0x3b
 2391 012e 0B       		.uleb128 0xb
 2392 012f 49       		.uleb128 0x49
 2393 0130 13       		.uleb128 0x13
 2394 0131 00       		.byte	0
ARM GAS  /tmp/ccaJeJ8X.s 			page 43


 2395 0132 00       		.byte	0
 2396 0133 1A       		.uleb128 0x1a
 2397 0134 0D       		.uleb128 0xd
 2398 0135 00       		.byte	0
 2399 0136 03       		.uleb128 0x3
 2400 0137 0E       		.uleb128 0xe
 2401 0138 3A       		.uleb128 0x3a
 2402 0139 0B       		.uleb128 0xb
 2403 013a 3B       		.uleb128 0x3b
 2404 013b 05       		.uleb128 0x5
 2405 013c 49       		.uleb128 0x49
 2406 013d 13       		.uleb128 0x13
 2407 013e 00       		.byte	0
 2408 013f 00       		.byte	0
 2409 0140 1B       		.uleb128 0x1b
 2410 0141 34       		.uleb128 0x34
 2411 0142 00       		.byte	0
 2412 0143 03       		.uleb128 0x3
 2413 0144 08       		.uleb128 0x8
 2414 0145 3A       		.uleb128 0x3a
 2415 0146 0B       		.uleb128 0xb
 2416 0147 3B       		.uleb128 0x3b
 2417 0148 05       		.uleb128 0x5
 2418 0149 49       		.uleb128 0x49
 2419 014a 13       		.uleb128 0x13
 2420 014b 3F       		.uleb128 0x3f
 2421 014c 19       		.uleb128 0x19
 2422 014d 3C       		.uleb128 0x3c
 2423 014e 19       		.uleb128 0x19
 2424 014f 00       		.byte	0
 2425 0150 00       		.byte	0
 2426 0151 1C       		.uleb128 0x1c
 2427 0152 21       		.uleb128 0x21
 2428 0153 00       		.byte	0
 2429 0154 00       		.byte	0
 2430 0155 00       		.byte	0
 2431 0156 1D       		.uleb128 0x1d
 2432 0157 15       		.uleb128 0x15
 2433 0158 01       		.byte	0x1
 2434 0159 27       		.uleb128 0x27
 2435 015a 19       		.uleb128 0x19
 2436 015b 49       		.uleb128 0x49
 2437 015c 13       		.uleb128 0x13
 2438 015d 01       		.uleb128 0x1
 2439 015e 13       		.uleb128 0x13
 2440 015f 00       		.byte	0
 2441 0160 00       		.byte	0
 2442 0161 1E       		.uleb128 0x1e
 2443 0162 2E       		.uleb128 0x2e
 2444 0163 01       		.byte	0x1
 2445 0164 3F       		.uleb128 0x3f
 2446 0165 19       		.uleb128 0x19
 2447 0166 03       		.uleb128 0x3
 2448 0167 0E       		.uleb128 0xe
 2449 0168 3A       		.uleb128 0x3a
 2450 0169 0B       		.uleb128 0xb
 2451 016a 3B       		.uleb128 0x3b
ARM GAS  /tmp/ccaJeJ8X.s 			page 44


 2452 016b 0B       		.uleb128 0xb
 2453 016c 27       		.uleb128 0x27
 2454 016d 19       		.uleb128 0x19
 2455 016e 11       		.uleb128 0x11
 2456 016f 01       		.uleb128 0x1
 2457 0170 12       		.uleb128 0x12
 2458 0171 06       		.uleb128 0x6
 2459 0172 40       		.uleb128 0x40
 2460 0173 18       		.uleb128 0x18
 2461 0174 9742     		.uleb128 0x2117
 2462 0176 19       		.uleb128 0x19
 2463 0177 01       		.uleb128 0x1
 2464 0178 13       		.uleb128 0x13
 2465 0179 00       		.byte	0
 2466 017a 00       		.byte	0
 2467 017b 1F       		.uleb128 0x1f
 2468 017c 05       		.uleb128 0x5
 2469 017d 00       		.byte	0
 2470 017e 03       		.uleb128 0x3
 2471 017f 0E       		.uleb128 0xe
 2472 0180 3A       		.uleb128 0x3a
 2473 0181 0B       		.uleb128 0xb
 2474 0182 3B       		.uleb128 0x3b
 2475 0183 0B       		.uleb128 0xb
 2476 0184 49       		.uleb128 0x49
 2477 0185 13       		.uleb128 0x13
 2478 0186 02       		.uleb128 0x2
 2479 0187 18       		.uleb128 0x18
 2480 0188 00       		.byte	0
 2481 0189 00       		.byte	0
 2482 018a 20       		.uleb128 0x20
 2483 018b 1D       		.uleb128 0x1d
 2484 018c 00       		.byte	0
 2485 018d 31       		.uleb128 0x31
 2486 018e 13       		.uleb128 0x13
 2487 018f 52       		.uleb128 0x52
 2488 0190 01       		.uleb128 0x1
 2489 0191 55       		.uleb128 0x55
 2490 0192 17       		.uleb128 0x17
 2491 0193 58       		.uleb128 0x58
 2492 0194 0B       		.uleb128 0xb
 2493 0195 59       		.uleb128 0x59
 2494 0196 0B       		.uleb128 0xb
 2495 0197 00       		.byte	0
 2496 0198 00       		.byte	0
 2497 0199 21       		.uleb128 0x21
 2498 019a 1D       		.uleb128 0x1d
 2499 019b 01       		.byte	0x1
 2500 019c 31       		.uleb128 0x31
 2501 019d 13       		.uleb128 0x13
 2502 019e 52       		.uleb128 0x52
 2503 019f 01       		.uleb128 0x1
 2504 01a0 55       		.uleb128 0x55
 2505 01a1 17       		.uleb128 0x17
 2506 01a2 58       		.uleb128 0x58
 2507 01a3 0B       		.uleb128 0xb
 2508 01a4 59       		.uleb128 0x59
ARM GAS  /tmp/ccaJeJ8X.s 			page 45


 2509 01a5 0B       		.uleb128 0xb
 2510 01a6 00       		.byte	0
 2511 01a7 00       		.byte	0
 2512 01a8 22       		.uleb128 0x22
 2513 01a9 05       		.uleb128 0x5
 2514 01aa 00       		.byte	0
 2515 01ab 31       		.uleb128 0x31
 2516 01ac 13       		.uleb128 0x13
 2517 01ad 02       		.uleb128 0x2
 2518 01ae 17       		.uleb128 0x17
 2519 01af 00       		.byte	0
 2520 01b0 00       		.byte	0
 2521 01b1 23       		.uleb128 0x23
 2522 01b2 05       		.uleb128 0x5
 2523 01b3 00       		.byte	0
 2524 01b4 03       		.uleb128 0x3
 2525 01b5 08       		.uleb128 0x8
 2526 01b6 3A       		.uleb128 0x3a
 2527 01b7 0B       		.uleb128 0xb
 2528 01b8 3B       		.uleb128 0x3b
 2529 01b9 0B       		.uleb128 0xb
 2530 01ba 49       		.uleb128 0x49
 2531 01bb 13       		.uleb128 0x13
 2532 01bc 02       		.uleb128 0x2
 2533 01bd 18       		.uleb128 0x18
 2534 01be 00       		.byte	0
 2535 01bf 00       		.byte	0
 2536 01c0 24       		.uleb128 0x24
 2537 01c1 1D       		.uleb128 0x1d
 2538 01c2 00       		.byte	0
 2539 01c3 31       		.uleb128 0x31
 2540 01c4 13       		.uleb128 0x13
 2541 01c5 11       		.uleb128 0x11
 2542 01c6 01       		.uleb128 0x1
 2543 01c7 12       		.uleb128 0x12
 2544 01c8 06       		.uleb128 0x6
 2545 01c9 58       		.uleb128 0x58
 2546 01ca 0B       		.uleb128 0xb
 2547 01cb 59       		.uleb128 0x59
 2548 01cc 0B       		.uleb128 0xb
 2549 01cd 00       		.byte	0
 2550 01ce 00       		.byte	0
 2551 01cf 25       		.uleb128 0x25
 2552 01d0 34       		.uleb128 0x34
 2553 01d1 00       		.byte	0
 2554 01d2 03       		.uleb128 0x3
 2555 01d3 08       		.uleb128 0x8
 2556 01d4 3A       		.uleb128 0x3a
 2557 01d5 0B       		.uleb128 0xb
 2558 01d6 3B       		.uleb128 0x3b
 2559 01d7 0B       		.uleb128 0xb
 2560 01d8 49       		.uleb128 0x49
 2561 01d9 13       		.uleb128 0x13
 2562 01da 02       		.uleb128 0x2
 2563 01db 18       		.uleb128 0x18
 2564 01dc 00       		.byte	0
 2565 01dd 00       		.byte	0
ARM GAS  /tmp/ccaJeJ8X.s 			page 46


 2566 01de 26       		.uleb128 0x26
 2567 01df 898201   		.uleb128 0x4109
 2568 01e2 01       		.byte	0x1
 2569 01e3 11       		.uleb128 0x11
 2570 01e4 01       		.uleb128 0x1
 2571 01e5 31       		.uleb128 0x31
 2572 01e6 13       		.uleb128 0x13
 2573 01e7 01       		.uleb128 0x1
 2574 01e8 13       		.uleb128 0x13
 2575 01e9 00       		.byte	0
 2576 01ea 00       		.byte	0
 2577 01eb 27       		.uleb128 0x27
 2578 01ec 8A8201   		.uleb128 0x410a
 2579 01ef 00       		.byte	0
 2580 01f0 02       		.uleb128 0x2
 2581 01f1 18       		.uleb128 0x18
 2582 01f2 9142     		.uleb128 0x2111
 2583 01f4 18       		.uleb128 0x18
 2584 01f5 00       		.byte	0
 2585 01f6 00       		.byte	0
 2586 01f7 28       		.uleb128 0x28
 2587 01f8 898201   		.uleb128 0x4109
 2588 01fb 01       		.byte	0x1
 2589 01fc 11       		.uleb128 0x11
 2590 01fd 01       		.uleb128 0x1
 2591 01fe 31       		.uleb128 0x31
 2592 01ff 13       		.uleb128 0x13
 2593 0200 00       		.byte	0
 2594 0201 00       		.byte	0
 2595 0202 29       		.uleb128 0x29
 2596 0203 2E       		.uleb128 0x2e
 2597 0204 01       		.byte	0x1
 2598 0205 03       		.uleb128 0x3
 2599 0206 0E       		.uleb128 0xe
 2600 0207 3A       		.uleb128 0x3a
 2601 0208 0B       		.uleb128 0xb
 2602 0209 3B       		.uleb128 0x3b
 2603 020a 0B       		.uleb128 0xb
 2604 020b 27       		.uleb128 0x27
 2605 020c 19       		.uleb128 0x19
 2606 020d 20       		.uleb128 0x20
 2607 020e 0B       		.uleb128 0xb
 2608 020f 01       		.uleb128 0x1
 2609 0210 13       		.uleb128 0x13
 2610 0211 00       		.byte	0
 2611 0212 00       		.byte	0
 2612 0213 2A       		.uleb128 0x2a
 2613 0214 05       		.uleb128 0x5
 2614 0215 00       		.byte	0
 2615 0216 03       		.uleb128 0x3
 2616 0217 08       		.uleb128 0x8
 2617 0218 3A       		.uleb128 0x3a
 2618 0219 0B       		.uleb128 0xb
 2619 021a 3B       		.uleb128 0x3b
 2620 021b 0B       		.uleb128 0xb
 2621 021c 49       		.uleb128 0x49
 2622 021d 13       		.uleb128 0x13
ARM GAS  /tmp/ccaJeJ8X.s 			page 47


 2623 021e 00       		.byte	0
 2624 021f 00       		.byte	0
 2625 0220 2B       		.uleb128 0x2b
 2626 0221 05       		.uleb128 0x5
 2627 0222 00       		.byte	0
 2628 0223 03       		.uleb128 0x3
 2629 0224 0E       		.uleb128 0xe
 2630 0225 3A       		.uleb128 0x3a
 2631 0226 0B       		.uleb128 0xb
 2632 0227 3B       		.uleb128 0x3b
 2633 0228 0B       		.uleb128 0xb
 2634 0229 49       		.uleb128 0x49
 2635 022a 13       		.uleb128 0x13
 2636 022b 00       		.byte	0
 2637 022c 00       		.byte	0
 2638 022d 2C       		.uleb128 0x2c
 2639 022e 2E       		.uleb128 0x2e
 2640 022f 00       		.byte	0
 2641 0230 03       		.uleb128 0x3
 2642 0231 0E       		.uleb128 0xe
 2643 0232 3A       		.uleb128 0x3a
 2644 0233 0B       		.uleb128 0xb
 2645 0234 3B       		.uleb128 0x3b
 2646 0235 05       		.uleb128 0x5
 2647 0236 27       		.uleb128 0x27
 2648 0237 19       		.uleb128 0x19
 2649 0238 49       		.uleb128 0x49
 2650 0239 13       		.uleb128 0x13
 2651 023a 20       		.uleb128 0x20
 2652 023b 0B       		.uleb128 0xb
 2653 023c 00       		.byte	0
 2654 023d 00       		.byte	0
 2655 023e 00       		.byte	0
 2656              		.section	.debug_loc,"",%progbits
 2657              	.Ldebug_loc0:
 2658              	.LLST3:
 2659 0000 0C000000 		.4byte	.LVL11
 2660 0004 32000000 		.4byte	.LVL14
 2661 0008 0200     		.2byte	0x2
 2662 000a 30       		.byte	0x30
 2663 000b 9F       		.byte	0x9f
 2664 000c 00000000 		.4byte	0
 2665 0010 00000000 		.4byte	0
 2666              	.LLST4:
 2667 0014 0C000000 		.4byte	.LVL11
 2668 0018 16000000 		.4byte	.LVL12
 2669 001c 0100     		.2byte	0x1
 2670 001e 53       		.byte	0x53
 2671 001f 16000000 		.4byte	.LVL12
 2672 0023 1A000000 		.4byte	.LVL13
 2673 0027 0200     		.2byte	0x2
 2674 0029 71       		.byte	0x71
 2675 002a 08       		.sleb128 8
 2676 002b 00000000 		.4byte	0
 2677 002f 00000000 		.4byte	0
 2678              	.LLST5:
 2679 0033 0C000000 		.4byte	.LVL11
ARM GAS  /tmp/ccaJeJ8X.s 			page 48


 2680 0037 32000000 		.4byte	.LVL14
 2681 003b 0100     		.2byte	0x1
 2682 003d 50       		.byte	0x50
 2683 003e 00000000 		.4byte	0
 2684 0042 00000000 		.4byte	0
 2685              	.LLST0:
 2686 0046 0C000000 		.4byte	.LVL4
 2687 004a 38000000 		.4byte	.LVL6
 2688 004e 0100     		.2byte	0x1
 2689 0050 51       		.byte	0x51
 2690 0051 00000000 		.4byte	0
 2691 0055 00000000 		.4byte	0
 2692              	.LLST1:
 2693 0059 0C000000 		.4byte	.LVL4
 2694 005d 1A000000 		.4byte	.LVL5
 2695 0061 0100     		.2byte	0x1
 2696 0063 53       		.byte	0x53
 2697 0064 00000000 		.4byte	0
 2698 0068 00000000 		.4byte	0
 2699              	.LLST2:
 2700 006c 08000000 		.4byte	.LVL3
 2701 0070 38000000 		.4byte	.LVL6
 2702 0074 0100     		.2byte	0x1
 2703 0076 50       		.byte	0x50
 2704 0077 00000000 		.4byte	0
 2705 007b 00000000 		.4byte	0
 2706              		.section	.debug_aranges,"",%progbits
 2707 0000 3C000000 		.4byte	0x3c
 2708 0004 0200     		.2byte	0x2
 2709 0006 00000000 		.4byte	.Ldebug_info0
 2710 000a 04       		.byte	0x4
 2711 000b 00       		.byte	0
 2712 000c 0000     		.2byte	0
 2713 000e 0000     		.2byte	0
 2714 0010 00000000 		.4byte	.LFB292
 2715 0014 18000000 		.4byte	.LFE292-.LFB292
 2716 0018 00000000 		.4byte	.LFB293
 2717 001c 0C000000 		.4byte	.LFE293-.LFB293
 2718 0020 00000000 		.4byte	.LFB294
 2719 0024 44000000 		.4byte	.LFE294-.LFB294
 2720 0028 00000000 		.4byte	.LFB291
 2721 002c 2C000000 		.4byte	.LFE291-.LFB291
 2722 0030 00000000 		.4byte	.LFB295
 2723 0034 38000000 		.4byte	.LFE295-.LFB295
 2724 0038 00000000 		.4byte	0
 2725 003c 00000000 		.4byte	0
 2726              		.section	.debug_ranges,"",%progbits
 2727              	.Ldebug_ranges0:
 2728 0000 02000000 		.4byte	.LBB14
 2729 0004 04000000 		.4byte	.LBE14
 2730 0008 0A000000 		.4byte	.LBB21
 2731 000c 0C000000 		.4byte	.LBE21
 2732 0010 00000000 		.4byte	0
 2733 0014 00000000 		.4byte	0
 2734 0018 08000000 		.4byte	.LBB17
 2735 001c 0A000000 		.4byte	.LBE17
 2736 0020 0C000000 		.4byte	.LBB22
ARM GAS  /tmp/ccaJeJ8X.s 			page 49


 2737 0024 12000000 		.4byte	.LBE22
 2738 0028 14000000 		.4byte	.LBB23
 2739 002c 44000000 		.4byte	.LBE23
 2740 0030 00000000 		.4byte	0
 2741 0034 00000000 		.4byte	0
 2742 0038 00000000 		.4byte	.LBB28
 2743 003c 02000000 		.4byte	.LBE28
 2744 0040 04000000 		.4byte	.LBB35
 2745 0044 06000000 		.4byte	.LBE35
 2746 0048 00000000 		.4byte	0
 2747 004c 00000000 		.4byte	0
 2748 0050 02000000 		.4byte	.LBB31
 2749 0054 04000000 		.4byte	.LBE31
 2750 0058 08000000 		.4byte	.LBB36
 2751 005c 0A000000 		.4byte	.LBE36
 2752 0060 0C000000 		.4byte	.LBB37
 2753 0064 38000000 		.4byte	.LBE37
 2754 0068 00000000 		.4byte	0
 2755 006c 00000000 		.4byte	0
 2756 0070 00000000 		.4byte	.LFB292
 2757 0074 18000000 		.4byte	.LFE292
 2758 0078 00000000 		.4byte	.LFB293
 2759 007c 0C000000 		.4byte	.LFE293
 2760 0080 00000000 		.4byte	.LFB294
 2761 0084 44000000 		.4byte	.LFE294
 2762 0088 00000000 		.4byte	.LFB291
 2763 008c 2C000000 		.4byte	.LFE291
 2764 0090 00000000 		.4byte	.LFB295
 2765 0094 38000000 		.4byte	.LFE295
 2766 0098 00000000 		.4byte	0
 2767 009c 00000000 		.4byte	0
 2768              		.section	.debug_line,"",%progbits
 2769              	.Ldebug_line0:
 2770 0000 1A040000 		.section	.debug_str,"MS",%progbits,1
 2770      02004803 
 2770      00000201 
 2770      FB0E0D00 
 2770      01010101 
 2771              	.LASF56:
 2772 0000 72656164 		.ascii	"ready_list_t\000"
 2772      795F6C69 
 2772      73745F74 
 2772      00
 2773              	.LASF4:
 2774 000d 73697A65 		.ascii	"size_t\000"
 2774      5F7400
 2775              	.LASF62:
 2776 0014 64656C74 		.ascii	"delta\000"
 2776      6100
 2777              	.LASF123:
 2778 001a 7264796D 		.ascii	"rdymsg\000"
 2778      736700
 2779              	.LASF20:
 2780 0021 75696E74 		.ascii	"uint64_t\000"
 2780      36345F74 
 2780      00
 2781              	.LASF75:
ARM GAS  /tmp/ccaJeJ8X.s 			page 50


 2782 002a 6B65726E 		.ascii	"kernel_stats\000"
 2782      656C5F73 
 2782      74617473 
 2782      00
 2783              	.LASF190:
 2784 0037 2E2E2F2E 		.ascii	"../../modules/ChibiOS/os/rt/src/chtm.c\000"
 2784      2E2F6D6F 
 2784      64756C65 
 2784      732F4368 
 2784      6962694F 
 2785              	.LASF5:
 2786 005e 5F5F7569 		.ascii	"__uint8_t\000"
 2786      6E74385F 
 2786      7400
 2787              	.LASF55:
 2788 0068 70726576 		.ascii	"prev\000"
 2788      00
 2789              	.LASF110:
 2790 006d 706F7274 		.ascii	"port_intctx\000"
 2790      5F696E74 
 2790      63747800 
 2791              	.LASF54:
 2792 0079 63685F74 		.ascii	"ch_threads_queue\000"
 2792      68726561 
 2792      64735F71 
 2792      75657565 
 2792      00
 2793              	.LASF67:
 2794 008a 73797374 		.ascii	"system_debug_t\000"
 2794      656D5F64 
 2794      65627567 
 2794      5F7400
 2795              	.LASF166:
 2796 0099 70726F76 		.ascii	"provider\000"
 2796      69646572 
 2796      00
 2797              	.LASF176:
 2798 00a2 73656D5F 		.ascii	"sem_list\000"
 2798      6C697374 
 2798      00
 2799              	.LASF109:
 2800 00ab 706F7274 		.ascii	"port_context\000"
 2800      5F636F6E 
 2800      74657874 
 2800      00
 2801              	.LASF114:
 2802 00b8 776F7273 		.ascii	"worst\000"
 2802      7400
 2803              	.LASF117:
 2804 00be 74696D65 		.ascii	"time_measurement_t\000"
 2804      5F6D6561 
 2804      73757265 
 2804      6D656E74 
 2804      5F7400
 2805              	.LASF15:
 2806 00d1 6C6F6E67 		.ascii	"long long unsigned int\000"
 2806      206C6F6E 
ARM GAS  /tmp/ccaJeJ8X.s 			page 51


 2806      6720756E 
 2806      7369676E 
 2806      65642069 
 2807              	.LASF124:
 2808 00e8 65786974 		.ascii	"exitcode\000"
 2808      636F6465 
 2808      00
 2809              	.LASF74:
 2810 00f1 6D61696E 		.ascii	"mainthread\000"
 2810      74687265 
 2810      616400
 2811              	.LASF192:
 2812 00fc 746D5F73 		.ascii	"tm_stop\000"
 2812      746F7000 
 2813              	.LASF64:
 2814 0104 76697274 		.ascii	"virtual_timers_list_t\000"
 2814      75616C5F 
 2814      74696D65 
 2814      72735F6C 
 2814      6973745F 
 2815              	.LASF187:
 2816 011a 6368544D 		.ascii	"chTMObjectInit\000"
 2816      4F626A65 
 2816      6374496E 
 2816      697400
 2817              	.LASF169:
 2818 0129 64796E5F 		.ascii	"dyn_element_t\000"
 2818      656C656D 
 2818      656E745F 
 2818      7400
 2819              	.LASF52:
 2820 0137 6E657874 		.ascii	"next\000"
 2820      00
 2821              	.LASF22:
 2822 013c 72747469 		.ascii	"rttime_t\000"
 2822      6D655F74 
 2822      00
 2823              	.LASF182:
 2824 0145 746D7031 		.ascii	"tmp1\000"
 2824      00
 2825              	.LASF183:
 2826 014a 746D7032 		.ascii	"tmp2\000"
 2826      00
 2827              	.LASF1:
 2828 014f 6C6F6E67 		.ascii	"long long int\000"
 2828      206C6F6E 
 2828      6720696E 
 2828      7400
 2829              	.LASF3:
 2830 015d 7369676E 		.ascii	"signed char\000"
 2830      65642063 
 2830      68617200 
 2831              	.LASF138:
 2832 0169 73697A65 		.ascii	"size\000"
 2832      00
 2833              	.LASF81:
 2834 016e 43504943 		.ascii	"CPICNT\000"
ARM GAS  /tmp/ccaJeJ8X.s 			page 52


 2834      4E5400
 2835              	.LASF189:
 2836 0175 474E5520 		.ascii	"GNU C11 6.3.1 20170620 (release) [ARM/embedded-6-br"
 2836      43313120 
 2836      362E332E 
 2836      31203230 
 2836      31373036 
 2837 01a8 616E6368 		.ascii	"anch revision 249437] -mcpu=cortex-m4 -mfloat-abi=h"
 2837      20726576 
 2837      6973696F 
 2837      6E203234 
 2837      39343337 
 2838 01db 61726420 		.ascii	"ard -mfpu=fpv4-sp-d16 -mno-thumb-interwork -mthumb "
 2838      2D6D6670 
 2838      753D6670 
 2838      76342D73 
 2838      702D6431 
 2839 020e 2D67202D 		.ascii	"-g -Os -fomit-frame-pointer -falign-functions=16 -f"
 2839      4F73202D 
 2839      666F6D69 
 2839      742D6672 
 2839      616D652D 
 2840 0241 66756E63 		.ascii	"function-sections -fdata-sections -fno-common -fsin"
 2840      74696F6E 
 2840      2D736563 
 2840      74696F6E 
 2840      73202D66 
 2841 0274 676C652D 		.ascii	"gle-precision-constant\000"
 2841      70726563 
 2841      6973696F 
 2841      6E2D636F 
 2841      6E737461 
 2842              	.LASF73:
 2843 028b 76746C69 		.ascii	"vtlist\000"
 2843      737400
 2844              	.LASF186:
 2845 0292 6368544D 		.ascii	"chTMStartMeasurementX\000"
 2845      53746172 
 2845      744D6561 
 2845      73757265 
 2845      6D656E74 
 2846              	.LASF38:
 2847 02a8 73746174 		.ascii	"state\000"
 2847      6500
 2848              	.LASF185:
 2849 02ae 6368544D 		.ascii	"chTMStopMeasurementX\000"
 2849      53746F70 
 2849      4D656173 
 2849      7572656D 
 2849      656E7458 
 2850              	.LASF11:
 2851 02c3 6C6F6E67 		.ascii	"long int\000"
 2851      20696E74 
 2851      00
 2852              	.LASF24:
 2853 02cc 74737461 		.ascii	"tstate_t\000"
 2853      74655F74 
ARM GAS  /tmp/ccaJeJ8X.s 			page 53


 2853      00
 2854              	.LASF63:
 2855 02d5 66756E63 		.ascii	"func\000"
 2855      00
 2856              	.LASF47:
 2857 02da 73746174 		.ascii	"stats\000"
 2857      7300
 2858              	.LASF154:
 2859 02e0 63686465 		.ascii	"chdebug_t\000"
 2859      6275675F 
 2859      7400
 2860              	.LASF152:
 2861 02ea 6F66665F 		.ascii	"off_preempt\000"
 2861      70726565 
 2861      6D707400 
 2862              	.LASF2:
 2863 02f6 6C6F6E67 		.ascii	"long double\000"
 2863      20646F75 
 2863      626C6500 
 2864              	.LASF12:
 2865 0302 5F5F7569 		.ascii	"__uint32_t\000"
 2865      6E743332 
 2865      5F7400
 2866              	.LASF107:
 2867 030d 72656761 		.ascii	"regarm_t\000"
 2867      726D5F74 
 2867      00
 2868              	.LASF178:
 2869 0316 6D62785F 		.ascii	"mbx_list\000"
 2869      6C697374 
 2869      00
 2870              	.LASF68:
 2871 031f 63685F73 		.ascii	"ch_system_debug\000"
 2871      79737465 
 2871      6D5F6465 
 2871      62756700 
 2872              	.LASF41:
 2873 032f 77616974 		.ascii	"waiting\000"
 2873      696E6700 
 2874              	.LASF72:
 2875 0337 726C6973 		.ascii	"rlist\000"
 2875      7400
 2876              	.LASF137:
 2877 033d 7A65726F 		.ascii	"zero\000"
 2877      00
 2878              	.LASF156:
 2879 0342 6D757465 		.ascii	"mutex_t\000"
 2879      785F7400 
 2880              	.LASF165:
 2881 034a 616C6967 		.ascii	"align\000"
 2881      6E00
 2882              	.LASF77:
 2883 0350 73797369 		.ascii	"sysinterval_t\000"
 2883      6E746572 
 2883      76616C5F 
 2883      7400
 2884              	.LASF29:
ARM GAS  /tmp/ccaJeJ8X.s 			page 54


 2885 035e 636E745F 		.ascii	"cnt_t\000"
 2885      7400
 2886              	.LASF42:
 2887 0364 6D736771 		.ascii	"msgqueue\000"
 2887      75657565 
 2887      00
 2888              	.LASF88:
 2889 036d 4D41534B 		.ascii	"MASK0\000"
 2889      3000
 2890              	.LASF0:
 2891 0373 756E7369 		.ascii	"unsigned int\000"
 2891      676E6564 
 2891      20696E74 
 2891      00
 2892              	.LASF96:
 2893 0380 4D41534B 		.ascii	"MASK2\000"
 2893      3200
 2894              	.LASF104:
 2895 0386 53797374 		.ascii	"SystemCoreClock\000"
 2895      656D436F 
 2895      7265436C 
 2895      6F636B00 
 2896              	.LASF100:
 2897 0396 4D41534B 		.ascii	"MASK3\000"
 2897      3300
 2898              	.LASF128:
 2899 039c 77747365 		.ascii	"wtsemp\000"
 2899      6D7000
 2900              	.LASF188:
 2901 03a3 5F746D5F 		.ascii	"_tm_init\000"
 2901      696E6974 
 2901      00
 2902              	.LASF155:
 2903 03ac 63685F64 		.ascii	"ch_debug\000"
 2903      65627567 
 2903      00
 2904              	.LASF50:
 2905 03b5 63685F74 		.ascii	"ch_thread\000"
 2905      68726561 
 2905      6400
 2906              	.LASF167:
 2907 03bf 6D656D6F 		.ascii	"memory_pool_t\000"
 2907      72795F70 
 2907      6F6F6C5F 
 2907      7400
 2908              	.LASF118:
 2909 03cd 6E5F6972 		.ascii	"n_irq\000"
 2909      7100
 2910              	.LASF32:
 2911 03d3 71756575 		.ascii	"queue\000"
 2911      6500
 2912              	.LASF46:
 2913 03d9 6D706F6F 		.ascii	"mpool\000"
 2913      6C00
 2914              	.LASF113:
 2915 03df 62657374 		.ascii	"best\000"
 2915      00
ARM GAS  /tmp/ccaJeJ8X.s 			page 55


 2916              	.LASF151:
 2917 03e4 6F66665F 		.ascii	"off_refs\000"
 2917      72656673 
 2917      00
 2918              	.LASF122:
 2919 03ed 6B65726E 		.ascii	"kernel_stats_t\000"
 2919      656C5F73 
 2919      74617473 
 2919      5F7400
 2920              	.LASF36:
 2921 03fc 6E616D65 		.ascii	"name\000"
 2921      00
 2922              	.LASF83:
 2923 0401 534C4545 		.ascii	"SLEEPCNT\000"
 2923      50434E54 
 2923      00
 2924              	.LASF82:
 2925 040a 45584343 		.ascii	"EXCCNT\000"
 2925      4E5400
 2926              	.LASF27:
 2927 0411 6D73675F 		.ascii	"msg_t\000"
 2927      7400
 2928              	.LASF115:
 2929 0417 6C617374 		.ascii	"last\000"
 2929      00
 2930              	.LASF30:
 2931 041c 75636E74 		.ascii	"ucnt_t\000"
 2931      5F7400
 2932              	.LASF43:
 2933 0423 6570656E 		.ascii	"epending\000"
 2933      64696E67 
 2933      00
 2934              	.LASF171:
 2935 042c 64796E5F 		.ascii	"dyn_list_t\000"
 2935      6C697374 
 2935      5F7400
 2936              	.LASF70:
 2937 0437 63685F73 		.ascii	"ch_system_t\000"
 2937      79737465 
 2937      6D5F7400 
 2938              	.LASF144:
 2939 0443 6F66665F 		.ascii	"off_ctx\000"
 2939      63747800 
 2940              	.LASF23:
 2941 044b 746D6F64 		.ascii	"tmode_t\000"
 2941      655F7400 
 2942              	.LASF17:
 2943 0453 75696E74 		.ascii	"uint16_t\000"
 2943      31365F74 
 2943      00
 2944              	.LASF121:
 2945 045c 6D5F6372 		.ascii	"m_crit_isr\000"
 2945      69745F69 
 2945      737200
 2946              	.LASF57:
 2947 0467 63685F72 		.ascii	"ch_ready_list\000"
 2947      65616479 
ARM GAS  /tmp/ccaJeJ8X.s 			page 56


 2947      5F6C6973 
 2947      7400
 2948              	.LASF28:
 2949 0475 6576656E 		.ascii	"eventmask_t\000"
 2949      746D6173 
 2949      6B5F7400 
 2950              	.LASF105:
 2951 0481 41484250 		.ascii	"AHBPrescTable\000"
 2951      72657363 
 2951      5461626C 
 2951      6500
 2952              	.LASF160:
 2953 048f 656E646D 		.ascii	"endmem\000"
 2953      656D00
 2954              	.LASF10:
 2955 0496 5F5F696E 		.ascii	"__int32_t\000"
 2955      7433325F 
 2955      7400
 2956              	.LASF184:
 2957 04a0 6368544D 		.ascii	"chTMChainMeasurementToX\000"
 2957      43686169 
 2957      6E4D6561 
 2957      73757265 
 2957      6D656E74 
 2958              	.LASF108:
 2959 04b8 73746B61 		.ascii	"stkalign_t\000"
 2959      6C69676E 
 2959      5F7400
 2960              	.LASF34:
 2961 04c3 6E657765 		.ascii	"newer\000"
 2961      7200
 2962              	.LASF80:
 2963 04c9 43594343 		.ascii	"CYCCNT\000"
 2963      4E5400
 2964              	.LASF45:
 2965 04d0 7265616C 		.ascii	"realprio\000"
 2965      7072696F 
 2965      00
 2966              	.LASF139:
 2967 04d9 76657273 		.ascii	"version\000"
 2967      696F6E00 
 2968              	.LASF78:
 2969 04e1 73697A65 		.ascii	"sizetype\000"
 2969      74797065 
 2969      00
 2970              	.LASF48:
 2971 04ea 74687265 		.ascii	"thread_reference_t\000"
 2971      61645F72 
 2971      65666572 
 2971      656E6365 
 2971      5F7400
 2972              	.LASF65:
 2973 04fd 63685F76 		.ascii	"ch_virtual_timers_list\000"
 2973      69727475 
 2973      616C5F74 
 2973      696D6572 
 2973      735F6C69 
ARM GAS  /tmp/ccaJeJ8X.s 			page 57


 2974              	.LASF126:
 2975 0514 77747472 		.ascii	"wttrp\000"
 2975      7000
 2976              	.LASF170:
 2977 051a 63685F64 		.ascii	"ch_dyn_list\000"
 2977      796E5F6C 
 2977      69737400 
 2978              	.LASF145:
 2979 0526 6F66665F 		.ascii	"off_newer\000"
 2979      6E657765 
 2979      7200
 2980              	.LASF112:
 2981 0530 746D5F63 		.ascii	"tm_calibration_t\000"
 2981      616C6962 
 2981      72617469 
 2981      6F6E5F74 
 2981      00
 2982              	.LASF106:
 2983 0541 41504250 		.ascii	"APBPrescTable\000"
 2983      72657363 
 2983      5461626C 
 2983      6500
 2984              	.LASF87:
 2985 054f 434F4D50 		.ascii	"COMP0\000"
 2985      3000
 2986              	.LASF91:
 2987 0555 434F4D50 		.ascii	"COMP1\000"
 2987      3100
 2988              	.LASF95:
 2989 055b 434F4D50 		.ascii	"COMP2\000"
 2989      3200
 2990              	.LASF99:
 2991 0561 434F4D50 		.ascii	"COMP3\000"
 2991      3300
 2992              	.LASF142:
 2993 0567 74687265 		.ascii	"threadsize\000"
 2993      61647369 
 2993      7A6500
 2994              	.LASF33:
 2995 0572 7072696F 		.ascii	"prio\000"
 2995      00
 2996              	.LASF177:
 2997 0577 73656D5F 		.ascii	"sem_pool\000"
 2997      706F6F6C 
 2997      00
 2998              	.LASF58:
 2999 0580 63757272 		.ascii	"current\000"
 2999      656E7400 
 3000              	.LASF14:
 3001 0588 5F5F7569 		.ascii	"__uint64_t\000"
 3001      6E743634 
 3001      5F7400
 3002              	.LASF161:
 3003 0593 6D656D63 		.ascii	"memcore_t\000"
 3003      6F72655F 
 3003      7400
 3004              	.LASF116:
ARM GAS  /tmp/ccaJeJ8X.s 			page 58


 3005 059d 63756D75 		.ascii	"cumulative\000"
 3005      6C617469 
 3005      766500
 3006              	.LASF25:
 3007 05a8 74726566 		.ascii	"trefs_t\000"
 3007      735F7400 
 3008              	.LASF90:
 3009 05b0 52455345 		.ascii	"RESERVED0\000"
 3009      52564544 
 3009      3000
 3010              	.LASF94:
 3011 05ba 52455345 		.ascii	"RESERVED1\000"
 3011      52564544 
 3011      3100
 3012              	.LASF98:
 3013 05c4 52455345 		.ascii	"RESERVED2\000"
 3013      52564544 
 3013      3200
 3014              	.LASF40:
 3015 05ce 72656673 		.ascii	"refs\000"
 3015      00
 3016              	.LASF60:
 3017 05d3 76697274 		.ascii	"virtual_timer_t\000"
 3017      75616C5F 
 3017      74696D65 
 3017      725F7400 
 3018              	.LASF168:
 3019 05e3 63685F64 		.ascii	"ch_dyn_element\000"
 3019      796E5F65 
 3019      6C656D65 
 3019      6E7400
 3020              	.LASF26:
 3021 05f2 74707269 		.ascii	"tprio_t\000"
 3021      6F5F7400 
 3022              	.LASF86:
 3023 05fa 50435352 		.ascii	"PCSR\000"
 3023      00
 3024              	.LASF175:
 3025 05ff 6275665F 		.ascii	"buf_list\000"
 3025      6C697374 
 3025      00
 3026              	.LASF119:
 3027 0608 6E5F6374 		.ascii	"n_ctxswc\000"
 3027      78737763 
 3027      00
 3028              	.LASF92:
 3029 0611 4D41534B 		.ascii	"MASK1\000"
 3029      3100
 3030              	.LASF18:
 3031 0617 696E7433 		.ascii	"int32_t\000"
 3031      325F7400 
 3032              	.LASF6:
 3033 061f 756E7369 		.ascii	"unsigned char\000"
 3033      676E6564 
 3033      20636861 
 3033      7200
 3034              	.LASF143:
ARM GAS  /tmp/ccaJeJ8X.s 			page 59


 3035 062d 6F66665F 		.ascii	"off_prio\000"
 3035      7072696F 
 3035      00
 3036              	.LASF148:
 3037 0636 6F66665F 		.ascii	"off_stklimit\000"
 3037      73746B6C 
 3037      696D6974 
 3037      00
 3038              	.LASF103:
 3039 0643 49544D5F 		.ascii	"ITM_RxBuffer\000"
 3039      52784275 
 3039      66666572 
 3039      00
 3040              	.LASF89:
 3041 0650 46554E43 		.ascii	"FUNCTION0\000"
 3041      54494F4E 
 3041      3000
 3042              	.LASF93:
 3043 065a 46554E43 		.ascii	"FUNCTION1\000"
 3043      54494F4E 
 3043      3100
 3044              	.LASF97:
 3045 0664 46554E43 		.ascii	"FUNCTION2\000"
 3045      54494F4E 
 3045      3200
 3046              	.LASF101:
 3047 066e 46554E43 		.ascii	"FUNCTION3\000"
 3047      54494F4E 
 3047      3300
 3048              	.LASF7:
 3049 0678 73686F72 		.ascii	"short int\000"
 3049      7420696E 
 3049      7400
 3050              	.LASF66:
 3051 0682 6C617374 		.ascii	"lasttime\000"
 3051      74696D65 
 3051      00
 3052              	.LASF130:
 3053 068b 65776D61 		.ascii	"ewmask\000"
 3053      736B00
 3054              	.LASF71:
 3055 0692 63685F73 		.ascii	"ch_system\000"
 3055      79737465 
 3055      6D00
 3056              	.LASF181:
 3057 069c 63685F66 		.ascii	"ch_factory\000"
 3057      6163746F 
 3057      727900
 3058              	.LASF174:
 3059 06a7 6F626A5F 		.ascii	"obj_pool\000"
 3059      706F6F6C 
 3059      00
 3060              	.LASF61:
 3061 06b0 63685F76 		.ascii	"ch_virtual_timer\000"
 3061      69727475 
 3061      616C5F74 
 3061      696D6572 
ARM GAS  /tmp/ccaJeJ8X.s 			page 60


 3061      00
 3062              	.LASF131:
 3063 06c1 63685F73 		.ascii	"ch_semaphore\000"
 3063      656D6170 
 3063      686F7265 
 3063      00
 3064              	.LASF153:
 3065 06ce 6F66665F 		.ascii	"off_time\000"
 3065      74696D65 
 3065      00
 3066              	.LASF135:
 3067 06d7 63685F69 		.ascii	"ch_idle_thread_wa\000"
 3067      646C655F 
 3067      74687265 
 3067      61645F77 
 3067      6100
 3068              	.LASF141:
 3069 06e9 74696D65 		.ascii	"timesize\000"
 3069      73697A65 
 3069      00
 3070              	.LASF84:
 3071 06f2 4C535543 		.ascii	"LSUCNT\000"
 3071      4E5400
 3072              	.LASF191:
 3073 06f9 2F686F6D 		.ascii	"/home/haggisaerospace/ardupilot/ardupilot/build/Cub"
 3073      652F6861 
 3073      67676973 
 3073      6165726F 
 3073      73706163 
 3074 072c 65426C61 		.ascii	"eBlack\000"
 3074      636B00
 3075              	.LASF129:
 3076 0733 77746D74 		.ascii	"wtmtxp\000"
 3076      787000
 3077              	.LASF51:
 3078 073a 63685F74 		.ascii	"ch_threads_list\000"
 3078      68726561 
 3078      64735F6C 
 3078      69737400 
 3079              	.LASF133:
 3080 074a 6F776E65 		.ascii	"owner\000"
 3080      7200
 3081              	.LASF157:
 3082 0750 5F426F6F 		.ascii	"_Bool\000"
 3082      6C00
 3083              	.LASF13:
 3084 0756 6C6F6E67 		.ascii	"long unsigned int\000"
 3084      20756E73 
 3084      69676E65 
 3084      6420696E 
 3084      7400
 3085              	.LASF37:
 3086 0768 77616261 		.ascii	"wabase\000"
 3086      736500
 3087              	.LASF134:
 3088 076f 63686172 		.ascii	"char\000"
 3088      00
ARM GAS  /tmp/ccaJeJ8X.s 			page 61


 3089              	.LASF35:
 3090 0774 6F6C6465 		.ascii	"older\000"
 3090      7200
 3091              	.LASF173:
 3092 077a 6F626A5F 		.ascii	"obj_list\000"
 3092      6C697374 
 3092      00
 3093              	.LASF8:
 3094 0783 5F5F7569 		.ascii	"__uint16_t\000"
 3094      6E743136 
 3094      5F7400
 3095              	.LASF31:
 3096 078e 74687265 		.ascii	"thread_t\000"
 3096      61645F74 
 3096      00
 3097              	.LASF193:
 3098 0797 706F7274 		.ascii	"port_rt_get_counter_value\000"
 3098      5F72745F 
 3098      6765745F 
 3098      636F756E 
 3098      7465725F 
 3099              	.LASF162:
 3100 07b1 63685F6D 		.ascii	"ch_memcore\000"
 3100      656D636F 
 3100      726500
 3101              	.LASF76:
 3102 07bc 73797374 		.ascii	"systime_t\000"
 3102      696D655F 
 3102      7400
 3103              	.LASF59:
 3104 07c6 76746675 		.ascii	"vtfunc_t\000"
 3104      6E635F74 
 3104      00
 3105              	.LASF69:
 3106 07cf 70616E69 		.ascii	"panic_msg\000"
 3106      635F6D73 
 3106      6700
 3107              	.LASF111:
 3108 07d9 6F666673 		.ascii	"offset\000"
 3108      657400
 3109              	.LASF132:
 3110 07e0 63685F6D 		.ascii	"ch_mutex\000"
 3110      75746578 
 3110      00
 3111              	.LASF146:
 3112 07e9 6F66665F 		.ascii	"off_older\000"
 3112      6F6C6465 
 3112      7200
 3113              	.LASF9:
 3114 07f3 73686F72 		.ascii	"short unsigned int\000"
 3114      7420756E 
 3114      7369676E 
 3114      65642069 
 3114      6E7400
 3115              	.LASF102:
 3116 0806 4457545F 		.ascii	"DWT_Type\000"
 3116      54797065 
ARM GAS  /tmp/ccaJeJ8X.s 			page 62


 3116      00
 3117              	.LASF136:
 3118 080f 6964656E 		.ascii	"identifier\000"
 3118      74696669 
 3118      657200
 3119              	.LASF21:
 3120 081a 7274636E 		.ascii	"rtcnt_t\000"
 3120      745F7400 
 3121              	.LASF158:
 3122 0822 6D656D67 		.ascii	"memgetfunc_t\000"
 3122      65746675 
 3122      6E635F74 
 3122      00
 3123              	.LASF79:
 3124 082f 4354524C 		.ascii	"CTRL\000"
 3124      00
 3125              	.LASF164:
 3126 0834 6F626A65 		.ascii	"object_size\000"
 3126      63745F73 
 3126      697A6500 
 3127              	.LASF140:
 3128 0840 70747273 		.ascii	"ptrsize\000"
 3128      697A6500 
 3129              	.LASF172:
 3130 0848 63685F6F 		.ascii	"ch_objects_factory\000"
 3130      626A6563 
 3130      74735F66 
 3130      6163746F 
 3130      727900
 3131              	.LASF53:
 3132 085b 74687265 		.ascii	"threads_queue_t\000"
 3132      6164735F 
 3132      71756575 
 3132      655F7400 
 3133              	.LASF163:
 3134 086b 706F6F6C 		.ascii	"pool_header\000"
 3134      5F686561 
 3134      64657200 
 3135              	.LASF147:
 3136 0877 6F66665F 		.ascii	"off_name\000"
 3136      6E616D65 
 3136      00
 3137              	.LASF16:
 3138 0880 75696E74 		.ascii	"uint8_t\000"
 3138      385F7400 
 3139              	.LASF39:
 3140 0888 666C6167 		.ascii	"flags\000"
 3140      7300
 3141              	.LASF179:
 3142 088e 6669666F 		.ascii	"fifo_list\000"
 3142      5F6C6973 
 3142      7400
 3143              	.LASF85:
 3144 0898 464F4C44 		.ascii	"FOLDCNT\000"
 3144      434E5400 
 3145              	.LASF125:
 3146 08a0 77746F62 		.ascii	"wtobjp\000"
ARM GAS  /tmp/ccaJeJ8X.s 			page 63


 3146      6A7000
 3147              	.LASF49:
 3148 08a7 74687265 		.ascii	"threads_list_t\000"
 3148      6164735F 
 3148      6C697374 
 3148      5F7400
 3149              	.LASF149:
 3150 08b6 6F66665F 		.ascii	"off_state\000"
 3150      73746174 
 3150      6500
 3151              	.LASF180:
 3152 08c0 6F626A65 		.ascii	"objects_factory_t\000"
 3152      6374735F 
 3152      66616374 
 3152      6F72795F 
 3152      7400
 3153              	.LASF150:
 3154 08d2 6F66665F 		.ascii	"off_flags\000"
 3154      666C6167 
 3154      7300
 3155              	.LASF44:
 3156 08dc 6D74786C 		.ascii	"mtxlist\000"
 3156      69737400 
 3157              	.LASF127:
 3158 08e4 73656E74 		.ascii	"sentmsg\000"
 3158      6D736700 
 3159              	.LASF120:
 3160 08ec 6D5F6372 		.ascii	"m_crit_thd\000"
 3160      69745F74 
 3160      686400
 3161              	.LASF19:
 3162 08f7 75696E74 		.ascii	"uint32_t\000"
 3162      33325F74 
 3162      00
 3163              	.LASF159:
 3164 0900 6E657874 		.ascii	"nextmem\000"
 3164      6D656D00 
 3165              		.ident	"GCC: (GNU Tools for ARM Embedded Processors 6-2017-q2-update) 6.3.1 20170620 (release) [AR
ARM GAS  /tmp/ccaJeJ8X.s 			page 64


DEFINED SYMBOLS
                            *ABS*:0000000000000000 chtm.c
     /tmp/ccaJeJ8X.s:18     .text.chTMObjectInit:0000000000000000 $t
     /tmp/ccaJeJ8X.s:25     .text.chTMObjectInit:0000000000000000 chTMObjectInit
     /tmp/ccaJeJ8X.s:53     .text.chTMStartMeasurementX:0000000000000000 $t
     /tmp/ccaJeJ8X.s:60     .text.chTMStartMeasurementX:0000000000000000 chTMStartMeasurementX
     /tmp/ccaJeJ8X.s:82     .text.chTMStartMeasurementX:0000000000000008 $d
     /tmp/ccaJeJ8X.s:87     .text.chTMStopMeasurementX:0000000000000000 $t
     /tmp/ccaJeJ8X.s:94     .text.chTMStopMeasurementX:0000000000000000 chTMStopMeasurementX
     /tmp/ccaJeJ8X.s:174    .text.chTMStopMeasurementX:000000000000003c $d
     /tmp/ccaJeJ8X.s:182    .text._tm_init:0000000000000000 $t
     /tmp/ccaJeJ8X.s:189    .text._tm_init:0000000000000000 _tm_init
     /tmp/ccaJeJ8X.s:232    .text._tm_init:0000000000000028 $d
     /tmp/ccaJeJ8X.s:237    .text.chTMChainMeasurementToX:0000000000000000 $t
     /tmp/ccaJeJ8X.s:244    .text.chTMChainMeasurementToX:0000000000000000 chTMChainMeasurementToX
     /tmp/ccaJeJ8X.s:321    .text.chTMChainMeasurementToX:0000000000000034 $d
                     .debug_frame:0000000000000010 $d

UNDEFINED SYMBOLS
ch
