ARM GAS  /tmp/ccaJeJ8X.s 			page 1


   1              		.cpu cortex-m4
   2              		.eabi_attribute 27, 1
   3              		.eabi_attribute 28, 1
   4              		.eabi_attribute 20, 1
   5              		.eabi_attribute 21, 1
   6              		.eabi_attribute 23, 3
   7              		.eabi_attribute 24, 1
   8              		.eabi_attribute 25, 1
   9              		.eabi_attribute 26, 1
  10              		.eabi_attribute 30, 4
  11              		.eabi_attribute 34, 1
  12              		.eabi_attribute 18, 4
  13              		.file	"chtm.c"
  14              		.text
  15              	.Ltext0:
  16              		.cfi_sections	.debug_frame
  17              		.section	.text.chTMObjectInit,"ax",%progbits
  18              		.align	1
  19              		.global	chTMObjectInit
  20              		.syntax unified
  21              		.thumb
  22              		.thumb_func
  23              		.fpu fpv4-sp-d16
  24              		.type	chTMObjectInit, %function
  25              	chTMObjectInit:
  26              	.LFB292:
  27              		.file 1 "../../modules/ChibiOS/os/rt/src/chtm.c"
  28              		.loc 1 97 0
  29              		.cfi_startproc
  30              		@ args = 0, pretend = 0, frame = 0
  31              		@ frame_needed = 0, uses_anonymous_args = 0
  32              		@ link register save eliminated.
  33              	.LVL0:
  34              		.loc 1 99 0
  35 0000 4FF0FF33 		mov	r3, #-1
  36 0004 0360     		str	r3, [r0]
  37              		.loc 1 100 0
  38 0006 0023     		movs	r3, #0
  39 0008 4360     		str	r3, [r0, #4]
  40              		.loc 1 101 0
  41 000a 8360     		str	r3, [r0, #8]
  42              		.loc 1 102 0
  43 000c C360     		str	r3, [r0, #12]
  44              		.loc 1 103 0
  45 000e 0022     		movs	r2, #0
  46 0010 0023     		movs	r3, #0
  47 0012 C0E90423 		strd	r2, [r0, #16]
  48 0016 7047     		bx	lr
  49              		.cfi_endproc
  50              	.LFE292:
  51              		.size	chTMObjectInit, .-chTMObjectInit
  52              		.section	.text.chTMStartMeasurementX,"ax",%progbits
  53              		.align	1
  54              		.global	chTMStartMeasurementX
  55              		.syntax unified
  56              		.thumb
  57              		.thumb_func
ARM GAS  /tmp/ccaJeJ8X.s 			page 2


  58              		.fpu fpv4-sp-d16
  59              		.type	chTMStartMeasurementX, %function
  60              	chTMStartMeasurementX:
  61              	.LFB293:
  62              		.loc 1 114 0
  63              		.cfi_startproc
  64              		@ args = 0, pretend = 0, frame = 0
  65              		@ frame_needed = 0, uses_anonymous_args = 0
  66              		@ link register save eliminated.
  67              	.LVL1:
  68              	.LBB8:
  69              	.LBB9:
  70              		.file 2 "../../modules/ChibiOS/os/common/ports/ARMCMx/chcore_v7m.h"
  71              		.loc 2 716 0
  72 0000 014B     		ldr	r3, .L3
  73 0002 5B68     		ldr	r3, [r3, #4]
  74              	.LBE9:
  75              	.LBE8:
  76              		.loc 1 116 0
  77 0004 8360     		str	r3, [r0, #8]
  78 0006 7047     		bx	lr
  79              	.L4:
  80              		.align	2
  81              	.L3:
  82 0008 001000E0 		.word	-536866816
  83              		.cfi_endproc
  84              	.LFE293:
  85              		.size	chTMStartMeasurementX, .-chTMStartMeasurementX
  86              		.section	.text.chTMStopMeasurementX,"ax",%progbits
  87              		.align	1
  88              		.global	chTMStopMeasurementX
  89              		.syntax unified
  90              		.thumb
  91              		.thumb_func
  92              		.fpu fpv4-sp-d16
  93              		.type	chTMStopMeasurementX, %function
  94              	chTMStopMeasurementX:
  95              	.LFB294:
  96              		.loc 1 127 0
  97              		.cfi_startproc
  98              		@ args = 0, pretend = 0, frame = 0
  99              		@ frame_needed = 0, uses_anonymous_args = 0
 100              	.LVL2:
 101              		.loc 1 129 0
 102 0000 0E4A     		ldr	r2, .L8
 103              	.LBB14:
 104              	.LBB15:
 105              		.loc 2 716 0
 106 0002 0F4B     		ldr	r3, .L8+4
 107              	.LBE15:
 108              	.LBE14:
 109              		.loc 1 129 0
 110 0004 D2F89010 		ldr	r1, [r2, #144]
 111              	.LVL3:
 112              	.LBB17:
 113              	.LBB18:
 114              		.loc 1 57 0
ARM GAS  /tmp/ccaJeJ8X.s 			page 3


 115 0008 C268     		ldr	r2, [r0, #12]
 116              	.LBE18:
 117              	.LBE17:
 118              	.LBB21:
 119              	.LBB16:
 120              		.loc 2 716 0
 121 000a 5B68     		ldr	r3, [r3, #4]
 122              	.LVL4:
 123              	.LBE16:
 124              	.LBE21:
 125              	.LBB22:
 126              	.LBB19:
 127              		.loc 1 57 0
 128 000c 0132     		adds	r2, r2, #1
 129 000e C260     		str	r2, [r0, #12]
 130              		.loc 1 58 0
 131 0010 8268     		ldr	r2, [r0, #8]
 132              	.LBE19:
 133              	.LBE22:
 134              		.loc 1 127 0
 135 0012 30B5     		push	{r4, r5, lr}
 136              		.cfi_def_cfa_offset 12
 137              		.cfi_offset 4, -12
 138              		.cfi_offset 5, -8
 139              		.cfi_offset 14, -4
 140              	.LBB23:
 141              	.LBB20:
 142              		.loc 1 59 0
 143 0014 D0E90445 		ldrd	r4, [r0, #16]
 144              		.loc 1 58 0
 145 0018 9B1A     		subs	r3, r3, r2
 146              	.LVL5:
 147 001a 5B1A     		subs	r3, r3, r1
 148              		.loc 1 60 0
 149 001c 4268     		ldr	r2, [r0, #4]
 150              		.loc 1 58 0
 151 001e 8360     		str	r3, [r0, #8]
 152              		.loc 1 59 0
 153 0020 E418     		adds	r4, r4, r3
 154 0022 45F10005 		adc	r5, r5, #0
 155              		.loc 1 60 0
 156 0026 9342     		cmp	r3, r2
 157              		.loc 1 63 0
 158 0028 0268     		ldr	r2, [r0]
 159              		.loc 1 61 0
 160 002a 88BF     		it	hi
 161 002c 4360     		strhi	r3, [r0, #4]
 162              		.loc 1 63 0
 163 002e 9342     		cmp	r3, r2
 164              		.loc 1 59 0
 165 0030 C0E90445 		strd	r4, [r0, #16]
 166              		.loc 1 64 0
 167 0034 38BF     		it	cc
 168 0036 0360     		strcc	r3, [r0]
 169              	.LVL6:
 170 0038 30BD     		pop	{r4, r5, pc}
 171              	.L9:
ARM GAS  /tmp/ccaJeJ8X.s 			page 4


 172 003a 00BF     		.align	2
 173              	.L8:
 174 003c 00000000 		.word	ch
 175 0040 001000E0 		.word	-536866816
 176              	.LBE20:
 177              	.LBE23:
 178              		.cfi_endproc
 179              	.LFE294:
 180              		.size	chTMStopMeasurementX, .-chTMStopMeasurementX
 181              		.section	.text._tm_init,"ax",%progbits
 182              		.align	1
 183              		.global	_tm_init
 184              		.syntax unified
 185              		.thumb
 186              		.thumb_func
 187              		.fpu fpv4-sp-d16
 188              		.type	_tm_init, %function
 189              	_tm_init:
 190              	.LFB291:
 191              		.loc 1 77 0
 192              		.cfi_startproc
 193              		@ args = 0, pretend = 0, frame = 24
 194              		@ frame_needed = 0, uses_anonymous_args = 0
 195 0000 10B5     		push	{r4, lr}
 196              		.cfi_def_cfa_offset 8
 197              		.cfi_offset 4, -8
 198              		.cfi_offset 14, -4
 199              		.loc 1 83 0
 200 0002 094C     		ldr	r4, .L11
 201              		.loc 1 77 0
 202 0004 86B0     		sub	sp, sp, #24
 203              		.cfi_def_cfa_offset 32
 204              		.loc 1 83 0
 205 0006 0023     		movs	r3, #0
 206              		.loc 1 84 0
 207 0008 6846     		mov	r0, sp
 208              		.loc 1 83 0
 209 000a C4F89030 		str	r3, [r4, #144]
 210              		.loc 1 84 0
 211 000e FFF7FEFF 		bl	chTMObjectInit
 212              	.LVL7:
 213              		.loc 1 85 0
 214 0012 6846     		mov	r0, sp
 215 0014 FFF7FEFF 		bl	chTMStartMeasurementX
 216              	.LVL8:
 217              		.loc 1 86 0
 218 0018 6846     		mov	r0, sp
 219 001a FFF7FEFF 		bl	chTMStopMeasurementX
 220              	.LVL9:
 221              		.loc 1 87 0
 222 001e 029B     		ldr	r3, [sp, #8]
 223 0020 C4F89030 		str	r3, [r4, #144]
 224              		.loc 1 88 0
 225 0024 06B0     		add	sp, sp, #24
 226              		.cfi_def_cfa_offset 8
 227              		@ sp needed
 228 0026 10BD     		pop	{r4, pc}
ARM GAS  /tmp/ccaJeJ8X.s 			page 5


 229              	.L12:
 230              		.align	2
 231              	.L11:
 232 0028 00000000 		.word	ch
 233              		.cfi_endproc
 234              	.LFE291:
 235              		.size	_tm_init, .-_tm_init
 236              		.section	.text.chTMChainMeasurementToX,"ax",%progbits
 237              		.align	1
 238              		.global	chTMChainMeasurementToX
 239              		.syntax unified
 240              		.thumb
 241              		.thumb_func
 242              		.fpu fpv4-sp-d16
 243              		.type	chTMChainMeasurementToX, %function
 244              	chTMChainMeasurementToX:
 245              	.LFB295:
 246              		.loc 1 145 0
 247              		.cfi_startproc
 248              		@ args = 0, pretend = 0, frame = 0
 249              		@ frame_needed = 0, uses_anonymous_args = 0
 250              	.LVL10:
 251              	.LBB28:
 252              	.LBB29:
 253              		.loc 2 716 0
 254 0000 0C4B     		ldr	r3, .L16
 255              	.LBE29:
 256              	.LBE28:
 257              	.LBB31:
 258              	.LBB32:
 259              		.loc 1 57 0
 260 0002 C268     		ldr	r2, [r0, #12]
 261              	.LBE32:
 262              	.LBE31:
 263              	.LBB35:
 264              	.LBB30:
 265              		.loc 2 716 0
 266 0004 5B68     		ldr	r3, [r3, #4]
 267              	.LBE30:
 268              	.LBE35:
 269              		.loc 1 145 0
 270 0006 30B5     		push	{r4, r5, lr}
 271              		.cfi_def_cfa_offset 12
 272              		.cfi_offset 4, -12
 273              		.cfi_offset 5, -8
 274              		.cfi_offset 14, -4
 275              	.LBB36:
 276              	.LBB33:
 277              		.loc 1 57 0
 278 0008 0132     		adds	r2, r2, #1
 279              	.LBE33:
 280              	.LBE36:
 281              		.loc 1 148 0
 282 000a 8B60     		str	r3, [r1, #8]
 283              	.LVL11:
 284              	.LBB37:
 285              	.LBB34:
ARM GAS  /tmp/ccaJeJ8X.s 			page 6


 286              		.loc 1 59 0
 287 000c D0E90445 		ldrd	r4, [r0, #16]
 288              		.loc 1 57 0
 289 0010 C260     		str	r2, [r0, #12]
 290              		.loc 1 58 0
 291 0012 8268     		ldr	r2, [r0, #8]
 292 0014 9B1A     		subs	r3, r3, r2
 293              	.LVL12:
 294              		.loc 1 60 0
 295 0016 4268     		ldr	r2, [r0, #4]
 296              		.loc 1 58 0
 297 0018 8360     		str	r3, [r0, #8]
 298              	.LVL13:
 299              		.loc 1 59 0
 300 001a E418     		adds	r4, r4, r3
 301 001c 45F10005 		adc	r5, r5, #0
 302              		.loc 1 60 0
 303 0020 9342     		cmp	r3, r2
 304              		.loc 1 63 0
 305 0022 0268     		ldr	r2, [r0]
 306              		.loc 1 61 0
 307 0024 88BF     		it	hi
 308 0026 4360     		strhi	r3, [r0, #4]
 309              		.loc 1 63 0
 310 0028 9342     		cmp	r3, r2
 311              		.loc 1 59 0
 312 002a C0E90445 		strd	r4, [r0, #16]
 313              		.loc 1 64 0
 314 002e 38BF     		it	cc
 315 0030 0360     		strcc	r3, [r0]
 316              	.LVL14:
 317 0032 30BD     		pop	{r4, r5, pc}
 318              	.L17:
 319              		.align	2
 320              	.L16:
 321 0034 001000E0 		.word	-536866816
 322              	.LBE34:
 323              	.LBE37:
 324              		.cfi_endproc
 325              	.LFE295:
 326              		.size	chTMChainMeasurementToX, .-chTMChainMeasurementToX
 327              		.text
 328              	.Letext0:
 329              		.file 3 "/opt/gcc-arm-none-eabi-6-2017-q2-update/lib/gcc/arm-none-eabi/6.3.1/include/stddef.h"
 330              		.file 4 "/opt/gcc-arm-none-eabi-6-2017-q2-update/arm-none-eabi/include/machine/_default_types.h"
 331              		.file 5 "/opt/gcc-arm-none-eabi-6-2017-q2-update/arm-none-eabi/include/sys/_stdint.h"
 332              		.file 6 "../../modules/ChibiOS/os/common/ports/ARMCMx/compilers/GCC/chtypes.h"
 333              		.file 7 "../../modules/ChibiOS/os/rt/include/chsystypes.h"
 334              		.file 8 "../../modules/ChibiOS/os/rt/include/chschd.h"
 335              		.file 9 "../../modules/ChibiOS/os/rt/include/chtime.h"
 336              		.file 10 "../../modules/ChibiOS/os/common/ext/ARM/CMSIS/Core/Include/core_cm4.h"
 337              		.file 11 "../../modules/ChibiOS/os/common/ext/ST/STM32F4xx/system_stm32f4xx.h"
 338              		.file 12 "../../modules/ChibiOS/os/common/ports/ARMCMx/chcore.h"
 339              		.file 13 "../../modules/ChibiOS/os/rt/include/chtm.h"
 340              		.file 14 "../../modules/ChibiOS/os/rt/include/chstats.h"
 341              		.file 15 "../../modules/ChibiOS/os/rt/include/chsem.h"
 342              		.file 16 "../../modules/ChibiOS/os/rt/include/chmtx.h"
ARM GAS  /tmp/ccaJeJ8X.s 			page 7


 343              		.file 17 "../../modules/ChibiOS/os/rt/include/chsys.h"
 344              		.file 18 "../../modules/ChibiOS/os/rt/include/chregistry.h"
 345              		.file 19 "../../modules/ChibiOS/os/oslib/include/chmemcore.h"
 346              		.file 20 "../../modules/ChibiOS/os/oslib/include/chmempools.h"
 347              		.file 21 "../../modules/ChibiOS/os/oslib/include/chfactory.h"