ARM GAS  /tmp/cc1Mbedh.s 			page 1


   1              		.syntax unified
   2              		.cpu cortex-m4
   3              		.eabi_attribute 27, 1
   4              		.eabi_attribute 28, 1
   5              		.fpu fpv4-sp-d16
   6              		.eabi_attribute 20, 1
   7              		.eabi_attribute 21, 1
   8              		.eabi_attribute 23, 3
   9              		.eabi_attribute 24, 1
  10              		.eabi_attribute 25, 1
  11              		.eabi_attribute 26, 1
  12              		.eabi_attribute 30, 4
  13              		.eabi_attribute 34, 1
  14              		.eabi_attribute 18, 4
  15              		.thumb
  16              		.file	"fatfs_diskio.c"
  17              		.text
  18              	.Ltext0:
  19              		.cfi_sections	.debug_frame
  20              		.section	.text.disk_initialize,"ax",%progbits
  21              		.align	1
  22              		.global	disk_initialize
  23              		.thumb
  24              		.thumb_func
  25              		.type	disk_initialize, %function
  26              	disk_initialize:
  27              	.LFB323:
  28              		.file 1 "../../modules/ChibiOS/os/various/fatfs_bindings/fatfs_diskio.c"
  29              		.loc 1 55 0
  30              		.cfi_startproc
  31              		@ args = 0, pretend = 0, frame = 0
  32              		@ frame_needed = 0, uses_anonymous_args = 0
  33              	.LVL0:
  34 0000 10B5     		push	{r4, lr}
  35              		.cfi_def_cfa_offset 8
  36              		.cfi_offset 4, -8
  37              		.cfi_offset 14, -4
  38              		.loc 1 58 0
  39 0002 58B9     		cbnz	r0, .L8
  40              	.LVL1:
  41              		.loc 1 72 0
  42 0004 0748     		ldr	r0, .L10
  43              	.LVL2:
  44 0006 0479     		ldrb	r4, [r0, #4]	@ zero_extendqisi2
  45              		.loc 1 70 0
  46 0008 053C     		subs	r4, r4, #5
  47 000a 18BF     		it	ne
  48 000c 0124     		movne	r4, #1
  49              	.LVL3:
  50              		.loc 1 74 0
  51 000e FFF7FEFF 		bl	sdc_lld_is_write_protected
  52              	.LVL4:
  53 0012 20B1     		cbz	r0, .L2
  54              		.loc 1 75 0
  55 0014 44F00404 		orr	r4, r4, #4
  56              	.LVL5:
  57 0018 E4B2     		uxtb	r4, r4
ARM GAS  /tmp/cc1Mbedh.s 			page 2


  58 001a 00E0     		b	.L2
  59              	.LVL6:
  60              	.L8:
  61              		.loc 1 79 0
  62 001c 0124     		movs	r4, #1
  63              	.LVL7:
  64              	.L2:
  65              		.loc 1 80 0
  66 001e 2046     		mov	r0, r4
  67 0020 10BD     		pop	{r4, pc}
  68              	.L11:
  69 0022 00BF     		.align	2
  70              	.L10:
  71 0024 00000000 		.word	SDCD1
  72              		.cfi_endproc
  73              	.LFE323:
  74              		.size	disk_initialize, .-disk_initialize
  75              		.section	.text.disk_status,"ax",%progbits
  76              		.align	1
  77              		.global	disk_status
  78              		.thumb
  79              		.thumb_func
  80              		.type	disk_status, %function
  81              	disk_status:
  82              	.LFB324:
  83              		.loc 1 90 0
  84              		.cfi_startproc
  85              		@ args = 0, pretend = 0, frame = 0
  86              		@ frame_needed = 0, uses_anonymous_args = 0
  87              	.LVL8:
  88 0000 10B5     		push	{r4, lr}
  89              		.cfi_def_cfa_offset 8
  90              		.cfi_offset 4, -8
  91              		.cfi_offset 14, -4
  92              		.loc 1 93 0
  93 0002 58B9     		cbnz	r0, .L19
  94              	.LVL9:
  95              		.loc 1 107 0
  96 0004 0748     		ldr	r0, .L20
  97              	.LVL10:
  98 0006 0479     		ldrb	r4, [r0, #4]	@ zero_extendqisi2
  99              		.loc 1 105 0
 100 0008 053C     		subs	r4, r4, #5
 101 000a 18BF     		it	ne
 102 000c 0124     		movne	r4, #1
 103              	.LVL11:
 104              		.loc 1 109 0
 105 000e FFF7FEFF 		bl	sdc_lld_is_write_protected
 106              	.LVL12:
 107 0012 20B1     		cbz	r0, .L13
 108              		.loc 1 110 0
 109 0014 44F00404 		orr	r4, r4, #4
 110              	.LVL13:
 111 0018 E4B2     		uxtb	r4, r4
 112 001a 00E0     		b	.L13
 113              	.LVL14:
 114              	.L19:
ARM GAS  /tmp/cc1Mbedh.s 			page 3


 115              		.loc 1 114 0
 116 001c 0124     		movs	r4, #1
 117              	.LVL15:
 118              	.L13:
 119              		.loc 1 115 0
 120 001e 2046     		mov	r0, r4
 121 0020 10BD     		pop	{r4, pc}
 122              	.L21:
 123 0022 00BF     		.align	2
 124              	.L20:
 125 0024 00000000 		.word	SDCD1
 126              		.cfi_endproc
 127              	.LFE324:
 128              		.size	disk_status, .-disk_status
 129              		.section	.text.disk_read,"ax",%progbits
 130              		.align	1
 131              		.global	disk_read
 132              		.thumb
 133              		.thumb_func
 134              		.type	disk_read, %function
 135              	disk_read:
 136              	.LFB325:
 137              		.loc 1 128 0
 138              		.cfi_startproc
 139              		@ args = 0, pretend = 0, frame = 0
 140              		@ frame_needed = 0, uses_anonymous_args = 0
 141              	.LVL16:
 142 0000 F8B5     		push	{r3, r4, r5, r6, r7, lr}
 143              		.cfi_def_cfa_offset 24
 144              		.cfi_offset 3, -24
 145              		.cfi_offset 4, -20
 146              		.cfi_offset 5, -16
 147              		.cfi_offset 6, -12
 148              		.cfi_offset 7, -8
 149              		.cfi_offset 14, -4
 150              		.loc 1 128 0
 151 0002 0E46     		mov	r6, r1
 152 0004 1746     		mov	r7, r2
 153 0006 1D46     		mov	r5, r3
 154              		.loc 1 129 0
 155 0008 88B9     		cbnz	r0, .L30
 156              		.loc 1 144 0
 157 000a 0B4B     		ldr	r3, .L32
 158              	.LVL17:
 159 000c 1C79     		ldrb	r4, [r3, #4]	@ zero_extendqisi2
 160 000e 052C     		cmp	r4, #5
 161 0010 0FD1     		bne	.L28
 162              	.LVL18:
 163              	.L25:
 164              	.LBB2:
 165              		.loc 1 146 0 discriminator 5
 166 0012 0948     		ldr	r0, .L32
 167 0014 3946     		mov	r1, r7
 168 0016 3246     		mov	r2, r6
 169 0018 2B46     		mov	r3, r5
 170 001a FFF7FEFF 		bl	sdcRead
 171              	.LVL19:
ARM GAS  /tmp/cc1Mbedh.s 			page 4


 172 001e 28B1     		cbz	r0, .L31
 173 0020 013C     		subs	r4, r4, #1
 174              	.LVL20:
 175              		.loc 1 146 0 is_stmt 0 discriminator 2
 176 0022 14F0FF04 		ands	r4, r4, #255
 177 0026 F4D1     		bne	.L25
 178              		.loc 1 146 0
 179 0028 0120     		movs	r0, #1
 180              	.LBE2:
 181              		.loc 1 151 0 is_stmt 1
 182 002a F8BD     		pop	{r3, r4, r5, r6, r7, pc}
 183              	.LVL21:
 184              	.L31:
 185              	.LBB3:
 186 002c F8BD     		pop	{r3, r4, r5, r6, r7, pc}
 187              	.LVL22:
 188              	.L30:
 189              	.LBE3:
 190              		.loc 1 150 0
 191 002e 0420     		movs	r0, #4
 192              	.LVL23:
 193 0030 F8BD     		pop	{r3, r4, r5, r6, r7, pc}
 194              	.LVL24:
 195              	.L28:
 196              		.loc 1 145 0
 197 0032 0320     		movs	r0, #3
 198              	.LVL25:
 199 0034 F8BD     		pop	{r3, r4, r5, r6, r7, pc}
 200              	.LVL26:
 201              	.L33:
 202 0036 00BF     		.align	2
 203              	.L32:
 204 0038 00000000 		.word	SDCD1
 205              		.cfi_endproc
 206              	.LFE325:
 207              		.size	disk_read, .-disk_read
 208              		.section	.text.disk_write,"ax",%progbits
 209              		.align	1
 210              		.global	disk_write
 211              		.thumb
 212              		.thumb_func
 213              		.type	disk_write, %function
 214              	disk_write:
 215              	.LFB326:
 216              		.loc 1 165 0
 217              		.cfi_startproc
 218              		@ args = 0, pretend = 0, frame = 0
 219              		@ frame_needed = 0, uses_anonymous_args = 0
 220              	.LVL27:
 221 0000 F8B5     		push	{r3, r4, r5, r6, r7, lr}
 222              		.cfi_def_cfa_offset 24
 223              		.cfi_offset 3, -24
 224              		.cfi_offset 4, -20
 225              		.cfi_offset 5, -16
 226              		.cfi_offset 6, -12
 227              		.cfi_offset 7, -8
 228              		.cfi_offset 14, -4
ARM GAS  /tmp/cc1Mbedh.s 			page 5


 229              		.loc 1 165 0
 230 0002 0E46     		mov	r6, r1
 231 0004 1746     		mov	r7, r2
 232 0006 1D46     		mov	r5, r3
 233              		.loc 1 166 0
 234 0008 88B9     		cbnz	r0, .L42
 235              		.loc 1 183 0
 236 000a 0B4B     		ldr	r3, .L44
 237              	.LVL28:
 238 000c 1C79     		ldrb	r4, [r3, #4]	@ zero_extendqisi2
 239 000e 052C     		cmp	r4, #5
 240 0010 0FD1     		bne	.L40
 241              	.LVL29:
 242              	.L37:
 243              	.LBB4:
 244              		.loc 1 185 0 discriminator 5
 245 0012 0948     		ldr	r0, .L44
 246 0014 3946     		mov	r1, r7
 247 0016 3246     		mov	r2, r6
 248 0018 2B46     		mov	r3, r5
 249 001a FFF7FEFF 		bl	sdcWrite
 250              	.LVL30:
 251 001e 28B1     		cbz	r0, .L43
 252 0020 013C     		subs	r4, r4, #1
 253              	.LVL31:
 254              		.loc 1 185 0 is_stmt 0 discriminator 2
 255 0022 14F0FF04 		ands	r4, r4, #255
 256 0026 F4D1     		bne	.L37
 257              		.loc 1 185 0
 258 0028 0120     		movs	r0, #1
 259              	.LBE4:
 260              		.loc 1 190 0 is_stmt 1
 261 002a F8BD     		pop	{r3, r4, r5, r6, r7, pc}
 262              	.LVL32:
 263              	.L43:
 264              	.LBB5:
 265 002c F8BD     		pop	{r3, r4, r5, r6, r7, pc}
 266              	.LVL33:
 267              	.L42:
 268              	.LBE5:
 269              		.loc 1 189 0
 270 002e 0420     		movs	r0, #4
 271              	.LVL34:
 272 0030 F8BD     		pop	{r3, r4, r5, r6, r7, pc}
 273              	.LVL35:
 274              	.L40:
 275              		.loc 1 184 0
 276 0032 0320     		movs	r0, #3
 277              	.LVL36:
 278 0034 F8BD     		pop	{r3, r4, r5, r6, r7, pc}
 279              	.LVL37:
 280              	.L45:
 281 0036 00BF     		.align	2
 282              	.L44:
 283 0038 00000000 		.word	SDCD1
 284              		.cfi_endproc
 285              	.LFE326:
ARM GAS  /tmp/cc1Mbedh.s 			page 6


 286              		.size	disk_write, .-disk_write
 287              		.section	.text.disk_ioctl,"ax",%progbits
 288              		.align	1
 289              		.global	disk_ioctl
 290              		.thumb
 291              		.thumb_func
 292              		.type	disk_ioctl, %function
 293              	disk_ioctl:
 294              	.LFB327:
 295              		.loc 1 203 0
 296              		.cfi_startproc
 297              		@ args = 0, pretend = 0, frame = 0
 298              		@ frame_needed = 0, uses_anonymous_args = 0
 299              		@ link register save eliminated.
 300              	.LVL38:
 301              		.loc 1 206 0
 302 0000 58B9     		cbnz	r0, .L54
 303              		.loc 1 227 0
 304 0002 0129     		cmp	r1, #1
 305 0004 05D0     		beq	.L50
 306 0006 09D3     		bcc	.L47
 307 0008 0329     		cmp	r1, #3
 308 000a 06D1     		bne	.L54
 309              		.loc 1 239 0
 310 000c 4FF48073 		mov	r3, #256
 311 0010 01E0     		b	.L55
 312              	.L50:
 313              		.loc 1 231 0
 314 0012 034B     		ldr	r3, .L56
 315 0014 9B6A     		ldr	r3, [r3, #40]
 316              	.L55:
 317              		.loc 1 239 0
 318 0016 1360     		str	r3, [r2]
 319              		.loc 1 240 0
 320 0018 7047     		bx	lr
 321              	.L54:
 322              		.loc 1 251 0
 323 001a 0420     		movs	r0, #4
 324              	.LVL39:
 325              	.L47:
 326              		.loc 1 252 0
 327 001c 7047     		bx	lr
 328              	.L57:
 329 001e 00BF     		.align	2
 330              	.L56:
 331 0020 00000000 		.word	SDCD1
 332              		.cfi_endproc
 333              	.LFE327:
 334              		.size	disk_ioctl, .-disk_ioctl
 335              		.text
 336              	.Letext0:
 337              		.file 2 "/opt/gcc-arm-none-eabi-4_9-2015q3/lib/gcc/arm-none-eabi/4.9.3/include/stddef.h"
 338              		.file 3 "/opt/gcc-arm-none-eabi-4_9-2015q3/arm-none-eabi/include/machine/_default_types.h"
 339              		.file 4 "/opt/gcc-arm-none-eabi-4_9-2015q3/arm-none-eabi/include/sys/_stdint.h"
 340              		.file 5 "../../modules/ChibiOS/os/common/ports/ARMCMx/compilers/GCC/chtypes.h"
 341              		.file 6 "../../modules/ChibiOS/os/rt/include/chsystypes.h"
 342              		.file 7 "../../modules/ChibiOS/os/rt/include/chschd.h"
ARM GAS  /tmp/cc1Mbedh.s 			page 7


 343              		.file 8 "../../modules/ChibiOS/os/rt/include/chtime.h"
 344              		.file 9 "../../modules/ChibiOS/os/common/ext/ST/STM32F4xx/stm32f427xx.h"
 345              		.file 10 "../../modules/ChibiOS/os/common/ports/ARMCMx/chcore.h"
 346              		.file 11 "../../modules/ChibiOS/os/common/ports/ARMCMx/chcore_v7m.h"
 347              		.file 12 "../../modules/ChibiOS/os/rt/include/chtm.h"
 348              		.file 13 "../../modules/ChibiOS/os/rt/include/chstats.h"
 349              		.file 14 "../../modules/ChibiOS/os/rt/include/chsem.h"
 350              		.file 15 "../../modules/ChibiOS/os/rt/include/chmtx.h"
 351              		.file 16 "../../modules/ChibiOS/os/hal/ports/STM32/LLD/DMAv2/stm32_dma.h"
 352              		.file 17 "../../modules/ChibiOS/os/hal/include/hal_ioblock.h"
 353              		.file 18 "../../modules/ChibiOS/os/hal/include/hal_sdc.h"
 354              		.file 19 "../../modules/ChibiOS/os/hal/ports/STM32/LLD/SDIOv1/hal_sdc_lld.h"
 355              		.file 20 "../../modules/ChibiOS/ext/fatfs/src/integer.h"
 356              		.file 21 "../../modules/ChibiOS/ext/fatfs/src/diskio.h"
 357              		.file 22 "../../modules/ChibiOS/os/common/ext/ARM/CMSIS/Core/Include/core_cm4.h"