ARM GAS  /tmp/cc1Mbedh.s 			page 1


   1              		.syntax unified
   2              		.cpu cortex-m4
   3              		.eabi_attribute 27, 1
   4              		.eabi_attribute 28, 1
   5              		.fpu fpv4-sp-d16
   6              		.eabi_attribute 20, 1
   7              		.eabi_attribute 21, 1
   8              		.eabi_attribute 23, 3
   9              		.eabi_attribute 24, 1
  10              		.eabi_attribute 25, 1
  11              		.eabi_attribute 26, 1
  12              		.eabi_attribute 30, 4
  13              		.eabi_attribute 34, 1
  14              		.eabi_attribute 18, 4
  15              		.thumb
  16              		.file	"fatfs_diskio.c"
  17              		.text
  18              	.Ltext0:
  19              		.cfi_sections	.debug_frame
  20              		.section	.text.disk_initialize,"ax",%progbits
  21              		.align	1
  22              		.global	disk_initialize
  23              		.thumb
  24              		.thumb_func
  25              		.type	disk_initialize, %function
  26              	disk_initialize:
  27              	.LFB323:
  28              		.file 1 "../../modules/ChibiOS/os/various/fatfs_bindings/fatfs_diskio.c"
  29              		.loc 1 55 0
  30              		.cfi_startproc
  31              		@ args = 0, pretend = 0, frame = 0
  32              		@ frame_needed = 0, uses_anonymous_args = 0
  33              	.LVL0:
  34 0000 10B5     		push	{r4, lr}
  35              		.cfi_def_cfa_offset 8
  36              		.cfi_offset 4, -8
  37              		.cfi_offset 14, -4
  38              		.loc 1 58 0
  39 0002 58B9     		cbnz	r0, .L8
  40              	.LVL1:
  41              		.loc 1 72 0
  42 0004 0748     		ldr	r0, .L10
  43              	.LVL2:
  44 0006 0479     		ldrb	r4, [r0, #4]	@ zero_extendqisi2
  45              		.loc 1 70 0
  46 0008 053C     		subs	r4, r4, #5
  47 000a 18BF     		it	ne
  48 000c 0124     		movne	r4, #1
  49              	.LVL3:
  50              		.loc 1 74 0
  51 000e FFF7FEFF 		bl	sdc_lld_is_write_protected
  52              	.LVL4:
  53 0012 20B1     		cbz	r0, .L2
  54              		.loc 1 75 0
  55 0014 44F00404 		orr	r4, r4, #4
  56              	.LVL5:
  57 0018 E4B2     		uxtb	r4, r4
ARM GAS  /tmp/cc1Mbedh.s 			page 2


  58 001a 00E0     		b	.L2
  59              	.LVL6:
  60              	.L8:
  61              		.loc 1 79 0
  62 001c 0124     		movs	r4, #1
  63              	.LVL7:
  64              	.L2:
  65              		.loc 1 80 0
  66 001e 2046     		mov	r0, r4
  67 0020 10BD     		pop	{r4, pc}
  68              	.L11:
  69 0022 00BF     		.align	2
  70              	.L10:
  71 0024 00000000 		.word	SDCD1
  72              		.cfi_endproc
  73              	.LFE323:
  74              		.size	disk_initialize, .-disk_initialize
  75              		.section	.text.disk_status,"ax",%progbits
  76              		.align	1
  77              		.global	disk_status
  78              		.thumb
  79              		.thumb_func
  80              		.type	disk_status, %function
  81              	disk_status:
  82              	.LFB324:
  83              		.loc 1 90 0
  84              		.cfi_startproc
  85              		@ args = 0, pretend = 0, frame = 0
  86              		@ frame_needed = 0, uses_anonymous_args = 0
  87              	.LVL8:
  88 0000 10B5     		push	{r4, lr}
  89              		.cfi_def_cfa_offset 8
  90              		.cfi_offset 4, -8
  91              		.cfi_offset 14, -4
  92              		.loc 1 93 0
  93 0002 58B9     		cbnz	r0, .L19
  94              	.LVL9:
  95              		.loc 1 107 0
  96 0004 0748     		ldr	r0, .L20
  97              	.LVL10:
  98 0006 0479     		ldrb	r4, [r0, #4]	@ zero_extendqisi2
  99              		.loc 1 105 0
 100 0008 053C     		subs	r4, r4, #5
 101 000a 18BF     		it	ne
 102 000c 0124     		movne	r4, #1
 103              	.LVL11:
 104              		.loc 1 109 0
 105 000e FFF7FEFF 		bl	sdc_lld_is_write_protected
 106              	.LVL12:
 107 0012 20B1     		cbz	r0, .L13
 108              		.loc 1 110 0
 109 0014 44F00404 		orr	r4, r4, #4
 110              	.LVL13:
 111 0018 E4B2     		uxtb	r4, r4
 112 001a 00E0     		b	.L13
 113              	.LVL14:
 114              	.L19:
ARM GAS  /tmp/cc1Mbedh.s 			page 3


 115              		.loc 1 114 0
 116 001c 0124     		movs	r4, #1
 117              	.LVL15:
 118              	.L13:
 119              		.loc 1 115 0
 120 001e 2046     		mov	r0, r4
 121 0020 10BD     		pop	{r4, pc}
 122              	.L21:
 123 0022 00BF     		.align	2
 124              	.L20:
 125 0024 00000000 		.word	SDCD1
 126              		.cfi_endproc
 127              	.LFE324:
 128              		.size	disk_status, .-disk_status
 129              		.section	.text.disk_read,"ax",%progbits
 130              		.align	1
 131              		.global	disk_read
 132              		.thumb
 133              		.thumb_func
 134              		.type	disk_read, %function
 135              	disk_read:
 136              	.LFB325:
 137              		.loc 1 128 0
 138              		.cfi_startproc
 139              		@ args = 0, pretend = 0, frame = 0
 140              		@ frame_needed = 0, uses_anonymous_args = 0
 141              	.LVL16:
 142 0000 F8B5     		push	{r3, r4, r5, r6, r7, lr}
 143              		.cfi_def_cfa_offset 24
 144              		.cfi_offset 3, -24
 145              		.cfi_offset 4, -20
 146              		.cfi_offset 5, -16
 147              		.cfi_offset 6, -12
 148              		.cfi_offset 7, -8
 149              		.cfi_offset 14, -4
 150              		.loc 1 128 0
 151 0002 0E46     		mov	r6, r1
 152 0004 1746     		mov	r7, r2
 153 0006 1D46     		mov	r5, r3
 154              		.loc 1 129 0
 155 0008 88B9     		cbnz	r0, .L30
 156              		.loc 1 144 0
 157 000a 0B4B     		ldr	r3, .L32
 158              	.LVL17:
 159 000c 1C79     		ldrb	r4, [r3, #4]	@ zero_extendqisi2
 160 000e 052C     		cmp	r4, #5
 161 0010 0FD1     		bne	.L28
 162              	.LVL18:
 163              	.L25:
 164              	.LBB2:
 165              		.loc 1 146 0 discriminator 5
 166 0012 0948     		ldr	r0, .L32
 167 0014 3946     		mov	r1, r7
 168 0016 3246     		mov	r2, r6
 169 0018 2B46     		mov	r3, r5
 170 001a FFF7FEFF 		bl	sdcRead
 171              	.LVL19:
ARM GAS  /tmp/cc1Mbedh.s 			page 4


 172 001e 28B1     		cbz	r0, .L31
 173 0020 013C     		subs	r4, r4, #1
 174              	.LVL20:
 175              		.loc 1 146 0 is_stmt 0 discriminator 2
 176 0022 14F0FF04 		ands	r4, r4, #255
 177 0026 F4D1     		bne	.L25
 178              		.loc 1 146 0
 179 0028 0120     		movs	r0, #1
 180              	.LBE2:
 181              		.loc 1 151 0 is_stmt 1
 182 002a F8BD     		pop	{r3, r4, r5, r6, r7, pc}
 183              	.LVL21:
 184              	.L31:
 185              	.LBB3:
 186 002c F8BD     		pop	{r3, r4, r5, r6, r7, pc}
 187              	.LVL22:
 188              	.L30:
 189              	.LBE3:
 190              		.loc 1 150 0
 191 002e 0420     		movs	r0, #4
 192              	.LVL23:
 193 0030 F8BD     		pop	{r3, r4, r5, r6, r7, pc}
 194              	.LVL24:
 195              	.L28:
 196              		.loc 1 145 0
 197 0032 0320     		movs	r0, #3
 198              	.LVL25:
 199 0034 F8BD     		pop	{r3, r4, r5, r6, r7, pc}
 200              	.LVL26:
 201              	.L33:
 202 0036 00BF     		.align	2
 203              	.L32:
 204 0038 00000000 		.word	SDCD1
 205              		.cfi_endproc
 206              	.LFE325:
 207              		.size	disk_read, .-disk_read
 208              		.section	.text.disk_write,"ax",%progbits
 209              		.align	1
 210              		.global	disk_write
 211              		.thumb
 212              		.thumb_func
 213              		.type	disk_write, %function
 214              	disk_write:
 215              	.LFB326:
 216              		.loc 1 165 0
 217              		.cfi_startproc
 218              		@ args = 0, pretend = 0, frame = 0
 219              		@ frame_needed = 0, uses_anonymous_args = 0
 220              	.LVL27:
 221 0000 F8B5     		push	{r3, r4, r5, r6, r7, lr}
 222              		.cfi_def_cfa_offset 24
 223              		.cfi_offset 3, -24
 224              		.cfi_offset 4, -20
 225              		.cfi_offset 5, -16
 226              		.cfi_offset 6, -12
 227              		.cfi_offset 7, -8
 228              		.cfi_offset 14, -4
ARM GAS  /tmp/cc1Mbedh.s 			page 5


 229              		.loc 1 165 0
 230 0002 0E46     		mov	r6, r1
 231 0004 1746     		mov	r7, r2
 232 0006 1D46     		mov	r5, r3
 233              		.loc 1 166 0
 234 0008 88B9     		cbnz	r0, .L42
 235              		.loc 1 183 0
 236 000a 0B4B     		ldr	r3, .L44
 237              	.LVL28:
 238 000c 1C79     		ldrb	r4, [r3, #4]	@ zero_extendqisi2
 239 000e 052C     		cmp	r4, #5
 240 0010 0FD1     		bne	.L40
 241              	.LVL29:
 242              	.L37:
 243              	.LBB4:
 244              		.loc 1 185 0 discriminator 5
 245 0012 0948     		ldr	r0, .L44
 246 0014 3946     		mov	r1, r7
 247 0016 3246     		mov	r2, r6
 248 0018 2B46     		mov	r3, r5
 249 001a FFF7FEFF 		bl	sdcWrite
 250              	.LVL30:
 251 001e 28B1     		cbz	r0, .L43
 252 0020 013C     		subs	r4, r4, #1
 253              	.LVL31:
 254              		.loc 1 185 0 is_stmt 0 discriminator 2
 255 0022 14F0FF04 		ands	r4, r4, #255
 256 0026 F4D1     		bne	.L37
 257              		.loc 1 185 0
 258 0028 0120     		movs	r0, #1
 259              	.LBE4:
 260              		.loc 1 190 0 is_stmt 1
 261 002a F8BD     		pop	{r3, r4, r5, r6, r7, pc}
 262              	.LVL32:
 263              	.L43:
 264              	.LBB5:
 265 002c F8BD     		pop	{r3, r4, r5, r6, r7, pc}
 266              	.LVL33:
 267              	.L42:
 268              	.LBE5:
 269              		.loc 1 189 0
 270 002e 0420     		movs	r0, #4
 271              	.LVL34:
 272 0030 F8BD     		pop	{r3, r4, r5, r6, r7, pc}
 273              	.LVL35:
 274              	.L40:
 275              		.loc 1 184 0
 276 0032 0320     		movs	r0, #3
 277              	.LVL36:
 278 0034 F8BD     		pop	{r3, r4, r5, r6, r7, pc}
 279              	.LVL37:
 280              	.L45:
 281 0036 00BF     		.align	2
 282              	.L44:
 283 0038 00000000 		.word	SDCD1
 284              		.cfi_endproc
 285              	.LFE326:
ARM GAS  /tmp/cc1Mbedh.s 			page 6


 286              		.size	disk_write, .-disk_write
 287              		.section	.text.disk_ioctl,"ax",%progbits
 288              		.align	1
 289              		.global	disk_ioctl
 290              		.thumb
 291              		.thumb_func
 292              		.type	disk_ioctl, %function
 293              	disk_ioctl:
 294              	.LFB327:
 295              		.loc 1 203 0
 296              		.cfi_startproc
 297              		@ args = 0, pretend = 0, frame = 0
 298              		@ frame_needed = 0, uses_anonymous_args = 0
 299              		@ link register save eliminated.
 300              	.LVL38:
 301              		.loc 1 206 0
 302 0000 58B9     		cbnz	r0, .L54
 303              		.loc 1 227 0
 304 0002 0129     		cmp	r1, #1
 305 0004 05D0     		beq	.L50
 306 0006 09D3     		bcc	.L47
 307 0008 0329     		cmp	r1, #3
 308 000a 06D1     		bne	.L54
 309              		.loc 1 239 0
 310 000c 4FF48073 		mov	r3, #256
 311 0010 01E0     		b	.L55
 312              	.L50:
 313              		.loc 1 231 0
 314 0012 034B     		ldr	r3, .L56
 315 0014 9B6A     		ldr	r3, [r3, #40]
 316              	.L55:
 317              		.loc 1 239 0
 318 0016 1360     		str	r3, [r2]
 319              		.loc 1 240 0
 320 0018 7047     		bx	lr
 321              	.L54:
 322              		.loc 1 251 0
 323 001a 0420     		movs	r0, #4
 324              	.LVL39:
 325              	.L47:
 326              		.loc 1 252 0
 327 001c 7047     		bx	lr
 328              	.L57:
 329 001e 00BF     		.align	2
 330              	.L56:
 331 0020 00000000 		.word	SDCD1
 332              		.cfi_endproc
 333              	.LFE327:
 334              		.size	disk_ioctl, .-disk_ioctl
 335              		.text
 336              	.Letext0:
 337              		.file 2 "/opt/gcc-arm-none-eabi-4_9-2015q3/lib/gcc/arm-none-eabi/4.9.3/include/stddef.h"
 338              		.file 3 "/opt/gcc-arm-none-eabi-4_9-2015q3/arm-none-eabi/include/machine/_default_types.h"
 339              		.file 4 "/opt/gcc-arm-none-eabi-4_9-2015q3/arm-none-eabi/include/sys/_stdint.h"
 340              		.file 5 "../../modules/ChibiOS/os/common/ports/ARMCMx/compilers/GCC/chtypes.h"
 341              		.file 6 "../../modules/ChibiOS/os/rt/include/chsystypes.h"
 342              		.file 7 "../../modules/ChibiOS/os/rt/include/chschd.h"
ARM GAS  /tmp/cc1Mbedh.s 			page 7


 343              		.file 8 "../../modules/ChibiOS/os/rt/include/chtime.h"
 344              		.file 9 "../../modules/ChibiOS/os/common/ext/ST/STM32F4xx/stm32f427xx.h"
 345              		.file 10 "../../modules/ChibiOS/os/common/ports/ARMCMx/chcore.h"
 346              		.file 11 "../../modules/ChibiOS/os/common/ports/ARMCMx/chcore_v7m.h"
 347              		.file 12 "../../modules/ChibiOS/os/rt/include/chtm.h"
 348              		.file 13 "../../modules/ChibiOS/os/rt/include/chstats.h"
 349              		.file 14 "../../modules/ChibiOS/os/rt/include/chsem.h"
 350              		.file 15 "../../modules/ChibiOS/os/rt/include/chmtx.h"
 351              		.file 16 "../../modules/ChibiOS/os/hal/ports/STM32/LLD/DMAv2/stm32_dma.h"
 352              		.file 17 "../../modules/ChibiOS/os/hal/include/hal_ioblock.h"
 353              		.file 18 "../../modules/ChibiOS/os/hal/include/hal_sdc.h"
 354              		.file 19 "../../modules/ChibiOS/os/hal/ports/STM32/LLD/SDIOv1/hal_sdc_lld.h"
 355              		.file 20 "../../modules/ChibiOS/ext/fatfs/src/integer.h"
 356              		.file 21 "../../modules/ChibiOS/ext/fatfs/src/diskio.h"
 357              		.file 22 "../../modules/ChibiOS/os/common/ext/ARM/CMSIS/Core/Include/core_cm4.h"
 358              		.section	.debug_info,"",%progbits
 359              	.Ldebug_info0:
 360 0000 8C0F0000 		.4byte	0xf8c
 361 0004 0400     		.2byte	0x4
 362 0006 00000000 		.4byte	.Ldebug_abbrev0
 363 000a 04       		.byte	0x4
 364 000b 01       		.uleb128 0x1
 365 000c 76050000 		.4byte	.LASF200
 366 0010 01       		.byte	0x1
 367 0011 D0060000 		.4byte	.LASF201
 368 0015 19020000 		.4byte	.LASF202
 369 0019 30000000 		.4byte	.Ldebug_ranges0+0x30
 370 001d 00000000 		.4byte	0
 371 0021 00000000 		.4byte	.Ldebug_line0
 372 0025 02       		.uleb128 0x2
 373 0026 04       		.byte	0x4
 374 0027 05       		.byte	0x5
 375 0028 696E7400 		.ascii	"int\000"
 376 002c 03       		.uleb128 0x3
 377 002d 34000000 		.4byte	.LASF2
 378 0031 02       		.byte	0x2
 379 0032 D4       		.byte	0xd4
 380 0033 37000000 		.4byte	0x37
 381 0037 04       		.uleb128 0x4
 382 0038 04       		.byte	0x4
 383 0039 07       		.byte	0x7
 384 003a 9B020000 		.4byte	.LASF0
 385 003e 04       		.uleb128 0x4
 386 003f 01       		.byte	0x1
 387 0040 06       		.byte	0x6
 388 0041 69010000 		.4byte	.LASF1
 389 0045 03       		.uleb128 0x3
 390 0046 66000000 		.4byte	.LASF3
 391 004a 03       		.byte	0x3
 392 004b 1D       		.byte	0x1d
 393 004c 50000000 		.4byte	0x50
 394 0050 04       		.uleb128 0x4
 395 0051 01       		.byte	0x1
 396 0052 08       		.byte	0x8
 397 0053 58050000 		.4byte	.LASF4
 398 0057 04       		.uleb128 0x4
 399 0058 02       		.byte	0x2
ARM GAS  /tmp/cc1Mbedh.s 			page 8


 400 0059 05       		.byte	0x5
 401 005a 8C060000 		.4byte	.LASF5
 402 005e 04       		.uleb128 0x4
 403 005f 02       		.byte	0x2
 404 0060 07       		.byte	0x7
 405 0061 FA020000 		.4byte	.LASF6
 406 0065 03       		.uleb128 0x3
 407 0066 C8030000 		.4byte	.LASF7
 408 006a 03       		.byte	0x3
 409 006b 3F       		.byte	0x3f
 410 006c 70000000 		.4byte	0x70
 411 0070 04       		.uleb128 0x4
 412 0071 04       		.byte	0x4
 413 0072 05       		.byte	0x5
 414 0073 B2010000 		.4byte	.LASF8
 415 0077 03       		.uleb128 0x3
 416 0078 FB010000 		.4byte	.LASF9
 417 007c 03       		.byte	0x3
 418 007d 41       		.byte	0x41
 419 007e 82000000 		.4byte	0x82
 420 0082 04       		.uleb128 0x4
 421 0083 04       		.byte	0x4
 422 0084 07       		.byte	0x7
 423 0085 80070000 		.4byte	.LASF10
 424 0089 04       		.uleb128 0x4
 425 008a 08       		.byte	0x8
 426 008b 05       		.byte	0x5
 427 008c 5B010000 		.4byte	.LASF11
 428 0090 03       		.uleb128 0x3
 429 0091 CC040000 		.4byte	.LASF12
 430 0095 03       		.byte	0x3
 431 0096 5B       		.byte	0x5b
 432 0097 9B000000 		.4byte	0x9b
 433 009b 04       		.uleb128 0x4
 434 009c 08       		.byte	0x8
 435 009d 07       		.byte	0x7
 436 009e DA000000 		.4byte	.LASF13
 437 00a2 03       		.uleb128 0x3
 438 00a3 98080000 		.4byte	.LASF14
 439 00a7 04       		.byte	0x4
 440 00a8 14       		.byte	0x14
 441 00a9 45000000 		.4byte	0x45
 442 00ad 03       		.uleb128 0x3
 443 00ae 50050000 		.4byte	.LASF15
 444 00b2 04       		.byte	0x4
 445 00b3 1F       		.byte	0x1f
 446 00b4 65000000 		.4byte	0x65
 447 00b8 03       		.uleb128 0x3
 448 00b9 52070000 		.4byte	.LASF16
 449 00bd 04       		.byte	0x4
 450 00be 20       		.byte	0x20
 451 00bf 77000000 		.4byte	0x77
 452 00c3 03       		.uleb128 0x3
 453 00c4 50000000 		.4byte	.LASF17
 454 00c8 04       		.byte	0x4
 455 00c9 26       		.byte	0x26
 456 00ca 90000000 		.4byte	0x90
ARM GAS  /tmp/cc1Mbedh.s 			page 9


 457 00ce 03       		.uleb128 0x3
 458 00cf 3C080000 		.4byte	.LASF18
 459 00d3 05       		.byte	0x5
 460 00d4 27       		.byte	0x27
 461 00d5 B8000000 		.4byte	0xb8
 462 00d9 03       		.uleb128 0x3
 463 00da 3C010000 		.4byte	.LASF19
 464 00de 05       		.byte	0x5
 465 00df 28       		.byte	0x28
 466 00e0 C3000000 		.4byte	0xc3
 467 00e4 03       		.uleb128 0x3
 468 00e5 8C030000 		.4byte	.LASF20
 469 00e9 05       		.byte	0x5
 470 00ea 2A       		.byte	0x2a
 471 00eb A2000000 		.4byte	0xa2
 472 00ef 03       		.uleb128 0x3
 473 00f0 C7010000 		.4byte	.LASF21
 474 00f4 05       		.byte	0x5
 475 00f5 2B       		.byte	0x2b
 476 00f6 A2000000 		.4byte	0xa2
 477 00fa 03       		.uleb128 0x3
 478 00fb E8040000 		.4byte	.LASF22
 479 00ff 05       		.byte	0x5
 480 0100 2C       		.byte	0x2c
 481 0101 A2000000 		.4byte	0xa2
 482 0105 03       		.uleb128 0x3
 483 0106 32050000 		.4byte	.LASF23
 484 010a 05       		.byte	0x5
 485 010b 2E       		.byte	0x2e
 486 010c B8000000 		.4byte	0xb8
 487 0110 03       		.uleb128 0x3
 488 0111 51030000 		.4byte	.LASF24
 489 0115 05       		.byte	0x5
 490 0116 2F       		.byte	0x2f
 491 0117 AD000000 		.4byte	0xad
 492 011b 03       		.uleb128 0x3
 493 011c BC030000 		.4byte	.LASF25
 494 0120 05       		.byte	0x5
 495 0121 31       		.byte	0x31
 496 0122 B8000000 		.4byte	0xb8
 497 0126 03       		.uleb128 0x3
 498 0127 95020000 		.4byte	.LASF26
 499 012b 05       		.byte	0x5
 500 012c 33       		.byte	0x33
 501 012d AD000000 		.4byte	0xad
 502 0131 03       		.uleb128 0x3
 503 0132 61030000 		.4byte	.LASF27
 504 0136 05       		.byte	0x5
 505 0137 34       		.byte	0x34
 506 0138 B8000000 		.4byte	0xb8
 507 013c 03       		.uleb128 0x3
 508 013d C2070000 		.4byte	.LASF28
 509 0141 06       		.byte	0x6
 510 0142 34       		.byte	0x34
 511 0143 47010000 		.4byte	0x147
 512 0147 05       		.uleb128 0x5
 513 0148 27030000 		.4byte	.LASF47
ARM GAS  /tmp/cc1Mbedh.s 			page 10


 514 014c 60       		.byte	0x60
 515 014d 07       		.byte	0x7
 516 014e 8E       		.byte	0x8e
 517 014f 32020000 		.4byte	0x232
 518 0153 06       		.uleb128 0x6
 519 0154 E6020000 		.4byte	.LASF29
 520 0158 07       		.byte	0x7
 521 0159 8F       		.byte	0x8f
 522 015a 67020000 		.4byte	0x267
 523 015e 00       		.byte	0
 524 015f 06       		.uleb128 0x6
 525 0160 B9040000 		.4byte	.LASF30
 526 0164 07       		.byte	0x7
 527 0165 90       		.byte	0x90
 528 0166 05010000 		.4byte	0x105
 529 016a 08       		.byte	0x8
 530 016b 07       		.uleb128 0x7
 531 016c 63747800 		.ascii	"ctx\000"
 532 0170 07       		.byte	0x7
 533 0171 91       		.byte	0x91
 534 0172 39060000 		.4byte	0x639
 535 0176 0C       		.byte	0xc
 536 0177 06       		.uleb128 0x6
 537 0178 ED030000 		.4byte	.LASF31
 538 017c 07       		.byte	0x7
 539 017d 93       		.byte	0x93
 540 017e 3D020000 		.4byte	0x23d
 541 0182 10       		.byte	0x10
 542 0183 06       		.uleb128 0x6
 543 0184 A3070000 		.4byte	.LASF32
 544 0188 07       		.byte	0x7
 545 0189 94       		.byte	0x94
 546 018a 3D020000 		.4byte	0x23d
 547 018e 14       		.byte	0x14
 548 018f 06       		.uleb128 0x6
 549 0190 4C030000 		.4byte	.LASF33
 550 0194 07       		.byte	0x7
 551 0195 9B       		.byte	0x9b
 552 0196 1F090000 		.4byte	0x91f
 553 019a 18       		.byte	0x18
 554 019b 06       		.uleb128 0x6
 555 019c 92070000 		.4byte	.LASF34
 556 01a0 07       		.byte	0x7
 557 01a1 A4       		.byte	0xa4
 558 01a2 31090000 		.4byte	0x931
 559 01a6 1C       		.byte	0x1c
 560 01a7 06       		.uleb128 0x6
 561 01a8 AC010000 		.4byte	.LASF35
 562 01ac 07       		.byte	0x7
 563 01ad A9       		.byte	0xa9
 564 01ae EF000000 		.4byte	0xef
 565 01b2 20       		.byte	0x20
 566 01b3 06       		.uleb128 0x6
 567 01b4 A0080000 		.4byte	.LASF36
 568 01b8 07       		.byte	0x7
 569 01b9 AD       		.byte	0xad
 570 01ba E4000000 		.4byte	0xe4
ARM GAS  /tmp/cc1Mbedh.s 			page 11


 571 01be 21       		.byte	0x21
 572 01bf 06       		.uleb128 0x6
 573 01c0 04050000 		.4byte	.LASF37
 574 01c4 07       		.byte	0x7
 575 01c5 B2       		.byte	0xb2
 576 01c6 FA000000 		.4byte	0xfa
 577 01ca 22       		.byte	0x22
 578 01cb 08       		.uleb128 0x8
 579 01cc 7500     		.ascii	"u\000"
 580 01ce 07       		.byte	0x7
 581 01cf 0301     		.2byte	0x103
 582 01d1 55080000 		.4byte	0x855
 583 01d5 24       		.byte	0x24
 584 01d6 09       		.uleb128 0x9
 585 01d7 F4070000 		.4byte	.LASF38
 586 01db 07       		.byte	0x7
 587 01dc 0801     		.2byte	0x108
 588 01de 43020000 		.4byte	0x243
 589 01e2 28       		.byte	0x28
 590 01e3 09       		.uleb128 0x9
 591 01e4 A3010000 		.4byte	.LASF39
 592 01e8 07       		.byte	0x7
 593 01e9 0E01     		.2byte	0x10e
 594 01eb 67020000 		.4byte	0x267
 595 01ef 2C       		.byte	0x2c
 596 01f0 09       		.uleb128 0x9
 597 01f1 68030000 		.4byte	.LASF40
 598 01f5 07       		.byte	0x7
 599 01f6 1401     		.2byte	0x114
 600 01f8 1B010000 		.4byte	0x11b
 601 01fc 34       		.byte	0x34
 602 01fd 09       		.uleb128 0x9
 603 01fe FD080000 		.4byte	.LASF41
 604 0202 07       		.byte	0x7
 605 0203 1B01     		.2byte	0x11b
 606 0205 19090000 		.4byte	0x919
 607 0209 38       		.byte	0x38
 608 020a 09       		.uleb128 0x9
 609 020b 08040000 		.4byte	.LASF42
 610 020f 07       		.byte	0x7
 611 0210 1F01     		.2byte	0x11f
 612 0212 05010000 		.4byte	0x105
 613 0216 3C       		.byte	0x3c
 614 0217 09       		.uleb128 0x9
 615 0218 5D080000 		.4byte	.LASF43
 616 021c 07       		.byte	0x7
 617 021d 2601     		.2byte	0x126
 618 021f 1A030000 		.4byte	0x31a
 619 0223 40       		.byte	0x40
 620 0224 09       		.uleb128 0x9
 621 0225 E0010000 		.4byte	.LASF44
 622 0229 07       		.byte	0x7
 623 022a 2C01     		.2byte	0x12c
 624 022c 06080000 		.4byte	0x806
 625 0230 48       		.byte	0x48
 626 0231 00       		.byte	0
 627 0232 03       		.uleb128 0x3
ARM GAS  /tmp/cc1Mbedh.s 			page 12


 628 0233 33040000 		.4byte	.LASF45
 629 0237 06       		.byte	0x6
 630 0238 39       		.byte	0x39
 631 0239 3D020000 		.4byte	0x23d
 632 023d 0A       		.uleb128 0xa
 633 023e 04       		.byte	0x4
 634 023f 3C010000 		.4byte	0x13c
 635 0243 03       		.uleb128 0x3
 636 0244 C4080000 		.4byte	.LASF46
 637 0248 06       		.byte	0x6
 638 0249 3E       		.byte	0x3e
 639 024a 4E020000 		.4byte	0x24e
 640 024e 05       		.uleb128 0x5
 641 024f 62070000 		.4byte	.LASF48
 642 0253 04       		.byte	0x4
 643 0254 07       		.byte	0x7
 644 0255 7C       		.byte	0x7c
 645 0256 67020000 		.4byte	0x267
 646 025a 06       		.uleb128 0x6
 647 025b BF080000 		.4byte	.LASF49
 648 025f 07       		.byte	0x7
 649 0260 7D       		.byte	0x7d
 650 0261 3D020000 		.4byte	0x23d
 651 0265 00       		.byte	0
 652 0266 00       		.byte	0
 653 0267 03       		.uleb128 0x3
 654 0268 63080000 		.4byte	.LASF50
 655 026c 06       		.byte	0x6
 656 026d 45       		.byte	0x45
 657 026e 72020000 		.4byte	0x272
 658 0272 05       		.uleb128 0x5
 659 0273 81000000 		.4byte	.LASF51
 660 0277 08       		.byte	0x8
 661 0278 07       		.byte	0x7
 662 0279 83       		.byte	0x83
 663 027a 97020000 		.4byte	0x297
 664 027e 06       		.uleb128 0x6
 665 027f BF080000 		.4byte	.LASF49
 666 0283 07       		.byte	0x7
 667 0284 84       		.byte	0x84
 668 0285 3D020000 		.4byte	0x23d
 669 0289 00       		.byte	0
 670 028a 06       		.uleb128 0x6
 671 028b 70000000 		.4byte	.LASF52
 672 028f 07       		.byte	0x7
 673 0290 85       		.byte	0x85
 674 0291 3D020000 		.4byte	0x23d
 675 0295 04       		.byte	0x4
 676 0296 00       		.byte	0
 677 0297 03       		.uleb128 0x3
 678 0298 22000000 		.4byte	.LASF53
 679 029c 06       		.byte	0x6
 680 029d 4C       		.byte	0x4c
 681 029e A2020000 		.4byte	0x2a2
 682 02a2 0B       		.uleb128 0xb
 683 02a3 AE030000 		.4byte	.LASF54
 684 02a7 1C       		.byte	0x1c
ARM GAS  /tmp/cc1Mbedh.s 			page 13


 685 02a8 07       		.byte	0x7
 686 02a9 5E01     		.2byte	0x15e
 687 02ab FE020000 		.4byte	0x2fe
 688 02af 09       		.uleb128 0x9
 689 02b0 E6020000 		.4byte	.LASF29
 690 02b4 07       		.byte	0x7
 691 02b5 5F01     		.2byte	0x15f
 692 02b7 67020000 		.4byte	0x267
 693 02bb 00       		.byte	0
 694 02bc 09       		.uleb128 0x9
 695 02bd B9040000 		.4byte	.LASF30
 696 02c1 07       		.byte	0x7
 697 02c2 6001     		.2byte	0x160
 698 02c4 05010000 		.4byte	0x105
 699 02c8 08       		.byte	0x8
 700 02c9 08       		.uleb128 0x8
 701 02ca 63747800 		.ascii	"ctx\000"
 702 02ce 07       		.byte	0x7
 703 02cf 6201     		.2byte	0x162
 704 02d1 39060000 		.4byte	0x639
 705 02d5 0C       		.byte	0xc
 706 02d6 09       		.uleb128 0x9
 707 02d7 ED030000 		.4byte	.LASF31
 708 02db 07       		.byte	0x7
 709 02dc 6501     		.2byte	0x165
 710 02de 3D020000 		.4byte	0x23d
 711 02e2 10       		.byte	0x10
 712 02e3 09       		.uleb128 0x9
 713 02e4 A3070000 		.4byte	.LASF32
 714 02e8 07       		.byte	0x7
 715 02e9 6601     		.2byte	0x166
 716 02eb 3D020000 		.4byte	0x23d
 717 02ef 14       		.byte	0x14
 718 02f0 09       		.uleb128 0x9
 719 02f1 55080000 		.4byte	.LASF55
 720 02f5 07       		.byte	0x7
 721 02f6 6901     		.2byte	0x169
 722 02f8 3D020000 		.4byte	0x23d
 723 02fc 18       		.byte	0x18
 724 02fd 00       		.byte	0
 725 02fe 03       		.uleb128 0x3
 726 02ff DA070000 		.4byte	.LASF56
 727 0303 06       		.byte	0x6
 728 0304 51       		.byte	0x51
 729 0305 09030000 		.4byte	0x309
 730 0309 0A       		.uleb128 0xa
 731 030a 04       		.byte	0x4
 732 030b 0F030000 		.4byte	0x30f
 733 030f 0C       		.uleb128 0xc
 734 0310 1A030000 		.4byte	0x31a
 735 0314 0D       		.uleb128 0xd
 736 0315 1A030000 		.4byte	0x31a
 737 0319 00       		.byte	0
 738 031a 0E       		.uleb128 0xe
 739 031b 04       		.byte	0x4
 740 031c 03       		.uleb128 0x3
 741 031d 09050000 		.4byte	.LASF57
ARM GAS  /tmp/cc1Mbedh.s 			page 14


 742 0321 06       		.byte	0x6
 743 0322 56       		.byte	0x56
 744 0323 27030000 		.4byte	0x327
 745 0327 0B       		.uleb128 0xb
 746 0328 27070000 		.4byte	.LASF58
 747 032c 14       		.byte	0x14
 748 032d 07       		.byte	0x7
 749 032e 3901     		.2byte	0x139
 750 0330 76030000 		.4byte	0x376
 751 0334 09       		.uleb128 0x9
 752 0335 BF080000 		.4byte	.LASF49
 753 0339 07       		.byte	0x7
 754 033a 3A01     		.2byte	0x13a
 755 033c 37090000 		.4byte	0x937
 756 0340 00       		.byte	0
 757 0341 09       		.uleb128 0x9
 758 0342 70000000 		.4byte	.LASF52
 759 0346 07       		.byte	0x7
 760 0347 3B01     		.2byte	0x13b
 761 0349 37090000 		.4byte	0x937
 762 034d 04       		.byte	0x4
 763 034e 09       		.uleb128 0x9
 764 034f 43000000 		.4byte	.LASF59
 765 0353 07       		.byte	0x7
 766 0354 3C01     		.2byte	0x13c
 767 0356 5A040000 		.4byte	0x45a
 768 035a 08       		.byte	0x8
 769 035b 09       		.uleb128 0x9
 770 035c DB010000 		.4byte	.LASF60
 771 0360 07       		.byte	0x7
 772 0361 3D01     		.2byte	0x13d
 773 0363 FE020000 		.4byte	0x2fe
 774 0367 0C       		.byte	0xc
 775 0368 08       		.uleb128 0x8
 776 0369 70617200 		.ascii	"par\000"
 777 036d 07       		.byte	0x7
 778 036e 3F01     		.2byte	0x13f
 779 0370 1A030000 		.4byte	0x31a
 780 0374 10       		.byte	0x10
 781 0375 00       		.byte	0
 782 0376 03       		.uleb128 0x3
 783 0377 0E010000 		.4byte	.LASF61
 784 037b 06       		.byte	0x6
 785 037c 5B       		.byte	0x5b
 786 037d 81030000 		.4byte	0x381
 787 0381 0B       		.uleb128 0xb
 788 0382 46040000 		.4byte	.LASF62
 789 0386 10       		.byte	0x10
 790 0387 07       		.byte	0x7
 791 0388 4901     		.2byte	0x149
 792 038a C3030000 		.4byte	0x3c3
 793 038e 09       		.uleb128 0x9
 794 038f BF080000 		.4byte	.LASF49
 795 0393 07       		.byte	0x7
 796 0394 4A01     		.2byte	0x14a
 797 0396 37090000 		.4byte	0x937
 798 039a 00       		.byte	0
ARM GAS  /tmp/cc1Mbedh.s 			page 15


 799 039b 09       		.uleb128 0x9
 800 039c 70000000 		.4byte	.LASF52
 801 03a0 07       		.byte	0x7
 802 03a1 4C01     		.2byte	0x14c
 803 03a3 37090000 		.4byte	0x937
 804 03a7 04       		.byte	0x4
 805 03a8 09       		.uleb128 0x9
 806 03a9 43000000 		.4byte	.LASF59
 807 03ad 07       		.byte	0x7
 808 03ae 4E01     		.2byte	0x14e
 809 03b0 5A040000 		.4byte	0x45a
 810 03b4 08       		.byte	0x8
 811 03b5 09       		.uleb128 0x9
 812 03b6 9E060000 		.4byte	.LASF63
 813 03ba 07       		.byte	0x7
 814 03bb 5601     		.2byte	0x156
 815 03bd 4F040000 		.4byte	0x44f
 816 03c1 0C       		.byte	0xc
 817 03c2 00       		.byte	0
 818 03c3 03       		.uleb128 0x3
 819 03c4 92000000 		.4byte	.LASF64
 820 03c8 06       		.byte	0x6
 821 03c9 60       		.byte	0x60
 822 03ca CE030000 		.4byte	0x3ce
 823 03ce 0B       		.uleb128 0xb
 824 03cf DD080000 		.4byte	.LASF65
 825 03d3 04       		.byte	0x4
 826 03d4 07       		.byte	0x7
 827 03d5 7001     		.2byte	0x170
 828 03d7 E9030000 		.4byte	0x3e9
 829 03db 09       		.uleb128 0x9
 830 03dc EA070000 		.4byte	.LASF66
 831 03e0 07       		.byte	0x7
 832 03e1 7801     		.2byte	0x178
 833 03e3 3D090000 		.4byte	0x93d
 834 03e7 00       		.byte	0
 835 03e8 00       		.byte	0
 836 03e9 03       		.uleb128 0x3
 837 03ea 80030000 		.4byte	.LASF67
 838 03ee 06       		.byte	0x6
 839 03ef 65       		.byte	0x65
 840 03f0 F4030000 		.4byte	0x3f4
 841 03f4 0B       		.uleb128 0xb
 842 03f5 B9060000 		.4byte	.LASF68
 843 03f9 D0       		.byte	0xd0
 844 03fa 07       		.byte	0x7
 845 03fb 9001     		.2byte	0x190
 846 03fd 4F040000 		.4byte	0x44f
 847 0401 09       		.uleb128 0x9
 848 0402 92080000 		.4byte	.LASF69
 849 0406 07       		.byte	0x7
 850 0407 9401     		.2byte	0x194
 851 0409 97020000 		.4byte	0x297
 852 040d 00       		.byte	0
 853 040e 09       		.uleb128 0x9
 854 040f 93010000 		.4byte	.LASF70
 855 0413 07       		.byte	0x7
ARM GAS  /tmp/cc1Mbedh.s 			page 16


 856 0414 9801     		.2byte	0x198
 857 0416 76030000 		.4byte	0x376
 858 041a 1C       		.byte	0x1c
 859 041b 08       		.uleb128 0x8
 860 041c 64626700 		.ascii	"dbg\000"
 861 0420 07       		.byte	0x7
 862 0421 9C01     		.2byte	0x19c
 863 0423 C3030000 		.4byte	0x3c3
 864 0427 2C       		.byte	0x2c
 865 0428 09       		.uleb128 0x9
 866 0429 FA000000 		.4byte	.LASF71
 867 042d 07       		.byte	0x7
 868 042e A001     		.2byte	0x1a0
 869 0430 3C010000 		.4byte	0x13c
 870 0434 30       		.byte	0x30
 871 0435 08       		.uleb128 0x8
 872 0436 746D00   		.ascii	"tm\000"
 873 0439 07       		.byte	0x7
 874 043a A501     		.2byte	0x1a5
 875 043c B8070000 		.4byte	0x7b8
 876 0440 90       		.byte	0x90
 877 0441 09       		.uleb128 0x9
 878 0442 24080000 		.4byte	.LASF72
 879 0446 07       		.byte	0x7
 880 0447 AB01     		.2byte	0x1ab
 881 0449 4A080000 		.4byte	0x84a
 882 044d 98       		.byte	0x98
 883 044e 00       		.byte	0
 884 044f 03       		.uleb128 0x3
 885 0450 D0070000 		.4byte	.LASF73
 886 0454 08       		.byte	0x8
 887 0455 6D       		.byte	0x6d
 888 0456 B8000000 		.4byte	0xb8
 889 045a 03       		.uleb128 0x3
 890 045b 87020000 		.4byte	.LASF74
 891 045f 08       		.byte	0x8
 892 0460 79       		.byte	0x79
 893 0461 B8000000 		.4byte	0xb8
 894 0465 04       		.uleb128 0x4
 895 0466 04       		.byte	0x4
 896 0467 07       		.byte	0x7
 897 0468 2A040000 		.4byte	.LASF75
 898 046c 0F       		.uleb128 0xf
 899 046d B8000000 		.4byte	0xb8
 900 0471 10       		.uleb128 0x10
 901 0472 6C040000 		.4byte	0x46c
 902 0476 11       		.uleb128 0x11
 903 0477 B8000000 		.4byte	0xb8
 904 047b 86040000 		.4byte	0x486
 905 047f 12       		.uleb128 0x12
 906 0480 65040000 		.4byte	0x465
 907 0484 01       		.byte	0x1
 908 0485 00       		.byte	0
 909 0486 11       		.uleb128 0x11
 910 0487 B8000000 		.4byte	0xb8
 911 048b 96040000 		.4byte	0x496
 912 048f 12       		.uleb128 0x12
ARM GAS  /tmp/cc1Mbedh.s 			page 17


 913 0490 65040000 		.4byte	0x465
 914 0494 03       		.byte	0x3
 915 0495 00       		.byte	0
 916 0496 13       		.uleb128 0x13
 917 0497 18       		.byte	0x18
 918 0498 09       		.byte	0x9
 919 0499 7101     		.2byte	0x171
 920 049b ED040000 		.4byte	0x4ed
 921 049f 08       		.uleb128 0x8
 922 04a0 435200   		.ascii	"CR\000"
 923 04a3 09       		.byte	0x9
 924 04a4 7301     		.2byte	0x173
 925 04a6 6C040000 		.4byte	0x46c
 926 04aa 00       		.byte	0
 927 04ab 09       		.uleb128 0x9
 928 04ac 45010000 		.4byte	.LASF76
 929 04b0 09       		.byte	0x9
 930 04b1 7401     		.2byte	0x174
 931 04b3 6C040000 		.4byte	0x46c
 932 04b7 04       		.byte	0x4
 933 04b8 08       		.uleb128 0x8
 934 04b9 50415200 		.ascii	"PAR\000"
 935 04bd 09       		.byte	0x9
 936 04be 7501     		.2byte	0x175
 937 04c0 6C040000 		.4byte	0x46c
 938 04c4 08       		.byte	0x8
 939 04c5 09       		.uleb128 0x9
 940 04c6 2F000000 		.4byte	.LASF77
 941 04ca 09       		.byte	0x9
 942 04cb 7601     		.2byte	0x176
 943 04cd 6C040000 		.4byte	0x46c
 944 04d1 0C       		.byte	0xc
 945 04d2 09       		.uleb128 0x9
 946 04d3 50080000 		.4byte	.LASF78
 947 04d7 09       		.byte	0x9
 948 04d8 7701     		.2byte	0x177
 949 04da 6C040000 		.4byte	0x46c
 950 04de 10       		.byte	0x10
 951 04df 08       		.uleb128 0x8
 952 04e0 46435200 		.ascii	"FCR\000"
 953 04e4 09       		.byte	0x9
 954 04e5 7801     		.2byte	0x178
 955 04e7 6C040000 		.4byte	0x46c
 956 04eb 14       		.byte	0x14
 957 04ec 00       		.byte	0
 958 04ed 14       		.uleb128 0x14
 959 04ee 03080000 		.4byte	.LASF79
 960 04f2 09       		.byte	0x9
 961 04f3 7901     		.2byte	0x179
 962 04f5 96040000 		.4byte	0x496
 963 04f9 13       		.uleb128 0x13
 964 04fa 84       		.byte	0x84
 965 04fb 09       		.byte	0x9
 966 04fc 0303     		.2byte	0x303
 967 04fe 07060000 		.4byte	0x607
 968 0502 09       		.uleb128 0x9
 969 0503 75040000 		.4byte	.LASF80
ARM GAS  /tmp/cc1Mbedh.s 			page 18


 970 0507 09       		.byte	0x9
 971 0508 0503     		.2byte	0x305
 972 050a 6C040000 		.4byte	0x46c
 973 050e 00       		.byte	0
 974 050f 09       		.uleb128 0x9
 975 0510 E2040000 		.4byte	.LASF81
 976 0514 09       		.byte	0x9
 977 0515 0603     		.2byte	0x306
 978 0517 6C040000 		.4byte	0x46c
 979 051b 04       		.byte	0x4
 980 051c 08       		.uleb128 0x8
 981 051d 41524700 		.ascii	"ARG\000"
 982 0521 09       		.byte	0x9
 983 0522 0703     		.2byte	0x307
 984 0524 6C040000 		.4byte	0x46c
 985 0528 08       		.byte	0x8
 986 0529 08       		.uleb128 0x8
 987 052a 434D4400 		.ascii	"CMD\000"
 988 052e 09       		.byte	0x9
 989 052f 0803     		.2byte	0x308
 990 0531 6C040000 		.4byte	0x46c
 991 0535 0C       		.byte	0xc
 992 0536 09       		.uleb128 0x9
 993 0537 94030000 		.4byte	.LASF82
 994 053b 09       		.byte	0x9
 995 053c 0903     		.2byte	0x309
 996 053e 71040000 		.4byte	0x471
 997 0542 10       		.byte	0x10
 998 0543 09       		.uleb128 0x9
 999 0544 10000000 		.4byte	.LASF83
 1000 0548 09       		.byte	0x9
 1001 0549 0A03     		.2byte	0x30a
 1002 054b 71040000 		.4byte	0x471
 1003 054f 14       		.byte	0x14
 1004 0550 09       		.uleb128 0x9
 1005 0551 16000000 		.4byte	.LASF84
 1006 0555 09       		.byte	0x9
 1007 0556 0B03     		.2byte	0x30b
 1008 0558 71040000 		.4byte	0x471
 1009 055c 18       		.byte	0x18
 1010 055d 09       		.uleb128 0x9
 1011 055e 1C000000 		.4byte	.LASF85
 1012 0562 09       		.byte	0x9
 1013 0563 0C03     		.2byte	0x30c
 1014 0565 71040000 		.4byte	0x471
 1015 0569 1C       		.byte	0x1c
 1016 056a 09       		.uleb128 0x9
 1017 056b EC010000 		.4byte	.LASF86
 1018 056f 09       		.byte	0x9
 1019 0570 0D03     		.2byte	0x30d
 1020 0572 71040000 		.4byte	0x471
 1021 0576 20       		.byte	0x20
 1022 0577 09       		.uleb128 0x9
 1023 0578 E3070000 		.4byte	.LASF87
 1024 057c 09       		.byte	0x9
 1025 057d 0E03     		.2byte	0x30e
 1026 057f 6C040000 		.4byte	0x46c
ARM GAS  /tmp/cc1Mbedh.s 			page 19


 1027 0583 24       		.byte	0x24
 1028 0584 09       		.uleb128 0x9
 1029 0585 F3030000 		.4byte	.LASF88
 1030 0589 09       		.byte	0x9
 1031 058a 0F03     		.2byte	0x30f
 1032 058c 6C040000 		.4byte	0x46c
 1033 0590 28       		.byte	0x28
 1034 0591 09       		.uleb128 0x9
 1035 0592 A2040000 		.4byte	.LASF89
 1036 0596 09       		.byte	0x9
 1037 0597 1003     		.2byte	0x310
 1038 0599 6C040000 		.4byte	0x46c
 1039 059d 2C       		.byte	0x2c
 1040 059e 09       		.uleb128 0x9
 1041 059f BB010000 		.4byte	.LASF90
 1042 05a3 09       		.byte	0x9
 1043 05a4 1103     		.2byte	0x311
 1044 05a6 71040000 		.4byte	0x471
 1045 05aa 30       		.byte	0x30
 1046 05ab 08       		.uleb128 0x8
 1047 05ac 53544100 		.ascii	"STA\000"
 1048 05b0 09       		.byte	0x9
 1049 05b1 1203     		.2byte	0x312
 1050 05b3 71040000 		.4byte	0x471
 1051 05b7 34       		.byte	0x34
 1052 05b8 08       		.uleb128 0x8
 1053 05b9 49435200 		.ascii	"ICR\000"
 1054 05bd 09       		.byte	0x9
 1055 05be 1303     		.2byte	0x313
 1056 05c0 6C040000 		.4byte	0x46c
 1057 05c4 38       		.byte	0x38
 1058 05c5 09       		.uleb128 0x9
 1059 05c6 82020000 		.4byte	.LASF91
 1060 05ca 09       		.byte	0x9
 1061 05cb 1403     		.2byte	0x314
 1062 05cd 6C040000 		.4byte	0x46c
 1063 05d1 3C       		.byte	0x3c
 1064 05d2 09       		.uleb128 0x9
 1065 05d3 F0040000 		.4byte	.LASF92
 1066 05d7 09       		.byte	0x9
 1067 05d8 1503     		.2byte	0x315
 1068 05da 76040000 		.4byte	0x476
 1069 05de 40       		.byte	0x40
 1070 05df 09       		.uleb128 0x9
 1071 05e0 5D040000 		.4byte	.LASF93
 1072 05e4 09       		.byte	0x9
 1073 05e5 1603     		.2byte	0x316
 1074 05e7 71040000 		.4byte	0x471
 1075 05eb 48       		.byte	0x48
 1076 05ec 09       		.uleb128 0x9
 1077 05ed FA040000 		.4byte	.LASF94
 1078 05f1 09       		.byte	0x9
 1079 05f2 1703     		.2byte	0x317
 1080 05f4 07060000 		.4byte	0x607
 1081 05f8 4C       		.byte	0x4c
 1082 05f9 09       		.uleb128 0x9
 1083 05fa 5C030000 		.4byte	.LASF95
ARM GAS  /tmp/cc1Mbedh.s 			page 20


 1084 05fe 09       		.byte	0x9
 1085 05ff 1803     		.2byte	0x318
 1086 0601 6C040000 		.4byte	0x46c
 1087 0605 80       		.byte	0x80
 1088 0606 00       		.byte	0
 1089 0607 11       		.uleb128 0x11
 1090 0608 B8000000 		.4byte	0xb8
 1091 060c 17060000 		.4byte	0x617
 1092 0610 12       		.uleb128 0x12
 1093 0611 65040000 		.4byte	0x465
 1094 0615 0C       		.byte	0xc
 1095 0616 00       		.byte	0
 1096 0617 14       		.uleb128 0x14
 1097 0618 0F070000 		.4byte	.LASF96
 1098 061c 09       		.byte	0x9
 1099 061d 1903     		.2byte	0x319
 1100 061f F9040000 		.4byte	0x4f9
 1101 0623 03       		.uleb128 0x3
 1102 0624 06020000 		.4byte	.LASF97
 1103 0628 0A       		.byte	0xa
 1104 0629 65       		.byte	0x65
 1105 062a 1A030000 		.4byte	0x31a
 1106 062e 03       		.uleb128 0x3
 1107 062f E2030000 		.4byte	.LASF98
 1108 0633 0A       		.byte	0xa
 1109 0634 6D       		.byte	0x6d
 1110 0635 C3000000 		.4byte	0xc3
 1111 0639 05       		.uleb128 0x5
 1112 063a 95040000 		.4byte	.LASF99
 1113 063e 04       		.byte	0x4
 1114 063f 0A       		.byte	0xa
 1115 0640 89       		.byte	0x89
 1116 0641 51060000 		.4byte	0x651
 1117 0645 07       		.uleb128 0x7
 1118 0646 737000   		.ascii	"sp\000"
 1119 0649 0A       		.byte	0xa
 1120 064a 8A       		.byte	0x8a
 1121 064b 9D070000 		.4byte	0x79d
 1122 064f 00       		.byte	0
 1123 0650 00       		.byte	0
 1124 0651 0B       		.uleb128 0xb
 1125 0652 75000000 		.4byte	.LASF100
 1126 0656 64       		.byte	0x64
 1127 0657 0B       		.byte	0xb
 1128 0658 5901     		.2byte	0x159
 1129 065a 9D070000 		.4byte	0x79d
 1130 065e 08       		.uleb128 0x8
 1131 065f 73313600 		.ascii	"s16\000"
 1132 0663 0B       		.byte	0xb
 1133 0664 5B01     		.2byte	0x15b
 1134 0666 23060000 		.4byte	0x623
 1135 066a 00       		.byte	0
 1136 066b 08       		.uleb128 0x8
 1137 066c 73313700 		.ascii	"s17\000"
 1138 0670 0B       		.byte	0xb
 1139 0671 5C01     		.2byte	0x15c
 1140 0673 23060000 		.4byte	0x623
ARM GAS  /tmp/cc1Mbedh.s 			page 21


 1141 0677 04       		.byte	0x4
 1142 0678 08       		.uleb128 0x8
 1143 0679 73313800 		.ascii	"s18\000"
 1144 067d 0B       		.byte	0xb
 1145 067e 5D01     		.2byte	0x15d
 1146 0680 23060000 		.4byte	0x623
 1147 0684 08       		.byte	0x8
 1148 0685 08       		.uleb128 0x8
 1149 0686 73313900 		.ascii	"s19\000"
 1150 068a 0B       		.byte	0xb
 1151 068b 5E01     		.2byte	0x15e
 1152 068d 23060000 		.4byte	0x623
 1153 0691 0C       		.byte	0xc
 1154 0692 08       		.uleb128 0x8
 1155 0693 73323000 		.ascii	"s20\000"
 1156 0697 0B       		.byte	0xb
 1157 0698 5F01     		.2byte	0x15f
 1158 069a 23060000 		.4byte	0x623
 1159 069e 10       		.byte	0x10
 1160 069f 08       		.uleb128 0x8
 1161 06a0 73323100 		.ascii	"s21\000"
 1162 06a4 0B       		.byte	0xb
 1163 06a5 6001     		.2byte	0x160
 1164 06a7 23060000 		.4byte	0x623
 1165 06ab 14       		.byte	0x14
 1166 06ac 08       		.uleb128 0x8
 1167 06ad 73323200 		.ascii	"s22\000"
 1168 06b1 0B       		.byte	0xb
 1169 06b2 6101     		.2byte	0x161
 1170 06b4 23060000 		.4byte	0x623
 1171 06b8 18       		.byte	0x18
 1172 06b9 08       		.uleb128 0x8
 1173 06ba 73323300 		.ascii	"s23\000"
 1174 06be 0B       		.byte	0xb
 1175 06bf 6201     		.2byte	0x162
 1176 06c1 23060000 		.4byte	0x623
 1177 06c5 1C       		.byte	0x1c
 1178 06c6 08       		.uleb128 0x8
 1179 06c7 73323400 		.ascii	"s24\000"
 1180 06cb 0B       		.byte	0xb
 1181 06cc 6301     		.2byte	0x163
 1182 06ce 23060000 		.4byte	0x623
 1183 06d2 20       		.byte	0x20
 1184 06d3 08       		.uleb128 0x8
 1185 06d4 73323500 		.ascii	"s25\000"
 1186 06d8 0B       		.byte	0xb
 1187 06d9 6401     		.2byte	0x164
 1188 06db 23060000 		.4byte	0x623
 1189 06df 24       		.byte	0x24
 1190 06e0 08       		.uleb128 0x8
 1191 06e1 73323600 		.ascii	"s26\000"
 1192 06e5 0B       		.byte	0xb
 1193 06e6 6501     		.2byte	0x165
 1194 06e8 23060000 		.4byte	0x623
 1195 06ec 28       		.byte	0x28
 1196 06ed 08       		.uleb128 0x8
 1197 06ee 73323700 		.ascii	"s27\000"
ARM GAS  /tmp/cc1Mbedh.s 			page 22


 1198 06f2 0B       		.byte	0xb
 1199 06f3 6601     		.2byte	0x166
 1200 06f5 23060000 		.4byte	0x623
 1201 06f9 2C       		.byte	0x2c
 1202 06fa 08       		.uleb128 0x8
 1203 06fb 73323800 		.ascii	"s28\000"
 1204 06ff 0B       		.byte	0xb
 1205 0700 6701     		.2byte	0x167
 1206 0702 23060000 		.4byte	0x623
 1207 0706 30       		.byte	0x30
 1208 0707 08       		.uleb128 0x8
 1209 0708 73323900 		.ascii	"s29\000"
 1210 070c 0B       		.byte	0xb
 1211 070d 6801     		.2byte	0x168
 1212 070f 23060000 		.4byte	0x623
 1213 0713 34       		.byte	0x34
 1214 0714 08       		.uleb128 0x8
 1215 0715 73333000 		.ascii	"s30\000"
 1216 0719 0B       		.byte	0xb
 1217 071a 6901     		.2byte	0x169
 1218 071c 23060000 		.4byte	0x623
 1219 0720 38       		.byte	0x38
 1220 0721 08       		.uleb128 0x8
 1221 0722 73333100 		.ascii	"s31\000"
 1222 0726 0B       		.byte	0xb
 1223 0727 6A01     		.2byte	0x16a
 1224 0729 23060000 		.4byte	0x623
 1225 072d 3C       		.byte	0x3c
 1226 072e 08       		.uleb128 0x8
 1227 072f 723400   		.ascii	"r4\000"
 1228 0732 0B       		.byte	0xb
 1229 0733 6C01     		.2byte	0x16c
 1230 0735 23060000 		.4byte	0x623
 1231 0739 40       		.byte	0x40
 1232 073a 08       		.uleb128 0x8
 1233 073b 723500   		.ascii	"r5\000"
 1234 073e 0B       		.byte	0xb
 1235 073f 6D01     		.2byte	0x16d
 1236 0741 23060000 		.4byte	0x623
 1237 0745 44       		.byte	0x44
 1238 0746 08       		.uleb128 0x8
 1239 0747 723600   		.ascii	"r6\000"
 1240 074a 0B       		.byte	0xb
 1241 074b 6E01     		.2byte	0x16e
 1242 074d 23060000 		.4byte	0x623
 1243 0751 48       		.byte	0x48
 1244 0752 08       		.uleb128 0x8
 1245 0753 723700   		.ascii	"r7\000"
 1246 0756 0B       		.byte	0xb
 1247 0757 6F01     		.2byte	0x16f
 1248 0759 23060000 		.4byte	0x623
 1249 075d 4C       		.byte	0x4c
 1250 075e 08       		.uleb128 0x8
 1251 075f 723800   		.ascii	"r8\000"
 1252 0762 0B       		.byte	0xb
 1253 0763 7001     		.2byte	0x170
 1254 0765 23060000 		.4byte	0x623
ARM GAS  /tmp/cc1Mbedh.s 			page 23


 1255 0769 50       		.byte	0x50
 1256 076a 08       		.uleb128 0x8
 1257 076b 723900   		.ascii	"r9\000"
 1258 076e 0B       		.byte	0xb
 1259 076f 7101     		.2byte	0x171
 1260 0771 23060000 		.4byte	0x623
 1261 0775 54       		.byte	0x54
 1262 0776 08       		.uleb128 0x8
 1263 0777 72313000 		.ascii	"r10\000"
 1264 077b 0B       		.byte	0xb
 1265 077c 7201     		.2byte	0x172
 1266 077e 23060000 		.4byte	0x623
 1267 0782 58       		.byte	0x58
 1268 0783 08       		.uleb128 0x8
 1269 0784 72313100 		.ascii	"r11\000"
 1270 0788 0B       		.byte	0xb
 1271 0789 7301     		.2byte	0x173
 1272 078b 23060000 		.4byte	0x623
 1273 078f 5C       		.byte	0x5c
 1274 0790 08       		.uleb128 0x8
 1275 0791 6C7200   		.ascii	"lr\000"
 1276 0794 0B       		.byte	0xb
 1277 0795 7401     		.2byte	0x174
 1278 0797 23060000 		.4byte	0x623
 1279 079b 60       		.byte	0x60
 1280 079c 00       		.byte	0
 1281 079d 0A       		.uleb128 0xa
 1282 079e 04       		.byte	0x4
 1283 079f 51060000 		.4byte	0x651
 1284 07a3 15       		.uleb128 0x15
 1285 07a4 04       		.byte	0x4
 1286 07a5 0C       		.byte	0xc
 1287 07a6 38       		.byte	0x38
 1288 07a7 B8070000 		.4byte	0x7b8
 1289 07ab 06       		.uleb128 0x6
 1290 07ac FC070000 		.4byte	.LASF101
 1291 07b0 0C       		.byte	0xc
 1292 07b1 3C       		.byte	0x3c
 1293 07b2 CE000000 		.4byte	0xce
 1294 07b6 00       		.byte	0
 1295 07b7 00       		.byte	0
 1296 07b8 03       		.uleb128 0x3
 1297 07b9 A8040000 		.4byte	.LASF102
 1298 07bd 0C       		.byte	0xc
 1299 07be 3D       		.byte	0x3d
 1300 07bf A3070000 		.4byte	0x7a3
 1301 07c3 15       		.uleb128 0x15
 1302 07c4 18       		.byte	0x18
 1303 07c5 0C       		.byte	0xc
 1304 07c6 48       		.byte	0x48
 1305 07c7 06080000 		.4byte	0x806
 1306 07cb 06       		.uleb128 0x6
 1307 07cc CB070000 		.4byte	.LASF103
 1308 07d0 0C       		.byte	0xc
 1309 07d1 49       		.byte	0x49
 1310 07d2 CE000000 		.4byte	0xce
 1311 07d6 00       		.byte	0
ARM GAS  /tmp/cc1Mbedh.s 			page 24


 1312 07d7 06       		.uleb128 0x6
 1313 07d8 C1000000 		.4byte	.LASF104
 1314 07dc 0C       		.byte	0xc
 1315 07dd 4A       		.byte	0x4a
 1316 07de CE000000 		.4byte	0xce
 1317 07e2 04       		.byte	0x4
 1318 07e3 06       		.uleb128 0x6
 1319 07e4 57030000 		.4byte	.LASF105
 1320 07e8 0C       		.byte	0xc
 1321 07e9 4B       		.byte	0x4b
 1322 07ea CE000000 		.4byte	0xce
 1323 07ee 08       		.byte	0x8
 1324 07ef 07       		.uleb128 0x7
 1325 07f0 6E00     		.ascii	"n\000"
 1326 07f2 0C       		.byte	0xc
 1327 07f3 4C       		.byte	0x4c
 1328 07f4 31010000 		.4byte	0x131
 1329 07f8 0C       		.byte	0xc
 1330 07f9 06       		.uleb128 0x6
 1331 07fa D7040000 		.4byte	.LASF106
 1332 07fe 0C       		.byte	0xc
 1333 07ff 4D       		.byte	0x4d
 1334 0800 D9000000 		.4byte	0xd9
 1335 0804 10       		.byte	0x10
 1336 0805 00       		.byte	0
 1337 0806 03       		.uleb128 0x3
 1338 0807 C7000000 		.4byte	.LASF107
 1339 080b 0C       		.byte	0xc
 1340 080c 4E       		.byte	0x4e
 1341 080d C3070000 		.4byte	0x7c3
 1342 0811 15       		.uleb128 0x15
 1343 0812 38       		.byte	0x38
 1344 0813 0D       		.byte	0xd
 1345 0814 38       		.byte	0x38
 1346 0815 4A080000 		.4byte	0x84a
 1347 0819 06       		.uleb128 0x6
 1348 081a E0020000 		.4byte	.LASF108
 1349 081e 0D       		.byte	0xd
 1350 081f 39       		.byte	0x39
 1351 0820 31010000 		.4byte	0x131
 1352 0824 00       		.byte	0
 1353 0825 06       		.uleb128 0x6
 1354 0826 41050000 		.4byte	.LASF109
 1355 082a 0D       		.byte	0xd
 1356 082b 3A       		.byte	0x3a
 1357 082c 31010000 		.4byte	0x131
 1358 0830 04       		.byte	0x4
 1359 0831 06       		.uleb128 0x6
 1360 0832 0D090000 		.4byte	.LASF110
 1361 0836 0D       		.byte	0xd
 1362 0837 3B       		.byte	0x3b
 1363 0838 06080000 		.4byte	0x806
 1364 083c 08       		.byte	0x8
 1365 083d 06       		.uleb128 0x6
 1366 083e A3030000 		.4byte	.LASF111
 1367 0842 0D       		.byte	0xd
 1368 0843 3D       		.byte	0x3d
ARM GAS  /tmp/cc1Mbedh.s 			page 25


 1369 0844 06080000 		.4byte	0x806
 1370 0848 20       		.byte	0x20
 1371 0849 00       		.byte	0
 1372 084a 03       		.uleb128 0x3
 1373 084b 0D030000 		.4byte	.LASF112
 1374 084f 0D       		.byte	0xd
 1375 0850 3F       		.byte	0x3f
 1376 0851 11080000 		.4byte	0x811
 1377 0855 16       		.uleb128 0x16
 1378 0856 04       		.byte	0x4
 1379 0857 07       		.byte	0x7
 1380 0858 C6       		.byte	0xc6
 1381 0859 B7080000 		.4byte	0x8b7
 1382 085d 17       		.uleb128 0x17
 1383 085e 49000000 		.4byte	.LASF113
 1384 0862 07       		.byte	0x7
 1385 0863 CD       		.byte	0xcd
 1386 0864 10010000 		.4byte	0x110
 1387 0868 17       		.uleb128 0x17
 1388 0869 F1000000 		.4byte	.LASF114
 1389 086d 07       		.byte	0x7
 1390 086e D4       		.byte	0xd4
 1391 086f 10010000 		.4byte	0x110
 1392 0873 17       		.uleb128 0x17
 1393 0874 AE080000 		.4byte	.LASF115
 1394 0878 07       		.byte	0x7
 1395 0879 DB       		.byte	0xdb
 1396 087a 1A030000 		.4byte	0x31a
 1397 087e 17       		.uleb128 0x17
 1398 087f C1020000 		.4byte	.LASF116
 1399 0883 07       		.byte	0x7
 1400 0884 E2       		.byte	0xe2
 1401 0885 B7080000 		.4byte	0x8b7
 1402 0889 17       		.uleb128 0x17
 1403 088a 05090000 		.4byte	.LASF117
 1404 088e 07       		.byte	0x7
 1405 088f E7       		.byte	0xe7
 1406 0890 10010000 		.4byte	0x110
 1407 0894 17       		.uleb128 0x17
 1408 0895 A8020000 		.4byte	.LASF118
 1409 0899 07       		.byte	0x7
 1410 089a F0       		.byte	0xf0
 1411 089b E2080000 		.4byte	0x8e2
 1412 089f 17       		.uleb128 0x17
 1413 08a0 5B070000 		.4byte	.LASF119
 1414 08a4 07       		.byte	0x7
 1415 08a5 F9       		.byte	0xf9
 1416 08a6 19090000 		.4byte	0x919
 1417 08aa 18       		.uleb128 0x18
 1418 08ab B2060000 		.4byte	.LASF120
 1419 08af 07       		.byte	0x7
 1420 08b0 0101     		.2byte	0x101
 1421 08b2 1B010000 		.4byte	0x11b
 1422 08b6 00       		.byte	0
 1423 08b7 0A       		.uleb128 0xa
 1424 08b8 04       		.byte	0x4
 1425 08b9 32020000 		.4byte	0x232
ARM GAS  /tmp/cc1Mbedh.s 			page 26


 1426 08bd 05       		.uleb128 0x5
 1427 08be 38070000 		.4byte	.LASF121
 1428 08c2 0C       		.byte	0xc
 1429 08c3 0E       		.byte	0xe
 1430 08c4 34       		.byte	0x34
 1431 08c5 E2080000 		.4byte	0x8e2
 1432 08c9 06       		.uleb128 0x6
 1433 08ca E6020000 		.4byte	.LASF29
 1434 08ce 0E       		.byte	0xe
 1435 08cf 35       		.byte	0x35
 1436 08d0 67020000 		.4byte	0x267
 1437 08d4 00       		.byte	0
 1438 08d5 07       		.uleb128 0x7
 1439 08d6 636E7400 		.ascii	"cnt\000"
 1440 08da 0E       		.byte	0xe
 1441 08db 37       		.byte	0x37
 1442 08dc 26010000 		.4byte	0x126
 1443 08e0 08       		.byte	0x8
 1444 08e1 00       		.byte	0
 1445 08e2 0A       		.uleb128 0xa
 1446 08e3 04       		.byte	0x4
 1447 08e4 BD080000 		.4byte	0x8bd
 1448 08e8 05       		.uleb128 0x5
 1449 08e9 73080000 		.4byte	.LASF122
 1450 08ed 10       		.byte	0x10
 1451 08ee 0F       		.byte	0xf
 1452 08ef 39       		.byte	0x39
 1453 08f0 19090000 		.4byte	0x919
 1454 08f4 06       		.uleb128 0x6
 1455 08f5 E6020000 		.4byte	.LASF29
 1456 08f9 0F       		.byte	0xf
 1457 08fa 3A       		.byte	0x3a
 1458 08fb 67020000 		.4byte	0x267
 1459 08ff 00       		.byte	0
 1460 0900 06       		.uleb128 0x6
 1461 0901 72070000 		.4byte	.LASF123
 1462 0905 0F       		.byte	0xf
 1463 0906 3C       		.byte	0x3c
 1464 0907 3D020000 		.4byte	0x23d
 1465 090b 08       		.byte	0x8
 1466 090c 06       		.uleb128 0x6
 1467 090d BF080000 		.4byte	.LASF49
 1468 0911 0F       		.byte	0xf
 1469 0912 3E       		.byte	0x3e
 1470 0913 4D090000 		.4byte	0x94d
 1471 0917 0C       		.byte	0xc
 1472 0918 00       		.byte	0
 1473 0919 0A       		.uleb128 0xa
 1474 091a 04       		.byte	0x4
 1475 091b E8080000 		.4byte	0x8e8
 1476 091f 0A       		.uleb128 0xa
 1477 0920 04       		.byte	0x4
 1478 0921 25090000 		.4byte	0x925
 1479 0925 10       		.uleb128 0x10
 1480 0926 2A090000 		.4byte	0x92a
 1481 092a 04       		.uleb128 0x4
 1482 092b 01       		.byte	0x1
ARM GAS  /tmp/cc1Mbedh.s 			page 27


 1483 092c 08       		.byte	0x8
 1484 092d 9E070000 		.4byte	.LASF124
 1485 0931 0A       		.uleb128 0xa
 1486 0932 04       		.byte	0x4
 1487 0933 2E060000 		.4byte	0x62e
 1488 0937 0A       		.uleb128 0xa
 1489 0938 04       		.byte	0x4
 1490 0939 1C030000 		.4byte	0x31c
 1491 093d 0F       		.uleb128 0xf
 1492 093e 1F090000 		.4byte	0x91f
 1493 0942 03       		.uleb128 0x3
 1494 0943 7A020000 		.4byte	.LASF125
 1495 0947 0F       		.byte	0xf
 1496 0948 34       		.byte	0x34
 1497 0949 E8080000 		.4byte	0x8e8
 1498 094d 0A       		.uleb128 0xa
 1499 094e 04       		.byte	0x4
 1500 094f 42090000 		.4byte	0x942
 1501 0953 04       		.uleb128 0x4
 1502 0954 01       		.byte	0x1
 1503 0955 02       		.byte	0x2
 1504 0956 4A050000 		.4byte	.LASF126
 1505 095a 0A       		.uleb128 0xa
 1506 095b 04       		.byte	0x4
 1507 095c A2000000 		.4byte	0xa2
 1508 0960 13       		.uleb128 0x13
 1509 0961 0C       		.byte	0xc
 1510 0962 10       		.byte	0x10
 1511 0963 A201     		.2byte	0x1a2
 1512 0965 B8090000 		.4byte	0x9b8
 1513 0969 09       		.uleb128 0x9
 1514 096a BA000000 		.4byte	.LASF127
 1515 096e 10       		.byte	0x10
 1516 096f A301     		.2byte	0x1a3
 1517 0971 B8090000 		.4byte	0x9b8
 1518 0975 00       		.byte	0
 1519 0976 09       		.uleb128 0x9
 1520 0977 4D070000 		.4byte	.LASF128
 1521 097b 10       		.byte	0x10
 1522 097c A401     		.2byte	0x1a4
 1523 097e BE090000 		.4byte	0x9be
 1524 0982 04       		.byte	0x4
 1525 0983 09       		.uleb128 0x9
 1526 0984 57020000 		.4byte	.LASF129
 1527 0988 10       		.byte	0x10
 1528 0989 A801     		.2byte	0x1a8
 1529 098b A2000000 		.4byte	0xa2
 1530 098f 08       		.byte	0x8
 1531 0990 09       		.uleb128 0x9
 1532 0991 C6040000 		.4byte	.LASF130
 1533 0995 10       		.byte	0x10
 1534 0996 AA01     		.2byte	0x1aa
 1535 0998 A2000000 		.4byte	0xa2
 1536 099c 09       		.byte	0x9
 1537 099d 09       		.uleb128 0x9
 1538 099e 0F020000 		.4byte	.LASF131
 1539 09a2 10       		.byte	0x10
ARM GAS  /tmp/cc1Mbedh.s 			page 28


 1540 09a3 AC01     		.2byte	0x1ac
 1541 09a5 A2000000 		.4byte	0xa2
 1542 09a9 0A       		.byte	0xa
 1543 09aa 09       		.uleb128 0x9
 1544 09ab 31090000 		.4byte	.LASF132
 1545 09af 10       		.byte	0x10
 1546 09b0 AD01     		.2byte	0x1ad
 1547 09b2 A2000000 		.4byte	0xa2
 1548 09b6 0B       		.byte	0xb
 1549 09b7 00       		.byte	0
 1550 09b8 0A       		.uleb128 0xa
 1551 09b9 04       		.byte	0x4
 1552 09ba ED040000 		.4byte	0x4ed
 1553 09be 0A       		.uleb128 0xa
 1554 09bf 04       		.byte	0x4
 1555 09c0 6C040000 		.4byte	0x46c
 1556 09c4 14       		.uleb128 0x14
 1557 09c5 1F050000 		.4byte	.LASF133
 1558 09c9 10       		.byte	0x10
 1559 09ca AE01     		.2byte	0x1ae
 1560 09cc 60090000 		.4byte	0x960
 1561 09d0 0A       		.uleb128 0xa
 1562 09d1 04       		.byte	0x4
 1563 09d2 D6090000 		.4byte	0x9d6
 1564 09d6 10       		.uleb128 0x10
 1565 09d7 A2000000 		.4byte	0xa2
 1566 09db 19       		.uleb128 0x19
 1567 09dc 01       		.byte	0x1
 1568 09dd 11       		.byte	0x11
 1569 09de 28       		.byte	0x28
 1570 09df 1A0A0000 		.4byte	0xa1a
 1571 09e3 1A       		.uleb128 0x1a
 1572 09e4 1C070000 		.4byte	.LASF134
 1573 09e8 00       		.sleb128 0
 1574 09e9 1A       		.uleb128 0x1a
 1575 09ea 9A010000 		.4byte	.LASF135
 1576 09ee 01       		.sleb128 1
 1577 09ef 1A       		.uleb128 0x1a
 1578 09f0 1C030000 		.4byte	.LASF136
 1579 09f4 02       		.sleb128 2
 1580 09f5 1A       		.uleb128 0x1a
 1581 09f6 71030000 		.4byte	.LASF137
 1582 09fa 03       		.sleb128 3
 1583 09fb 1A       		.uleb128 0x1a
 1584 09fc A9070000 		.4byte	.LASF138
 1585 0a00 04       		.sleb128 4
 1586 0a01 1A       		.uleb128 0x1a
 1587 0a02 8B040000 		.4byte	.LASF139
 1588 0a06 05       		.sleb128 5
 1589 0a07 1A       		.uleb128 0x1a
 1590 0a08 1E040000 		.4byte	.LASF140
 1591 0a0c 06       		.sleb128 6
 1592 0a0d 1A       		.uleb128 0x1a
 1593 0a0e 4A010000 		.4byte	.LASF141
 1594 0a12 07       		.sleb128 7
 1595 0a13 1A       		.uleb128 0x1a
 1596 0a14 7C080000 		.4byte	.LASF142
ARM GAS  /tmp/cc1Mbedh.s 			page 29


 1597 0a18 08       		.sleb128 8
 1598 0a19 00       		.byte	0
 1599 0a1a 03       		.uleb128 0x3
 1600 0a1b 31010000 		.4byte	.LASF143
 1601 0a1f 11       		.byte	0x11
 1602 0a20 32       		.byte	0x32
 1603 0a21 DB090000 		.4byte	0x9db
 1604 0a25 15       		.uleb128 0x15
 1605 0a26 08       		.byte	0x8
 1606 0a27 11       		.byte	0x11
 1607 0a28 37       		.byte	0x37
 1608 0a29 460A0000 		.4byte	0xa46
 1609 0a2d 06       		.uleb128 0x6
 1610 0a2e 62020000 		.4byte	.LASF144
 1611 0a32 11       		.byte	0x11
 1612 0a33 38       		.byte	0x38
 1613 0a34 B8000000 		.4byte	0xb8
 1614 0a38 00       		.byte	0
 1615 0a39 06       		.uleb128 0x6
 1616 0a3a 3B000000 		.4byte	.LASF145
 1617 0a3e 11       		.byte	0x11
 1618 0a3f 39       		.byte	0x39
 1619 0a40 B8000000 		.4byte	0xb8
 1620 0a44 04       		.byte	0x4
 1621 0a45 00       		.byte	0
 1622 0a46 03       		.uleb128 0x3
 1623 0a47 00000000 		.4byte	.LASF146
 1624 0a4b 11       		.byte	0x11
 1625 0a4c 3A       		.byte	0x3a
 1626 0a4d 250A0000 		.4byte	0xa25
 1627 0a51 1B       		.uleb128 0x1b
 1628 0a52 53090000 		.4byte	0x953
 1629 0a56 600A0000 		.4byte	0xa60
 1630 0a5a 0D       		.uleb128 0xd
 1631 0a5b 1A030000 		.4byte	0x31a
 1632 0a5f 00       		.byte	0
 1633 0a60 0A       		.uleb128 0xa
 1634 0a61 04       		.byte	0x4
 1635 0a62 510A0000 		.4byte	0xa51
 1636 0a66 1B       		.uleb128 0x1b
 1637 0a67 53090000 		.4byte	0x953
 1638 0a6b 840A0000 		.4byte	0xa84
 1639 0a6f 0D       		.uleb128 0xd
 1640 0a70 1A030000 		.4byte	0x31a
 1641 0a74 0D       		.uleb128 0xd
 1642 0a75 B8000000 		.4byte	0xb8
 1643 0a79 0D       		.uleb128 0xd
 1644 0a7a 5A090000 		.4byte	0x95a
 1645 0a7e 0D       		.uleb128 0xd
 1646 0a7f B8000000 		.4byte	0xb8
 1647 0a83 00       		.byte	0
 1648 0a84 0A       		.uleb128 0xa
 1649 0a85 04       		.byte	0x4
 1650 0a86 660A0000 		.4byte	0xa66
 1651 0a8a 1B       		.uleb128 0x1b
 1652 0a8b 53090000 		.4byte	0x953
 1653 0a8f A80A0000 		.4byte	0xaa8
ARM GAS  /tmp/cc1Mbedh.s 			page 30


 1654 0a93 0D       		.uleb128 0xd
 1655 0a94 1A030000 		.4byte	0x31a
 1656 0a98 0D       		.uleb128 0xd
 1657 0a99 B8000000 		.4byte	0xb8
 1658 0a9d 0D       		.uleb128 0xd
 1659 0a9e D0090000 		.4byte	0x9d0
 1660 0aa2 0D       		.uleb128 0xd
 1661 0aa3 B8000000 		.4byte	0xb8
 1662 0aa7 00       		.byte	0
 1663 0aa8 0A       		.uleb128 0xa
 1664 0aa9 04       		.byte	0x4
 1665 0aaa 8A0A0000 		.4byte	0xa8a
 1666 0aae 1B       		.uleb128 0x1b
 1667 0aaf 53090000 		.4byte	0x953
 1668 0ab3 C20A0000 		.4byte	0xac2
 1669 0ab7 0D       		.uleb128 0xd
 1670 0ab8 1A030000 		.4byte	0x31a
 1671 0abc 0D       		.uleb128 0xd
 1672 0abd C20A0000 		.4byte	0xac2
 1673 0ac1 00       		.byte	0
 1674 0ac2 0A       		.uleb128 0xa
 1675 0ac3 04       		.byte	0x4
 1676 0ac4 460A0000 		.4byte	0xa46
 1677 0ac8 0A       		.uleb128 0xa
 1678 0ac9 04       		.byte	0x4
 1679 0aca AE0A0000 		.4byte	0xaae
 1680 0ace 0A       		.uleb128 0xa
 1681 0acf 04       		.byte	0x4
 1682 0ad0 D40A0000 		.4byte	0xad4
 1683 0ad4 10       		.uleb128 0x10
 1684 0ad5 C4090000 		.4byte	0x9c4
 1685 0ad9 19       		.uleb128 0x19
 1686 0ada 01       		.byte	0x1
 1687 0adb 12       		.byte	0x12
 1688 0adc 7A       		.byte	0x7a
 1689 0add F40A0000 		.4byte	0xaf4
 1690 0ae1 1A       		.uleb128 0x1a
 1691 0ae2 75010000 		.4byte	.LASF147
 1692 0ae6 00       		.sleb128 0
 1693 0ae7 1A       		.uleb128 0x1a
 1694 0ae8 16080000 		.4byte	.LASF148
 1695 0aec 01       		.sleb128 1
 1696 0aed 1A       		.uleb128 0x1a
 1697 0aee EC020000 		.4byte	.LASF149
 1698 0af2 02       		.sleb128 2
 1699 0af3 00       		.byte	0
 1700 0af4 03       		.uleb128 0x3
 1701 0af5 11040000 		.4byte	.LASF150
 1702 0af9 12       		.byte	0x12
 1703 0afa 7E       		.byte	0x7e
 1704 0afb D90A0000 		.4byte	0xad9
 1705 0aff 03       		.uleb128 0x3
 1706 0b00 70020000 		.4byte	.LASF151
 1707 0b04 13       		.byte	0x13
 1708 0b05 DB       		.byte	0xdb
 1709 0b06 B8000000 		.4byte	0xb8
 1710 0b0a 03       		.uleb128 0x3
ARM GAS  /tmp/cc1Mbedh.s 			page 31


 1711 0b0b B6020000 		.4byte	.LASF152
 1712 0b0f 13       		.byte	0x13
 1713 0b10 E0       		.byte	0xe0
 1714 0b11 B8000000 		.4byte	0xb8
 1715 0b15 03       		.uleb128 0x3
 1716 0b16 27090000 		.4byte	.LASF153
 1717 0b1a 13       		.byte	0x13
 1718 0b1b E5       		.byte	0xe5
 1719 0b1c 200B0000 		.4byte	0xb20
 1720 0b20 0B       		.uleb128 0xb
 1721 0b21 27090000 		.4byte	.LASF153
 1722 0b25 50       		.byte	0x50
 1723 0b26 13       		.byte	0x13
 1724 0b27 1501     		.2byte	0x115
 1725 0b29 E40B0000 		.4byte	0xbe4
 1726 0b2d 08       		.uleb128 0x8
 1727 0b2e 766D7400 		.ascii	"vmt\000"
 1728 0b32 13       		.byte	0x13
 1729 0b33 1901     		.2byte	0x119
 1730 0b35 A10C0000 		.4byte	0xca1
 1731 0b39 00       		.byte	0
 1732 0b3a 09       		.uleb128 0x9
 1733 0b3b AC010000 		.4byte	.LASF35
 1734 0b3f 13       		.byte	0x13
 1735 0b40 1A01     		.2byte	0x11a
 1736 0b42 1A0A0000 		.4byte	0xa1a
 1737 0b46 04       		.byte	0x4
 1738 0b47 08       		.uleb128 0x8
 1739 0b48 63696400 		.ascii	"cid\000"
 1740 0b4c 13       		.byte	0x13
 1741 0b4d 1A01     		.2byte	0x11a
 1742 0b4f 86040000 		.4byte	0x486
 1743 0b53 08       		.byte	0x8
 1744 0b54 08       		.uleb128 0x8
 1745 0b55 63736400 		.ascii	"csd\000"
 1746 0b59 13       		.byte	0x13
 1747 0b5a 1A01     		.2byte	0x11a
 1748 0b5c 86040000 		.4byte	0x486
 1749 0b60 18       		.byte	0x18
 1750 0b61 09       		.uleb128 0x9
 1751 0b62 AC000000 		.4byte	.LASF154
 1752 0b66 13       		.byte	0x13
 1753 0b67 1A01     		.2byte	0x11a
 1754 0b69 B8000000 		.4byte	0xb8
 1755 0b6d 28       		.byte	0x28
 1756 0b6e 09       		.uleb128 0x9
 1757 0b6f BB070000 		.4byte	.LASF155
 1758 0b73 13       		.byte	0x13
 1759 0b74 1E01     		.2byte	0x11e
 1760 0b76 AC0C0000 		.4byte	0xcac
 1761 0b7a 2C       		.byte	0x2c
 1762 0b7b 09       		.uleb128 0x9
 1763 0b7c 05010000 		.4byte	.LASF156
 1764 0b80 13       		.byte	0x13
 1765 0b81 2201     		.2byte	0x122
 1766 0b83 FF0A0000 		.4byte	0xaff
 1767 0b87 30       		.byte	0x30
ARM GAS  /tmp/cc1Mbedh.s 			page 32


 1768 0b88 09       		.uleb128 0x9
 1769 0b89 AF020000 		.4byte	.LASF157
 1770 0b8d 13       		.byte	0x13
 1771 0b8e 2601     		.2byte	0x126
 1772 0b90 0A0B0000 		.4byte	0xb0a
 1773 0b94 34       		.byte	0x34
 1774 0b95 08       		.uleb128 0x8
 1775 0b96 72636100 		.ascii	"rca\000"
 1776 0b9a 13       		.byte	0x13
 1777 0b9b 2A01     		.2byte	0x12a
 1778 0b9d B8000000 		.4byte	0xb8
 1779 0ba1 38       		.byte	0x38
 1780 0ba2 09       		.uleb128 0x9
 1781 0ba3 3A050000 		.4byte	.LASF158
 1782 0ba7 13       		.byte	0x13
 1783 0ba8 2F01     		.2byte	0x12f
 1784 0baa 32020000 		.4byte	0x232
 1785 0bae 3C       		.byte	0x3c
 1786 0baf 09       		.uleb128 0x9
 1787 0bb0 A6080000 		.4byte	.LASF159
 1788 0bb4 13       		.byte	0x13
 1789 0bb5 3301     		.2byte	0x133
 1790 0bb7 B8000000 		.4byte	0xb8
 1791 0bbb 40       		.byte	0x40
 1792 0bbc 08       		.uleb128 0x8
 1793 0bbd 646D6100 		.ascii	"dma\000"
 1794 0bc1 13       		.byte	0x13
 1795 0bc2 3701     		.2byte	0x137
 1796 0bc4 CE0A0000 		.4byte	0xace
 1797 0bc8 44       		.byte	0x44
 1798 0bc9 09       		.uleb128 0x9
 1799 0bca B5000000 		.4byte	.LASF160
 1800 0bce 13       		.byte	0x13
 1801 0bcf 3C01     		.2byte	0x13c
 1802 0bd1 B70C0000 		.4byte	0xcb7
 1803 0bd5 48       		.byte	0x48
 1804 0bd6 09       		.uleb128 0x9
 1805 0bd7 C7020000 		.4byte	.LASF161
 1806 0bdb 13       		.byte	0x13
 1807 0bdc 3F01     		.2byte	0x13f
 1808 0bde C20C0000 		.4byte	0xcc2
 1809 0be2 4C       		.byte	0x4c
 1810 0be3 00       		.byte	0
 1811 0be4 15       		.uleb128 0x15
 1812 0be5 08       		.byte	0x8
 1813 0be6 13       		.byte	0x13
 1814 0be7 EB       		.byte	0xeb
 1815 0be8 120C0000 		.4byte	0xc12
 1816 0bec 06       		.uleb128 0x6
 1817 0bed A7060000 		.4byte	.LASF162
 1818 0bf1 13       		.byte	0x13
 1819 0bf2 F4       		.byte	0xf4
 1820 0bf3 5A090000 		.4byte	0x95a
 1821 0bf7 00       		.byte	0
 1822 0bf8 06       		.uleb128 0x6
 1823 0bf9 D3080000 		.4byte	.LASF163
 1824 0bfd 13       		.byte	0x13
ARM GAS  /tmp/cc1Mbedh.s 			page 33


 1825 0bfe F8       		.byte	0xf8
 1826 0bff F40A0000 		.4byte	0xaf4
 1827 0c03 04       		.byte	0x4
 1828 0c04 09       		.uleb128 0x9
 1829 0c05 38090000 		.4byte	.LASF164
 1830 0c09 13       		.byte	0x13
 1831 0c0a 0001     		.2byte	0x100
 1832 0c0c A2000000 		.4byte	0xa2
 1833 0c10 05       		.byte	0x5
 1834 0c11 00       		.byte	0
 1835 0c12 14       		.uleb128 0x14
 1836 0c13 88080000 		.4byte	.LASF165
 1837 0c17 13       		.byte	0x13
 1838 0c18 0101     		.2byte	0x101
 1839 0c1a E40B0000 		.4byte	0xbe4
 1840 0c1e 0B       		.uleb128 0xb
 1841 0c1f C3060000 		.4byte	.LASF166
 1842 0c23 24       		.byte	0x24
 1843 0c24 13       		.byte	0x13
 1844 0c25 0E01     		.2byte	0x10e
 1845 0c27 A10C0000 		.4byte	0xca1
 1846 0c2b 09       		.uleb128 0x9
 1847 0c2c ED080000 		.4byte	.LASF167
 1848 0c30 13       		.byte	0x13
 1849 0c31 0F01     		.2byte	0x10f
 1850 0c33 2C000000 		.4byte	0x2c
 1851 0c37 00       		.byte	0
 1852 0c38 09       		.uleb128 0x9
 1853 0c39 44080000 		.4byte	.LASF168
 1854 0c3d 13       		.byte	0x13
 1855 0c3e 0F01     		.2byte	0x10f
 1856 0c40 600A0000 		.4byte	0xa60
 1857 0c44 04       		.byte	0x4
 1858 0c45 09       		.uleb128 0x9
 1859 0c46 59000000 		.4byte	.LASF169
 1860 0c4a 13       		.byte	0x13
 1861 0c4b 0F01     		.2byte	0x10f
 1862 0c4d 600A0000 		.4byte	0xa60
 1863 0c51 08       		.byte	0x8
 1864 0c52 09       		.uleb128 0x9
 1865 0c53 45070000 		.4byte	.LASF170
 1866 0c57 13       		.byte	0x13
 1867 0c58 0F01     		.2byte	0x10f
 1868 0c5a 600A0000 		.4byte	0xa60
 1869 0c5e 0C       		.byte	0xc
 1870 0c5f 09       		.uleb128 0x9
 1871 0c60 88010000 		.4byte	.LASF171
 1872 0c64 13       		.byte	0x13
 1873 0c65 0F01     		.2byte	0x10f
 1874 0c67 600A0000 		.4byte	0xa60
 1875 0c6b 10       		.byte	0x10
 1876 0c6c 09       		.uleb128 0x9
 1877 0c6d 99070000 		.4byte	.LASF172
 1878 0c71 13       		.byte	0x13
 1879 0c72 0F01     		.2byte	0x10f
 1880 0c74 840A0000 		.4byte	0xa84
 1881 0c78 14       		.byte	0x14
ARM GAS  /tmp/cc1Mbedh.s 			page 34


 1882 0c79 09       		.uleb128 0x9
 1883 0c7a F8030000 		.4byte	.LASF173
 1884 0c7e 13       		.byte	0x13
 1885 0c7f 0F01     		.2byte	0x10f
 1886 0c81 A80A0000 		.4byte	0xaa8
 1887 0c85 18       		.byte	0x18
 1888 0c86 09       		.uleb128 0x9
 1889 0c87 D2030000 		.4byte	.LASF174
 1890 0c8b 13       		.byte	0x13
 1891 0c8c 0F01     		.2byte	0x10f
 1892 0c8e 600A0000 		.4byte	0xa60
 1893 0c92 1C       		.byte	0x1c
 1894 0c93 09       		.uleb128 0x9
 1895 0c94 F2010000 		.4byte	.LASF175
 1896 0c98 13       		.byte	0x13
 1897 0c99 0F01     		.2byte	0x10f
 1898 0c9b C80A0000 		.4byte	0xac8
 1899 0c9f 20       		.byte	0x20
 1900 0ca0 00       		.byte	0
 1901 0ca1 0A       		.uleb128 0xa
 1902 0ca2 04       		.byte	0x4
 1903 0ca3 A70C0000 		.4byte	0xca7
 1904 0ca7 10       		.uleb128 0x10
 1905 0ca8 1E0C0000 		.4byte	0xc1e
 1906 0cac 0A       		.uleb128 0xa
 1907 0cad 04       		.byte	0x4
 1908 0cae B20C0000 		.4byte	0xcb2
 1909 0cb2 10       		.uleb128 0x10
 1910 0cb3 120C0000 		.4byte	0xc12
 1911 0cb7 0A       		.uleb128 0xa
 1912 0cb8 04       		.byte	0x4
 1913 0cb9 17060000 		.4byte	0x617
 1914 0cbd 1C       		.uleb128 0x1c
 1915 0cbe 18090000 		.4byte	.LASF203
 1916 0cc2 0A       		.uleb128 0xa
 1917 0cc3 04       		.byte	0x4
 1918 0cc4 BD0C0000 		.4byte	0xcbd
 1919 0cc8 03       		.uleb128 0x3
 1920 0cc9 C2010000 		.4byte	.LASF176
 1921 0ccd 14       		.byte	0x14
 1922 0cce 13       		.byte	0x13
 1923 0ccf 37000000 		.4byte	0x37
 1924 0cd3 03       		.uleb128 0x3
 1925 0cd4 6B020000 		.4byte	.LASF177
 1926 0cd8 14       		.byte	0x14
 1927 0cd9 16       		.byte	0x16
 1928 0cda 50000000 		.4byte	0x50
 1929 0cde 03       		.uleb128 0x3
 1930 0cdf E6010000 		.4byte	.LASF178
 1931 0ce3 14       		.byte	0x14
 1932 0ce4 1F       		.byte	0x1f
 1933 0ce5 82000000 		.4byte	0x82
 1934 0ce9 03       		.uleb128 0x3
 1935 0cea 96060000 		.4byte	.LASF179
 1936 0cee 15       		.byte	0x15
 1937 0cef 10       		.byte	0x10
 1938 0cf0 D30C0000 		.4byte	0xcd3
ARM GAS  /tmp/cc1Mbedh.s 			page 35


 1939 0cf4 19       		.uleb128 0x19
 1940 0cf5 01       		.byte	0x1
 1941 0cf6 15       		.byte	0x15
 1942 0cf7 13       		.byte	0x13
 1943 0cf8 1B0D0000 		.4byte	0xd1b
 1944 0cfc 1A       		.uleb128 0x1a
 1945 0cfd 7B040000 		.4byte	.LASF180
 1946 0d01 00       		.sleb128 0
 1947 0d02 1A       		.uleb128 0x1a
 1948 0d03 B5080000 		.4byte	.LASF181
 1949 0d07 01       		.sleb128 1
 1950 0d08 1A       		.uleb128 0x1a
 1951 0d09 65040000 		.4byte	.LASF182
 1952 0d0d 02       		.sleb128 2
 1953 0d0e 1A       		.uleb128 0x1a
 1954 0d0f A1000000 		.4byte	.LASF183
 1955 0d13 03       		.sleb128 3
 1956 0d14 1A       		.uleb128 0x1a
 1957 0d15 D0010000 		.4byte	.LASF184
 1958 0d19 04       		.sleb128 4
 1959 0d1a 00       		.byte	0
 1960 0d1b 03       		.uleb128 0x3
 1961 0d1c 78070000 		.4byte	.LASF185
 1962 0d20 15       		.byte	0x15
 1963 0d21 19       		.byte	0x19
 1964 0d22 F40C0000 		.4byte	0xcf4
 1965 0d26 1D       		.uleb128 0x1d
 1966 0d27 66050000 		.4byte	.LASF186
 1967 0d2b 01       		.byte	0x1
 1968 0d2c 34       		.byte	0x34
 1969 0d2d E90C0000 		.4byte	0xce9
 1970 0d31 00000000 		.4byte	.LFB323
 1971 0d35 28000000 		.4byte	.LFE323-.LFB323
 1972 0d39 01       		.uleb128 0x1
 1973 0d3a 9C       		.byte	0x9c
 1974 0d3b 670D0000 		.4byte	0xd67
 1975 0d3f 1E       		.uleb128 0x1e
 1976 0d40 5D020000 		.4byte	.LASF188
 1977 0d44 01       		.byte	0x1
 1978 0d45 35       		.byte	0x35
 1979 0d46 D30C0000 		.4byte	0xcd3
 1980 0d4a 00000000 		.4byte	.LLST0
 1981 0d4e 1F       		.uleb128 0x1f
 1982 0d4f 56010000 		.4byte	.LASF189
 1983 0d53 01       		.byte	0x1
 1984 0d54 38       		.byte	0x38
 1985 0d55 E90C0000 		.4byte	0xce9
 1986 0d59 3A000000 		.4byte	.LLST1
 1987 0d5d 20       		.uleb128 0x20
 1988 0d5e 12000000 		.4byte	.LVL4
 1989 0d62 2F0F0000 		.4byte	0xf2f
 1990 0d66 00       		.byte	0
 1991 0d67 1D       		.uleb128 0x1d
 1992 0d68 D4020000 		.4byte	.LASF187
 1993 0d6c 01       		.byte	0x1
 1994 0d6d 57       		.byte	0x57
 1995 0d6e E90C0000 		.4byte	0xce9
ARM GAS  /tmp/cc1Mbedh.s 			page 36


 1996 0d72 00000000 		.4byte	.LFB324
 1997 0d76 28000000 		.4byte	.LFE324-.LFB324
 1998 0d7a 01       		.uleb128 0x1
 1999 0d7b 9C       		.byte	0x9c
 2000 0d7c A80D0000 		.4byte	0xda8
 2001 0d80 1E       		.uleb128 0x1e
 2002 0d81 5D020000 		.4byte	.LASF188
 2003 0d85 01       		.byte	0x1
 2004 0d86 58       		.byte	0x58
 2005 0d87 D30C0000 		.4byte	0xcd3
 2006 0d8b 59000000 		.4byte	.LLST2
 2007 0d8f 1F       		.uleb128 0x1f
 2008 0d90 56010000 		.4byte	.LASF189
 2009 0d94 01       		.byte	0x1
 2010 0d95 5B       		.byte	0x5b
 2011 0d96 E90C0000 		.4byte	0xce9
 2012 0d9a 93000000 		.4byte	.LLST3
 2013 0d9e 20       		.uleb128 0x20
 2014 0d9f 12000000 		.4byte	.LVL12
 2015 0da3 2F0F0000 		.4byte	0xf2f
 2016 0da7 00       		.byte	0
 2017 0da8 1D       		.uleb128 0x1d
 2018 0da9 FE030000 		.4byte	.LASF190
 2019 0dad 01       		.byte	0x1
 2020 0dae 7A       		.byte	0x7a
 2021 0daf 1B0D0000 		.4byte	0xd1b
 2022 0db3 00000000 		.4byte	.LFB325
 2023 0db7 3C000000 		.4byte	.LFE325-.LFB325
 2024 0dbb 01       		.uleb128 0x1
 2025 0dbc 9C       		.byte	0x9c
 2026 0dbd 2E0E0000 		.4byte	0xe2e
 2027 0dc1 1E       		.uleb128 0x1e
 2028 0dc2 5D020000 		.4byte	.LASF188
 2029 0dc6 01       		.byte	0x1
 2030 0dc7 7B       		.byte	0x7b
 2031 0dc8 D30C0000 		.4byte	0xcd3
 2032 0dcc B2000000 		.4byte	.LLST4
 2033 0dd0 1E       		.uleb128 0x1e
 2034 0dd1 83010000 		.4byte	.LASF191
 2035 0dd5 01       		.byte	0x1
 2036 0dd6 7C       		.byte	0x7c
 2037 0dd7 2E0E0000 		.4byte	0xe2e
 2038 0ddb 05010000 		.4byte	.LLST5
 2039 0ddf 1E       		.uleb128 0x1e
 2040 0de0 9C030000 		.4byte	.LASF192
 2041 0de4 01       		.byte	0x1
 2042 0de5 7D       		.byte	0x7d
 2043 0de6 DE0C0000 		.4byte	0xcde
 2044 0dea 2E010000 		.4byte	.LLST6
 2045 0dee 1E       		.uleb128 0x1e
 2046 0def 6F040000 		.4byte	.LASF193
 2047 0df3 01       		.byte	0x1
 2048 0df4 7E       		.byte	0x7e
 2049 0df5 C80C0000 		.4byte	0xcc8
 2050 0df9 57010000 		.4byte	.LLST7
 2051 0dfd 21       		.uleb128 0x21
 2052 0dfe 00000000 		.4byte	.Ldebug_ranges0+0
ARM GAS  /tmp/cc1Mbedh.s 			page 37


 2053 0e02 22       		.uleb128 0x22
 2054 0e03 696900   		.ascii	"ii\000"
 2055 0e06 01       		.byte	0x1
 2056 0e07 92       		.byte	0x92
 2057 0e08 A2000000 		.4byte	0xa2
 2058 0e0c 99010000 		.4byte	.LLST8
 2059 0e10 23       		.uleb128 0x23
 2060 0e11 1E000000 		.4byte	.LVL19
 2061 0e15 4B0F0000 		.4byte	0xf4b
 2062 0e19 24       		.uleb128 0x24
 2063 0e1a 01       		.uleb128 0x1
 2064 0e1b 53       		.byte	0x53
 2065 0e1c 02       		.uleb128 0x2
 2066 0e1d 75       		.byte	0x75
 2067 0e1e 00       		.sleb128 0
 2068 0e1f 24       		.uleb128 0x24
 2069 0e20 01       		.uleb128 0x1
 2070 0e21 52       		.byte	0x52
 2071 0e22 02       		.uleb128 0x2
 2072 0e23 76       		.byte	0x76
 2073 0e24 00       		.sleb128 0
 2074 0e25 24       		.uleb128 0x24
 2075 0e26 01       		.uleb128 0x1
 2076 0e27 51       		.byte	0x51
 2077 0e28 02       		.uleb128 0x2
 2078 0e29 77       		.byte	0x77
 2079 0e2a 00       		.sleb128 0
 2080 0e2b 00       		.byte	0
 2081 0e2c 00       		.byte	0
 2082 0e2d 00       		.byte	0
 2083 0e2e 0A       		.uleb128 0xa
 2084 0e2f 04       		.byte	0x4
 2085 0e30 D30C0000 		.4byte	0xcd3
 2086 0e34 1D       		.uleb128 0x1d
 2087 0e35 31080000 		.4byte	.LASF194
 2088 0e39 01       		.byte	0x1
 2089 0e3a 9F       		.byte	0x9f
 2090 0e3b 1B0D0000 		.4byte	0xd1b
 2091 0e3f 00000000 		.4byte	.LFB326
 2092 0e43 3C000000 		.4byte	.LFE326-.LFB326
 2093 0e47 01       		.uleb128 0x1
 2094 0e48 9C       		.byte	0x9c
 2095 0e49 BA0E0000 		.4byte	0xeba
 2096 0e4d 1E       		.uleb128 0x1e
 2097 0e4e 5D020000 		.4byte	.LASF188
 2098 0e52 01       		.byte	0x1
 2099 0e53 A0       		.byte	0xa0
 2100 0e54 D30C0000 		.4byte	0xcd3
 2101 0e58 BF010000 		.4byte	.LLST9
 2102 0e5c 1E       		.uleb128 0x1e
 2103 0e5d 83010000 		.4byte	.LASF191
 2104 0e61 01       		.byte	0x1
 2105 0e62 A1       		.byte	0xa1
 2106 0e63 BA0E0000 		.4byte	0xeba
 2107 0e67 12020000 		.4byte	.LLST10
 2108 0e6b 1E       		.uleb128 0x1e
 2109 0e6c 9C030000 		.4byte	.LASF192
ARM GAS  /tmp/cc1Mbedh.s 			page 38


 2110 0e70 01       		.byte	0x1
 2111 0e71 A2       		.byte	0xa2
 2112 0e72 DE0C0000 		.4byte	0xcde
 2113 0e76 3B020000 		.4byte	.LLST11
 2114 0e7a 1E       		.uleb128 0x1e
 2115 0e7b 6F040000 		.4byte	.LASF193
 2116 0e7f 01       		.byte	0x1
 2117 0e80 A3       		.byte	0xa3
 2118 0e81 C80C0000 		.4byte	0xcc8
 2119 0e85 64020000 		.4byte	.LLST12
 2120 0e89 21       		.uleb128 0x21
 2121 0e8a 18000000 		.4byte	.Ldebug_ranges0+0x18
 2122 0e8e 22       		.uleb128 0x22
 2123 0e8f 696900   		.ascii	"ii\000"
 2124 0e92 01       		.byte	0x1
 2125 0e93 B9       		.byte	0xb9
 2126 0e94 A2000000 		.4byte	0xa2
 2127 0e98 A6020000 		.4byte	.LLST13
 2128 0e9c 23       		.uleb128 0x23
 2129 0e9d 1E000000 		.4byte	.LVL30
 2130 0ea1 6F0F0000 		.4byte	0xf6f
 2131 0ea5 24       		.uleb128 0x24
 2132 0ea6 01       		.uleb128 0x1
 2133 0ea7 53       		.byte	0x53
 2134 0ea8 02       		.uleb128 0x2
 2135 0ea9 75       		.byte	0x75
 2136 0eaa 00       		.sleb128 0
 2137 0eab 24       		.uleb128 0x24
 2138 0eac 01       		.uleb128 0x1
 2139 0ead 52       		.byte	0x52
 2140 0eae 02       		.uleb128 0x2
 2141 0eaf 76       		.byte	0x76
 2142 0eb0 00       		.sleb128 0
 2143 0eb1 24       		.uleb128 0x24
 2144 0eb2 01       		.uleb128 0x1
 2145 0eb3 51       		.byte	0x51
 2146 0eb4 02       		.uleb128 0x2
 2147 0eb5 77       		.byte	0x77
 2148 0eb6 00       		.sleb128 0
 2149 0eb7 00       		.byte	0
 2150 0eb8 00       		.byte	0
 2151 0eb9 00       		.byte	0
 2152 0eba 0A       		.uleb128 0xa
 2153 0ebb 04       		.byte	0x4
 2154 0ebc C00E0000 		.4byte	0xec0
 2155 0ec0 10       		.uleb128 0x10
 2156 0ec1 D30C0000 		.4byte	0xcd3
 2157 0ec5 1D       		.uleb128 0x1d
 2158 0ec6 D7030000 		.4byte	.LASF195
 2159 0eca 01       		.byte	0x1
 2160 0ecb C6       		.byte	0xc6
 2161 0ecc 1B0D0000 		.4byte	0xd1b
 2162 0ed0 00000000 		.4byte	.LFB327
 2163 0ed4 24000000 		.4byte	.LFE327-.LFB327
 2164 0ed8 01       		.uleb128 0x1
 2165 0ed9 9C       		.byte	0x9c
 2166 0eda 080F0000 		.4byte	0xf08
ARM GAS  /tmp/cc1Mbedh.s 			page 39


 2167 0ede 1E       		.uleb128 0x1e
 2168 0edf 5D020000 		.4byte	.LASF188
 2169 0ee3 01       		.byte	0x1
 2170 0ee4 C7       		.byte	0xc7
 2171 0ee5 D30C0000 		.4byte	0xcd3
 2172 0ee9 CC020000 		.4byte	.LLST14
 2173 0eed 25       		.uleb128 0x25
 2174 0eee 636D6400 		.ascii	"cmd\000"
 2175 0ef2 01       		.byte	0x1
 2176 0ef3 C8       		.byte	0xc8
 2177 0ef4 D30C0000 		.4byte	0xcd3
 2178 0ef8 01       		.uleb128 0x1
 2179 0ef9 51       		.byte	0x51
 2180 0efa 26       		.uleb128 0x26
 2181 0efb 83010000 		.4byte	.LASF191
 2182 0eff 01       		.byte	0x1
 2183 0f00 C9       		.byte	0xc9
 2184 0f01 1A030000 		.4byte	0x31a
 2185 0f05 01       		.uleb128 0x1
 2186 0f06 52       		.byte	0x52
 2187 0f07 00       		.byte	0
 2188 0f08 27       		.uleb128 0x27
 2189 0f09 24010000 		.4byte	.LASF196
 2190 0f0d 16       		.byte	0x16
 2191 0f0e 0408     		.2byte	0x804
 2192 0f10 140F0000 		.4byte	0xf14
 2193 0f14 0F       		.uleb128 0xf
 2194 0f15 AD000000 		.4byte	0xad
 2195 0f19 28       		.uleb128 0x28
 2196 0f1a 636800   		.ascii	"ch\000"
 2197 0f1d 07       		.byte	0x7
 2198 0f1e C701     		.2byte	0x1c7
 2199 0f20 E9030000 		.4byte	0x3e9
 2200 0f24 29       		.uleb128 0x29
 2201 0f25 19050000 		.4byte	.LASF197
 2202 0f29 01       		.byte	0x1
 2203 0f2a 1B       		.byte	0x1b
 2204 0f2b 150B0000 		.4byte	0xb15
 2205 0f2f 2A       		.uleb128 0x2a
 2206 0f30 31030000 		.4byte	.LASF198
 2207 0f34 13       		.byte	0x13
 2208 0f35 6701     		.2byte	0x167
 2209 0f37 53090000 		.4byte	0x953
 2210 0f3b 450F0000 		.4byte	0xf45
 2211 0f3f 0D       		.uleb128 0xd
 2212 0f40 450F0000 		.4byte	0xf45
 2213 0f44 00       		.byte	0
 2214 0f45 0A       		.uleb128 0xa
 2215 0f46 04       		.byte	0x4
 2216 0f47 150B0000 		.4byte	0xb15
 2217 0f4b 2B       		.uleb128 0x2b
 2218 0f4c BE040000 		.4byte	.LASF199
 2219 0f50 12       		.byte	0x12
 2220 0f51 C0       		.byte	0xc0
 2221 0f52 53090000 		.4byte	0x953
 2222 0f56 6F0F0000 		.4byte	0xf6f
 2223 0f5a 0D       		.uleb128 0xd
ARM GAS  /tmp/cc1Mbedh.s 			page 40


 2224 0f5b 450F0000 		.4byte	0xf45
 2225 0f5f 0D       		.uleb128 0xd
 2226 0f60 B8000000 		.4byte	0xb8
 2227 0f64 0D       		.uleb128 0xd
 2228 0f65 5A090000 		.4byte	0x95a
 2229 0f69 0D       		.uleb128 0xd
 2230 0f6a B8000000 		.4byte	0xb8
 2231 0f6e 00       		.byte	0
 2232 0f6f 2C       		.uleb128 0x2c
 2233 0f70 82040000 		.4byte	.LASF204
 2234 0f74 12       		.byte	0x12
 2235 0f75 C2       		.byte	0xc2
 2236 0f76 53090000 		.4byte	0x953
 2237 0f7a 0D       		.uleb128 0xd
 2238 0f7b 450F0000 		.4byte	0xf45
 2239 0f7f 0D       		.uleb128 0xd
 2240 0f80 B8000000 		.4byte	0xb8
 2241 0f84 0D       		.uleb128 0xd
 2242 0f85 D0090000 		.4byte	0x9d0
 2243 0f89 0D       		.uleb128 0xd
 2244 0f8a B8000000 		.4byte	0xb8
 2245 0f8e 00       		.byte	0
 2246 0f8f 00       		.byte	0
 2247              		.section	.debug_abbrev,"",%progbits
 2248              	.Ldebug_abbrev0:
 2249 0000 01       		.uleb128 0x1
 2250 0001 11       		.uleb128 0x11
 2251 0002 01       		.byte	0x1
 2252 0003 25       		.uleb128 0x25
 2253 0004 0E       		.uleb128 0xe
 2254 0005 13       		.uleb128 0x13
 2255 0006 0B       		.uleb128 0xb
 2256 0007 03       		.uleb128 0x3
 2257 0008 0E       		.uleb128 0xe
 2258 0009 1B       		.uleb128 0x1b
 2259 000a 0E       		.uleb128 0xe
 2260 000b 55       		.uleb128 0x55
 2261 000c 17       		.uleb128 0x17
 2262 000d 11       		.uleb128 0x11
 2263 000e 01       		.uleb128 0x1
 2264 000f 10       		.uleb128 0x10
 2265 0010 17       		.uleb128 0x17
 2266 0011 00       		.byte	0
 2267 0012 00       		.byte	0
 2268 0013 02       		.uleb128 0x2
 2269 0014 24       		.uleb128 0x24
 2270 0015 00       		.byte	0
 2271 0016 0B       		.uleb128 0xb
 2272 0017 0B       		.uleb128 0xb
 2273 0018 3E       		.uleb128 0x3e
 2274 0019 0B       		.uleb128 0xb
 2275 001a 03       		.uleb128 0x3
 2276 001b 08       		.uleb128 0x8
 2277 001c 00       		.byte	0
 2278 001d 00       		.byte	0
 2279 001e 03       		.uleb128 0x3
 2280 001f 16       		.uleb128 0x16
ARM GAS  /tmp/cc1Mbedh.s 			page 41


 2281 0020 00       		.byte	0
 2282 0021 03       		.uleb128 0x3
 2283 0022 0E       		.uleb128 0xe
 2284 0023 3A       		.uleb128 0x3a
 2285 0024 0B       		.uleb128 0xb
 2286 0025 3B       		.uleb128 0x3b
 2287 0026 0B       		.uleb128 0xb
 2288 0027 49       		.uleb128 0x49
 2289 0028 13       		.uleb128 0x13
 2290 0029 00       		.byte	0
 2291 002a 00       		.byte	0
 2292 002b 04       		.uleb128 0x4
 2293 002c 24       		.uleb128 0x24
 2294 002d 00       		.byte	0
 2295 002e 0B       		.uleb128 0xb
 2296 002f 0B       		.uleb128 0xb
 2297 0030 3E       		.uleb128 0x3e
 2298 0031 0B       		.uleb128 0xb
 2299 0032 03       		.uleb128 0x3
 2300 0033 0E       		.uleb128 0xe
 2301 0034 00       		.byte	0
 2302 0035 00       		.byte	0
 2303 0036 05       		.uleb128 0x5
 2304 0037 13       		.uleb128 0x13
 2305 0038 01       		.byte	0x1
 2306 0039 03       		.uleb128 0x3
 2307 003a 0E       		.uleb128 0xe
 2308 003b 0B       		.uleb128 0xb
 2309 003c 0B       		.uleb128 0xb
 2310 003d 3A       		.uleb128 0x3a
 2311 003e 0B       		.uleb128 0xb
 2312 003f 3B       		.uleb128 0x3b
 2313 0040 0B       		.uleb128 0xb
 2314 0041 01       		.uleb128 0x1
 2315 0042 13       		.uleb128 0x13
 2316 0043 00       		.byte	0
 2317 0044 00       		.byte	0
 2318 0045 06       		.uleb128 0x6
 2319 0046 0D       		.uleb128 0xd
 2320 0047 00       		.byte	0
 2321 0048 03       		.uleb128 0x3
 2322 0049 0E       		.uleb128 0xe
 2323 004a 3A       		.uleb128 0x3a
 2324 004b 0B       		.uleb128 0xb
 2325 004c 3B       		.uleb128 0x3b
 2326 004d 0B       		.uleb128 0xb
 2327 004e 49       		.uleb128 0x49
 2328 004f 13       		.uleb128 0x13
 2329 0050 38       		.uleb128 0x38
 2330 0051 0B       		.uleb128 0xb
 2331 0052 00       		.byte	0
 2332 0053 00       		.byte	0
 2333 0054 07       		.uleb128 0x7
 2334 0055 0D       		.uleb128 0xd
 2335 0056 00       		.byte	0
 2336 0057 03       		.uleb128 0x3
 2337 0058 08       		.uleb128 0x8
ARM GAS  /tmp/cc1Mbedh.s 			page 42


 2338 0059 3A       		.uleb128 0x3a
 2339 005a 0B       		.uleb128 0xb
 2340 005b 3B       		.uleb128 0x3b
 2341 005c 0B       		.uleb128 0xb
 2342 005d 49       		.uleb128 0x49
 2343 005e 13       		.uleb128 0x13
 2344 005f 38       		.uleb128 0x38
 2345 0060 0B       		.uleb128 0xb
 2346 0061 00       		.byte	0
 2347 0062 00       		.byte	0
 2348 0063 08       		.uleb128 0x8
 2349 0064 0D       		.uleb128 0xd
 2350 0065 00       		.byte	0
 2351 0066 03       		.uleb128 0x3
 2352 0067 08       		.uleb128 0x8
 2353 0068 3A       		.uleb128 0x3a
 2354 0069 0B       		.uleb128 0xb
 2355 006a 3B       		.uleb128 0x3b
 2356 006b 05       		.uleb128 0x5
 2357 006c 49       		.uleb128 0x49
 2358 006d 13       		.uleb128 0x13
 2359 006e 38       		.uleb128 0x38
 2360 006f 0B       		.uleb128 0xb
 2361 0070 00       		.byte	0
 2362 0071 00       		.byte	0
 2363 0072 09       		.uleb128 0x9
 2364 0073 0D       		.uleb128 0xd
 2365 0074 00       		.byte	0
 2366 0075 03       		.uleb128 0x3
 2367 0076 0E       		.uleb128 0xe
 2368 0077 3A       		.uleb128 0x3a
 2369 0078 0B       		.uleb128 0xb
 2370 0079 3B       		.uleb128 0x3b
 2371 007a 05       		.uleb128 0x5
 2372 007b 49       		.uleb128 0x49
 2373 007c 13       		.uleb128 0x13
 2374 007d 38       		.uleb128 0x38
 2375 007e 0B       		.uleb128 0xb
 2376 007f 00       		.byte	0
 2377 0080 00       		.byte	0
 2378 0081 0A       		.uleb128 0xa
 2379 0082 0F       		.uleb128 0xf
 2380 0083 00       		.byte	0
 2381 0084 0B       		.uleb128 0xb
 2382 0085 0B       		.uleb128 0xb
 2383 0086 49       		.uleb128 0x49
 2384 0087 13       		.uleb128 0x13
 2385 0088 00       		.byte	0
 2386 0089 00       		.byte	0
 2387 008a 0B       		.uleb128 0xb
 2388 008b 13       		.uleb128 0x13
 2389 008c 01       		.byte	0x1
 2390 008d 03       		.uleb128 0x3
 2391 008e 0E       		.uleb128 0xe
 2392 008f 0B       		.uleb128 0xb
 2393 0090 0B       		.uleb128 0xb
 2394 0091 3A       		.uleb128 0x3a
ARM GAS  /tmp/cc1Mbedh.s 			page 43


 2395 0092 0B       		.uleb128 0xb
 2396 0093 3B       		.uleb128 0x3b
 2397 0094 05       		.uleb128 0x5
 2398 0095 01       		.uleb128 0x1
 2399 0096 13       		.uleb128 0x13
 2400 0097 00       		.byte	0
 2401 0098 00       		.byte	0
 2402 0099 0C       		.uleb128 0xc
 2403 009a 15       		.uleb128 0x15
 2404 009b 01       		.byte	0x1
 2405 009c 27       		.uleb128 0x27
 2406 009d 19       		.uleb128 0x19
 2407 009e 01       		.uleb128 0x1
 2408 009f 13       		.uleb128 0x13
 2409 00a0 00       		.byte	0
 2410 00a1 00       		.byte	0
 2411 00a2 0D       		.uleb128 0xd
 2412 00a3 05       		.uleb128 0x5
 2413 00a4 00       		.byte	0
 2414 00a5 49       		.uleb128 0x49
 2415 00a6 13       		.uleb128 0x13
 2416 00a7 00       		.byte	0
 2417 00a8 00       		.byte	0
 2418 00a9 0E       		.uleb128 0xe
 2419 00aa 0F       		.uleb128 0xf
 2420 00ab 00       		.byte	0
 2421 00ac 0B       		.uleb128 0xb
 2422 00ad 0B       		.uleb128 0xb
 2423 00ae 00       		.byte	0
 2424 00af 00       		.byte	0
 2425 00b0 0F       		.uleb128 0xf
 2426 00b1 35       		.uleb128 0x35
 2427 00b2 00       		.byte	0
 2428 00b3 49       		.uleb128 0x49
 2429 00b4 13       		.uleb128 0x13
 2430 00b5 00       		.byte	0
 2431 00b6 00       		.byte	0
 2432 00b7 10       		.uleb128 0x10
 2433 00b8 26       		.uleb128 0x26
 2434 00b9 00       		.byte	0
 2435 00ba 49       		.uleb128 0x49
 2436 00bb 13       		.uleb128 0x13
 2437 00bc 00       		.byte	0
 2438 00bd 00       		.byte	0
 2439 00be 11       		.uleb128 0x11
 2440 00bf 01       		.uleb128 0x1
 2441 00c0 01       		.byte	0x1
 2442 00c1 49       		.uleb128 0x49
 2443 00c2 13       		.uleb128 0x13
 2444 00c3 01       		.uleb128 0x1
 2445 00c4 13       		.uleb128 0x13
 2446 00c5 00       		.byte	0
 2447 00c6 00       		.byte	0
 2448 00c7 12       		.uleb128 0x12
 2449 00c8 21       		.uleb128 0x21
 2450 00c9 00       		.byte	0
 2451 00ca 49       		.uleb128 0x49
ARM GAS  /tmp/cc1Mbedh.s 			page 44


 2452 00cb 13       		.uleb128 0x13
 2453 00cc 2F       		.uleb128 0x2f
 2454 00cd 0B       		.uleb128 0xb
 2455 00ce 00       		.byte	0
 2456 00cf 00       		.byte	0
 2457 00d0 13       		.uleb128 0x13
 2458 00d1 13       		.uleb128 0x13
 2459 00d2 01       		.byte	0x1
 2460 00d3 0B       		.uleb128 0xb
 2461 00d4 0B       		.uleb128 0xb
 2462 00d5 3A       		.uleb128 0x3a
 2463 00d6 0B       		.uleb128 0xb
 2464 00d7 3B       		.uleb128 0x3b
 2465 00d8 05       		.uleb128 0x5
 2466 00d9 01       		.uleb128 0x1
 2467 00da 13       		.uleb128 0x13
 2468 00db 00       		.byte	0
 2469 00dc 00       		.byte	0
 2470 00dd 14       		.uleb128 0x14
 2471 00de 16       		.uleb128 0x16
 2472 00df 00       		.byte	0
 2473 00e0 03       		.uleb128 0x3
 2474 00e1 0E       		.uleb128 0xe
 2475 00e2 3A       		.uleb128 0x3a
 2476 00e3 0B       		.uleb128 0xb
 2477 00e4 3B       		.uleb128 0x3b
 2478 00e5 05       		.uleb128 0x5
 2479 00e6 49       		.uleb128 0x49
 2480 00e7 13       		.uleb128 0x13
 2481 00e8 00       		.byte	0
 2482 00e9 00       		.byte	0
 2483 00ea 15       		.uleb128 0x15
 2484 00eb 13       		.uleb128 0x13
 2485 00ec 01       		.byte	0x1
 2486 00ed 0B       		.uleb128 0xb
 2487 00ee 0B       		.uleb128 0xb
 2488 00ef 3A       		.uleb128 0x3a
 2489 00f0 0B       		.uleb128 0xb
 2490 00f1 3B       		.uleb128 0x3b
 2491 00f2 0B       		.uleb128 0xb
 2492 00f3 01       		.uleb128 0x1
 2493 00f4 13       		.uleb128 0x13
 2494 00f5 00       		.byte	0
 2495 00f6 00       		.byte	0
 2496 00f7 16       		.uleb128 0x16
 2497 00f8 17       		.uleb128 0x17
 2498 00f9 01       		.byte	0x1
 2499 00fa 0B       		.uleb128 0xb
 2500 00fb 0B       		.uleb128 0xb
 2501 00fc 3A       		.uleb128 0x3a
 2502 00fd 0B       		.uleb128 0xb
 2503 00fe 3B       		.uleb128 0x3b
 2504 00ff 0B       		.uleb128 0xb
 2505 0100 01       		.uleb128 0x1
 2506 0101 13       		.uleb128 0x13
 2507 0102 00       		.byte	0
 2508 0103 00       		.byte	0
ARM GAS  /tmp/cc1Mbedh.s 			page 45


 2509 0104 17       		.uleb128 0x17
 2510 0105 0D       		.uleb128 0xd
 2511 0106 00       		.byte	0
 2512 0107 03       		.uleb128 0x3
 2513 0108 0E       		.uleb128 0xe
 2514 0109 3A       		.uleb128 0x3a
 2515 010a 0B       		.uleb128 0xb
 2516 010b 3B       		.uleb128 0x3b
 2517 010c 0B       		.uleb128 0xb
 2518 010d 49       		.uleb128 0x49
 2519 010e 13       		.uleb128 0x13
 2520 010f 00       		.byte	0
 2521 0110 00       		.byte	0
 2522 0111 18       		.uleb128 0x18
 2523 0112 0D       		.uleb128 0xd
 2524 0113 00       		.byte	0
 2525 0114 03       		.uleb128 0x3
 2526 0115 0E       		.uleb128 0xe
 2527 0116 3A       		.uleb128 0x3a
 2528 0117 0B       		.uleb128 0xb
 2529 0118 3B       		.uleb128 0x3b
 2530 0119 05       		.uleb128 0x5
 2531 011a 49       		.uleb128 0x49
 2532 011b 13       		.uleb128 0x13
 2533 011c 00       		.byte	0
 2534 011d 00       		.byte	0
 2535 011e 19       		.uleb128 0x19
 2536 011f 04       		.uleb128 0x4
 2537 0120 01       		.byte	0x1
 2538 0121 0B       		.uleb128 0xb
 2539 0122 0B       		.uleb128 0xb
 2540 0123 3A       		.uleb128 0x3a
 2541 0124 0B       		.uleb128 0xb
 2542 0125 3B       		.uleb128 0x3b
 2543 0126 0B       		.uleb128 0xb
 2544 0127 01       		.uleb128 0x1
 2545 0128 13       		.uleb128 0x13
 2546 0129 00       		.byte	0
 2547 012a 00       		.byte	0
 2548 012b 1A       		.uleb128 0x1a
 2549 012c 28       		.uleb128 0x28
 2550 012d 00       		.byte	0
 2551 012e 03       		.uleb128 0x3
 2552 012f 0E       		.uleb128 0xe
 2553 0130 1C       		.uleb128 0x1c
 2554 0131 0D       		.uleb128 0xd
 2555 0132 00       		.byte	0
 2556 0133 00       		.byte	0
 2557 0134 1B       		.uleb128 0x1b
 2558 0135 15       		.uleb128 0x15
 2559 0136 01       		.byte	0x1
 2560 0137 27       		.uleb128 0x27
 2561 0138 19       		.uleb128 0x19
 2562 0139 49       		.uleb128 0x49
 2563 013a 13       		.uleb128 0x13
 2564 013b 01       		.uleb128 0x1
 2565 013c 13       		.uleb128 0x13
ARM GAS  /tmp/cc1Mbedh.s 			page 46


 2566 013d 00       		.byte	0
 2567 013e 00       		.byte	0
 2568 013f 1C       		.uleb128 0x1c
 2569 0140 13       		.uleb128 0x13
 2570 0141 00       		.byte	0
 2571 0142 03       		.uleb128 0x3
 2572 0143 0E       		.uleb128 0xe
 2573 0144 3C       		.uleb128 0x3c
 2574 0145 19       		.uleb128 0x19
 2575 0146 00       		.byte	0
 2576 0147 00       		.byte	0
 2577 0148 1D       		.uleb128 0x1d
 2578 0149 2E       		.uleb128 0x2e
 2579 014a 01       		.byte	0x1
 2580 014b 3F       		.uleb128 0x3f
 2581 014c 19       		.uleb128 0x19
 2582 014d 03       		.uleb128 0x3
 2583 014e 0E       		.uleb128 0xe
 2584 014f 3A       		.uleb128 0x3a
 2585 0150 0B       		.uleb128 0xb
 2586 0151 3B       		.uleb128 0x3b
 2587 0152 0B       		.uleb128 0xb
 2588 0153 27       		.uleb128 0x27
 2589 0154 19       		.uleb128 0x19
 2590 0155 49       		.uleb128 0x49
 2591 0156 13       		.uleb128 0x13
 2592 0157 11       		.uleb128 0x11
 2593 0158 01       		.uleb128 0x1
 2594 0159 12       		.uleb128 0x12
 2595 015a 06       		.uleb128 0x6
 2596 015b 40       		.uleb128 0x40
 2597 015c 18       		.uleb128 0x18
 2598 015d 9742     		.uleb128 0x2117
 2599 015f 19       		.uleb128 0x19
 2600 0160 01       		.uleb128 0x1
 2601 0161 13       		.uleb128 0x13
 2602 0162 00       		.byte	0
 2603 0163 00       		.byte	0
 2604 0164 1E       		.uleb128 0x1e
 2605 0165 05       		.uleb128 0x5
 2606 0166 00       		.byte	0
 2607 0167 03       		.uleb128 0x3
 2608 0168 0E       		.uleb128 0xe
 2609 0169 3A       		.uleb128 0x3a
 2610 016a 0B       		.uleb128 0xb
 2611 016b 3B       		.uleb128 0x3b
 2612 016c 0B       		.uleb128 0xb
 2613 016d 49       		.uleb128 0x49
 2614 016e 13       		.uleb128 0x13
 2615 016f 02       		.uleb128 0x2
 2616 0170 17       		.uleb128 0x17
 2617 0171 00       		.byte	0
 2618 0172 00       		.byte	0
 2619 0173 1F       		.uleb128 0x1f
 2620 0174 34       		.uleb128 0x34
 2621 0175 00       		.byte	0
 2622 0176 03       		.uleb128 0x3
ARM GAS  /tmp/cc1Mbedh.s 			page 47


 2623 0177 0E       		.uleb128 0xe
 2624 0178 3A       		.uleb128 0x3a
 2625 0179 0B       		.uleb128 0xb
 2626 017a 3B       		.uleb128 0x3b
 2627 017b 0B       		.uleb128 0xb
 2628 017c 49       		.uleb128 0x49
 2629 017d 13       		.uleb128 0x13
 2630 017e 02       		.uleb128 0x2
 2631 017f 17       		.uleb128 0x17
 2632 0180 00       		.byte	0
 2633 0181 00       		.byte	0
 2634 0182 20       		.uleb128 0x20
 2635 0183 898201   		.uleb128 0x4109
 2636 0186 00       		.byte	0
 2637 0187 11       		.uleb128 0x11
 2638 0188 01       		.uleb128 0x1
 2639 0189 31       		.uleb128 0x31
 2640 018a 13       		.uleb128 0x13
 2641 018b 00       		.byte	0
 2642 018c 00       		.byte	0
 2643 018d 21       		.uleb128 0x21
 2644 018e 0B       		.uleb128 0xb
 2645 018f 01       		.byte	0x1
 2646 0190 55       		.uleb128 0x55
 2647 0191 17       		.uleb128 0x17
 2648 0192 00       		.byte	0
 2649 0193 00       		.byte	0
 2650 0194 22       		.uleb128 0x22
 2651 0195 34       		.uleb128 0x34
 2652 0196 00       		.byte	0
 2653 0197 03       		.uleb128 0x3
 2654 0198 08       		.uleb128 0x8
 2655 0199 3A       		.uleb128 0x3a
 2656 019a 0B       		.uleb128 0xb
 2657 019b 3B       		.uleb128 0x3b
 2658 019c 0B       		.uleb128 0xb
 2659 019d 49       		.uleb128 0x49
 2660 019e 13       		.uleb128 0x13
 2661 019f 02       		.uleb128 0x2
 2662 01a0 17       		.uleb128 0x17
 2663 01a1 00       		.byte	0
 2664 01a2 00       		.byte	0
 2665 01a3 23       		.uleb128 0x23
 2666 01a4 898201   		.uleb128 0x4109
 2667 01a7 01       		.byte	0x1
 2668 01a8 11       		.uleb128 0x11
 2669 01a9 01       		.uleb128 0x1
 2670 01aa 31       		.uleb128 0x31
 2671 01ab 13       		.uleb128 0x13
 2672 01ac 00       		.byte	0
 2673 01ad 00       		.byte	0
 2674 01ae 24       		.uleb128 0x24
 2675 01af 8A8201   		.uleb128 0x410a
 2676 01b2 00       		.byte	0
 2677 01b3 02       		.uleb128 0x2
 2678 01b4 18       		.uleb128 0x18
 2679 01b5 9142     		.uleb128 0x2111
ARM GAS  /tmp/cc1Mbedh.s 			page 48


 2680 01b7 18       		.uleb128 0x18
 2681 01b8 00       		.byte	0
 2682 01b9 00       		.byte	0
 2683 01ba 25       		.uleb128 0x25
 2684 01bb 05       		.uleb128 0x5
 2685 01bc 00       		.byte	0
 2686 01bd 03       		.uleb128 0x3
 2687 01be 08       		.uleb128 0x8
 2688 01bf 3A       		.uleb128 0x3a
 2689 01c0 0B       		.uleb128 0xb
 2690 01c1 3B       		.uleb128 0x3b
 2691 01c2 0B       		.uleb128 0xb
 2692 01c3 49       		.uleb128 0x49
 2693 01c4 13       		.uleb128 0x13
 2694 01c5 02       		.uleb128 0x2
 2695 01c6 18       		.uleb128 0x18
 2696 01c7 00       		.byte	0
 2697 01c8 00       		.byte	0
 2698 01c9 26       		.uleb128 0x26
 2699 01ca 05       		.uleb128 0x5
 2700 01cb 00       		.byte	0
 2701 01cc 03       		.uleb128 0x3
 2702 01cd 0E       		.uleb128 0xe
 2703 01ce 3A       		.uleb128 0x3a
 2704 01cf 0B       		.uleb128 0xb
 2705 01d0 3B       		.uleb128 0x3b
 2706 01d1 0B       		.uleb128 0xb
 2707 01d2 49       		.uleb128 0x49
 2708 01d3 13       		.uleb128 0x13
 2709 01d4 02       		.uleb128 0x2
 2710 01d5 18       		.uleb128 0x18
 2711 01d6 00       		.byte	0
 2712 01d7 00       		.byte	0
 2713 01d8 27       		.uleb128 0x27
 2714 01d9 34       		.uleb128 0x34
 2715 01da 00       		.byte	0
 2716 01db 03       		.uleb128 0x3
 2717 01dc 0E       		.uleb128 0xe
 2718 01dd 3A       		.uleb128 0x3a
 2719 01de 0B       		.uleb128 0xb
 2720 01df 3B       		.uleb128 0x3b
 2721 01e0 05       		.uleb128 0x5
 2722 01e1 49       		.uleb128 0x49
 2723 01e2 13       		.uleb128 0x13
 2724 01e3 3F       		.uleb128 0x3f
 2725 01e4 19       		.uleb128 0x19
 2726 01e5 3C       		.uleb128 0x3c
 2727 01e6 19       		.uleb128 0x19
 2728 01e7 00       		.byte	0
 2729 01e8 00       		.byte	0
 2730 01e9 28       		.uleb128 0x28
 2731 01ea 34       		.uleb128 0x34
 2732 01eb 00       		.byte	0
 2733 01ec 03       		.uleb128 0x3
 2734 01ed 08       		.uleb128 0x8
 2735 01ee 3A       		.uleb128 0x3a
 2736 01ef 0B       		.uleb128 0xb
ARM GAS  /tmp/cc1Mbedh.s 			page 49


 2737 01f0 3B       		.uleb128 0x3b
 2738 01f1 05       		.uleb128 0x5
 2739 01f2 49       		.uleb128 0x49
 2740 01f3 13       		.uleb128 0x13
 2741 01f4 3F       		.uleb128 0x3f
 2742 01f5 19       		.uleb128 0x19
 2743 01f6 3C       		.uleb128 0x3c
 2744 01f7 19       		.uleb128 0x19
 2745 01f8 00       		.byte	0
 2746 01f9 00       		.byte	0
 2747 01fa 29       		.uleb128 0x29
 2748 01fb 34       		.uleb128 0x34
 2749 01fc 00       		.byte	0
 2750 01fd 03       		.uleb128 0x3
 2751 01fe 0E       		.uleb128 0xe
 2752 01ff 3A       		.uleb128 0x3a
 2753 0200 0B       		.uleb128 0xb
 2754 0201 3B       		.uleb128 0x3b
 2755 0202 0B       		.uleb128 0xb
 2756 0203 49       		.uleb128 0x49
 2757 0204 13       		.uleb128 0x13
 2758 0205 3F       		.uleb128 0x3f
 2759 0206 19       		.uleb128 0x19
 2760 0207 3C       		.uleb128 0x3c
 2761 0208 19       		.uleb128 0x19
 2762 0209 00       		.byte	0
 2763 020a 00       		.byte	0
 2764 020b 2A       		.uleb128 0x2a
 2765 020c 2E       		.uleb128 0x2e
 2766 020d 01       		.byte	0x1
 2767 020e 3F       		.uleb128 0x3f
 2768 020f 19       		.uleb128 0x19
 2769 0210 03       		.uleb128 0x3
 2770 0211 0E       		.uleb128 0xe
 2771 0212 3A       		.uleb128 0x3a
 2772 0213 0B       		.uleb128 0xb
 2773 0214 3B       		.uleb128 0x3b
 2774 0215 05       		.uleb128 0x5
 2775 0216 27       		.uleb128 0x27
 2776 0217 19       		.uleb128 0x19
 2777 0218 49       		.uleb128 0x49
 2778 0219 13       		.uleb128 0x13
 2779 021a 3C       		.uleb128 0x3c
 2780 021b 19       		.uleb128 0x19
 2781 021c 01       		.uleb128 0x1
 2782 021d 13       		.uleb128 0x13
 2783 021e 00       		.byte	0
 2784 021f 00       		.byte	0
 2785 0220 2B       		.uleb128 0x2b
 2786 0221 2E       		.uleb128 0x2e
 2787 0222 01       		.byte	0x1
 2788 0223 3F       		.uleb128 0x3f
 2789 0224 19       		.uleb128 0x19
 2790 0225 03       		.uleb128 0x3
 2791 0226 0E       		.uleb128 0xe
 2792 0227 3A       		.uleb128 0x3a
 2793 0228 0B       		.uleb128 0xb
ARM GAS  /tmp/cc1Mbedh.s 			page 50


 2794 0229 3B       		.uleb128 0x3b
 2795 022a 0B       		.uleb128 0xb
 2796 022b 27       		.uleb128 0x27
 2797 022c 19       		.uleb128 0x19
 2798 022d 49       		.uleb128 0x49
 2799 022e 13       		.uleb128 0x13
 2800 022f 3C       		.uleb128 0x3c
 2801 0230 19       		.uleb128 0x19
 2802 0231 01       		.uleb128 0x1
 2803 0232 13       		.uleb128 0x13
 2804 0233 00       		.byte	0
 2805 0234 00       		.byte	0
 2806 0235 2C       		.uleb128 0x2c
 2807 0236 2E       		.uleb128 0x2e
 2808 0237 01       		.byte	0x1
 2809 0238 3F       		.uleb128 0x3f
 2810 0239 19       		.uleb128 0x19
 2811 023a 03       		.uleb128 0x3
 2812 023b 0E       		.uleb128 0xe
 2813 023c 3A       		.uleb128 0x3a
 2814 023d 0B       		.uleb128 0xb
 2815 023e 3B       		.uleb128 0x3b
 2816 023f 0B       		.uleb128 0xb
 2817 0240 27       		.uleb128 0x27
 2818 0241 19       		.uleb128 0x19
 2819 0242 49       		.uleb128 0x49
 2820 0243 13       		.uleb128 0x13
 2821 0244 3C       		.uleb128 0x3c
 2822 0245 19       		.uleb128 0x19
 2823 0246 00       		.byte	0
 2824 0247 00       		.byte	0
 2825 0248 00       		.byte	0
 2826              		.section	.debug_loc,"",%progbits
 2827              	.Ldebug_loc0:
 2828              	.LLST0:
 2829 0000 00000000 		.4byte	.LVL0
 2830 0004 06000000 		.4byte	.LVL2
 2831 0008 0100     		.2byte	0x1
 2832 000a 50       		.byte	0x50
 2833 000b 06000000 		.4byte	.LVL2
 2834 000f 1C000000 		.4byte	.LVL6
 2835 0013 0400     		.2byte	0x4
 2836 0015 F3       		.byte	0xf3
 2837 0016 01       		.uleb128 0x1
 2838 0017 50       		.byte	0x50
 2839 0018 9F       		.byte	0x9f
 2840 0019 1C000000 		.4byte	.LVL6
 2841 001d 1E000000 		.4byte	.LVL7
 2842 0021 0100     		.2byte	0x1
 2843 0023 50       		.byte	0x50
 2844 0024 1E000000 		.4byte	.LVL7
 2845 0028 28000000 		.4byte	.LFE323
 2846 002c 0400     		.2byte	0x4
 2847 002e F3       		.byte	0xf3
 2848 002f 01       		.uleb128 0x1
 2849 0030 50       		.byte	0x50
 2850 0031 9F       		.byte	0x9f
ARM GAS  /tmp/cc1Mbedh.s 			page 51


 2851 0032 00000000 		.4byte	0
 2852 0036 00000000 		.4byte	0
 2853              	.LLST1:
 2854 003a 04000000 		.4byte	.LVL1
 2855 003e 0E000000 		.4byte	.LVL3
 2856 0042 0200     		.2byte	0x2
 2857 0044 30       		.byte	0x30
 2858 0045 9F       		.byte	0x9f
 2859 0046 0E000000 		.4byte	.LVL3
 2860 004a 18000000 		.4byte	.LVL5
 2861 004e 0100     		.2byte	0x1
 2862 0050 54       		.byte	0x54
 2863 0051 00000000 		.4byte	0
 2864 0055 00000000 		.4byte	0
 2865              	.LLST2:
 2866 0059 00000000 		.4byte	.LVL8
 2867 005d 06000000 		.4byte	.LVL10
 2868 0061 0100     		.2byte	0x1
 2869 0063 50       		.byte	0x50
 2870 0064 06000000 		.4byte	.LVL10
 2871 0068 1C000000 		.4byte	.LVL14
 2872 006c 0400     		.2byte	0x4
 2873 006e F3       		.byte	0xf3
 2874 006f 01       		.uleb128 0x1
 2875 0070 50       		.byte	0x50
 2876 0071 9F       		.byte	0x9f
 2877 0072 1C000000 		.4byte	.LVL14
 2878 0076 1E000000 		.4byte	.LVL15
 2879 007a 0100     		.2byte	0x1
 2880 007c 50       		.byte	0x50
 2881 007d 1E000000 		.4byte	.LVL15
 2882 0081 28000000 		.4byte	.LFE324
 2883 0085 0400     		.2byte	0x4
 2884 0087 F3       		.byte	0xf3
 2885 0088 01       		.uleb128 0x1
 2886 0089 50       		.byte	0x50
 2887 008a 9F       		.byte	0x9f
 2888 008b 00000000 		.4byte	0
 2889 008f 00000000 		.4byte	0
 2890              	.LLST3:
 2891 0093 04000000 		.4byte	.LVL9
 2892 0097 0E000000 		.4byte	.LVL11
 2893 009b 0200     		.2byte	0x2
 2894 009d 30       		.byte	0x30
 2895 009e 9F       		.byte	0x9f
 2896 009f 0E000000 		.4byte	.LVL11
 2897 00a3 18000000 		.4byte	.LVL13
 2898 00a7 0100     		.2byte	0x1
 2899 00a9 54       		.byte	0x54
 2900 00aa 00000000 		.4byte	0
 2901 00ae 00000000 		.4byte	0
 2902              	.LLST4:
 2903 00b2 00000000 		.4byte	.LVL16
 2904 00b6 12000000 		.4byte	.LVL18
 2905 00ba 0100     		.2byte	0x1
 2906 00bc 50       		.byte	0x50
 2907 00bd 12000000 		.4byte	.LVL18
ARM GAS  /tmp/cc1Mbedh.s 			page 52


 2908 00c1 2E000000 		.4byte	.LVL22
 2909 00c5 0400     		.2byte	0x4
 2910 00c7 F3       		.byte	0xf3
 2911 00c8 01       		.uleb128 0x1
 2912 00c9 50       		.byte	0x50
 2913 00ca 9F       		.byte	0x9f
 2914 00cb 2E000000 		.4byte	.LVL22
 2915 00cf 30000000 		.4byte	.LVL23
 2916 00d3 0100     		.2byte	0x1
 2917 00d5 50       		.byte	0x50
 2918 00d6 30000000 		.4byte	.LVL23
 2919 00da 32000000 		.4byte	.LVL24
 2920 00de 0400     		.2byte	0x4
 2921 00e0 F3       		.byte	0xf3
 2922 00e1 01       		.uleb128 0x1
 2923 00e2 50       		.byte	0x50
 2924 00e3 9F       		.byte	0x9f
 2925 00e4 32000000 		.4byte	.LVL24
 2926 00e8 34000000 		.4byte	.LVL25
 2927 00ec 0100     		.2byte	0x1
 2928 00ee 50       		.byte	0x50
 2929 00ef 34000000 		.4byte	.LVL25
 2930 00f3 3C000000 		.4byte	.LFE325
 2931 00f7 0400     		.2byte	0x4
 2932 00f9 F3       		.byte	0xf3
 2933 00fa 01       		.uleb128 0x1
 2934 00fb 50       		.byte	0x50
 2935 00fc 9F       		.byte	0x9f
 2936 00fd 00000000 		.4byte	0
 2937 0101 00000000 		.4byte	0
 2938              	.LLST5:
 2939 0105 00000000 		.4byte	.LVL16
 2940 0109 12000000 		.4byte	.LVL18
 2941 010d 0100     		.2byte	0x1
 2942 010f 51       		.byte	0x51
 2943 0110 12000000 		.4byte	.LVL18
 2944 0114 2E000000 		.4byte	.LVL22
 2945 0118 0100     		.2byte	0x1
 2946 011a 56       		.byte	0x56
 2947 011b 2E000000 		.4byte	.LVL22
 2948 011f 3C000000 		.4byte	.LFE325
 2949 0123 0100     		.2byte	0x1
 2950 0125 51       		.byte	0x51
 2951 0126 00000000 		.4byte	0
 2952 012a 00000000 		.4byte	0
 2953              	.LLST6:
 2954 012e 00000000 		.4byte	.LVL16
 2955 0132 12000000 		.4byte	.LVL18
 2956 0136 0100     		.2byte	0x1
 2957 0138 52       		.byte	0x52
 2958 0139 12000000 		.4byte	.LVL18
 2959 013d 2E000000 		.4byte	.LVL22
 2960 0141 0100     		.2byte	0x1
 2961 0143 57       		.byte	0x57
 2962 0144 2E000000 		.4byte	.LVL22
 2963 0148 3C000000 		.4byte	.LFE325
 2964 014c 0100     		.2byte	0x1
ARM GAS  /tmp/cc1Mbedh.s 			page 53


 2965 014e 52       		.byte	0x52
 2966 014f 00000000 		.4byte	0
 2967 0153 00000000 		.4byte	0
 2968              	.LLST7:
 2969 0157 00000000 		.4byte	.LVL16
 2970 015b 0C000000 		.4byte	.LVL17
 2971 015f 0100     		.2byte	0x1
 2972 0161 53       		.byte	0x53
 2973 0162 0C000000 		.4byte	.LVL17
 2974 0166 2E000000 		.4byte	.LVL22
 2975 016a 0100     		.2byte	0x1
 2976 016c 55       		.byte	0x55
 2977 016d 2E000000 		.4byte	.LVL22
 2978 0171 32000000 		.4byte	.LVL24
 2979 0175 0100     		.2byte	0x1
 2980 0177 53       		.byte	0x53
 2981 0178 32000000 		.4byte	.LVL24
 2982 017c 36000000 		.4byte	.LVL26
 2983 0180 0100     		.2byte	0x1
 2984 0182 55       		.byte	0x55
 2985 0183 36000000 		.4byte	.LVL26
 2986 0187 3C000000 		.4byte	.LFE325
 2987 018b 0400     		.2byte	0x4
 2988 018d F3       		.byte	0xf3
 2989 018e 01       		.uleb128 0x1
 2990 018f 53       		.byte	0x53
 2991 0190 9F       		.byte	0x9f
 2992 0191 00000000 		.4byte	0
 2993 0195 00000000 		.4byte	0
 2994              	.LLST8:
 2995 0199 12000000 		.4byte	.LVL18
 2996 019d 22000000 		.4byte	.LVL20
 2997 01a1 0500     		.2byte	0x5
 2998 01a3 35       		.byte	0x35
 2999 01a4 74       		.byte	0x74
 3000 01a5 00       		.sleb128 0
 3001 01a6 1C       		.byte	0x1c
 3002 01a7 9F       		.byte	0x9f
 3003 01a8 2C000000 		.4byte	.LVL21
 3004 01ac 2E000000 		.4byte	.LVL22
 3005 01b0 0500     		.2byte	0x5
 3006 01b2 35       		.byte	0x35
 3007 01b3 74       		.byte	0x74
 3008 01b4 00       		.sleb128 0
 3009 01b5 1C       		.byte	0x1c
 3010 01b6 9F       		.byte	0x9f
 3011 01b7 00000000 		.4byte	0
 3012 01bb 00000000 		.4byte	0
 3013              	.LLST9:
 3014 01bf 00000000 		.4byte	.LVL27
 3015 01c3 12000000 		.4byte	.LVL29
 3016 01c7 0100     		.2byte	0x1
 3017 01c9 50       		.byte	0x50
 3018 01ca 12000000 		.4byte	.LVL29
 3019 01ce 2E000000 		.4byte	.LVL33
 3020 01d2 0400     		.2byte	0x4
 3021 01d4 F3       		.byte	0xf3
ARM GAS  /tmp/cc1Mbedh.s 			page 54


 3022 01d5 01       		.uleb128 0x1
 3023 01d6 50       		.byte	0x50
 3024 01d7 9F       		.byte	0x9f
 3025 01d8 2E000000 		.4byte	.LVL33
 3026 01dc 30000000 		.4byte	.LVL34
 3027 01e0 0100     		.2byte	0x1
 3028 01e2 50       		.byte	0x50
 3029 01e3 30000000 		.4byte	.LVL34
 3030 01e7 32000000 		.4byte	.LVL35
 3031 01eb 0400     		.2byte	0x4
 3032 01ed F3       		.byte	0xf3
 3033 01ee 01       		.uleb128 0x1
 3034 01ef 50       		.byte	0x50
 3035 01f0 9F       		.byte	0x9f
 3036 01f1 32000000 		.4byte	.LVL35
 3037 01f5 34000000 		.4byte	.LVL36
 3038 01f9 0100     		.2byte	0x1
 3039 01fb 50       		.byte	0x50
 3040 01fc 34000000 		.4byte	.LVL36
 3041 0200 3C000000 		.4byte	.LFE326
 3042 0204 0400     		.2byte	0x4
 3043 0206 F3       		.byte	0xf3
 3044 0207 01       		.uleb128 0x1
 3045 0208 50       		.byte	0x50
 3046 0209 9F       		.byte	0x9f
 3047 020a 00000000 		.4byte	0
 3048 020e 00000000 		.4byte	0
 3049              	.LLST10:
 3050 0212 00000000 		.4byte	.LVL27
 3051 0216 12000000 		.4byte	.LVL29
 3052 021a 0100     		.2byte	0x1
 3053 021c 51       		.byte	0x51
 3054 021d 12000000 		.4byte	.LVL29
 3055 0221 2E000000 		.4byte	.LVL33
 3056 0225 0100     		.2byte	0x1
 3057 0227 56       		.byte	0x56
 3058 0228 2E000000 		.4byte	.LVL33
 3059 022c 3C000000 		.4byte	.LFE326
 3060 0230 0100     		.2byte	0x1
 3061 0232 51       		.byte	0x51
 3062 0233 00000000 		.4byte	0
 3063 0237 00000000 		.4byte	0
 3064              	.LLST11:
 3065 023b 00000000 		.4byte	.LVL27
 3066 023f 12000000 		.4byte	.LVL29
 3067 0243 0100     		.2byte	0x1
 3068 0245 52       		.byte	0x52
 3069 0246 12000000 		.4byte	.LVL29
 3070 024a 2E000000 		.4byte	.LVL33
 3071 024e 0100     		.2byte	0x1
 3072 0250 57       		.byte	0x57
 3073 0251 2E000000 		.4byte	.LVL33
 3074 0255 3C000000 		.4byte	.LFE326
 3075 0259 0100     		.2byte	0x1
 3076 025b 52       		.byte	0x52
 3077 025c 00000000 		.4byte	0
 3078 0260 00000000 		.4byte	0
ARM GAS  /tmp/cc1Mbedh.s 			page 55


 3079              	.LLST12:
 3080 0264 00000000 		.4byte	.LVL27
 3081 0268 0C000000 		.4byte	.LVL28
 3082 026c 0100     		.2byte	0x1
 3083 026e 53       		.byte	0x53
 3084 026f 0C000000 		.4byte	.LVL28
 3085 0273 2E000000 		.4byte	.LVL33
 3086 0277 0100     		.2byte	0x1
 3087 0279 55       		.byte	0x55
 3088 027a 2E000000 		.4byte	.LVL33
 3089 027e 32000000 		.4byte	.LVL35
 3090 0282 0100     		.2byte	0x1
 3091 0284 53       		.byte	0x53
 3092 0285 32000000 		.4byte	.LVL35
 3093 0289 36000000 		.4byte	.LVL37
 3094 028d 0100     		.2byte	0x1
 3095 028f 55       		.byte	0x55
 3096 0290 36000000 		.4byte	.LVL37
 3097 0294 3C000000 		.4byte	.LFE326
 3098 0298 0400     		.2byte	0x4
 3099 029a F3       		.byte	0xf3
 3100 029b 01       		.uleb128 0x1
 3101 029c 53       		.byte	0x53
 3102 029d 9F       		.byte	0x9f
 3103 029e 00000000 		.4byte	0
 3104 02a2 00000000 		.4byte	0
 3105              	.LLST13:
 3106 02a6 12000000 		.4byte	.LVL29
 3107 02aa 22000000 		.4byte	.LVL31
 3108 02ae 0500     		.2byte	0x5
 3109 02b0 35       		.byte	0x35
 3110 02b1 74       		.byte	0x74
 3111 02b2 00       		.sleb128 0
 3112 02b3 1C       		.byte	0x1c
 3113 02b4 9F       		.byte	0x9f
 3114 02b5 2C000000 		.4byte	.LVL32
 3115 02b9 2E000000 		.4byte	.LVL33
 3116 02bd 0500     		.2byte	0x5
 3117 02bf 35       		.byte	0x35
 3118 02c0 74       		.byte	0x74
 3119 02c1 00       		.sleb128 0
 3120 02c2 1C       		.byte	0x1c
 3121 02c3 9F       		.byte	0x9f
 3122 02c4 00000000 		.4byte	0
 3123 02c8 00000000 		.4byte	0
 3124              	.LLST14:
 3125 02cc 00000000 		.4byte	.LVL38
 3126 02d0 1C000000 		.4byte	.LVL39
 3127 02d4 0100     		.2byte	0x1
 3128 02d6 50       		.byte	0x50
 3129 02d7 1C000000 		.4byte	.LVL39
 3130 02db 24000000 		.4byte	.LFE327
 3131 02df 0400     		.2byte	0x4
 3132 02e1 F3       		.byte	0xf3
 3133 02e2 01       		.uleb128 0x1
 3134 02e3 50       		.byte	0x50
 3135 02e4 9F       		.byte	0x9f
ARM GAS  /tmp/cc1Mbedh.s 			page 56


 3136 02e5 00000000 		.4byte	0
 3137 02e9 00000000 		.4byte	0
 3138              		.section	.debug_aranges,"",%progbits
 3139 0000 3C000000 		.4byte	0x3c
 3140 0004 0200     		.2byte	0x2
 3141 0006 00000000 		.4byte	.Ldebug_info0
 3142 000a 04       		.byte	0x4
 3143 000b 00       		.byte	0
 3144 000c 0000     		.2byte	0
 3145 000e 0000     		.2byte	0
 3146 0010 00000000 		.4byte	.LFB323
 3147 0014 28000000 		.4byte	.LFE323-.LFB323
 3148 0018 00000000 		.4byte	.LFB324
 3149 001c 28000000 		.4byte	.LFE324-.LFB324
 3150 0020 00000000 		.4byte	.LFB325
 3151 0024 3C000000 		.4byte	.LFE325-.LFB325
 3152 0028 00000000 		.4byte	.LFB326
 3153 002c 3C000000 		.4byte	.LFE326-.LFB326
 3154 0030 00000000 		.4byte	.LFB327
 3155 0034 24000000 		.4byte	.LFE327-.LFB327
 3156 0038 00000000 		.4byte	0
 3157 003c 00000000 		.4byte	0
 3158              		.section	.debug_ranges,"",%progbits
 3159              	.Ldebug_ranges0:
 3160 0000 12000000 		.4byte	.LBB2
 3161 0004 2A000000 		.4byte	.LBE2
 3162 0008 2C000000 		.4byte	.LBB3
 3163 000c 2E000000 		.4byte	.LBE3
 3164 0010 00000000 		.4byte	0
 3165 0014 00000000 		.4byte	0
 3166 0018 12000000 		.4byte	.LBB4
 3167 001c 2A000000 		.4byte	.LBE4
 3168 0020 2C000000 		.4byte	.LBB5
 3169 0024 2E000000 		.4byte	.LBE5
 3170 0028 00000000 		.4byte	0
 3171 002c 00000000 		.4byte	0
 3172 0030 00000000 		.4byte	.LFB323
 3173 0034 28000000 		.4byte	.LFE323
 3174 0038 00000000 		.4byte	.LFB324
 3175 003c 28000000 		.4byte	.LFE324
 3176 0040 00000000 		.4byte	.LFB325
 3177 0044 3C000000 		.4byte	.LFE325
 3178 0048 00000000 		.4byte	.LFB326
 3179 004c 3C000000 		.4byte	.LFE326
 3180 0050 00000000 		.4byte	.LFB327
 3181 0054 24000000 		.4byte	.LFE327
 3182 0058 00000000 		.4byte	0
 3183 005c 00000000 		.4byte	0
 3184              		.section	.debug_line,"",%progbits
 3185              	.Ldebug_line0:
 3186 0000 81040000 		.section	.debug_str,"MS",%progbits,1
 3186      0200E003 
 3186      00000201 
 3186      FB0E0D00 
 3186      01010101 
 3187              	.LASF146:
 3188 0000 426C6F63 		.ascii	"BlockDeviceInfo\000"
ARM GAS  /tmp/cc1Mbedh.s 			page 57


 3188      6B446576 
 3188      69636549 
 3188      6E666F00 
 3189              	.LASF83:
 3190 0010 52455350 		.ascii	"RESP1\000"
 3190      3100
 3191              	.LASF84:
 3192 0016 52455350 		.ascii	"RESP2\000"
 3192      3200
 3193              	.LASF85:
 3194 001c 52455350 		.ascii	"RESP3\000"
 3194      3300
 3195              	.LASF53:
 3196 0022 72656164 		.ascii	"ready_list_t\000"
 3196      795F6C69 
 3196      73745F74 
 3196      00
 3197              	.LASF77:
 3198 002f 4D304152 		.ascii	"M0AR\000"
 3198      00
 3199              	.LASF2:
 3200 0034 73697A65 		.ascii	"size_t\000"
 3200      5F7400
 3201              	.LASF145:
 3202 003b 626C6B5F 		.ascii	"blk_num\000"
 3202      6E756D00 
 3203              	.LASF59:
 3204 0043 64656C74 		.ascii	"delta\000"
 3204      6100
 3205              	.LASF113:
 3206 0049 7264796D 		.ascii	"rdymsg\000"
 3206      736700
 3207              	.LASF17:
 3208 0050 75696E74 		.ascii	"uint64_t\000"
 3208      36345F74 
 3208      00
 3209              	.LASF169:
 3210 0059 69735F70 		.ascii	"is_protected\000"
 3210      726F7465 
 3210      63746564 
 3210      00
 3211              	.LASF3:
 3212 0066 5F5F7569 		.ascii	"__uint8_t\000"
 3212      6E74385F 
 3212      7400
 3213              	.LASF52:
 3214 0070 70726576 		.ascii	"prev\000"
 3214      00
 3215              	.LASF100:
 3216 0075 706F7274 		.ascii	"port_intctx\000"
 3216      5F696E74 
 3216      63747800 
 3217              	.LASF51:
 3218 0081 63685F74 		.ascii	"ch_threads_queue\000"
 3218      68726561 
 3218      64735F71 
 3218      75657565 
ARM GAS  /tmp/cc1Mbedh.s 			page 58


 3218      00
 3219              	.LASF64:
 3220 0092 73797374 		.ascii	"system_debug_t\000"
 3220      656D5F64 
 3220      65627567 
 3220      5F7400
 3221              	.LASF183:
 3222 00a1 5245535F 		.ascii	"RES_NOTRDY\000"
 3222      4E4F5452 
 3222      445900
 3223              	.LASF154:
 3224 00ac 63617061 		.ascii	"capacity\000"
 3224      63697479 
 3224      00
 3225              	.LASF160:
 3226 00b5 7364696F 		.ascii	"sdio\000"
 3226      00
 3227              	.LASF127:
 3228 00ba 73747265 		.ascii	"stream\000"
 3228      616D00
 3229              	.LASF104:
 3230 00c1 776F7273 		.ascii	"worst\000"
 3230      7400
 3231              	.LASF107:
 3232 00c7 74696D65 		.ascii	"time_measurement_t\000"
 3232      5F6D6561 
 3232      73757265 
 3232      6D656E74 
 3232      5F7400
 3233              	.LASF13:
 3234 00da 6C6F6E67 		.ascii	"long long unsigned int\000"
 3234      206C6F6E 
 3234      6720756E 
 3234      7369676E 
 3234      65642069 
 3235              	.LASF114:
 3236 00f1 65786974 		.ascii	"exitcode\000"
 3236      636F6465 
 3236      00
 3237              	.LASF71:
 3238 00fa 6D61696E 		.ascii	"mainthread\000"
 3238      74687265 
 3238      616400
 3239              	.LASF156:
 3240 0105 63617264 		.ascii	"cardmode\000"
 3240      6D6F6465 
 3240      00
 3241              	.LASF61:
 3242 010e 76697274 		.ascii	"virtual_timers_list_t\000"
 3242      75616C5F 
 3242      74696D65 
 3242      72735F6C 
 3242      6973745F 
 3243              	.LASF196:
 3244 0124 49544D5F 		.ascii	"ITM_RxBuffer\000"
 3244      52784275 
 3244      66666572 
ARM GAS  /tmp/cc1Mbedh.s 			page 59


 3244      00
 3245              	.LASF143:
 3246 0131 626C6B73 		.ascii	"blkstate_t\000"
 3246      74617465 
 3246      5F7400
 3247              	.LASF19:
 3248 013c 72747469 		.ascii	"rttime_t\000"
 3248      6D655F74 
 3248      00
 3249              	.LASF76:
 3250 0145 4E445452 		.ascii	"NDTR\000"
 3250      00
 3251              	.LASF141:
 3252 014a 424C4B5F 		.ascii	"BLK_WRITING\000"
 3252      57524954 
 3252      494E4700 
 3253              	.LASF189:
 3254 0156 73746174 		.ascii	"stat\000"
 3254      00
 3255              	.LASF11:
 3256 015b 6C6F6E67 		.ascii	"long long int\000"
 3256      206C6F6E 
 3256      6720696E 
 3256      7400
 3257              	.LASF1:
 3258 0169 7369676E 		.ascii	"signed char\000"
 3258      65642063 
 3258      68617200 
 3259              	.LASF147:
 3260 0175 5344435F 		.ascii	"SDC_MODE_1BIT\000"
 3260      4D4F4445 
 3260      5F314249 
 3260      5400
 3261              	.LASF191:
 3262 0183 62756666 		.ascii	"buff\000"
 3262      00
 3263              	.LASF171:
 3264 0188 64697363 		.ascii	"disconnect\000"
 3264      6F6E6E65 
 3264      637400
 3265              	.LASF70:
 3266 0193 76746C69 		.ascii	"vtlist\000"
 3266      737400
 3267              	.LASF135:
 3268 019a 424C4B5F 		.ascii	"BLK_STOP\000"
 3268      53544F50 
 3268      00
 3269              	.LASF39:
 3270 01a3 6D736771 		.ascii	"msgqueue\000"
 3270      75657565 
 3270      00
 3271              	.LASF35:
 3272 01ac 73746174 		.ascii	"state\000"
 3272      6500
 3273              	.LASF8:
 3274 01b2 6C6F6E67 		.ascii	"long int\000"
 3274      20696E74 
ARM GAS  /tmp/cc1Mbedh.s 			page 60


 3274      00
 3275              	.LASF90:
 3276 01bb 44434F55 		.ascii	"DCOUNT\000"
 3276      4E5400
 3277              	.LASF176:
 3278 01c2 55494E54 		.ascii	"UINT\000"
 3278      00
 3279              	.LASF21:
 3280 01c7 74737461 		.ascii	"tstate_t\000"
 3280      74655F74 
 3280      00
 3281              	.LASF184:
 3282 01d0 5245535F 		.ascii	"RES_PARERR\000"
 3282      50415245 
 3282      525200
 3283              	.LASF60:
 3284 01db 66756E63 		.ascii	"func\000"
 3284      00
 3285              	.LASF44:
 3286 01e0 73746174 		.ascii	"stats\000"
 3286      7300
 3287              	.LASF178:
 3288 01e6 44574F52 		.ascii	"DWORD\000"
 3288      4400
 3289              	.LASF86:
 3290 01ec 52455350 		.ascii	"RESP4\000"
 3290      3400
 3291              	.LASF175:
 3292 01f2 6765745F 		.ascii	"get_info\000"
 3292      696E666F 
 3292      00
 3293              	.LASF9:
 3294 01fb 5F5F7569 		.ascii	"__uint32_t\000"
 3294      6E743332 
 3294      5F7400
 3295              	.LASF97:
 3296 0206 72656761 		.ascii	"regarm_t\000"
 3296      726D5F74 
 3296      00
 3297              	.LASF131:
 3298 020f 73656C66 		.ascii	"selfindex\000"
 3298      696E6465 
 3298      7800
 3299              	.LASF202:
 3300 0219 2F686F6D 		.ascii	"/home/mike/Documents/haggis-aero-2019/pixhawk/build"
 3300      652F6D69 
 3300      6B652F44 
 3300      6F63756D 
 3300      656E7473 
 3301 024c 2F437562 		.ascii	"/CubeBlack\000"
 3301      65426C61 
 3301      636B00
 3302              	.LASF129:
 3303 0257 64756D6D 		.ascii	"dummy\000"
 3303      7900
 3304              	.LASF188:
 3305 025d 70647276 		.ascii	"pdrv\000"
ARM GAS  /tmp/cc1Mbedh.s 			page 61


 3305      00
 3306              	.LASF144:
 3307 0262 626C6B5F 		.ascii	"blk_size\000"
 3307      73697A65 
 3307      00
 3308              	.LASF177:
 3309 026b 42595445 		.ascii	"BYTE\000"
 3309      00
 3310              	.LASF151:
 3311 0270 7364636D 		.ascii	"sdcmode_t\000"
 3311      6F64655F 
 3311      7400
 3312              	.LASF125:
 3313 027a 6D757465 		.ascii	"mutex_t\000"
 3313      785F7400 
 3314              	.LASF91:
 3315 0282 4D41534B 		.ascii	"MASK\000"
 3315      00
 3316              	.LASF74:
 3317 0287 73797369 		.ascii	"sysinterval_t\000"
 3317      6E746572 
 3317      76616C5F 
 3317      7400
 3318              	.LASF26:
 3319 0295 636E745F 		.ascii	"cnt_t\000"
 3319      7400
 3320              	.LASF0:
 3321 029b 756E7369 		.ascii	"unsigned int\000"
 3321      676E6564 
 3321      20696E74 
 3321      00
 3322              	.LASF118:
 3323 02a8 77747365 		.ascii	"wtsemp\000"
 3323      6D7000
 3324              	.LASF157:
 3325 02af 6572726F 		.ascii	"errors\000"
 3325      727300
 3326              	.LASF152:
 3327 02b6 73646366 		.ascii	"sdcflags_t\000"
 3327      6C616773 
 3327      5F7400
 3328              	.LASF116:
 3329 02c1 77747472 		.ascii	"wttrp\000"
 3329      7000
 3330              	.LASF161:
 3331 02c7 626F756E 		.ascii	"bouncebuffer\000"
 3331      63656275 
 3331      66666572 
 3331      00
 3332              	.LASF187:
 3333 02d4 6469736B 		.ascii	"disk_status\000"
 3333      5F737461 
 3333      74757300 
 3334              	.LASF108:
 3335 02e0 6E5F6972 		.ascii	"n_irq\000"
 3335      7100
 3336              	.LASF29:
ARM GAS  /tmp/cc1Mbedh.s 			page 62


 3337 02e6 71756575 		.ascii	"queue\000"
 3337      6500
 3338              	.LASF149:
 3339 02ec 5344435F 		.ascii	"SDC_MODE_8BIT\000"
 3339      4D4F4445 
 3339      5F384249 
 3339      5400
 3340              	.LASF6:
 3341 02fa 73686F72 		.ascii	"short unsigned int\000"
 3341      7420756E 
 3341      7369676E 
 3341      65642069 
 3341      6E7400
 3342              	.LASF112:
 3343 030d 6B65726E 		.ascii	"kernel_stats_t\000"
 3343      656C5F73 
 3343      74617473 
 3343      5F7400
 3344              	.LASF136:
 3345 031c 424C4B5F 		.ascii	"BLK_ACTIVE\000"
 3345      41435449 
 3345      564500
 3346              	.LASF47:
 3347 0327 63685F74 		.ascii	"ch_thread\000"
 3347      68726561 
 3347      6400
 3348              	.LASF198:
 3349 0331 7364635F 		.ascii	"sdc_lld_is_write_protected\000"
 3349      6C6C645F 
 3349      69735F77 
 3349      72697465 
 3349      5F70726F 
 3350              	.LASF33:
 3351 034c 6E616D65 		.ascii	"name\000"
 3351      00
 3352              	.LASF24:
 3353 0351 6D73675F 		.ascii	"msg_t\000"
 3353      7400
 3354              	.LASF105:
 3355 0357 6C617374 		.ascii	"last\000"
 3355      00
 3356              	.LASF95:
 3357 035c 4649464F 		.ascii	"FIFO\000"
 3357      00
 3358              	.LASF27:
 3359 0361 75636E74 		.ascii	"ucnt_t\000"
 3359      5F7400
 3360              	.LASF40:
 3361 0368 6570656E 		.ascii	"epending\000"
 3361      64696E67 
 3361      00
 3362              	.LASF137:
 3363 0371 424C4B5F 		.ascii	"BLK_CONNECTING\000"
 3363      434F4E4E 
 3363      45435449 
 3363      4E4700
 3364              	.LASF67:
ARM GAS  /tmp/cc1Mbedh.s 			page 63


 3365 0380 63685F73 		.ascii	"ch_system_t\000"
 3365      79737465 
 3365      6D5F7400 
 3366              	.LASF20:
 3367 038c 746D6F64 		.ascii	"tmode_t\000"
 3367      655F7400 
 3368              	.LASF82:
 3369 0394 52455350 		.ascii	"RESPCMD\000"
 3369      434D4400 
 3370              	.LASF192:
 3371 039c 73656374 		.ascii	"sector\000"
 3371      6F7200
 3372              	.LASF111:
 3373 03a3 6D5F6372 		.ascii	"m_crit_isr\000"
 3373      69745F69 
 3373      737200
 3374              	.LASF54:
 3375 03ae 63685F72 		.ascii	"ch_ready_list\000"
 3375      65616479 
 3375      5F6C6973 
 3375      7400
 3376              	.LASF25:
 3377 03bc 6576656E 		.ascii	"eventmask_t\000"
 3377      746D6173 
 3377      6B5F7400 
 3378              	.LASF7:
 3379 03c8 5F5F696E 		.ascii	"__int32_t\000"
 3379      7433325F 
 3379      7400
 3380              	.LASF174:
 3381 03d2 73796E63 		.ascii	"sync\000"
 3381      00
 3382              	.LASF195:
 3383 03d7 6469736B 		.ascii	"disk_ioctl\000"
 3383      5F696F63 
 3383      746C00
 3384              	.LASF98:
 3385 03e2 73746B61 		.ascii	"stkalign_t\000"
 3385      6C69676E 
 3385      5F7400
 3386              	.LASF31:
 3387 03ed 6E657765 		.ascii	"newer\000"
 3387      7200
 3388              	.LASF88:
 3389 03f3 444C454E 		.ascii	"DLEN\000"
 3389      00
 3390              	.LASF173:
 3391 03f8 77726974 		.ascii	"write\000"
 3391      6500
 3392              	.LASF190:
 3393 03fe 6469736B 		.ascii	"disk_read\000"
 3393      5F726561 
 3393      6400
 3394              	.LASF42:
 3395 0408 7265616C 		.ascii	"realprio\000"
 3395      7072696F 
 3395      00
ARM GAS  /tmp/cc1Mbedh.s 			page 64


 3396              	.LASF150:
 3397 0411 73646362 		.ascii	"sdcbusmode_t\000"
 3397      75736D6F 
 3397      64655F74 
 3397      00
 3398              	.LASF140:
 3399 041e 424C4B5F 		.ascii	"BLK_READING\000"
 3399      52454144 
 3399      494E4700 
 3400              	.LASF75:
 3401 042a 73697A65 		.ascii	"sizetype\000"
 3401      74797065 
 3401      00
 3402              	.LASF45:
 3403 0433 74687265 		.ascii	"thread_reference_t\000"
 3403      61645F72 
 3403      65666572 
 3403      656E6365 
 3403      5F7400
 3404              	.LASF62:
 3405 0446 63685F76 		.ascii	"ch_virtual_timers_list\000"
 3405      69727475 
 3405      616C5F74 
 3405      696D6572 
 3405      735F6C69 
 3406              	.LASF93:
 3407 045d 4649464F 		.ascii	"FIFOCNT\000"
 3407      434E5400 
 3408              	.LASF182:
 3409 0465 5245535F 		.ascii	"RES_WRPRT\000"
 3409      57525052 
 3409      5400
 3410              	.LASF193:
 3411 046f 636F756E 		.ascii	"count\000"
 3411      7400
 3412              	.LASF80:
 3413 0475 504F5745 		.ascii	"POWER\000"
 3413      5200
 3414              	.LASF180:
 3415 047b 5245535F 		.ascii	"RES_OK\000"
 3415      4F4B00
 3416              	.LASF204:
 3417 0482 73646357 		.ascii	"sdcWrite\000"
 3417      72697465 
 3417      00
 3418              	.LASF139:
 3419 048b 424C4B5F 		.ascii	"BLK_READY\000"
 3419      52454144 
 3419      5900
 3420              	.LASF99:
 3421 0495 706F7274 		.ascii	"port_context\000"
 3421      5F636F6E 
 3421      74657874 
 3421      00
 3422              	.LASF89:
 3423 04a2 44435452 		.ascii	"DCTRL\000"
 3423      4C00
ARM GAS  /tmp/cc1Mbedh.s 			page 65


 3424              	.LASF102:
 3425 04a8 746D5F63 		.ascii	"tm_calibration_t\000"
 3425      616C6962 
 3425      72617469 
 3425      6F6E5F74 
 3425      00
 3426              	.LASF30:
 3427 04b9 7072696F 		.ascii	"prio\000"
 3427      00
 3428              	.LASF199:
 3429 04be 73646352 		.ascii	"sdcRead\000"
 3429      65616400 
 3430              	.LASF130:
 3431 04c6 73686966 		.ascii	"shift\000"
 3431      7400
 3432              	.LASF12:
 3433 04cc 5F5F7569 		.ascii	"__uint64_t\000"
 3433      6E743634 
 3433      5F7400
 3434              	.LASF106:
 3435 04d7 63756D75 		.ascii	"cumulative\000"
 3435      6C617469 
 3435      766500
 3436              	.LASF81:
 3437 04e2 434C4B43 		.ascii	"CLKCR\000"
 3437      5200
 3438              	.LASF22:
 3439 04e8 74726566 		.ascii	"trefs_t\000"
 3439      735F7400 
 3440              	.LASF92:
 3441 04f0 52455345 		.ascii	"RESERVED0\000"
 3441      52564544 
 3441      3000
 3442              	.LASF94:
 3443 04fa 52455345 		.ascii	"RESERVED1\000"
 3443      52564544 
 3443      3100
 3444              	.LASF37:
 3445 0504 72656673 		.ascii	"refs\000"
 3445      00
 3446              	.LASF57:
 3447 0509 76697274 		.ascii	"virtual_timer_t\000"
 3447      75616C5F 
 3447      74696D65 
 3447      725F7400 
 3448              	.LASF197:
 3449 0519 53444344 		.ascii	"SDCD1\000"
 3449      3100
 3450              	.LASF133:
 3451 051f 73746D33 		.ascii	"stm32_dma_stream_t\000"
 3451      325F646D 
 3451      615F7374 
 3451      7265616D 
 3451      5F7400
 3452              	.LASF23:
 3453 0532 74707269 		.ascii	"tprio_t\000"
 3453      6F5F7400 
ARM GAS  /tmp/cc1Mbedh.s 			page 66


 3454              	.LASF158:
 3455 053a 74687265 		.ascii	"thread\000"
 3455      616400
 3456              	.LASF109:
 3457 0541 6E5F6374 		.ascii	"n_ctxswc\000"
 3457      78737763 
 3457      00
 3458              	.LASF126:
 3459 054a 5F426F6F 		.ascii	"_Bool\000"
 3459      6C00
 3460              	.LASF15:
 3461 0550 696E7433 		.ascii	"int32_t\000"
 3461      325F7400 
 3462              	.LASF4:
 3463 0558 756E7369 		.ascii	"unsigned char\000"
 3463      676E6564 
 3463      20636861 
 3463      7200
 3464              	.LASF186:
 3465 0566 6469736B 		.ascii	"disk_initialize\000"
 3465      5F696E69 
 3465      7469616C 
 3465      697A6500 
 3466              	.LASF200:
 3467 0576 474E5520 		.ascii	"GNU C 4.9.3 20150529 (release) [ARM/embedded-4_9-br"
 3467      4320342E 
 3467      392E3320 
 3467      32303135 
 3467      30353239 
 3468 05a9 616E6368 		.ascii	"anch revision 227977] -mcpu=cortex-m4 -mfloat-abi=h"
 3468      20726576 
 3468      6973696F 
 3468      6E203232 
 3468      37393737 
 3469 05dc 61726420 		.ascii	"ard -mfpu=fpv4-sp-d16 -mno-thumb-interwork -mthumb "
 3469      2D6D6670 
 3469      753D6670 
 3469      76342D73 
 3469      702D6431 
 3470 060f 2D67202D 		.ascii	"-g -Os -fomit-frame-pointer -falign-functions=16 -f"
 3470      4F73202D 
 3470      666F6D69 
 3470      742D6672 
 3470      616D652D 
 3471 0642 66756E63 		.ascii	"function-sections -fdata-sections -fno-common -fsin"
 3471      74696F6E 
 3471      2D736563 
 3471      74696F6E 
 3471      73202D66 
 3472 0675 676C652D 		.ascii	"gle-precision-constant\000"
 3472      70726563 
 3472      6973696F 
 3472      6E2D636F 
 3472      6E737461 
 3473              	.LASF5:
 3474 068c 73686F72 		.ascii	"short int\000"
 3474      7420696E 
ARM GAS  /tmp/cc1Mbedh.s 			page 67


 3474      7400
 3475              	.LASF179:
 3476 0696 44535441 		.ascii	"DSTATUS\000"
 3476      54555300 
 3477              	.LASF63:
 3478 069e 6C617374 		.ascii	"lasttime\000"
 3478      74696D65 
 3478      00
 3479              	.LASF162:
 3480 06a7 73637261 		.ascii	"scratchpad\000"
 3480      74636870 
 3480      616400
 3481              	.LASF120:
 3482 06b2 65776D61 		.ascii	"ewmask\000"
 3482      736B00
 3483              	.LASF68:
 3484 06b9 63685F73 		.ascii	"ch_system\000"
 3484      79737465 
 3484      6D00
 3485              	.LASF166:
 3486 06c3 53444344 		.ascii	"SDCDriverVMT\000"
 3486      72697665 
 3486      72564D54 
 3486      00
 3487              	.LASF201:
 3488 06d0 2E2E2F2E 		.ascii	"../../modules/ChibiOS/os/various/fatfs_bindings/fat"
 3488      2E2F6D6F 
 3488      64756C65 
 3488      732F4368 
 3488      6962694F 
 3489 0703 66735F64 		.ascii	"fs_diskio.c\000"
 3489      69736B69 
 3489      6F2E6300 
 3490              	.LASF96:
 3491 070f 5344494F 		.ascii	"SDIO_TypeDef\000"
 3491      5F547970 
 3491      65446566 
 3491      00
 3492              	.LASF134:
 3493 071c 424C4B5F 		.ascii	"BLK_UNINIT\000"
 3493      554E494E 
 3493      495400
 3494              	.LASF58:
 3495 0727 63685F76 		.ascii	"ch_virtual_timer\000"
 3495      69727475 
 3495      616C5F74 
 3495      696D6572 
 3495      00
 3496              	.LASF121:
 3497 0738 63685F73 		.ascii	"ch_semaphore\000"
 3497      656D6170 
 3497      686F7265 
 3497      00
 3498              	.LASF170:
 3499 0745 636F6E6E 		.ascii	"connect\000"
 3499      65637400 
 3500              	.LASF128:
ARM GAS  /tmp/cc1Mbedh.s 			page 68


 3501 074d 69666372 		.ascii	"ifcr\000"
 3501      00
 3502              	.LASF16:
 3503 0752 75696E74 		.ascii	"uint32_t\000"
 3503      33325F74 
 3503      00
 3504              	.LASF119:
 3505 075b 77746D74 		.ascii	"wtmtxp\000"
 3505      787000
 3506              	.LASF48:
 3507 0762 63685F74 		.ascii	"ch_threads_list\000"
 3507      68726561 
 3507      64735F6C 
 3507      69737400 
 3508              	.LASF123:
 3509 0772 6F776E65 		.ascii	"owner\000"
 3509      7200
 3510              	.LASF185:
 3511 0778 44524553 		.ascii	"DRESULT\000"
 3511      554C5400 
 3512              	.LASF10:
 3513 0780 6C6F6E67 		.ascii	"long unsigned int\000"
 3513      20756E73 
 3513      69676E65 
 3513      6420696E 
 3513      7400
 3514              	.LASF34:
 3515 0792 77616261 		.ascii	"wabase\000"
 3515      736500
 3516              	.LASF172:
 3517 0799 72656164 		.ascii	"read\000"
 3517      00
 3518              	.LASF124:
 3519 079e 63686172 		.ascii	"char\000"
 3519      00
 3520              	.LASF32:
 3521 07a3 6F6C6465 		.ascii	"older\000"
 3521      7200
 3522              	.LASF138:
 3523 07a9 424C4B5F 		.ascii	"BLK_DISCONNECTING\000"
 3523      44495343 
 3523      4F4E4E45 
 3523      4354494E 
 3523      4700
 3524              	.LASF155:
 3525 07bb 636F6E66 		.ascii	"config\000"
 3525      696700
 3526              	.LASF28:
 3527 07c2 74687265 		.ascii	"thread_t\000"
 3527      61645F74 
 3527      00
 3528              	.LASF103:
 3529 07cb 62657374 		.ascii	"best\000"
 3529      00
 3530              	.LASF73:
 3531 07d0 73797374 		.ascii	"systime_t\000"
 3531      696D655F 
ARM GAS  /tmp/cc1Mbedh.s 			page 69


 3531      7400
 3532              	.LASF56:
 3533 07da 76746675 		.ascii	"vtfunc_t\000"
 3533      6E635F74 
 3533      00
 3534              	.LASF87:
 3535 07e3 4454494D 		.ascii	"DTIMER\000"
 3535      455200
 3536              	.LASF66:
 3537 07ea 70616E69 		.ascii	"panic_msg\000"
 3537      635F6D73 
 3537      6700
 3538              	.LASF38:
 3539 07f4 77616974 		.ascii	"waiting\000"
 3539      696E6700 
 3540              	.LASF101:
 3541 07fc 6F666673 		.ascii	"offset\000"
 3541      657400
 3542              	.LASF79:
 3543 0803 444D415F 		.ascii	"DMA_Stream_TypeDef\000"
 3543      53747265 
 3543      616D5F54 
 3543      79706544 
 3543      656600
 3544              	.LASF148:
 3545 0816 5344435F 		.ascii	"SDC_MODE_4BIT\000"
 3545      4D4F4445 
 3545      5F344249 
 3545      5400
 3546              	.LASF72:
 3547 0824 6B65726E 		.ascii	"kernel_stats\000"
 3547      656C5F73 
 3547      74617473 
 3547      00
 3548              	.LASF194:
 3549 0831 6469736B 		.ascii	"disk_write\000"
 3549      5F777269 
 3549      746500
 3550              	.LASF18:
 3551 083c 7274636E 		.ascii	"rtcnt_t\000"
 3551      745F7400 
 3552              	.LASF168:
 3553 0844 69735F69 		.ascii	"is_inserted\000"
 3553      6E736572 
 3553      74656400 
 3554              	.LASF78:
 3555 0850 4D314152 		.ascii	"M1AR\000"
 3555      00
 3556              	.LASF55:
 3557 0855 63757272 		.ascii	"current\000"
 3557      656E7400 
 3558              	.LASF43:
 3559 085d 6D706F6F 		.ascii	"mpool\000"
 3559      6C00
 3560              	.LASF50:
 3561 0863 74687265 		.ascii	"threads_queue_t\000"
 3561      6164735F 
ARM GAS  /tmp/cc1Mbedh.s 			page 70


 3561      71756575 
 3561      655F7400 
 3562              	.LASF122:
 3563 0873 63685F6D 		.ascii	"ch_mutex\000"
 3563      75746578 
 3563      00
 3564              	.LASF142:
 3565 087c 424C4B5F 		.ascii	"BLK_SYNCING\000"
 3565      53594E43 
 3565      494E4700 
 3566              	.LASF165:
 3567 0888 53444343 		.ascii	"SDCConfig\000"
 3567      6F6E6669 
 3567      6700
 3568              	.LASF69:
 3569 0892 726C6973 		.ascii	"rlist\000"
 3569      7400
 3570              	.LASF14:
 3571 0898 75696E74 		.ascii	"uint8_t\000"
 3571      385F7400 
 3572              	.LASF36:
 3573 08a0 666C6167 		.ascii	"flags\000"
 3573      7300
 3574              	.LASF159:
 3575 08a6 646D616D 		.ascii	"dmamode\000"
 3575      6F646500 
 3576              	.LASF115:
 3577 08ae 77746F62 		.ascii	"wtobjp\000"
 3577      6A7000
 3578              	.LASF181:
 3579 08b5 5245535F 		.ascii	"RES_ERROR\000"
 3579      4552524F 
 3579      5200
 3580              	.LASF49:
 3581 08bf 6E657874 		.ascii	"next\000"
 3581      00
 3582              	.LASF46:
 3583 08c4 74687265 		.ascii	"threads_list_t\000"
 3583      6164735F 
 3583      6C697374 
 3583      5F7400
 3584              	.LASF163:
 3585 08d3 6275735F 		.ascii	"bus_width\000"
 3585      77696474 
 3585      6800
 3586              	.LASF65:
 3587 08dd 63685F73 		.ascii	"ch_system_debug\000"
 3587      79737465 
 3587      6D5F6465 
 3587      62756700 
 3588              	.LASF167:
 3589 08ed 696E7374 		.ascii	"instance_offset\000"
 3589      616E6365 
 3589      5F6F6666 
 3589      73657400 
 3590              	.LASF41:
 3591 08fd 6D74786C 		.ascii	"mtxlist\000"
ARM GAS  /tmp/cc1Mbedh.s 			page 71


 3591      69737400 
 3592              	.LASF117:
 3593 0905 73656E74 		.ascii	"sentmsg\000"
 3593      6D736700 
 3594              	.LASF110:
 3595 090d 6D5F6372 		.ascii	"m_crit_thd\000"
 3595      69745F74 
 3595      686400
 3596              	.LASF203:
 3597 0918 626F756E 		.ascii	"bouncebuffer_t\000"
 3597      63656275 
 3597      66666572 
 3597      5F7400
 3598              	.LASF153:
 3599 0927 53444344 		.ascii	"SDCDriver\000"
 3599      72697665 
 3599      7200
 3600              	.LASF132:
 3601 0931 76656374 		.ascii	"vector\000"
 3601      6F7200
 3602              	.LASF164:
 3603 0938 736C6F77 		.ascii	"slowdown\000"
 3603      646F776E 
 3603      00
 3604              		.ident	"GCC: (GNU Tools for ARM Embedded Processors) 4.9.3 20150529 (release) [ARM/embedded-4_9-br
ARM GAS  /tmp/cc1Mbedh.s 			page 72


DEFINED SYMBOLS
                            *ABS*:00000000 fatfs_diskio.c
     /tmp/cc1Mbedh.s:21     .text.disk_initialize:00000000 $t
     /tmp/cc1Mbedh.s:26     .text.disk_initialize:00000000 disk_initialize
     /tmp/cc1Mbedh.s:71     .text.disk_initialize:00000024 $d
     /tmp/cc1Mbedh.s:76     .text.disk_status:00000000 $t
     /tmp/cc1Mbedh.s:81     .text.disk_status:00000000 disk_status
     /tmp/cc1Mbedh.s:125    .text.disk_status:00000024 $d
     /tmp/cc1Mbedh.s:130    .text.disk_read:00000000 $t
     /tmp/cc1Mbedh.s:135    .text.disk_read:00000000 disk_read
     /tmp/cc1Mbedh.s:204    .text.disk_read:00000038 $d
     /tmp/cc1Mbedh.s:209    .text.disk_write:00000000 $t
     /tmp/cc1Mbedh.s:214    .text.disk_write:00000000 disk_write
     /tmp/cc1Mbedh.s:283    .text.disk_write:00000038 $d
     /tmp/cc1Mbedh.s:288    .text.disk_ioctl:00000000 $t
     /tmp/cc1Mbedh.s:293    .text.disk_ioctl:00000000 disk_ioctl
     /tmp/cc1Mbedh.s:331    .text.disk_ioctl:00000020 $d
                     .debug_frame:00000010 $d

UNDEFINED SYMBOLS
sdc_lld_is_write_protected
SDCD1
sdcRead
sdcWrite
