ARM GAS  /tmp/cc6Bizie.s 			page 1


   1              		.cpu cortex-m4
   2              		.eabi_attribute 27, 1
   3              		.eabi_attribute 28, 1
   4              		.eabi_attribute 20, 1
   5              		.eabi_attribute 21, 1
   6              		.eabi_attribute 23, 3
   7              		.eabi_attribute 24, 1
   8              		.eabi_attribute 25, 1
   9              		.eabi_attribute 26, 1
  10              		.eabi_attribute 30, 4
  11              		.eabi_attribute 34, 1
  12              		.eabi_attribute 18, 4
  13              		.file	"ff.c"
  14              		.text
  15              	.Ltext0:
  16              		.cfi_sections	.debug_frame
  17              		.section	.text.ld_dword,"ax",%progbits
  18              		.align	1
  19              		.syntax unified
  20              		.thumb
  21              		.thumb_func
  22              		.fpu fpv4-sp-d16
  23              		.type	ld_dword, %function
  24              	ld_dword:
  25              	.LFB291:
  26              		.file 1 "../../modules/ChibiOS/ext/fatfs/src/ff.c"
  27              		.loc 1 559 0
  28              		.cfi_startproc
  29              		@ args = 0, pretend = 0, frame = 0
  30              		@ frame_needed = 0, uses_anonymous_args = 0
  31              		@ link register save eliminated.
  32              	.LVL0:
  33              		.loc 1 563 0
  34 0000 4288     		ldrh	r2, [r0, #2]	@ unaligned
  35              	.LVL1:
  36              		.loc 1 564 0
  37 0002 4378     		ldrb	r3, [r0, #1]	@ zero_extendqisi2
  38              		.loc 1 565 0
  39 0004 0078     		ldrb	r0, [r0]	@ zero_extendqisi2
  40              	.LVL2:
  41              		.loc 1 564 0
  42 0006 43EA0223 		orr	r3, r3, r2, lsl #8
  43              	.LVL3:
  44              		.loc 1 567 0
  45 000a 40EA0320 		orr	r0, r0, r3, lsl #8
  46 000e 7047     		bx	lr
  47              		.cfi_endproc
  48              	.LFE291:
  49              		.size	ld_dword, .-ld_dword
  50              		.section	.text.ld_qword,"ax",%progbits
  51              		.align	1
  52              		.syntax unified
  53              		.thumb
  54              		.thumb_func
  55              		.fpu fpv4-sp-d16
  56              		.type	ld_qword, %function
  57              	ld_qword:
ARM GAS  /tmp/cc6Bizie.s 			page 2


  58              	.LFB292:
  59              		.loc 1 572 0
  60              		.cfi_startproc
  61              		@ args = 0, pretend = 0, frame = 0
  62              		@ frame_needed = 0, uses_anonymous_args = 0
  63              	.LVL4:
  64 0000 30B5     		push	{r4, r5, lr}
  65              		.cfi_def_cfa_offset 12
  66              		.cfi_offset 4, -12
  67              		.cfi_offset 5, -8
  68              		.cfi_offset 14, -4
  69              		.loc 1 578 0
  70 0002 4168     		ldr	r1, [r0, #4]	@ unaligned
  71              		.loc 1 579 0
  72 0004 C478     		ldrb	r4, [r0, #3]	@ zero_extendqisi2
  73 0006 0B0E     		lsrs	r3, r1, #24
  74 0008 0025     		movs	r5, #0
  75 000a 0A02     		lsls	r2, r1, #8
  76              	.LVL5:
  77 000c 1D43     		orrs	r5, r5, r3
  78 000e 1443     		orrs	r4, r4, r2
  79              		.loc 1 580 0
  80 0010 2B02     		lsls	r3, r5, #8
  81 0012 43EA1463 		orr	r3, r3, r4, lsr #24
  82 0016 2202     		lsls	r2, r4, #8
  83              	.LVL6:
  84 0018 0025     		movs	r5, #0
  85 001a 8478     		ldrb	r4, [r0, #2]	@ zero_extendqisi2
  86 001c 1D43     		orrs	r5, r5, r3
  87 001e 1443     		orrs	r4, r4, r2
  88              		.loc 1 581 0
  89 0020 2B02     		lsls	r3, r5, #8
  90 0022 43EA1463 		orr	r3, r3, r4, lsr #24
  91 0026 2202     		lsls	r2, r4, #8
  92              	.LVL7:
  93 0028 0025     		movs	r5, #0
  94 002a 4478     		ldrb	r4, [r0, #1]	@ zero_extendqisi2
  95              		.loc 1 582 0
  96 002c 0078     		ldrb	r0, [r0]	@ zero_extendqisi2
  97              	.LVL8:
  98              		.loc 1 581 0
  99 002e 1D43     		orrs	r5, r5, r3
 100 0030 1443     		orrs	r4, r4, r2
 101              	.LVL9:
 102              		.loc 1 582 0
 103 0032 2B02     		lsls	r3, r5, #8
 104 0034 43EA1463 		orr	r3, r3, r4, lsr #24
 105 0038 2202     		lsls	r2, r4, #8
 106              	.LVL10:
 107 003a 0021     		movs	r1, #0
 108              		.loc 1 584 0
 109 003c 1043     		orrs	r0, r0, r2
 110 003e 1943     		orrs	r1, r1, r3
 111 0040 30BD     		pop	{r4, r5, pc}
 112              		.cfi_endproc
 113              	.LFE292:
 114              		.size	ld_qword, .-ld_qword
ARM GAS  /tmp/cc6Bizie.s 			page 3


 115              		.section	.text.st_dword,"ax",%progbits
 116              		.align	1
 117              		.syntax unified
 118              		.thumb
 119              		.thumb_func
 120              		.fpu fpv4-sp-d16
 121              		.type	st_dword, %function
 122              	st_dword:
 123              	.LFB294:
 124              		.loc 1 597 0
 125              		.cfi_startproc
 126              		@ args = 0, pretend = 0, frame = 0
 127              		@ frame_needed = 0, uses_anonymous_args = 0
 128              		@ link register save eliminated.
 129              	.LVL11:
 130              		.loc 1 598 0
 131 0000 0B0A     		lsrs	r3, r1, #8
 132 0002 0170     		strb	r1, [r0]
 133              	.LVL12:
 134              		.loc 1 599 0
 135 0004 4370     		strb	r3, [r0, #1]
 136              	.LVL13:
 137 0006 0B0C     		lsrs	r3, r1, #16
 138              	.LVL14:
 139              		.loc 1 600 0
 140 0008 090E     		lsrs	r1, r1, #24
 141 000a 8370     		strb	r3, [r0, #2]
 142              	.LVL15:
 143              		.loc 1 601 0
 144 000c C170     		strb	r1, [r0, #3]
 145 000e 7047     		bx	lr
 146              		.cfi_endproc
 147              	.LFE294:
 148              		.size	st_dword, .-st_dword
 149              		.section	.text.st_qword,"ax",%progbits
 150              		.align	1
 151              		.syntax unified
 152              		.thumb
 153              		.thumb_func
 154              		.fpu fpv4-sp-d16
 155              		.type	st_qword, %function
 156              	st_qword:
 157              	.LFB295:
 158              		.loc 1 607 0
 159              		.cfi_startproc
 160              		@ args = 0, pretend = 0, frame = 0
 161              		@ frame_needed = 0, uses_anonymous_args = 0
 162              		@ link register save eliminated.
 163              	.LVL16:
 164              		.loc 1 608 0
 165 0000 110A     		lsrs	r1, r2, #8
 166 0002 0270     		strb	r2, [r0]
 167              	.LVL17:
 168              		.loc 1 609 0
 169 0004 4170     		strb	r1, [r0, #1]
 170              	.LVL18:
 171 0006 110C     		lsrs	r1, r2, #16
ARM GAS  /tmp/cc6Bizie.s 			page 4


 172              		.loc 1 610 0
 173 0008 120E     		lsrs	r2, r2, #24
 174              	.LVL19:
 175              		.loc 1 611 0
 176 000a C270     		strb	r2, [r0, #3]
 177              		.loc 1 612 0
 178 000c 1A0A     		lsrs	r2, r3, #8
 179 000e 0371     		strb	r3, [r0, #4]
 180              		.loc 1 613 0
 181 0010 4271     		strb	r2, [r0, #5]
 182 0012 1A0C     		lsrs	r2, r3, #16
 183              		.loc 1 614 0
 184 0014 1B0E     		lsrs	r3, r3, #24
 185              		.loc 1 610 0
 186 0016 8170     		strb	r1, [r0, #2]
 187              	.LVL20:
 188              		.loc 1 614 0
 189 0018 8271     		strb	r2, [r0, #6]
 190              	.LVL21:
 191              		.loc 1 615 0
 192 001a C371     		strb	r3, [r0, #7]
 193 001c 7047     		bx	lr
 194              		.cfi_endproc
 195              	.LFE295:
 196              		.size	st_qword, .-st_qword
 197              		.section	.text.mem_set,"ax",%progbits
 198              		.align	1
 199              		.syntax unified
 200              		.thumb
 201              		.thumb_func
 202              		.fpu fpv4-sp-d16
 203              		.type	mem_set, %function
 204              	mem_set:
 205              	.LFB297:
 206              		.loc 1 644 0
 207              		.cfi_startproc
 208              		@ args = 0, pretend = 0, frame = 0
 209              		@ frame_needed = 0, uses_anonymous_args = 0
 210              		@ link register save eliminated.
 211              	.LVL22:
 212 0000 0244     		add	r2, r2, r0
 213              	.LVL23:
 214              	.L6:
 215              		.loc 1 648 0 discriminator 1
 216 0002 00F8011B 		strb	r1, [r0], #1
 217              	.LVL24:
 218              		.loc 1 649 0 discriminator 1
 219 0006 9042     		cmp	r0, r2
 220 0008 FBD1     		bne	.L6
 221              		.loc 1 650 0
 222 000a 7047     		bx	lr
 223              		.cfi_endproc
 224              	.LFE297:
 225              		.size	mem_set, .-mem_set
 226              		.section	.text.mem_cmp,"ax",%progbits
 227              		.align	1
 228              		.syntax unified
ARM GAS  /tmp/cc6Bizie.s 			page 5


 229              		.thumb
 230              		.thumb_func
 231              		.fpu fpv4-sp-d16
 232              		.type	mem_cmp, %function
 233              	mem_cmp:
 234              	.LFB298:
 235              		.loc 1 656 0
 236              		.cfi_startproc
 237              		@ args = 0, pretend = 0, frame = 0
 238              		@ frame_needed = 0, uses_anonymous_args = 0
 239              	.LVL25:
 240 0000 30B5     		push	{r4, r5, lr}
 241              		.cfi_def_cfa_offset 12
 242              		.cfi_offset 4, -12
 243              		.cfi_offset 5, -8
 244              		.cfi_offset 14, -4
 245              		.loc 1 657 0
 246 0002 0446     		mov	r4, r0
 247              	.LVL26:
 248              	.L10:
 249              		.loc 1 661 0 discriminator 2
 250 0004 14F8013B 		ldrb	r3, [r4], #1	@ zero_extendqisi2
 251              	.LVL27:
 252 0008 11F8015B 		ldrb	r5, [r1], #1	@ zero_extendqisi2
 253              	.LVL28:
 254 000c 5B1B     		subs	r3, r3, r5
 255              	.LVL29:
 256 000e 151B     		subs	r5, r2, r4
 257              		.loc 1 662 0 discriminator 2
 258 0010 E842     		cmn	r0, r5
 259 0012 01D0     		beq	.L8
 260              		.loc 1 662 0 is_stmt 0 discriminator 1
 261 0014 002B     		cmp	r3, #0
 262 0016 F5D0     		beq	.L10
 263              	.L8:
 264              		.loc 1 665 0 is_stmt 1
 265 0018 1846     		mov	r0, r3
 266              	.LVL30:
 267 001a 30BD     		pop	{r4, r5, pc}
 268              		.cfi_endproc
 269              	.LFE298:
 270              		.size	mem_cmp, .-mem_cmp
 271              		.section	.text.clst2sect,"ax",%progbits
 272              		.align	1
 273              		.syntax unified
 274              		.thumb
 275              		.thumb_func
 276              		.fpu fpv4-sp-d16
 277              		.type	clst2sect, %function
 278              	clst2sect:
 279              	.LFB307:
 280              		.loc 1 966 0
 281              		.cfi_startproc
 282              		@ args = 0, pretend = 0, frame = 0
 283              		@ frame_needed = 0, uses_anonymous_args = 0
 284              		@ link register save eliminated.
 285              	.LVL31:
ARM GAS  /tmp/cc6Bizie.s 			page 6


 286              		.loc 1 968 0
 287 0000 036B     		ldr	r3, [r0, #48]
 288              		.loc 1 967 0
 289 0002 0239     		subs	r1, r1, #2
 290              	.LVL32:
 291              		.loc 1 968 0
 292 0004 023B     		subs	r3, r3, #2
 293 0006 9942     		cmp	r1, r3
 294              		.loc 1 969 0
 295 0008 3DBF     		ittte	cc
 296 000a 4389     		ldrhcc	r3, [r0, #10]
 297 000c 406C     		ldrcc	r0, [r0, #68]
 298              	.LVL33:
 299 000e 01FB0300 		mlacc	r0, r1, r3, r0
 300              		.loc 1 968 0
 301 0012 0020     		movcs	r0, #0
 302              		.loc 1 970 0
 303 0014 7047     		bx	lr
 304              		.cfi_endproc
 305              	.LFE307:
 306              		.size	clst2sect, .-clst2sect
 307              		.section	.text.sum_sfn,"ax",%progbits
 308              		.align	1
 309              		.syntax unified
 310              		.thumb
 311              		.thumb_func
 312              		.fpu fpv4-sp-d16
 313              		.type	sum_sfn, %function
 314              	sum_sfn:
 315              	.LFB326:
 316              		.loc 1 1887 0
 317              		.cfi_startproc
 318              		@ args = 0, pretend = 0, frame = 0
 319              		@ frame_needed = 0, uses_anonymous_args = 0
 320              		@ link register save eliminated.
 321              	.LVL34:
 322              		.loc 1 1887 0
 323 0000 0246     		mov	r2, r0
 324 0002 00F10B01 		add	r1, r0, #11
 325              		.loc 1 1888 0
 326 0006 0020     		movs	r0, #0
 327              	.LVL35:
 328              	.L18:
 329              		.loc 1 1892 0 discriminator 1
 330 0008 C301     		lsls	r3, r0, #7
 331 000a 43EA5003 		orr	r3, r3, r0, lsr #1
 332 000e 12F8010B 		ldrb	r0, [r2], #1	@ zero_extendqisi2
 333              	.LVL36:
 334 0012 50FA83F3 		uxtab	r3, r0, r3
 335              		.loc 1 1893 0 discriminator 1
 336 0016 8A42     		cmp	r2, r1
 337              		.loc 1 1892 0 discriminator 1
 338 0018 D8B2     		uxtb	r0, r3
 339              	.LVL37:
 340              		.loc 1 1893 0 discriminator 1
 341 001a F5D1     		bne	.L18
 342              		.loc 1 1895 0
ARM GAS  /tmp/cc6Bizie.s 			page 7


 343 001c 7047     		bx	lr
 344              		.cfi_endproc
 345              	.LFE326:
 346              		.size	sum_sfn, .-sum_sfn
 347              		.section	.text.xdir_sum,"ax",%progbits
 348              		.align	1
 349              		.syntax unified
 350              		.thumb
 351              		.thumb_func
 352              		.fpu fpv4-sp-d16
 353              		.type	xdir_sum, %function
 354              	xdir_sum:
 355              	.LFB327:
 356              		.loc 1 1910 0
 357              		.cfi_startproc
 358              		@ args = 0, pretend = 0, frame = 0
 359              		@ frame_needed = 0, uses_anonymous_args = 0
 360              	.LVL38:
 361 0000 30B5     		push	{r4, r5, lr}
 362              		.cfi_def_cfa_offset 12
 363              		.cfi_offset 4, -12
 364              		.cfi_offset 5, -8
 365              		.cfi_offset 14, -4
 366              		.loc 1 1915 0
 367 0002 4178     		ldrb	r1, [r0, #1]	@ zero_extendqisi2
 368              		.loc 1 1916 0
 369 0004 0022     		movs	r2, #0
 370              		.loc 1 1915 0
 371 0006 0131     		adds	r1, r1, #1
 372 0008 4901     		lsls	r1, r1, #5
 373              	.LVL39:
 374              		.loc 1 1916 0
 375 000a 1346     		mov	r3, r2
 376              	.LVL40:
 377              	.L23:
 378              		.loc 1 1917 0
 379 000c 022B     		cmp	r3, #2
 380 000e 0FD0     		beq	.L24
 381              		.loc 1 1920 0
 382 0010 C55C     		ldrb	r5, [r0, r3]	@ zero_extendqisi2
 383 0012 12F0010F 		tst	r2, #1
 384 0016 14BF     		ite	ne
 385 0018 4FF40044 		movne	r4, #32768
 386 001c 0024     		moveq	r4, #0
 387 001e 05EB5202 		add	r2, r5, r2, lsr #1
 388              	.LVL41:
 389 0022 2244     		add	r2, r2, r4
 390 0024 92B2     		uxth	r2, r2
 391              	.LVL42:
 392              	.L21:
 393              		.loc 1 1916 0 discriminator 2
 394 0026 0133     		adds	r3, r3, #1
 395              	.LVL43:
 396 0028 9942     		cmp	r1, r3
 397 002a EFD8     		bhi	.L23
 398              		.loc 1 1924 0
 399 002c 1046     		mov	r0, r2
ARM GAS  /tmp/cc6Bizie.s 			page 8


 400              	.LVL44:
 401 002e 30BD     		pop	{r4, r5, pc}
 402              	.LVL45:
 403              	.L24:
 404              		.loc 1 1918 0
 405 0030 0323     		movs	r3, #3
 406              	.LVL46:
 407 0032 F8E7     		b	.L21
 408              		.cfi_endproc
 409              	.LFE327:
 410              		.size	xdir_sum, .-xdir_sum
 411              		.section	.text.get_ldnumber,"ax",%progbits
 412              		.align	1
 413              		.syntax unified
 414              		.thumb
 415              		.thumb_func
 416              		.fpu fpv4-sp-d16
 417              		.type	get_ldnumber, %function
 418              	get_ldnumber:
 419              	.LFB341:
 420              		.loc 1 2953 0
 421              		.cfi_startproc
 422              		@ args = 0, pretend = 0, frame = 0
 423              		@ frame_needed = 0, uses_anonymous_args = 0
 424              	.LVL47:
 425              		.loc 1 2965 0
 426 0000 0268     		ldr	r2, [r0]
 427              		.loc 1 2953 0
 428 0002 10B5     		push	{r4, lr}
 429              		.cfi_def_cfa_offset 8
 430              		.cfi_offset 4, -8
 431              		.cfi_offset 14, -4
 432              		.loc 1 2965 0
 433 0004 52B1     		cbz	r2, .L37
 434 0006 1146     		mov	r1, r2
 435              	.L29:
 436 0008 0B46     		mov	r3, r1
 437              	.LVL48:
 438              		.loc 1 2966 0 discriminator 1
 439 000a 11F8014B 		ldrb	r4, [r1], #1	@ zero_extendqisi2
 440              	.LVL49:
 441 000e 1F2C     		cmp	r4, #31
 442 0010 0CD9     		bls	.L33
 443              		.loc 1 2966 0 is_stmt 0 discriminator 3
 444 0012 3A2C     		cmp	r4, #58
 445 0014 F8D1     		bne	.L29
 446              	.LVL50:
 447              		.loc 1 2969 0 is_stmt 1
 448 0016 511C     		adds	r1, r2, #1
 449              	.LVL51:
 450              		.loc 1 2970 0
 451 0018 8B42     		cmp	r3, r1
 452 001a 02D0     		beq	.L31
 453              	.LVL52:
 454              	.L37:
 455              		.loc 1 2956 0
 456 001c 4FF0FF30 		mov	r0, #-1
ARM GAS  /tmp/cc6Bizie.s 			page 9


 457              	.LVL53:
 458              		.loc 1 3001 0
 459 0020 10BD     		pop	{r4, pc}
 460              	.LVL54:
 461              	.L31:
 462              		.loc 1 2971 0
 463 0022 1278     		ldrb	r2, [r2]	@ zero_extendqisi2
 464              	.LVL55:
 465 0024 302A     		cmp	r2, #48
 466 0026 F9D1     		bne	.L37
 467              	.LVL56:
 468              		.loc 1 2973 0
 469 0028 0133     		adds	r3, r3, #1
 470              	.LVL57:
 471 002a 0360     		str	r3, [r0]
 472              	.LVL58:
 473              	.L33:
 474              		.loc 1 2996 0
 475 002c 0020     		movs	r0, #0
 476              	.LVL59:
 477 002e 10BD     		pop	{r4, pc}
 478              		.cfi_endproc
 479              	.LFE341:
 480              		.size	get_ldnumber, .-get_ldnumber
 481              		.section	.text.get_fileinfo,"ax",%progbits
 482              		.align	1
 483              		.syntax unified
 484              		.thumb
 485              		.thumb_func
 486              		.fpu fpv4-sp-d16
 487              		.type	get_fileinfo, %function
 488              	get_fileinfo:
 489              	.LFB338:
 490              		.loc 1 2481 0
 491              		.cfi_startproc
 492              		@ args = 0, pretend = 0, frame = 0
 493              		@ frame_needed = 0, uses_anonymous_args = 0
 494              	.LVL60:
 495 0000 2DE9F041 		push	{r4, r5, r6, r7, r8, lr}
 496              		.cfi_def_cfa_offset 24
 497              		.cfi_offset 4, -24
 498              		.cfi_offset 5, -20
 499              		.cfi_offset 6, -16
 500              		.cfi_offset 7, -12
 501              		.cfi_offset 8, -8
 502              		.cfi_offset 14, -4
 503              		.loc 1 2491 0
 504 0004 0025     		movs	r5, #0
 505              		.loc 1 2487 0
 506 0006 D0F80080 		ldr	r8, [r0]
 507              	.LVL61:
 508              		.loc 1 2491 0
 509 000a 8D76     		strb	r5, [r1, #26]
 510              		.loc 1 2492 0
 511 000c 836B     		ldr	r3, [r0, #56]
 512              		.loc 1 2481 0
 513 000e 0746     		mov	r7, r0
ARM GAS  /tmp/cc6Bizie.s 			page 10


 514 0010 0C46     		mov	r4, r1
 515              		.loc 1 2492 0
 516 0012 002B     		cmp	r3, #0
 517 0014 00F0B080 		beq	.L38
 518              		.loc 1 2496 0
 519 0018 98F80030 		ldrb	r3, [r8]	@ zero_extendqisi2
 520 001c 042B     		cmp	r3, #4
 521 001e 4BD1     		bne	.L40
 522              		.loc 1 2497 0
 523 0020 D8F81070 		ldr	r7, [r8, #16]
 524              	.LVL62:
 525              	.LBB151:
 526              	.LBB152:
 527              		.loc 1 1974 0
 528 0024 2E46     		mov	r6, r5
 529 0026 4FF04008 		mov	r8, #64
 530              	.LVL63:
 531              	.L41:
 532 002a 97F82330 		ldrb	r3, [r7, #35]	@ zero_extendqisi2
 533 002e 9D42     		cmp	r5, r3
 534 0030 01D3     		bcc	.L47
 535              		.loc 1 1986 0
 536 0032 26BB     		cbnz	r6, .L45
 537 0034 20E0     		b	.L46
 538              	.L47:
 539              		.loc 1 1975 0
 540 0036 18F01F0F 		tst	r8, #31
 541 003a 08BF     		it	eq
 542 003c 08F10208 		addeq	r8, r8, #2
 543              	.LVL64:
 544              		.loc 1 1976 0
 545 0040 07EB0803 		add	r3, r7, r8
 546              		.loc 1 1978 0
 547 0044 40F25231 		movw	r1, #850
 548              	.LBB153:
 549              	.LBB154:
 550              		.loc 1 553 0
 551 0048 5878     		ldrb	r0, [r3, #1]	@ zero_extendqisi2
 552 004a 17F80830 		ldrb	r3, [r7, r8]	@ zero_extendqisi2
 553              	.LBE154:
 554              	.LBE153:
 555              		.loc 1 1978 0
 556 004e 43EA0020 		orr	r0, r3, r0, lsl #8
 557 0052 FFF7FEFF 		bl	ff_uni2oem
 558              	.LVL65:
 559              		.loc 1 1979 0
 560 0056 FF28     		cmp	r0, #255
 561 0058 0CD9     		bls	.L43
 562              	.LVL66:
 563              		.loc 1 1980 0
 564 005a A319     		adds	r3, r4, r6
 565 005c 020A     		lsrs	r2, r0, #8
 566 005e 9A76     		strb	r2, [r3, #26]
 567 0060 0136     		adds	r6, r6, #1
 568              	.LVL67:
 569              	.L44:
 570              		.loc 1 1983 0
ARM GAS  /tmp/cc6Bizie.s 			page 11


 571 0062 FE2E     		cmp	r6, #254
 572 0064 08D8     		bhi	.L46
 573              	.LVL68:
 574              		.loc 1 1984 0
 575 0066 A319     		adds	r3, r4, r6
 576              		.loc 1 1974 0
 577 0068 08F10208 		add	r8, r8, #2
 578              	.LVL69:
 579              		.loc 1 1984 0
 580 006c 9876     		strb	r0, [r3, #26]
 581              		.loc 1 1974 0
 582 006e 0135     		adds	r5, r5, #1
 583              	.LVL70:
 584              		.loc 1 1984 0
 585 0070 0136     		adds	r6, r6, #1
 586              	.LVL71:
 587 0072 DAE7     		b	.L41
 588              	.L43:
 589              		.loc 1 1983 0
 590 0074 0028     		cmp	r0, #0
 591 0076 F4D1     		bne	.L44
 592              	.LVL72:
 593              	.L46:
 594              		.loc 1 1986 0
 595 0078 3F23     		movs	r3, #63
 596 007a A376     		strb	r3, [r4, #26]
 597 007c 0126     		movs	r6, #1
 598              	.LVL73:
 599              	.L45:
 600              		.loc 1 1987 0
 601 007e 2644     		add	r6, r6, r4
 602              	.LVL74:
 603 0080 0023     		movs	r3, #0
 604 0082 B376     		strb	r3, [r6, #26]
 605              		.loc 1 1989 0
 606 0084 6373     		strb	r3, [r4, #13]
 607              		.loc 1 1990 0
 608 0086 3B79     		ldrb	r3, [r7, #4]	@ zero_extendqisi2
 609 0088 2373     		strb	r3, [r4, #12]
 610              		.loc 1 1991 0
 611 008a DB06     		lsls	r3, r3, #27
 612 008c 11D4     		bmi	.L65
 613 008e 07F13800 		add	r0, r7, #56
 614 0092 FFF7FEFF 		bl	ld_qword
 615              	.LVL75:
 616              	.L48:
 617 0096 C4E90001 		strd	r0, [r4]
 618              	.LBB155:
 619              	.LBB156:
 620              		.loc 1 553 0
 621 009a 7A7B     		ldrb	r2, [r7, #13]	@ zero_extendqisi2
 622 009c 3B7B     		ldrb	r3, [r7, #12]	@ zero_extendqisi2
 623 009e 43EA0223 		orr	r3, r3, r2, lsl #8
 624              	.LBE156:
 625              	.LBE155:
 626              		.loc 1 1992 0
 627 00a2 6381     		strh	r3, [r4, #10]	@ movhi
ARM GAS  /tmp/cc6Bizie.s 			page 12


 628              	.LBB157:
 629              	.LBB158:
 630              		.loc 1 553 0
 631 00a4 FA7B     		ldrb	r2, [r7, #15]	@ zero_extendqisi2
 632 00a6 BB7B     		ldrb	r3, [r7, #14]	@ zero_extendqisi2
 633 00a8 43EA0223 		orr	r3, r3, r2, lsl #8
 634              	.LBE158:
 635              	.LBE157:
 636              		.loc 1 1993 0
 637 00ac 2381     		strh	r3, [r4, #8]	@ movhi
 638 00ae BDE8F081 		pop	{r4, r5, r6, r7, r8, pc}
 639              	.LVL76:
 640              	.L65:
 641              		.loc 1 1991 0
 642 00b2 0020     		movs	r0, #0
 643 00b4 0021     		movs	r1, #0
 644 00b6 EEE7     		b	.L48
 645              	.LVL77:
 646              	.L40:
 647              	.LBE152:
 648              	.LBE151:
 649              		.loc 1 2502 0
 650 00b8 C36C     		ldr	r3, [r0, #76]
 651 00ba 0133     		adds	r3, r3, #1
 652 00bc 0ED0     		beq	.L49
 653 00be 2E46     		mov	r6, r5
 654              	.LVL78:
 655              	.L50:
 656              		.loc 1 2504 0
 657 00c0 D8F80C30 		ldr	r3, [r8, #12]
 658 00c4 585B     		ldrh	r0, [r3, r5]
 659              	.LVL79:
 660 00c6 30B1     		cbz	r0, .L52
 661              		.loc 1 2506 0
 662 00c8 40F25231 		movw	r1, #850
 663 00cc FFF7FEFF 		bl	ff_uni2oem
 664              	.LVL80:
 665              		.loc 1 2507 0
 666 00d0 0028     		cmp	r0, #0
 667 00d2 53D1     		bne	.L51
 668              	.L54:
 669 00d4 0026     		movs	r6, #0
 670              	.LVL81:
 671              	.L52:
 672              		.loc 1 2515 0
 673 00d6 2644     		add	r6, r6, r4
 674              	.LVL82:
 675 00d8 0023     		movs	r3, #0
 676 00da B376     		strb	r3, [r6, #26]
 677              	.LVL83:
 678              	.L49:
 679              		.loc 1 2522 0
 680 00dc F96B     		ldr	r1, [r7, #60]
 681              		.loc 1 2520 0
 682 00de A57E     		ldrb	r5, [r4, #26]	@ zero_extendqisi2
 683              	.LVL84:
 684              		.loc 1 2519 0
ARM GAS  /tmp/cc6Bizie.s 			page 13


 685 00e0 0023     		movs	r3, #0
 686 00e2 4E1E     		subs	r6, r1, #1
 687 00e4 1846     		mov	r0, r3
 688              		.loc 1 2527 0
 689 00e6 2E27     		movs	r7, #46
 690              	.LVL85:
 691              	.L63:
 692              		.loc 1 2522 0
 693 00e8 16F8012F 		ldrb	r2, [r6, #1]!	@ zero_extendqisi2
 694              		.loc 1 2523 0
 695 00ec 202A     		cmp	r2, #32
 696              		.loc 1 2522 0
 697 00ee 00F10100 		add	r0, r0, #1
 698              	.LVL86:
 699              		.loc 1 2523 0
 700 00f2 26D0     		beq	.L56
 701              		.loc 1 2524 0
 702 00f4 052A     		cmp	r2, #5
 703 00f6 08BF     		it	eq
 704 00f8 E522     		moveq	r2, #229
 705              	.LVL87:
 706              		.loc 1 2525 0
 707 00fa 0928     		cmp	r0, #9
 708 00fc 07D1     		bne	.L58
 709 00fe 04EB030E 		add	lr, r4, r3
 710              		.loc 1 2526 0
 711 0102 0DB9     		cbnz	r5, .L59
 712              		.loc 1 2526 0 is_stmt 0 discriminator 1
 713 0104 8EF81A70 		strb	r7, [lr, #26]
 714              	.L59:
 715              	.LVL88:
 716              		.loc 1 2527 0 is_stmt 1
 717 0108 8EF80D70 		strb	r7, [lr, #13]
 718 010c 0133     		adds	r3, r3, #1
 719              	.LVL89:
 720              	.L58:
 721              		.loc 1 2536 0
 722 010e 04EB030E 		add	lr, r4, r3
 723 0112 8EF80D20 		strb	r2, [lr, #13]
 724              		.loc 1 2537 0
 725 0116 9DB9     		cbnz	r5, .L60
 726              		.loc 1 2538 0
 727 0118 A2F1410C 		sub	ip, r2, #65
 728 011c BCF1190F 		cmp	ip, #25
 729 0120 0CD8     		bhi	.L61
 730              		.loc 1 2538 0 is_stmt 0 discriminator 1
 731 0122 0828     		cmp	r0, #8
 732 0124 91F80CC0 		ldrb	ip, [r1, #12]	@ zero_extendqisi2
 733 0128 8CBF     		ite	hi
 734 012a 4FF01008 		movhi	r8, #16
 735 012e 4FF00808 		movls	r8, #8
 736 0132 18EA0C0F 		tst	r8, ip
 737              		.loc 1 2539 0 is_stmt 1 discriminator 1
 738 0136 1CBF     		itt	ne
 739 0138 2032     		addne	r2, r2, #32
 740              	.LVL90:
 741 013a D2B2     		uxtbne	r2, r2
ARM GAS  /tmp/cc6Bizie.s 			page 14


 742              	.LVL91:
 743              	.L61:
 744              		.loc 1 2541 0
 745 013c 8EF81A20 		strb	r2, [lr, #26]
 746              	.L60:
 747              		.loc 1 2543 0
 748 0140 0133     		adds	r3, r3, #1
 749              	.LVL92:
 750              	.L56:
 751              		.loc 1 2521 0
 752 0142 0B28     		cmp	r0, #11
 753 0144 D0D1     		bne	.L63
 754              		.loc 1 2545 0
 755 0146 2DB9     		cbnz	r5, .L64
 756              		.loc 1 2546 0
 757 0148 E218     		adds	r2, r4, r3
 758              	.LVL93:
 759 014a 9576     		strb	r5, [r2, #26]
 760              		.loc 1 2547 0
 761 014c 0A7B     		ldrb	r2, [r1, #12]	@ zero_extendqisi2
 762 014e 002A     		cmp	r2, #0
 763 0150 08BF     		it	eq
 764 0152 0023     		moveq	r3, #0
 765              	.LVL94:
 766              	.L64:
 767              		.loc 1 2549 0
 768 0154 2344     		add	r3, r3, r4
 769              	.LVL95:
 770 0156 0025     		movs	r5, #0
 771              	.LVL96:
 772 0158 5D73     		strb	r5, [r3, #13]
 773              		.loc 1 2563 0
 774 015a CB7A     		ldrb	r3, [r1, #11]	@ zero_extendqisi2
 775 015c 2373     		strb	r3, [r4, #12]
 776              		.loc 1 2564 0
 777 015e 01F11C00 		add	r0, r1, #28
 778              	.LVL97:
 779 0162 FFF7FEFF 		bl	ld_dword
 780              	.LVL98:
 781 0166 84E82100 		stm	r4, {r0, r5}
 782              		.loc 1 2565 0
 783 016a 01F11600 		add	r0, r1, #22
 784 016e FFF7FEFF 		bl	ld_dword
 785              	.LVL99:
 786              		.loc 1 2566 0
 787 0172 6081     		strh	r0, [r4, #10]	@ movhi
 788 0174 000C     		lsrs	r0, r0, #16
 789              	.LVL100:
 790 0176 2081     		strh	r0, [r4, #8]	@ movhi
 791              	.L38:
 792 0178 BDE8F081 		pop	{r4, r5, r6, r7, r8, pc}
 793              	.LVL101:
 794              	.L51:
 795              		.loc 1 2508 0
 796 017c FF28     		cmp	r0, #255
 797              		.loc 1 2509 0
 798 017e 81BF     		itttt	hi
ARM GAS  /tmp/cc6Bizie.s 			page 15


 799 0180 A319     		addhi	r3, r4, r6
 800 0182 020A     		lsrhi	r2, r0, #8
 801 0184 0136     		addhi	r6, r6, #1
 802              	.LVL102:
 803 0186 9A76     		strbhi	r2, [r3, #26]
 804              		.loc 1 2512 0
 805 0188 FE2E     		cmp	r6, #254
 806 018a 05F10205 		add	r5, r5, #2
 807 018e A1D8     		bhi	.L54
 808              	.LVL103:
 809              		.loc 1 2513 0
 810 0190 A319     		adds	r3, r4, r6
 811 0192 0136     		adds	r6, r6, #1
 812              	.LVL104:
 813 0194 9876     		strb	r0, [r3, #26]
 814 0196 93E7     		b	.L50
 815              		.cfi_endproc
 816              	.LFE338:
 817              		.size	get_fileinfo, .-get_fileinfo
 818              		.section	.text.xname_sum,"ax",%progbits
 819              		.align	1
 820              		.syntax unified
 821              		.thumb
 822              		.thumb_func
 823              		.fpu fpv4-sp-d16
 824              		.type	xname_sum, %function
 825              	xname_sum:
 826              	.LFB328:
 827              		.loc 1 1932 0
 828              		.cfi_startproc
 829              		@ args = 0, pretend = 0, frame = 0
 830              		@ frame_needed = 0, uses_anonymous_args = 0
 831              	.LVL105:
 832 0000 38B5     		push	{r3, r4, r5, lr}
 833              		.cfi_def_cfa_offset 16
 834              		.cfi_offset 3, -16
 835              		.cfi_offset 4, -12
 836              		.cfi_offset 5, -8
 837              		.cfi_offset 14, -4
 838              		.loc 1 1932 0
 839 0002 0546     		mov	r5, r0
 840              		.loc 1 1934 0
 841 0004 0024     		movs	r4, #0
 842              	.LVL106:
 843              	.L84:
 844              		.loc 1 1937 0
 845 0006 35F8020B 		ldrh	r0, [r5], #2
 846              	.LVL107:
 847 000a 08B9     		cbnz	r0, .L87
 848              		.loc 1 1943 0
 849 000c 2046     		mov	r0, r4
 850              	.LVL108:
 851 000e 38BD     		pop	{r3, r4, r5, pc}
 852              	.LVL109:
 853              	.L87:
 854              		.loc 1 1938 0
 855 0010 FFF7FEFF 		bl	ff_wtoupper
ARM GAS  /tmp/cc6Bizie.s 			page 16


 856              	.LVL110:
 857              		.loc 1 1939 0
 858 0014 14F0010F 		tst	r4, #1
 859 0018 C2B2     		uxtb	r2, r0
 860 001a 02EB5404 		add	r4, r2, r4, lsr #1
 861              	.LVL111:
 862 001e 14BF     		ite	ne
 863 0020 4FF40043 		movne	r3, #32768
 864 0024 0023     		moveq	r3, #0
 865 0026 2344     		add	r3, r3, r4
 866 0028 9BB2     		uxth	r3, r3
 867              	.LVL112:
 868              		.loc 1 1940 0
 869 002a 13F0010F 		tst	r3, #1
 870 002e 4FEA1020 		lsr	r0, r0, #8
 871              	.LVL113:
 872 0032 14BF     		ite	ne
 873 0034 4FF40042 		movne	r2, #32768
 874 0038 0022     		moveq	r2, #0
 875 003a 00EB5300 		add	r0, r0, r3, lsr #1
 876 003e 12FA80F0 		uxtah	r0, r2, r0
 877 0042 84B2     		uxth	r4, r0
 878              	.LVL114:
 879 0044 DFE7     		b	.L84
 880              		.cfi_endproc
 881              	.LFE328:
 882              		.size	xname_sum, .-xname_sum
 883              		.section	.text.mem_cpy.part.0,"ax",%progbits
 884              		.align	1
 885              		.syntax unified
 886              		.thumb
 887              		.thumb_func
 888              		.fpu fpv4-sp-d16
 889              		.type	mem_cpy.part.0, %function
 890              	mem_cpy.part.0:
 891              	.LFB364:
 892              		.loc 1 628 0
 893              		.cfi_startproc
 894              		@ args = 0, pretend = 0, frame = 0
 895              		@ frame_needed = 0, uses_anonymous_args = 0
 896              		@ link register save eliminated.
 897              	.LVL115:
 898 0000 0138     		subs	r0, r0, #1
 899              	.LVL116:
 900 0002 0A44     		add	r2, r2, r1
 901              	.LVL117:
 902              	.L91:
 903              		.loc 1 635 0
 904 0004 11F8013B 		ldrb	r3, [r1], #1	@ zero_extendqisi2
 905              	.LVL118:
 906 0008 00F8013F 		strb	r3, [r0, #1]!
 907              	.LVL119:
 908              		.loc 1 636 0
 909 000c 9142     		cmp	r1, r2
 910 000e F9D1     		bne	.L91
 911              		.loc 1 638 0
 912 0010 7047     		bx	lr
ARM GAS  /tmp/cc6Bizie.s 			page 17


 913              		.cfi_endproc
 914              	.LFE364:
 915              		.size	mem_cpy.part.0, .-mem_cpy.part.0
 916              		.section	.text.ld_clust.isra.3,"ax",%progbits
 917              		.align	1
 918              		.syntax unified
 919              		.thumb
 920              		.thumb_func
 921              		.fpu fpv4-sp-d16
 922              		.type	ld_clust.isra.3, %function
 923              	ld_clust.isra.3:
 924              	.LFB367:
 925              		.loc 1 1675 0
 926              		.cfi_startproc
 927              		@ args = 0, pretend = 0, frame = 0
 928              		@ frame_needed = 0, uses_anonymous_args = 0
 929              		@ link register save eliminated.
 930              	.LVL120:
 931              	.LBB159:
 932              	.LBB160:
 933              		.loc 1 553 0
 934 0000 CA7E     		ldrb	r2, [r1, #27]	@ zero_extendqisi2
 935 0002 8B7E     		ldrb	r3, [r1, #26]	@ zero_extendqisi2
 936              	.LBE160:
 937              	.LBE159:
 938              		.loc 1 1683 0
 939 0004 0328     		cmp	r0, #3
 940              		.loc 1 1682 0
 941 0006 43EA0223 		orr	r3, r3, r2, lsl #8
 942              	.LVL121:
 943              	.LBB161:
 944              	.LBB162:
 945              		.loc 1 553 0
 946 000a 01BF     		itttt	eq
 947 000c 487D     		ldrbeq	r0, [r1, #21]	@ zero_extendqisi2
 948 000e 0A7D     		ldrbeq	r2, [r1, #20]	@ zero_extendqisi2
 949              	.LBE162:
 950              	.LBE161:
 951              		.loc 1 1684 0
 952 0010 42EA0022 		orreq	r2, r2, r0, lsl #8
 953 0014 43EA0243 		orreq	r3, r3, r2, lsl #16
 954              	.LVL122:
 955              		.loc 1 1688 0
 956 0018 1846     		mov	r0, r3
 957 001a 7047     		bx	lr
 958              		.cfi_endproc
 959              	.LFE367:
 960              		.size	ld_clust.isra.3, .-ld_clust.isra.3
 961              		.section	.text.st_clust.isra.4,"ax",%progbits
 962              		.align	1
 963              		.syntax unified
 964              		.thumb
 965              		.thumb_func
 966              		.fpu fpv4-sp-d16
 967              		.type	st_clust.isra.4, %function
 968              	st_clust.isra.4:
 969              	.LFB368:
ARM GAS  /tmp/cc6Bizie.s 			page 18


 970              		.loc 1 1693 0
 971              		.cfi_startproc
 972              		@ args = 0, pretend = 0, frame = 0
 973              		@ frame_needed = 0, uses_anonymous_args = 0
 974              		@ link register save eliminated.
 975              	.LVL123:
 976              	.LBB163:
 977              	.LBB164:
 978              		.loc 1 591 0
 979 0000 C2F30723 		ubfx	r3, r2, #8, #8
 980 0004 8A76     		strb	r2, [r1, #26]
 981              	.LVL124:
 982              		.loc 1 592 0
 983 0006 CB76     		strb	r3, [r1, #27]
 984              	.LVL125:
 985              	.LBE164:
 986              	.LBE163:
 987              		.loc 1 1700 0
 988 0008 0378     		ldrb	r3, [r0]	@ zero_extendqisi2
 989 000a 032B     		cmp	r3, #3
 990              		.loc 1 1701 0
 991 000c 01BF     		itttt	eq
 992 000e 120C     		lsreq	r2, r2, #16
 993              	.LVL126:
 994              	.LBB165:
 995              	.LBB166:
 996              		.loc 1 591 0
 997 0010 0A75     		strbeq	r2, [r1, #20]
 998              	.LVL127:
 999 0012 120A     		lsreq	r2, r2, #8
 1000              	.LVL128:
 1001              		.loc 1 592 0
 1002 0014 4A75     		strbeq	r2, [r1, #21]
 1003 0016 7047     		bx	lr
 1004              	.LBE166:
 1005              	.LBE165:
 1006              		.cfi_endproc
 1007              	.LFE368:
 1008              		.size	st_clust.isra.4, .-st_clust.isra.4
 1009              		.section	.text.sync_window,"ax",%progbits
 1010              		.align	1
 1011              		.syntax unified
 1012              		.thumb
 1013              		.thumb_func
 1014              		.fpu fpv4-sp-d16
 1015              		.type	sync_window, %function
 1016              	sync_window:
 1017              	.LFB304:
 1018              		.loc 1 872 0
 1019              		.cfi_startproc
 1020              		@ args = 0, pretend = 0, frame = 0
 1021              		@ frame_needed = 0, uses_anonymous_args = 0
 1022              	.LVL129:
 1023 0000 70B5     		push	{r4, r5, r6, lr}
 1024              		.cfi_def_cfa_offset 16
 1025              		.cfi_offset 4, -16
 1026              		.cfi_offset 5, -12
ARM GAS  /tmp/cc6Bizie.s 			page 19


 1027              		.cfi_offset 6, -8
 1028              		.cfi_offset 14, -4
 1029              		.loc 1 876 0
 1030 0002 C378     		ldrb	r3, [r0, #3]	@ zero_extendqisi2
 1031              		.loc 1 872 0
 1032 0004 0446     		mov	r4, r0
 1033              		.loc 1 876 0
 1034 0006 0BB9     		cbnz	r3, .L98
 1035              	.LVL130:
 1036              	.L100:
 1037              		.loc 1 873 0
 1038 0008 0020     		movs	r0, #0
 1039 000a 70BD     		pop	{r4, r5, r6, pc}
 1040              	.LVL131:
 1041              	.L98:
 1042              	.LBB169:
 1043              	.LBB170:
 1044              		.loc 1 877 0
 1045 000c 00F14C06 		add	r6, r0, #76
 1046 0010 826C     		ldr	r2, [r0, #72]
 1047 0012 4078     		ldrb	r0, [r0, #1]	@ zero_extendqisi2
 1048              	.LVL132:
 1049 0014 0123     		movs	r3, #1
 1050 0016 3146     		mov	r1, r6
 1051 0018 FFF7FEFF 		bl	disk_write
 1052              	.LVL133:
 1053 001c 80B9     		cbnz	r0, .L101
 1054              		.loc 1 879 0
 1055 001e A16C     		ldr	r1, [r4, #72]
 1056 0020 E36B     		ldr	r3, [r4, #60]
 1057 0022 626B     		ldr	r2, [r4, #52]
 1058              		.loc 1 878 0
 1059 0024 E070     		strb	r0, [r4, #3]
 1060              		.loc 1 879 0
 1061 0026 CB1A     		subs	r3, r1, r3
 1062 0028 9342     		cmp	r3, r2
 1063 002a EDD2     		bcs	.L100
 1064              		.loc 1 880 0
 1065 002c A378     		ldrb	r3, [r4, #2]	@ zero_extendqisi2
 1066 002e 022B     		cmp	r3, #2
 1067 0030 EAD1     		bne	.L100
 1068 0032 0A44     		add	r2, r2, r1
 1069 0034 0123     		movs	r3, #1
 1070 0036 3146     		mov	r1, r6
 1071 0038 6078     		ldrb	r0, [r4, #1]	@ zero_extendqisi2
 1072 003a FFF7FEFF 		bl	disk_write
 1073              	.LVL134:
 1074 003e E3E7     		b	.L100
 1075              	.L101:
 1076              		.loc 1 883 0
 1077 0040 0120     		movs	r0, #1
 1078              	.LVL135:
 1079              	.LBE170:
 1080              	.LBE169:
 1081              		.loc 1 887 0
 1082 0042 70BD     		pop	{r4, r5, r6, pc}
 1083              		.cfi_endproc
ARM GAS  /tmp/cc6Bizie.s 			page 20


 1084              	.LFE304:
 1085              		.size	sync_window, .-sync_window
 1086              		.section	.text.dir_clear,"ax",%progbits
 1087              		.align	1
 1088              		.syntax unified
 1089              		.thumb
 1090              		.thumb_func
 1091              		.fpu fpv4-sp-d16
 1092              		.type	dir_clear, %function
 1093              	dir_clear:
 1094              	.LFB316:
 1095              		.loc 1 1486 0
 1096              		.cfi_startproc
 1097              		@ args = 0, pretend = 0, frame = 0
 1098              		@ frame_needed = 0, uses_anonymous_args = 0
 1099              	.LVL136:
 1100 0000 2DE9F843 		push	{r3, r4, r5, r6, r7, r8, r9, lr}
 1101              		.cfi_def_cfa_offset 32
 1102              		.cfi_offset 3, -32
 1103              		.cfi_offset 4, -28
 1104              		.cfi_offset 5, -24
 1105              		.cfi_offset 6, -20
 1106              		.cfi_offset 7, -16
 1107              		.cfi_offset 8, -12
 1108              		.cfi_offset 9, -8
 1109              		.cfi_offset 14, -4
 1110              		.loc 1 1486 0
 1111 0004 0646     		mov	r6, r0
 1112 0006 0D46     		mov	r5, r1
 1113              		.loc 1 1492 0
 1114 0008 FFF7FEFF 		bl	sync_window
 1115              	.LVL137:
 1116 000c 0446     		mov	r4, r0
 1117 000e 0028     		cmp	r0, #0
 1118 0010 47D1     		bne	.L115
 1119              		.loc 1 1493 0
 1120 0012 2946     		mov	r1, r5
 1121 0014 3046     		mov	r0, r6
 1122 0016 FFF7FEFF 		bl	clst2sect
 1123              	.LVL138:
 1124              		.loc 1 1495 0
 1125 001a 06F14C09 		add	r9, r6, #76
 1126              		.loc 1 1494 0
 1127 001e B064     		str	r0, [r6, #72]
 1128              		.loc 1 1495 0
 1129 0020 2146     		mov	r1, r4
 1130              		.loc 1 1493 0
 1131 0022 0746     		mov	r7, r0
 1132              	.LVL139:
 1133              		.loc 1 1495 0
 1134 0024 4FF40072 		mov	r2, #512
 1135 0028 4846     		mov	r0, r9
 1136              	.LVL140:
 1137 002a FFF7FEFF 		bl	mem_set
 1138              	.LVL141:
 1139              		.loc 1 1498 0
 1140 002e 7489     		ldrh	r4, [r6, #10]
ARM GAS  /tmp/cc6Bizie.s 			page 21


 1141 0030 6402     		lsls	r4, r4, #9
 1142 0032 B4F5004F 		cmp	r4, #32768
 1143 0036 28BF     		it	cs
 1144 0038 4FF40044 		movcs	r4, #32768
 1145              	.LVL142:
 1146              	.L104:
 1147              		.loc 1 1498 0 is_stmt 0 discriminator 1
 1148 003c B4F5007F 		cmp	r4, #512
 1149 0040 0ED8     		bhi	.L105
 1150 0042 0025     		movs	r5, #0
 1151              	.LVL143:
 1152              	.L106:
 1153              		.loc 1 1508 0 is_stmt 1 discriminator 1
 1154 0044 7389     		ldrh	r3, [r6, #10]
 1155 0046 9D42     		cmp	r5, r3
 1156 0048 25D2     		bcs	.L110
 1157              		.loc 1 1508 0 is_stmt 0 discriminator 3
 1158 004a 0123     		movs	r3, #1
 1159 004c EA19     		adds	r2, r5, r7
 1160 004e 4946     		mov	r1, r9
 1161 0050 7078     		ldrb	r0, [r6, #1]	@ zero_extendqisi2
 1162 0052 FFF7FEFF 		bl	disk_write
 1163              	.LVL144:
 1164 0056 F0B9     		cbnz	r0, .L110
 1165              		.loc 1 1508 0 discriminator 4
 1166 0058 0135     		adds	r5, r5, #1
 1167              	.LVL145:
 1168 005a F3E7     		b	.L106
 1169              	.LVL146:
 1170              	.L107:
 1171              		.loc 1 1498 0 is_stmt 1 discriminator 4
 1172 005c 6408     		lsrs	r4, r4, #1
 1173              	.LVL147:
 1174 005e EDE7     		b	.L104
 1175              	.LVL148:
 1176              	.L105:
 1177              		.loc 1 1498 0 is_stmt 0 discriminator 3
 1178 0060 2046     		mov	r0, r4
 1179 0062 FFF7FEFF 		bl	ff_memalloc
 1180              	.LVL149:
 1181 0066 8046     		mov	r8, r0
 1182 0068 0028     		cmp	r0, #0
 1183 006a F7D0     		beq	.L107
 1184              		.loc 1 1500 0 is_stmt 1
 1185 006c 2246     		mov	r2, r4
 1186 006e 0021     		movs	r1, #0
 1187 0070 FFF7FEFF 		bl	mem_set
 1188              	.LVL150:
 1189              		.loc 1 1501 0
 1190 0074 640A     		lsrs	r4, r4, #9
 1191              	.LVL151:
 1192              		.loc 1 1502 0
 1193 0076 0025     		movs	r5, #0
 1194              	.LVL152:
 1195 0078 07E0     		b	.L114
 1196              	.LVL153:
 1197              	.L109:
ARM GAS  /tmp/cc6Bizie.s 			page 22


 1198              		.loc 1 1502 0 is_stmt 0 discriminator 3
 1199 007a 2346     		mov	r3, r4
 1200 007c EA19     		adds	r2, r5, r7
 1201 007e 4146     		mov	r1, r8
 1202 0080 7078     		ldrb	r0, [r6, #1]	@ zero_extendqisi2
 1203 0082 FFF7FEFF 		bl	disk_write
 1204              	.LVL154:
 1205 0086 18B9     		cbnz	r0, .L112
 1206              		.loc 1 1502 0 discriminator 4
 1207 0088 2544     		add	r5, r5, r4
 1208              	.LVL155:
 1209              	.L114:
 1210              		.loc 1 1502 0 discriminator 1
 1211 008a 7389     		ldrh	r3, [r6, #10]
 1212 008c 9D42     		cmp	r5, r3
 1213 008e F4D3     		bcc	.L109
 1214              	.L112:
 1215              		.loc 1 1503 0 is_stmt 1
 1216 0090 4046     		mov	r0, r8
 1217 0092 FFF7FEFF 		bl	ff_memfree
 1218              	.LVL156:
 1219              	.L110:
 1220              		.loc 1 1510 0
 1221 0096 7089     		ldrh	r0, [r6, #10]
 1222 0098 401B     		subs	r0, r0, r5
 1223 009a 18BF     		it	ne
 1224 009c 0120     		movne	r0, #1
 1225 009e BDE8F883 		pop	{r3, r4, r5, r6, r7, r8, r9, pc}
 1226              	.LVL157:
 1227              	.L115:
 1228              		.loc 1 1492 0
 1229 00a2 0120     		movs	r0, #1
 1230 00a4 BDE8F883 		pop	{r3, r4, r5, r6, r7, r8, r9, pc}
 1231              		.cfi_endproc
 1232              	.LFE316:
 1233              		.size	dir_clear, .-dir_clear
 1234              		.section	.text.sync_fs,"ax",%progbits
 1235              		.align	1
 1236              		.syntax unified
 1237              		.thumb
 1238              		.thumb_func
 1239              		.fpu fpv4-sp-d16
 1240              		.type	sync_fs, %function
 1241              	sync_fs:
 1242              	.LFB306:
 1243              		.loc 1 927 0
 1244              		.cfi_startproc
 1245              		@ args = 0, pretend = 0, frame = 0
 1246              		@ frame_needed = 0, uses_anonymous_args = 0
 1247              	.LVL158:
 1248 0000 F8B5     		push	{r3, r4, r5, r6, r7, lr}
 1249              		.cfi_def_cfa_offset 24
 1250              		.cfi_offset 3, -24
 1251              		.cfi_offset 4, -20
 1252              		.cfi_offset 5, -16
 1253              		.cfi_offset 6, -12
 1254              		.cfi_offset 7, -8
ARM GAS  /tmp/cc6Bizie.s 			page 23


 1255              		.cfi_offset 14, -4
 1256              		.loc 1 927 0
 1257 0002 0446     		mov	r4, r0
 1258              		.loc 1 931 0
 1259 0004 FFF7FEFF 		bl	sync_window
 1260              	.LVL159:
 1261 0008 0546     		mov	r5, r0
 1262              	.LVL160:
 1263              		.loc 1 932 0
 1264 000a 0028     		cmp	r0, #0
 1265 000c 42D1     		bne	.L119
 1266              		.loc 1 933 0
 1267 000e 2378     		ldrb	r3, [r4]	@ zero_extendqisi2
 1268 0010 032B     		cmp	r3, #3
 1269 0012 37D1     		bne	.L120
 1270              		.loc 1 933 0 is_stmt 0 discriminator 1
 1271 0014 2779     		ldrb	r7, [r4, #4]	@ zero_extendqisi2
 1272 0016 012F     		cmp	r7, #1
 1273 0018 34D1     		bne	.L120
 1274              		.loc 1 935 0 is_stmt 1
 1275 001a 04F14C06 		add	r6, r4, #76
 1276 001e 0146     		mov	r1, r0
 1277 0020 4FF40072 		mov	r2, #512
 1278 0024 3046     		mov	r0, r6
 1279              	.LVL161:
 1280 0026 FFF7FEFF 		bl	mem_set
 1281              	.LVL162:
 1282              	.LBB171:
 1283              	.LBB172:
 1284              		.loc 1 591 0
 1285 002a 5523     		movs	r3, #85
 1286 002c 84F84A32 		strb	r3, [r4, #586]
 1287              	.LVL163:
 1288              		.loc 1 592 0
 1289 0030 AA23     		movs	r3, #170
 1290 0032 84F84B32 		strb	r3, [r4, #587]
 1291              	.LVL164:
 1292              	.LBE172:
 1293              	.LBE171:
 1294              	.LBB173:
 1295              	.LBB174:
 1296              		.loc 1 598 0
 1297 0036 5223     		movs	r3, #82
 1298              		.loc 1 601 0
 1299 0038 4122     		movs	r2, #65
 1300              	.LBE174:
 1301              	.LBE173:
 1302              	.LBB176:
 1303              	.LBB177:
 1304              		.loc 1 598 0
 1305 003a 7221     		movs	r1, #114
 1306              	.LBE177:
 1307              	.LBE176:
 1308              	.LBB179:
 1309              	.LBB175:
 1310 003c 84F84C30 		strb	r3, [r4, #76]
 1311              	.LVL165:
ARM GAS  /tmp/cc6Bizie.s 			page 24


 1312              		.loc 1 599 0
 1313 0040 84F84D30 		strb	r3, [r4, #77]
 1314              	.LVL166:
 1315              		.loc 1 600 0
 1316 0044 6123     		movs	r3, #97
 1317 0046 84F84E30 		strb	r3, [r4, #78]
 1318              	.LVL167:
 1319              		.loc 1 601 0
 1320 004a 84F84F20 		strb	r2, [r4, #79]
 1321              	.LVL168:
 1322              	.LBE175:
 1323              	.LBE179:
 1324              	.LBB180:
 1325              	.LBB178:
 1326              		.loc 1 600 0
 1327 004e 84F83222 		strb	r2, [r4, #562]
 1328              		.loc 1 601 0
 1329 0052 84F83332 		strb	r3, [r4, #563]
 1330              		.loc 1 598 0
 1331 0056 84F83012 		strb	r1, [r4, #560]
 1332              	.LVL169:
 1333              		.loc 1 599 0
 1334 005a 84F83112 		strb	r1, [r4, #561]
 1335              	.LVL170:
 1336              	.LBE178:
 1337              	.LBE180:
 1338              		.loc 1 939 0
 1339 005e 04F50D70 		add	r0, r4, #564
 1340 0062 E169     		ldr	r1, [r4, #28]
 1341 0064 FFF7FEFF 		bl	st_dword
 1342              	.LVL171:
 1343              		.loc 1 940 0
 1344 0068 A169     		ldr	r1, [r4, #24]
 1345 006a 04F50E70 		add	r0, r4, #568
 1346 006e FFF7FEFF 		bl	st_dword
 1347              	.LVL172:
 1348              		.loc 1 942 0
 1349 0072 A26B     		ldr	r2, [r4, #56]
 1350              		.loc 1 943 0
 1351 0074 6078     		ldrb	r0, [r4, #1]	@ zero_extendqisi2
 1352              		.loc 1 942 0
 1353 0076 0132     		adds	r2, r2, #1
 1354 0078 A264     		str	r2, [r4, #72]
 1355              		.loc 1 943 0
 1356 007a 3B46     		mov	r3, r7
 1357 007c 3146     		mov	r1, r6
 1358 007e FFF7FEFF 		bl	disk_write
 1359              	.LVL173:
 1360              		.loc 1 944 0
 1361 0082 2571     		strb	r5, [r4, #4]
 1362              	.L120:
 1363              		.loc 1 947 0
 1364 0084 0022     		movs	r2, #0
 1365 0086 1146     		mov	r1, r2
 1366 0088 6078     		ldrb	r0, [r4, #1]	@ zero_extendqisi2
 1367 008a FFF7FEFF 		bl	disk_ioctl
 1368              	.LVL174:
ARM GAS  /tmp/cc6Bizie.s 			page 25


 1369 008e 0030     		adds	r0, r0, #0
 1370 0090 18BF     		it	ne
 1371 0092 0120     		movne	r0, #1
 1372              	.L119:
 1373              	.LVL175:
 1374              		.loc 1 951 0
 1375 0094 F8BD     		pop	{r3, r4, r5, r6, r7, pc}
 1376              		.cfi_endproc
 1377              	.LFE306:
 1378              		.size	sync_fs, .-sync_fs
 1379              		.section	.text.move_window,"ax",%progbits
 1380              		.align	1
 1381              		.syntax unified
 1382              		.thumb
 1383              		.thumb_func
 1384              		.fpu fpv4-sp-d16
 1385              		.type	move_window, %function
 1386              	move_window:
 1387              	.LFB305:
 1388              		.loc 1 896 0
 1389              		.cfi_startproc
 1390              		@ args = 0, pretend = 0, frame = 0
 1391              		@ frame_needed = 0, uses_anonymous_args = 0
 1392              	.LVL176:
 1393              		.loc 1 900 0
 1394 0000 836C     		ldr	r3, [r0, #72]
 1395 0002 8B42     		cmp	r3, r1
 1396              		.loc 1 896 0
 1397 0004 70B5     		push	{r4, r5, r6, lr}
 1398              		.cfi_def_cfa_offset 16
 1399              		.cfi_offset 4, -16
 1400              		.cfi_offset 5, -12
 1401              		.cfi_offset 6, -8
 1402              		.cfi_offset 14, -4
 1403              		.loc 1 896 0
 1404 0006 0646     		mov	r6, r0
 1405 0008 0D46     		mov	r5, r1
 1406              		.loc 1 900 0
 1407 000a 12D0     		beq	.L124
 1408              	.LVL177:
 1409              	.LBB183:
 1410              	.LBB184:
 1411              		.loc 1 902 0
 1412 000c FFF7FEFF 		bl	sync_window
 1413              	.LVL178:
 1414              		.loc 1 904 0
 1415 0010 0446     		mov	r4, r0
 1416 0012 60B9     		cbnz	r0, .L122
 1417              		.loc 1 905 0
 1418 0014 2A46     		mov	r2, r5
 1419 0016 0123     		movs	r3, #1
 1420 0018 06F14C01 		add	r1, r6, #76
 1421 001c 7078     		ldrb	r0, [r6, #1]	@ zero_extendqisi2
 1422              	.LVL179:
 1423 001e FFF7FEFF 		bl	disk_read
 1424              	.LVL180:
 1425 0022 0028     		cmp	r0, #0
ARM GAS  /tmp/cc6Bizie.s 			page 26


 1426              		.loc 1 907 0
 1427 0024 1CBF     		itt	ne
 1428 0026 4FF0FF35 		movne	r5, #-1
 1429              	.LVL181:
 1430 002a 0124     		movne	r4, #1
 1431              	.LVL182:
 1432              		.loc 1 909 0
 1433 002c B564     		str	r5, [r6, #72]
 1434              	.LVL183:
 1435              	.L122:
 1436              	.LBE184:
 1437              	.LBE183:
 1438              		.loc 1 913 0
 1439 002e 2046     		mov	r0, r4
 1440 0030 70BD     		pop	{r4, r5, r6, pc}
 1441              	.LVL184:
 1442              	.L124:
 1443              		.loc 1 897 0
 1444 0032 0024     		movs	r4, #0
 1445 0034 FBE7     		b	.L122
 1446              		.cfi_endproc
 1447              	.LFE305:
 1448              		.size	move_window, .-move_window
 1449              		.section	.text.change_bitmap,"ax",%progbits
 1450              		.align	1
 1451              		.syntax unified
 1452              		.thumb
 1453              		.thumb_func
 1454              		.fpu fpv4-sp-d16
 1455              		.type	change_bitmap, %function
 1456              	change_bitmap:
 1457              	.LFB311:
 1458              		.loc 1 1171 0
 1459              		.cfi_startproc
 1460              		@ args = 0, pretend = 0, frame = 0
 1461              		@ frame_needed = 0, uses_anonymous_args = 0
 1462              	.LVL185:
 1463 0000 2DE9F047 		push	{r4, r5, r6, r7, r8, r9, r10, lr}
 1464              		.cfi_def_cfa_offset 32
 1465              		.cfi_offset 4, -32
 1466              		.cfi_offset 5, -28
 1467              		.cfi_offset 6, -24
 1468              		.cfi_offset 7, -20
 1469              		.cfi_offset 8, -16
 1470              		.cfi_offset 9, -12
 1471              		.cfi_offset 10, -8
 1472              		.cfi_offset 14, -4
 1473              		.loc 1 1177 0
 1474 0004 8C1E     		subs	r4, r1, #2
 1475              	.LVL186:
 1476              		.loc 1 1178 0
 1477 0006 416C     		ldr	r1, [r0, #68]
 1478              		.loc 1 1179 0
 1479 0008 C4F3C808 		ubfx	r8, r4, #3, #9
 1480              		.loc 1 1178 0
 1481 000c 01EB1431 		add	r1, r1, r4, lsr #12
 1482              	.LVL187:
ARM GAS  /tmp/cc6Bizie.s 			page 27


 1483              		.loc 1 1180 0
 1484 0010 4FF00109 		mov	r9, #1
 1485 0014 04F00704 		and	r4, r4, #7
 1486              	.LVL188:
 1487 0018 09FA04F4 		lsl	r4, r9, r4
 1488              		.loc 1 1171 0
 1489 001c 0546     		mov	r5, r0
 1490 001e 1646     		mov	r6, r2
 1491 0020 1F46     		mov	r7, r3
 1492              		.loc 1 1180 0
 1493 0022 E4B2     		uxtb	r4, r4
 1494              	.LVL189:
 1495              	.L131:
 1496              		.loc 1 1182 0
 1497 0024 2846     		mov	r0, r5
 1498 0026 01F1010A 		add	r10, r1, #1
 1499              	.LVL190:
 1500 002a FFF7FEFF 		bl	move_window
 1501              	.LVL191:
 1502 002e 00BB     		cbnz	r0, .L132
 1503 0030 4346     		mov	r3, r8
 1504              	.LVL192:
 1505              	.L129:
 1506              		.loc 1 1185 0
 1507 0032 E918     		adds	r1, r5, r3
 1508 0034 91F84C20 		ldrb	r2, [r1, #76]	@ zero_extendqisi2
 1509 0038 1442     		tst	r4, r2
 1510 003a 14BF     		ite	ne
 1511 003c 4FF0010E 		movne	lr, #1
 1512 0040 4FF0000E 		moveq	lr, #0
 1513 0044 BE45     		cmp	lr, r7
 1514 0046 17D0     		beq	.L133
 1515              	.LVL193:
 1516              		.loc 1 1186 0
 1517 0048 6240     		eors	r2, r2, r4
 1518              		.loc 1 1188 0
 1519 004a 013E     		subs	r6, r6, #1
 1520              	.LVL194:
 1521              		.loc 1 1186 0
 1522 004c 81F84C20 		strb	r2, [r1, #76]
 1523              		.loc 1 1187 0
 1524 0050 85F80390 		strb	r9, [r5, #3]
 1525              		.loc 1 1188 0
 1526 0054 11D0     		beq	.L128
 1527              		.loc 1 1189 0
 1528 0056 6400     		lsls	r4, r4, #1
 1529              	.LVL195:
 1530 0058 14F0FF04 		ands	r4, r4, #255
 1531              	.LVL196:
 1532 005c E9D1     		bne	.L129
 1533              	.LVL197:
 1534              		.loc 1 1191 0
 1535 005e 0133     		adds	r3, r3, #1
 1536              	.LVL198:
 1537 0060 B3F5007F 		cmp	r3, #512
 1538              		.loc 1 1190 0
 1539 0064 4FF00104 		mov	r4, #1
ARM GAS  /tmp/cc6Bizie.s 			page 28


 1540              		.loc 1 1192 0
 1541 0068 4FF00008 		mov	r8, #0
 1542              		.loc 1 1182 0
 1543 006c 5146     		mov	r1, r10
 1544              		.loc 1 1191 0
 1545 006e E0D1     		bne	.L129
 1546              	.LVL199:
 1547 0070 D8E7     		b	.L131
 1548              	.LVL200:
 1549              	.L132:
 1550              		.loc 1 1182 0
 1551 0072 0120     		movs	r0, #1
 1552 0074 BDE8F087 		pop	{r4, r5, r6, r7, r8, r9, r10, pc}
 1553              	.LVL201:
 1554              	.L133:
 1555              		.loc 1 1185 0
 1556 0078 0220     		movs	r0, #2
 1557              	.L128:
 1558              		.loc 1 1194 0
 1559 007a BDE8F087 		pop	{r4, r5, r6, r7, r8, r9, r10, pc}
 1560              		.cfi_endproc
 1561              	.LFE311:
 1562              		.size	change_bitmap, .-change_bitmap
 1563              		.section	.text.get_fat,"ax",%progbits
 1564              		.align	1
 1565              		.syntax unified
 1566              		.thumb
 1567              		.thumb_func
 1568              		.fpu fpv4-sp-d16
 1569              		.type	get_fat, %function
 1570              	get_fat:
 1571              	.LFB308:
 1572              		.loc 1 984 0
 1573              		.cfi_startproc
 1574              		@ args = 0, pretend = 0, frame = 0
 1575              		@ frame_needed = 0, uses_anonymous_args = 0
 1576              	.LVL202:
 1577              		.loc 1 990 0
 1578 0000 0129     		cmp	r1, #1
 1579              		.loc 1 984 0
 1580 0002 F8B5     		push	{r3, r4, r5, r6, r7, lr}
 1581              		.cfi_def_cfa_offset 24
 1582              		.cfi_offset 3, -24
 1583              		.cfi_offset 4, -20
 1584              		.cfi_offset 5, -16
 1585              		.cfi_offset 6, -12
 1586              		.cfi_offset 7, -8
 1587              		.cfi_offset 14, -4
 1588              		.loc 1 984 0
 1589 0004 0C46     		mov	r4, r1
 1590              		.loc 1 990 0
 1591 0006 40F28D80 		bls	.L156
 1592              		.loc 1 987 0 discriminator 1
 1593 000a 0568     		ldr	r5, [r0]
 1594              		.loc 1 990 0 discriminator 1
 1595 000c 2B6B     		ldr	r3, [r5, #48]
 1596 000e 9942     		cmp	r1, r3
ARM GAS  /tmp/cc6Bizie.s 			page 29


 1597 0010 80F08880 		bcs	.L156
 1598              	.LVL203:
 1599              		.loc 1 996 0
 1600 0014 2B78     		ldrb	r3, [r5]	@ zero_extendqisi2
 1601 0016 013B     		subs	r3, r3, #1
 1602 0018 032B     		cmp	r3, #3
 1603 001a 00F28380 		bhi	.L156
 1604 001e DFE803F0 		tbb	[pc, r3]
 1605              	.L142:
 1606 0022 02       		.byte	(.L141-.L142)/2
 1607 0023 29       		.byte	(.L143-.L142)/2
 1608 0024 3B       		.byte	(.L144-.L142)/2
 1609 0025 4E       		.byte	(.L145-.L142)/2
 1610              		.p2align 1
 1611              	.L141:
 1612              	.LVL204:
 1613              		.loc 1 998 0
 1614 0026 01EB5106 		add	r6, r1, r1, lsr #1
 1615              	.LVL205:
 1616              		.loc 1 999 0
 1617 002a E96B     		ldr	r1, [r5, #60]
 1618              	.LVL206:
 1619 002c 2846     		mov	r0, r5
 1620              	.LVL207:
 1621 002e 01EB5621 		add	r1, r1, r6, lsr #9
 1622 0032 FFF7FEFF 		bl	move_window
 1623              	.LVL208:
 1624 0036 10B1     		cbz	r0, .L146
 1625              	.LVL209:
 1626              	.L147:
 1627              		.loc 1 994 0
 1628 0038 4FF0FF30 		mov	r0, #-1
 1629 003c F8BD     		pop	{r3, r4, r5, r6, r7, pc}
 1630              	.LVL210:
 1631              	.L146:
 1632              		.loc 1 1000 0
 1633 003e 771C     		adds	r7, r6, #1
 1634              	.LVL211:
 1635              		.loc 1 1001 0
 1636 0040 E96B     		ldr	r1, [r5, #60]
 1637              		.loc 1 1000 0
 1638 0042 C6F30806 		ubfx	r6, r6, #0, #9
 1639 0046 2E44     		add	r6, r6, r5
 1640              		.loc 1 1001 0
 1641 0048 01EB5721 		add	r1, r1, r7, lsr #9
 1642 004c 2846     		mov	r0, r5
 1643              		.loc 1 1000 0
 1644 004e 96F84C60 		ldrb	r6, [r6, #76]	@ zero_extendqisi2
 1645              	.LVL212:
 1646              		.loc 1 1001 0
 1647 0052 FFF7FEFF 		bl	move_window
 1648              	.LVL213:
 1649 0056 0028     		cmp	r0, #0
 1650 0058 EED1     		bne	.L147
 1651              		.loc 1 1002 0
 1652 005a C7F30807 		ubfx	r7, r7, #0, #9
 1653              	.LVL214:
ARM GAS  /tmp/cc6Bizie.s 			page 30


 1654 005e 3D44     		add	r5, r5, r7
 1655              		.loc 1 1003 0
 1656 0060 E307     		lsls	r3, r4, #31
 1657              		.loc 1 1002 0
 1658 0062 95F84C00 		ldrb	r0, [r5, #76]	@ zero_extendqisi2
 1659 0066 46EA0020 		orr	r0, r6, r0, lsl #8
 1660              	.LVL215:
 1661              		.loc 1 1003 0
 1662 006a 4CBF     		ite	mi
 1663 006c 0009     		lsrmi	r0, r0, #4
 1664              	.LVL216:
 1665 006e C0F30B00 		ubfxpl	r0, r0, #0, #12
 1666 0072 F8BD     		pop	{r3, r4, r5, r6, r7, pc}
 1667              	.LVL217:
 1668              	.L143:
 1669              		.loc 1 1007 0
 1670 0074 E96B     		ldr	r1, [r5, #60]
 1671              	.LVL218:
 1672 0076 2846     		mov	r0, r5
 1673              	.LVL219:
 1674 0078 01EB1421 		add	r1, r1, r4, lsr #8
 1675 007c FFF7FEFF 		bl	move_window
 1676              	.LVL220:
 1677 0080 0028     		cmp	r0, #0
 1678 0082 D9D1     		bne	.L147
 1679              		.loc 1 1008 0
 1680 0084 6400     		lsls	r4, r4, #1
 1681              	.LVL221:
 1682 0086 04F4FF73 		and	r3, r4, #510
 1683 008a 4C35     		adds	r5, r5, #76
 1684 008c EA18     		adds	r2, r5, r3
 1685              	.LBB185:
 1686              	.LBB186:
 1687              		.loc 1 553 0
 1688 008e E85C     		ldrb	r0, [r5, r3]	@ zero_extendqisi2
 1689 0090 5478     		ldrb	r4, [r2, #1]	@ zero_extendqisi2
 1690              	.LBE186:
 1691              	.LBE185:
 1692              		.loc 1 1008 0
 1693 0092 40EA0420 		orr	r0, r0, r4, lsl #8
 1694              	.LVL222:
 1695              		.loc 1 1009 0
 1696 0096 F8BD     		pop	{r3, r4, r5, r6, r7, pc}
 1697              	.LVL223:
 1698              	.L144:
 1699              		.loc 1 1012 0
 1700 0098 E96B     		ldr	r1, [r5, #60]
 1701              	.LVL224:
 1702 009a 2846     		mov	r0, r5
 1703              	.LVL225:
 1704 009c 01EBD411 		add	r1, r1, r4, lsr #7
 1705 00a0 FFF7FEFF 		bl	move_window
 1706              	.LVL226:
 1707 00a4 0028     		cmp	r0, #0
 1708 00a6 C7D1     		bne	.L147
 1709              		.loc 1 1013 0
 1710 00a8 A400     		lsls	r4, r4, #2
ARM GAS  /tmp/cc6Bizie.s 			page 31


 1711              	.LVL227:
 1712 00aa 05F14C00 		add	r0, r5, #76
 1713 00ae 04F4FE74 		and	r4, r4, #508
 1714 00b2 2044     		add	r0, r0, r4
 1715 00b4 FFF7FEFF 		bl	ld_dword
 1716              	.LVL228:
 1717 00b8 20F07040 		bic	r0, r0, #-268435456
 1718              	.LVL229:
 1719              		.loc 1 1014 0
 1720 00bc F8BD     		pop	{r3, r4, r5, r6, r7, pc}
 1721              	.LVL230:
 1722              	.L145:
 1723              		.loc 1 1017 0
 1724 00be D0E90423 		ldrd	r2, [r0, #16]
 1725 00c2 52EA0301 		orrs	r1, r2, r3
 1726              	.LVL231:
 1727 00c6 2DD0     		beq	.L156
 1728              	.LBB187:
 1729              		.loc 1 1021 0
 1730 00c8 C179     		ldrb	r1, [r0, #7]	@ zero_extendqisi2
 1731              		.loc 1 1018 0
 1732 00ca 8668     		ldr	r6, [r0, #8]
 1733              		.loc 1 1019 0
 1734 00cc 6F89     		ldrh	r7, [r5, #10]
 1735              		.loc 1 1021 0
 1736 00ce 0229     		cmp	r1, #2
 1737              		.loc 1 1018 0
 1738 00d0 A4EB0606 		sub	r6, r4, r6
 1739              	.LVL232:
 1740              		.loc 1 1021 0
 1741 00d4 0DD1     		bne	.L149
 1742              		.loc 1 1019 0 discriminator 1
 1743 00d6 12F1FF30 		adds	r0, r2, #-1
 1744              	.LVL233:
 1745 00da 43F1FF31 		adc	r1, r3, #-1
 1746 00de 430A     		lsrs	r3, r0, #9
 1747 00e0 43EAC153 		orr	r3, r3, r1, lsl #23
 1748 00e4 B3FBF7F3 		udiv	r3, r3, r7
 1749              		.loc 1 1021 0 discriminator 1
 1750 00e8 9E42     		cmp	r6, r3
 1751 00ea 1BD8     		bhi	.L156
 1752              		.loc 1 1022 0
 1753 00ec 1CD0     		beq	.L158
 1754              	.L151:
 1755              		.loc 1 1022 0 is_stmt 0 discriminator 1
 1756 00ee 601C     		adds	r0, r4, #1
 1757 00f0 F8BD     		pop	{r3, r4, r5, r6, r7, pc}
 1758              	.LVL234:
 1759              	.L149:
 1760              		.loc 1 1025 0 is_stmt 1
 1761 00f2 0329     		cmp	r1, #3
 1762 00f4 02D1     		bne	.L150
 1763              		.loc 1 1025 0 is_stmt 0 discriminator 1
 1764 00f6 8369     		ldr	r3, [r0, #24]
 1765 00f8 9E42     		cmp	r6, r3
 1766 00fa F8D3     		bcc	.L151
 1767              	.L150:
ARM GAS  /tmp/cc6Bizie.s 			page 32


 1768              		.loc 1 1030 0 is_stmt 1
 1769 00fc C369     		ldr	r3, [r0, #28]
 1770 00fe 9BB9     		cbnz	r3, .L158
 1771              		.loc 1 1033 0
 1772 0100 E96B     		ldr	r1, [r5, #60]
 1773 0102 2846     		mov	r0, r5
 1774              	.LVL235:
 1775 0104 01EBD411 		add	r1, r1, r4, lsr #7
 1776 0108 FFF7FEFF 		bl	move_window
 1777              	.LVL236:
 1778 010c 0028     		cmp	r0, #0
 1779 010e 93D1     		bne	.L147
 1780              		.loc 1 1034 0
 1781 0110 A000     		lsls	r0, r4, #2
 1782 0112 4C35     		adds	r5, r5, #76
 1783 0114 00F4FE70 		and	r0, r0, #508
 1784 0118 2844     		add	r0, r0, r5
 1785 011a FFF7FEFF 		bl	ld_dword
 1786              	.LVL237:
 1787 011e 20F00040 		bic	r0, r0, #-2147483648
 1788              	.LVL238:
 1789 0122 F8BD     		pop	{r3, r4, r5, r6, r7, pc}
 1790              	.LVL239:
 1791              	.L156:
 1792              	.LBE187:
 1793              		.loc 1 991 0
 1794 0124 0120     		movs	r0, #1
 1795 0126 F8BD     		pop	{r3, r4, r5, r6, r7, pc}
 1796              	.LVL240:
 1797              	.L158:
 1798              	.LBB188:
 1799              		.loc 1 1022 0
 1800 0128 6FF00040 		mvn	r0, #-2147483648
 1801              	.LVL241:
 1802              	.LBE188:
 1803              		.loc 1 1047 0
 1804 012c F8BD     		pop	{r3, r4, r5, r6, r7, pc}
 1805              		.cfi_endproc
 1806              	.LFE308:
 1807              		.size	get_fat, .-get_fat
 1808              		.section	.text.dir_sdi,"ax",%progbits
 1809              		.align	1
 1810              		.syntax unified
 1811              		.thumb
 1812              		.thumb_func
 1813              		.fpu fpv4-sp-d16
 1814              		.type	dir_sdi, %function
 1815              	dir_sdi:
 1816              	.LFB317:
 1817              		.loc 1 1526 0
 1818              		.cfi_startproc
 1819              		@ args = 0, pretend = 0, frame = 0
 1820              		@ frame_needed = 0, uses_anonymous_args = 0
 1821              	.LVL242:
 1822 0000 F8B5     		push	{r3, r4, r5, r6, r7, lr}
 1823              		.cfi_def_cfa_offset 24
 1824              		.cfi_offset 3, -24
ARM GAS  /tmp/cc6Bizie.s 			page 33


 1825              		.cfi_offset 4, -20
 1826              		.cfi_offset 5, -16
 1827              		.cfi_offset 6, -12
 1828              		.cfi_offset 7, -8
 1829              		.cfi_offset 14, -4
 1830              		.loc 1 1528 0
 1831 0002 0468     		ldr	r4, [r0]
 1832              	.LVL243:
 1833              		.loc 1 1531 0
 1834 0004 2378     		ldrb	r3, [r4]	@ zero_extendqisi2
 1835 0006 042B     		cmp	r3, #4
 1836 0008 0CBF     		ite	eq
 1837 000a 4FF08052 		moveq	r2, #268435456
 1838 000e 4FF40012 		movne	r2, #2097152
 1839 0012 8A42     		cmp	r2, r1
 1840              		.loc 1 1526 0
 1841 0014 0546     		mov	r5, r0
 1842 0016 0E46     		mov	r6, r1
 1843              		.loc 1 1531 0
 1844 0018 01D8     		bhi	.L161
 1845              	.LVL244:
 1846              	.L163:
 1847              		.loc 1 1532 0
 1848 001a 0220     		movs	r0, #2
 1849 001c F8BD     		pop	{r3, r4, r5, r6, r7, pc}
 1850              	.LVL245:
 1851              	.L161:
 1852              		.loc 1 1531 0 discriminator 5
 1853 001e CA06     		lsls	r2, r1, #27
 1854 0020 FBD1     		bne	.L163
 1855              		.loc 1 1535 0
 1856 0022 8268     		ldr	r2, [r0, #8]
 1857              	.LVL246:
 1858              		.loc 1 1534 0
 1859 0024 2963     		str	r1, [r5, #48]
 1860              		.loc 1 1536 0
 1861 0026 22BB     		cbnz	r2, .L172
 1862              		.loc 1 1536 0 is_stmt 0 discriminator 1
 1863 0028 022B     		cmp	r3, #2
 1864 002a 13D8     		bhi	.L165
 1865              	.LVL247:
 1866              	.L167:
 1867              		.loc 1 1542 0 is_stmt 1
 1868 002c 2389     		ldrh	r3, [r4, #8]
 1869 002e B3EB561F 		cmp	r3, r6, lsr #5
 1870 0032 F2D9     		bls	.L163
 1871              		.loc 1 1543 0
 1872 0034 236C     		ldr	r3, [r4, #64]
 1873 0036 AB63     		str	r3, [r5, #56]
 1874              	.LVL248:
 1875              	.L168:
 1876              		.loc 1 1556 0
 1877 0038 AB6B     		ldr	r3, [r5, #56]
 1878              		.loc 1 1555 0
 1879 003a 6A63     		str	r2, [r5, #52]
 1880              		.loc 1 1556 0
 1881 003c 002B     		cmp	r3, #0
ARM GAS  /tmp/cc6Bizie.s 			page 34


 1882 003e ECD0     		beq	.L163
 1883              		.loc 1 1557 0
 1884 0040 03EB5623 		add	r3, r3, r6, lsr #9
 1885              		.loc 1 1558 0
 1886 0044 4C34     		adds	r4, r4, #76
 1887              	.LVL249:
 1888 0046 C6F30806 		ubfx	r6, r6, #0, #9
 1889              	.LVL250:
 1890 004a 3444     		add	r4, r4, r6
 1891              	.LVL251:
 1892              		.loc 1 1557 0
 1893 004c AB63     		str	r3, [r5, #56]
 1894              		.loc 1 1558 0
 1895 004e EC63     		str	r4, [r5, #60]
 1896              		.loc 1 1560 0
 1897 0050 0020     		movs	r0, #0
 1898 0052 F8BD     		pop	{r3, r4, r5, r6, r7, pc}
 1899              	.LVL252:
 1900              	.L165:
 1901              		.loc 1 1537 0
 1902 0054 236C     		ldr	r3, [r4, #64]
 1903              	.LVL253:
 1904              		.loc 1 1538 0
 1905 0056 C271     		strb	r2, [r0, #7]
 1906              		.loc 1 1541 0
 1907 0058 002B     		cmp	r3, #0
 1908 005a E7D0     		beq	.L167
 1909              	.L164:
 1910              		.loc 1 1546 0
 1911 005c 6789     		ldrh	r7, [r4, #10]
 1912              		.loc 1 1547 0
 1913 005e 1A46     		mov	r2, r3
 1914              		.loc 1 1546 0
 1915 0060 7F02     		lsls	r7, r7, #9
 1916              	.LVL254:
 1917              	.L169:
 1918              		.loc 1 1547 0
 1919 0062 BE42     		cmp	r6, r7
 1920              		.loc 1 1548 0
 1921 0064 1146     		mov	r1, r2
 1922              		.loc 1 1547 0
 1923 0066 06D2     		bcs	.L170
 1924              	.LVL255:
 1925              		.loc 1 1553 0
 1926 0068 2046     		mov	r0, r4
 1927 006a FFF7FEFF 		bl	clst2sect
 1928              	.LVL256:
 1929 006e A863     		str	r0, [r5, #56]
 1930 0070 E2E7     		b	.L168
 1931              	.LVL257:
 1932              	.L172:
 1933 0072 1346     		mov	r3, r2
 1934 0074 F2E7     		b	.L164
 1935              	.LVL258:
 1936              	.L170:
 1937              		.loc 1 1548 0
 1938 0076 2846     		mov	r0, r5
ARM GAS  /tmp/cc6Bizie.s 			page 35


 1939 0078 FFF7FEFF 		bl	get_fat
 1940              	.LVL259:
 1941              		.loc 1 1549 0
 1942 007c 431C     		adds	r3, r0, #1
 1943              		.loc 1 1548 0
 1944 007e 0246     		mov	r2, r0
 1945              	.LVL260:
 1946              		.loc 1 1549 0
 1947 0080 06D0     		beq	.L173
 1948              		.loc 1 1550 0
 1949 0082 0128     		cmp	r0, #1
 1950 0084 C9D9     		bls	.L163
 1951              		.loc 1 1550 0 is_stmt 0 discriminator 2
 1952 0086 236B     		ldr	r3, [r4, #48]
 1953 0088 9842     		cmp	r0, r3
 1954 008a C6D2     		bcs	.L163
 1955              		.loc 1 1551 0 is_stmt 1
 1956 008c F61B     		subs	r6, r6, r7
 1957              	.LVL261:
 1958 008e E8E7     		b	.L169
 1959              	.L173:
 1960              		.loc 1 1549 0
 1961 0090 0120     		movs	r0, #1
 1962              	.LVL262:
 1963              		.loc 1 1561 0
 1964 0092 F8BD     		pop	{r3, r4, r5, r6, r7, pc}
 1965              		.cfi_endproc
 1966              	.LFE317:
 1967              		.size	dir_sdi, .-dir_sdi
 1968              		.section	.text.check_fs,"ax",%progbits
 1969              		.align	1
 1970              		.syntax unified
 1971              		.thumb
 1972              		.thumb_func
 1973              		.fpu fpv4-sp-d16
 1974              		.type	check_fs, %function
 1975              	check_fs:
 1976              	.LFB342:
 1977              		.loc 1 3015 0
 1978              		.cfi_startproc
 1979              		@ args = 0, pretend = 0, frame = 0
 1980              		@ frame_needed = 0, uses_anonymous_args = 0
 1981              	.LVL263:
 1982              		.loc 1 3016 0
 1983 0000 0023     		movs	r3, #0
 1984              		.loc 1 3015 0
 1985 0002 10B5     		push	{r4, lr}
 1986              		.cfi_def_cfa_offset 8
 1987              		.cfi_offset 4, -8
 1988              		.cfi_offset 14, -4
 1989              		.loc 1 3016 0
 1990 0004 C370     		strb	r3, [r0, #3]
 1991 0006 4FF0FF33 		mov	r3, #-1
 1992 000a 8364     		str	r3, [r0, #72]
 1993              		.loc 1 3015 0
 1994 000c 0446     		mov	r4, r0
 1995              		.loc 1 3017 0
ARM GAS  /tmp/cc6Bizie.s 			page 36


 1996 000e FFF7FEFF 		bl	move_window
 1997              	.LVL264:
 1998 0012 60BB     		cbnz	r0, .L184
 1999              	.LBB195:
 2000              	.LBB196:
 2001              		.loc 1 553 0
 2002 0014 94F84B22 		ldrb	r2, [r4, #587]	@ zero_extendqisi2
 2003 0018 94F84A32 		ldrb	r3, [r4, #586]	@ zero_extendqisi2
 2004 001c 43EA0223 		orr	r3, r3, r2, lsl #8
 2005              	.LBE196:
 2006              	.LBE195:
 2007              		.loc 1 3019 0
 2008 0020 4AF65522 		movw	r2, #43605
 2009 0024 9342     		cmp	r3, r2
 2010 0026 24D1     		bne	.L185
 2011              		.loc 1 3022 0
 2012 0028 0B22     		movs	r2, #11
 2013 002a 1549     		ldr	r1, .L193
 2014 002c 04F14C00 		add	r0, r4, #76
 2015 0030 FFF7FEFF 		bl	mem_cmp
 2016              	.LVL265:
 2017 0034 F8B1     		cbz	r0, .L186
 2018              		.loc 1 3024 0
 2019 0036 94F84C30 		ldrb	r3, [r4, #76]	@ zero_extendqisi2
 2020 003a E92B     		cmp	r3, #233
 2021 003c 05D0     		beq	.L183
 2022              		.loc 1 3024 0 is_stmt 0 discriminator 1
 2023 003e E36C     		ldr	r3, [r4, #76]
 2024 0040 104A     		ldr	r2, .L193+4
 2025 0042 03F0FF13 		and	r3, r3, #16711935
 2026 0046 9342     		cmp	r3, r2
 2027 0048 17D1     		bne	.L187
 2028              	.L183:
 2029              		.loc 1 3025 0 is_stmt 1
 2030 004a 0322     		movs	r2, #3
 2031 004c 0E49     		ldr	r1, .L193+8
 2032 004e 04F18200 		add	r0, r4, #130
 2033 0052 FFF7FEFF 		bl	mem_cmp
 2034              	.LVL266:
 2035 0056 88B1     		cbz	r0, .L182
 2036              	.LVL267:
 2037              	.LBB197:
 2038              	.LBB198:
 2039              		.loc 1 3026 0
 2040 0058 0522     		movs	r2, #5
 2041 005a 0C49     		ldr	r1, .L193+12
 2042 005c 04F19E00 		add	r0, r4, #158
 2043 0060 FFF7FEFF 		bl	mem_cmp
 2044              	.LVL268:
 2045              	.LBE198:
 2046              	.LBE197:
 2047              		.loc 1 3025 0
 2048 0064 0028     		cmp	r0, #0
 2049 0066 14BF     		ite	ne
 2050 0068 0220     		movne	r0, #2
 2051 006a 0020     		moveq	r0, #0
 2052 006c 10BD     		pop	{r4, pc}
ARM GAS  /tmp/cc6Bizie.s 			page 37


 2053              	.LVL269:
 2054              	.L184:
 2055              		.loc 1 3017 0
 2056 006e 0420     		movs	r0, #4
 2057 0070 10BD     		pop	{r4, pc}
 2058              	.LVL270:
 2059              	.L185:
 2060              		.loc 1 3019 0
 2061 0072 0320     		movs	r0, #3
 2062 0074 10BD     		pop	{r4, pc}
 2063              	.LVL271:
 2064              	.L186:
 2065              		.loc 1 3022 0
 2066 0076 0120     		movs	r0, #1
 2067 0078 10BD     		pop	{r4, pc}
 2068              	.LVL272:
 2069              	.L187:
 2070              	.LBB200:
 2071              	.LBB199:
 2072              		.loc 1 3028 0
 2073 007a 0220     		movs	r0, #2
 2074              	.L182:
 2075              	.LBE199:
 2076              	.LBE200:
 2077              		.loc 1 3029 0
 2078 007c 10BD     		pop	{r4, pc}
 2079              	.LVL273:
 2080              	.L194:
 2081 007e 00BF     		.align	2
 2082              	.L193:
 2083 0080 00000000 		.word	.LC0
 2084 0084 EB009000 		.word	9437419
 2085 0088 0C000000 		.word	.LC1
 2086 008c 10000000 		.word	.LC2
 2087              		.cfi_endproc
 2088              	.LFE342:
 2089              		.size	check_fs, .-check_fs
 2090              		.section	.text.find_volume,"ax",%progbits
 2091              		.align	1
 2092              		.syntax unified
 2093              		.thumb
 2094              		.thumb_func
 2095              		.fpu fpv4-sp-d16
 2096              		.type	find_volume, %function
 2097              	find_volume:
 2098              	.LFB343:
 2099              		.loc 1 3044 0
 2100              		.cfi_startproc
 2101              		@ args = 0, pretend = 0, frame = 16
 2102              		@ frame_needed = 0, uses_anonymous_args = 0
 2103              	.LVL274:
 2104 0000 2DE9F043 		push	{r4, r5, r6, r7, r8, r9, lr}
 2105              		.cfi_def_cfa_offset 28
 2106              		.cfi_offset 4, -28
 2107              		.cfi_offset 5, -24
 2108              		.cfi_offset 6, -20
 2109              		.cfi_offset 7, -16
ARM GAS  /tmp/cc6Bizie.s 			page 38


 2110              		.cfi_offset 8, -12
 2111              		.cfi_offset 9, -8
 2112              		.cfi_offset 14, -4
 2113              		.loc 1 3055 0
 2114 0004 0023     		movs	r3, #0
 2115              		.loc 1 3044 0
 2116 0006 85B0     		sub	sp, sp, #20
 2117              		.cfi_def_cfa_offset 48
 2118              		.loc 1 3055 0
 2119 0008 0B60     		str	r3, [r1]
 2120              		.loc 1 3044 0
 2121 000a 0F46     		mov	r7, r1
 2122 000c 1546     		mov	r5, r2
 2123              		.loc 1 3056 0
 2124 000e FFF7FEFF 		bl	get_ldnumber
 2125              	.LVL275:
 2126              		.loc 1 3057 0
 2127 0012 061E     		subs	r6, r0, #0
 2128 0014 C0F25181 		blt	.L230
 2129              		.loc 1 3060 0
 2130 0018 B04B     		ldr	r3, .L273
 2131 001a 53F82640 		ldr	r4, [r3, r6, lsl #2]
 2132              	.LVL276:
 2133              		.loc 1 3061 0
 2134 001e 002C     		cmp	r4, #0
 2135 0020 00F04D81 		beq	.L231
 2136              	.LVL277:
 2137              	.LBB201:
 2138              	.LBB202:
 2139              		.loc 1 731 0
 2140 0024 6069     		ldr	r0, [r4, #20]
 2141              	.LVL278:
 2142 0026 FFF7FEFF 		bl	ff_req_grant
 2143              	.LVL279:
 2144              	.LBE202:
 2145              	.LBE201:
 2146              		.loc 1 3063 0
 2147 002a 0028     		cmp	r0, #0
 2148 002c 00F04981 		beq	.L232
 2149              		.loc 1 3065 0
 2150 0030 3C60     		str	r4, [r7]
 2151              		.loc 1 3068 0
 2152 0032 2378     		ldrb	r3, [r4]	@ zero_extendqisi2
 2153              		.loc 1 3067 0
 2154 0034 05F0FE05 		and	r5, r5, #254
 2155              	.LVL280:
 2156              		.loc 1 3068 0
 2157 0038 73B1     		cbz	r3, .L197
 2158              		.loc 1 3069 0
 2159 003a 6078     		ldrb	r0, [r4, #1]	@ zero_extendqisi2
 2160 003c FFF7FEFF 		bl	disk_status
 2161              	.LVL281:
 2162              		.loc 1 3070 0
 2163 0040 C107     		lsls	r1, r0, #31
 2164 0042 09D4     		bmi	.L197
 2165              		.loc 1 3071 0
 2166 0044 002D     		cmp	r5, #0
ARM GAS  /tmp/cc6Bizie.s 			page 39


 2167 0046 00F03E81 		beq	.L233
 2168              		.loc 1 3071 0 is_stmt 0 discriminator 1
 2169 004a 10F00400 		ands	r0, r0, #4
 2170              	.LVL282:
 2171 004e 00D0     		beq	.L267
 2172              	.L199:
 2173              		.loc 1 3072 0 is_stmt 1
 2174 0050 0A20     		movs	r0, #10
 2175              	.LVL283:
 2176              	.L267:
 2177              		.loc 1 3255 0
 2178 0052 05B0     		add	sp, sp, #20
 2179              		.cfi_remember_state
 2180              		.cfi_def_cfa_offset 28
 2181              		@ sp needed
 2182 0054 BDE8F083 		pop	{r4, r5, r6, r7, r8, r9, pc}
 2183              	.LVL284:
 2184              	.L197:
 2185              		.cfi_restore_state
 2186              		.loc 1 3081 0
 2187 0058 0023     		movs	r3, #0
 2188              		.loc 1 3082 0
 2189 005a F0B2     		uxtb	r0, r6
 2190              		.loc 1 3081 0
 2191 005c 2370     		strb	r3, [r4]
 2192              		.loc 1 3082 0
 2193 005e 6070     		strb	r0, [r4, #1]
 2194              		.loc 1 3083 0
 2195 0060 FFF7FEFF 		bl	disk_initialize
 2196              	.LVL285:
 2197              		.loc 1 3084 0
 2198 0064 C207     		lsls	r2, r0, #31
 2199 0066 00F13081 		bmi	.L235
 2200              		.loc 1 3087 0
 2201 006a 0DB1     		cbz	r5, .L198
 2202              		.loc 1 3087 0 is_stmt 0 discriminator 1
 2203 006c 4307     		lsls	r3, r0, #29
 2204 006e EFD4     		bmi	.L199
 2205              	.L198:
 2206              	.LVL286:
 2207              		.loc 1 3097 0 is_stmt 1
 2208 0070 0021     		movs	r1, #0
 2209 0072 2046     		mov	r0, r4
 2210              	.LVL287:
 2211 0074 FFF7FEFF 		bl	check_fs
 2212              	.LVL288:
 2213              		.loc 1 3098 0
 2214 0078 0228     		cmp	r0, #2
 2215 007a 40F0A580 		bne	.L200
 2216 007e 04F21225 		addw	r5, r4, #530
 2217              	.LVL289:
 2218 0082 0021     		movs	r1, #0
 2219              	.LVL290:
 2220              	.L202:
 2221              		.loc 1 3101 0
 2222 0084 15F8040C 		ldrb	r0, [r5, #-4]	@ zero_extendqisi2
 2223 0088 10B1     		cbz	r0, .L201
ARM GAS  /tmp/cc6Bizie.s 			page 40


 2224              		.loc 1 3101 0 is_stmt 0 discriminator 1
 2225 008a 2846     		mov	r0, r5
 2226 008c FFF7FEFF 		bl	ld_dword
 2227              	.LVL291:
 2228              	.L201:
 2229              		.loc 1 3101 0 discriminator 4
 2230 0090 4DF82100 		str	r0, [sp, r1, lsl #2]
 2231              		.loc 1 3099 0 is_stmt 1 discriminator 4
 2232 0094 0131     		adds	r1, r1, #1
 2233              	.LVL292:
 2234 0096 0429     		cmp	r1, #4
 2235 0098 05F11005 		add	r5, r5, #16
 2236              	.LVL293:
 2237 009c F2D1     		bne	.L202
 2238 009e 0026     		movs	r6, #0
 2239              	.LVL294:
 2240              	.L205:
 2241              		.loc 1 3106 0
 2242 00a0 5DF82650 		ldr	r5, [sp, r6, lsl #2]
 2243              	.LVL295:
 2244              		.loc 1 3107 0
 2245 00a4 002D     		cmp	r5, #0
 2246 00a6 00F08780 		beq	.L237
 2247              		.loc 1 3107 0 is_stmt 0 discriminator 1
 2248 00aa 2946     		mov	r1, r5
 2249 00ac 2046     		mov	r0, r4
 2250 00ae FFF7FEFF 		bl	check_fs
 2251              	.LVL296:
 2252              		.loc 1 3108 0 is_stmt 1 discriminator 1
 2253 00b2 0128     		cmp	r0, #1
 2254 00b4 00F28180 		bhi	.L203
 2255              	.LVL297:
 2256              	.L204:
 2257              		.loc 1 3116 0
 2258 00b8 0128     		cmp	r0, #1
 2259 00ba 40F08F80 		bne	.L208
 2260 00be 04F15703 		add	r3, r4, #87
 2261 00c2 04F18C01 		add	r1, r4, #140
 2262              	.L209:
 2263              	.LBB203:
 2264              		.loc 1 3119 0 discriminator 3
 2265 00c6 13F8012B 		ldrb	r2, [r3], #1	@ zero_extendqisi2
 2266 00ca 002A     		cmp	r2, #0
 2267 00cc 40F08280 		bne	.L212
 2268              		.loc 1 3119 0 is_stmt 0 discriminator 4
 2269 00d0 8B42     		cmp	r3, r1
 2270 00d2 F8D1     		bne	.L209
 2271              	.LBB204:
 2272              	.LBB205:
 2273              		.loc 1 553 0 is_stmt 1
 2274 00d4 94F8B520 		ldrb	r2, [r4, #181]	@ zero_extendqisi2
 2275 00d8 94F8B430 		ldrb	r3, [r4, #180]	@ zero_extendqisi2
 2276 00dc 43EA0223 		orr	r3, r3, r2, lsl #8
 2277              	.LBE205:
 2278              	.LBE204:
 2279              		.loc 1 3122 0
 2280 00e0 B3F5807F 		cmp	r3, #256
ARM GAS  /tmp/cc6Bizie.s 			page 41


 2281 00e4 76D1     		bne	.L212
 2282              		.loc 1 3124 0
 2283 00e6 94F8B830 		ldrb	r3, [r4, #184]	@ zero_extendqisi2
 2284 00ea 092B     		cmp	r3, #9
 2285 00ec 72D1     		bne	.L212
 2286              		.loc 1 3128 0
 2287 00ee 04F19400 		add	r0, r4, #148
 2288              	.LVL298:
 2289 00f2 FFF7FEFF 		bl	ld_qword
 2290              	.LVL299:
 2291 00f6 4619     		adds	r6, r0, r5
 2292 00f8 41F10007 		adc	r7, r1, #0
 2293              	.LVL300:
 2294              		.loc 1 3129 0
 2295 00fc 012F     		cmp	r7, #1
 2296 00fe 08BF     		it	eq
 2297 0100 002E     		cmpeq	r6, #0
 2298 0102 67D2     		bcs	.L212
 2299              		.loc 1 3131 0
 2300 0104 04F1A000 		add	r0, r4, #160
 2301 0108 FFF7FEFF 		bl	ld_dword
 2302              	.LVL301:
 2303              		.loc 1 3133 0
 2304 010c 94F8BA80 		ldrb	r8, [r4, #186]	@ zero_extendqisi2
 2305              		.loc 1 3131 0
 2306 0110 6063     		str	r0, [r4, #52]
 2307              		.loc 1 3134 0
 2308 0112 B8F1010F 		cmp	r8, #1
 2309              		.loc 1 3133 0
 2310 0116 84F80280 		strb	r8, [r4, #2]
 2311              		.loc 1 3134 0
 2312 011a 5BD1     		bne	.L212
 2313              		.loc 1 3136 0
 2314 011c 94F8B930 		ldrb	r3, [r4, #185]	@ zero_extendqisi2
 2315 0120 08FA03F9 		lsl	r9, r8, r3
 2316 0124 1FFA89F3 		uxth	r3, r9
 2317 0128 6381     		strh	r3, [r4, #10]	@ movhi
 2318              		.loc 1 3137 0
 2319 012a 002B     		cmp	r3, #0
 2320 012c 52D0     		beq	.L212
 2321              		.loc 1 3139 0
 2322 012e 04F1A800 		add	r0, r4, #168
 2323 0132 FFF7FEFF 		bl	ld_dword
 2324              	.LVL302:
 2325              		.loc 1 3140 0
 2326 0136 6A4B     		ldr	r3, .L273+4
 2327 0138 9842     		cmp	r0, r3
 2328              		.loc 1 3139 0
 2329 013a 8046     		mov	r8, r0
 2330              	.LVL303:
 2331              		.loc 1 3140 0
 2332 013c 4AD8     		bhi	.L212
 2333              		.loc 1 3141 0
 2334 013e 831C     		adds	r3, r0, #2
 2335 0140 2363     		str	r3, [r4, #48]
 2336              		.loc 1 3144 0
 2337 0142 A563     		str	r5, [r4, #56]
ARM GAS  /tmp/cc6Bizie.s 			page 42


 2338              		.loc 1 3145 0
 2339 0144 04F1A400 		add	r0, r4, #164
 2340              	.LVL304:
 2341 0148 FFF7FEFF 		bl	ld_dword
 2342              	.LVL305:
 2343 014c 2918     		adds	r1, r5, r0
 2344 014e 6164     		str	r1, [r4, #68]
 2345              		.loc 1 3146 0
 2346 0150 04F19C00 		add	r0, r4, #156
 2347 0154 FFF7FEFF 		bl	ld_dword
 2348              	.LVL306:
 2349              		.loc 1 3147 0
 2350 0158 1FFA89F3 		uxth	r3, r9
 2351 015c 08FB03F8 		mul	r8, r8, r3
 2352              	.LVL307:
 2353 0160 11EB0802 		adds	r2, r1, r8
 2354 0164 4FF00003 		mov	r3, #0
 2355 0168 43F10003 		adc	r3, r3, #0
 2356 016c 9F42     		cmp	r7, r3
 2357              		.loc 1 3146 0
 2358 016e 2844     		add	r0, r0, r5
 2359              		.loc 1 3147 0
 2360 0170 08BF     		it	eq
 2361 0172 9642     		cmpeq	r6, r2
 2362              		.loc 1 3146 0
 2363 0174 E063     		str	r0, [r4, #60]
 2364              		.loc 1 3147 0
 2365 0176 2DD3     		bcc	.L212
 2366              		.loc 1 3148 0
 2367 0178 04F1AC00 		add	r0, r4, #172
 2368 017c FFF7FEFF 		bl	ld_dword
 2369              	.LVL308:
 2370 0180 0146     		mov	r1, r0
 2371 0182 2064     		str	r0, [r4, #64]
 2372              		.loc 1 3151 0
 2373 0184 2046     		mov	r0, r4
 2374 0186 FFF7FEFF 		bl	clst2sect
 2375              	.LVL309:
 2376 018a 0146     		mov	r1, r0
 2377 018c 2046     		mov	r0, r4
 2378 018e FFF7FEFF 		bl	move_window
 2379              	.LVL310:
 2380 0192 D8B9     		cbnz	r0, .L213
 2381 0194 04F16001 		add	r1, r4, #96
 2382 0198 04F51875 		add	r5, r4, #608
 2383              	.L216:
 2384              		.loc 1 3153 0
 2385 019c 11F8143C 		ldrb	r3, [r1, #-20]	@ zero_extendqisi2
 2386 01a0 812B     		cmp	r3, #129
 2387 01a2 05D1     		bne	.L214
 2388              		.loc 1 3153 0 is_stmt 0 discriminator 1
 2389 01a4 0846     		mov	r0, r1
 2390 01a6 FFF7FEFF 		bl	ld_dword
 2391              	.LVL311:
 2392 01aa 0228     		cmp	r0, #2
 2393 01ac 00F08F80 		beq	.L215
 2394              	.L214:
ARM GAS  /tmp/cc6Bizie.s 			page 43


 2395 01b0 2031     		adds	r1, r1, #32
 2396              		.loc 1 3152 0 is_stmt 1 discriminator 2
 2397 01b2 8D42     		cmp	r5, r1
 2398 01b4 F2D1     		bne	.L216
 2399 01b6 0DE0     		b	.L212
 2400              	.LVL312:
 2401              	.L237:
 2402              	.LBE203:
 2403              		.loc 1 3107 0
 2404 01b8 0320     		movs	r0, #3
 2405              	.L203:
 2406              		.loc 1 3108 0 discriminator 1
 2407 01ba 0136     		adds	r6, r6, #1
 2408              	.LVL313:
 2409 01bc 042E     		cmp	r6, #4
 2410 01be 7FF46FAF 		bne	.L205
 2411              	.LVL314:
 2412              		.loc 1 3110 0
 2413 01c2 0428     		cmp	r0, #4
 2414 01c4 06D1     		bne	.L212
 2415 01c6 01E0     		b	.L213
 2416              	.LVL315:
 2417              	.L200:
 2418 01c8 0428     		cmp	r0, #4
 2419 01ca 01D1     		bne	.L207
 2420              	.LVL316:
 2421              	.L213:
 2422 01cc 0120     		movs	r0, #1
 2423 01ce 40E7     		b	.L267
 2424              	.LVL317:
 2425              	.L207:
 2426              		.loc 1 3111 0
 2427 01d0 0128     		cmp	r0, #1
 2428 01d2 01D9     		bls	.L238
 2429              	.LVL318:
 2430              	.L212:
 2431 01d4 0D20     		movs	r0, #13
 2432 01d6 3CE7     		b	.L267
 2433              	.LVL319:
 2434              	.L238:
 2435              		.loc 1 3096 0
 2436 01d8 0025     		movs	r5, #0
 2437              	.LVL320:
 2438 01da 6DE7     		b	.L204
 2439              	.LVL321:
 2440              	.L208:
 2441              	.LBB206:
 2442              	.LBB207:
 2443              		.loc 1 553 0
 2444 01dc 94F85820 		ldrb	r2, [r4, #88]	@ zero_extendqisi2
 2445 01e0 94F85730 		ldrb	r3, [r4, #87]	@ zero_extendqisi2
 2446 01e4 43EA0223 		orr	r3, r3, r2, lsl #8
 2447              	.LBE207:
 2448              	.LBE206:
 2449              		.loc 1 3163 0
 2450 01e8 B3F5007F 		cmp	r3, #512
 2451 01ec F2D1     		bne	.L212
ARM GAS  /tmp/cc6Bizie.s 			page 44


 2452              	.LVL322:
 2453              	.LBB208:
 2454              	.LBB209:
 2455              		.loc 1 553 0
 2456 01ee 94F86330 		ldrb	r3, [r4, #99]	@ zero_extendqisi2
 2457 01f2 94F86260 		ldrb	r6, [r4, #98]	@ zero_extendqisi2
 2458              	.LVL323:
 2459              	.LBE209:
 2460              	.LBE208:
 2461              		.loc 1 3166 0
 2462 01f6 56EA0326 		orrs	r6, r6, r3, lsl #8
 2463              	.LVL324:
 2464 01fa 04D1     		bne	.L218
 2465              		.loc 1 3166 0 is_stmt 0 discriminator 1
 2466 01fc 04F17000 		add	r0, r4, #112
 2467              	.LVL325:
 2468 0200 FFF7FEFF 		bl	ld_dword
 2469              	.LVL326:
 2470 0204 0646     		mov	r6, r0
 2471              	.LVL327:
 2472              	.L218:
 2473              		.loc 1 3169 0 is_stmt 1
 2474 0206 94F85C30 		ldrb	r3, [r4, #92]	@ zero_extendqisi2
 2475              		.loc 1 3167 0
 2476 020a 6663     		str	r6, [r4, #52]
 2477              		.loc 1 3170 0
 2478 020c 5A1E     		subs	r2, r3, #1
 2479 020e 012A     		cmp	r2, #1
 2480              		.loc 1 3169 0
 2481 0210 A370     		strb	r3, [r4, #2]
 2482              		.loc 1 3170 0
 2483 0212 DFD8     		bhi	.L212
 2484              		.loc 1 3173 0
 2485 0214 94F85910 		ldrb	r1, [r4, #89]	@ zero_extendqisi2
 2486              		.loc 1 3171 0
 2487 0218 06FB03F7 		mul	r7, r6, r3
 2488              	.LVL328:
 2489              		.loc 1 3173 0
 2490 021c 8BB2     		uxth	r3, r1
 2491 021e 6381     		strh	r3, [r4, #10]	@ movhi
 2492              		.loc 1 3174 0
 2493 0220 002B     		cmp	r3, #0
 2494 0222 D7D0     		beq	.L212
 2495              		.loc 1 3174 0 is_stmt 0 discriminator 2
 2496 0224 4B1E     		subs	r3, r1, #1
 2497 0226 0B42     		tst	r3, r1
 2498 0228 D4D1     		bne	.L212
 2499              	.LVL329:
 2500              	.LBB210:
 2501              	.LBB211:
 2502              		.loc 1 553 0 is_stmt 1
 2503 022a 94F85E30 		ldrb	r3, [r4, #94]	@ zero_extendqisi2
 2504 022e 94F85D80 		ldrb	r8, [r4, #93]	@ zero_extendqisi2
 2505 0232 48EA0328 		orr	r8, r8, r3, lsl #8
 2506              	.LVL330:
 2507              	.LBE211:
 2508              	.LBE210:
ARM GAS  /tmp/cc6Bizie.s 			page 45


 2509              		.loc 1 3177 0
 2510 0236 18F00F0F 		tst	r8, #15
 2511              		.loc 1 3176 0
 2512 023a A4F80880 		strh	r8, [r4, #8]	@ movhi
 2513              		.loc 1 3177 0
 2514 023e C9D1     		bne	.L212
 2515              	.LVL331:
 2516              	.LBB212:
 2517              	.LBB213:
 2518              		.loc 1 553 0
 2519 0240 94F86030 		ldrb	r3, [r4, #96]	@ zero_extendqisi2
 2520 0244 94F85F00 		ldrb	r0, [r4, #95]	@ zero_extendqisi2
 2521              	.LVL332:
 2522              	.LBE213:
 2523              	.LBE212:
 2524              		.loc 1 3180 0
 2525 0248 50EA0320 		orrs	r0, r0, r3, lsl #8
 2526              	.LVL333:
 2527 024c 03D1     		bne	.L219
 2528              		.loc 1 3180 0 is_stmt 0 discriminator 1
 2529 024e 04F16C00 		add	r0, r4, #108
 2530              	.LVL334:
 2531 0252 FFF7FEFF 		bl	ld_dword
 2532              	.LVL335:
 2533              	.L219:
 2534              	.LBB214:
 2535              	.LBB215:
 2536              		.loc 1 553 0 is_stmt 1
 2537 0256 94F85B20 		ldrb	r2, [r4, #91]	@ zero_extendqisi2
 2538 025a 94F85A30 		ldrb	r3, [r4, #90]	@ zero_extendqisi2
 2539              	.LBE215:
 2540              	.LBE214:
 2541              		.loc 1 3183 0
 2542 025e 53EA0223 		orrs	r3, r3, r2, lsl #8
 2543 0262 B7D0     		beq	.L212
 2544              		.loc 1 3186 0
 2545 0264 03EB1812 		add	r2, r3, r8, lsr #4
 2546 0268 3A44     		add	r2, r2, r7
 2547              	.LVL336:
 2548              		.loc 1 3187 0
 2549 026a 9042     		cmp	r0, r2
 2550 026c B2D3     		bcc	.L212
 2551              		.loc 1 3188 0
 2552 026e 801A     		subs	r0, r0, r2
 2553              	.LVL337:
 2554 0270 B0FBF1F0 		udiv	r0, r0, r1
 2555              	.LVL338:
 2556              		.loc 1 3189 0
 2557 0274 1B49     		ldr	r1, .L273+8
 2558 0276 00F1FF3E 		add	lr, r0, #-1
 2559 027a 8E45     		cmp	lr, r1
 2560 027c AAD8     		bhi	.L212
 2561              	.LVL339:
 2562              		.loc 1 3192 0
 2563 027e 4FF6F571 		movw	r1, #65525
 2564 0282 8842     		cmp	r0, r1
 2565 0284 2B44     		add	r3, r3, r5
ARM GAS  /tmp/cc6Bizie.s 			page 46


 2566 0286 00F10201 		add	r1, r0, #2
 2567 028a 2A44     		add	r2, r2, r5
 2568              	.LVL340:
 2569 028c 2CD8     		bhi	.L220
 2570              	.LVL341:
 2571              		.loc 1 3193 0
 2572 028e 40F6F57E 		movw	lr, #4085
 2573 0292 7045     		cmp	r0, lr
 2574              		.loc 1 3197 0
 2575 0294 2163     		str	r1, [r4, #48]
 2576              		.loc 1 3198 0
 2577 0296 A563     		str	r5, [r4, #56]
 2578              		.loc 1 3199 0
 2579 0298 E363     		str	r3, [r4, #60]
 2580              		.loc 1 3200 0
 2581 029a 6264     		str	r2, [r4, #68]
 2582              		.loc 1 3193 0
 2583 029c 00F28480 		bhi	.L221
 2584              	.LVL342:
 2585              		.loc 1 3207 0
 2586 02a0 B8F1000F 		cmp	r8, #0
 2587 02a4 96D0     		beq	.L212
 2588              		.loc 1 3208 0
 2589 02a6 3B44     		add	r3, r3, r7
 2590 02a8 2364     		str	r3, [r4, #64]
 2591              		.loc 1 3210 0
 2592 02aa 01EB4103 		add	r3, r1, r1, lsl #1
 2593 02ae 01F00101 		and	r1, r1, #1
 2594 02b2 01EB5301 		add	r1, r1, r3, lsr #1
 2595 02b6 0127     		movs	r7, #1
 2596              	.LVL343:
 2597 02b8 2DE0     		b	.L229
 2598              	.LVL344:
 2599              	.L230:
 2600              		.loc 1 3057 0
 2601 02ba 0B20     		movs	r0, #11
 2602              	.LVL345:
 2603 02bc C9E6     		b	.L267
 2604              	.LVL346:
 2605              	.L231:
 2606              		.loc 1 3061 0
 2607 02be 0C20     		movs	r0, #12
 2608              	.LVL347:
 2609 02c0 C7E6     		b	.L267
 2610              	.LVL348:
 2611              	.L232:
 2612              		.loc 1 3063 0
 2613 02c2 0F20     		movs	r0, #15
 2614 02c4 C5E6     		b	.L267
 2615              	.LVL349:
 2616              	.L233:
 2617              		.loc 1 3074 0
 2618 02c6 2846     		mov	r0, r5
 2619              	.LVL350:
 2620 02c8 C3E6     		b	.L267
 2621              	.LVL351:
 2622              	.L235:
ARM GAS  /tmp/cc6Bizie.s 			page 47


 2623              		.loc 1 3085 0
 2624 02ca 0320     		movs	r0, #3
 2625              	.LVL352:
 2626 02cc C1E6     		b	.L267
 2627              	.LVL353:
 2628              	.L215:
 2629              	.LBB216:
 2630              		.loc 1 3157 0
 2631 02ce 4FF0FF33 		mov	r3, #-1
 2632 02d2 E361     		str	r3, [r4, #28]
 2633 02d4 A361     		str	r3, [r4, #24]
 2634              	.LVL354:
 2635              		.loc 1 3159 0
 2636 02d6 0427     		movs	r7, #4
 2637              	.LBE216:
 2638 02d8 5CE0     		b	.L223
 2639              	.L274:
 2640 02da 00BF     		.align	2
 2641              	.L273:
 2642 02dc 00000000 		.word	.LANCHOR0
 2643 02e0 FDFFFF7F 		.word	2147483645
 2644 02e4 F4FFFF0F 		.word	268435444
 2645              	.LVL355:
 2646              	.L220:
 2647              		.loc 1 3199 0
 2648 02e8 E363     		str	r3, [r4, #60]
 2649              		.loc 1 3200 0
 2650 02ea 6264     		str	r2, [r4, #68]
 2651              	.LBB217:
 2652              	.LBB218:
 2653              		.loc 1 553 0
 2654 02ec 94F87630 		ldrb	r3, [r4, #118]	@ zero_extendqisi2
 2655 02f0 94F87720 		ldrb	r2, [r4, #119]	@ zero_extendqisi2
 2656              	.LBE218:
 2657              	.LBE217:
 2658              		.loc 1 3197 0
 2659 02f4 2163     		str	r1, [r4, #48]
 2660              		.loc 1 3202 0
 2661 02f6 53EA0223 		orrs	r3, r3, r2, lsl #8
 2662              		.loc 1 3198 0
 2663 02fa A563     		str	r5, [r4, #56]
 2664              		.loc 1 3202 0
 2665 02fc 7FF46AAF 		bne	.L212
 2666              		.loc 1 3203 0
 2667 0300 B8F1000F 		cmp	r8, #0
 2668 0304 7FF466AF 		bne	.L212
 2669              		.loc 1 3204 0
 2670 0308 04F17800 		add	r0, r4, #120
 2671              	.LVL356:
 2672 030c FFF7FEFF 		bl	ld_dword
 2673              	.LVL357:
 2674 0310 0327     		movs	r7, #3
 2675              	.LVL358:
 2676 0312 2064     		str	r0, [r4, #64]
 2677              		.loc 1 3205 0
 2678 0314 8900     		lsls	r1, r1, #2
 2679              	.LVL359:
ARM GAS  /tmp/cc6Bizie.s 			page 48


 2680              	.L229:
 2681              		.loc 1 3212 0
 2682 0316 01F2FF11 		addw	r1, r1, #511
 2683              	.LVL360:
 2684 031a B6EB512F 		cmp	r6, r1, lsr #9
 2685 031e FFF459AF 		bcc	.L212
 2686              		.loc 1 3216 0
 2687 0322 4FF0FF33 		mov	r3, #-1
 2688 0326 E361     		str	r3, [r4, #28]
 2689 0328 A361     		str	r3, [r4, #24]
 2690              		.loc 1 3219 0
 2691 032a 032F     		cmp	r7, #3
 2692              		.loc 1 3217 0
 2693 032c 4FF08003 		mov	r3, #128
 2694 0330 2371     		strb	r3, [r4, #4]
 2695              		.loc 1 3219 0
 2696 0332 2FD1     		bne	.L223
 2697              	.LBB219:
 2698              	.LBB220:
 2699              		.loc 1 553 0
 2700 0334 94F87D20 		ldrb	r2, [r4, #125]	@ zero_extendqisi2
 2701 0338 94F87C30 		ldrb	r3, [r4, #124]	@ zero_extendqisi2
 2702 033c 43EA0223 		orr	r3, r3, r2, lsl #8
 2703              	.LBE220:
 2704              	.LBE219:
 2705              		.loc 1 3220 0
 2706 0340 012B     		cmp	r3, #1
 2707 0342 27D1     		bne	.L223
 2708              		.loc 1 3221 0
 2709 0344 691C     		adds	r1, r5, #1
 2710              	.LVL361:
 2711 0346 2046     		mov	r0, r4
 2712 0348 FFF7FEFF 		bl	move_window
 2713              	.LVL362:
 2714 034c 10BB     		cbnz	r0, .L223
 2715              	.LBB221:
 2716              	.LBB222:
 2717              		.loc 1 553 0
 2718 034e 94F84B22 		ldrb	r2, [r4, #587]	@ zero_extendqisi2
 2719 0352 94F84A32 		ldrb	r3, [r4, #586]	@ zero_extendqisi2
 2720              	.LBE222:
 2721              	.LBE221:
 2722              		.loc 1 3223 0
 2723 0356 2071     		strb	r0, [r4, #4]
 2724              	.LBB224:
 2725              	.LBB223:
 2726              		.loc 1 553 0
 2727 0358 43EA0223 		orr	r3, r3, r2, lsl #8
 2728              	.LBE223:
 2729              	.LBE224:
 2730              		.loc 1 3224 0
 2731 035c 4AF65522 		movw	r2, #43605
 2732 0360 9342     		cmp	r3, r2
 2733 0362 17D1     		bne	.L223
 2734              		.loc 1 3225 0
 2735 0364 04F14C00 		add	r0, r4, #76
 2736 0368 FFF7FEFF 		bl	ld_dword
ARM GAS  /tmp/cc6Bizie.s 			page 49


 2737              	.LVL363:
 2738 036c 134B     		ldr	r3, .L275
 2739 036e 9842     		cmp	r0, r3
 2740 0370 10D1     		bne	.L223
 2741              		.loc 1 3226 0
 2742 0372 04F50C70 		add	r0, r4, #560
 2743 0376 FFF7FEFF 		bl	ld_dword
 2744              	.LVL364:
 2745 037a 114B     		ldr	r3, .L275+4
 2746 037c 9842     		cmp	r0, r3
 2747 037e 09D1     		bne	.L223
 2748              		.loc 1 3229 0
 2749 0380 04F50D70 		add	r0, r4, #564
 2750 0384 FFF7FEFF 		bl	ld_dword
 2751              	.LVL365:
 2752 0388 E061     		str	r0, [r4, #28]
 2753              		.loc 1 3232 0
 2754 038a 04F50E70 		add	r0, r4, #568
 2755 038e FFF7FEFF 		bl	ld_dword
 2756              	.LVL366:
 2757 0392 A061     		str	r0, [r4, #24]
 2758              	.L223:
 2759              	.LVL367:
 2760              		.loc 1 3241 0
 2761 0394 0B4A     		ldr	r2, .L275+8
 2762              		.loc 1 3240 0
 2763 0396 2770     		strb	r7, [r4]
 2764              		.loc 1 3241 0
 2765 0398 1388     		ldrh	r3, [r2]
 2766 039a 0133     		adds	r3, r3, #1
 2767 039c 9BB2     		uxth	r3, r3
 2768              		.loc 1 3249 0
 2769 039e 0020     		movs	r0, #0
 2770              		.loc 1 3241 0
 2771 03a0 1380     		strh	r3, [r2]	@ movhi
 2772 03a2 E380     		strh	r3, [r4, #6]	@ movhi
 2773              		.loc 1 3249 0
 2774 03a4 2062     		str	r0, [r4, #32]
 2775              		.loc 1 3254 0
 2776 03a6 54E6     		b	.L267
 2777              	.LVL368:
 2778              	.L221:
 2779              		.loc 1 3207 0
 2780 03a8 B8F1000F 		cmp	r8, #0
 2781 03ac 3FF412AF 		beq	.L212
 2782              		.loc 1 3208 0
 2783 03b0 3B44     		add	r3, r3, r7
 2784 03b2 2364     		str	r3, [r4, #64]
 2785              		.loc 1 3210 0
 2786 03b4 4900     		lsls	r1, r1, #1
 2787 03b6 0227     		movs	r7, #2
 2788              	.LVL369:
 2789 03b8 ADE7     		b	.L229
 2790              	.L276:
 2791 03ba 00BF     		.align	2
 2792              	.L275:
 2793 03bc 52526141 		.word	1096897106
ARM GAS  /tmp/cc6Bizie.s 			page 50


 2794 03c0 72724161 		.word	1631679090
 2795 03c4 00000000 		.word	.LANCHOR1
 2796              		.cfi_endproc
 2797              	.LFE343:
 2798              		.size	find_volume, .-find_volume
 2799              		.section	.text.put_fat,"ax",%progbits
 2800              		.align	1
 2801              		.syntax unified
 2802              		.thumb
 2803              		.thumb_func
 2804              		.fpu fpv4-sp-d16
 2805              		.type	put_fat, %function
 2806              	put_fat:
 2807              	.LFB309:
 2808              		.loc 1 1063 0
 2809              		.cfi_startproc
 2810              		@ args = 0, pretend = 0, frame = 0
 2811              		@ frame_needed = 0, uses_anonymous_args = 0
 2812              	.LVL370:
 2813              		.loc 1 1069 0
 2814 0000 0129     		cmp	r1, #1
 2815              		.loc 1 1063 0
 2816 0002 2DE9F047 		push	{r4, r5, r6, r7, r8, r9, r10, lr}
 2817              		.cfi_def_cfa_offset 32
 2818              		.cfi_offset 4, -32
 2819              		.cfi_offset 5, -28
 2820              		.cfi_offset 6, -24
 2821              		.cfi_offset 7, -20
 2822              		.cfi_offset 8, -16
 2823              		.cfi_offset 9, -12
 2824              		.cfi_offset 10, -8
 2825              		.cfi_offset 14, -4
 2826              		.loc 1 1063 0
 2827 0006 0546     		mov	r5, r0
 2828 0008 0C46     		mov	r4, r1
 2829 000a 1646     		mov	r6, r2
 2830              		.loc 1 1069 0
 2831 000c 79D9     		bls	.L290
 2832              		.loc 1 1069 0 is_stmt 0 discriminator 1
 2833 000e 036B     		ldr	r3, [r0, #48]
 2834 0010 9942     		cmp	r1, r3
 2835 0012 76D2     		bcs	.L290
 2836              	.LVL371:
 2837              	.LBB229:
 2838              	.LBB230:
 2839              		.loc 1 1070 0 is_stmt 1
 2840 0014 0378     		ldrb	r3, [r0]	@ zero_extendqisi2
 2841 0016 013B     		subs	r3, r3, #1
 2842 0018 032B     		cmp	r3, #3
 2843 001a 72D8     		bhi	.L290
 2844 001c DFE803F0 		tbb	[pc, r3]
 2845              	.LVL372:
 2846              	.L280:
 2847 0020 02       		.byte	(.L279-.L280)/2
 2848 0021 3E       		.byte	(.L281-.L280)/2
 2849 0022 51       		.byte	(.L282-.L280)/2
 2850 0023 51       		.byte	(.L282-.L280)/2
ARM GAS  /tmp/cc6Bizie.s 			page 51


 2851              		.p2align 1
 2852              	.L279:
 2853              		.loc 1 1072 0
 2854 0024 01EB5108 		add	r8, r1, r1, lsr #1
 2855              	.LVL373:
 2856              		.loc 1 1073 0
 2857 0028 C16B     		ldr	r1, [r0, #60]
 2858              	.LVL374:
 2859 002a 01EB5821 		add	r1, r1, r8, lsr #9
 2860 002e FFF7FEFF 		bl	move_window
 2861              	.LVL375:
 2862              		.loc 1 1074 0
 2863 0032 0746     		mov	r7, r0
 2864 0034 38BB     		cbnz	r0, .L278
 2865              		.loc 1 1075 0
 2866 0036 05F14C09 		add	r9, r5, #76
 2867 003a 08F1010A 		add	r10, r8, #1
 2868              	.LVL376:
 2869 003e C8F30808 		ubfx	r8, r8, #0, #9
 2870              	.LVL377:
 2871              		.loc 1 1076 0
 2872 0042 14F00104 		ands	r4, r4, #1
 2873              	.LVL378:
 2874 0046 1FBF     		itttt	ne
 2875 0048 19F80830 		ldrbne	r3, [r9, r8]	@ zero_extendqisi2
 2876 004c 03F00F02 		andne	r2, r3, #15
 2877 0050 3301     		lslne	r3, r6, #4
 2878 0052 03F0F003 		andne	r3, r3, #240
 2879 0056 14BF     		ite	ne
 2880 0058 1343     		orrne	r3, r3, r2
 2881 005a F3B2     		uxtbeq	r3, r6
 2882 005c 09F80830 		strb	r3, [r9, r8]
 2883              		.loc 1 1078 0
 2884 0060 E96B     		ldr	r1, [r5, #60]
 2885              		.loc 1 1077 0
 2886 0062 0123     		movs	r3, #1
 2887 0064 EB70     		strb	r3, [r5, #3]
 2888              		.loc 1 1078 0
 2889 0066 01EB5A21 		add	r1, r1, r10, lsr #9
 2890 006a 2846     		mov	r0, r5
 2891              	.LVL379:
 2892 006c FFF7FEFF 		bl	move_window
 2893              	.LVL380:
 2894              		.loc 1 1079 0
 2895 0070 0746     		mov	r7, r0
 2896 0072 40B9     		cbnz	r0, .L278
 2897              		.loc 1 1080 0
 2898 0074 CAF3080A 		ubfx	r10, r10, #0, #9
 2899              	.LVL381:
 2900              		.loc 1 1081 0
 2901 0078 44B1     		cbz	r4, .L285
 2902 007a C6F30716 		ubfx	r6, r6, #4, #8
 2903              	.LVL382:
 2904              	.L286:
 2905 007e 09F80A60 		strb	r6, [r9, r10]
 2906              	.LVL383:
 2907              	.L294:
ARM GAS  /tmp/cc6Bizie.s 			page 52


 2908              		.loc 1 1102 0
 2909 0082 0123     		movs	r3, #1
 2910 0084 EB70     		strb	r3, [r5, #3]
 2911              	.LVL384:
 2912              	.L278:
 2913              	.LBE230:
 2914              	.LBE229:
 2915              		.loc 1 1107 0
 2916 0086 3846     		mov	r0, r7
 2917 0088 BDE8F087 		pop	{r4, r5, r6, r7, r8, r9, r10, pc}
 2918              	.LVL385:
 2919              	.L285:
 2920              	.LBB234:
 2921              	.LBB233:
 2922              		.loc 1 1081 0
 2923 008c 19F80A20 		ldrb	r2, [r9, r10]	@ zero_extendqisi2
 2924 0090 C6F30326 		ubfx	r6, r6, #8, #4
 2925              	.LVL386:
 2926 0094 22F00F02 		bic	r2, r2, #15
 2927 0098 1643     		orrs	r6, r6, r2
 2928 009a F0E7     		b	.L286
 2929              	.LVL387:
 2930              	.L281:
 2931              		.loc 1 1086 0
 2932 009c C16B     		ldr	r1, [r0, #60]
 2933              	.LVL388:
 2934 009e 01EB1421 		add	r1, r1, r4, lsr #8
 2935 00a2 FFF7FEFF 		bl	move_window
 2936              	.LVL389:
 2937              		.loc 1 1087 0
 2938 00a6 0746     		mov	r7, r0
 2939 00a8 0028     		cmp	r0, #0
 2940 00aa ECD1     		bne	.L278
 2941              		.loc 1 1088 0
 2942 00ac 6400     		lsls	r4, r4, #1
 2943              	.LVL390:
 2944 00ae 05F14C03 		add	r3, r5, #76
 2945 00b2 04F4FF74 		and	r4, r4, #510
 2946 00b6 1919     		adds	r1, r3, r4
 2947              	.LVL391:
 2948              	.LBB231:
 2949              	.LBB232:
 2950              		.loc 1 591 0
 2951 00b8 1E55     		strb	r6, [r3, r4]
 2952              	.LVL392:
 2953 00ba C6F30726 		ubfx	r6, r6, #8, #8
 2954              	.LVL393:
 2955              		.loc 1 592 0
 2956 00be 4E70     		strb	r6, [r1, #1]
 2957              	.LVL394:
 2958 00c0 DFE7     		b	.L294
 2959              	.LVL395:
 2960              	.L282:
 2961              	.LBE232:
 2962              	.LBE231:
 2963              		.loc 1 1096 0
 2964 00c2 C16B     		ldr	r1, [r0, #60]
ARM GAS  /tmp/cc6Bizie.s 			page 53


 2965              	.LVL396:
 2966 00c4 01EBD411 		add	r1, r1, r4, lsr #7
 2967 00c8 FFF7FEFF 		bl	move_window
 2968              	.LVL397:
 2969              		.loc 1 1097 0
 2970 00cc 0746     		mov	r7, r0
 2971 00ce 0028     		cmp	r0, #0
 2972 00d0 D9D1     		bne	.L278
 2973              		.loc 1 1098 0
 2974 00d2 A846     		mov	r8, r5
 2975 00d4 A400     		lsls	r4, r4, #2
 2976              	.LVL398:
 2977 00d6 18F84C3B 		ldrb	r3, [r8], #76	@ zero_extendqisi2
 2978 00da 042B     		cmp	r3, #4
 2979 00dc 09D0     		beq	.L287
 2980              		.loc 1 1099 0
 2981 00de 04F4FE70 		and	r0, r4, #508
 2982              	.LVL399:
 2983 00e2 4044     		add	r0, r0, r8
 2984 00e4 FFF7FEFF 		bl	ld_dword
 2985              	.LVL400:
 2986 00e8 26F07046 		bic	r6, r6, #-268435456
 2987              	.LVL401:
 2988 00ec 00F07040 		and	r0, r0, #-268435456
 2989 00f0 0643     		orrs	r6, r6, r0
 2990              	.LVL402:
 2991              	.L287:
 2992              		.loc 1 1101 0
 2993 00f2 04F4FE74 		and	r4, r4, #508
 2994 00f6 3146     		mov	r1, r6
 2995 00f8 08EB0400 		add	r0, r8, r4
 2996 00fc FFF7FEFF 		bl	st_dword
 2997              	.LVL403:
 2998 0100 BFE7     		b	.L294
 2999              	.LVL404:
 3000              	.L290:
 3001              		.loc 1 1066 0
 3002 0102 0227     		movs	r7, #2
 3003 0104 BFE7     		b	.L278
 3004              	.LBE233:
 3005              	.LBE234:
 3006              		.cfi_endproc
 3007              	.LFE309:
 3008              		.size	put_fat, .-put_fat
 3009              		.section	.text.fill_last_frag,"ax",%progbits
 3010              		.align	1
 3011              		.syntax unified
 3012              		.thumb
 3013              		.thumb_func
 3014              		.fpu fpv4-sp-d16
 3015              		.type	fill_last_frag, %function
 3016              	fill_last_frag:
 3017              	.LFB313:
 3018              		.loc 1 1231 0
 3019              		.cfi_startproc
 3020              		@ args = 0, pretend = 0, frame = 0
 3021              		@ frame_needed = 0, uses_anonymous_args = 0
ARM GAS  /tmp/cc6Bizie.s 			page 54


 3022              	.LVL405:
 3023 0000 70B5     		push	{r4, r5, r6, lr}
 3024              		.cfi_def_cfa_offset 16
 3025              		.cfi_offset 4, -16
 3026              		.cfi_offset 5, -12
 3027              		.cfi_offset 6, -8
 3028              		.cfi_offset 14, -4
 3029 0002 0446     		mov	r4, r0
 3030 0004 0D46     		mov	r5, r1
 3031 0006 1646     		mov	r6, r2
 3032              	.LVL406:
 3033              	.L296:
 3034              		.loc 1 1235 0
 3035 0008 E369     		ldr	r3, [r4, #28]
 3036 000a 0BB9     		cbnz	r3, .L299
 3037              		.loc 1 1240 0
 3038 000c 1846     		mov	r0, r3
 3039              	.L298:
 3040              		.loc 1 1241 0
 3041 000e 70BD     		pop	{r4, r5, r6, pc}
 3042              	.LVL407:
 3043              	.L299:
 3044              		.loc 1 1236 0
 3045 0010 EA1A     		subs	r2, r5, r3
 3046 0012 012B     		cmp	r3, #1
 3047 0014 02F10101 		add	r1, r2, #1
 3048 0018 2068     		ldr	r0, [r4]
 3049 001a 8CBF     		ite	hi
 3050 001c 0232     		addhi	r2, r2, #2
 3051 001e 3246     		movls	r2, r6
 3052 0020 FFF7FEFF 		bl	put_fat
 3053              	.LVL408:
 3054              		.loc 1 1237 0
 3055 0024 0028     		cmp	r0, #0
 3056 0026 F2D1     		bne	.L298
 3057              		.loc 1 1238 0
 3058 0028 E369     		ldr	r3, [r4, #28]
 3059 002a 013B     		subs	r3, r3, #1
 3060 002c E361     		str	r3, [r4, #28]
 3061 002e EBE7     		b	.L296
 3062              		.cfi_endproc
 3063              	.LFE313:
 3064              		.size	fill_last_frag, .-fill_last_frag
 3065              		.section	.text.remove_chain,"ax",%progbits
 3066              		.align	1
 3067              		.syntax unified
 3068              		.thumb
 3069              		.thumb_func
 3070              		.fpu fpv4-sp-d16
 3071              		.type	remove_chain, %function
 3072              	remove_chain:
 3073              	.LFB314:
 3074              		.loc 1 1257 0
 3075              		.cfi_startproc
 3076              		@ args = 0, pretend = 0, frame = 0
 3077              		@ frame_needed = 0, uses_anonymous_args = 0
 3078              	.LVL409:
ARM GAS  /tmp/cc6Bizie.s 			page 55


 3079              		.loc 1 1268 0
 3080 0000 0129     		cmp	r1, #1
 3081              		.loc 1 1257 0
 3082 0002 2DE9F843 		push	{r3, r4, r5, r6, r7, r8, r9, lr}
 3083              		.cfi_def_cfa_offset 32
 3084              		.cfi_offset 3, -32
 3085              		.cfi_offset 4, -28
 3086              		.cfi_offset 5, -24
 3087              		.cfi_offset 6, -20
 3088              		.cfi_offset 7, -16
 3089              		.cfi_offset 8, -12
 3090              		.cfi_offset 9, -8
 3091              		.cfi_offset 14, -4
 3092              		.loc 1 1257 0
 3093 0006 0646     		mov	r6, r0
 3094 0008 0D46     		mov	r5, r1
 3095 000a 1746     		mov	r7, r2
 3096              		.loc 1 1268 0
 3097 000c 02D8     		bhi	.L302
 3098              	.LVL410:
 3099              	.L304:
 3100 000e 0220     		movs	r0, #2
 3101 0010 BDE8F883 		pop	{r3, r4, r5, r6, r7, r8, r9, pc}
 3102              	.LVL411:
 3103              	.L302:
 3104              		.loc 1 1260 0 discriminator 2
 3105 0014 0468     		ldr	r4, [r0]
 3106              		.loc 1 1268 0 discriminator 2
 3107 0016 236B     		ldr	r3, [r4, #48]
 3108 0018 9942     		cmp	r1, r3
 3109 001a F8D2     		bcs	.L304
 3110              		.loc 1 1271 0
 3111 001c 7AB9     		cbnz	r2, .L305
 3112              	.LVL412:
 3113              	.L308:
 3114              		.loc 1 1257 0
 3115 001e A946     		mov	r9, r5
 3116              	.LVL413:
 3117              	.L306:
 3118              		.loc 1 1278 0
 3119 0020 2946     		mov	r1, r5
 3120 0022 3046     		mov	r0, r6
 3121 0024 FFF7FEFF 		bl	get_fat
 3122              	.LVL414:
 3123              		.loc 1 1279 0
 3124 0028 8046     		mov	r8, r0
 3125 002a C0B9     		cbnz	r0, .L309
 3126              	.LVL415:
 3127              	.L318:
 3128              		.loc 1 1313 0
 3129 002c 2378     		ldrb	r3, [r4]	@ zero_extendqisi2
 3130 002e 042B     		cmp	r3, #4
 3131 0030 02D1     		bne	.L336
 3132              		.loc 1 1314 0
 3133 0032 002F     		cmp	r7, #0
 3134 0034 48D1     		bne	.L319
 3135              		.loc 1 1315 0
ARM GAS  /tmp/cc6Bizie.s 			page 56


 3136 0036 F771     		strb	r7, [r6, #7]
 3137              	.LVL416:
 3138              	.L336:
 3139              		.loc 1 1337 0
 3140 0038 0020     		movs	r0, #0
 3141              	.L303:
 3142              		.loc 1 1338 0
 3143 003a BDE8F883 		pop	{r3, r4, r5, r6, r7, r8, r9, pc}
 3144              	.LVL417:
 3145              	.L305:
 3146              		.loc 1 1271 0 discriminator 1
 3147 003e 2378     		ldrb	r3, [r4]	@ zero_extendqisi2
 3148 0040 042B     		cmp	r3, #4
 3149 0042 02D1     		bne	.L307
 3150              		.loc 1 1271 0 is_stmt 0 discriminator 2
 3151 0044 C379     		ldrb	r3, [r0, #7]	@ zero_extendqisi2
 3152 0046 022B     		cmp	r3, #2
 3153 0048 E9D0     		beq	.L308
 3154              	.L307:
 3155              		.loc 1 1272 0 is_stmt 1
 3156 004a 4FF0FF32 		mov	r2, #-1
 3157              	.LVL418:
 3158 004e 3946     		mov	r1, r7
 3159              	.LVL419:
 3160 0050 2046     		mov	r0, r4
 3161              	.LVL420:
 3162 0052 FFF7FEFF 		bl	put_fat
 3163              	.LVL421:
 3164              		.loc 1 1273 0
 3165 0056 0028     		cmp	r0, #0
 3166 0058 E1D0     		beq	.L308
 3167 005a BDE8F883 		pop	{r3, r4, r5, r6, r7, r8, r9, pc}
 3168              	.LVL422:
 3169              	.L309:
 3170              		.loc 1 1280 0
 3171 005e 0128     		cmp	r0, #1
 3172 0060 D5D0     		beq	.L304
 3173              		.loc 1 1281 0
 3174 0062 B0F1FF3F 		cmp	r0, #-1
 3175 0066 02D1     		bne	.L312
 3176              	.LVL423:
 3177              	.L322:
 3178 0068 0120     		movs	r0, #1
 3179              	.LVL424:
 3180 006a BDE8F883 		pop	{r3, r4, r5, r6, r7, r8, r9, pc}
 3181              	.LVL425:
 3182              	.L312:
 3183              		.loc 1 1282 0
 3184 006e 2378     		ldrb	r3, [r4]	@ zero_extendqisi2
 3185 0070 042B     		cmp	r3, #4
 3186 0072 19D1     		bne	.L313
 3187              	.LVL426:
 3188              	.L316:
 3189              		.loc 1 1286 0
 3190 0074 226B     		ldr	r2, [r4, #48]
 3191 0076 E369     		ldr	r3, [r4, #28]
 3192 0078 023A     		subs	r2, r2, #2
ARM GAS  /tmp/cc6Bizie.s 			page 57


 3193 007a 9342     		cmp	r3, r2
 3194 007c 1DD3     		bcc	.L314
 3195              	.L315:
 3196              		.loc 1 1291 0
 3197 007e 6A1C     		adds	r2, r5, #1
 3198 0080 9045     		cmp	r8, r2
 3199 0082 0CD0     		beq	.L317
 3200              		.loc 1 1295 0
 3201 0084 2378     		ldrb	r3, [r4]	@ zero_extendqisi2
 3202 0086 042B     		cmp	r3, #4
 3203 0088 08D1     		bne	.L325
 3204              		.loc 1 1296 0
 3205 008a 0023     		movs	r3, #0
 3206 008c A2EB0902 		sub	r2, r2, r9
 3207 0090 4946     		mov	r1, r9
 3208 0092 2046     		mov	r0, r4
 3209 0094 FFF7FEFF 		bl	change_bitmap
 3210              	.LVL427:
 3211              		.loc 1 1297 0
 3212 0098 0028     		cmp	r0, #0
 3213 009a CED1     		bne	.L303
 3214              	.LVL428:
 3215              	.L325:
 3216 009c C146     		mov	r9, r8
 3217              	.LVL429:
 3218              	.L317:
 3219              		.loc 1 1309 0
 3220 009e 236B     		ldr	r3, [r4, #48]
 3221 00a0 9845     		cmp	r8, r3
 3222 00a2 4546     		mov	r5, r8
 3223 00a4 BCD3     		bcc	.L306
 3224              	.LVL430:
 3225 00a6 C1E7     		b	.L318
 3226              	.LVL431:
 3227              	.L313:
 3228              		.loc 1 1283 0
 3229 00a8 0022     		movs	r2, #0
 3230 00aa 2946     		mov	r1, r5
 3231 00ac 2046     		mov	r0, r4
 3232              	.LVL432:
 3233 00ae FFF7FEFF 		bl	put_fat
 3234              	.LVL433:
 3235              		.loc 1 1284 0
 3236 00b2 0028     		cmp	r0, #0
 3237 00b4 DED0     		beq	.L316
 3238 00b6 BDE8F883 		pop	{r3, r4, r5, r6, r7, r8, r9, pc}
 3239              	.LVL434:
 3240              	.L314:
 3241              		.loc 1 1287 0
 3242 00ba 0133     		adds	r3, r3, #1
 3243 00bc E361     		str	r3, [r4, #28]
 3244              		.loc 1 1288 0
 3245 00be 2379     		ldrb	r3, [r4, #4]	@ zero_extendqisi2
 3246 00c0 43F00103 		orr	r3, r3, #1
 3247 00c4 2371     		strb	r3, [r4, #4]
 3248 00c6 DAE7     		b	.L315
 3249              	.L319:
ARM GAS  /tmp/cc6Bizie.s 			page 58


 3250              		.loc 1 1317 0
 3251 00c8 F379     		ldrb	r3, [r6, #7]	@ zero_extendqisi2
 3252 00ca 93B9     		cbnz	r3, .L320
 3253              		.loc 1 1318 0
 3254 00cc B468     		ldr	r4, [r6, #8]
 3255              	.LVL435:
 3256              	.L321:
 3257              		.loc 1 1319 0
 3258 00ce BC42     		cmp	r4, r7
 3259 00d0 02D1     		bne	.L323
 3260              	.LVL436:
 3261              	.L324:
 3262              		.loc 1 1331 0
 3263 00d2 0223     		movs	r3, #2
 3264 00d4 F371     		strb	r3, [r6, #7]
 3265 00d6 AFE7     		b	.L336
 3266              	.LVL437:
 3267              	.L323:
 3268              		.loc 1 1320 0
 3269 00d8 2146     		mov	r1, r4
 3270 00da 3046     		mov	r0, r6
 3271 00dc FFF7FEFF 		bl	get_fat
 3272              	.LVL438:
 3273              		.loc 1 1321 0
 3274 00e0 0128     		cmp	r0, #1
 3275 00e2 94D9     		bls	.L304
 3276              		.loc 1 1322 0
 3277 00e4 431C     		adds	r3, r0, #1
 3278 00e6 BFD0     		beq	.L322
 3279              		.loc 1 1323 0
 3280 00e8 631C     		adds	r3, r4, #1
 3281 00ea 9842     		cmp	r0, r3
 3282 00ec 0446     		mov	r4, r0
 3283              	.LVL439:
 3284 00ee EED0     		beq	.L321
 3285 00f0 A2E7     		b	.L336
 3286              	.LVL440:
 3287              	.L320:
 3288              		.loc 1 1330 0
 3289 00f2 032B     		cmp	r3, #3
 3290 00f4 A0D1     		bne	.L336
 3291              		.loc 1 1330 0 is_stmt 0 discriminator 1
 3292 00f6 B368     		ldr	r3, [r6, #8]
 3293 00f8 9F42     		cmp	r7, r3
 3294 00fa 9DD3     		bcc	.L336
 3295              		.loc 1 1330 0 discriminator 2
 3296 00fc B269     		ldr	r2, [r6, #24]
 3297 00fe 1344     		add	r3, r3, r2
 3298 0100 9F42     		cmp	r7, r3
 3299 0102 E6D9     		bls	.L324
 3300 0104 98E7     		b	.L336
 3301              		.cfi_endproc
 3302              	.LFE314:
 3303              		.size	remove_chain, .-remove_chain
 3304              		.section	.text.fill_first_frag,"ax",%progbits
 3305              		.align	1
 3306              		.syntax unified
ARM GAS  /tmp/cc6Bizie.s 			page 59


 3307              		.thumb
 3308              		.thumb_func
 3309              		.fpu fpv4-sp-d16
 3310              		.type	fill_first_frag, %function
 3311              	fill_first_frag:
 3312              	.LFB312:
 3313              		.loc 1 1205 0 is_stmt 1
 3314              		.cfi_startproc
 3315              		@ args = 0, pretend = 0, frame = 0
 3316              		@ frame_needed = 0, uses_anonymous_args = 0
 3317              	.LVL441:
 3318 0000 70B5     		push	{r4, r5, r6, lr}
 3319              		.cfi_def_cfa_offset 16
 3320              		.cfi_offset 4, -16
 3321              		.cfi_offset 5, -12
 3322              		.cfi_offset 6, -8
 3323              		.cfi_offset 14, -4
 3324              		.loc 1 1210 0
 3325 0002 C379     		ldrb	r3, [r0, #7]	@ zero_extendqisi2
 3326 0004 032B     		cmp	r3, #3
 3327              		.loc 1 1205 0
 3328 0006 0446     		mov	r4, r0
 3329              		.loc 1 1210 0
 3330 0008 10D1     		bne	.L341
 3331              	.LVL442:
 3332              	.LBB237:
 3333              	.LBB238:
 3334              		.loc 1 1211 0
 3335 000a 8168     		ldr	r1, [r0, #8]
 3336              	.LVL443:
 3337 000c 8369     		ldr	r3, [r0, #24]
 3338 000e CD18     		adds	r5, r1, r3
 3339              	.LVL444:
 3340              	.L339:
 3341 0010 A942     		cmp	r1, r5
 3342 0012 02D1     		bne	.L340
 3343              		.loc 1 1215 0
 3344 0014 0020     		movs	r0, #0
 3345 0016 E071     		strb	r0, [r4, #7]
 3346 0018 70BD     		pop	{r4, r5, r6, pc}
 3347              	.LVL445:
 3348              	.L340:
 3349              		.loc 1 1212 0
 3350 001a 4E1C     		adds	r6, r1, #1
 3351 001c 3246     		mov	r2, r6
 3352 001e 2068     		ldr	r0, [r4]
 3353 0020 FFF7FEFF 		bl	put_fat
 3354              	.LVL446:
 3355              		.loc 1 1211 0
 3356 0024 3146     		mov	r1, r6
 3357              		.loc 1 1213 0
 3358 0026 0028     		cmp	r0, #0
 3359 0028 F2D0     		beq	.L339
 3360              	.LVL447:
 3361              	.L338:
 3362              	.LBE238:
 3363              	.LBE237:
ARM GAS  /tmp/cc6Bizie.s 			page 60


 3364              		.loc 1 1218 0
 3365 002a 70BD     		pop	{r4, r5, r6, pc}
 3366              	.LVL448:
 3367              	.L341:
 3368              		.loc 1 1217 0
 3369 002c 0020     		movs	r0, #0
 3370              	.LVL449:
 3371 002e FCE7     		b	.L338
 3372              		.cfi_endproc
 3373              	.LFE312:
 3374              		.size	fill_first_frag, .-fill_first_frag
 3375              		.section	.text.unlock_fs,"ax",%progbits
 3376              		.align	1
 3377              		.syntax unified
 3378              		.thumb
 3379              		.thumb_func
 3380              		.fpu fpv4-sp-d16
 3381              		.type	unlock_fs, %function
 3382              	unlock_fs:
 3383              	.LFB303:
 3384              		.loc 1 740 0
 3385              		.cfi_startproc
 3386              		@ args = 0, pretend = 0, frame = 0
 3387              		@ frame_needed = 0, uses_anonymous_args = 0
 3388              		@ link register save eliminated.
 3389              	.LVL450:
 3390              		.loc 1 741 0
 3391 0000 40B1     		cbz	r0, .L342
 3392              		.loc 1 741 0 is_stmt 0 discriminator 2
 3393 0002 A1F10B03 		sub	r3, r1, #11
 3394 0006 012B     		cmp	r3, #1
 3395 0008 04D9     		bls	.L342
 3396              	.LVL451:
 3397              	.LBB241:
 3398              	.LBB242:
 3399              		.loc 1 741 0
 3400 000a 0F29     		cmp	r1, #15
 3401 000c 02D0     		beq	.L342
 3402              		.loc 1 742 0 is_stmt 1
 3403 000e 4069     		ldr	r0, [r0, #20]
 3404              	.LVL452:
 3405 0010 FFF7FEBF 		b	ff_rel_grant
 3406              	.LVL453:
 3407              	.L342:
 3408 0014 7047     		bx	lr
 3409              	.LBE242:
 3410              	.LBE241:
 3411              		.cfi_endproc
 3412              	.LFE303:
 3413              		.size	unlock_fs, .-unlock_fs
 3414              		.section	.text.validate,"ax",%progbits
 3415              		.align	1
 3416              		.syntax unified
 3417              		.thumb
 3418              		.thumb_func
 3419              		.fpu fpv4-sp-d16
 3420              		.type	validate, %function
ARM GAS  /tmp/cc6Bizie.s 			page 61


 3421              	validate:
 3422              	.LFB344:
 3423              		.loc 1 3269 0
 3424              		.cfi_startproc
 3425              		@ args = 0, pretend = 0, frame = 0
 3426              		@ frame_needed = 0, uses_anonymous_args = 0
 3427              	.LVL454:
 3428 0000 38B5     		push	{r3, r4, r5, lr}
 3429              		.cfi_def_cfa_offset 16
 3430              		.cfi_offset 3, -16
 3431              		.cfi_offset 4, -12
 3432              		.cfi_offset 5, -8
 3433              		.cfi_offset 14, -4
 3434              		.loc 1 3269 0
 3435 0002 0D46     		mov	r5, r1
 3436              		.loc 1 3273 0
 3437 0004 0446     		mov	r4, r0
 3438 0006 B8B1     		cbz	r0, .L356
 3439              		.loc 1 3273 0 is_stmt 0 discriminator 1
 3440 0008 0368     		ldr	r3, [r0]
 3441 000a C3B1     		cbz	r3, .L354
 3442              		.loc 1 3273 0 discriminator 2
 3443 000c 1A78     		ldrb	r2, [r3]	@ zero_extendqisi2
 3444 000e 9AB1     		cbz	r2, .L356
 3445              		.loc 1 3273 0 discriminator 3
 3446 0010 8188     		ldrh	r1, [r0, #4]
 3447              	.LVL455:
 3448 0012 DA88     		ldrh	r2, [r3, #6]
 3449 0014 9142     		cmp	r1, r2
 3450 0016 0FD1     		bne	.L356
 3451              	.LVL456:
 3452              	.LBB243:
 3453              	.LBB244:
 3454              		.loc 1 731 0 is_stmt 1
 3455 0018 5869     		ldr	r0, [r3, #20]
 3456              	.LVL457:
 3457 001a FFF7FEFF 		bl	ff_req_grant
 3458              	.LVL458:
 3459              	.LBE244:
 3460              	.LBE243:
 3461              		.loc 1 3275 0
 3462 001e 0346     		mov	r3, r0
 3463 0020 80B1     		cbz	r0, .L357
 3464              		.loc 1 3276 0
 3465 0022 2368     		ldr	r3, [r4]
 3466 0024 5878     		ldrb	r0, [r3, #1]	@ zero_extendqisi2
 3467 0026 FFF7FEFF 		bl	disk_status
 3468              	.LVL459:
 3469 002a 10F00100 		ands	r0, r0, #1
 3470 002e 0BD0     		beq	.L352
 3471              		.loc 1 3279 0
 3472 0030 0021     		movs	r1, #0
 3473 0032 2068     		ldr	r0, [r4]
 3474 0034 FFF7FEFF 		bl	unlock_fs
 3475              	.LVL460:
 3476              	.L356:
 3477              		.loc 1 3270 0
ARM GAS  /tmp/cc6Bizie.s 			page 62


 3478 0038 0920     		movs	r0, #9
 3479              		.loc 1 3290 0
 3480 003a 0023     		movs	r3, #0
 3481 003c 00E0     		b	.L351
 3482              	.LVL461:
 3483              	.L354:
 3484              		.loc 1 3270 0
 3485 003e 0920     		movs	r0, #9
 3486              	.LVL462:
 3487              	.L351:
 3488              		.loc 1 3290 0 discriminator 4
 3489 0040 2B60     		str	r3, [r5]
 3490              		.loc 1 3292 0 discriminator 4
 3491 0042 38BD     		pop	{r3, r4, r5, pc}
 3492              	.LVL463:
 3493              	.L357:
 3494              		.loc 1 3282 0
 3495 0044 0F20     		movs	r0, #15
 3496 0046 FBE7     		b	.L351
 3497              	.L352:
 3498              	.LVL464:
 3499              		.loc 1 3290 0
 3500 0048 2368     		ldr	r3, [r4]
 3501 004a F9E7     		b	.L351
 3502              		.cfi_endproc
 3503              	.LFE344:
 3504              		.size	validate, .-validate
 3505              		.section	.text.create_chain,"ax",%progbits
 3506              		.align	1
 3507              		.syntax unified
 3508              		.thumb
 3509              		.thumb_func
 3510              		.fpu fpv4-sp-d16
 3511              		.type	create_chain, %function
 3512              	create_chain:
 3513              	.LFB315:
 3514              		.loc 1 1351 0
 3515              		.cfi_startproc
 3516              		@ args = 0, pretend = 0, frame = 0
 3517              		@ frame_needed = 0, uses_anonymous_args = 0
 3518              	.LVL465:
 3519 0000 2DE9F84F 		push	{r3, r4, r5, r6, r7, r8, r9, r10, fp, lr}
 3520              		.cfi_def_cfa_offset 40
 3521              		.cfi_offset 3, -40
 3522              		.cfi_offset 4, -36
 3523              		.cfi_offset 5, -32
 3524              		.cfi_offset 6, -28
 3525              		.cfi_offset 7, -24
 3526              		.cfi_offset 8, -20
 3527              		.cfi_offset 9, -16
 3528              		.cfi_offset 10, -12
 3529              		.cfi_offset 11, -8
 3530              		.cfi_offset 14, -4
 3531              		.loc 1 1351 0
 3532 0004 0746     		mov	r7, r0
 3533              		.loc 1 1354 0
 3534 0006 0568     		ldr	r5, [r0]
ARM GAS  /tmp/cc6Bizie.s 			page 63


 3535              	.LVL466:
 3536              		.loc 1 1357 0
 3537 0008 8946     		mov	r9, r1
 3538 000a 49B9     		cbnz	r1, .L360
 3539              		.loc 1 1358 0
 3540 000c AE69     		ldr	r6, [r5, #24]
 3541              	.LVL467:
 3542              		.loc 1 1359 0
 3543 000e CEB1     		cbz	r6, .L391
 3544              		.loc 1 1359 0 is_stmt 0 discriminator 2
 3545 0010 2B6B     		ldr	r3, [r5, #48]
 3546 0012 9E42     		cmp	r6, r3
 3547 0014 28BF     		it	cs
 3548 0016 0126     		movcs	r6, #1
 3549              	.LVL468:
 3550              	.L361:
 3551              		.loc 1 1368 0 is_stmt 1
 3552 0018 EB69     		ldr	r3, [r5, #28]
 3553 001a ABB9     		cbnz	r3, .L365
 3554              	.L388:
 3555 001c 0024     		movs	r4, #0
 3556 001e 09E0     		b	.L359
 3557              	.LVL469:
 3558              	.L360:
 3559              		.loc 1 1362 0
 3560 0020 FFF7FEFF 		bl	get_fat
 3561              	.LVL470:
 3562              		.loc 1 1363 0
 3563 0024 0128     		cmp	r0, #1
 3564              		.loc 1 1362 0
 3565 0026 0446     		mov	r4, r0
 3566              	.LVL471:
 3567              		.loc 1 1363 0
 3568 0028 40F2DB80 		bls	.L362
 3569              		.loc 1 1364 0
 3570 002c 421C     		adds	r2, r0, #1
 3571 002e 04D1     		bne	.L363
 3572              	.LVL472:
 3573              	.L374:
 3574              		.loc 1 1414 0
 3575 0030 4FF0FF34 		mov	r4, #-1
 3576              	.L359:
 3577              		.loc 1 1438 0
 3578 0034 2046     		mov	r0, r4
 3579 0036 BDE8F88F 		pop	{r3, r4, r5, r6, r7, r8, r9, r10, fp, pc}
 3580              	.LVL473:
 3581              	.L363:
 3582              		.loc 1 1365 0
 3583 003a 2B6B     		ldr	r3, [r5, #48]
 3584 003c 9842     		cmp	r0, r3
 3585 003e F9D3     		bcc	.L359
 3586 0040 4E46     		mov	r6, r9
 3587 0042 E9E7     		b	.L361
 3588              	.LVL474:
 3589              	.L391:
 3590              		.loc 1 1359 0
 3591 0044 0126     		movs	r6, #1
ARM GAS  /tmp/cc6Bizie.s 			page 64


 3592              	.LVL475:
 3593 0046 E7E7     		b	.L361
 3594              	.LVL476:
 3595              	.L365:
 3596              		.loc 1 1371 0
 3597 0048 2B78     		ldrb	r3, [r5]	@ zero_extendqisi2
 3598 004a 042B     		cmp	r3, #4
 3599 004c 2B6B     		ldr	r3, [r5, #48]
 3600 004e 40F08580 		bne	.L366
 3601              	.LVL477:
 3602              	.LBB247:
 3603              	.LBB248:
 3604              		.loc 1 1135 0
 3605 0052 A6F1020A 		sub	r10, r6, #2
 3606              	.LVL478:
 3607              		.loc 1 1136 0
 3608 0056 023B     		subs	r3, r3, #2
 3609 0058 9A45     		cmp	r10, r3
 3610 005a 28BF     		it	cs
 3611 005c 4FF0000A 		movcs	r10, #0
 3612              	.LVL479:
 3613              		.loc 1 1137 0
 3614 0060 D046     		mov	r8, r10
 3615              		.loc 1 1140 0
 3616 0062 4FF0010B 		mov	fp, #1
 3617              	.LVL480:
 3618              	.L373:
 3619              		.loc 1 1139 0
 3620 0066 696C     		ldr	r1, [r5, #68]
 3621 0068 2846     		mov	r0, r5
 3622 006a 01EB1831 		add	r1, r1, r8, lsr #12
 3623 006e FFF7FEFF 		bl	move_window
 3624              	.LVL481:
 3625 0072 0028     		cmp	r0, #0
 3626 0074 46D1     		bne	.L392
 3627              		.loc 1 1140 0
 3628 0076 08F00703 		and	r3, r8, #7
 3629              		.loc 1 1144 0
 3630 007a 2A6B     		ldr	r2, [r5, #48]
 3631              		.loc 1 1140 0
 3632 007c 0BFA03F3 		lsl	r3, fp, r3
 3633 0080 C8F3C801 		ubfx	r1, r8, #3, #9
 3634              	.LVL482:
 3635 0084 DBB2     		uxtb	r3, r3
 3636              	.LVL483:
 3637              		.loc 1 1144 0
 3638 0086 901E     		subs	r0, r2, #2
 3639              	.LVL484:
 3640              	.L372:
 3641              		.loc 1 1143 0
 3642 0088 6A18     		adds	r2, r5, r1
 3643              		.loc 1 1154 0
 3644 008a 4446     		mov	r4, r8
 3645              	.LVL485:
 3646              		.loc 1 1143 0
 3647 008c 92F84C20 		ldrb	r2, [r2, #76]	@ zero_extendqisi2
 3648              		.loc 1 1144 0
ARM GAS  /tmp/cc6Bizie.s 			page 65


 3649 0090 08F10108 		add	r8, r8, #1
 3650 0094 8045     		cmp	r8, r0
 3651              		.loc 1 1143 0
 3652 0096 02EA0302 		and	r2, r2, r3
 3653              	.LVL486:
 3654              		.loc 1 1145 0
 3655 009a 2DBF     		iteet	cs
 3656 009c 4FF00008 		movcs	r8, #0
 3657              	.LVL487:
 3658              		.loc 1 1143 0
 3659 00a0 5B00     		lslcc	r3, r3, #1
 3660              	.LVL488:
 3661 00a2 DBB2     		uxtbcc	r3, r3
 3662              		.loc 1 1145 0
 3663 00a4 4FF40071 		movcs	r1, #512
 3664              	.LVL489:
 3665 00a8 28BF     		it	cs
 3666 00aa 4346     		movcs	r3, r8
 3667              	.LVL490:
 3668              		.loc 1 1147 0
 3669 00ac 02BB     		cbnz	r2, .L371
 3670              	.LVL491:
 3671              		.loc 1 1148 0
 3672 00ae 0234     		adds	r4, r4, #2
 3673              	.LVL492:
 3674              	.L368:
 3675              	.LBE248:
 3676              	.LBE247:
 3677              		.loc 1 1373 0
 3678 00b0 631E     		subs	r3, r4, #1
 3679 00b2 0333     		adds	r3, r3, #3
 3680 00b4 BED8     		bhi	.L359
 3681              		.loc 1 1374 0
 3682 00b6 0123     		movs	r3, #1
 3683 00b8 1A46     		mov	r2, r3
 3684 00ba 2146     		mov	r1, r4
 3685 00bc 2846     		mov	r0, r5
 3686 00be FFF7FEFF 		bl	change_bitmap
 3687              	.LVL493:
 3688              		.loc 1 1375 0
 3689 00c2 0228     		cmp	r0, #2
 3690 00c4 00F08D80 		beq	.L362
 3691              		.loc 1 1376 0
 3692 00c8 0128     		cmp	r0, #1
 3693 00ca B1D0     		beq	.L374
 3694              		.loc 1 1377 0
 3695 00cc B9F1000F 		cmp	r9, #0
 3696 00d0 1DD1     		bne	.L375
 3697              		.loc 1 1378 0
 3698 00d2 0223     		movs	r3, #2
 3699              	.LVL494:
 3700              	.L431:
 3701              		.loc 1 1382 0
 3702 00d4 FB71     		strb	r3, [r7, #7]
 3703              	.L376:
 3704              		.loc 1 1385 0
 3705 00d6 FB79     		ldrb	r3, [r7, #7]	@ zero_extendqisi2
ARM GAS  /tmp/cc6Bizie.s 			page 66


 3706 00d8 022B     		cmp	r3, #2
 3707 00da 07D0     		beq	.L377
 3708              		.loc 1 1386 0
 3709 00dc 09F10103 		add	r3, r9, #1
 3710 00e0 A342     		cmp	r3, r4
 3711 00e2 FB69     		ldr	r3, [r7, #28]
 3712 00e4 20D1     		bne	.L378
 3713              		.loc 1 1387 0
 3714 00e6 EBB1     		cbz	r3, .L396
 3715              		.loc 1 1387 0 is_stmt 0 discriminator 1
 3716 00e8 0133     		adds	r3, r3, #1
 3717              	.L379:
 3718              		.loc 1 1387 0 discriminator 4
 3719 00ea FB61     		str	r3, [r7, #28]
 3720              	.L377:
 3721              	.LVL495:
 3722              		.loc 1 1429 0 is_stmt 1
 3723 00ec 40B3     		cbz	r0, .L382
 3724 00ee 78E0     		b	.L362
 3725              	.LVL496:
 3726              	.L371:
 3727              	.LBB250:
 3728              	.LBB249:
 3729              		.loc 1 1152 0
 3730 00f0 C245     		cmp	r10, r8
 3731 00f2 0AD0     		beq	.L394
 3732              		.loc 1 1153 0
 3733 00f4 002B     		cmp	r3, #0
 3734 00f6 C7D1     		bne	.L372
 3735              	.LVL497:
 3736              		.loc 1 1155 0
 3737 00f8 0131     		adds	r1, r1, #1
 3738              	.LVL498:
 3739 00fa B1F5007F 		cmp	r1, #512
 3740 00fe B2D2     		bcs	.L373
 3741              		.loc 1 1154 0
 3742 0100 0123     		movs	r3, #1
 3743 0102 C1E7     		b	.L372
 3744              	.LVL499:
 3745              	.L392:
 3746              		.loc 1 1139 0
 3747 0104 4FF0FF34 		mov	r4, #-1
 3748 0108 D2E7     		b	.L368
 3749              	.LVL500:
 3750              	.L394:
 3751              		.loc 1 1152 0
 3752 010a 0024     		movs	r4, #0
 3753 010c D0E7     		b	.L368
 3754              	.LVL501:
 3755              	.L375:
 3756              	.LBE249:
 3757              	.LBE250:
 3758              		.loc 1 1380 0
 3759 010e FB79     		ldrb	r3, [r7, #7]	@ zero_extendqisi2
 3760 0110 022B     		cmp	r3, #2
 3761 0112 E0D1     		bne	.L376
 3762              		.loc 1 1380 0 is_stmt 0 discriminator 1
ARM GAS  /tmp/cc6Bizie.s 			page 67


 3763 0114 731C     		adds	r3, r6, #1
 3764 0116 A342     		cmp	r3, r4
 3765 0118 DDD0     		beq	.L376
 3766              		.loc 1 1381 0 is_stmt 1
 3767 011a BB68     		ldr	r3, [r7, #8]
 3768 011c F61A     		subs	r6, r6, r3
 3769              	.LVL502:
 3770 011e BE61     		str	r6, [r7, #24]
 3771              		.loc 1 1382 0
 3772 0120 0323     		movs	r3, #3
 3773 0122 D7E7     		b	.L431
 3774              	.L396:
 3775              		.loc 1 1387 0
 3776 0124 0223     		movs	r3, #2
 3777 0126 E0E7     		b	.L379
 3778              	.L378:
 3779              		.loc 1 1389 0
 3780 0128 0BB9     		cbnz	r3, .L380
 3781              		.loc 1 1389 0 is_stmt 0 discriminator 1
 3782 012a 0123     		movs	r3, #1
 3783 012c FB61     		str	r3, [r7, #28]
 3784              	.L380:
 3785              		.loc 1 1390 0 is_stmt 1
 3786 012e 2246     		mov	r2, r4
 3787 0130 4946     		mov	r1, r9
 3788 0132 3846     		mov	r0, r7
 3789              	.LVL503:
 3790 0134 FFF7FEFF 		bl	fill_last_frag
 3791              	.LVL504:
 3792              		.loc 1 1391 0
 3793 0138 0028     		cmp	r0, #0
 3794 013a 4FD1     		bne	.L381
 3795              		.loc 1 1391 0 is_stmt 0 discriminator 1
 3796 013c 0123     		movs	r3, #1
 3797 013e FB61     		str	r3, [r7, #28]
 3798              	.L382:
 3799              	.LVL505:
 3800              		.loc 1 1431 0 is_stmt 1
 3801 0140 2A6B     		ldr	r2, [r5, #48]
 3802 0142 EB69     		ldr	r3, [r5, #28]
 3803              		.loc 1 1430 0
 3804 0144 AC61     		str	r4, [r5, #24]
 3805              		.loc 1 1431 0
 3806 0146 023A     		subs	r2, r2, #2
 3807 0148 9342     		cmp	r3, r2
 3808 014a 9CBF     		itt	ls
 3809 014c 03F1FF33 		addls	r3, r3, #-1
 3810 0150 EB61     		strls	r3, [r5, #28]
 3811              		.loc 1 1432 0
 3812 0152 2B79     		ldrb	r3, [r5, #4]	@ zero_extendqisi2
 3813 0154 43F00103 		orr	r3, r3, #1
 3814 0158 2B71     		strb	r3, [r5, #4]
 3815 015a 6BE7     		b	.L359
 3816              	.LVL506:
 3817              	.L366:
 3818              		.loc 1 1398 0
 3819 015c 4E45     		cmp	r6, r9
ARM GAS  /tmp/cc6Bizie.s 			page 68


 3820 015e 14D1     		bne	.L383
 3821              		.loc 1 1399 0
 3822 0160 741C     		adds	r4, r6, #1
 3823              	.LVL507:
 3824              		.loc 1 1400 0
 3825 0162 9C42     		cmp	r4, r3
 3826 0164 28BF     		it	cs
 3827 0166 0224     		movcs	r4, #2
 3828              	.LVL508:
 3829              		.loc 1 1401 0
 3830 0168 2146     		mov	r1, r4
 3831 016a 3846     		mov	r0, r7
 3832 016c FFF7FEFF 		bl	get_fat
 3833              	.LVL509:
 3834              		.loc 1 1402 0
 3835 0170 0128     		cmp	r0, #1
 3836 0172 36D0     		beq	.L362
 3837              		.loc 1 1402 0 is_stmt 0 discriminator 2
 3838 0174 431C     		adds	r3, r0, #1
 3839 0176 3FF45BAF 		beq	.L374
 3840              		.loc 1 1403 0 is_stmt 1
 3841 017a E0B1     		cbz	r0, .L385
 3842              		.loc 1 1404 0
 3843 017c AB69     		ldr	r3, [r5, #24]
 3844              	.LVL510:
 3845              		.loc 1 1405 0
 3846 017e 012B     		cmp	r3, #1
 3847 0180 03D9     		bls	.L383
 3848              		.loc 1 1405 0 is_stmt 0 discriminator 1
 3849 0182 2A6B     		ldr	r2, [r5, #48]
 3850 0184 9342     		cmp	r3, r2
 3851 0186 38BF     		it	cc
 3852 0188 1E46     		movcc	r6, r3
 3853              	.LVL511:
 3854              	.L383:
 3855 018a 3446     		mov	r4, r6
 3856              	.L389:
 3857              	.LVL512:
 3858              		.loc 1 1413 0 is_stmt 1
 3859 018c 2B6B     		ldr	r3, [r5, #48]
 3860              		.loc 1 1412 0
 3861 018e 0134     		adds	r4, r4, #1
 3862              	.LVL513:
 3863              		.loc 1 1413 0
 3864 0190 9C42     		cmp	r4, r3
 3865 0192 03D3     		bcc	.L387
 3866              	.LVL514:
 3867              		.loc 1 1415 0
 3868 0194 012E     		cmp	r6, #1
 3869 0196 7FF641AF 		bls	.L388
 3870              		.loc 1 1414 0
 3871 019a 0224     		movs	r4, #2
 3872              	.LVL515:
 3873              	.L387:
 3874              		.loc 1 1417 0
 3875 019c 2146     		mov	r1, r4
 3876 019e 3846     		mov	r0, r7
ARM GAS  /tmp/cc6Bizie.s 			page 69


 3877 01a0 FFF7FEFF 		bl	get_fat
 3878              	.LVL516:
 3879              		.loc 1 1418 0
 3880 01a4 48B1     		cbz	r0, .L386
 3881              		.loc 1 1419 0
 3882 01a6 0128     		cmp	r0, #1
 3883 01a8 1BD0     		beq	.L362
 3884              		.loc 1 1419 0 is_stmt 0 discriminator 2
 3885 01aa 0130     		adds	r0, r0, #1
 3886              	.LVL517:
 3887 01ac 3FF440AF 		beq	.L374
 3888              		.loc 1 1420 0 is_stmt 1
 3889 01b0 B442     		cmp	r4, r6
 3890 01b2 EBD1     		bne	.L389
 3891 01b4 32E7     		b	.L388
 3892              	.LVL518:
 3893              	.L385:
 3894              		.loc 1 1409 0
 3895 01b6 002C     		cmp	r4, #0
 3896 01b8 E7D0     		beq	.L383
 3897              	.L386:
 3898              		.loc 1 1423 0
 3899 01ba 4FF0FF32 		mov	r2, #-1
 3900 01be 2146     		mov	r1, r4
 3901 01c0 2846     		mov	r0, r5
 3902              	.LVL519:
 3903 01c2 FFF7FEFF 		bl	put_fat
 3904              	.LVL520:
 3905              		.loc 1 1424 0
 3906 01c6 48B9     		cbnz	r0, .L381
 3907              		.loc 1 1424 0 is_stmt 0 discriminator 1
 3908 01c8 B9F1000F 		cmp	r9, #0
 3909 01cc B8D0     		beq	.L382
 3910              		.loc 1 1425 0 is_stmt 1
 3911 01ce 2246     		mov	r2, r4
 3912 01d0 4946     		mov	r1, r9
 3913 01d2 2846     		mov	r0, r5
 3914              	.LVL521:
 3915 01d4 FFF7FEFF 		bl	put_fat
 3916              	.LVL522:
 3917              		.loc 1 1429 0
 3918 01d8 0028     		cmp	r0, #0
 3919 01da B1D0     		beq	.L382
 3920              	.LVL523:
 3921              	.L381:
 3922              		.loc 1 1434 0
 3923 01dc 0128     		cmp	r0, #1
 3924 01de 3FF427AF 		beq	.L374
 3925              	.LVL524:
 3926              	.L362:
 3927              		.loc 1 1434 0 is_stmt 0 discriminator 2
 3928 01e2 0124     		movs	r4, #1
 3929 01e4 26E7     		b	.L359
 3930              		.cfi_endproc
 3931              	.LFE315:
 3932              		.size	create_chain, .-create_chain
 3933              		.section	.text.dir_next,"ax",%progbits
ARM GAS  /tmp/cc6Bizie.s 			page 70


 3934              		.align	1
 3935              		.syntax unified
 3936              		.thumb
 3937              		.thumb_func
 3938              		.fpu fpv4-sp-d16
 3939              		.type	dir_next, %function
 3940              	dir_next:
 3941              	.LFB318:
 3942              		.loc 1 1575 0 is_stmt 1
 3943              		.cfi_startproc
 3944              		@ args = 0, pretend = 0, frame = 0
 3945              		@ frame_needed = 0, uses_anonymous_args = 0
 3946              	.LVL525:
 3947 0000 2DE9F843 		push	{r3, r4, r5, r6, r7, r8, r9, lr}
 3948              		.cfi_def_cfa_offset 32
 3949              		.cfi_offset 3, -32
 3950              		.cfi_offset 4, -28
 3951              		.cfi_offset 5, -24
 3952              		.cfi_offset 6, -20
 3953              		.cfi_offset 7, -16
 3954              		.cfi_offset 8, -12
 3955              		.cfi_offset 9, -8
 3956              		.cfi_offset 14, -4
 3957              		.loc 1 1581 0
 3958 0004 836B     		ldr	r3, [r0, #56]
 3959              		.loc 1 1575 0
 3960 0006 0446     		mov	r4, r0
 3961 0008 8946     		mov	r9, r1
 3962              		.loc 1 1581 0
 3963 000a D3B1     		cbz	r3, .L447
 3964              		.loc 1 1577 0 discriminator 2
 3965 000c 0568     		ldr	r5, [r0]
 3966              		.loc 1 1580 0 discriminator 2
 3967 000e 076B     		ldr	r7, [r0, #48]
 3968              		.loc 1 1581 0 discriminator 2
 3969 0010 2A78     		ldrb	r2, [r5]	@ zero_extendqisi2
 3970 0012 042A     		cmp	r2, #4
 3971 0014 0CBF     		ite	eq
 3972 0016 4FF08052 		moveq	r2, #268435456
 3973 001a 4FF40012 		movne	r2, #2097152
 3974              		.loc 1 1580 0 discriminator 2
 3975 001e 2037     		adds	r7, r7, #32
 3976              		.loc 1 1581 0 discriminator 2
 3977 0020 BA42     		cmp	r2, r7
 3978 0022 0ED9     		bls	.L447
 3979              		.loc 1 1583 0
 3980 0024 C7F30808 		ubfx	r8, r7, #0, #9
 3981 0028 B8F1000F 		cmp	r8, #0
 3982 002c 3ED1     		bne	.L436
 3983              		.loc 1 1586 0
 3984 002e 416B     		ldr	r1, [r0, #52]
 3985              	.LVL526:
 3986              		.loc 1 1584 0
 3987 0030 0133     		adds	r3, r3, #1
 3988 0032 8363     		str	r3, [r0, #56]
 3989              		.loc 1 1586 0
 3990 0034 41B9     		cbnz	r1, .L437
ARM GAS  /tmp/cc6Bizie.s 			page 71


 3991              		.loc 1 1587 0
 3992 0036 2B89     		ldrh	r3, [r5, #8]
 3993 0038 B3EB571F 		cmp	r3, r7, lsr #5
 3994 003c 36D8     		bhi	.L436
 3995              	.LVL527:
 3996              	.L442:
 3997              		.loc 1 1588 0
 3998 003e 0023     		movs	r3, #0
 3999 0040 A363     		str	r3, [r4, #56]
 4000              	.L447:
 4001              		.loc 1 1581 0
 4002 0042 0420     		movs	r0, #4
 4003 0044 BDE8F883 		pop	{r3, r4, r5, r6, r7, r8, r9, pc}
 4004              	.LVL528:
 4005              	.L437:
 4006              		.loc 1 1592 0
 4007 0048 6B89     		ldrh	r3, [r5, #10]
 4008 004a 013B     		subs	r3, r3, #1
 4009 004c 13EA5723 		ands	r3, r3, r7, lsr #9
 4010 0050 2CD1     		bne	.L436
 4011              		.loc 1 1593 0
 4012 0052 FFF7FEFF 		bl	get_fat
 4013              	.LVL529:
 4014              		.loc 1 1594 0
 4015 0056 0128     		cmp	r0, #1
 4016              		.loc 1 1593 0
 4017 0058 0646     		mov	r6, r0
 4018              	.LVL530:
 4019              		.loc 1 1594 0
 4020 005a 02D8     		bhi	.L439
 4021              	.L443:
 4022 005c 0220     		movs	r0, #2
 4023              	.LVL531:
 4024 005e BDE8F883 		pop	{r3, r4, r5, r6, r7, r8, r9, pc}
 4025              	.LVL532:
 4026              	.L439:
 4027              		.loc 1 1595 0
 4028 0062 421C     		adds	r2, r0, #1
 4029 0064 02D1     		bne	.L440
 4030              	.LVL533:
 4031              	.L444:
 4032 0066 0120     		movs	r0, #1
 4033 0068 BDE8F883 		pop	{r3, r4, r5, r6, r7, r8, r9, pc}
 4034              	.LVL534:
 4035              	.L440:
 4036              		.loc 1 1596 0
 4037 006c 2B6B     		ldr	r3, [r5, #48]
 4038 006e 9842     		cmp	r0, r3
 4039 0070 16D3     		bcc	.L441
 4040              		.loc 1 1598 0
 4041 0072 B9F1000F 		cmp	r9, #0
 4042 0076 E2D0     		beq	.L442
 4043              		.loc 1 1601 0
 4044 0078 616B     		ldr	r1, [r4, #52]
 4045 007a 2046     		mov	r0, r4
 4046              	.LVL535:
 4047 007c FFF7FEFF 		bl	create_chain
ARM GAS  /tmp/cc6Bizie.s 			page 72


 4048              	.LVL536:
 4049              		.loc 1 1602 0
 4050 0080 0646     		mov	r6, r0
 4051 0082 D0B1     		cbz	r0, .L448
 4052              		.loc 1 1603 0
 4053 0084 0128     		cmp	r0, #1
 4054 0086 E9D0     		beq	.L443
 4055              		.loc 1 1604 0
 4056 0088 431C     		adds	r3, r0, #1
 4057 008a ECD0     		beq	.L444
 4058              		.loc 1 1605 0
 4059 008c 0146     		mov	r1, r0
 4060 008e 2846     		mov	r0, r5
 4061              	.LVL537:
 4062 0090 FFF7FEFF 		bl	dir_clear
 4063              	.LVL538:
 4064 0094 0028     		cmp	r0, #0
 4065 0096 E6D1     		bne	.L444
 4066              		.loc 1 1606 0 discriminator 1
 4067 0098 E379     		ldrb	r3, [r4, #7]	@ zero_extendqisi2
 4068 009a 43F00403 		orr	r3, r3, #4
 4069 009e E371     		strb	r3, [r4, #7]
 4070              	.L441:
 4071              		.loc 1 1612 0
 4072 00a0 6663     		str	r6, [r4, #52]
 4073              		.loc 1 1613 0
 4074 00a2 3146     		mov	r1, r6
 4075 00a4 2846     		mov	r0, r5
 4076 00a6 FFF7FEFF 		bl	clst2sect
 4077              	.LVL539:
 4078 00aa A063     		str	r0, [r4, #56]
 4079              	.LVL540:
 4080              	.L436:
 4081              		.loc 1 1618 0
 4082 00ac 4C35     		adds	r5, r5, #76
 4083 00ae 4544     		add	r5, r5, r8
 4084              		.loc 1 1617 0
 4085 00b0 2763     		str	r7, [r4, #48]
 4086              		.loc 1 1618 0
 4087 00b2 E563     		str	r5, [r4, #60]
 4088              		.loc 1 1620 0
 4089 00b4 0020     		movs	r0, #0
 4090 00b6 BDE8F883 		pop	{r3, r4, r5, r6, r7, r8, r9, pc}
 4091              	.LVL541:
 4092              	.L448:
 4093              		.loc 1 1602 0
 4094 00ba 0720     		movs	r0, #7
 4095              	.LVL542:
 4096              		.loc 1 1621 0
 4097 00bc BDE8F883 		pop	{r3, r4, r5, r6, r7, r8, r9, pc}
 4098              		.cfi_endproc
 4099              	.LFE318:
 4100              		.size	dir_next, .-dir_next
 4101              		.section	.text.load_xdir,"ax",%progbits
 4102              		.align	1
 4103              		.syntax unified
 4104              		.thumb
ARM GAS  /tmp/cc6Bizie.s 			page 73


 4105              		.thumb_func
 4106              		.fpu fpv4-sp-d16
 4107              		.type	load_xdir, %function
 4108              	load_xdir:
 4109              	.LFB330:
 4110              		.loc 1 2007 0
 4111              		.cfi_startproc
 4112              		@ args = 0, pretend = 0, frame = 0
 4113              		@ frame_needed = 0, uses_anonymous_args = 0
 4114              	.LVL543:
 4115 0000 2DE9F041 		push	{r4, r5, r6, r7, r8, lr}
 4116              		.cfi_def_cfa_offset 24
 4117              		.cfi_offset 4, -24
 4118              		.cfi_offset 5, -20
 4119              		.cfi_offset 6, -16
 4120              		.cfi_offset 7, -12
 4121              		.cfi_offset 8, -8
 4122              		.cfi_offset 14, -4
 4123              		.loc 1 2007 0
 4124 0004 0546     		mov	r5, r0
 4125              		.loc 1 2010 0
 4126 0006 0068     		ldr	r0, [r0]
 4127              	.LVL544:
 4128              		.loc 1 2014 0
 4129 0008 A96B     		ldr	r1, [r5, #56]
 4130              		.loc 1 2010 0
 4131 000a 0669     		ldr	r6, [r0, #16]
 4132              	.LVL545:
 4133              		.loc 1 2014 0
 4134 000c FFF7FEFF 		bl	move_window
 4135              	.LVL546:
 4136              		.loc 1 2015 0
 4137 0010 0446     		mov	r4, r0
 4138 0012 20B9     		cbnz	r0, .L459
 4139              		.loc 1 2016 0
 4140 0014 E96B     		ldr	r1, [r5, #60]
 4141 0016 0B78     		ldrb	r3, [r1]	@ zero_extendqisi2
 4142 0018 852B     		cmp	r3, #133
 4143 001a 03D0     		beq	.L460
 4144              	.LVL547:
 4145              	.L461:
 4146 001c 0224     		movs	r4, #2
 4147              	.L459:
 4148              		.loc 1 2048 0
 4149 001e 2046     		mov	r0, r4
 4150 0020 BDE8F081 		pop	{r4, r5, r6, r7, r8, pc}
 4151              	.LVL548:
 4152              	.L460:
 4153              	.LBB251:
 4154              	.LBB252:
 4155 0024 2022     		movs	r2, #32
 4156 0026 3046     		mov	r0, r6
 4157              	.LVL549:
 4158 0028 FFF7FEFF 		bl	mem_cpy.part.0
 4159              	.LVL550:
 4160              	.LBE252:
 4161              	.LBE251:
ARM GAS  /tmp/cc6Bizie.s 			page 74


 4162              		.loc 1 2018 0
 4163 002c 7778     		ldrb	r7, [r6, #1]	@ zero_extendqisi2
 4164 002e 0137     		adds	r7, r7, #1
 4165 0030 7F01     		lsls	r7, r7, #5
 4166              	.LVL551:
 4167              		.loc 1 2019 0
 4168 0032 A7F16003 		sub	r3, r7, #96
 4169 0036 B3F5007F 		cmp	r3, #512
 4170 003a EFD8     		bhi	.L461
 4171              		.loc 1 2022 0
 4172 003c 2146     		mov	r1, r4
 4173 003e 2846     		mov	r0, r5
 4174 0040 FFF7FEFF 		bl	dir_next
 4175              	.LVL552:
 4176              		.loc 1 2023 0
 4177 0044 0428     		cmp	r0, #4
 4178              		.loc 1 2022 0
 4179 0046 0446     		mov	r4, r0
 4180              	.LVL553:
 4181              		.loc 1 2023 0
 4182 0048 E8D0     		beq	.L461
 4183              		.loc 1 2024 0
 4184 004a 0028     		cmp	r0, #0
 4185 004c E7D1     		bne	.L459
 4186              		.loc 1 2025 0
 4187 004e A96B     		ldr	r1, [r5, #56]
 4188 0050 2868     		ldr	r0, [r5]
 4189              	.LVL554:
 4190 0052 FFF7FEFF 		bl	move_window
 4191              	.LVL555:
 4192              		.loc 1 2026 0
 4193 0056 0446     		mov	r4, r0
 4194 0058 0028     		cmp	r0, #0
 4195 005a E0D1     		bne	.L459
 4196              		.loc 1 2027 0
 4197 005c E96B     		ldr	r1, [r5, #60]
 4198 005e 0B78     		ldrb	r3, [r1]	@ zero_extendqisi2
 4199 0060 C02B     		cmp	r3, #192
 4200 0062 DBD1     		bne	.L461
 4201              	.LVL556:
 4202              	.LBB253:
 4203              	.LBB254:
 4204 0064 2022     		movs	r2, #32
 4205 0066 B018     		adds	r0, r6, r2
 4206              	.LVL557:
 4207 0068 FFF7FEFF 		bl	mem_cpy.part.0
 4208              	.LVL558:
 4209              	.LBE254:
 4210              	.LBE253:
 4211              		.loc 1 2029 0
 4212 006c 96F82330 		ldrb	r3, [r6, #35]	@ zero_extendqisi2
 4213 0070 0F22     		movs	r2, #15
 4214 0072 2C33     		adds	r3, r3, #44
 4215 0074 B3FBF2F3 		udiv	r3, r3, r2
 4216 0078 B7EB431F 		cmp	r7, r3, lsl #5
 4217 007c CED3     		bcc	.L461
 4218 007e 4FF04008 		mov	r8, #64
ARM GAS  /tmp/cc6Bizie.s 			page 75


 4219              	.L463:
 4220              	.LVL559:
 4221              		.loc 1 2034 0
 4222 0082 0021     		movs	r1, #0
 4223 0084 2846     		mov	r0, r5
 4224 0086 FFF7FEFF 		bl	dir_next
 4225              	.LVL560:
 4226              		.loc 1 2035 0
 4227 008a 0428     		cmp	r0, #4
 4228              		.loc 1 2034 0
 4229 008c 0446     		mov	r4, r0
 4230              	.LVL561:
 4231              		.loc 1 2035 0
 4232 008e C5D0     		beq	.L461
 4233              		.loc 1 2036 0
 4234 0090 0028     		cmp	r0, #0
 4235 0092 C4D1     		bne	.L459
 4236              		.loc 1 2037 0
 4237 0094 A96B     		ldr	r1, [r5, #56]
 4238 0096 2868     		ldr	r0, [r5]
 4239              	.LVL562:
 4240 0098 FFF7FEFF 		bl	move_window
 4241              	.LVL563:
 4242              		.loc 1 2038 0
 4243 009c 0446     		mov	r4, r0
 4244 009e 0028     		cmp	r0, #0
 4245 00a0 BDD1     		bne	.L459
 4246              		.loc 1 2039 0
 4247 00a2 E96B     		ldr	r1, [r5, #60]
 4248 00a4 0B78     		ldrb	r3, [r1]	@ zero_extendqisi2
 4249 00a6 C12B     		cmp	r3, #193
 4250 00a8 B8D1     		bne	.L461
 4251              		.loc 1 2040 0
 4252 00aa B8F5187F 		cmp	r8, #608
 4253 00ae 04D2     		bcs	.L462
 4254              	.LVL564:
 4255              	.LBB255:
 4256              	.LBB256:
 4257 00b0 2022     		movs	r2, #32
 4258 00b2 06EB0800 		add	r0, r6, r8
 4259              	.LVL565:
 4260 00b6 FFF7FEFF 		bl	mem_cpy.part.0
 4261              	.LVL566:
 4262              	.L462:
 4263              	.LBE256:
 4264              	.LBE255:
 4265              		.loc 1 2041 0
 4266 00ba 08F12008 		add	r8, r8, #32
 4267              	.LVL567:
 4268 00be 4745     		cmp	r7, r8
 4269 00c0 DFD8     		bhi	.L463
 4270              		.loc 1 2044 0
 4271 00c2 B8F5187F 		cmp	r8, #608
 4272 00c6 AAD8     		bhi	.L459
 4273              		.loc 1 2045 0
 4274 00c8 3046     		mov	r0, r6
 4275 00ca FFF7FEFF 		bl	xdir_sum
ARM GAS  /tmp/cc6Bizie.s 			page 76


 4276              	.LVL568:
 4277              	.LBB257:
 4278              	.LBB258:
 4279              		.loc 1 553 0
 4280 00ce F278     		ldrb	r2, [r6, #3]	@ zero_extendqisi2
 4281 00d0 B378     		ldrb	r3, [r6, #2]	@ zero_extendqisi2
 4282              	.LBE258:
 4283              	.LBE257:
 4284              		.loc 1 2045 0
 4285 00d2 43EA0223 		orr	r3, r3, r2, lsl #8
 4286 00d6 9842     		cmp	r0, r3
 4287 00d8 A0D1     		bne	.L461
 4288 00da A0E7     		b	.L459
 4289              		.cfi_endproc
 4290              	.LFE330:
 4291              		.size	load_xdir, .-load_xdir
 4292              		.section	.text.load_obj_xdir,"ax",%progbits
 4293              		.align	1
 4294              		.syntax unified
 4295              		.thumb
 4296              		.thumb_func
 4297              		.fpu fpv4-sp-d16
 4298              		.type	load_obj_xdir, %function
 4299              	load_obj_xdir:
 4300              	.LFB331:
 4301              		.loc 1 2060 0
 4302              		.cfi_startproc
 4303              		@ args = 0, pretend = 0, frame = 0
 4304              		@ frame_needed = 0, uses_anonymous_args = 0
 4305              	.LVL569:
 4306              		.loc 1 2064 0
 4307 0000 0B68     		ldr	r3, [r1]
 4308              		.loc 1 2060 0
 4309 0002 10B5     		push	{r4, lr}
 4310              		.cfi_def_cfa_offset 8
 4311              		.cfi_offset 4, -8
 4312              		.cfi_offset 14, -4
 4313              		.loc 1 2064 0
 4314 0004 0360     		str	r3, [r0]
 4315              		.loc 1 2065 0
 4316 0006 0B6A     		ldr	r3, [r1, #32]
 4317 0008 8360     		str	r3, [r0, #8]
 4318              		.loc 1 2066 0
 4319 000a 4B6A     		ldr	r3, [r1, #36]
 4320 000c C371     		strb	r3, [r0, #7]
 4321              		.loc 1 2067 0
 4322 000e 0022     		movs	r2, #0
 4323 0010 23F0FF03 		bic	r3, r3, #255
 4324              		.loc 1 2069 0
 4325 0014 896A     		ldr	r1, [r1, #40]
 4326              	.LVL570:
 4327              		.loc 1 2067 0
 4328 0016 0361     		str	r3, [r0, #16]
 4329 0018 4261     		str	r2, [r0, #20]
 4330              		.loc 1 2068 0
 4331 001a C261     		str	r2, [r0, #28]
 4332              		.loc 1 2069 0
ARM GAS  /tmp/cc6Bizie.s 			page 77


 4333 001c C164     		str	r1, [r0, #76]
 4334              		.loc 1 2060 0
 4335 001e 0446     		mov	r4, r0
 4336              		.loc 1 2071 0
 4337 0020 FFF7FEFF 		bl	dir_sdi
 4338              	.LVL571:
 4339              		.loc 1 2072 0
 4340 0024 20B9     		cbnz	r0, .L472
 4341              		.loc 1 2073 0
 4342 0026 2046     		mov	r0, r4
 4343              	.LVL572:
 4344              		.loc 1 2076 0
 4345 0028 BDE81040 		pop	{r4, lr}
 4346              		.cfi_remember_state
 4347              		.cfi_restore 14
 4348              		.cfi_restore 4
 4349              		.cfi_def_cfa_offset 0
 4350              	.LVL573:
 4351              		.loc 1 2073 0
 4352 002c FFF7FEBF 		b	load_xdir
 4353              	.LVL574:
 4354              	.L472:
 4355              		.cfi_restore_state
 4356              		.loc 1 2076 0
 4357 0030 10BD     		pop	{r4, pc}
 4358              		.cfi_endproc
 4359              	.LFE331:
 4360              		.size	load_obj_xdir, .-load_obj_xdir
 4361              		.section	.text.dir_alloc,"ax",%progbits
 4362              		.align	1
 4363              		.syntax unified
 4364              		.thumb
 4365              		.thumb_func
 4366              		.fpu fpv4-sp-d16
 4367              		.type	dir_alloc, %function
 4368              	dir_alloc:
 4369              	.LFB319:
 4370              		.loc 1 1636 0
 4371              		.cfi_startproc
 4372              		@ args = 0, pretend = 0, frame = 0
 4373              		@ frame_needed = 0, uses_anonymous_args = 0
 4374              	.LVL575:
 4375 0000 F8B5     		push	{r3, r4, r5, r6, r7, lr}
 4376              		.cfi_def_cfa_offset 24
 4377              		.cfi_offset 3, -24
 4378              		.cfi_offset 4, -20
 4379              		.cfi_offset 5, -16
 4380              		.cfi_offset 6, -12
 4381              		.cfi_offset 7, -8
 4382              		.cfi_offset 14, -4
 4383              		.loc 1 1636 0
 4384 0002 0E46     		mov	r6, r1
 4385              		.loc 1 1642 0
 4386 0004 0021     		movs	r1, #0
 4387              	.LVL576:
 4388              		.loc 1 1636 0
 4389 0006 0446     		mov	r4, r0
ARM GAS  /tmp/cc6Bizie.s 			page 78


 4390              		.loc 1 1639 0
 4391 0008 0568     		ldr	r5, [r0]
 4392              	.LVL577:
 4393              		.loc 1 1642 0
 4394 000a FFF7FEFF 		bl	dir_sdi
 4395              	.LVL578:
 4396              		.loc 1 1643 0
 4397 000e F8B9     		cbnz	r0, .L474
 4398 0010 0746     		mov	r7, r0
 4399              	.L480:
 4400              	.LVL579:
 4401              		.loc 1 1646 0
 4402 0012 A16B     		ldr	r1, [r4, #56]
 4403 0014 2846     		mov	r0, r5
 4404              	.LVL580:
 4405 0016 FFF7FEFF 		bl	move_window
 4406              	.LVL581:
 4407              		.loc 1 1647 0
 4408 001a C8B9     		cbnz	r0, .L474
 4409              		.loc 1 1649 0
 4410 001c 2B78     		ldrb	r3, [r5]	@ zero_extendqisi2
 4411 001e 042B     		cmp	r3, #4
 4412 0020 E36B     		ldr	r3, [r4, #60]
 4413 0022 1B78     		ldrb	r3, [r3]	@ zero_extendqisi2
 4414 0024 07D1     		bne	.L475
 4415              		.loc 1 1649 0 is_stmt 0 discriminator 1
 4416 0026 DB43     		mvns	r3, r3
 4417 0028 C3F3C013 		ubfx	r3, r3, #7, #1
 4418              	.L476:
 4419              		.loc 1 1649 0 discriminator 10
 4420 002c 4BB1     		cbz	r3, .L481
 4421              	.L477:
 4422              		.loc 1 1653 0 is_stmt 1
 4423 002e 0137     		adds	r7, r7, #1
 4424              	.LVL582:
 4425 0030 B742     		cmp	r7, r6
 4426 0032 07D1     		bne	.L478
 4427 0034 F8BD     		pop	{r3, r4, r5, r6, r7, pc}
 4428              	.LVL583:
 4429              	.L475:
 4430              		.loc 1 1649 0 discriminator 2
 4431 0036 E52B     		cmp	r3, #229
 4432 0038 F9D0     		beq	.L477
 4433              		.loc 1 1649 0 is_stmt 0 discriminator 5
 4434 003a B3FA83F3 		clz	r3, r3
 4435 003e 5B09     		lsrs	r3, r3, #5
 4436 0040 F4E7     		b	.L476
 4437              	.L481:
 4438              		.loc 1 1655 0 is_stmt 1
 4439 0042 1F46     		mov	r7, r3
 4440              	.LVL584:
 4441              	.L478:
 4442              		.loc 1 1657 0
 4443 0044 0121     		movs	r1, #1
 4444 0046 2046     		mov	r0, r4
 4445              	.LVL585:
 4446 0048 FFF7FEFF 		bl	dir_next
ARM GAS  /tmp/cc6Bizie.s 			page 79


 4447              	.LVL586:
 4448              		.loc 1 1658 0
 4449 004c 0028     		cmp	r0, #0
 4450 004e E0D0     		beq	.L480
 4451              	.LVL587:
 4452              	.L474:
 4453              		.loc 1 1661 0
 4454 0050 0428     		cmp	r0, #4
 4455 0052 08BF     		it	eq
 4456 0054 0720     		moveq	r0, #7
 4457              	.LVL588:
 4458              		.loc 1 1663 0
 4459 0056 F8BD     		pop	{r3, r4, r5, r6, r7, pc}
 4460              		.cfi_endproc
 4461              	.LFE319:
 4462              		.size	dir_alloc, .-dir_alloc
 4463              		.section	.text.store_xdir,"ax",%progbits
 4464              		.align	1
 4465              		.syntax unified
 4466              		.thumb
 4467              		.thumb_func
 4468              		.fpu fpv4-sp-d16
 4469              		.type	store_xdir, %function
 4470              	store_xdir:
 4471              	.LFB332:
 4472              		.loc 1 2088 0
 4473              		.cfi_startproc
 4474              		@ args = 0, pretend = 0, frame = 0
 4475              		@ frame_needed = 0, uses_anonymous_args = 0
 4476              	.LVL589:
 4477              		.loc 1 2091 0
 4478 0000 0368     		ldr	r3, [r0]
 4479              		.loc 1 2088 0
 4480 0002 2DE9F041 		push	{r4, r5, r6, r7, r8, lr}
 4481              		.cfi_def_cfa_offset 24
 4482              		.cfi_offset 4, -24
 4483              		.cfi_offset 5, -20
 4484              		.cfi_offset 6, -16
 4485              		.cfi_offset 7, -12
 4486              		.cfi_offset 8, -8
 4487              		.cfi_offset 14, -4
 4488              		.loc 1 2091 0
 4489 0006 1E69     		ldr	r6, [r3, #16]
 4490              	.LVL590:
 4491              		.loc 1 2088 0
 4492 0008 0546     		mov	r5, r0
 4493              		.loc 1 2094 0
 4494 000a 3046     		mov	r0, r6
 4495              	.LVL591:
 4496 000c FFF7FEFF 		bl	xdir_sum
 4497              	.LVL592:
 4498              	.LBB259:
 4499              	.LBB260:
 4500              		.loc 1 591 0
 4501 0010 B070     		strb	r0, [r6, #2]
 4502              	.LVL593:
 4503 0012 000A     		lsrs	r0, r0, #8
ARM GAS  /tmp/cc6Bizie.s 			page 80


 4504              	.LVL594:
 4505              		.loc 1 592 0
 4506 0014 F070     		strb	r0, [r6, #3]
 4507              	.LVL595:
 4508              	.LBE260:
 4509              	.LBE259:
 4510              		.loc 1 2098 0
 4511 0016 E96C     		ldr	r1, [r5, #76]
 4512              		.loc 1 2095 0
 4513 0018 7778     		ldrb	r7, [r6, #1]	@ zero_extendqisi2
 4514              	.LVL596:
 4515              		.loc 1 2098 0
 4516 001a 2846     		mov	r0, r5
 4517 001c FFF7FEFF 		bl	dir_sdi
 4518              	.LVL597:
 4519              		.loc 1 2103 0
 4520 0020 4FF00108 		mov	r8, #1
 4521              		.loc 1 2098 0
 4522 0024 0446     		mov	r4, r0
 4523              	.LVL598:
 4524              	.L488:
 4525              		.loc 1 2099 0
 4526 0026 2CB1     		cbz	r4, .L490
 4527              	.LVL599:
 4528              	.L489:
 4529              		.loc 1 2108 0
 4530 0028 022C     		cmp	r4, #2
 4531 002a 28BF     		it	cs
 4532 002c 0224     		movcs	r4, #2
 4533              	.LVL600:
 4534              		.loc 1 2109 0
 4535 002e E0B2     		uxtb	r0, r4
 4536 0030 BDE8F081 		pop	{r4, r5, r6, r7, r8, pc}
 4537              	.LVL601:
 4538              	.L490:
 4539              		.loc 1 2100 0
 4540 0034 A96B     		ldr	r1, [r5, #56]
 4541 0036 2868     		ldr	r0, [r5]
 4542 0038 FFF7FEFF 		bl	move_window
 4543              	.LVL602:
 4544              		.loc 1 2101 0
 4545 003c 0446     		mov	r4, r0
 4546 003e 0028     		cmp	r0, #0
 4547 0040 F2D1     		bne	.L489
 4548              	.LVL603:
 4549              	.LBB261:
 4550              	.LBB262:
 4551 0042 2022     		movs	r2, #32
 4552 0044 3146     		mov	r1, r6
 4553 0046 E86B     		ldr	r0, [r5, #60]
 4554              	.LVL604:
 4555 0048 FFF7FEFF 		bl	mem_cpy.part.0
 4556              	.LVL605:
 4557              	.LBE262:
 4558              	.LBE261:
 4559              		.loc 1 2103 0
 4560 004c 2B68     		ldr	r3, [r5]
ARM GAS  /tmp/cc6Bizie.s 			page 81


 4561 004e 83F80380 		strb	r8, [r3, #3]
 4562              	.LVL606:
 4563              		.loc 1 2104 0
 4564 0052 002F     		cmp	r7, #0
 4565 0054 E8D0     		beq	.L489
 4566              		.loc 1 2106 0
 4567 0056 2146     		mov	r1, r4
 4568 0058 2846     		mov	r0, r5
 4569 005a FFF7FEFF 		bl	dir_next
 4570              	.LVL607:
 4571              		.loc 1 2105 0
 4572 005e 2036     		adds	r6, r6, #32
 4573              	.LVL608:
 4574              		.loc 1 2106 0
 4575 0060 0446     		mov	r4, r0
 4576              	.LVL609:
 4577 0062 013F     		subs	r7, r7, #1
 4578              	.LVL610:
 4579 0064 DFE7     		b	.L488
 4580              		.cfi_endproc
 4581              	.LFE332:
 4582              		.size	store_xdir, .-store_xdir
 4583              		.section	.text.dir_remove,"ax",%progbits
 4584              		.align	1
 4585              		.syntax unified
 4586              		.thumb
 4587              		.thumb_func
 4588              		.fpu fpv4-sp-d16
 4589              		.type	dir_remove, %function
 4590              	dir_remove:
 4591              	.LFB337:
 4592              		.loc 1 2432 0
 4593              		.cfi_startproc
 4594              		@ args = 0, pretend = 0, frame = 0
 4595              		@ frame_needed = 0, uses_anonymous_args = 0
 4596              	.LVL611:
 4597              		.loc 1 2438 0
 4598 0000 C16C     		ldr	r1, [r0, #76]
 4599 0002 4B1C     		adds	r3, r1, #1
 4600              		.loc 1 2432 0
 4601 0004 2DE9F041 		push	{r4, r5, r6, r7, r8, lr}
 4602              		.cfi_def_cfa_offset 24
 4603              		.cfi_offset 4, -24
 4604              		.cfi_offset 5, -20
 4605              		.cfi_offset 6, -16
 4606              		.cfi_offset 7, -12
 4607              		.cfi_offset 8, -8
 4608              		.cfi_offset 14, -4
 4609              		.loc 1 2432 0
 4610 0008 0446     		mov	r4, r0
 4611              		.loc 1 2434 0
 4612 000a 0568     		ldr	r5, [r0]
 4613              	.LVL612:
 4614              		.loc 1 2436 0
 4615 000c 066B     		ldr	r6, [r0, #48]
 4616              	.LVL613:
 4617              		.loc 1 2438 0
ARM GAS  /tmp/cc6Bizie.s 			page 82


 4618 000e 1FD1     		bne	.L495
 4619              	.LVL614:
 4620              	.L497:
 4621              		.loc 1 2447 0
 4622 0010 E527     		movs	r7, #229
 4623              		.loc 1 2449 0
 4624 0012 4FF00108 		mov	r8, #1
 4625              	.L496:
 4626              		.loc 1 2441 0
 4627 0016 A16B     		ldr	r1, [r4, #56]
 4628 0018 2846     		mov	r0, r5
 4629 001a FFF7FEFF 		bl	move_window
 4630              	.LVL615:
 4631              		.loc 1 2442 0
 4632 001e 98B9     		cbnz	r0, .L499
 4633              		.loc 1 2444 0
 4634 0020 2B78     		ldrb	r3, [r5]	@ zero_extendqisi2
 4635 0022 042B     		cmp	r3, #4
 4636 0024 E36B     		ldr	r3, [r4, #60]
 4637              		.loc 1 2445 0
 4638 0026 09BF     		itett	eq
 4639 0028 1A78     		ldrbeq	r2, [r3]	@ zero_extendqisi2
 4640              		.loc 1 2447 0
 4641 002a 1F70     		strbne	r7, [r3]
 4642              		.loc 1 2445 0
 4643 002c 02F07F02 		andeq	r2, r2, #127
 4644 0030 1A70     		strbeq	r2, [r3]
 4645              		.loc 1 2449 0
 4646 0032 85F80380 		strb	r8, [r5, #3]
 4647              		.loc 1 2450 0
 4648 0036 236B     		ldr	r3, [r4, #48]
 4649 0038 9E42     		cmp	r6, r3
 4650 003a 0DD9     		bls	.L498
 4651              		.loc 1 2451 0
 4652 003c 0021     		movs	r1, #0
 4653 003e 2046     		mov	r0, r4
 4654              	.LVL616:
 4655 0040 FFF7FEFF 		bl	dir_next
 4656              	.LVL617:
 4657              		.loc 1 2452 0
 4658 0044 0028     		cmp	r0, #0
 4659 0046 E6D0     		beq	.L496
 4660              	.L499:
 4661              		.loc 1 2453 0
 4662 0048 0428     		cmp	r0, #4
 4663 004a 08BF     		it	eq
 4664 004c 0220     		moveq	r0, #2
 4665              	.LVL618:
 4666 004e 03E0     		b	.L498
 4667              	.LVL619:
 4668              	.L495:
 4669              		.loc 1 2438 0 discriminator 1
 4670 0050 FFF7FEFF 		bl	dir_sdi
 4671              	.LVL620:
 4672              		.loc 1 2439 0 discriminator 1
 4673 0054 0028     		cmp	r0, #0
 4674 0056 DBD0     		beq	.L497
ARM GAS  /tmp/cc6Bizie.s 			page 83


 4675              	.LVL621:
 4676              	.L498:
 4677              		.loc 1 2465 0
 4678 0058 BDE8F081 		pop	{r4, r5, r6, r7, r8, pc}
 4679              		.cfi_endproc
 4680              	.LFE337:
 4681              		.size	dir_remove, .-dir_remove
 4682              		.section	.text.dir_read.constprop.12,"ax",%progbits
 4683              		.align	1
 4684              		.syntax unified
 4685              		.thumb
 4686              		.thumb_func
 4687              		.fpu fpv4-sp-d16
 4688              		.type	dir_read.constprop.12, %function
 4689              	dir_read.constprop.12:
 4690              	.LFB377:
 4691              		.loc 1 2161 0
 4692              		.cfi_startproc
 4693              		@ args = 0, pretend = 0, frame = 0
 4694              		@ frame_needed = 0, uses_anonymous_args = 0
 4695              	.LVL622:
 4696 0000 2DE9F84F 		push	{r3, r4, r5, r6, r7, r8, r9, r10, fp, lr}
 4697              		.cfi_def_cfa_offset 40
 4698              		.cfi_offset 3, -40
 4699              		.cfi_offset 4, -36
 4700              		.cfi_offset 5, -32
 4701              		.cfi_offset 6, -28
 4702              		.cfi_offset 7, -24
 4703              		.cfi_offset 8, -20
 4704              		.cfi_offset 9, -16
 4705              		.cfi_offset 10, -12
 4706              		.cfi_offset 11, -8
 4707              		.cfi_offset 14, -4
 4708              		.loc 1 2170 0
 4709 0004 FF27     		movs	r7, #255
 4710              		.loc 1 2167 0
 4711 0006 0668     		ldr	r6, [r0]
 4712              	.LVL623:
 4713              	.LBB269:
 4714              	.LBB270:
 4715              		.loc 1 1763 0
 4716 0008 DFF83081 		ldr	r8, .L541
 4717              	.LBE270:
 4718              	.LBE269:
 4719              		.loc 1 2161 0
 4720 000c 0546     		mov	r5, r0
 4721              		.loc 1 2170 0
 4722 000e 3C46     		mov	r4, r7
 4723              		.loc 1 2166 0
 4724 0010 4FF0040A 		mov	r10, #4
 4725              	.LBB281:
 4726              	.LBB277:
 4727              		.loc 1 1768 0
 4728 0014 4FF6FF79 		movw	r9, #65535
 4729              	.LVL624:
 4730              	.L508:
 4731              	.LBE277:
ARM GAS  /tmp/cc6Bizie.s 			page 84


 4732              	.LBE281:
 4733              		.loc 1 2173 0
 4734 0018 A96B     		ldr	r1, [r5, #56]
 4735 001a 21B9     		cbnz	r1, .L521
 4736              	.LVL625:
 4737              		.loc 1 2227 0
 4738 001c BAF1000F 		cmp	r10, #0
 4739 0020 00F08280 		beq	.L522
 4740 0024 75E0     		b	.L509
 4741              	.LVL626:
 4742              	.L521:
 4743              		.loc 1 2174 0
 4744 0026 3046     		mov	r0, r6
 4745 0028 FFF7FEFF 		bl	move_window
 4746              	.LVL627:
 4747              		.loc 1 2175 0
 4748 002c 8246     		mov	r10, r0
 4749 002e 0028     		cmp	r0, #0
 4750 0030 6FD1     		bne	.L509
 4751              		.loc 1 2176 0
 4752 0032 E86B     		ldr	r0, [r5, #60]
 4753              	.LVL628:
 4754 0034 0378     		ldrb	r3, [r0]	@ zero_extendqisi2
 4755              	.LVL629:
 4756              		.loc 1 2177 0
 4757 0036 002B     		cmp	r3, #0
 4758 0038 7DD0     		beq	.L523
 4759              		.loc 1 2181 0
 4760 003a 3278     		ldrb	r2, [r6]	@ zero_extendqisi2
 4761 003c 042A     		cmp	r2, #4
 4762 003e 11D1     		bne	.L510
 4763              		.loc 1 2185 0
 4764 0040 852B     		cmp	r3, #133
 4765 0042 5FD1     		bne	.L511
 4766              		.loc 1 2186 0
 4767 0044 2B6B     		ldr	r3, [r5, #48]
 4768              	.LVL630:
 4769 0046 EB64     		str	r3, [r5, #76]
 4770              	.LVL631:
 4771              		.loc 1 2187 0
 4772 0048 2846     		mov	r0, r5
 4773 004a FFF7FEFF 		bl	load_xdir
 4774              	.LVL632:
 4775              		.loc 1 2188 0
 4776 004e 8246     		mov	r10, r0
 4777 0050 0028     		cmp	r0, #0
 4778 0052 5ED1     		bne	.L509
 4779              		.loc 1 2189 0
 4780 0054 3369     		ldr	r3, [r6, #16]
 4781 0056 1B79     		ldrb	r3, [r3, #4]	@ zero_extendqisi2
 4782 0058 03F03F03 		and	r3, r3, #63
 4783 005c AB71     		strb	r3, [r5, #6]
 4784              	.LVL633:
 4785              	.L540:
 4786              		.loc 1 2229 0
 4787 005e 5046     		mov	r0, r10
 4788 0060 BDE8F88F 		pop	{r3, r4, r5, r6, r7, r8, r9, r10, fp, pc}
ARM GAS  /tmp/cc6Bizie.s 			page 85


 4789              	.LVL634:
 4790              	.L510:
 4791              		.loc 1 2197 0
 4792 0064 C27A     		ldrb	r2, [r0, #11]	@ zero_extendqisi2
 4793              		.loc 1 2199 0
 4794 0066 E52B     		cmp	r3, #229
 4795              		.loc 1 2197 0
 4796 0068 02F03F02 		and	r2, r2, #63
 4797              	.LVL635:
 4798 006c AA71     		strb	r2, [r5, #6]
 4799              		.loc 1 2199 0
 4800 006e 48D0     		beq	.L532
 4801 0070 2E2B     		cmp	r3, #46
 4802 0072 46D0     		beq	.L532
 4803 0074 22F02001 		bic	r1, r2, #32
 4804 0078 0829     		cmp	r1, #8
 4805 007a 42D0     		beq	.L532
 4806              		.loc 1 2202 0
 4807 007c 0F2A     		cmp	r2, #15
 4808 007e 4ED1     		bne	.L513
 4809              		.loc 1 2203 0
 4810 0080 5A06     		lsls	r2, r3, #25
 4811              	.LVL636:
 4812 0082 3CD5     		bpl	.L514
 4813              		.loc 1 2205 0
 4814 0084 03F0BF04 		and	r4, r3, #191
 4815              	.LVL637:
 4816              		.loc 1 2206 0
 4817 0088 2B6B     		ldr	r3, [r5, #48]
 4818              	.LVL638:
 4819              		.loc 1 2204 0
 4820 008a 477B     		ldrb	r7, [r0, #13]	@ zero_extendqisi2
 4821              	.LVL639:
 4822              		.loc 1 2206 0
 4823 008c EB64     		str	r3, [r5, #76]
 4824              	.LVL640:
 4825              	.L515:
 4826              		.loc 1 2209 0
 4827 008e 437B     		ldrb	r3, [r0, #13]	@ zero_extendqisi2
 4828 0090 BB42     		cmp	r3, r7
 4829 0092 36D1     		bne	.L532
 4830              	.LVL641:
 4831              	.LBB282:
 4832              	.LBB278:
 4833              	.LBB271:
 4834              	.LBB272:
 4835              		.loc 1 553 0
 4836 0094 C27E     		ldrb	r2, [r0, #27]	@ zero_extendqisi2
 4837 0096 837E     		ldrb	r3, [r0, #26]	@ zero_extendqisi2
 4838 0098 43EA0223 		orr	r3, r3, r2, lsl #8
 4839              	.LBE272:
 4840              	.LBE271:
 4841              		.loc 1 1758 0
 4842 009c 1BB2     		sxth	r3, r3
 4843 009e 83BB     		cbnz	r3, .L532
 4844              		.loc 1 1760 0
 4845 00a0 0278     		ldrb	r2, [r0]	@ zero_extendqisi2
ARM GAS  /tmp/cc6Bizie.s 			page 86


 4846              	.LBE278:
 4847              	.LBE282:
 4848              		.loc 1 2209 0
 4849 00a2 F168     		ldr	r1, [r6, #12]
 4850              	.LBB283:
 4851              	.LBB279:
 4852              		.loc 1 1760 0
 4853 00a4 22F04002 		bic	r2, r2, #64
 4854 00a8 013A     		subs	r2, r2, #1
 4855 00aa 4FF00D0E 		mov	lr, #13
 4856 00ae 0EFB02FE 		mul	lr, lr, r2
 4857              	.LVL642:
 4858              		.loc 1 1762 0
 4859 00b2 4FF0010C 		mov	ip, #1
 4860              	.LVL643:
 4861              	.L518:
 4862              		.loc 1 1763 0
 4863 00b6 13F808A0 		ldrb	r10, [r3, r8]	@ zero_extendqisi2
 4864 00ba 00EB0A02 		add	r2, r0, r10
 4865              	.LVL644:
 4866              	.LBB273:
 4867              	.LBB274:
 4868              		.loc 1 553 0
 4869 00be 92F801B0 		ldrb	fp, [r2, #1]	@ zero_extendqisi2
 4870 00c2 10F80A20 		ldrb	r2, [r0, r10]	@ zero_extendqisi2
 4871              	.LVL645:
 4872 00c6 42EA0B22 		orr	r2, r2, fp, lsl #8
 4873              	.LVL646:
 4874              	.LBE274:
 4875              	.LBE273:
 4876              		.loc 1 1764 0
 4877 00ca BCF1000F 		cmp	ip, #0
 4878 00ce 23D0     		beq	.L516
 4879              		.loc 1 1765 0
 4880 00d0 BEF1FE0F 		cmp	lr, #254
 4881 00d4 15D8     		bhi	.L532
 4882              	.LVL647:
 4883              		.loc 1 1766 0
 4884 00d6 21F81E20 		strh	r2, [r1, lr, lsl #1]	@ movhi
 4885              	.LBB276:
 4886              	.LBB275:
 4887              		.loc 1 553 0
 4888 00da 9446     		mov	ip, r2
 4889              	.LBE275:
 4890              	.LBE276:
 4891              		.loc 1 1766 0
 4892 00dc 0EF1010E 		add	lr, lr, #1
 4893              	.LVL648:
 4894              	.L517:
 4895              		.loc 1 1762 0
 4896 00e0 0133     		adds	r3, r3, #1
 4897              	.LVL649:
 4898 00e2 0D2B     		cmp	r3, #13
 4899 00e4 E7D1     		bne	.L518
 4900              		.loc 1 1772 0
 4901 00e6 0378     		ldrb	r3, [r0]	@ zero_extendqisi2
 4902              	.LVL650:
ARM GAS  /tmp/cc6Bizie.s 			page 87


 4903 00e8 5B06     		lsls	r3, r3, #25
 4904 00ea 05D5     		bpl	.L519
 4905              		.loc 1 1773 0
 4906 00ec BEF1FE0F 		cmp	lr, #254
 4907 00f0 07D8     		bhi	.L532
 4908              		.loc 1 1774 0
 4909 00f2 0023     		movs	r3, #0
 4910 00f4 21F81E30 		strh	r3, [r1, lr, lsl #1]	@ movhi
 4911              	.L519:
 4912              	.LVL651:
 4913              	.LBE279:
 4914              	.LBE283:
 4915              		.loc 1 2209 0
 4916 00f8 013C     		subs	r4, r4, #1
 4917              	.LVL652:
 4918 00fa E4B2     		uxtb	r4, r4
 4919 00fc 02E0     		b	.L511
 4920              	.LVL653:
 4921              	.L514:
 4922 00fe A342     		cmp	r3, r4
 4923 0100 C5D0     		beq	.L515
 4924              	.LVL654:
 4925              	.L532:
 4926 0102 FF24     		movs	r4, #255
 4927              	.LVL655:
 4928              	.L511:
 4929              		.loc 1 2223 0
 4930 0104 0021     		movs	r1, #0
 4931 0106 2846     		mov	r0, r5
 4932 0108 FFF7FEFF 		bl	dir_next
 4933              	.LVL656:
 4934              		.loc 1 2224 0
 4935 010c 8246     		mov	r10, r0
 4936 010e 0028     		cmp	r0, #0
 4937 0110 82D0     		beq	.L508
 4938              	.LVL657:
 4939              	.L509:
 4940              		.loc 1 2227 0
 4941 0112 0023     		movs	r3, #0
 4942 0114 AB63     		str	r3, [r5, #56]
 4943 0116 A2E7     		b	.L540
 4944              	.LVL658:
 4945              	.L516:
 4946              	.LBB284:
 4947              	.LBB280:
 4948              		.loc 1 1768 0
 4949 0118 4A45     		cmp	r2, r9
 4950 011a E1D0     		beq	.L517
 4951 011c F1E7     		b	.L532
 4952              	.LVL659:
 4953              	.L513:
 4954              	.LBE280:
 4955              	.LBE284:
 4956              		.loc 1 2211 0
 4957 011e 34B9     		cbnz	r4, .L520
 4958 0120 FFF7FEFF 		bl	sum_sfn
 4959              	.LVL660:
ARM GAS  /tmp/cc6Bizie.s 			page 88


 4960 0124 B842     		cmp	r0, r7
 4961 0126 02D1     		bne	.L520
 4962              	.L522:
 4963              		.loc 1 2178 0
 4964 0128 4FF0000A 		mov	r10, #0
 4965 012c 97E7     		b	.L540
 4966              	.L520:
 4967              		.loc 1 2212 0
 4968 012e 4FF0FF33 		mov	r3, #-1
 4969 0132 EB64     		str	r3, [r5, #76]
 4970 0134 93E7     		b	.L540
 4971              	.LVL661:
 4972              	.L523:
 4973              		.loc 1 2178 0
 4974 0136 4FF0040A 		mov	r10, #4
 4975 013a EAE7     		b	.L509
 4976              	.L542:
 4977              		.align	2
 4978              	.L541:
 4979 013c 00000000 		.word	.LANCHOR2
 4980              		.cfi_endproc
 4981              	.LFE377:
 4982              		.size	dir_read.constprop.12, .-dir_read.constprop.12
 4983              		.section	.text.dir_find,"ax",%progbits
 4984              		.align	1
 4985              		.syntax unified
 4986              		.thumb
 4987              		.thumb_func
 4988              		.fpu fpv4-sp-d16
 4989              		.type	dir_find, %function
 4990              	dir_find:
 4991              	.LFB335:
 4992              		.loc 1 2243 0
 4993              		.cfi_startproc
 4994              		@ args = 0, pretend = 0, frame = 16
 4995              		@ frame_needed = 0, uses_anonymous_args = 0
 4996              	.LVL662:
 4997 0000 2DE9F04F 		push	{r4, r5, r6, r7, r8, r9, r10, fp, lr}
 4998              		.cfi_def_cfa_offset 36
 4999              		.cfi_offset 4, -36
 5000              		.cfi_offset 5, -32
 5001              		.cfi_offset 6, -28
 5002              		.cfi_offset 7, -24
 5003              		.cfi_offset 8, -20
 5004              		.cfi_offset 9, -16
 5005              		.cfi_offset 10, -12
 5006              		.cfi_offset 11, -8
 5007              		.cfi_offset 14, -4
 5008              		.loc 1 2251 0
 5009 0004 0021     		movs	r1, #0
 5010              		.loc 1 2243 0
 5011 0006 85B0     		sub	sp, sp, #20
 5012              		.cfi_def_cfa_offset 56
 5013              		.loc 1 2243 0
 5014 0008 0446     		mov	r4, r0
 5015              		.loc 1 2245 0
 5016 000a D0F80080 		ldr	r8, [r0]
ARM GAS  /tmp/cc6Bizie.s 			page 89


 5017              	.LVL663:
 5018              		.loc 1 2251 0
 5019 000e FFF7FEFF 		bl	dir_sdi
 5020              	.LVL664:
 5021              		.loc 1 2252 0
 5022 0012 8246     		mov	r10, r0
 5023 0014 0028     		cmp	r0, #0
 5024 0016 40F0D280 		bne	.L578
 5025              		.loc 1 2254 0
 5026 001a 98F80030 		ldrb	r3, [r8]	@ zero_extendqisi2
 5027 001e 042B     		cmp	r3, #4
 5028 0020 39D1     		bne	.L545
 5029              	.LBB296:
 5030              		.loc 1 2257 0
 5031 0022 D8F80C00 		ldr	r0, [r8, #12]
 5032              	.LVL665:
 5033 0026 FFF7FEFF 		bl	xname_sum
 5034              	.LVL666:
 5035 002a 0746     		mov	r7, r0
 5036              	.LVL667:
 5037              	.L547:
 5038              		.loc 1 2259 0
 5039 002c 2046     		mov	r0, r4
 5040 002e FFF7FEFF 		bl	dir_read.constprop.12
 5041              	.LVL668:
 5042 0032 08B1     		cbz	r0, .L553
 5043              	.LVL669:
 5044              	.L569:
 5045              	.LBE296:
 5046              		.loc 1 2278 0
 5047 0034 8246     		mov	r10, r0
 5048 0036 C2E0     		b	.L578
 5049              	.LVL670:
 5050              	.L553:
 5051              	.LBB301:
 5052              		.loc 1 2263 0
 5053 0038 D8F81030 		ldr	r3, [r8, #16]
 5054              	.LBB297:
 5055              	.LBB298:
 5056              		.loc 1 553 0
 5057 003c 93F82510 		ldrb	r1, [r3, #37]	@ zero_extendqisi2
 5058 0040 93F82420 		ldrb	r2, [r3, #36]	@ zero_extendqisi2
 5059              	.LBE298:
 5060              	.LBE297:
 5061              		.loc 1 2263 0
 5062 0044 42EA0122 		orr	r2, r2, r1, lsl #8
 5063 0048 9742     		cmp	r7, r2
 5064 004a EFD1     		bne	.L547
 5065              	.LVL671:
 5066 004c 93F82390 		ldrb	r9, [r3, #35]	@ zero_extendqisi2
 5067              		.loc 1 2264 0
 5068 0050 0546     		mov	r5, r0
 5069 0052 4026     		movs	r6, #64
 5070              	.LVL672:
 5071              	.L548:
 5072              		.loc 1 2264 0 is_stmt 0 discriminator 1
 5073 0054 4D45     		cmp	r5, r9
ARM GAS  /tmp/cc6Bizie.s 			page 90


 5074 0056 06D1     		bne	.L551
 5075              		.loc 1 2268 0 is_stmt 1
 5076 0058 D8F80C30 		ldr	r3, [r8, #12]
 5077 005c 33F81530 		ldrh	r3, [r3, r5, lsl #1]
 5078 0060 002B     		cmp	r3, #0
 5079 0062 E3D1     		bne	.L547
 5080 0064 ABE0     		b	.L578
 5081              	.L551:
 5082              		.loc 1 2265 0
 5083 0066 F106     		lsls	r1, r6, #27
 5084              		.loc 1 2266 0
 5085 0068 D8F81030 		ldr	r3, [r8, #16]
 5086              		.loc 1 2265 0
 5087 006c 08BF     		it	eq
 5088 006e 0236     		addeq	r6, r6, #2
 5089              	.LVL673:
 5090              		.loc 1 2266 0
 5091 0070 9A19     		adds	r2, r3, r6
 5092              	.LBB299:
 5093              	.LBB300:
 5094              		.loc 1 553 0
 5095 0072 9B5D     		ldrb	r3, [r3, r6]	@ zero_extendqisi2
 5096 0074 5078     		ldrb	r0, [r2, #1]	@ zero_extendqisi2
 5097              	.LBE300:
 5098              	.LBE299:
 5099              		.loc 1 2266 0
 5100 0076 43EA0020 		orr	r0, r3, r0, lsl #8
 5101 007a FFF7FEFF 		bl	ff_wtoupper
 5102              	.LVL674:
 5103 007e D8F80C30 		ldr	r3, [r8, #12]
 5104 0082 8346     		mov	fp, r0
 5105 0084 33F81500 		ldrh	r0, [r3, r5, lsl #1]
 5106 0088 FFF7FEFF 		bl	ff_wtoupper
 5107              	.LVL675:
 5108 008c 8345     		cmp	fp, r0
 5109 008e CDD1     		bne	.L547
 5110              	.LVL676:
 5111              		.loc 1 2264 0 discriminator 2
 5112 0090 0236     		adds	r6, r6, #2
 5113              	.LVL677:
 5114 0092 0135     		adds	r5, r5, #1
 5115              	.LVL678:
 5116 0094 DEE7     		b	.L548
 5117              	.LVL679:
 5118              	.L545:
 5119              	.LBE301:
 5120              		.loc 1 2275 0
 5121 0096 4FF0FF33 		mov	r3, #-1
 5122 009a 4FF0FF0B 		mov	fp, #255
 5123 009e E364     		str	r3, [r4, #76]
 5124 00a0 5E46     		mov	r6, fp
 5125              	.LVL680:
 5126              	.L568:
 5127              		.loc 1 2278 0
 5128 00a2 A16B     		ldr	r1, [r4, #56]
 5129 00a4 4046     		mov	r0, r8
 5130              	.LVL681:
ARM GAS  /tmp/cc6Bizie.s 			page 91


 5131 00a6 FFF7FEFF 		bl	move_window
 5132              	.LVL682:
 5133              		.loc 1 2279 0
 5134 00aa 0028     		cmp	r0, #0
 5135 00ac C2D1     		bne	.L569
 5136              		.loc 1 2280 0
 5137 00ae E56B     		ldr	r5, [r4, #60]
 5138 00b0 2F78     		ldrb	r7, [r5]	@ zero_extendqisi2
 5139              	.LVL683:
 5140              		.loc 1 2281 0
 5141 00b2 002F     		cmp	r7, #0
 5142 00b4 00F08980 		beq	.L570
 5143              		.loc 1 2283 0
 5144 00b8 EA7A     		ldrb	r2, [r5, #11]	@ zero_extendqisi2
 5145              		.loc 1 2284 0
 5146 00ba E52F     		cmp	r7, #229
 5147              		.loc 1 2283 0
 5148 00bc 02F03F03 		and	r3, r2, #63
 5149              	.LVL684:
 5150 00c0 A371     		strb	r3, [r4, #6]
 5151              		.loc 1 2284 0
 5152 00c2 03D0     		beq	.L566
 5153              		.loc 1 2284 0 is_stmt 0 discriminator 1
 5154 00c4 1207     		lsls	r2, r2, #28
 5155 00c6 05D5     		bpl	.L555
 5156              		.loc 1 2284 0 discriminator 2
 5157 00c8 0F2B     		cmp	r3, #15
 5158 00ca 05D0     		beq	.L556
 5159              	.LVL685:
 5160              	.L566:
 5161              		.loc 1 2300 0 is_stmt 1
 5162 00cc 4FF0FF33 		mov	r3, #-1
 5163 00d0 E364     		str	r3, [r4, #76]
 5164 00d2 5AE0     		b	.L577
 5165              	.LVL686:
 5166              	.L555:
 5167              		.loc 1 2287 0
 5168 00d4 0F2B     		cmp	r3, #15
 5169 00d6 60D1     		bne	.L558
 5170              	.L556:
 5171              		.loc 1 2288 0
 5172 00d8 94F84B30 		ldrb	r3, [r4, #75]	@ zero_extendqisi2
 5173              	.LVL687:
 5174 00dc 5806     		lsls	r0, r3, #25
 5175              	.LVL688:
 5176 00de 55D4     		bmi	.L557
 5177              		.loc 1 2289 0
 5178 00e0 7906     		lsls	r1, r7, #25
 5179 00e2 4AD5     		bpl	.L559
 5180              		.loc 1 2292 0
 5181 00e4 226B     		ldr	r2, [r4, #48]
 5182              		.loc 1 2290 0
 5183 00e6 6B7B     		ldrb	r3, [r5, #13]	@ zero_extendqisi2
 5184              	.LVL689:
 5185              		.loc 1 2292 0
 5186 00e8 E264     		str	r2, [r4, #76]
 5187              		.loc 1 2291 0
ARM GAS  /tmp/cc6Bizie.s 			page 92


 5188 00ea 07F0BF07 		and	r7, r7, #191
 5189              	.LVL690:
 5190              	.L560:
 5191              		.loc 1 2295 0 discriminator 1
 5192 00ee 95F80DB0 		ldrb	fp, [r5, #13]	@ zero_extendqisi2
 5193 00f2 9B45     		cmp	fp, r3
 5194 00f4 67D1     		bne	.L572
 5195              	.LVL691:
 5196              	.LBB302:
 5197              	.LBB303:
 5198              	.LBB304:
 5199              	.LBB305:
 5200              		.loc 1 553 0 discriminator 3
 5201 00f6 EB7E     		ldrb	r3, [r5, #27]	@ zero_extendqisi2
 5202              	.LVL692:
 5203 00f8 AE7E     		ldrb	r6, [r5, #26]	@ zero_extendqisi2
 5204 00fa 46EA0326 		orr	r6, r6, r3, lsl #8
 5205              	.LBE305:
 5206              	.LBE304:
 5207              		.loc 1 1722 0 discriminator 3
 5208 00fe 36B2     		sxth	r6, r6
 5209 0100 002E     		cmp	r6, #0
 5210 0102 42D1     		bne	.L577
 5211              		.loc 1 1724 0
 5212 0104 95F80090 		ldrb	r9, [r5]	@ zero_extendqisi2
 5213              	.LBE303:
 5214              	.LBE302:
 5215              		.loc 1 2295 0
 5216 0108 D8F80C30 		ldr	r3, [r8, #12]
 5217 010c 0093     		str	r3, [sp]
 5218              	.LBB314:
 5219              	.LBB312:
 5220              		.loc 1 1724 0
 5221 010e 09F03F09 		and	r9, r9, #63
 5222 0112 09F1FF33 		add	r3, r9, #-1
 5223 0116 4FF00D09 		mov	r9, #13
 5224 011a 09FB03F9 		mul	r9, r9, r3
 5225              	.LVL693:
 5226              		.loc 1 1726 0
 5227 011e 0121     		movs	r1, #1
 5228              	.LVL694:
 5229              	.L563:
 5230              		.loc 1 1727 0
 5231 0120 2B4B     		ldr	r3, .L602
 5232 0122 F25C     		ldrb	r2, [r6, r3]	@ zero_extendqisi2
 5233 0124 AB18     		adds	r3, r5, r2
 5234              	.LVL695:
 5235              	.LBB306:
 5236              	.LBB307:
 5237              		.loc 1 553 0
 5238 0126 AA5C     		ldrb	r2, [r5, r2]	@ zero_extendqisi2
 5239 0128 5B78     		ldrb	r3, [r3, #1]	@ zero_extendqisi2
 5240              	.LVL696:
 5241 012a 42EA0323 		orr	r3, r2, r3, lsl #8
 5242              	.LVL697:
 5243              	.LBE307:
 5244              	.LBE306:
ARM GAS  /tmp/cc6Bizie.s 			page 93


 5245              		.loc 1 1728 0
 5246 012e 41B3     		cbz	r1, .L561
 5247              		.loc 1 1729 0
 5248 0130 B9F1FE0F 		cmp	r9, #254
 5249 0134 29D8     		bhi	.L577
 5250 0136 1846     		mov	r0, r3
 5251 0138 0393     		str	r3, [sp, #12]
 5252 013a FFF7FEFF 		bl	ff_wtoupper
 5253              	.LVL698:
 5254 013e 009B     		ldr	r3, [sp]
 5255 0140 0290     		str	r0, [sp, #8]
 5256 0142 09F10102 		add	r2, r9, #1
 5257 0146 33F81900 		ldrh	r0, [r3, r9, lsl #1]
 5258 014a 0192     		str	r2, [sp, #4]
 5259              	.LVL699:
 5260 014c FFF7FEFF 		bl	ff_wtoupper
 5261              	.LVL700:
 5262 0150 0299     		ldr	r1, [sp, #8]
 5263 0152 8142     		cmp	r1, r0
 5264 0154 19D1     		bne	.L577
 5265              	.LVL701:
 5266              	.LBB310:
 5267              	.LBB308:
 5268              		.loc 1 553 0
 5269 0156 039B     		ldr	r3, [sp, #12]
 5270              	.LBE308:
 5271              	.LBE310:
 5272              		.loc 1 1729 0
 5273 0158 019A     		ldr	r2, [sp, #4]
 5274              	.LBB311:
 5275              	.LBB309:
 5276              		.loc 1 553 0
 5277 015a 1946     		mov	r1, r3
 5278              	.LBE309:
 5279              	.LBE311:
 5280              		.loc 1 1729 0
 5281 015c 9146     		mov	r9, r2
 5282              	.LVL702:
 5283              	.L562:
 5284              		.loc 1 1726 0
 5285 015e 0136     		adds	r6, r6, #1
 5286              	.LVL703:
 5287 0160 0D2E     		cmp	r6, #13
 5288 0162 DDD1     		bne	.L563
 5289              		.loc 1 1738 0
 5290 0164 2B78     		ldrb	r3, [r5]	@ zero_extendqisi2
 5291 0166 5A06     		lsls	r2, r3, #25
 5292 0168 04D5     		bpl	.L564
 5293 016a 19B1     		cbz	r1, .L564
 5294 016c 009B     		ldr	r3, [sp]
 5295 016e 33F81930 		ldrh	r3, [r3, r9, lsl #1]
 5296 0172 53B9     		cbnz	r3, .L577
 5297              	.L564:
 5298              	.LVL704:
 5299              	.LBE312:
 5300              	.LBE314:
 5301              		.loc 1 2295 0
ARM GAS  /tmp/cc6Bizie.s 			page 94


 5302 0174 013F     		subs	r7, r7, #1
 5303              	.LVL705:
 5304 0176 FEB2     		uxtb	r6, r7
 5305 0178 08E0     		b	.L557
 5306              	.LVL706:
 5307              	.L559:
 5308 017a BE42     		cmp	r6, r7
 5309 017c 05D1     		bne	.L577
 5310 017e 5B46     		mov	r3, fp
 5311 0180 B5E7     		b	.L560
 5312              	.LVL707:
 5313              	.L561:
 5314              	.LBB315:
 5315              	.LBB313:
 5316              		.loc 1 1734 0
 5317 0182 4FF6FF72 		movw	r2, #65535
 5318 0186 9342     		cmp	r3, r2
 5319 0188 E9D0     		beq	.L562
 5320              	.LVL708:
 5321              	.L577:
 5322              	.LBE313:
 5323              	.LBE315:
 5324              		.loc 1 2295 0
 5325 018a FF26     		movs	r6, #255
 5326              	.L557:
 5327              	.LVL709:
 5328              		.loc 1 2307 0
 5329 018c 0021     		movs	r1, #0
 5330 018e 2046     		mov	r0, r4
 5331 0190 FFF7FEFF 		bl	dir_next
 5332              	.LVL710:
 5333              		.loc 1 2308 0
 5334 0194 0028     		cmp	r0, #0
 5335 0196 84D0     		beq	.L568
 5336 0198 4CE7     		b	.L569
 5337              	.LVL711:
 5338              	.L558:
 5339              		.loc 1 2298 0
 5340 019a 26B9     		cbnz	r6, .L565
 5341              		.loc 1 2298 0 is_stmt 0 discriminator 1
 5342 019c 2846     		mov	r0, r5
 5343              	.LVL712:
 5344 019e FFF7FEFF 		bl	sum_sfn
 5345              	.LVL713:
 5346 01a2 8345     		cmp	fp, r0
 5347 01a4 0BD0     		beq	.L578
 5348              	.L565:
 5349              		.loc 1 2299 0 is_stmt 1
 5350 01a6 94F84B30 		ldrb	r3, [r4, #75]	@ zero_extendqisi2
 5351 01aa DB07     		lsls	r3, r3, #31
 5352 01ac 8ED4     		bmi	.L566
 5353              		.loc 1 2299 0 is_stmt 0 discriminator 1
 5354 01ae 0B22     		movs	r2, #11
 5355 01b0 04F14001 		add	r1, r4, #64
 5356 01b4 2846     		mov	r0, r5
 5357 01b6 FFF7FEFF 		bl	mem_cmp
 5358              	.LVL714:
ARM GAS  /tmp/cc6Bizie.s 			page 95


 5359 01ba 0028     		cmp	r0, #0
 5360 01bc 86D1     		bne	.L566
 5361              	.LVL715:
 5362              	.L578:
 5363              		.loc 1 2311 0 is_stmt 1
 5364 01be 5046     		mov	r0, r10
 5365 01c0 05B0     		add	sp, sp, #20
 5366              		.cfi_remember_state
 5367              		.cfi_def_cfa_offset 36
 5368              		@ sp needed
 5369 01c2 BDE8F08F 		pop	{r4, r5, r6, r7, r8, r9, r10, fp, pc}
 5370              	.LVL716:
 5371              	.L572:
 5372              		.cfi_restore_state
 5373 01c6 9B46     		mov	fp, r3
 5374 01c8 DFE7     		b	.L577
 5375              	.LVL717:
 5376              	.L570:
 5377              		.loc 1 2281 0
 5378 01ca 4FF0040A 		mov	r10, #4
 5379 01ce F6E7     		b	.L578
 5380              	.L603:
 5381              		.align	2
 5382              	.L602:
 5383 01d0 00000000 		.word	.LANCHOR2
 5384              		.cfi_endproc
 5385              	.LFE335:
 5386              		.size	dir_find, .-dir_find
 5387              		.section	.text.dir_register,"ax",%progbits
 5388              		.align	1
 5389              		.syntax unified
 5390              		.thumb
 5391              		.thumb_func
 5392              		.fpu fpv4-sp-d16
 5393              		.type	dir_register, %function
 5394              	dir_register:
 5395              	.LFB336:
 5396              		.loc 1 2325 0
 5397              		.cfi_startproc
 5398              		@ args = 0, pretend = 0, frame = 96
 5399              		@ frame_needed = 0, uses_anonymous_args = 0
 5400              	.LVL718:
 5401 0000 2DE9F04F 		push	{r4, r5, r6, r7, r8, r9, r10, fp, lr}
 5402              		.cfi_def_cfa_offset 36
 5403              		.cfi_offset 4, -36
 5404              		.cfi_offset 5, -32
 5405              		.cfi_offset 6, -28
 5406              		.cfi_offset 7, -24
 5407              		.cfi_offset 8, -20
 5408              		.cfi_offset 9, -16
 5409              		.cfi_offset 10, -12
 5410              		.cfi_offset 11, -8
 5411              		.cfi_offset 14, -4
 5412              		.loc 1 2333 0
 5413 0004 90F84B40 		ldrb	r4, [r0, #75]	@ zero_extendqisi2
 5414 0008 14F0A004 		ands	r4, r4, #160
 5415              		.loc 1 2325 0
ARM GAS  /tmp/cc6Bizie.s 			page 96


 5416 000c 99B0     		sub	sp, sp, #100
 5417              		.cfi_def_cfa_offset 136
 5418              		.loc 1 2325 0
 5419 000e 0546     		mov	r5, r0
 5420              		.loc 1 2333 0
 5421 0010 40F00181 		bne	.L641
 5422              		.loc 1 2327 0 discriminator 1
 5423 0014 0668     		ldr	r6, [r0]
 5424              		.loc 1 2334 0 discriminator 1
 5425 0016 F268     		ldr	r2, [r6, #12]
 5426              	.L606:
 5427              	.LVL719:
 5428 0018 32F81430 		ldrh	r3, [r2, r4, lsl #1]
 5429 001c 002B     		cmp	r3, #0
 5430 001e 4CD1     		bne	.L607
 5431              		.loc 1 2337 0
 5432 0020 3378     		ldrb	r3, [r6]	@ zero_extendqisi2
 5433 0022 042B     		cmp	r3, #4
 5434 0024 40F08980 		bne	.L608
 5435              		.loc 1 2338 0
 5436 0028 0F23     		movs	r3, #15
 5437 002a 0E34     		adds	r4, r4, #14
 5438              	.LVL720:
 5439              		.loc 1 2339 0
 5440 002c 2846     		mov	r0, r5
 5441              	.LVL721:
 5442              		.loc 1 2338 0
 5443 002e B4FBF3F4 		udiv	r4, r4, r3
 5444              	.LVL722:
 5445              		.loc 1 2339 0
 5446 0032 A11C     		adds	r1, r4, #2
 5447              	.LVL723:
 5448 0034 FFF7FEFF 		bl	dir_alloc
 5449              	.LVL724:
 5450              		.loc 1 2340 0
 5451 0038 8246     		mov	r10, r0
 5452 003a 0028     		cmp	r0, #0
 5453 003c 79D1     		bne	.L648
 5454              		.loc 1 2341 0
 5455 003e 2B6B     		ldr	r3, [r5, #48]
 5456 0040 04F10064 		add	r4, r4, #134217728
 5457              	.LVL725:
 5458 0044 0134     		adds	r4, r4, #1
 5459              	.LVL726:
 5460 0046 A3EB4414 		sub	r4, r3, r4, lsl #5
 5461              	.LVL727:
 5462              		.loc 1 2343 0
 5463 004a EB79     		ldrb	r3, [r5, #7]	@ zero_extendqisi2
 5464              		.loc 1 2341 0
 5465 004c EC64     		str	r4, [r5, #76]
 5466              		.loc 1 2343 0
 5467 004e 5A07     		lsls	r2, r3, #29
 5468 0050 35D5     		bpl	.L611
 5469              		.loc 1 2344 0
 5470 0052 23F00403 		bic	r3, r3, #4
 5471 0056 EB71     		strb	r3, [r5, #7]
 5472              		.loc 1 2345 0
ARM GAS  /tmp/cc6Bizie.s 			page 97


 5473 0058 2846     		mov	r0, r5
 5474              	.LVL728:
 5475 005a FFF7FEFF 		bl	fill_first_frag
 5476              	.LVL729:
 5477              		.loc 1 2346 0
 5478 005e 50BB     		cbnz	r0, .L643
 5479              		.loc 1 2347 0
 5480 0060 4FF0FF32 		mov	r2, #-1
 5481 0064 696B     		ldr	r1, [r5, #52]
 5482 0066 2846     		mov	r0, r5
 5483              	.LVL730:
 5484 0068 FFF7FEFF 		bl	fill_last_frag
 5485              	.LVL731:
 5486              		.loc 1 2348 0
 5487 006c 18BB     		cbnz	r0, .L643
 5488              		.loc 1 2349 0
 5489 006e AB68     		ldr	r3, [r5, #8]
 5490 0070 2BB3     		cbz	r3, .L611
 5491              	.LBB337:
 5492              		.loc 1 2352 0
 5493 0072 2946     		mov	r1, r5
 5494 0074 04A8     		add	r0, sp, #16
 5495              	.LVL732:
 5496 0076 FFF7FEFF 		bl	load_obj_xdir
 5497              	.LVL733:
 5498              		.loc 1 2353 0
 5499 007a E0B9     		cbnz	r0, .L643
 5500              		.loc 1 2354 0
 5501 007c D5E90423 		ldrd	r2, [r5, #16]
 5502 0080 7089     		ldrh	r0, [r6, #10]
 5503              	.LVL734:
 5504 0082 4FF40071 		mov	r1, #512
 5505 0086 E1FB0023 		umlal	r2, r3, r1, r0
 5506              		.loc 1 2355 0
 5507 008a 3069     		ldr	r0, [r6, #16]
 5508              		.loc 1 2354 0
 5509 008c C5E90423 		strd	r2, [r5, #16]
 5510              		.loc 1 2355 0
 5511 0090 3830     		adds	r0, r0, #56
 5512 0092 FFF7FEFF 		bl	st_qword
 5513              	.LVL735:
 5514              		.loc 1 2356 0
 5515 0096 3069     		ldr	r0, [r6, #16]
 5516 0098 D5E90423 		ldrd	r2, [r5, #16]
 5517 009c 2830     		adds	r0, r0, #40
 5518 009e FFF7FEFF 		bl	st_qword
 5519              	.LVL736:
 5520              		.loc 1 2357 0
 5521 00a2 EB79     		ldrb	r3, [r5, #7]	@ zero_extendqisi2
 5522 00a4 3269     		ldr	r2, [r6, #16]
 5523 00a6 43F00103 		orr	r3, r3, #1
 5524 00aa 82F82130 		strb	r3, [r2, #33]
 5525              		.loc 1 2358 0
 5526 00ae 04A8     		add	r0, sp, #16
 5527 00b0 FFF7FEFF 		bl	store_xdir
 5528              	.LVL737:
 5529              		.loc 1 2359 0
ARM GAS  /tmp/cc6Bizie.s 			page 98


 5530 00b4 18B1     		cbz	r0, .L611
 5531              	.L643:
 5532              	.LBE337:
 5533 00b6 8246     		mov	r10, r0
 5534 00b8 3BE0     		b	.L648
 5535              	.LVL738:
 5536              	.L607:
 5537              		.loc 1 2334 0 discriminator 3
 5538 00ba 0134     		adds	r4, r4, #1
 5539              	.LVL739:
 5540 00bc ACE7     		b	.L606
 5541              	.LVL740:
 5542              	.L611:
 5543              		.loc 1 2363 0
 5544 00be 3469     		ldr	r4, [r6, #16]
 5545 00c0 F568     		ldr	r5, [r6, #12]
 5546              	.LVL741:
 5547              	.LBB338:
 5548              	.LBB339:
 5549              		.loc 1 2129 0
 5550 00c2 4022     		movs	r2, #64
 5551 00c4 0021     		movs	r1, #0
 5552 00c6 2046     		mov	r0, r4
 5553              	.LVL742:
 5554 00c8 FFF7FEFF 		bl	mem_set
 5555              	.LVL743:
 5556              		.loc 1 2130 0
 5557 00cc 8523     		movs	r3, #133
 5558              		.loc 1 2131 0
 5559 00ce 0021     		movs	r1, #0
 5560              		.loc 1 2130 0
 5561 00d0 2370     		strb	r3, [r4]
 5562              		.loc 1 2131 0
 5563 00d2 C023     		movs	r3, #192
 5564 00d4 84F82030 		strb	r3, [r4, #32]
 5565              	.LVL744:
 5566              		.loc 1 2134 0
 5567 00d8 0120     		movs	r0, #1
 5568 00da 0A46     		mov	r2, r1
 5569 00dc 4023     		movs	r3, #64
 5570              		.loc 1 2136 0
 5571 00de 4FF0C10E 		mov	lr, #193
 5572 00e2 8C46     		mov	ip, r1
 5573              	.LVL745:
 5574              	.L614:
 5575 00e4 5F1C     		adds	r7, r3, #1
 5576 00e6 04F803E0 		strb	lr, [r4, r3]
 5577 00ea 04F807C0 		strb	ip, [r4, r7]
 5578 00ee CEB2     		uxtb	r6, r1
 5579              	.LVL746:
 5580 00f0 0233     		adds	r3, r3, #2
 5581              	.LVL747:
 5582              	.L613:
 5583              		.loc 1 2138 0
 5584 00f2 20B1     		cbz	r0, .L612
 5585 00f4 35F81200 		ldrh	r0, [r5, r2, lsl #1]
 5586              	.LVL748:
ARM GAS  /tmp/cc6Bizie.s 			page 99


 5587 00f8 08B1     		cbz	r0, .L612
 5588 00fa 0132     		adds	r2, r2, #1
 5589              	.LVL749:
 5590 00fc D2B2     		uxtb	r2, r2
 5591              	.LVL750:
 5592              	.L612:
 5593              	.LBB340:
 5594              	.LBB341:
 5595              		.loc 1 592 0
 5596 00fe E718     		adds	r7, r4, r3
 5597              	.LVL751:
 5598              		.loc 1 591 0
 5599 0100 E054     		strb	r0, [r4, r3]
 5600              	.LVL752:
 5601 0102 4FEA1028 		lsr	r8, r0, #8
 5602              	.LBE341:
 5603              	.LBE340:
 5604              		.loc 1 2140 0
 5605 0106 0233     		adds	r3, r3, #2
 5606              	.LVL753:
 5607              	.LBB343:
 5608              	.LBB342:
 5609              		.loc 1 592 0
 5610 0108 87F80180 		strb	r8, [r7, #1]
 5611              	.LVL754:
 5612              	.LBE342:
 5613              	.LBE343:
 5614              		.loc 1 2141 0
 5615 010c DF06     		lsls	r7, r3, #27
 5616 010e F0D1     		bne	.L613
 5617              	.LVL755:
 5618              		.loc 1 2143 0
 5619 0110 35F81270 		ldrh	r7, [r5, r2, lsl #1]
 5620 0114 0131     		adds	r1, r1, #1
 5621              	.LVL756:
 5622 0116 002F     		cmp	r7, #0
 5623 0118 E4D1     		bne	.L614
 5624              		.loc 1 2146 0
 5625 011a B31C     		adds	r3, r6, #2
 5626              	.LVL757:
 5627              		.loc 1 2145 0
 5628 011c 84F82320 		strb	r2, [r4, #35]
 5629              		.loc 1 2146 0
 5630 0120 6370     		strb	r3, [r4, #1]
 5631              		.loc 1 2147 0
 5632 0122 2846     		mov	r0, r5
 5633              	.LVL758:
 5634 0124 FFF7FEFF 		bl	xname_sum
 5635              	.LVL759:
 5636              	.LBB344:
 5637              	.LBB345:
 5638              		.loc 1 591 0
 5639 0128 84F82400 		strb	r0, [r4, #36]
 5640              	.LVL760:
 5641 012c 000A     		lsrs	r0, r0, #8
 5642              	.LVL761:
 5643              		.loc 1 592 0
ARM GAS  /tmp/cc6Bizie.s 			page 100


 5644 012e 84F82500 		strb	r0, [r4, #37]
 5645              	.LVL762:
 5646              	.L648:
 5647              	.LBE345:
 5648              	.LBE344:
 5649              	.LBE339:
 5650              	.LBE338:
 5651              		.loc 1 2417 0
 5652 0132 5046     		mov	r0, r10
 5653 0134 19B0     		add	sp, sp, #100
 5654              		.cfi_remember_state
 5655              		.cfi_def_cfa_offset 36
 5656              		@ sp needed
 5657 0136 BDE8F08F 		pop	{r4, r5, r6, r7, r8, r9, r10, fp, pc}
 5658              	.LVL763:
 5659              	.L608:
 5660              		.cfi_restore_state
 5661              		.loc 1 2368 0
 5662 013a 05F14007 		add	r7, r5, #64
 5663              	.LVL764:
 5664              	.LBB346:
 5665              	.LBB347:
 5666 013e 0C22     		movs	r2, #12
 5667 0140 3946     		mov	r1, r7
 5668 0142 04A8     		add	r0, sp, #16
 5669              	.LVL765:
 5670 0144 FFF7FEFF 		bl	mem_cpy.part.0
 5671              	.LVL766:
 5672              	.LBE347:
 5673              	.LBE346:
 5674              		.loc 1 2369 0
 5675 0148 9DF81B30 		ldrb	r3, [sp, #27]	@ zero_extendqisi2
 5676 014c DB07     		lsls	r3, r3, #31
 5677 014e 6BD5     		bpl	.L615
 5678              		.loc 1 2370 0
 5679 0150 4023     		movs	r3, #64
 5680              	.LBB348:
 5681              	.LBB349:
 5682              		.loc 1 1847 0
 5683 0152 DFF8EC81 		ldr	r8, .L680+4
 5684              	.LBE349:
 5685              	.LBE348:
 5686              		.loc 1 2370 0
 5687 0156 85F84B30 		strb	r3, [r5, #75]
 5688              	.LVL767:
 5689              		.loc 1 2371 0
 5690 015a 4FF00109 		mov	r9, #1
 5691              	.LVL768:
 5692              	.L630:
 5693              	.LBB357:
 5694              	.LBB354:
 5695              	.LBB350:
 5696              	.LBB351:
 5697 015e 0B22     		movs	r2, #11
 5698 0160 04A9     		add	r1, sp, #16
 5699 0162 3846     		mov	r0, r7
 5700              	.LBE351:
ARM GAS  /tmp/cc6Bizie.s 			page 101


 5701              	.LBE350:
 5702              	.LBE354:
 5703              	.LBE357:
 5704              		.loc 1 2372 0
 5705 0164 D6F80CA0 		ldr	r10, [r6, #12]
 5706              	.LVL769:
 5707              	.LBB358:
 5708              	.LBB355:
 5709              	.LBB353:
 5710              	.LBB352:
 5711 0168 FFF7FEFF 		bl	mem_cpy.part.0
 5712              	.LVL770:
 5713              	.LBE352:
 5714              	.LBE353:
 5715              		.loc 1 1840 0
 5716 016c B9F1050F 		cmp	r9, #5
 5717 0170 49D8     		bhi	.L616
 5718 0172 4B46     		mov	r3, r9
 5719              	.LVL771:
 5720              	.L617:
 5721              		.loc 1 1842 0
 5722 0174 0722     		movs	r2, #7
 5723              	.LVL772:
 5724              	.L623:
 5725              		.loc 1 1856 0
 5726 0176 03F00F00 		and	r0, r3, #15
 5727 017a 00F13001 		add	r1, r0, #48
 5728              	.LVL773:
 5729              		.loc 1 1857 0
 5730 017e 3929     		cmp	r1, #57
 5731 0180 88BF     		it	hi
 5732 0182 00F13701 		addhi	r1, r0, #55
 5733              	.LVL774:
 5734              		.loc 1 1858 0
 5735 0186 013A     		subs	r2, r2, #1
 5736              	.LVL775:
 5737 0188 02A8     		add	r0, sp, #8
 5738 018a 1044     		add	r0, r0, r2
 5739              		.loc 1 1860 0
 5740 018c 1B09     		lsrs	r3, r3, #4
 5741              	.LVL776:
 5742              		.loc 1 1858 0
 5743 018e 4170     		strb	r1, [r0, #1]
 5744              		.loc 1 1860 0
 5745 0190 F1D1     		bne	.L623
 5746              		.loc 1 1861 0
 5747 0192 18A9     		add	r1, sp, #96
 5748              	.LVL777:
 5749 0194 1144     		add	r1, r1, r2
 5750 0196 7E20     		movs	r0, #126
 5751              	.LVL778:
 5752 0198 01F8580C 		strb	r0, [r1, #-88]
 5753              	.LVL779:
 5754              	.L624:
 5755              		.loc 1 1864 0
 5756 019c 9A42     		cmp	r2, r3
 5757 019e 38D0     		beq	.L644
ARM GAS  /tmp/cc6Bizie.s 			page 102


 5758 01a0 F95C     		ldrb	r1, [r7, r3]	@ zero_extendqisi2
 5759 01a2 2029     		cmp	r1, #32
 5760 01a4 33D1     		bne	.L626
 5761              	.LVL780:
 5762              	.L625:
 5763 01a6 3B44     		add	r3, r3, r7
 5764              	.LVL781:
 5765              	.L628:
 5766              		.loc 1 1871 0
 5767 01a8 072A     		cmp	r2, #7
 5768 01aa 9BBF     		ittet	ls
 5769 01ac 18A9     		addls	r1, sp, #96
 5770 01ae 8918     		addls	r1, r1, r2
 5771 01b0 2021     		movhi	r1, #32
 5772 01b2 11F8581C 		ldrbls	r1, [r1, #-88]	@ zero_extendqisi2
 5773 01b6 03F8011B 		strb	r1, [r3], #1
 5774              		.loc 1 1872 0
 5775 01ba A3EB0701 		sub	r1, r3, r7
 5776              		.loc 1 1871 0
 5777 01be 98BF     		it	ls
 5778 01c0 0132     		addls	r2, r2, #1
 5779              	.LVL782:
 5780              		.loc 1 1872 0
 5781 01c2 0729     		cmp	r1, #7
 5782 01c4 F0D9     		bls	.L628
 5783              	.LVL783:
 5784              	.LBE355:
 5785              	.LBE358:
 5786              		.loc 1 2373 0
 5787 01c6 2846     		mov	r0, r5
 5788 01c8 FFF7FEFF 		bl	dir_find
 5789              	.LVL784:
 5790              		.loc 1 2374 0
 5791 01cc 8246     		mov	r10, r0
 5792 01ce 28BB     		cbnz	r0, .L629
 5793              		.loc 1 2371 0 discriminator 2
 5794 01d0 09F10109 		add	r9, r9, #1
 5795              	.LVL785:
 5796 01d4 B9F1640F 		cmp	r9, #100
 5797 01d8 C1D1     		bne	.L630
 5798              		.loc 1 2376 0
 5799 01da 4FF0070A 		mov	r10, #7
 5800 01de A8E7     		b	.L648
 5801              	.LVL786:
 5802              	.L621:
 5803              	.LBB359:
 5804              	.LBB356:
 5805              		.loc 1 1842 0
 5806 01e0 1020     		movs	r0, #16
 5807              	.L619:
 5808              	.LVL787:
 5809              		.loc 1 1845 0
 5810 01e2 02F0010E 		and	lr, r2, #1
 5811 01e6 0EEB4303 		add	r3, lr, r3, lsl #1
 5812              	.LVL788:
 5813              		.loc 1 1847 0
 5814 01ea 13F4803F 		tst	r3, #65536
ARM GAS  /tmp/cc6Bizie.s 			page 103


 5815 01ee 18BF     		it	ne
 5816 01f0 83EA0803 		eorne	r3, r3, r8
 5817              	.LVL789:
 5818              		.loc 1 1844 0
 5819 01f4 0138     		subs	r0, r0, #1
 5820              	.LVL790:
 5821              		.loc 1 1846 0
 5822 01f6 4FEA5202 		lsr	r2, r2, #1
 5823              	.LVL791:
 5824              		.loc 1 1844 0
 5825 01fa F2D1     		bne	.L619
 5826              	.LVL792:
 5827              	.L620:
 5828              		.loc 1 1842 0
 5829 01fc 31F8022F 		ldrh	r2, [r1, #2]!
 5830              	.LVL793:
 5831 0200 002A     		cmp	r2, #0
 5832 0202 EDD1     		bne	.L621
 5833 0204 B6E7     		b	.L617
 5834              	.LVL794:
 5835              	.L616:
 5836 0206 AAF10201 		sub	r1, r10, #2
 5837              		.loc 1 1840 0
 5838 020a 4B46     		mov	r3, r9
 5839 020c F6E7     		b	.L620
 5840              	.LVL795:
 5841              	.L626:
 5842              		.loc 1 1864 0
 5843 020e 0133     		adds	r3, r3, #1
 5844              	.LVL796:
 5845 0210 C4E7     		b	.L624
 5846              	.L644:
 5847 0212 1346     		mov	r3, r2
 5848              	.LVL797:
 5849 0214 C7E7     		b	.L625
 5850              	.LVL798:
 5851              	.L641:
 5852              	.LBE356:
 5853              	.LBE359:
 5854              		.loc 1 2333 0
 5855 0216 4FF0060A 		mov	r10, #6
 5856 021a 8AE7     		b	.L648
 5857              	.LVL799:
 5858              	.L629:
 5859              		.loc 1 2377 0
 5860 021c 0428     		cmp	r0, #4
 5861 021e 88D1     		bne	.L648
 5862              		.loc 1 2378 0
 5863 0220 9DF81B30 		ldrb	r3, [sp, #27]	@ zero_extendqisi2
 5864 0224 85F84B30 		strb	r3, [r5, #75]
 5865              	.LVL800:
 5866              	.L615:
 5867              		.loc 1 2382 0
 5868 0228 9DF81B30 		ldrb	r3, [sp, #27]	@ zero_extendqisi2
 5869 022c 9B07     		lsls	r3, r3, #30
 5870 022e 45BF     		ittet	mi
 5871 0230 0C34     		addmi	r4, r4, #12
ARM GAS  /tmp/cc6Bizie.s 			page 104


 5872              	.LVL801:
 5873 0232 0D23     		movmi	r3, #13
 5874 0234 0124     		movpl	r4, #1
 5875 0236 B4FBF3F4 		udivmi	r4, r4, r3
 5876 023a 48BF     		it	mi
 5877 023c 0134     		addmi	r4, r4, #1
 5878              	.LVL802:
 5879              		.loc 1 2383 0
 5880 023e 2146     		mov	r1, r4
 5881 0240 2846     		mov	r0, r5
 5882 0242 FFF7FEFF 		bl	dir_alloc
 5883              	.LVL803:
 5884              		.loc 1 2384 0
 5885 0246 8246     		mov	r10, r0
 5886 0248 0028     		cmp	r0, #0
 5887 024a 7FF472AF 		bne	.L648
 5888              	.LVL804:
 5889              		.loc 1 2384 0 is_stmt 0 discriminator 1
 5890 024e 013C     		subs	r4, r4, #1
 5891              	.LVL805:
 5892 0250 58D0     		beq	.L632
 5893              		.loc 1 2385 0 is_stmt 1
 5894 0252 296B     		ldr	r1, [r5, #48]
 5895 0254 2846     		mov	r0, r5
 5896              	.LVL806:
 5897 0256 A1EB4411 		sub	r1, r1, r4, lsl #5
 5898 025a FFF7FEFF 		bl	dir_sdi
 5899              	.LVL807:
 5900              		.loc 1 2386 0
 5901 025e 8246     		mov	r10, r0
 5902 0260 0028     		cmp	r0, #0
 5903 0262 7FF466AF 		bne	.L648
 5904              		.loc 1 2387 0
 5905 0266 3846     		mov	r0, r7
 5906              	.LVL808:
 5907 0268 FFF7FEFF 		bl	sum_sfn
 5908              	.LVL809:
 5909              	.LBB360:
 5910              	.LBB361:
 5911              		.loc 1 1806 0
 5912 026c 4FF6FF79 		movw	r9, #65535
 5913              	.LBE361:
 5914              	.LBE360:
 5915              		.loc 1 2387 0
 5916 0270 8046     		mov	r8, r0
 5917              	.LVL810:
 5918              	.L638:
 5919              		.loc 1 2389 0
 5920 0272 A96B     		ldr	r1, [r5, #56]
 5921 0274 3046     		mov	r0, r6
 5922 0276 FFF7FEFF 		bl	move_window
 5923              	.LVL811:
 5924 027a 8246     		mov	r10, r0
 5925              	.LVL812:
 5926              		.loc 1 2390 0
 5927 027c 0028     		cmp	r0, #0
 5928 027e 7FF458AF 		bne	.L648
ARM GAS  /tmp/cc6Bizie.s 			page 105


 5929              		.loc 1 2391 0
 5930 0282 EB6B     		ldr	r3, [r5, #60]
 5931 0284 D6F80CC0 		ldr	ip, [r6, #12]
 5932              	.LBB370:
 5933              	.LBB368:
 5934              		.loc 1 1798 0
 5935 0288 83F80D80 		strb	r8, [r3, #13]
 5936              		.loc 1 1799 0
 5937 028c 0F22     		movs	r2, #15
 5938              	.LBE368:
 5939              	.LBE370:
 5940              		.loc 1 2391 0
 5941 028e E1B2     		uxtb	r1, r4
 5942              	.LVL813:
 5943              	.LBB371:
 5944              	.LBB369:
 5945              		.loc 1 1803 0
 5946 0290 4FF00D0E 		mov	lr, #13
 5947              		.loc 1 1799 0
 5948 0294 DA72     		strb	r2, [r3, #11]
 5949              		.loc 1 1803 0
 5950 0296 4A1E     		subs	r2, r1, #1
 5951 0298 0EFB02F2 		mul	r2, lr, r2
 5952              		.loc 1 1800 0
 5953 029c 1873     		strb	r0, [r3, #12]
 5954              	.LVL814:
 5955              	.LBB362:
 5956              	.LBB363:
 5957              		.loc 1 591 0
 5958 029e 9876     		strb	r0, [r3, #26]
 5959              	.LVL815:
 5960              		.loc 1 592 0
 5961 02a0 D876     		strb	r0, [r3, #27]
 5962              	.LVL816:
 5963              	.LBE363:
 5964              	.LBE362:
 5965              		.loc 1 1803 0
 5966 02a2 0192     		str	r2, [sp, #4]
 5967              	.LVL817:
 5968              		.loc 1 1804 0
 5969 02a4 8646     		mov	lr, r0
 5970              	.LVL818:
 5971              	.L635:
 5972              		.loc 1 1806 0
 5973 02a6 4845     		cmp	r0, r9
 5974              	.LVL819:
 5975 02a8 1FBF     		itttt	ne
 5976 02aa 019A     		ldrne	r2, [sp, #4]
 5977 02ac 3CF81200 		ldrhne	r0, [ip, r2, lsl #1]
 5978 02b0 0132     		addne	r2, r2, #1
 5979 02b2 0192     		strne	r2, [sp, #4]
 5980              	.LVL820:
 5981              		.loc 1 1807 0
 5982 02b4 214A     		ldr	r2, .L680
 5983 02b6 1EF802A0 		ldrb	r10, [lr, r2]	@ zero_extendqisi2
 5984              		.loc 1 1809 0
 5985 02ba 0EF1010E 		add	lr, lr, #1
ARM GAS  /tmp/cc6Bizie.s 			page 106


 5986              	.LVL821:
 5987              		.loc 1 1807 0
 5988 02be 03EB0A0B 		add	fp, r3, r10
 5989              	.LVL822:
 5990              	.LBB364:
 5991              	.LBB365:
 5992              		.loc 1 591 0
 5993 02c2 03F80A00 		strb	r0, [r3, r10]
 5994              	.LVL823:
 5995 02c6 4FEA102A 		lsr	r10, r0, #8
 5996              	.LBE365:
 5997              	.LBE364:
 5998              		.loc 1 1808 0
 5999 02ca 0028     		cmp	r0, #0
 6000 02cc 08BF     		it	eq
 6001 02ce 4846     		moveq	r0, r9
 6002              		.loc 1 1809 0
 6003 02d0 BEF10D0F 		cmp	lr, #13
 6004              	.LBB367:
 6005              	.LBB366:
 6006              		.loc 1 592 0
 6007 02d4 8BF801A0 		strb	r10, [fp, #1]
 6008              	.LVL824:
 6009              	.LBE366:
 6010              	.LBE367:
 6011              		.loc 1 1809 0
 6012 02d8 E5D1     		bne	.L635
 6013              		.loc 1 1810 0
 6014 02da 4845     		cmp	r0, r9
 6015 02dc 03D0     		beq	.L636
 6016 02de 019A     		ldr	r2, [sp, #4]
 6017 02e0 3CF81220 		ldrh	r2, [ip, r2, lsl #1]
 6018 02e4 0AB9     		cbnz	r2, .L637
 6019              	.L636:
 6020 02e6 41F04001 		orr	r1, r1, #64
 6021              	.LVL825:
 6022              	.L637:
 6023              		.loc 1 1811 0
 6024 02ea 1970     		strb	r1, [r3]
 6025              	.LVL826:
 6026              	.LBE369:
 6027              	.LBE371:
 6028              		.loc 1 2392 0
 6029 02ec 0123     		movs	r3, #1
 6030 02ee F370     		strb	r3, [r6, #3]
 6031              		.loc 1 2393 0
 6032 02f0 0021     		movs	r1, #0
 6033 02f2 2846     		mov	r0, r5
 6034 02f4 FFF7FEFF 		bl	dir_next
 6035              	.LVL827:
 6036              		.loc 1 2394 0
 6037 02f8 8246     		mov	r10, r0
 6038 02fa 0028     		cmp	r0, #0
 6039 02fc 7FF419AF 		bne	.L648
 6040              	.LVL828:
 6041              		.loc 1 2394 0 is_stmt 0 discriminator 1
 6042 0300 013C     		subs	r4, r4, #1
ARM GAS  /tmp/cc6Bizie.s 			page 107


 6043              	.LVL829:
 6044 0302 B6D1     		bne	.L638
 6045              	.LVL830:
 6046              	.L632:
 6047              		.loc 1 2405 0 is_stmt 1
 6048 0304 A96B     		ldr	r1, [r5, #56]
 6049 0306 3046     		mov	r0, r6
 6050 0308 FFF7FEFF 		bl	move_window
 6051              	.LVL831:
 6052              		.loc 1 2406 0
 6053 030c 8246     		mov	r10, r0
 6054 030e 0028     		cmp	r0, #0
 6055 0310 7FF40FAF 		bne	.L648
 6056              		.loc 1 2407 0
 6057 0314 2022     		movs	r2, #32
 6058 0316 5146     		mov	r1, r10
 6059 0318 E86B     		ldr	r0, [r5, #60]
 6060              	.LVL832:
 6061 031a FFF7FEFF 		bl	mem_set
 6062              	.LVL833:
 6063              	.LBB372:
 6064              	.LBB373:
 6065 031e 0B22     		movs	r2, #11
 6066 0320 3946     		mov	r1, r7
 6067 0322 E86B     		ldr	r0, [r5, #60]
 6068 0324 FFF7FEFF 		bl	mem_cpy.part.0
 6069              	.LVL834:
 6070              	.LBE373:
 6071              	.LBE372:
 6072              		.loc 1 2410 0
 6073 0328 95F84B30 		ldrb	r3, [r5, #75]	@ zero_extendqisi2
 6074 032c EA6B     		ldr	r2, [r5, #60]
 6075 032e 03F01803 		and	r3, r3, #24
 6076 0332 1373     		strb	r3, [r2, #12]
 6077              		.loc 1 2412 0
 6078 0334 0123     		movs	r3, #1
 6079 0336 F370     		strb	r3, [r6, #3]
 6080 0338 FBE6     		b	.L648
 6081              	.L681:
 6082 033a 00BF     		.align	2
 6083              	.L680:
 6084 033c 00000000 		.word	.LANCHOR2
 6085 0340 21100100 		.word	69665
 6086              		.cfi_endproc
 6087              	.LFE336:
 6088              		.size	dir_register, .-dir_register
 6089              		.section	.text.follow_path,"ax",%progbits
 6090              		.align	1
 6091              		.syntax unified
 6092              		.thumb
 6093              		.thumb_func
 6094              		.fpu fpv4-sp-d16
 6095              		.type	follow_path, %function
 6096              	follow_path:
 6097              	.LFB340:
 6098              		.loc 1 2864 0
 6099              		.cfi_startproc
ARM GAS  /tmp/cc6Bizie.s 			page 108


 6100              		@ args = 0, pretend = 0, frame = 96
 6101              		@ frame_needed = 0, uses_anonymous_args = 0
 6102              	.LVL835:
 6103 0000 2DE9F04F 		push	{r4, r5, r6, r7, r8, r9, r10, fp, lr}
 6104              		.cfi_def_cfa_offset 36
 6105              		.cfi_offset 4, -36
 6106              		.cfi_offset 5, -32
 6107              		.cfi_offset 6, -28
 6108              		.cfi_offset 7, -24
 6109              		.cfi_offset 8, -20
 6110              		.cfi_offset 9, -16
 6111              		.cfi_offset 10, -12
 6112              		.cfi_offset 11, -8
 6113              		.cfi_offset 14, -4
 6114              		.loc 1 2871 0
 6115 0004 0B78     		ldrb	r3, [r1]	@ zero_extendqisi2
 6116              		.loc 1 2867 0
 6117 0006 D0F800B0 		ldr	fp, [r0]
 6118              	.LVL836:
 6119              		.loc 1 2871 0
 6120 000a 2F2B     		cmp	r3, #47
 6121              		.loc 1 2864 0
 6122 000c 99B0     		sub	sp, sp, #100
 6123              		.cfi_def_cfa_offset 136
 6124              		.loc 1 2864 0
 6125 000e 0546     		mov	r5, r0
 6126 0010 8946     		mov	r9, r1
 6127              		.loc 1 2871 0
 6128 0012 01D0     		beq	.L683
 6129              		.loc 1 2871 0 is_stmt 0 discriminator 1
 6130 0014 5C2B     		cmp	r3, #92
 6131 0016 0AD1     		bne	.L684
 6132              	.L683:
 6133 0018 4A46     		mov	r2, r9
 6134              	.LVL837:
 6135              	.L685:
 6136              		.loc 1 2876 0 is_stmt 1 discriminator 1
 6137 001a 1378     		ldrb	r3, [r2]	@ zero_extendqisi2
 6138 001c 2F2B     		cmp	r3, #47
 6139 001e 9146     		mov	r9, r2
 6140              	.LVL838:
 6141 0020 02F10102 		add	r2, r2, #1
 6142              	.LVL839:
 6143 0024 F9D0     		beq	.L685
 6144              		.loc 1 2876 0 is_stmt 0 discriminator 3
 6145 0026 5C2B     		cmp	r3, #92
 6146 0028 F7D0     		beq	.L685
 6147              		.loc 1 2877 0 is_stmt 1
 6148 002a 0023     		movs	r3, #0
 6149 002c 01E0     		b	.L833
 6150              	.LVL840:
 6151              	.L684:
 6152              		.loc 1 2872 0
 6153 002e DBF82030 		ldr	r3, [fp, #32]
 6154              	.LVL841:
 6155              	.L833:
 6156              		.loc 1 2877 0
ARM GAS  /tmp/cc6Bizie.s 			page 109


 6157 0032 AB60     		str	r3, [r5, #8]
 6158              		.loc 1 2880 0
 6159 0034 0023     		movs	r3, #0
 6160 0036 EB61     		str	r3, [r5, #28]
 6161              		.loc 1 2882 0
 6162 0038 9BF80030 		ldrb	r3, [fp]	@ zero_extendqisi2
 6163 003c 042B     		cmp	r3, #4
 6164 003e 1DD1     		bne	.L688
 6165              		.loc 1 2882 0 is_stmt 0 discriminator 1
 6166 0040 AB68     		ldr	r3, [r5, #8]
 6167 0042 DBB1     		cbz	r3, .L688
 6168              	.LBB381:
 6169              		.loc 1 2885 0 is_stmt 1
 6170 0044 DBF82430 		ldr	r3, [fp, #36]
 6171 0048 2B62     		str	r3, [r5, #32]
 6172              		.loc 1 2886 0
 6173 004a DBF82830 		ldr	r3, [fp, #40]
 6174 004e 6B62     		str	r3, [r5, #36]
 6175              		.loc 1 2887 0
 6176 0050 DBF82C30 		ldr	r3, [fp, #44]
 6177 0054 AB62     		str	r3, [r5, #40]
 6178              		.loc 1 2888 0
 6179 0056 2946     		mov	r1, r5
 6180 0058 04A8     		add	r0, sp, #16
 6181              	.LVL842:
 6182 005a FFF7FEFF 		bl	load_obj_xdir
 6183              	.LVL843:
 6184 005e 0146     		mov	r1, r0
 6185              	.LVL844:
 6186              		.loc 1 2889 0
 6187 0060 B8B9     		cbnz	r0, .L758
 6188              		.loc 1 2890 0
 6189 0062 DBF81040 		ldr	r4, [fp, #16]
 6190 0066 04F13800 		add	r0, r4, #56
 6191              	.LVL845:
 6192 006a FFF7FEFF 		bl	ld_dword
 6193              	.LVL846:
 6194 006e 2861     		str	r0, [r5, #16]
 6195 0070 6961     		str	r1, [r5, #20]
 6196              		.loc 1 2891 0
 6197 0072 94F82130 		ldrb	r3, [r4, #33]	@ zero_extendqisi2
 6198 0076 03F00203 		and	r3, r3, #2
 6199 007a EB71     		strb	r3, [r5, #7]
 6200              	.L688:
 6201              	.LBE381:
 6202              		.loc 1 2896 0
 6203 007c 99F80030 		ldrb	r3, [r9]	@ zero_extendqisi2
 6204 0080 1F2B     		cmp	r3, #31
 6205 0082 69D8     		bhi	.L692
 6206              		.loc 1 2897 0
 6207 0084 8023     		movs	r3, #128
 6208 0086 85F84B30 		strb	r3, [r5, #75]
 6209              		.loc 1 2898 0
 6210 008a 0021     		movs	r1, #0
 6211 008c 2846     		mov	r0, r5
 6212 008e FFF7FEFF 		bl	dir_sdi
 6213              	.LVL847:
ARM GAS  /tmp/cc6Bizie.s 			page 110


 6214              	.L758:
 6215              		.loc 1 2940 0
 6216 0092 19B0     		add	sp, sp, #100
 6217              		.cfi_remember_state
 6218              		.cfi_def_cfa_offset 36
 6219              		@ sp needed
 6220 0094 BDE8F08F 		pop	{r4, r5, r6, r7, r8, r9, r10, fp, pc}
 6221              	.LVL848:
 6222              	.L694:
 6223              		.cfi_restore_state
 6224              	.LBB382:
 6225              	.LBB383:
 6226              		.loc 1 2671 0
 6227 0098 5C28     		cmp	r0, #92
 6228 009a 6DD0     		beq	.L696
 6229              		.loc 1 2675 0
 6230 009c B4F5807F 		cmp	r4, #256
 6231 00a0 0CD0     		beq	.L699
 6232              	.LVL849:
 6233              		.loc 1 2683 0
 6234 00a2 40F25231 		movw	r1, #850
 6235 00a6 FFF7FEFF 		bl	ff_oem2uni
 6236              	.LVL850:
 6237              		.loc 1 2684 0
 6238 00aa 38B1     		cbz	r0, .L699
 6239              		.loc 1 2686 0
 6240 00ac 7F28     		cmp	r0, #127
 6241 00ae 07D8     		bhi	.L700
 6242 00b0 B64A     		ldr	r2, .L835
 6243              	.L701:
 6244              	.LVL851:
 6245              	.LBB384:
 6246              	.LBB385:
 6247              		.loc 1 672 0
 6248 00b2 12F8013F 		ldrb	r3, [r2, #1]!	@ zero_extendqisi2
 6249              	.LVL852:
 6250 00b6 1BB1     		cbz	r3, .L700
 6251 00b8 9842     		cmp	r0, r3
 6252 00ba FAD1     		bne	.L701
 6253              	.LVL853:
 6254              	.L699:
 6255              	.LBE385:
 6256              	.LBE384:
 6257              	.LBE383:
 6258              	.LBE382:
 6259              		.loc 1 2913 0
 6260 00bc 0620     		movs	r0, #6
 6261 00be E8E7     		b	.L758
 6262              	.LVL854:
 6263              	.L700:
 6264              	.LBB391:
 6265              	.LBB388:
 6266              		.loc 1 2687 0
 6267 00c0 27F8020F 		strh	r0, [r7, #2]!	@ movhi
 6268 00c4 2646     		mov	r6, r4
 6269 00c6 4FE0     		b	.L702
 6270              	.LVL855:
ARM GAS  /tmp/cc6Bizie.s 			page 111


 6271              	.L704:
 6272              		.loc 1 2692 0
 6273 00c8 022E     		cmp	r6, #2
 6274 00ca 6AD1     		bne	.L707
 6275              		.loc 1 2693 0
 6276 00cc BAF80230 		ldrh	r3, [r10, #2]
 6277 00d0 2E2B     		cmp	r3, #46
 6278 00d2 66D1     		bne	.L707
 6279 00d4 61E0     		b	.L834
 6280              	.L705:
 6281              		.loc 1 2694 0
 6282 00d6 0023     		movs	r3, #0
 6283 00d8 2AF81630 		strh	r3, [r10, r6, lsl #1]	@ movhi
 6284              	.LVL856:
 6285 00dc 05F14002 		add	r2, r5, #64
 6286              	.LVL857:
 6287              	.L709:
 6288              		.loc 1 2696 0
 6289 00e0 9E42     		cmp	r6, r3
 6290 00e2 94BF     		ite	ls
 6291 00e4 2021     		movls	r1, #32
 6292 00e6 2E21     		movhi	r1, #46
 6293              		.loc 1 2695 0
 6294 00e8 0133     		adds	r3, r3, #1
 6295              	.LVL858:
 6296 00ea 0B2B     		cmp	r3, #11
 6297              		.loc 1 2696 0
 6298 00ec 02F8011B 		strb	r1, [r2], #1
 6299              		.loc 1 2695 0
 6300 00f0 F6D1     		bne	.L709
 6301              		.loc 1 2697 0
 6302 00f2 44F02004 		orr	r4, r4, #32
 6303              	.LVL859:
 6304              	.L743:
 6305              		.loc 1 2783 0
 6306 00f6 85F84B40 		strb	r4, [r5, #75]
 6307              	.LVL860:
 6308              	.LBE388:
 6309              	.LBE391:
 6310              		.loc 1 2904 0
 6311 00fa 2846     		mov	r0, r5
 6312 00fc FFF7FEFF 		bl	dir_find
 6313              	.LVL861:
 6314              		.loc 1 2905 0
 6315 0100 95F84B30 		ldrb	r3, [r5, #75]	@ zero_extendqisi2
 6316              	.LVL862:
 6317              		.loc 1 2906 0
 6318 0104 0028     		cmp	r0, #0
 6319 0106 40F0E380 		bne	.L748
 6320              		.loc 1 2918 0
 6321 010a 5A07     		lsls	r2, r3, #29
 6322 010c C1D4     		bmi	.L758
 6323              		.loc 1 2920 0
 6324 010e AB79     		ldrb	r3, [r5, #6]	@ zero_extendqisi2
 6325              	.LVL863:
 6326 0110 DB06     		lsls	r3, r3, #27
 6327 0112 40F1FB80 		bpl	.L757
ARM GAS  /tmp/cc6Bizie.s 			page 112


 6328              		.loc 1 2924 0
 6329 0116 9BF80000 		ldrb	r0, [fp]	@ zero_extendqisi2
 6330              	.LVL864:
 6331 011a 0428     		cmp	r0, #4
 6332 011c 40F0EC80 		bne	.L747
 6333              		.loc 1 2925 0
 6334 0120 AB68     		ldr	r3, [r5, #8]
 6335 0122 2B62     		str	r3, [r5, #32]
 6336              		.loc 1 2926 0
 6337 0124 2B69     		ldr	r3, [r5, #16]
 6338 0126 EA79     		ldrb	r2, [r5, #7]	@ zero_extendqisi2
 6339              		.loc 1 2928 0
 6340 0128 DBF81010 		ldr	r1, [fp, #16]
 6341              		.loc 1 2926 0
 6342 012c 23F0FF03 		bic	r3, r3, #255
 6343 0130 1343     		orrs	r3, r3, r2
 6344 0132 6B62     		str	r3, [r5, #36]
 6345              		.loc 1 2927 0
 6346 0134 EB6C     		ldr	r3, [r5, #76]
 6347 0136 AB62     		str	r3, [r5, #40]
 6348              		.loc 1 2928 0
 6349 0138 01F13400 		add	r0, r1, #52
 6350 013c FFF7FEFF 		bl	ld_dword
 6351              	.LVL865:
 6352 0140 A860     		str	r0, [r5, #8]
 6353              		.loc 1 2929 0
 6354 0142 91F82130 		ldrb	r3, [r1, #33]	@ zero_extendqisi2
 6355 0146 03F00203 		and	r3, r3, #2
 6356 014a EB71     		strb	r3, [r5, #7]
 6357              		.loc 1 2930 0
 6358 014c 01F13800 		add	r0, r1, #56
 6359 0150 FFF7FEFF 		bl	ld_qword
 6360              	.LVL866:
 6361 0154 C5E90401 		strd	r0, [r5, #16]
 6362              	.L692:
 6363              	.LVL867:
 6364              	.LBB392:
 6365              	.LBB389:
 6366              		.loc 1 2667 0
 6367 0158 2B68     		ldr	r3, [r5]
 6368 015a D3F80CA0 		ldr	r10, [r3, #12]
 6369              	.LVL868:
 6370 015e 09F1FF38 		add	r8, r9, #-1
 6371 0162 AAF10207 		sub	r7, r10, #2
 6372 0166 0026     		movs	r6, #0
 6373              	.LVL869:
 6374              	.L702:
 6375              		.loc 1 2669 0
 6376 0168 18F8010F 		ldrb	r0, [r8, #1]!	@ zero_extendqisi2
 6377              		.loc 1 2670 0
 6378 016c 1F28     		cmp	r0, #31
 6379              		.loc 1 2669 0
 6380 016e 06F10104 		add	r4, r6, #1
 6381              	.LVL870:
 6382              		.loc 1 2670 0
 6383 0172 0BD9     		bls	.L693
 6384              		.loc 1 2671 0
ARM GAS  /tmp/cc6Bizie.s 			page 113


 6385 0174 2F28     		cmp	r0, #47
 6386 0176 8FD1     		bne	.L694
 6387              	.L696:
 6388 0178 09EB0403 		add	r3, r9, r4
 6389              	.L695:
 6390 017c A3EB0904 		sub	r4, r3, r9
 6391              	.LVL871:
 6392              		.loc 1 2672 0
 6393 0180 13F8012B 		ldrb	r2, [r3], #1	@ zero_extendqisi2
 6394 0184 2F2A     		cmp	r2, #47
 6395 0186 F9D0     		beq	.L695
 6396 0188 5C2A     		cmp	r2, #92
 6397 018a F7D0     		beq	.L695
 6398              	.L693:
 6399              		.loc 1 2690 0
 6400 018c 1F28     		cmp	r0, #31
 6401              		.loc 1 2689 0
 6402 018e A144     		add	r9, r9, r4
 6403              	.LVL872:
 6404              		.loc 1 2690 0
 6405 0190 8CBF     		ite	hi
 6406 0192 0024     		movhi	r4, #0
 6407              	.LVL873:
 6408 0194 0424     		movls	r4, #4
 6409              	.LVL874:
 6410              		.loc 1 2692 0
 6411 0196 012E     		cmp	r6, #1
 6412 0198 96D1     		bne	.L704
 6413              	.L834:
 6414 019a BAF80030 		ldrh	r3, [r10]
 6415 019e 2E2B     		cmp	r3, #46
 6416 01a0 99D0     		beq	.L705
 6417              	.L707:
 6418 01a2 0AEB4603 		add	r3, r10, r6, lsl #1
 6419              	.LVL875:
 6420              	.L706:
 6421              		.loc 1 2701 0
 6422 01a6 9EBB     		cbnz	r6, .L713
 6423              	.L712:
 6424              		.loc 1 2706 0
 6425 01a8 0027     		movs	r7, #0
 6426 01aa 0AEB4603 		add	r3, r10, r6, lsl #1
 6427 01ae 2AF81670 		strh	r7, [r10, r6, lsl #1]	@ movhi
 6428              		.loc 1 2707 0
 6429 01b2 002E     		cmp	r6, #0
 6430 01b4 82D0     		beq	.L699
 6431              		.loc 1 2710 0
 6432 01b6 2021     		movs	r1, #32
 6433 01b8 0B22     		movs	r2, #11
 6434 01ba 05F14000 		add	r0, r5, #64
 6435 01be FFF7FEFF 		bl	mem_set
 6436              	.LVL876:
 6437              		.loc 1 2711 0
 6438 01c2 3946     		mov	r1, r7
 6439              	.LVL877:
 6440              	.L714:
 6441 01c4 3AF81120 		ldrh	r2, [r10, r1, lsl #1]
ARM GAS  /tmp/cc6Bizie.s 			page 114


 6442 01c8 202A     		cmp	r2, #32
 6443 01ca 29D0     		beq	.L715
 6444 01cc 2E2A     		cmp	r2, #46
 6445 01ce 27D0     		beq	.L715
 6446              		.loc 1 2712 0
 6447 01d0 11B1     		cbz	r1, .L717
 6448 01d2 44F00304 		orr	r4, r4, #3
 6449              	.LVL878:
 6450 01d6 E4B2     		uxtb	r4, r4
 6451              	.LVL879:
 6452              	.L717:
 6453              		.loc 1 2713 0
 6454 01d8 33F8022D 		ldrh	r2, [r3, #-2]!
 6455 01dc 2E2A     		cmp	r2, #46
 6456 01de 01D0     		beq	.L720
 6457              	.LVL880:
 6458 01e0 013E     		subs	r6, r6, #1
 6459              	.LVL881:
 6460 01e2 F9D1     		bne	.L717
 6461              	.L720:
 6462              		.loc 1 2754 0
 6463 01e4 4FF00008 		mov	r8, #0
 6464 01e8 0823     		movs	r3, #8
 6465 01ea 4746     		mov	r7, r8
 6466              	.LVL882:
 6467              	.L718:
 6468              		.loc 1 2717 0
 6469 01ec 3AF81100 		ldrh	r0, [r10, r1, lsl #1]
 6470 01f0 4A1C     		adds	r2, r1, #1
 6471              	.LVL883:
 6472              		.loc 1 2718 0
 6473 01f2 0028     		cmp	r0, #0
 6474 01f4 00F09480 		beq	.L721
 6475              		.loc 1 2719 0
 6476 01f8 2028     		cmp	r0, #32
 6477 01fa 04D0     		beq	.L722
 6478 01fc 2E28     		cmp	r0, #46
 6479 01fe 11D1     		bne	.L723
 6480 0200 9642     		cmp	r6, r2
 6481 0202 00F08580 		beq	.L724
 6482              	.L722:
 6483              		.loc 1 2720 0
 6484 0206 44F00304 		orr	r4, r4, #3
 6485              	.LVL884:
 6486 020a E4B2     		uxtb	r4, r4
 6487              	.LVL885:
 6488              	.L725:
 6489              		.loc 1 2754 0
 6490 020c 1146     		mov	r1, r2
 6491 020e EDE7     		b	.L718
 6492              	.LVL886:
 6493              	.L713:
 6494              		.loc 1 2702 0
 6495 0210 33F8022D 		ldrh	r2, [r3, #-2]!
 6496              	.LVL887:
 6497              		.loc 1 2703 0
 6498 0214 202A     		cmp	r2, #32
ARM GAS  /tmp/cc6Bizie.s 			page 115


 6499 0216 01D0     		beq	.L711
 6500 0218 2E2A     		cmp	r2, #46
 6501 021a C5D1     		bne	.L712
 6502              	.L711:
 6503              		.loc 1 2704 0
 6504 021c 013E     		subs	r6, r6, #1
 6505              	.LVL888:
 6506 021e C2E7     		b	.L706
 6507              	.LVL889:
 6508              	.L715:
 6509              		.loc 1 2711 0
 6510 0220 0131     		adds	r1, r1, #1
 6511              	.LVL890:
 6512 0222 CFE7     		b	.L714
 6513              	.LVL891:
 6514              	.L723:
 6515              		.loc 1 2724 0
 6516 0224 9845     		cmp	r8, r3
 6517 0226 75D2     		bcs	.L726
 6518 0228 9642     		cmp	r6, r2
 6519 022a 0FD1     		bne	.L830
 6520              	.L727:
 6521              		.loc 1 2725 0
 6522 022c 0B2B     		cmp	r3, #11
 6523 022e 06D1     		bne	.L730
 6524 0230 72E0     		b	.L750
 6525              	.L729:
 6526              		.loc 1 2729 0
 6527 0232 9642     		cmp	r6, r2
 6528 0234 03D0     		beq	.L730
 6529 0236 44F00304 		orr	r4, r4, #3
 6530              	.LVL892:
 6531 023a E4B2     		uxtb	r4, r4
 6532              	.LVL893:
 6533              		.loc 1 2730 0
 6534 023c 70D3     		bcc	.L721
 6535              	.L730:
 6536              	.LVL894:
 6537              		.loc 1 2732 0
 6538 023e BF00     		lsls	r7, r7, #2
 6539              	.LVL895:
 6540 0240 FFB2     		uxtb	r7, r7
 6541              	.LVL896:
 6542 0242 3246     		mov	r2, r6
 6543              		.loc 1 2731 0
 6544 0244 0B23     		movs	r3, #11
 6545 0246 4FF00808 		mov	r8, #8
 6546 024a DFE7     		b	.L725
 6547              	.LVL897:
 6548              	.L830:
 6549              		.loc 1 2735 0
 6550 024c 7F28     		cmp	r0, #127
 6551 024e 3AD9     		bls	.L755
 6552              		.loc 1 2736 0
 6553 0250 44F00201 		orr	r1, r4, #2
 6554 0254 0393     		str	r3, [sp, #12]
 6555 0256 CBB2     		uxtb	r3, r1
ARM GAS  /tmp/cc6Bizie.s 			page 116


 6556              	.LVL898:
 6557              		.loc 1 2745 0
 6558 0258 40F25231 		movw	r1, #850
 6559 025c 0292     		str	r2, [sp, #8]
 6560              		.loc 1 2736 0
 6561 025e 0193     		str	r3, [sp, #4]
 6562              	.LVL899:
 6563              		.loc 1 2745 0
 6564 0260 FFF7FEFF 		bl	ff_uni2oem
 6565              	.LVL900:
 6566              		.loc 1 2746 0
 6567 0264 10F0800F 		tst	r0, #128
 6568 0268 029A     		ldr	r2, [sp, #8]
 6569 026a 039B     		ldr	r3, [sp, #12]
 6570 026c 12D0     		beq	.L732
 6571 026e 00F07F00 		and	r0, r0, #127
 6572              	.LVL901:
 6573 0272 4749     		ldr	r1, .L835+4
 6574 0274 085C     		ldrb	r0, [r1, r0]	@ zero_extendqisi2
 6575              	.LVL902:
 6576              	.L733:
 6577              		.loc 1 2759 0
 6578 0276 30B1     		cbz	r0, .L736
 6579              	.LVL903:
 6580              	.L731:
 6581 0278 464C     		ldr	r4, .L835+8
 6582              	.L738:
 6583              	.LVL904:
 6584              	.LBB386:
 6585              	.LBB387:
 6586              		.loc 1 672 0
 6587 027a 14F8011F 		ldrb	r1, [r4, #1]!	@ zero_extendqisi2
 6588              	.LVL905:
 6589 027e 0029     		cmp	r1, #0
 6590 0280 74D0     		beq	.L737
 6591 0282 8142     		cmp	r1, r0
 6592 0284 F9D1     		bne	.L738
 6593              	.LVL906:
 6594              	.L736:
 6595              	.LBE387:
 6596              	.LBE386:
 6597              		.loc 1 2760 0
 6598 0286 0199     		ldr	r1, [sp, #4]
 6599 0288 41F00301 		orr	r1, r1, #3
 6600 028c C9B2     		uxtb	r1, r1
 6601 028e 0191     		str	r1, [sp, #4]
 6602              	.LVL907:
 6603 0290 5F20     		movs	r0, #95
 6604 0292 10E0     		b	.L735
 6605              	.LVL908:
 6606              	.L732:
 6607              		.loc 1 2752 0
 6608 0294 FF28     		cmp	r0, #255
 6609 0296 EED9     		bls	.L733
 6610              		.loc 1 2753 0
 6611 0298 591E     		subs	r1, r3, #1
 6612 029a 8845     		cmp	r8, r1
ARM GAS  /tmp/cc6Bizie.s 			page 117


 6613 029c 04D3     		bcc	.L734
 6614              		.loc 1 2754 0
 6615 029e 44F00304 		orr	r4, r4, #3
 6616 02a2 E4B2     		uxtb	r4, r4
 6617              	.LVL909:
 6618 02a4 9846     		mov	r8, r3
 6619 02a6 B1E7     		b	.L725
 6620              	.LVL910:
 6621              	.L734:
 6622              		.loc 1 2757 0
 6623 02a8 05EB0801 		add	r1, r5, r8
 6624 02ac 040A     		lsrs	r4, r0, #8
 6625 02ae 81F84040 		strb	r4, [r1, #64]
 6626 02b2 08F10108 		add	r8, r8, #1
 6627              	.LVL911:
 6628              	.L735:
 6629              		.loc 1 2771 0
 6630 02b6 05EB0801 		add	r1, r5, r8
 6631 02ba 019C     		ldr	r4, [sp, #4]
 6632 02bc 81F84000 		strb	r0, [r1, #64]
 6633 02c0 08F10108 		add	r8, r8, #1
 6634              	.LVL912:
 6635 02c4 A2E7     		b	.L725
 6636              	.LVL913:
 6637              	.L755:
 6638              		.loc 1 2735 0
 6639 02c6 0194     		str	r4, [sp, #4]
 6640 02c8 D6E7     		b	.L731
 6641              	.LVL914:
 6642              	.L751:
 6643              		.loc 1 2763 0
 6644 02ca 47F00207 		orr	r7, r7, #2
 6645              	.LVL915:
 6646 02ce F2E7     		b	.L735
 6647              	.LVL916:
 6648              	.L748:
 6649              	.LBE389:
 6650              	.LBE392:
 6651              		.loc 1 2907 0
 6652 02d0 0428     		cmp	r0, #4
 6653 02d2 7FF4DEAE 		bne	.L758
 6654              		.loc 1 2908 0
 6655 02d6 13F0200F 		tst	r3, #32
 6656 02da 03F00403 		and	r3, r3, #4
 6657              	.LVL917:
 6658 02de 07D0     		beq	.L745
 6659              		.loc 1 2909 0
 6660 02e0 002B     		cmp	r3, #0
 6661 02e2 3FF439AF 		beq	.L692
 6662              		.loc 1 2910 0
 6663 02e6 8023     		movs	r3, #128
 6664 02e8 85F84B30 		strb	r3, [r5, #75]
 6665              	.LVL918:
 6666              		.loc 1 2911 0
 6667 02ec 0020     		movs	r0, #0
 6668 02ee D0E6     		b	.L758
 6669              	.LVL919:
ARM GAS  /tmp/cc6Bizie.s 			page 118


 6670              	.L745:
 6671              		.loc 1 2913 0
 6672 02f0 002B     		cmp	r3, #0
 6673 02f2 08BF     		it	eq
 6674 02f4 0520     		moveq	r0, #5
 6675              	.LVL920:
 6676 02f6 CCE6     		b	.L758
 6677              	.L747:
 6678              		.loc 1 2934 0
 6679 02f8 2B6B     		ldr	r3, [r5, #48]
 6680 02fa 0BF14C01 		add	r1, fp, #76
 6681 02fe C3F30803 		ubfx	r3, r3, #0, #9
 6682 0302 1944     		add	r1, r1, r3
 6683 0304 FFF7FEFF 		bl	ld_clust.isra.3
 6684              	.LVL921:
 6685 0308 A860     		str	r0, [r5, #8]
 6686 030a 25E7     		b	.L692
 6687              	.LVL922:
 6688              	.L757:
 6689              		.loc 1 2913 0
 6690 030c 0520     		movs	r0, #5
 6691              	.LVL923:
 6692 030e C0E6     		b	.L758
 6693              	.LVL924:
 6694              	.L724:
 6695              	.LBB393:
 6696              	.LBB390:
 6697              		.loc 1 2724 0
 6698 0310 9845     		cmp	r8, r3
 6699 0312 8BD3     		bcc	.L727
 6700              	.L726:
 6701              		.loc 1 2725 0
 6702 0314 0B2B     		cmp	r3, #11
 6703 0316 8CD1     		bne	.L729
 6704              	.L750:
 6705              		.loc 1 2726 0
 6706 0318 44F00304 		orr	r4, r4, #3
 6707              	.LVL925:
 6708 031c E4B2     		uxtb	r4, r4
 6709              	.LVL926:
 6710 031e 0B23     		movs	r3, #11
 6711              	.LVL927:
 6712              	.L721:
 6713              		.loc 1 2774 0
 6714 0320 95F84020 		ldrb	r2, [r5, #64]	@ zero_extendqisi2
 6715              	.LVL928:
 6716 0324 E52A     		cmp	r2, #229
 6717 0326 04BF     		itt	eq
 6718 0328 0522     		moveq	r2, #5
 6719 032a 85F84020 		strbeq	r2, [r5, #64]
 6720              		.loc 1 2776 0
 6721 032e 082B     		cmp	r3, #8
 6722 0330 04BF     		itt	eq
 6723 0332 BF00     		lsleq	r7, r7, #2
 6724              	.LVL929:
 6725 0334 FFB2     		uxtbeq	r7, r7
 6726              	.LVL930:
ARM GAS  /tmp/cc6Bizie.s 			page 119


 6727 0336 07F00C03 		and	r3, r7, #12
 6728              		.loc 1 2777 0
 6729 033a 0C2B     		cmp	r3, #12
 6730 033c 03D0     		beq	.L741
 6731 033e 07F00302 		and	r2, r7, #3
 6732 0342 032A     		cmp	r2, #3
 6733 0344 02D1     		bne	.L742
 6734              	.L741:
 6735 0346 44F00204 		orr	r4, r4, #2
 6736              	.LVL931:
 6737 034a E4B2     		uxtb	r4, r4
 6738              	.LVL932:
 6739              	.L742:
 6740              		.loc 1 2778 0
 6741 034c A107     		lsls	r1, r4, #30
 6742              	.LVL933:
 6743 034e 3FF5D2AE 		bmi	.L743
 6744              		.loc 1 2779 0
 6745 0352 07F00307 		and	r7, r7, #3
 6746              	.LVL934:
 6747 0356 012F     		cmp	r7, #1
 6748 0358 04BF     		itt	eq
 6749 035a 44F01004 		orreq	r4, r4, #16
 6750              	.LVL935:
 6751 035e E4B2     		uxtbeq	r4, r4
 6752              	.LVL936:
 6753              		.loc 1 2780 0
 6754 0360 042B     		cmp	r3, #4
 6755 0362 04BF     		itt	eq
 6756 0364 44F00804 		orreq	r4, r4, #8
 6757              	.LVL937:
 6758 0368 E4B2     		uxtbeq	r4, r4
 6759              	.LVL938:
 6760 036a C4E6     		b	.L743
 6761              	.LVL939:
 6762              	.L737:
 6763              		.loc 1 2762 0
 6764 036c A0F14101 		sub	r1, r0, #65
 6765 0370 89B2     		uxth	r1, r1
 6766 0372 1929     		cmp	r1, #25
 6767 0374 A9D9     		bls	.L751
 6768              		.loc 1 2765 0
 6769 0376 A0F16101 		sub	r1, r0, #97
 6770 037a 89B2     		uxth	r1, r1
 6771 037c 1929     		cmp	r1, #25
 6772              		.loc 1 2766 0
 6773 037e 9EBF     		ittt	ls
 6774 0380 2038     		subls	r0, r0, #32
 6775              	.LVL940:
 6776 0382 47F00107 		orrls	r7, r7, #1
 6777              	.LVL941:
 6778 0386 80B2     		uxthls	r0, r0
 6779              	.LVL942:
 6780 0388 95E7     		b	.L735
 6781              	.L836:
 6782 038a 00BF     		.align	2
 6783              	.L835:
ARM GAS  /tmp/cc6Bizie.s 			page 120


 6784 038c FFFFFFFF 		.word	.LC3-1
 6785 0390 00000000 		.word	.LANCHOR3
 6786 0394 FFFFFFFF 		.word	.LC4-1
 6787              	.LBE390:
 6788              	.LBE393:
 6789              		.cfi_endproc
 6790              	.LFE340:
 6791              		.size	follow_path, .-follow_path
 6792              		.section	.text.f_mount,"ax",%progbits
 6793              		.align	1
 6794              		.global	f_mount
 6795              		.syntax unified
 6796              		.thumb
 6797              		.thumb_func
 6798              		.fpu fpv4-sp-d16
 6799              		.type	f_mount, %function
 6800              	f_mount:
 6801              	.LFB345:
 6802              		.loc 1 3314 0
 6803              		.cfi_startproc
 6804              		@ args = 0, pretend = 0, frame = 16
 6805              		@ frame_needed = 0, uses_anonymous_args = 0
 6806              	.LVL943:
 6807 0000 F0B5     		push	{r4, r5, r6, r7, lr}
 6808              		.cfi_def_cfa_offset 20
 6809              		.cfi_offset 4, -20
 6810              		.cfi_offset 5, -16
 6811              		.cfi_offset 6, -12
 6812              		.cfi_offset 7, -8
 6813              		.cfi_offset 14, -4
 6814 0002 85B0     		sub	sp, sp, #20
 6815              		.cfi_def_cfa_offset 40
 6816              		.loc 1 3314 0
 6817 0004 1446     		mov	r4, r2
 6818 0006 0190     		str	r0, [sp, #4]
 6819              		.loc 1 3318 0
 6820 0008 04A8     		add	r0, sp, #16
 6821              	.LVL944:
 6822              		.loc 1 3314 0
 6823 000a 0091     		str	r1, [sp]
 6824              		.loc 1 3318 0
 6825 000c 40F8041D 		str	r1, [r0, #-4]!
 6826              		.loc 1 3322 0
 6827 0010 FFF7FEFF 		bl	get_ldnumber
 6828              	.LVL945:
 6829              		.loc 1 3323 0
 6830 0014 051E     		subs	r5, r0, #0
 6831 0016 28DB     		blt	.L845
 6832              		.loc 1 3324 0
 6833 0018 154F     		ldr	r7, .L854
 6834 001a 57F82560 		ldr	r6, [r7, r5, lsl #2]
 6835              	.LVL946:
 6836              		.loc 1 3326 0
 6837 001e 4EB1     		cbz	r6, .L839
 6838              		.loc 1 3331 0
 6839 0020 7069     		ldr	r0, [r6, #20]
 6840              	.LVL947:
ARM GAS  /tmp/cc6Bizie.s 			page 121


 6841 0022 FFF7FEFF 		bl	ff_del_syncobj
 6842              	.LVL948:
 6843 0026 18B9     		cbnz	r0, .L840
 6844              	.L843:
 6845 0028 0224     		movs	r4, #2
 6846              	.LVL949:
 6847              	.L838:
 6848              		.loc 1 3348 0
 6849 002a 2046     		mov	r0, r4
 6850 002c 05B0     		add	sp, sp, #20
 6851              		.cfi_remember_state
 6852              		.cfi_def_cfa_offset 20
 6853              		@ sp needed
 6854 002e F0BD     		pop	{r4, r5, r6, r7, pc}
 6855              	.LVL950:
 6856              	.L840:
 6857              		.cfi_restore_state
 6858              		.loc 1 3333 0
 6859 0030 0023     		movs	r3, #0
 6860 0032 3370     		strb	r3, [r6]
 6861              	.L839:
 6862              		.loc 1 3336 0
 6863 0034 0199     		ldr	r1, [sp, #4]
 6864 0036 79B9     		cbnz	r1, .L841
 6865              	.L844:
 6866              		.loc 1 3342 0
 6867 0038 019B     		ldr	r3, [sp, #4]
 6868 003a 47F82530 		str	r3, [r7, r5, lsl #2]
 6869              		.loc 1 3344 0
 6870 003e 002C     		cmp	r4, #0
 6871 0040 F3D0     		beq	.L838
 6872              		.loc 1 3346 0
 6873 0042 01A9     		add	r1, sp, #4
 6874 0044 0022     		movs	r2, #0
 6875 0046 6846     		mov	r0, sp
 6876 0048 FFF7FEFF 		bl	find_volume
 6877              	.LVL951:
 6878 004c 0446     		mov	r4, r0
 6879              	.LVL952:
 6880              		.loc 1 3347 0
 6881 004e 0146     		mov	r1, r0
 6882 0050 0198     		ldr	r0, [sp, #4]
 6883              	.LVL953:
 6884 0052 FFF7FEFF 		bl	unlock_fs
 6885              	.LVL954:
 6886 0056 E8E7     		b	.L838
 6887              	.L841:
 6888              		.loc 1 3337 0
 6889 0058 0023     		movs	r3, #0
 6890 005a 01F8143B 		strb	r3, [r1], #20
 6891              		.loc 1 3339 0
 6892 005e E8B2     		uxtb	r0, r5
 6893 0060 FFF7FEFF 		bl	ff_cre_syncobj
 6894              	.LVL955:
 6895 0064 0028     		cmp	r0, #0
 6896 0066 DFD0     		beq	.L843
 6897 0068 E6E7     		b	.L844
ARM GAS  /tmp/cc6Bizie.s 			page 122


 6898              	.LVL956:
 6899              	.L845:
 6900              		.loc 1 3323 0
 6901 006a 0B24     		movs	r4, #11
 6902 006c DDE7     		b	.L838
 6903              	.L855:
 6904 006e 00BF     		.align	2
 6905              	.L854:
 6906 0070 00000000 		.word	.LANCHOR0
 6907              		.cfi_endproc
 6908              	.LFE345:
 6909              		.size	f_mount, .-f_mount
 6910              		.section	.text.f_open,"ax",%progbits
 6911              		.align	1
 6912              		.global	f_open
 6913              		.syntax unified
 6914              		.thumb
 6915              		.thumb_func
 6916              		.fpu fpv4-sp-d16
 6917              		.type	f_open, %function
 6918              	f_open:
