ARM GAS  /tmp/ccnew0QN.s 			page 1


   1              		.cpu cortex-m4
   2              		.eabi_attribute 27, 1
   3              		.eabi_attribute 28, 1
   4              		.eabi_attribute 20, 1
   5              		.eabi_attribute 21, 1
   6              		.eabi_attribute 23, 3
   7              		.eabi_attribute 24, 1
   8              		.eabi_attribute 25, 1
   9              		.eabi_attribute 26, 1
  10              		.eabi_attribute 30, 4
  11              		.eabi_attribute 34, 1
  12              		.eabi_attribute 18, 4
  13              		.file	"ffunicode.c"
  14              		.text
  15              	.Ltext0:
  16              		.cfi_sections	.debug_frame
  17              		.section	.text.ff_uni2oem,"ax",%progbits
  18              		.align	1
  19              		.global	ff_uni2oem
  20              		.syntax unified
  21              		.thumb
  22              		.thumb_func
  23              		.fpu fpv4-sp-d16
  24              		.type	ff_uni2oem, %function
  25              	ff_uni2oem:
  26              	.LFB290:
  27              		.file 1 "../../modules/ChibiOS/ext/fatfs/src/ffunicode.c"
  28              		.loc 1 15251 0
  29              		.cfi_startproc
  30              		@ args = 0, pretend = 0, frame = 0
  31              		@ frame_needed = 0, uses_anonymous_args = 0
  32              	.LVL0:
  33              		.loc 1 15256 0
  34 0000 7F28     		cmp	r0, #127
  35              		.loc 1 15251 0
  36 0002 10B5     		push	{r4, lr}
  37              		.cfi_def_cfa_offset 8
  38              		.cfi_offset 4, -8
  39              		.cfi_offset 14, -4
  40              		.loc 1 15256 0
  41 0004 13D9     		bls	.L2
  42              		.loc 1 15260 0
  43 0006 40F25233 		movw	r3, #850
  44 000a 9942     		cmp	r1, r3
  45 000c 01D0     		beq	.L3
  46              		.loc 1 15252 0
  47 000e 0020     		movs	r0, #0
  48              	.LVL1:
  49 0010 10BD     		pop	{r4, pc}
  50              	.LVL2:
  51              	.L3:
  52              		.loc 1 15261 0 discriminator 3
  53 0012 074C     		ldr	r4, .L8
  54 0014 0023     		movs	r3, #0
  55              	.LVL3:
  56              	.L4:
  57 0016 34F81310 		ldrh	r1, [r4, r3, lsl #1]
ARM GAS  /tmp/ccnew0QN.s 			page 2


  58 001a 8142     		cmp	r1, r0
  59 001c 9AB2     		uxth	r2, r3
  60              	.LVL4:
  61 001e 03D0     		beq	.L5
  62              	.LVL5:
  63 0020 0133     		adds	r3, r3, #1
  64              	.LVL6:
  65              		.loc 1 15261 0 is_stmt 0 discriminator 4
  66 0022 802B     		cmp	r3, #128
  67 0024 F7D1     		bne	.L4
  68 0026 1A46     		mov	r2, r3
  69              	.LVL7:
  70              	.L5:
  71              		.loc 1 15262 0 is_stmt 1
  72 0028 02F18000 		add	r0, r2, #128
  73              	.LVL8:
  74 002c C0B2     		uxtb	r0, r0
  75              	.LVL9:
  76              	.L2:
  77              		.loc 1 15266 0
  78 002e 10BD     		pop	{r4, pc}
  79              	.L9:
  80              		.align	2
  81              	.L8:
  82 0030 00000000 		.word	.LANCHOR0
  83              		.cfi_endproc
  84              	.LFE290:
  85              		.size	ff_uni2oem, .-ff_uni2oem
  86              		.section	.text.ff_oem2uni,"ax",%progbits
  87              		.align	1
  88              		.global	ff_oem2uni
  89              		.syntax unified
  90              		.thumb
  91              		.thumb_func
  92              		.fpu fpv4-sp-d16
  93              		.type	ff_oem2uni, %function
  94              	ff_oem2uni:
  95              	.LFB291:
  96              		.loc 1 15272 0
  97              		.cfi_startproc
  98              		@ args = 0, pretend = 0, frame = 0
  99              		@ frame_needed = 0, uses_anonymous_args = 0
 100              		@ link register save eliminated.
 101              	.LVL10:
 102              		.loc 1 15277 0
 103 0000 7F28     		cmp	r0, #127
 104 0002 0DD9     		bls	.L11
 105              		.loc 1 15281 0
 106 0004 40F25233 		movw	r3, #850
 107 0008 9942     		cmp	r1, r3
 108 000a 08D1     		bne	.L13
 109              		.loc 1 15282 0
 110 000c FF28     		cmp	r0, #255
 111 000e 06D8     		bhi	.L13
 112              		.loc 1 15282 0 is_stmt 0 discriminator 1
 113 0010 00F10040 		add	r0, r0, #-2147483648
 114              	.LVL11:
ARM GAS  /tmp/ccnew0QN.s 			page 3


 115 0014 034B     		ldr	r3, .L14
 116 0016 8038     		subs	r0, r0, #128
 117 0018 33F81000 		ldrh	r0, [r3, r0, lsl #1]
 118              	.LVL12:
 119 001c 7047     		bx	lr
 120              	.LVL13:
 121              	.L13:
 122              		.loc 1 15273 0 is_stmt 1
 123 001e 0020     		movs	r0, #0
 124              	.LVL14:
 125              	.L11:
 126              		.loc 1 15286 0
 127 0020 7047     		bx	lr
 128              	.L15:
 129 0022 00BF     		.align	2
 130              	.L14:
 131 0024 00000000 		.word	.LANCHOR0
 132              		.cfi_endproc
 133              	.LFE291:
 134              		.size	ff_oem2uni, .-ff_oem2uni
 135              		.section	.text.ff_wtoupper,"ax",%progbits
 136              		.align	1
 137              		.global	ff_wtoupper
 138              		.syntax unified
 139              		.thumb
 140              		.thumb_func
 141              		.fpu fpv4-sp-d16
 142              		.type	ff_wtoupper, %function
 143              	ff_wtoupper:
 144              	.LFB292:
 145              		.loc 1 15482 0
 146              		.cfi_startproc
 147              		@ args = 0, pretend = 0, frame = 0
 148              		@ frame_needed = 0, uses_anonymous_args = 0
 149              	.LVL15:
 150 0000 70B5     		push	{r4, r5, r6, lr}
 151              		.cfi_def_cfa_offset 16
 152              		.cfi_offset 4, -16
 153              		.cfi_offset 5, -12
 154              		.cfi_offset 6, -8
 155              		.cfi_offset 14, -4
 156              		.loc 1 15540 0
 157 0002 1E4A     		ldr	r2, .L38
 158 0004 1E4B     		ldr	r3, .L38+4
 159 0006 B0F5805F 		cmp	r0, #4096
 160 000a 28BF     		it	cs
 161 000c 1346     		movcs	r3, r2
 162              	.L31:
 163 000e 191D     		adds	r1, r3, #4
 164              	.L30:
 165              	.LVL16:
 166              		.loc 1 15542 0
 167 0010 31F8043C 		ldrh	r3, [r1, #-4]
 168              	.LVL17:
 169 0014 0A46     		mov	r2, r1
 170              		.loc 1 15543 0
 171 0016 83B3     		cbz	r3, .L18
ARM GAS  /tmp/ccnew0QN.s 			page 4


 172              		.loc 1 15543 0 is_stmt 0 discriminator 1
 173 0018 9842     		cmp	r0, r3
 174 001a 2ED3     		bcc	.L18
 175              	.LVL18:
 176              		.loc 1 15544 0 is_stmt 1
 177 001c 31F8024C 		ldrh	r4, [r1, #-2]
 178              	.LVL19:
 179 0020 250A     		lsrs	r5, r4, #8
 180              	.LVL20:
 181 0022 E4B2     		uxtb	r4, r4
 182              	.LVL21:
 183              		.loc 1 15545 0
 184 0024 E618     		adds	r6, r4, r3
 185 0026 B042     		cmp	r0, r6
 186 0028 21DA     		bge	.L19
 187              		.loc 1 15546 0
 188 002a 082D     		cmp	r5, #8
 189 002c 25D8     		bhi	.L18
 190 002e DFE805F0 		tbb	[pc, r5]
 191              	.L21:
 192 0032 05       		.byte	(.L20-.L21)/2
 193 0033 09       		.byte	(.L22-.L21)/2
 194 0034 0F       		.byte	(.L23-.L21)/2
 195 0035 11       		.byte	(.L24-.L21)/2
 196 0036 13       		.byte	(.L25-.L21)/2
 197 0037 15       		.byte	(.L26-.L21)/2
 198 0038 17       		.byte	(.L27-.L21)/2
 199 0039 19       		.byte	(.L28-.L21)/2
 200 003a 1B       		.byte	(.L29-.L21)/2
 201 003b 00       		.p2align 1
 202              	.L20:
 203              		.loc 1 15547 0
 204 003c C01A     		subs	r0, r0, r3
 205              	.LVL22:
 206 003e 31F81000 		ldrh	r0, [r1, r0, lsl #1]
 207              	.LVL23:
 208 0042 70BD     		pop	{r4, r5, r6, pc}
 209              	.LVL24:
 210              	.L22:
 211              		.loc 1 15548 0
 212 0044 C31A     		subs	r3, r0, r3
 213              	.LVL25:
 214 0046 03F00103 		and	r3, r3, #1
 215 004a C01A     		subs	r0, r0, r3
 216              	.LVL26:
 217              	.L37:
 218              		.loc 1 15555 0
 219 004c 80B2     		uxth	r0, r0
 220              	.LVL27:
 221 004e 70BD     		pop	{r4, r5, r6, pc}
 222              	.LVL28:
 223              	.L23:
 224              		.loc 1 15549 0
 225 0050 1038     		subs	r0, r0, #16
 226              	.LVL29:
 227 0052 FBE7     		b	.L37
 228              	.LVL30:
ARM GAS  /tmp/ccnew0QN.s 			page 5


 229              	.L24:
 230              		.loc 1 15550 0
 231 0054 2038     		subs	r0, r0, #32
 232              	.LVL31:
 233 0056 F9E7     		b	.L37
 234              	.LVL32:
 235              	.L25:
 236              		.loc 1 15551 0
 237 0058 3038     		subs	r0, r0, #48
 238              	.LVL33:
 239 005a F7E7     		b	.L37
 240              	.LVL34:
 241              	.L26:
 242              		.loc 1 15552 0
 243 005c 1A38     		subs	r0, r0, #26
 244              	.LVL35:
 245 005e F5E7     		b	.L37
 246              	.LVL36:
 247              	.L27:
 248              		.loc 1 15553 0
 249 0060 0830     		adds	r0, r0, #8
 250              	.LVL37:
 251 0062 F3E7     		b	.L37
 252              	.LVL38:
 253              	.L28:
 254              		.loc 1 15554 0
 255 0064 5038     		subs	r0, r0, #80
 256              	.LVL39:
 257 0066 F1E7     		b	.L37
 258              	.LVL40:
 259              	.L29:
 260              		.loc 1 15555 0
 261 0068 A0F5E350 		sub	r0, r0, #7264
 262              	.LVL41:
 263 006c EEE7     		b	.L37
 264              	.LVL42:
 265              	.L19:
 266 006e 0431     		adds	r1, r1, #4
 267              	.LVL43:
 268              		.loc 1 15559 0
 269 0070 002D     		cmp	r5, #0
 270 0072 CDD1     		bne	.L30
 271              		.loc 1 15559 0 is_stmt 0 discriminator 1
 272 0074 02EB4403 		add	r3, r2, r4, lsl #1
 273              	.LVL44:
 274 0078 C9E7     		b	.L31
 275              	.LVL45:
 276              	.L18:
 277              		.loc 1 15563 0 is_stmt 1
 278 007a 70BD     		pop	{r4, r5, r6, pc}
 279              	.L39:
 280              		.align	2
 281              	.L38:
 282 007c 00000000 		.word	.LANCHOR1
 283 0080 00000000 		.word	.LANCHOR2
 284              		.cfi_endproc
 285              	.LFE292:
ARM GAS  /tmp/ccnew0QN.s 			page 6


 286              		.size	ff_wtoupper, .-ff_wtoupper
 287              		.section	.rodata.cvt1.8449,"a",%progbits
 288              		.align	1
 289              		.set	.LANCHOR2,. + 0
 290              		.type	cvt1.8449, %object
 291              		.size	cvt1.8449, 498
 292              	cvt1.8449:
 293 0000 6100     		.short	97
 294 0002 1A03     		.short	794
 295 0004 E000     		.short	224
 296 0006 1703     		.short	791
 297 0008 F800     		.short	248
 298 000a 0703     		.short	775
 299 000c FF00     		.short	255
 300 000e 0100     		.short	1
 301 0010 7801     		.short	376
 302 0012 0001     		.short	256
 303 0014 3001     		.short	304
 304 0016 3201     		.short	306
 305 0018 0601     		.short	262
 306 001a 3901     		.short	313
 307 001c 1001     		.short	272
 308 001e 4A01     		.short	330
 309 0020 2E01     		.short	302
 310 0022 7901     		.short	377
 311 0024 0601     		.short	262
 312 0026 8001     		.short	384
 313 0028 4D00     		.short	77
 314 002a 4302     		.short	579
 315 002c 8101     		.short	385
 316 002e 8201     		.short	386
 317 0030 8201     		.short	386
 318 0032 8401     		.short	388
 319 0034 8401     		.short	388
 320 0036 8601     		.short	390
 321 0038 8701     		.short	391
 322 003a 8701     		.short	391
 323 003c 8901     		.short	393
 324 003e 8A01     		.short	394
 325 0040 8B01     		.short	395
 326 0042 8B01     		.short	395
 327 0044 8D01     		.short	397
 328 0046 8E01     		.short	398
 329 0048 8F01     		.short	399
 330 004a 9001     		.short	400
 331 004c 9101     		.short	401
 332 004e 9101     		.short	401
 333 0050 9301     		.short	403
 334 0052 9401     		.short	404
 335 0054 F601     		.short	502
 336 0056 9601     		.short	406
 337 0058 9701     		.short	407
 338 005a 9801     		.short	408
 339 005c 9801     		.short	408
 340 005e 3D02     		.short	573
 341 0060 9B01     		.short	411
 342 0062 9C01     		.short	412
ARM GAS  /tmp/ccnew0QN.s 			page 7


 343 0064 9D01     		.short	413
 344 0066 2002     		.short	544
 345 0068 9F01     		.short	415
 346 006a A001     		.short	416
 347 006c A001     		.short	416
 348 006e A201     		.short	418
 349 0070 A201     		.short	418
 350 0072 A401     		.short	420
 351 0074 A401     		.short	420
 352 0076 A601     		.short	422
 353 0078 A701     		.short	423
 354 007a A701     		.short	423
 355 007c A901     		.short	425
 356 007e AA01     		.short	426
 357 0080 AB01     		.short	427
 358 0082 AC01     		.short	428
 359 0084 AC01     		.short	428
 360 0086 AE01     		.short	430
 361 0088 AF01     		.short	431
 362 008a AF01     		.short	431
 363 008c B101     		.short	433
 364 008e B201     		.short	434
 365 0090 B301     		.short	435
 366 0092 B301     		.short	435
 367 0094 B501     		.short	437
 368 0096 B501     		.short	437
 369 0098 B701     		.short	439
 370 009a B801     		.short	440
 371 009c B801     		.short	440
 372 009e BA01     		.short	442
 373 00a0 BB01     		.short	443
 374 00a2 BC01     		.short	444
 375 00a4 BC01     		.short	444
 376 00a6 BE01     		.short	446
 377 00a8 F701     		.short	503
 378 00aa C001     		.short	448
 379 00ac C101     		.short	449
 380 00ae C201     		.short	450
 381 00b0 C301     		.short	451
 382 00b2 C401     		.short	452
 383 00b4 C501     		.short	453
 384 00b6 C401     		.short	452
 385 00b8 C701     		.short	455
 386 00ba C801     		.short	456
 387 00bc C701     		.short	455
 388 00be CA01     		.short	458
 389 00c0 CB01     		.short	459
 390 00c2 CA01     		.short	458
 391 00c4 CD01     		.short	461
 392 00c6 1001     		.short	272
 393 00c8 DD01     		.short	477
 394 00ca 0100     		.short	1
 395 00cc 8E01     		.short	398
 396 00ce DE01     		.short	478
 397 00d0 1201     		.short	274
 398 00d2 F301     		.short	499
 399 00d4 0300     		.short	3
ARM GAS  /tmp/ccnew0QN.s 			page 8


 400 00d6 F101     		.short	497
 401 00d8 F401     		.short	500
 402 00da F401     		.short	500
 403 00dc F801     		.short	504
 404 00de 2801     		.short	296
 405 00e0 2202     		.short	546
 406 00e2 1201     		.short	274
 407 00e4 3A02     		.short	570
 408 00e6 0900     		.short	9
 409 00e8 652C     		.short	11365
 410 00ea 3B02     		.short	571
 411 00ec 3B02     		.short	571
 412 00ee 3D02     		.short	573
 413 00f0 662C     		.short	11366
 414 00f2 3F02     		.short	575
 415 00f4 4002     		.short	576
 416 00f6 4102     		.short	577
 417 00f8 4102     		.short	577
 418 00fa 4602     		.short	582
 419 00fc 0A01     		.short	266
 420 00fe 5302     		.short	595
 421 0100 4000     		.short	64
 422 0102 8101     		.short	385
 423 0104 8601     		.short	390
 424 0106 5502     		.short	597
 425 0108 8901     		.short	393
 426 010a 8A01     		.short	394
 427 010c 5802     		.short	600
 428 010e 8F01     		.short	399
 429 0110 5A02     		.short	602
 430 0112 9001     		.short	400
 431 0114 5C02     		.short	604
 432 0116 5D02     		.short	605
 433 0118 5E02     		.short	606
 434 011a 5F02     		.short	607
 435 011c 9301     		.short	403
 436 011e 6102     		.short	609
 437 0120 6202     		.short	610
 438 0122 9401     		.short	404
 439 0124 6402     		.short	612
 440 0126 6502     		.short	613
 441 0128 6602     		.short	614
 442 012a 6702     		.short	615
 443 012c 9701     		.short	407
 444 012e 9601     		.short	406
 445 0130 6A02     		.short	618
 446 0132 622C     		.short	11362
 447 0134 6C02     		.short	620
 448 0136 6D02     		.short	621
 449 0138 6E02     		.short	622
 450 013a 9C01     		.short	412
 451 013c 7002     		.short	624
 452 013e 7102     		.short	625
 453 0140 9D01     		.short	413
 454 0142 7302     		.short	627
 455 0144 7402     		.short	628
 456 0146 9F01     		.short	415
ARM GAS  /tmp/ccnew0QN.s 			page 9


 457 0148 7602     		.short	630
 458 014a 7702     		.short	631
 459 014c 7802     		.short	632
 460 014e 7902     		.short	633
 461 0150 7A02     		.short	634
 462 0152 7B02     		.short	635
 463 0154 7C02     		.short	636
 464 0156 642C     		.short	11364
 465 0158 7E02     		.short	638
 466 015a 7F02     		.short	639
 467 015c A601     		.short	422
 468 015e 8102     		.short	641
 469 0160 8202     		.short	642
 470 0162 A901     		.short	425
 471 0164 8402     		.short	644
 472 0166 8502     		.short	645
 473 0168 8602     		.short	646
 474 016a 8702     		.short	647
 475 016c AE01     		.short	430
 476 016e 4402     		.short	580
 477 0170 B101     		.short	433
 478 0172 B201     		.short	434
 479 0174 4502     		.short	581
 480 0176 8D02     		.short	653
 481 0178 8E02     		.short	654
 482 017a 8F02     		.short	655
 483 017c 9002     		.short	656
 484 017e 9102     		.short	657
 485 0180 B701     		.short	439
 486 0182 7B03     		.short	891
 487 0184 0300     		.short	3
 488 0186 FD03     		.short	1021
 489 0188 FE03     		.short	1022
 490 018a FF03     		.short	1023
 491 018c AC03     		.short	940
 492 018e 0400     		.short	4
 493 0190 8603     		.short	902
 494 0192 8803     		.short	904
 495 0194 8903     		.short	905
 496 0196 8A03     		.short	906
 497 0198 B103     		.short	945
 498 019a 1103     		.short	785
 499 019c C203     		.short	962
 500 019e 0200     		.short	2
 501 01a0 A303     		.short	931
 502 01a2 A303     		.short	931
 503 01a4 C403     		.short	964
 504 01a6 0803     		.short	776
 505 01a8 CC03     		.short	972
 506 01aa 0300     		.short	3
 507 01ac 8C03     		.short	908
 508 01ae 8E03     		.short	910
 509 01b0 8F03     		.short	911
 510 01b2 D803     		.short	984
 511 01b4 1801     		.short	280
 512 01b6 F203     		.short	1010
 513 01b8 0A00     		.short	10
ARM GAS  /tmp/ccnew0QN.s 			page 10


 514 01ba F903     		.short	1017
 515 01bc F303     		.short	1011
 516 01be F403     		.short	1012
 517 01c0 F503     		.short	1013
 518 01c2 F603     		.short	1014
 519 01c4 F703     		.short	1015
 520 01c6 F703     		.short	1015
 521 01c8 F903     		.short	1017
 522 01ca FA03     		.short	1018
 523 01cc FA03     		.short	1018
 524 01ce 3004     		.short	1072
 525 01d0 2003     		.short	800
 526 01d2 5004     		.short	1104
 527 01d4 1007     		.short	1808
 528 01d6 6004     		.short	1120
 529 01d8 2201     		.short	290
 530 01da 8A04     		.short	1162
 531 01dc 3601     		.short	310
 532 01de C104     		.short	1217
 533 01e0 0E01     		.short	270
 534 01e2 CF04     		.short	1231
 535 01e4 0100     		.short	1
 536 01e6 C004     		.short	1216
 537 01e8 D004     		.short	1232
 538 01ea 4401     		.short	324
 539 01ec 6105     		.short	1377
 540 01ee 2604     		.short	1062
 541 01f0 0000     		.short	0
 542              		.section	.rodata.cvt2.8450,"a",%progbits
 543              		.align	1
 544              		.set	.LANCHOR1,. + 0
 545              		.type	cvt2.8450, %object
 546              		.size	cvt2.8450, 188
 547              	cvt2.8450:
 548 0000 7D1D     		.short	7549
 549 0002 0100     		.short	1
 550 0004 632C     		.short	11363
 551 0006 001E     		.short	7680
 552 0008 9601     		.short	406
 553 000a A01E     		.short	7840
 554 000c 5A01     		.short	346
 555 000e 001F     		.short	7936
 556 0010 0806     		.short	1544
 557 0012 101F     		.short	7952
 558 0014 0606     		.short	1542
 559 0016 201F     		.short	7968
 560 0018 0806     		.short	1544
 561 001a 301F     		.short	7984
 562 001c 0806     		.short	1544
 563 001e 401F     		.short	8000
 564 0020 0606     		.short	1542
 565 0022 511F     		.short	8017
 566 0024 0700     		.short	7
 567 0026 591F     		.short	8025
 568 0028 521F     		.short	8018
 569 002a 5B1F     		.short	8027
 570 002c 541F     		.short	8020
ARM GAS  /tmp/ccnew0QN.s 			page 11


 571 002e 5D1F     		.short	8029
 572 0030 561F     		.short	8022
 573 0032 5F1F     		.short	8031
 574 0034 601F     		.short	8032
 575 0036 0806     		.short	1544
 576 0038 701F     		.short	8048
 577 003a 0E00     		.short	14
 578 003c BA1F     		.short	8122
 579 003e BB1F     		.short	8123
 580 0040 C81F     		.short	8136
 581 0042 C91F     		.short	8137
 582 0044 CA1F     		.short	8138
 583 0046 CB1F     		.short	8139
 584 0048 DA1F     		.short	8154
 585 004a DB1F     		.short	8155
 586 004c F81F     		.short	8184
 587 004e F91F     		.short	8185
 588 0050 EA1F     		.short	8170
 589 0052 EB1F     		.short	8171
 590 0054 FA1F     		.short	8186
 591 0056 FB1F     		.short	8187
 592 0058 801F     		.short	8064
 593 005a 0806     		.short	1544
 594 005c 901F     		.short	8080
 595 005e 0806     		.short	1544
 596 0060 A01F     		.short	8096
 597 0062 0806     		.short	1544
 598 0064 B01F     		.short	8112
 599 0066 0400     		.short	4
 600 0068 B81F     		.short	8120
 601 006a B91F     		.short	8121
 602 006c B21F     		.short	8114
 603 006e BC1F     		.short	8124
 604 0070 CC1F     		.short	8140
 605 0072 0100     		.short	1
 606 0074 C31F     		.short	8131
 607 0076 D01F     		.short	8144
 608 0078 0206     		.short	1538
 609 007a E01F     		.short	8160
 610 007c 0206     		.short	1538
 611 007e E51F     		.short	8165
 612 0080 0100     		.short	1
 613 0082 EC1F     		.short	8172
 614 0084 F31F     		.short	8179
 615 0086 0100     		.short	1
 616 0088 FC1F     		.short	8188
 617 008a 4E21     		.short	8526
 618 008c 0100     		.short	1
 619 008e 3221     		.short	8498
 620 0090 7021     		.short	8560
 621 0092 1002     		.short	528
 622 0094 8421     		.short	8580
 623 0096 0100     		.short	1
 624 0098 8321     		.short	8579
 625 009a D024     		.short	9424
 626 009c 1A05     		.short	1306
 627 009e 302C     		.short	11312
ARM GAS  /tmp/ccnew0QN.s 			page 12


 628 00a0 2F04     		.short	1071
 629 00a2 602C     		.short	11360
 630 00a4 0201     		.short	258
 631 00a6 672C     		.short	11367
 632 00a8 0601     		.short	262
 633 00aa 752C     		.short	11381
 634 00ac 0201     		.short	258
 635 00ae 802C     		.short	11392
 636 00b0 6401     		.short	356
 637 00b2 002D     		.short	11520
 638 00b4 2608     		.short	2086
 639 00b6 41FF     		.short	-191
 640 00b8 1A03     		.short	794
 641 00ba 0000     		.short	0
 642              		.section	.rodata.uc850,"a",%progbits
 643              		.align	1
 644              		.set	.LANCHOR0,. + 0
 645              		.type	uc850, %object
 646              		.size	uc850, 256
 647              	uc850:
 648 0000 C700     		.short	199
 649 0002 FC00     		.short	252
 650 0004 E900     		.short	233
 651 0006 E200     		.short	226
 652 0008 E400     		.short	228
 653 000a E000     		.short	224
 654 000c E500     		.short	229
 655 000e E700     		.short	231
 656 0010 EA00     		.short	234
 657 0012 EB00     		.short	235
 658 0014 E800     		.short	232
 659 0016 EF00     		.short	239
 660 0018 EE00     		.short	238
 661 001a EC00     		.short	236
 662 001c C400     		.short	196
 663 001e C500     		.short	197
 664 0020 C900     		.short	201
 665 0022 E600     		.short	230
 666 0024 C600     		.short	198
 667 0026 F400     		.short	244
 668 0028 F600     		.short	246
 669 002a F200     		.short	242
 670 002c FB00     		.short	251
 671 002e F900     		.short	249
 672 0030 FF00     		.short	255
 673 0032 D600     		.short	214
 674 0034 DC00     		.short	220
 675 0036 F800     		.short	248
 676 0038 A300     		.short	163
 677 003a D800     		.short	216
 678 003c D700     		.short	215
 679 003e 9201     		.short	402
 680 0040 E100     		.short	225
 681 0042 ED00     		.short	237
 682 0044 F300     		.short	243
 683 0046 FA00     		.short	250
 684 0048 F100     		.short	241
ARM GAS  /tmp/ccnew0QN.s 			page 13


 685 004a D100     		.short	209
 686 004c AA00     		.short	170
 687 004e BA00     		.short	186
 688 0050 BF00     		.short	191
 689 0052 AE00     		.short	174
 690 0054 AC00     		.short	172
 691 0056 BD00     		.short	189
 692 0058 BC00     		.short	188
 693 005a A100     		.short	161
 694 005c AB00     		.short	171
 695 005e BB00     		.short	187
 696 0060 9125     		.short	9617
 697 0062 9225     		.short	9618
 698 0064 9325     		.short	9619
 699 0066 0225     		.short	9474
 700 0068 2425     		.short	9508
 701 006a C100     		.short	193
 702 006c C200     		.short	194
 703 006e C000     		.short	192
 704 0070 A900     		.short	169
 705 0072 6325     		.short	9571
 706 0074 5125     		.short	9553
 707 0076 5725     		.short	9559
 708 0078 5D25     		.short	9565
 709 007a A200     		.short	162
 710 007c A500     		.short	165
 711 007e 1025     		.short	9488
 712 0080 1425     		.short	9492
 713 0082 3425     		.short	9524
 714 0084 2C25     		.short	9516
 715 0086 1C25     		.short	9500
 716 0088 0025     		.short	9472
 717 008a 3C25     		.short	9532
 718 008c E300     		.short	227
 719 008e C300     		.short	195
 720 0090 5A25     		.short	9562
 721 0092 5425     		.short	9556
 722 0094 6925     		.short	9577
 723 0096 6625     		.short	9574
 724 0098 6025     		.short	9568
 725 009a 5025     		.short	9552
 726 009c 6C25     		.short	9580
 727 009e A400     		.short	164
 728 00a0 F000     		.short	240
 729 00a2 D000     		.short	208
 730 00a4 CA00     		.short	202
 731 00a6 CB00     		.short	203
 732 00a8 C800     		.short	200
 733 00aa 3101     		.short	305
 734 00ac CD00     		.short	205
 735 00ae CE00     		.short	206
 736 00b0 CF00     		.short	207
 737 00b2 1825     		.short	9496
 738 00b4 0C25     		.short	9484
 739 00b6 8825     		.short	9608
 740 00b8 8425     		.short	9604
 741 00ba A600     		.short	166
ARM GAS  /tmp/ccnew0QN.s 			page 14


 742 00bc CC00     		.short	204
 743 00be 8025     		.short	9600
 744 00c0 D300     		.short	211
 745 00c2 DF00     		.short	223
 746 00c4 D400     		.short	212
 747 00c6 D200     		.short	210
 748 00c8 F500     		.short	245
 749 00ca D500     		.short	213
 750 00cc B500     		.short	181
 751 00ce FE00     		.short	254
 752 00d0 DE00     		.short	222
 753 00d2 DA00     		.short	218
 754 00d4 DB00     		.short	219
 755 00d6 D900     		.short	217
 756 00d8 FD00     		.short	253
 757 00da DD00     		.short	221
 758 00dc AF00     		.short	175
 759 00de B400     		.short	180
 760 00e0 AD00     		.short	173
 761 00e2 B100     		.short	177
 762 00e4 1720     		.short	8215
 763 00e6 BE00     		.short	190
 764 00e8 B600     		.short	182
 765 00ea A700     		.short	167
 766 00ec F700     		.short	247
 767 00ee B800     		.short	184
 768 00f0 B000     		.short	176
 769 00f2 A800     		.short	168
 770 00f4 B700     		.short	183
 771 00f6 B900     		.short	185
 772 00f8 B300     		.short	179
 773 00fa B200     		.short	178
 774 00fc A025     		.short	9632
 775 00fe A000     		.short	160
 776              		.text
 777              	.Letext0:
 778              		.file 2 "../../modules/ChibiOS/ext/fatfs/src/integer.h"
 779              		.file 3 "/opt/gcc-arm-none-eabi-6-2017-q2-update/lib/gcc/arm-none-eabi/6.3.1/include/stddef.h"
 780              		.file 4 "/opt/gcc-arm-none-eabi-6-2017-q2-update/arm-none-eabi/include/machine/_default_types.h"
 781              		.file 5 "/opt/gcc-arm-none-eabi-6-2017-q2-update/arm-none-eabi/include/sys/_stdint.h"
 782              		.file 6 "../../modules/ChibiOS/os/common/ports/ARMCMx/compilers/GCC/chtypes.h"
 783              		.file 7 "../../modules/ChibiOS/os/rt/include/chsystypes.h"
 784              		.file 8 "../../modules/ChibiOS/os/rt/include/chschd.h"
 785              		.file 9 "../../modules/ChibiOS/os/rt/include/chtime.h"
 786              		.file 10 "../../modules/ChibiOS/os/common/ext/ARM/CMSIS/Core/Include/core_cm4.h"
 787              		.file 11 "../../modules/ChibiOS/os/common/ext/ST/STM32F4xx/system_stm32f4xx.h"
 788              		.file 12 "../../modules/ChibiOS/os/common/ports/ARMCMx/chcore.h"
 789              		.file 13 "../../modules/ChibiOS/os/common/ports/ARMCMx/chcore_v7m.h"
 790              		.file 14 "../../modules/ChibiOS/os/rt/include/chtm.h"
 791              		.file 15 "../../modules/ChibiOS/os/rt/include/chstats.h"
 792              		.file 16 "../../modules/ChibiOS/os/rt/include/chsem.h"
 793              		.file 17 "../../modules/ChibiOS/os/rt/include/chmtx.h"
 794              		.file 18 "../../modules/ChibiOS/os/rt/include/chsys.h"
 795              		.file 19 "../../modules/ChibiOS/os/rt/include/chregistry.h"
 796              		.file 20 "../../modules/ChibiOS/os/oslib/include/chmemcore.h"
 797              		.file 21 "../../modules/ChibiOS/os/oslib/include/chmempools.h"
 798              		.file 22 "../../modules/ChibiOS/os/oslib/include/chfactory.h"
ARM GAS  /tmp/ccnew0QN.s 			page 15


 799              		.section	.debug_info,"",%progbits
 800              	.Ldebug_info0:
 801 0000 C40C0000 		.4byte	0xcc4
 802 0004 0400     		.2byte	0x4
 803 0006 00000000 		.4byte	.Ldebug_abbrev0
 804 000a 04       		.byte	0x4
 805 000b 01       		.uleb128 0x1
 806 000c 63010000 		.4byte	.LASF165
 807 0010 0C       		.byte	0xc
 808 0011 1A000000 		.4byte	.LASF166
 809 0015 CF070000 		.4byte	.LASF167
 810 0019 00000000 		.4byte	.Ldebug_ranges0+0
 811 001d 00000000 		.4byte	0
 812 0021 00000000 		.4byte	.Ldebug_line0
 813 0025 02       		.uleb128 0x2
 814 0026 04       		.byte	0x4
 815 0027 05       		.byte	0x5
 816 0028 696E7400 		.ascii	"int\000"
 817 002c 03       		.uleb128 0x3
 818 002d 04       		.byte	0x4
 819 002e 07       		.byte	0x7
 820 002f 24030000 		.4byte	.LASF0
 821 0033 03       		.uleb128 0x3
 822 0034 01       		.byte	0x1
 823 0035 08       		.byte	0x8
 824 0036 7C050000 		.4byte	.LASF1
 825 003a 03       		.uleb128 0x3
 826 003b 02       		.byte	0x2
 827 003c 05       		.byte	0x5
 828 003d A0050000 		.4byte	.LASF2
 829 0041 04       		.uleb128 0x4
 830 0042 BA040000 		.4byte	.LASF4
 831 0046 02       		.byte	0x2
 832 0047 1A       		.byte	0x1a
 833 0048 4C000000 		.4byte	0x4c
 834 004c 03       		.uleb128 0x3
 835 004d 02       		.byte	0x2
 836 004e 07       		.byte	0x7
 837 004f D8060000 		.4byte	.LASF3
 838 0053 04       		.uleb128 0x4
 839 0054 81070000 		.4byte	.LASF5
 840 0058 02       		.byte	0x2
 841 0059 1B       		.byte	0x1b
 842 005a 4C000000 		.4byte	0x4c
 843 005e 05       		.uleb128 0x5
 844 005f 53000000 		.4byte	0x53
 845 0063 03       		.uleb128 0x3
 846 0064 04       		.byte	0x4
 847 0065 05       		.byte	0x5
 848 0066 8F020000 		.4byte	.LASF6
 849 006a 03       		.uleb128 0x3
 850 006b 04       		.byte	0x4
 851 006c 07       		.byte	0x7
 852 006d 42060000 		.4byte	.LASF7
 853 0071 03       		.uleb128 0x3
 854 0072 08       		.byte	0x8
 855 0073 07       		.byte	0x7
ARM GAS  /tmp/ccnew0QN.s 			page 16


 856 0074 C6000000 		.4byte	.LASF8
 857 0078 04       		.uleb128 0x4
 858 0079 0D000000 		.4byte	.LASF9
 859 007d 03       		.byte	0x3
 860 007e D8       		.byte	0xd8
 861 007f 2C000000 		.4byte	0x2c
 862 0083 03       		.uleb128 0x3
 863 0084 08       		.byte	0x8
 864 0085 05       		.byte	0x5
 865 0086 38010000 		.4byte	.LASF10
 866 008a 03       		.uleb128 0x3
 867 008b 08       		.byte	0x8
 868 008c 04       		.byte	0x4
 869 008d 8D040000 		.4byte	.LASF11
 870 0091 03       		.uleb128 0x3
 871 0092 01       		.byte	0x1
 872 0093 06       		.byte	0x6
 873 0094 46010000 		.4byte	.LASF12
 874 0098 04       		.uleb128 0x4
 875 0099 60000000 		.4byte	.LASF13
 876 009d 04       		.byte	0x4
 877 009e 2B       		.byte	0x2b
 878 009f 33000000 		.4byte	0x33
 879 00a3 04       		.uleb128 0x4
 880 00a4 7D060000 		.4byte	.LASF14
 881 00a8 04       		.byte	0x4
 882 00a9 39       		.byte	0x39
 883 00aa 4C000000 		.4byte	0x4c
 884 00ae 04       		.uleb128 0x4
 885 00af 2E040000 		.4byte	.LASF15
 886 00b3 04       		.byte	0x4
 887 00b4 4D       		.byte	0x4d
 888 00b5 63000000 		.4byte	0x63
 889 00b9 04       		.uleb128 0x4
 890 00ba C2020000 		.4byte	.LASF16
 891 00be 04       		.byte	0x4
 892 00bf 4F       		.byte	0x4f
 893 00c0 6A000000 		.4byte	0x6a
 894 00c4 04       		.uleb128 0x4
 895 00c5 F3040000 		.4byte	.LASF17
 896 00c9 04       		.byte	0x4
 897 00ca 69       		.byte	0x69
 898 00cb 71000000 		.4byte	0x71
 899 00cf 04       		.uleb128 0x4
 900 00d0 62070000 		.4byte	.LASF18
 901 00d4 05       		.byte	0x5
 902 00d5 18       		.byte	0x18
 903 00d6 98000000 		.4byte	0x98
 904 00da 05       		.uleb128 0x5
 905 00db CF000000 		.4byte	0xcf
 906 00df 04       		.uleb128 0x4
 907 00e0 31030000 		.4byte	.LASF19
 908 00e4 05       		.byte	0x5
 909 00e5 24       		.byte	0x24
 910 00e6 A3000000 		.4byte	0xa3
 911 00ea 04       		.uleb128 0x4
 912 00eb 74050000 		.4byte	.LASF20
ARM GAS  /tmp/ccnew0QN.s 			page 17


 913 00ef 05       		.byte	0x5
 914 00f0 2C       		.byte	0x2c
 915 00f1 AE000000 		.4byte	0xae
 916 00f5 06       		.uleb128 0x6
 917 00f6 EA000000 		.4byte	0xea
 918 00fa 04       		.uleb128 0x4
 919 00fb 1C060000 		.4byte	.LASF21
 920 00ff 05       		.byte	0x5
 921 0100 30       		.byte	0x30
 922 0101 B9000000 		.4byte	0xb9
 923 0105 04       		.uleb128 0x4
 924 0106 4A000000 		.4byte	.LASF22
 925 010a 05       		.byte	0x5
 926 010b 3C       		.byte	0x3c
 927 010c C4000000 		.4byte	0xc4
 928 0110 04       		.uleb128 0x4
 929 0111 F6060000 		.4byte	.LASF23
 930 0115 06       		.byte	0x6
 931 0116 27       		.byte	0x27
 932 0117 FA000000 		.4byte	0xfa
 933 011b 04       		.uleb128 0x4
 934 011c 2F010000 		.4byte	.LASF24
 935 0120 06       		.byte	0x6
 936 0121 28       		.byte	0x28
 937 0122 05010000 		.4byte	0x105
 938 0126 04       		.uleb128 0x4
 939 0127 EC030000 		.4byte	.LASF25
 940 012b 06       		.byte	0x6
 941 012c 2A       		.byte	0x2a
 942 012d CF000000 		.4byte	0xcf
 943 0131 04       		.uleb128 0x4
 944 0132 98020000 		.4byte	.LASF26
 945 0136 06       		.byte	0x6
 946 0137 2B       		.byte	0x2b
 947 0138 CF000000 		.4byte	0xcf
 948 013c 04       		.uleb128 0x4
 949 013d 1D050000 		.4byte	.LASF27
 950 0141 06       		.byte	0x6
 951 0142 2C       		.byte	0x2c
 952 0143 CF000000 		.4byte	0xcf
 953 0147 04       		.uleb128 0x4
 954 0148 54050000 		.4byte	.LASF28
 955 014c 06       		.byte	0x6
 956 014d 2E       		.byte	0x2e
 957 014e FA000000 		.4byte	0xfa
 958 0152 04       		.uleb128 0x4
 959 0153 B2030000 		.4byte	.LASF29
 960 0157 06       		.byte	0x6
 961 0158 2F       		.byte	0x2f
 962 0159 EA000000 		.4byte	0xea
 963 015d 04       		.uleb128 0x4
 964 015e 0D040000 		.4byte	.LASF30
 965 0162 06       		.byte	0x6
 966 0163 31       		.byte	0x31
 967 0164 FA000000 		.4byte	0xfa
 968 0168 04       		.uleb128 0x4
 969 0169 1E030000 		.4byte	.LASF31
ARM GAS  /tmp/ccnew0QN.s 			page 18


 970 016d 06       		.byte	0x6
 971 016e 33       		.byte	0x33
 972 016f EA000000 		.4byte	0xea
 973 0173 04       		.uleb128 0x4
 974 0174 BD030000 		.4byte	.LASF32
 975 0178 06       		.byte	0x6
 976 0179 34       		.byte	0x34
 977 017a FA000000 		.4byte	0xfa
 978 017e 04       		.uleb128 0x4
 979 017f 88060000 		.4byte	.LASF33
 980 0183 07       		.byte	0x7
 981 0184 34       		.byte	0x34
 982 0185 89010000 		.4byte	0x189
 983 0189 07       		.uleb128 0x7
 984 018a A8030000 		.4byte	.LASF52
 985 018e 60       		.byte	0x60
 986 018f 08       		.byte	0x8
 987 0190 8E       		.byte	0x8e
 988 0191 74020000 		.4byte	0x274
 989 0195 08       		.uleb128 0x8
 990 0196 7F030000 		.4byte	.LASF34
 991 019a 08       		.byte	0x8
 992 019b 8F       		.byte	0x8f
 993 019c A9020000 		.4byte	0x2a9
 994 01a0 00       		.byte	0
 995 01a1 08       		.uleb128 0x8
 996 01a2 DD040000 		.4byte	.LASF35
 997 01a6 08       		.byte	0x8
 998 01a7 90       		.byte	0x90
 999 01a8 47010000 		.4byte	0x147
 1000 01ac 08       		.byte	0x8
 1001 01ad 09       		.uleb128 0x9
 1002 01ae 63747800 		.ascii	"ctx\000"
 1003 01b2 08       		.byte	0x8
 1004 01b3 91       		.byte	0x91
 1005 01b4 1B050000 		.4byte	0x51b
 1006 01b8 0C       		.byte	0xc
 1007 01b9 08       		.uleb128 0x8
 1008 01ba 43040000 		.4byte	.LASF36
 1009 01be 08       		.byte	0x8
 1010 01bf 93       		.byte	0x93
 1011 01c0 7F020000 		.4byte	0x27f
 1012 01c4 10       		.byte	0x10
 1013 01c5 08       		.uleb128 0x8
 1014 01c6 60060000 		.4byte	.LASF37
 1015 01ca 08       		.byte	0x8
 1016 01cb 94       		.byte	0x94
 1017 01cc 7F020000 		.4byte	0x27f
 1018 01d0 14       		.byte	0x14
 1019 01d1 08       		.uleb128 0x8
 1020 01d2 A3030000 		.4byte	.LASF38
 1021 01d6 08       		.byte	0x8
 1022 01d7 9B       		.byte	0x9b
 1023 01d8 01080000 		.4byte	0x801
 1024 01dc 18       		.byte	0x18
 1025 01dd 08       		.uleb128 0x8
 1026 01de 54060000 		.4byte	.LASF39
ARM GAS  /tmp/ccnew0QN.s 			page 19


 1027 01e2 08       		.byte	0x8
 1028 01e3 A4       		.byte	0xa4
 1029 01e4 18080000 		.4byte	0x818
 1030 01e8 1C       		.byte	0x1c
 1031 01e9 08       		.uleb128 0x8
 1032 01ea 89020000 		.4byte	.LASF40
 1033 01ee 08       		.byte	0x8
 1034 01ef A9       		.byte	0xa9
 1035 01f0 31010000 		.4byte	0x131
 1036 01f4 20       		.byte	0x20
 1037 01f5 08       		.uleb128 0x8
 1038 01f6 6A070000 		.4byte	.LASF41
 1039 01fa 08       		.byte	0x8
 1040 01fb AD       		.byte	0xad
 1041 01fc 26010000 		.4byte	0x126
 1042 0200 21       		.byte	0x21
 1043 0201 08       		.uleb128 0x8
 1044 0202 30050000 		.4byte	.LASF42
 1045 0206 08       		.byte	0x8
 1046 0207 B2       		.byte	0xb2
 1047 0208 3C010000 		.4byte	0x13c
 1048 020c 22       		.byte	0x22
 1049 020d 0A       		.uleb128 0xa
 1050 020e 7500     		.ascii	"u\000"
 1051 0210 08       		.byte	0x8
 1052 0211 0301     		.2byte	0x103
 1053 0213 37070000 		.4byte	0x737
 1054 0217 24       		.byte	0x24
 1055 0218 0B       		.uleb128 0xb
 1056 0219 EF020000 		.4byte	.LASF43
 1057 021d 08       		.byte	0x8
 1058 021e 0801     		.2byte	0x108
 1059 0220 85020000 		.4byte	0x285
 1060 0224 28       		.byte	0x28
 1061 0225 0B       		.uleb128 0xb
 1062 0226 80020000 		.4byte	.LASF44
 1063 022a 08       		.byte	0x8
 1064 022b 0E01     		.2byte	0x10e
 1065 022d A9020000 		.4byte	0x2a9
 1066 0231 2C       		.byte	0x2c
 1067 0232 0B       		.uleb128 0xb
 1068 0233 C4030000 		.4byte	.LASF45
 1069 0237 08       		.byte	0x8
 1070 0238 1401     		.2byte	0x114
 1071 023a 5D010000 		.4byte	0x15d
 1072 023e 34       		.byte	0x34
 1073 023f 0B       		.uleb128 0xb
 1074 0240 BC070000 		.4byte	.LASF46
 1075 0244 08       		.byte	0x8
 1076 0245 1B01     		.2byte	0x11b
 1077 0247 FB070000 		.4byte	0x7fb
 1078 024b 38       		.byte	0x38
 1079 024c 0B       		.uleb128 0xb
 1080 024d 49040000 		.4byte	.LASF47
 1081 0251 08       		.byte	0x8
 1082 0252 1F01     		.2byte	0x11f
 1083 0254 47010000 		.4byte	0x147
ARM GAS  /tmp/ccnew0QN.s 			page 20


 1084 0258 3C       		.byte	0x3c
 1085 0259 0B       		.uleb128 0xb
 1086 025a 85030000 		.4byte	.LASF48
 1087 025e 08       		.byte	0x8
 1088 025f 2601     		.2byte	0x126
 1089 0261 5C030000 		.4byte	0x35c
 1090 0265 40       		.byte	0x40
 1091 0266 0B       		.uleb128 0xb
 1092 0267 A6020000 		.4byte	.LASF49
 1093 026b 08       		.byte	0x8
 1094 026c 2C01     		.2byte	0x12c
 1095 026e E8060000 		.4byte	0x6e8
 1096 0272 48       		.byte	0x48
 1097 0273 00       		.byte	0
 1098 0274 04       		.uleb128 0x4
 1099 0275 63040000 		.4byte	.LASF50
 1100 0279 07       		.byte	0x7
 1101 027a 39       		.byte	0x39
 1102 027b 7F020000 		.4byte	0x27f
 1103 027f 0C       		.uleb128 0xc
 1104 0280 04       		.byte	0x4
 1105 0281 7E010000 		.4byte	0x17e
 1106 0285 04       		.uleb128 0x4
 1107 0286 87070000 		.4byte	.LASF51
 1108 028a 07       		.byte	0x7
 1109 028b 3E       		.byte	0x3e
 1110 028c 90020000 		.4byte	0x290
 1111 0290 07       		.uleb128 0x7
 1112 0291 2C060000 		.4byte	.LASF53
 1113 0295 04       		.byte	0x4
 1114 0296 08       		.byte	0x8
 1115 0297 7C       		.byte	0x7c
 1116 0298 A9020000 		.4byte	0x2a9
 1117 029c 08       		.uleb128 0x8
 1118 029d 2A010000 		.4byte	.LASF54
 1119 02a1 08       		.byte	0x8
 1120 02a2 7D       		.byte	0x7d
 1121 02a3 7F020000 		.4byte	0x27f
 1122 02a7 00       		.byte	0
 1123 02a8 00       		.byte	0
 1124 02a9 04       		.uleb128 0x4
 1125 02aa 32070000 		.4byte	.LASF55
 1126 02ae 07       		.byte	0x7
 1127 02af 45       		.byte	0x45
 1128 02b0 B4020000 		.4byte	0x2b4
 1129 02b4 07       		.uleb128 0x7
 1130 02b5 7B000000 		.4byte	.LASF56
 1131 02b9 08       		.byte	0x8
 1132 02ba 08       		.byte	0x8
 1133 02bb 83       		.byte	0x83
 1134 02bc D9020000 		.4byte	0x2d9
 1135 02c0 08       		.uleb128 0x8
 1136 02c1 2A010000 		.4byte	.LASF54
 1137 02c5 08       		.byte	0x8
 1138 02c6 84       		.byte	0x84
 1139 02c7 7F020000 		.4byte	0x27f
 1140 02cb 00       		.byte	0
ARM GAS  /tmp/ccnew0QN.s 			page 21


 1141 02cc 08       		.uleb128 0x8
 1142 02cd 6A000000 		.4byte	.LASF57
 1143 02d1 08       		.byte	0x8
 1144 02d2 85       		.byte	0x85
 1145 02d3 7F020000 		.4byte	0x27f
 1146 02d7 04       		.byte	0x4
 1147 02d8 00       		.byte	0
 1148 02d9 04       		.uleb128 0x4
 1149 02da 00000000 		.4byte	.LASF58
 1150 02de 07       		.byte	0x7
 1151 02df 4C       		.byte	0x4c
 1152 02e0 E4020000 		.4byte	0x2e4
 1153 02e4 0D       		.uleb128 0xd
 1154 02e5 FF030000 		.4byte	.LASF59
 1155 02e9 1C       		.byte	0x1c
 1156 02ea 08       		.byte	0x8
 1157 02eb 5E01     		.2byte	0x15e
 1158 02ed 40030000 		.4byte	0x340
 1159 02f1 0B       		.uleb128 0xb
 1160 02f2 7F030000 		.4byte	.LASF34
 1161 02f6 08       		.byte	0x8
 1162 02f7 5F01     		.2byte	0x15f
 1163 02f9 A9020000 		.4byte	0x2a9
 1164 02fd 00       		.byte	0
 1165 02fe 0B       		.uleb128 0xb
 1166 02ff DD040000 		.4byte	.LASF35
 1167 0303 08       		.byte	0x8
 1168 0304 6001     		.2byte	0x160
 1169 0306 47010000 		.4byte	0x147
 1170 030a 08       		.byte	0x8
 1171 030b 0A       		.uleb128 0xa
 1172 030c 63747800 		.ascii	"ctx\000"
 1173 0310 08       		.byte	0x8
 1174 0311 6201     		.2byte	0x162
 1175 0313 1B050000 		.4byte	0x51b
 1176 0317 0C       		.byte	0xc
 1177 0318 0B       		.uleb128 0xb
 1178 0319 43040000 		.4byte	.LASF36
 1179 031d 08       		.byte	0x8
 1180 031e 6501     		.2byte	0x165
 1181 0320 7F020000 		.4byte	0x27f
 1182 0324 10       		.byte	0x10
 1183 0325 0B       		.uleb128 0xb
 1184 0326 60060000 		.4byte	.LASF37
 1185 032a 08       		.byte	0x8
 1186 032b 6601     		.2byte	0x166
 1187 032d 7F020000 		.4byte	0x27f
 1188 0331 14       		.byte	0x14
 1189 0332 0B       		.uleb128 0xb
 1190 0333 EB040000 		.4byte	.LASF60
 1191 0337 08       		.byte	0x8
 1192 0338 6901     		.2byte	0x169
 1193 033a 7F020000 		.4byte	0x27f
 1194 033e 18       		.byte	0x18
 1195 033f 00       		.byte	0
 1196 0340 04       		.uleb128 0x4
 1197 0341 AB060000 		.4byte	.LASF61
ARM GAS  /tmp/ccnew0QN.s 			page 22


 1198 0345 07       		.byte	0x7
 1199 0346 51       		.byte	0x51
 1200 0347 4B030000 		.4byte	0x34b
 1201 034b 0C       		.uleb128 0xc
 1202 034c 04       		.byte	0x4
 1203 034d 51030000 		.4byte	0x351
 1204 0351 0E       		.uleb128 0xe
 1205 0352 5C030000 		.4byte	0x35c
 1206 0356 0F       		.uleb128 0xf
 1207 0357 5C030000 		.4byte	0x35c
 1208 035b 00       		.byte	0
 1209 035c 10       		.uleb128 0x10
 1210 035d 04       		.byte	0x4
 1211 035e 04       		.uleb128 0x4
 1212 035f 35050000 		.4byte	.LASF62
 1213 0363 07       		.byte	0x7
 1214 0364 56       		.byte	0x56
 1215 0365 69030000 		.4byte	0x369
 1216 0369 0D       		.uleb128 0xd
 1217 036a DA050000 		.4byte	.LASF63
 1218 036e 14       		.byte	0x14
 1219 036f 08       		.byte	0x8
 1220 0370 3901     		.2byte	0x139
 1221 0372 B8030000 		.4byte	0x3b8
 1222 0376 0B       		.uleb128 0xb
 1223 0377 2A010000 		.4byte	.LASF54
 1224 037b 08       		.byte	0x8
 1225 037c 3A01     		.2byte	0x13a
 1226 037e 1E080000 		.4byte	0x81e
 1227 0382 00       		.byte	0
 1228 0383 0B       		.uleb128 0xb
 1229 0384 6A000000 		.4byte	.LASF57
 1230 0388 08       		.byte	0x8
 1231 0389 3B01     		.2byte	0x13b
 1232 038b 1E080000 		.4byte	0x81e
 1233 038f 04       		.byte	0x4
 1234 0390 0B       		.uleb128 0xb
 1235 0391 14000000 		.4byte	.LASF64
 1236 0395 08       		.byte	0x8
 1237 0396 3C01     		.2byte	0x13c
 1238 0398 9C040000 		.4byte	0x49c
 1239 039c 08       		.byte	0x8
 1240 039d 0B       		.uleb128 0xb
 1241 039e A1020000 		.4byte	.LASF65
 1242 03a2 08       		.byte	0x8
 1243 03a3 3D01     		.2byte	0x13d
 1244 03a5 40030000 		.4byte	0x340
 1245 03a9 0C       		.byte	0xc
 1246 03aa 0A       		.uleb128 0xa
 1247 03ab 70617200 		.ascii	"par\000"
 1248 03af 08       		.byte	0x8
 1249 03b0 3F01     		.2byte	0x13f
 1250 03b2 5C030000 		.4byte	0x35c
 1251 03b6 10       		.byte	0x10
 1252 03b7 00       		.byte	0
 1253 03b8 04       		.uleb128 0x4
 1254 03b9 F9000000 		.4byte	.LASF66
ARM GAS  /tmp/ccnew0QN.s 			page 23


 1255 03bd 07       		.byte	0x7
 1256 03be 5B       		.byte	0x5b
 1257 03bf C3030000 		.4byte	0x3c3
 1258 03c3 0D       		.uleb128 0xd
 1259 03c4 76040000 		.4byte	.LASF67
 1260 03c8 10       		.byte	0x10
 1261 03c9 08       		.byte	0x8
 1262 03ca 4901     		.2byte	0x149
 1263 03cc 05040000 		.4byte	0x405
 1264 03d0 0B       		.uleb128 0xb
 1265 03d1 2A010000 		.4byte	.LASF54
 1266 03d5 08       		.byte	0x8
 1267 03d6 4A01     		.2byte	0x14a
 1268 03d8 1E080000 		.4byte	0x81e
 1269 03dc 00       		.byte	0
 1270 03dd 0B       		.uleb128 0xb
 1271 03de 6A000000 		.4byte	.LASF57
 1272 03e2 08       		.byte	0x8
 1273 03e3 4C01     		.2byte	0x14c
 1274 03e5 1E080000 		.4byte	0x81e
 1275 03e9 04       		.byte	0x4
 1276 03ea 0B       		.uleb128 0xb
 1277 03eb 14000000 		.4byte	.LASF64
 1278 03ef 08       		.byte	0x8
 1279 03f0 4E01     		.2byte	0x14e
 1280 03f2 9C040000 		.4byte	0x49c
 1281 03f6 08       		.byte	0x8
 1282 03f7 0B       		.uleb128 0xb
 1283 03f8 AA050000 		.4byte	.LASF68
 1284 03fc 08       		.byte	0x8
 1285 03fd 5601     		.2byte	0x156
 1286 03ff 91040000 		.4byte	0x491
 1287 0403 0C       		.byte	0xc
 1288 0404 00       		.byte	0
 1289 0405 04       		.uleb128 0x4
 1290 0406 8C000000 		.4byte	.LASF69
 1291 040a 07       		.byte	0x7
 1292 040b 60       		.byte	0x60
 1293 040c 10040000 		.4byte	0x410
 1294 0410 0D       		.uleb128 0xd
 1295 0411 DF020000 		.4byte	.LASF70
 1296 0415 04       		.byte	0x4
 1297 0416 08       		.byte	0x8
 1298 0417 7001     		.2byte	0x170
 1299 0419 2B040000 		.4byte	0x42b
 1300 041d 0B       		.uleb128 0xb
 1301 041e B4060000 		.4byte	.LASF71
 1302 0422 08       		.byte	0x8
 1303 0423 7801     		.2byte	0x178
 1304 0425 07080000 		.4byte	0x807
 1305 0429 00       		.byte	0
 1306 042a 00       		.byte	0
 1307 042b 04       		.uleb128 0x4
 1308 042c D8030000 		.4byte	.LASF72
 1309 0430 07       		.byte	0x7
 1310 0431 65       		.byte	0x65
 1311 0432 36040000 		.4byte	0x436
ARM GAS  /tmp/ccnew0QN.s 			page 24


 1312 0436 0D       		.uleb128 0xd
 1313 0437 BA050000 		.4byte	.LASF73
 1314 043b D0       		.byte	0xd0
 1315 043c 08       		.byte	0x8
 1316 043d 9001     		.2byte	0x190
 1317 043f 91040000 		.4byte	0x491
 1318 0443 0B       		.uleb128 0xb
 1319 0444 F7020000 		.4byte	.LASF74
 1320 0448 08       		.byte	0x8
 1321 0449 9401     		.2byte	0x194
 1322 044b D9020000 		.4byte	0x2d9
 1323 044f 00       		.byte	0
 1324 0450 0B       		.uleb128 0xb
 1325 0451 79020000 		.4byte	.LASF75
 1326 0455 08       		.byte	0x8
 1327 0456 9801     		.2byte	0x198
 1328 0458 B8030000 		.4byte	0x3b8
 1329 045c 1C       		.byte	0x1c
 1330 045d 0A       		.uleb128 0xa
 1331 045e 64626700 		.ascii	"dbg\000"
 1332 0462 08       		.byte	0x8
 1333 0463 9C01     		.2byte	0x19c
 1334 0465 05040000 		.4byte	0x405
 1335 0469 2C       		.byte	0x2c
 1336 046a 0B       		.uleb128 0xb
 1337 046b E6000000 		.4byte	.LASF76
 1338 046f 08       		.byte	0x8
 1339 0470 A001     		.2byte	0x1a0
 1340 0472 7E010000 		.4byte	0x17e
 1341 0476 30       		.byte	0x30
 1342 0477 0A       		.uleb128 0xa
 1343 0478 746D00   		.ascii	"tm\000"
 1344 047b 08       		.byte	0x8
 1345 047c A501     		.2byte	0x1a5
 1346 047e 9A060000 		.4byte	0x69a
 1347 0482 90       		.byte	0x90
 1348 0483 0B       		.uleb128 0xb
 1349 0484 53000000 		.4byte	.LASF77
 1350 0488 08       		.byte	0x8
 1351 0489 AB01     		.2byte	0x1ab
 1352 048b 2C070000 		.4byte	0x72c
 1353 048f 98       		.byte	0x98
 1354 0490 00       		.byte	0
 1355 0491 04       		.uleb128 0x4
 1356 0492 A1060000 		.4byte	.LASF78
 1357 0496 09       		.byte	0x9
 1358 0497 6D       		.byte	0x6d
 1359 0498 FA000000 		.4byte	0xfa
 1360 049c 04       		.uleb128 0x4
 1361 049d 10030000 		.4byte	.LASF79
 1362 04a1 09       		.byte	0x9
 1363 04a2 79       		.byte	0x79
 1364 04a3 FA000000 		.4byte	0xfa
 1365 04a7 03       		.uleb128 0x3
 1366 04a8 04       		.byte	0x4
 1367 04a9 07       		.byte	0x7
 1368 04aa 5A040000 		.4byte	.LASF80
ARM GAS  /tmp/ccnew0QN.s 			page 25


 1369 04ae 11       		.uleb128 0x11
 1370 04af 0F010000 		.4byte	.LASF81
 1371 04b3 0A       		.byte	0xa
 1372 04b4 0408     		.2byte	0x804
 1373 04b6 F5000000 		.4byte	0xf5
 1374 04ba 12       		.uleb128 0x12
 1375 04bb 3A030000 		.4byte	.LASF82
 1376 04bf 0B       		.byte	0xb
 1377 04c0 4C       		.byte	0x4c
 1378 04c1 FA000000 		.4byte	0xfa
 1379 04c5 13       		.uleb128 0x13
 1380 04c6 DA000000 		.4byte	0xda
 1381 04ca D5040000 		.4byte	0x4d5
 1382 04ce 14       		.uleb128 0x14
 1383 04cf A7040000 		.4byte	0x4a7
 1384 04d3 0F       		.byte	0xf
 1385 04d4 00       		.byte	0
 1386 04d5 05       		.uleb128 0x5
 1387 04d6 C5040000 		.4byte	0x4c5
 1388 04da 12       		.uleb128 0x12
 1389 04db 19040000 		.4byte	.LASF83
 1390 04df 0B       		.byte	0xb
 1391 04e0 4E       		.byte	0x4e
 1392 04e1 D5040000 		.4byte	0x4d5
 1393 04e5 13       		.uleb128 0x13
 1394 04e6 DA000000 		.4byte	0xda
 1395 04ea F5040000 		.4byte	0x4f5
 1396 04ee 14       		.uleb128 0x14
 1397 04ef A7040000 		.4byte	0x4a7
 1398 04f3 07       		.byte	0x7
 1399 04f4 00       		.byte	0
 1400 04f5 05       		.uleb128 0x5
 1401 04f6 E5040000 		.4byte	0x4e5
 1402 04fa 12       		.uleb128 0x12
 1403 04fb 66060000 		.4byte	.LASF84
 1404 04ff 0B       		.byte	0xb
 1405 0500 4F       		.byte	0x4f
 1406 0501 F5040000 		.4byte	0x4f5
 1407 0505 04       		.uleb128 0x4
 1408 0506 CD020000 		.4byte	.LASF85
 1409 050a 0C       		.byte	0xc
 1410 050b 65       		.byte	0x65
 1411 050c 5C030000 		.4byte	0x35c
 1412 0510 04       		.uleb128 0x4
 1413 0511 38040000 		.4byte	.LASF86
 1414 0515 0C       		.byte	0xc
 1415 0516 6D       		.byte	0x6d
 1416 0517 05010000 		.4byte	0x105
 1417 051b 07       		.uleb128 0x7
 1418 051c BF040000 		.4byte	.LASF87
 1419 0520 04       		.byte	0x4
 1420 0521 0C       		.byte	0xc
 1421 0522 89       		.byte	0x89
 1422 0523 33050000 		.4byte	0x533
 1423 0527 09       		.uleb128 0x9
 1424 0528 737000   		.ascii	"sp\000"
 1425 052b 0C       		.byte	0xc
ARM GAS  /tmp/ccnew0QN.s 			page 26


 1426 052c 8A       		.byte	0x8a
 1427 052d 7F060000 		.4byte	0x67f
 1428 0531 00       		.byte	0
 1429 0532 00       		.byte	0
 1430 0533 0D       		.uleb128 0xd
 1431 0534 6F000000 		.4byte	.LASF88
 1432 0538 64       		.byte	0x64
 1433 0539 0D       		.byte	0xd
 1434 053a 5901     		.2byte	0x159
 1435 053c 7F060000 		.4byte	0x67f
 1436 0540 0A       		.uleb128 0xa
 1437 0541 73313600 		.ascii	"s16\000"
 1438 0545 0D       		.byte	0xd
 1439 0546 5B01     		.2byte	0x15b
 1440 0548 05050000 		.4byte	0x505
 1441 054c 00       		.byte	0
 1442 054d 0A       		.uleb128 0xa
 1443 054e 73313700 		.ascii	"s17\000"
 1444 0552 0D       		.byte	0xd
 1445 0553 5C01     		.2byte	0x15c
 1446 0555 05050000 		.4byte	0x505
 1447 0559 04       		.byte	0x4
 1448 055a 0A       		.uleb128 0xa
 1449 055b 73313800 		.ascii	"s18\000"
 1450 055f 0D       		.byte	0xd
 1451 0560 5D01     		.2byte	0x15d
 1452 0562 05050000 		.4byte	0x505
 1453 0566 08       		.byte	0x8
 1454 0567 0A       		.uleb128 0xa
 1455 0568 73313900 		.ascii	"s19\000"
 1456 056c 0D       		.byte	0xd
 1457 056d 5E01     		.2byte	0x15e
 1458 056f 05050000 		.4byte	0x505
 1459 0573 0C       		.byte	0xc
 1460 0574 0A       		.uleb128 0xa
 1461 0575 73323000 		.ascii	"s20\000"
 1462 0579 0D       		.byte	0xd
 1463 057a 5F01     		.2byte	0x15f
 1464 057c 05050000 		.4byte	0x505
 1465 0580 10       		.byte	0x10
 1466 0581 0A       		.uleb128 0xa
 1467 0582 73323100 		.ascii	"s21\000"
 1468 0586 0D       		.byte	0xd
 1469 0587 6001     		.2byte	0x160
 1470 0589 05050000 		.4byte	0x505
 1471 058d 14       		.byte	0x14
 1472 058e 0A       		.uleb128 0xa
 1473 058f 73323200 		.ascii	"s22\000"
 1474 0593 0D       		.byte	0xd
 1475 0594 6101     		.2byte	0x161
 1476 0596 05050000 		.4byte	0x505
 1477 059a 18       		.byte	0x18
 1478 059b 0A       		.uleb128 0xa
 1479 059c 73323300 		.ascii	"s23\000"
 1480 05a0 0D       		.byte	0xd
 1481 05a1 6201     		.2byte	0x162
 1482 05a3 05050000 		.4byte	0x505
ARM GAS  /tmp/ccnew0QN.s 			page 27


 1483 05a7 1C       		.byte	0x1c
 1484 05a8 0A       		.uleb128 0xa
 1485 05a9 73323400 		.ascii	"s24\000"
 1486 05ad 0D       		.byte	0xd
 1487 05ae 6301     		.2byte	0x163
 1488 05b0 05050000 		.4byte	0x505
 1489 05b4 20       		.byte	0x20
 1490 05b5 0A       		.uleb128 0xa
 1491 05b6 73323500 		.ascii	"s25\000"
 1492 05ba 0D       		.byte	0xd
 1493 05bb 6401     		.2byte	0x164
 1494 05bd 05050000 		.4byte	0x505
 1495 05c1 24       		.byte	0x24
 1496 05c2 0A       		.uleb128 0xa
 1497 05c3 73323600 		.ascii	"s26\000"
 1498 05c7 0D       		.byte	0xd
 1499 05c8 6501     		.2byte	0x165
 1500 05ca 05050000 		.4byte	0x505
 1501 05ce 28       		.byte	0x28
 1502 05cf 0A       		.uleb128 0xa
 1503 05d0 73323700 		.ascii	"s27\000"
 1504 05d4 0D       		.byte	0xd
 1505 05d5 6601     		.2byte	0x166
 1506 05d7 05050000 		.4byte	0x505
 1507 05db 2C       		.byte	0x2c
 1508 05dc 0A       		.uleb128 0xa
 1509 05dd 73323800 		.ascii	"s28\000"
 1510 05e1 0D       		.byte	0xd
 1511 05e2 6701     		.2byte	0x167
 1512 05e4 05050000 		.4byte	0x505
 1513 05e8 30       		.byte	0x30
 1514 05e9 0A       		.uleb128 0xa
 1515 05ea 73323900 		.ascii	"s29\000"
 1516 05ee 0D       		.byte	0xd
 1517 05ef 6801     		.2byte	0x168
 1518 05f1 05050000 		.4byte	0x505
 1519 05f5 34       		.byte	0x34
 1520 05f6 0A       		.uleb128 0xa
 1521 05f7 73333000 		.ascii	"s30\000"
 1522 05fb 0D       		.byte	0xd
 1523 05fc 6901     		.2byte	0x169
 1524 05fe 05050000 		.4byte	0x505
 1525 0602 38       		.byte	0x38
 1526 0603 0A       		.uleb128 0xa
 1527 0604 73333100 		.ascii	"s31\000"
 1528 0608 0D       		.byte	0xd
 1529 0609 6A01     		.2byte	0x16a
 1530 060b 05050000 		.4byte	0x505
 1531 060f 3C       		.byte	0x3c
 1532 0610 0A       		.uleb128 0xa
 1533 0611 723400   		.ascii	"r4\000"
 1534 0614 0D       		.byte	0xd
 1535 0615 6C01     		.2byte	0x16c
 1536 0617 05050000 		.4byte	0x505
 1537 061b 40       		.byte	0x40
 1538 061c 0A       		.uleb128 0xa
 1539 061d 723500   		.ascii	"r5\000"
ARM GAS  /tmp/ccnew0QN.s 			page 28


 1540 0620 0D       		.byte	0xd
 1541 0621 6D01     		.2byte	0x16d
 1542 0623 05050000 		.4byte	0x505
 1543 0627 44       		.byte	0x44
 1544 0628 0A       		.uleb128 0xa
 1545 0629 723600   		.ascii	"r6\000"
 1546 062c 0D       		.byte	0xd
 1547 062d 6E01     		.2byte	0x16e
 1548 062f 05050000 		.4byte	0x505
 1549 0633 48       		.byte	0x48
 1550 0634 0A       		.uleb128 0xa
 1551 0635 723700   		.ascii	"r7\000"
 1552 0638 0D       		.byte	0xd
 1553 0639 6F01     		.2byte	0x16f
 1554 063b 05050000 		.4byte	0x505
 1555 063f 4C       		.byte	0x4c
 1556 0640 0A       		.uleb128 0xa
 1557 0641 723800   		.ascii	"r8\000"
 1558 0644 0D       		.byte	0xd
 1559 0645 7001     		.2byte	0x170
 1560 0647 05050000 		.4byte	0x505
 1561 064b 50       		.byte	0x50
 1562 064c 0A       		.uleb128 0xa
 1563 064d 723900   		.ascii	"r9\000"
 1564 0650 0D       		.byte	0xd
 1565 0651 7101     		.2byte	0x171
 1566 0653 05050000 		.4byte	0x505
 1567 0657 54       		.byte	0x54
 1568 0658 0A       		.uleb128 0xa
 1569 0659 72313000 		.ascii	"r10\000"
 1570 065d 0D       		.byte	0xd
 1571 065e 7201     		.2byte	0x172
 1572 0660 05050000 		.4byte	0x505
 1573 0664 58       		.byte	0x58
 1574 0665 0A       		.uleb128 0xa
 1575 0666 72313100 		.ascii	"r11\000"
 1576 066a 0D       		.byte	0xd
 1577 066b 7301     		.2byte	0x173
 1578 066d 05050000 		.4byte	0x505
 1579 0671 5C       		.byte	0x5c
 1580 0672 0A       		.uleb128 0xa
 1581 0673 6C7200   		.ascii	"lr\000"
 1582 0676 0D       		.byte	0xd
 1583 0677 7401     		.2byte	0x174
 1584 0679 05050000 		.4byte	0x505
 1585 067d 60       		.byte	0x60
 1586 067e 00       		.byte	0
 1587 067f 0C       		.uleb128 0xc
 1588 0680 04       		.byte	0x4
 1589 0681 33050000 		.4byte	0x533
 1590 0685 15       		.uleb128 0x15
 1591 0686 04       		.byte	0x4
 1592 0687 0E       		.byte	0xe
 1593 0688 38       		.byte	0x38
 1594 0689 9A060000 		.4byte	0x69a
 1595 068d 08       		.uleb128 0x8
 1596 068e BE060000 		.4byte	.LASF89
ARM GAS  /tmp/ccnew0QN.s 			page 29


 1597 0692 0E       		.byte	0xe
 1598 0693 3C       		.byte	0x3c
 1599 0694 10010000 		.4byte	0x110
 1600 0698 00       		.byte	0
 1601 0699 00       		.byte	0
 1602 069a 04       		.uleb128 0x4
 1603 069b CC040000 		.4byte	.LASF90
 1604 069f 0E       		.byte	0xe
 1605 06a0 3D       		.byte	0x3d
 1606 06a1 85060000 		.4byte	0x685
 1607 06a5 15       		.uleb128 0x15
 1608 06a6 18       		.byte	0x18
 1609 06a7 0E       		.byte	0xe
 1610 06a8 48       		.byte	0x48
 1611 06a9 E8060000 		.4byte	0x6e8
 1612 06ad 08       		.uleb128 0x8
 1613 06ae 91060000 		.4byte	.LASF91
 1614 06b2 0E       		.byte	0xe
 1615 06b3 49       		.byte	0x49
 1616 06b4 10010000 		.4byte	0x110
 1617 06b8 00       		.byte	0
 1618 06b9 08       		.uleb128 0x8
 1619 06ba AD000000 		.4byte	.LASF92
 1620 06be 0E       		.byte	0xe
 1621 06bf 4A       		.byte	0x4a
 1622 06c0 10010000 		.4byte	0x110
 1623 06c4 04       		.byte	0x4
 1624 06c5 08       		.uleb128 0x8
 1625 06c6 B8030000 		.4byte	.LASF93
 1626 06ca 0E       		.byte	0xe
 1627 06cb 4B       		.byte	0x4b
 1628 06cc 10010000 		.4byte	0x110
 1629 06d0 08       		.byte	0x8
 1630 06d1 09       		.uleb128 0x9
 1631 06d2 6E00     		.ascii	"n\000"
 1632 06d4 0E       		.byte	0xe
 1633 06d5 4C       		.byte	0x4c
 1634 06d6 73010000 		.4byte	0x173
 1635 06da 0C       		.byte	0xc
 1636 06db 08       		.uleb128 0x8
 1637 06dc 08050000 		.4byte	.LASF94
 1638 06e0 0E       		.byte	0xe
 1639 06e1 4D       		.byte	0x4d
 1640 06e2 1B010000 		.4byte	0x11b
 1641 06e6 10       		.byte	0x10
 1642 06e7 00       		.byte	0
 1643 06e8 04       		.uleb128 0x4
 1644 06e9 B3000000 		.4byte	.LASF95
 1645 06ed 0E       		.byte	0xe
 1646 06ee 4E       		.byte	0x4e
 1647 06ef A5060000 		.4byte	0x6a5
 1648 06f3 15       		.uleb128 0x15
 1649 06f4 38       		.byte	0x38
 1650 06f5 0F       		.byte	0xf
 1651 06f6 38       		.byte	0x38
 1652 06f7 2C070000 		.4byte	0x72c
 1653 06fb 08       		.uleb128 0x8
ARM GAS  /tmp/ccnew0QN.s 			page 30


 1654 06fc 79030000 		.4byte	.LASF96
 1655 0700 0F       		.byte	0xf
 1656 0701 39       		.byte	0x39
 1657 0702 73010000 		.4byte	0x173
 1658 0706 00       		.byte	0
 1659 0707 08       		.uleb128 0x8
 1660 0708 65050000 		.4byte	.LASF97
 1661 070c 0F       		.byte	0xf
 1662 070d 3A       		.byte	0x3a
 1663 070e 73010000 		.4byte	0x173
 1664 0712 04       		.byte	0x4
 1665 0713 08       		.uleb128 0x8
 1666 0714 C4070000 		.4byte	.LASF98
 1667 0718 0F       		.byte	0xf
 1668 0719 3B       		.byte	0x3b
 1669 071a E8060000 		.4byte	0x6e8
 1670 071e 08       		.byte	0x8
 1671 071f 08       		.uleb128 0x8
 1672 0720 F4030000 		.4byte	.LASF99
 1673 0724 0F       		.byte	0xf
 1674 0725 3D       		.byte	0x3d
 1675 0726 E8060000 		.4byte	0x6e8
 1676 072a 20       		.byte	0x20
 1677 072b 00       		.byte	0
 1678 072c 04       		.uleb128 0x4
 1679 072d 94030000 		.4byte	.LASF100
 1680 0731 0F       		.byte	0xf
 1681 0732 3F       		.byte	0x3f
 1682 0733 F3060000 		.4byte	0x6f3
 1683 0737 16       		.uleb128 0x16
 1684 0738 04       		.byte	0x4
 1685 0739 08       		.byte	0x8
 1686 073a C6       		.byte	0xc6
 1687 073b 99070000 		.4byte	0x799
 1688 073f 17       		.uleb128 0x17
 1689 0740 D3050000 		.4byte	.LASF101
 1690 0744 08       		.byte	0x8
 1691 0745 CD       		.byte	0xcd
 1692 0746 52010000 		.4byte	0x152
 1693 074a 17       		.uleb128 0x17
 1694 074b DD000000 		.4byte	.LASF102
 1695 074f 08       		.byte	0x8
 1696 0750 D4       		.byte	0xd4
 1697 0751 52010000 		.4byte	0x152
 1698 0755 17       		.uleb128 0x17
 1699 0756 7A070000 		.4byte	.LASF103
 1700 075a 08       		.byte	0x8
 1701 075b DB       		.byte	0xdb
 1702 075c 5C030000 		.4byte	0x35c
 1703 0760 17       		.uleb128 0x17
 1704 0761 51030000 		.4byte	.LASF104
 1705 0765 08       		.byte	0x8
 1706 0766 E2       		.byte	0xe2
 1707 0767 99070000 		.4byte	0x799
 1708 076b 17       		.uleb128 0x17
 1709 076c F1000000 		.4byte	.LASF105
 1710 0770 08       		.byte	0x8
ARM GAS  /tmp/ccnew0QN.s 			page 31


 1711 0771 E7       		.byte	0xe7
 1712 0772 52010000 		.4byte	0x152
 1713 0776 17       		.uleb128 0x17
 1714 0777 4A030000 		.4byte	.LASF106
 1715 077b 08       		.byte	0x8
 1716 077c F0       		.byte	0xf0
 1717 077d C4070000 		.4byte	0x7c4
 1718 0781 17       		.uleb128 0x17
 1719 0782 25060000 		.4byte	.LASF107
 1720 0786 08       		.byte	0x8
 1721 0787 F9       		.byte	0xf9
 1722 0788 FB070000 		.4byte	0x7fb
 1723 078c 18       		.uleb128 0x18
 1724 078d B3050000 		.4byte	.LASF108
 1725 0791 08       		.byte	0x8
 1726 0792 0101     		.2byte	0x101
 1727 0794 5D010000 		.4byte	0x15d
 1728 0798 00       		.byte	0
 1729 0799 0C       		.uleb128 0xc
 1730 079a 04       		.byte	0x4
 1731 079b 74020000 		.4byte	0x274
 1732 079f 07       		.uleb128 0x7
 1733 07a0 EB050000 		.4byte	.LASF109
 1734 07a4 0C       		.byte	0xc
 1735 07a5 10       		.byte	0x10
 1736 07a6 34       		.byte	0x34
 1737 07a7 C4070000 		.4byte	0x7c4
 1738 07ab 08       		.uleb128 0x8
 1739 07ac 7F030000 		.4byte	.LASF34
 1740 07b0 10       		.byte	0x10
 1741 07b1 35       		.byte	0x35
 1742 07b2 A9020000 		.4byte	0x2a9
 1743 07b6 00       		.byte	0
 1744 07b7 09       		.uleb128 0x9
 1745 07b8 636E7400 		.ascii	"cnt\000"
 1746 07bc 10       		.byte	0x10
 1747 07bd 37       		.byte	0x37
 1748 07be 68010000 		.4byte	0x168
 1749 07c2 08       		.byte	0x8
 1750 07c3 00       		.byte	0
 1751 07c4 0C       		.uleb128 0xc
 1752 07c5 04       		.byte	0x4
 1753 07c6 9F070000 		.4byte	0x79f
 1754 07ca 07       		.uleb128 0x7
 1755 07cb C5060000 		.4byte	.LASF110
 1756 07cf 10       		.byte	0x10
 1757 07d0 11       		.byte	0x11
 1758 07d1 39       		.byte	0x39
 1759 07d2 FB070000 		.4byte	0x7fb
 1760 07d6 08       		.uleb128 0x8
 1761 07d7 7F030000 		.4byte	.LASF34
 1762 07db 11       		.byte	0x11
 1763 07dc 3A       		.byte	0x3a
 1764 07dd A9020000 		.4byte	0x2a9
 1765 07e1 00       		.byte	0
 1766 07e2 08       		.uleb128 0x8
 1767 07e3 3C060000 		.4byte	.LASF111
ARM GAS  /tmp/ccnew0QN.s 			page 32


 1768 07e7 11       		.byte	0x11
 1769 07e8 3C       		.byte	0x3c
 1770 07e9 7F020000 		.4byte	0x27f
 1771 07ed 08       		.byte	0x8
 1772 07ee 08       		.uleb128 0x8
 1773 07ef 2A010000 		.4byte	.LASF54
 1774 07f3 11       		.byte	0x11
 1775 07f4 3E       		.byte	0x3e
 1776 07f5 5D090000 		.4byte	0x95d
 1777 07f9 0C       		.byte	0xc
 1778 07fa 00       		.byte	0
 1779 07fb 0C       		.uleb128 0xc
 1780 07fc 04       		.byte	0x4
 1781 07fd CA070000 		.4byte	0x7ca
 1782 0801 0C       		.uleb128 0xc
 1783 0802 04       		.byte	0x4
 1784 0803 13080000 		.4byte	0x813
 1785 0807 06       		.uleb128 0x6
 1786 0808 01080000 		.4byte	0x801
 1787 080c 03       		.uleb128 0x3
 1788 080d 01       		.byte	0x1
 1789 080e 08       		.byte	0x8
 1790 080f 5B060000 		.4byte	.LASF112
 1791 0813 05       		.uleb128 0x5
 1792 0814 0C080000 		.4byte	0x80c
 1793 0818 0C       		.uleb128 0xc
 1794 0819 04       		.byte	0x4
 1795 081a 10050000 		.4byte	0x510
 1796 081e 0C       		.uleb128 0xc
 1797 081f 04       		.byte	0x4
 1798 0820 5E030000 		.4byte	0x35e
 1799 0824 19       		.uleb128 0x19
 1800 0825 636800   		.ascii	"ch\000"
 1801 0828 08       		.byte	0x8
 1802 0829 C701     		.2byte	0x1c7
 1803 082b 2B040000 		.4byte	0x42b
 1804 082f 13       		.uleb128 0x13
 1805 0830 10050000 		.4byte	0x510
 1806 0834 3A080000 		.4byte	0x83a
 1807 0838 1A       		.uleb128 0x1a
 1808 0839 00       		.byte	0
 1809 083a 11       		.uleb128 0x11
 1810 083b 01060000 		.4byte	.LASF113
 1811 083f 12       		.byte	0x12
 1812 0840 1701     		.2byte	0x117
 1813 0842 2F080000 		.4byte	0x82f
 1814 0846 15       		.uleb128 0x15
 1815 0847 16       		.byte	0x16
 1816 0848 13       		.byte	0x13
 1817 0849 34       		.byte	0x34
 1818 084a 27090000 		.4byte	0x927
 1819 084e 08       		.uleb128 0x8
 1820 084f EB060000 		.4byte	.LASF114
 1821 0853 13       		.byte	0x13
 1822 0854 35       		.byte	0x35
 1823 0855 27090000 		.4byte	0x927
 1824 0859 00       		.byte	0
ARM GAS  /tmp/ccnew0QN.s 			page 33


 1825 085a 08       		.uleb128 0x8
 1826 085b FD020000 		.4byte	.LASF115
 1827 085f 13       		.byte	0x13
 1828 0860 36       		.byte	0x36
 1829 0861 CF000000 		.4byte	0xcf
 1830 0865 04       		.byte	0x4
 1831 0866 08       		.uleb128 0x8
 1832 0867 5E010000 		.4byte	.LASF116
 1833 086b 13       		.byte	0x13
 1834 086c 37       		.byte	0x37
 1835 086d CF000000 		.4byte	0xcf
 1836 0871 05       		.byte	0x5
 1837 0872 08       		.uleb128 0x8
 1838 0873 52040000 		.4byte	.LASF117
 1839 0877 13       		.byte	0x13
 1840 0878 38       		.byte	0x38
 1841 0879 DF000000 		.4byte	0xdf
 1842 087d 06       		.byte	0x6
 1843 087e 08       		.uleb128 0x8
 1844 087f 17070000 		.4byte	.LASF118
 1845 0883 13       		.byte	0x13
 1846 0884 39       		.byte	0x39
 1847 0885 CF000000 		.4byte	0xcf
 1848 0889 08       		.byte	0x8
 1849 088a 08       		.uleb128 0x8
 1850 088b 13060000 		.4byte	.LASF119
 1851 088f 13       		.byte	0x13
 1852 0890 3A       		.byte	0x3a
 1853 0891 CF000000 		.4byte	0xcf
 1854 0895 09       		.byte	0x9
 1855 0896 08       		.uleb128 0x8
 1856 0897 25050000 		.4byte	.LASF120
 1857 089b 13       		.byte	0x13
 1858 089c 3B       		.byte	0x3b
 1859 089d CF000000 		.4byte	0xcf
 1860 08a1 0A       		.byte	0xa
 1861 08a2 08       		.uleb128 0x8
 1862 08a3 8A050000 		.4byte	.LASF121
 1863 08a7 13       		.byte	0x13
 1864 08a8 3C       		.byte	0x3c
 1865 08a9 CF000000 		.4byte	0xcf
 1866 08ad 0B       		.byte	0xb
 1867 08ae 08       		.uleb128 0x8
 1868 08af E4030000 		.4byte	.LASF122
 1869 08b3 13       		.byte	0x13
 1870 08b4 3D       		.byte	0x3d
 1871 08b5 CF000000 		.4byte	0xcf
 1872 08b9 0C       		.byte	0xc
 1873 08ba 08       		.uleb128 0x8
 1874 08bb B0040000 		.4byte	.LASF123
 1875 08bf 13       		.byte	0x13
 1876 08c0 3E       		.byte	0x3e
 1877 08c1 CF000000 		.4byte	0xcf
 1878 08c5 0D       		.byte	0xd
 1879 08c6 08       		.uleb128 0x8
 1880 08c7 CE060000 		.4byte	.LASF124
 1881 08cb 13       		.byte	0x13
ARM GAS  /tmp/ccnew0QN.s 			page 34


 1882 08cc 3F       		.byte	0x3f
 1883 08cd CF000000 		.4byte	0xcf
 1884 08d1 0E       		.byte	0xe
 1885 08d2 08       		.uleb128 0x8
 1886 08d3 4E070000 		.4byte	.LASF125
 1887 08d7 13       		.byte	0x13
 1888 08d8 40       		.byte	0x40
 1889 08d9 CF000000 		.4byte	0xcf
 1890 08dd 0F       		.byte	0xf
 1891 08de 08       		.uleb128 0x8
 1892 08df 93050000 		.4byte	.LASF126
 1893 08e3 13       		.byte	0x13
 1894 08e4 41       		.byte	0x41
 1895 08e5 CF000000 		.4byte	0xcf
 1896 08e9 10       		.byte	0x10
 1897 08ea 08       		.uleb128 0x8
 1898 08eb 96070000 		.4byte	.LASF127
 1899 08ef 13       		.byte	0x13
 1900 08f0 42       		.byte	0x42
 1901 08f1 CF000000 		.4byte	0xcf
 1902 08f5 11       		.byte	0x11
 1903 08f6 08       		.uleb128 0x8
 1904 08f7 B2070000 		.4byte	.LASF128
 1905 08fb 13       		.byte	0x13
 1906 08fc 43       		.byte	0x43
 1907 08fd CF000000 		.4byte	0xcf
 1908 0901 12       		.byte	0x12
 1909 0902 08       		.uleb128 0x8
 1910 0903 8B030000 		.4byte	.LASF129
 1911 0907 13       		.byte	0x13
 1912 0908 44       		.byte	0x44
 1913 0909 CF000000 		.4byte	0xcf
 1914 090d 13       		.byte	0x13
 1915 090e 08       		.uleb128 0x8
 1916 090f B6020000 		.4byte	.LASF130
 1917 0913 13       		.byte	0x13
 1918 0914 45       		.byte	0x45
 1919 0915 CF000000 		.4byte	0xcf
 1920 0919 14       		.byte	0x14
 1921 091a 08       		.uleb128 0x8
 1922 091b F8050000 		.4byte	.LASF131
 1923 091f 13       		.byte	0x13
 1924 0920 46       		.byte	0x46
 1925 0921 CF000000 		.4byte	0xcf
 1926 0925 15       		.byte	0x15
 1927 0926 00       		.byte	0
 1928 0927 13       		.uleb128 0x13
 1929 0928 0C080000 		.4byte	0x80c
 1930 092c 37090000 		.4byte	0x937
 1931 0930 14       		.uleb128 0x14
 1932 0931 A7040000 		.4byte	0x4a7
 1933 0935 03       		.byte	0x3
 1934 0936 00       		.byte	0
 1935 0937 04       		.uleb128 0x4
 1936 0938 AC020000 		.4byte	.LASF132
 1937 093c 13       		.byte	0x13
 1938 093d 47       		.byte	0x47
ARM GAS  /tmp/ccnew0QN.s 			page 35


 1939 093e 46080000 		.4byte	0x846
 1940 0942 05       		.uleb128 0x5
 1941 0943 37090000 		.4byte	0x937
 1942 0947 12       		.uleb128 0x12
 1943 0948 57030000 		.4byte	.LASF133
 1944 094c 13       		.byte	0x13
 1945 094d 6C       		.byte	0x6c
 1946 094e 42090000 		.4byte	0x942
 1947 0952 04       		.uleb128 0x4
 1948 0953 02030000 		.4byte	.LASF134
 1949 0957 11       		.byte	0x11
 1950 0958 34       		.byte	0x34
 1951 0959 CA070000 		.4byte	0x7ca
 1952 095d 0C       		.uleb128 0xc
 1953 095e 04       		.byte	0x4
 1954 095f 52090000 		.4byte	0x952
 1955 0963 03       		.uleb128 0x3
 1956 0964 01       		.byte	0x1
 1957 0965 02       		.byte	0x2
 1958 0966 6E050000 		.4byte	.LASF135
 1959 096a 04       		.uleb128 0x4
 1960 096b FE060000 		.4byte	.LASF136
 1961 096f 14       		.byte	0x14
 1962 0970 47       		.byte	0x47
 1963 0971 75090000 		.4byte	0x975
 1964 0975 0C       		.uleb128 0xc
 1965 0976 04       		.byte	0x4
 1966 0977 7B090000 		.4byte	0x97b
 1967 097b 1B       		.uleb128 0x1b
 1968 097c 5C030000 		.4byte	0x35c
 1969 0980 8F090000 		.4byte	0x98f
 1970 0984 0F       		.uleb128 0xf
 1971 0985 78000000 		.4byte	0x78
 1972 0989 0F       		.uleb128 0xf
 1973 098a 2C000000 		.4byte	0x2c
 1974 098e 00       		.byte	0
 1975 098f 15       		.uleb128 0x15
 1976 0990 08       		.byte	0x8
 1977 0991 14       		.byte	0x14
 1978 0992 51       		.byte	0x51
 1979 0993 B0090000 		.4byte	0x9b0
 1980 0997 08       		.uleb128 0x8
 1981 0998 09080000 		.4byte	.LASF137
 1982 099c 14       		.byte	0x14
 1983 099d 55       		.byte	0x55
 1984 099e B0090000 		.4byte	0x9b0
 1985 09a2 00       		.byte	0
 1986 09a3 08       		.uleb128 0x8
 1987 09a4 27040000 		.4byte	.LASF138
 1988 09a8 14       		.byte	0x14
 1989 09a9 59       		.byte	0x59
 1990 09aa B0090000 		.4byte	0x9b0
 1991 09ae 04       		.byte	0x4
 1992 09af 00       		.byte	0
 1993 09b0 0C       		.uleb128 0xc
 1994 09b1 04       		.byte	0x4
 1995 09b2 CF000000 		.4byte	0xcf
ARM GAS  /tmp/ccnew0QN.s 			page 36


 1996 09b6 04       		.uleb128 0x4
 1997 09b7 FE040000 		.4byte	.LASF139
 1998 09bb 14       		.byte	0x14
 1999 09bc 5A       		.byte	0x5a
 2000 09bd 8F090000 		.4byte	0x98f
 2001 09c1 12       		.uleb128 0x12
 2002 09c2 96060000 		.4byte	.LASF140
 2003 09c6 14       		.byte	0x14
 2004 09c7 65       		.byte	0x65
 2005 09c8 B6090000 		.4byte	0x9b6
 2006 09cc 07       		.uleb128 0x7
 2007 09cd 42070000 		.4byte	.LASF141
 2008 09d1 04       		.byte	0x4
 2009 09d2 15       		.byte	0x15
 2010 09d3 38       		.byte	0x38
 2011 09d4 E5090000 		.4byte	0x9e5
 2012 09d8 08       		.uleb128 0x8
 2013 09d9 2A010000 		.4byte	.LASF54
 2014 09dd 15       		.byte	0x15
 2015 09de 39       		.byte	0x39
 2016 09df E5090000 		.4byte	0x9e5
 2017 09e3 00       		.byte	0
 2018 09e4 00       		.byte	0
 2019 09e5 0C       		.uleb128 0xc
 2020 09e6 04       		.byte	0x4
 2021 09e7 CC090000 		.4byte	0x9cc
 2022 09eb 15       		.uleb128 0x15
 2023 09ec 10       		.byte	0x10
 2024 09ed 15       		.byte	0x15
 2025 09ee 40       		.byte	0x40
 2026 09ef 240A0000 		.4byte	0xa24
 2027 09f3 08       		.uleb128 0x8
 2028 09f4 2A010000 		.4byte	.LASF54
 2029 09f8 15       		.byte	0x15
 2030 09f9 41       		.byte	0x41
 2031 09fa E5090000 		.4byte	0x9e5
 2032 09fe 00       		.byte	0
 2033 09ff 08       		.uleb128 0x8
 2034 0a00 0B070000 		.4byte	.LASF142
 2035 0a04 15       		.byte	0x15
 2036 0a05 42       		.byte	0x42
 2037 0a06 78000000 		.4byte	0x78
 2038 0a0a 04       		.byte	0x4
 2039 0a0b 08       		.uleb128 0x8
 2040 0a0c 0A030000 		.4byte	.LASF143
 2041 0a10 15       		.byte	0x15
 2042 0a11 44       		.byte	0x44
 2043 0a12 2C000000 		.4byte	0x2c
 2044 0a16 08       		.byte	0x8
 2045 0a17 08       		.uleb128 0x8
 2046 0a18 9B000000 		.4byte	.LASF144
 2047 0a1c 15       		.byte	0x15
 2048 0a1d 45       		.byte	0x45
 2049 0a1e 6A090000 		.4byte	0x96a
 2050 0a22 0C       		.byte	0xc
 2051 0a23 00       		.byte	0
 2052 0a24 04       		.uleb128 0x4
ARM GAS  /tmp/ccnew0QN.s 			page 37


 2053 0a25 6B030000 		.4byte	.LASF145
 2054 0a29 15       		.byte	0x15
 2055 0a2a 47       		.byte	0x47
 2056 0a2b EB090000 		.4byte	0x9eb
 2057 0a2f 07       		.uleb128 0x7
 2058 0a30 45050000 		.4byte	.LASF146
 2059 0a34 10       		.byte	0x10
 2060 0a35 16       		.byte	0x16
 2061 0a36 A9       		.byte	0xa9
 2062 0a37 600A0000 		.4byte	0xa60
 2063 0a3b 08       		.uleb128 0x8
 2064 0a3c 2A010000 		.4byte	.LASF54
 2065 0a40 16       		.byte	0x16
 2066 0a41 AD       		.byte	0xad
 2067 0a42 600A0000 		.4byte	0xa60
 2068 0a46 00       		.byte	0
 2069 0a47 08       		.uleb128 0x8
 2070 0a48 30050000 		.4byte	.LASF42
 2071 0a4c 16       		.byte	0x16
 2072 0a4d B1       		.byte	0xb1
 2073 0a4e 73010000 		.4byte	0x173
 2074 0a52 04       		.byte	0x4
 2075 0a53 08       		.uleb128 0x8
 2076 0a54 A3030000 		.4byte	.LASF38
 2077 0a58 16       		.byte	0x16
 2078 0a59 B3       		.byte	0xb3
 2079 0a5a 660A0000 		.4byte	0xa66
 2080 0a5e 08       		.byte	0x8
 2081 0a5f 00       		.byte	0
 2082 0a60 0C       		.uleb128 0xc
 2083 0a61 04       		.byte	0x4
 2084 0a62 2F0A0000 		.4byte	0xa2f
 2085 0a66 13       		.uleb128 0x13
 2086 0a67 0C080000 		.4byte	0x80c
 2087 0a6b 760A0000 		.4byte	0xa76
 2088 0a6f 14       		.uleb128 0x14
 2089 0a70 A7040000 		.4byte	0x4a7
 2090 0a74 07       		.byte	0x7
 2091 0a75 00       		.byte	0
 2092 0a76 04       		.uleb128 0x4
 2093 0a77 1C010000 		.4byte	.LASF147
 2094 0a7b 16       		.byte	0x16
 2095 0a7c B7       		.byte	0xb7
 2096 0a7d 2F0A0000 		.4byte	0xa2f
 2097 0a81 07       		.uleb128 0x7
 2098 0a82 99040000 		.4byte	.LASF148
 2099 0a86 04       		.byte	0x4
 2100 0a87 16       		.byte	0x16
 2101 0a88 BC       		.byte	0xbc
 2102 0a89 9A0A0000 		.4byte	0xa9a
 2103 0a8d 08       		.uleb128 0x8
 2104 0a8e 2A010000 		.4byte	.LASF54
 2105 0a92 16       		.byte	0x16
 2106 0a93 BD       		.byte	0xbd
 2107 0a94 9A0A0000 		.4byte	0xa9a
 2108 0a98 00       		.byte	0
 2109 0a99 00       		.byte	0
ARM GAS  /tmp/ccnew0QN.s 			page 38


 2110 0a9a 0C       		.uleb128 0xc
 2111 0a9b 04       		.byte	0x4
 2112 0a9c 760A0000 		.4byte	0xa76
 2113 0aa0 04       		.uleb128 0x4
 2114 0aa1 CD030000 		.4byte	.LASF149
 2115 0aa5 16       		.byte	0x16
 2116 0aa6 BE       		.byte	0xbe
 2117 0aa7 810A0000 		.4byte	0xa81
 2118 0aab 0D       		.uleb128 0xd
 2119 0aac 1F070000 		.4byte	.LASF150
 2120 0ab0 44       		.byte	0x44
 2121 0ab1 16       		.byte	0x16
 2122 0ab2 3E01     		.2byte	0x13e
 2123 0ab4 210B0000 		.4byte	0xb21
 2124 0ab8 0A       		.uleb128 0xa
 2125 0ab9 6D747800 		.ascii	"mtx\000"
 2126 0abd 16       		.byte	0x16
 2127 0abe 4301     		.2byte	0x143
 2128 0ac0 52090000 		.4byte	0x952
 2129 0ac4 00       		.byte	0
 2130 0ac5 0B       		.uleb128 0xb
 2131 0ac6 74060000 		.4byte	.LASF151
 2132 0aca 16       		.byte	0x16
 2133 0acb 4A01     		.2byte	0x14a
 2134 0acd A00A0000 		.4byte	0xaa0
 2135 0ad1 10       		.byte	0x10
 2136 0ad2 0B       		.uleb128 0xb
 2137 0ad3 C4050000 		.4byte	.LASF152
 2138 0ad7 16       		.byte	0x16
 2139 0ad8 4E01     		.2byte	0x14e
 2140 0ada 240A0000 		.4byte	0xa24
 2141 0ade 14       		.byte	0x14
 2142 0adf 0B       		.uleb128 0xb
 2143 0ae0 5C050000 		.4byte	.LASF153
 2144 0ae4 16       		.byte	0x16
 2145 0ae5 5301     		.2byte	0x153
 2146 0ae7 A00A0000 		.4byte	0xaa0
 2147 0aeb 24       		.byte	0x24
 2148 0aec 0B       		.uleb128 0xb
 2149 0aed A4000000 		.4byte	.LASF154
 2150 0af1 16       		.byte	0x16
 2151 0af2 5901     		.2byte	0x159
 2152 0af4 A00A0000 		.4byte	0xaa0
 2153 0af8 28       		.byte	0x28
 2154 0af9 0B       		.uleb128 0xb
 2155 0afa E2040000 		.4byte	.LASF155
 2156 0afe 16       		.byte	0x16
 2157 0aff 5D01     		.2byte	0x15d
 2158 0b01 240A0000 		.4byte	0xa24
 2159 0b05 2C       		.byte	0x2c
 2160 0b06 0B       		.uleb128 0xb
 2161 0b07 D6020000 		.4byte	.LASF156
 2162 0b0b 16       		.byte	0x16
 2163 0b0c 6301     		.2byte	0x163
 2164 0b0e A00A0000 		.4byte	0xaa0
 2165 0b12 3C       		.byte	0x3c
 2166 0b13 0B       		.uleb128 0xb
ARM GAS  /tmp/ccnew0QN.s 			page 39


 2167 0b14 70070000 		.4byte	.LASF157
 2168 0b18 16       		.byte	0x16
 2169 0b19 6901     		.2byte	0x169
 2170 0b1b A00A0000 		.4byte	0xaa0
 2171 0b1f 40       		.byte	0x40
 2172 0b20 00       		.byte	0
 2173 0b21 1C       		.uleb128 0x1c
 2174 0b22 A0070000 		.4byte	.LASF158
 2175 0b26 16       		.byte	0x16
 2176 0b27 7101     		.2byte	0x171
 2177 0b29 AB0A0000 		.4byte	0xaab
 2178 0b2d 11       		.uleb128 0x11
 2179 0b2e 60030000 		.4byte	.LASF159
 2180 0b32 16       		.byte	0x16
 2181 0b33 7C01     		.2byte	0x17c
 2182 0b35 210B0000 		.4byte	0xb21
 2183 0b39 13       		.uleb128 0x13
 2184 0b3a 5E000000 		.4byte	0x5e
 2185 0b3e 490B0000 		.4byte	0xb49
 2186 0b42 14       		.uleb128 0x14
 2187 0b43 A7040000 		.4byte	0x4a7
 2188 0b47 7F       		.byte	0x7f
 2189 0b48 00       		.byte	0
 2190 0b49 05       		.uleb128 0x5
 2191 0b4a 390B0000 		.4byte	0xb39
 2192 0b4e 1D       		.uleb128 0x1d
 2193 0b4f CD050000 		.4byte	.LASF160
 2194 0b53 01       		.byte	0x1
 2195 0b54 EB3A     		.2byte	0x3aeb
 2196 0b56 490B0000 		.4byte	0xb49
 2197 0b5a 05       		.uleb128 0x5
 2198 0b5b 03       		.byte	0x3
 2199 0b5c 00000000 		.4byte	uc850
 2200 0b60 1E       		.uleb128 0x1e
 2201 0b61 52010000 		.4byte	.LASF163
 2202 0b65 01       		.byte	0x1
 2203 0b66 773C     		.2byte	0x3c77
 2204 0b68 53000000 		.4byte	0x53
 2205 0b6c 00000000 		.4byte	.LFB292
 2206 0b70 84000000 		.4byte	.LFE292-.LFB292
 2207 0b74 01       		.uleb128 0x1
 2208 0b75 9C       		.byte	0x9c
 2209 0b76 EB0B0000 		.4byte	0xbeb
 2210 0b7a 1F       		.uleb128 0x1f
 2211 0b7b 756E6900 		.ascii	"uni\000"
 2212 0b7f 01       		.byte	0x1
 2213 0b80 783C     		.2byte	0x3c78
 2214 0b82 53000000 		.4byte	0x53
 2215 0b86 00000000 		.4byte	.LLST5
 2216 0b8a 1D       		.uleb128 0x1d
 2217 0b8b 13050000 		.4byte	.LASF161
 2218 0b8f 01       		.byte	0x1
 2219 0b90 7C3C     		.2byte	0x3c7c
 2220 0b92 FB0B0000 		.4byte	0xbfb
 2221 0b96 05       		.uleb128 0x5
 2222 0b97 03       		.byte	0x3
 2223 0b98 00000000 		.4byte	cvt1.8449
ARM GAS  /tmp/ccnew0QN.s 			page 40


 2224 0b9c 1D       		.uleb128 0x1d
 2225 0b9d 18050000 		.4byte	.LASF162
 2226 0ba1 01       		.byte	0x1
 2227 0ba2 943C     		.2byte	0x3c94
 2228 0ba4 100C0000 		.4byte	0xc10
 2229 0ba8 05       		.uleb128 0x5
 2230 0ba9 03       		.byte	0x3
 2231 0baa 00000000 		.4byte	cvt2.8450
 2232 0bae 20       		.uleb128 0x20
 2233 0baf 7000     		.ascii	"p\000"
 2234 0bb1 01       		.byte	0x1
 2235 0bb2 B03C     		.2byte	0x3cb0
 2236 0bb4 150C0000 		.4byte	0xc15
 2237 0bb8 F4000000 		.4byte	.LLST6
 2238 0bbc 20       		.uleb128 0x20
 2239 0bbd 626300   		.ascii	"bc\000"
 2240 0bc0 01       		.byte	0x1
 2241 0bc1 B13C     		.2byte	0x3cb1
 2242 0bc3 53000000 		.4byte	0x53
 2243 0bc7 2A010000 		.4byte	.LLST7
 2244 0bcb 20       		.uleb128 0x20
 2245 0bcc 6E6300   		.ascii	"nc\000"
 2246 0bcf 01       		.byte	0x1
 2247 0bd0 B13C     		.2byte	0x3cb1
 2248 0bd2 53000000 		.4byte	0x53
 2249 0bd6 6B010000 		.4byte	.LLST8
 2250 0bda 20       		.uleb128 0x20
 2251 0bdb 636D6400 		.ascii	"cmd\000"
 2252 0bdf 01       		.byte	0x1
 2253 0be0 B13C     		.2byte	0x3cb1
 2254 0be2 53000000 		.4byte	0x53
 2255 0be6 7E010000 		.4byte	.LLST9
 2256 0bea 00       		.byte	0
 2257 0beb 13       		.uleb128 0x13
 2258 0bec 5E000000 		.4byte	0x5e
 2259 0bf0 FB0B0000 		.4byte	0xbfb
 2260 0bf4 14       		.uleb128 0x14
 2261 0bf5 A7040000 		.4byte	0x4a7
 2262 0bf9 F8       		.byte	0xf8
 2263 0bfa 00       		.byte	0
 2264 0bfb 05       		.uleb128 0x5
 2265 0bfc EB0B0000 		.4byte	0xbeb
 2266 0c00 13       		.uleb128 0x13
 2267 0c01 5E000000 		.4byte	0x5e
 2268 0c05 100C0000 		.4byte	0xc10
 2269 0c09 14       		.uleb128 0x14
 2270 0c0a A7040000 		.4byte	0x4a7
 2271 0c0e 5D       		.byte	0x5d
 2272 0c0f 00       		.byte	0
 2273 0c10 05       		.uleb128 0x5
 2274 0c11 000C0000 		.4byte	0xc00
 2275 0c15 0C       		.uleb128 0xc
 2276 0c16 04       		.byte	0x4
 2277 0c17 5E000000 		.4byte	0x5e
 2278 0c1b 1E       		.uleb128 0x1e
 2279 0c1c 57070000 		.4byte	.LASF164
 2280 0c20 01       		.byte	0x1
ARM GAS  /tmp/ccnew0QN.s 			page 41


 2281 0c21 A43B     		.2byte	0x3ba4
 2282 0c23 53000000 		.4byte	0x53
 2283 0c27 00000000 		.4byte	.LFB291
 2284 0c2b 28000000 		.4byte	.LFE291-.LFB291
 2285 0c2f 01       		.uleb128 0x1
 2286 0c30 9C       		.byte	0x9c
 2287 0c31 720C0000 		.4byte	0xc72
 2288 0c35 1F       		.uleb128 0x1f
 2289 0c36 6F656D00 		.ascii	"oem\000"
 2290 0c3a 01       		.byte	0x1
 2291 0c3b A53B     		.2byte	0x3ba5
 2292 0c3d 53000000 		.4byte	0x53
 2293 0c41 91010000 		.4byte	.LLST3
 2294 0c45 21       		.uleb128 0x21
 2295 0c46 637000   		.ascii	"cp\000"
 2296 0c49 01       		.byte	0x1
 2297 0c4a A63B     		.2byte	0x3ba6
 2298 0c4c 41000000 		.4byte	0x41
 2299 0c50 01       		.uleb128 0x1
 2300 0c51 51       		.byte	0x51
 2301 0c52 20       		.uleb128 0x20
 2302 0c53 6300     		.ascii	"c\000"
 2303 0c55 01       		.byte	0x1
 2304 0c56 A93B     		.2byte	0x3ba9
 2305 0c58 53000000 		.4byte	0x53
 2306 0c5c CB010000 		.4byte	.LLST4
 2307 0c60 22       		.uleb128 0x22
 2308 0c61 7000     		.ascii	"p\000"
 2309 0c63 01       		.byte	0x1
 2310 0c64 AA3B     		.2byte	0x3baa
 2311 0c66 150C0000 		.4byte	0xc15
 2312 0c6a 06       		.uleb128 0x6
 2313 0c6b 03       		.byte	0x3
 2314 0c6c 00000000 		.4byte	uc850
 2315 0c70 9F       		.byte	0x9f
 2316 0c71 00       		.byte	0
 2317 0c72 23       		.uleb128 0x23
 2318 0c73 A5040000 		.4byte	.LASF168
 2319 0c77 01       		.byte	0x1
 2320 0c78 8F3B     		.2byte	0x3b8f
 2321 0c7a 53000000 		.4byte	0x53
 2322 0c7e 00000000 		.4byte	.LFB290
 2323 0c82 34000000 		.4byte	.LFE290-.LFB290
 2324 0c86 01       		.uleb128 0x1
 2325 0c87 9C       		.byte	0x9c
 2326 0c88 1F       		.uleb128 0x1f
 2327 0c89 756E6900 		.ascii	"uni\000"
 2328 0c8d 01       		.byte	0x1
 2329 0c8e 903B     		.2byte	0x3b90
 2330 0c90 53000000 		.4byte	0x53
 2331 0c94 01020000 		.4byte	.LLST0
 2332 0c98 1F       		.uleb128 0x1f
 2333 0c99 637000   		.ascii	"cp\000"
 2334 0c9c 01       		.byte	0x1
 2335 0c9d 913B     		.2byte	0x3b91
 2336 0c9f 41000000 		.4byte	0x41
 2337 0ca3 3B020000 		.4byte	.LLST1
ARM GAS  /tmp/ccnew0QN.s 			page 42


 2338 0ca7 20       		.uleb128 0x20
 2339 0ca8 6300     		.ascii	"c\000"
 2340 0caa 01       		.byte	0x1
 2341 0cab 943B     		.2byte	0x3b94
 2342 0cad 53000000 		.4byte	0x53
 2343 0cb1 5C020000 		.4byte	.LLST2
 2344 0cb5 22       		.uleb128 0x22
 2345 0cb6 7000     		.ascii	"p\000"
 2346 0cb8 01       		.byte	0x1
 2347 0cb9 953B     		.2byte	0x3b95
 2348 0cbb 150C0000 		.4byte	0xc15
 2349 0cbf 06       		.uleb128 0x6
 2350 0cc0 03       		.byte	0x3
 2351 0cc1 00000000 		.4byte	uc850
 2352 0cc5 9F       		.byte	0x9f
 2353 0cc6 00       		.byte	0
 2354 0cc7 00       		.byte	0
 2355              		.section	.debug_abbrev,"",%progbits
 2356              	.Ldebug_abbrev0:
 2357 0000 01       		.uleb128 0x1
 2358 0001 11       		.uleb128 0x11
 2359 0002 01       		.byte	0x1
 2360 0003 25       		.uleb128 0x25
 2361 0004 0E       		.uleb128 0xe
 2362 0005 13       		.uleb128 0x13
 2363 0006 0B       		.uleb128 0xb
 2364 0007 03       		.uleb128 0x3
 2365 0008 0E       		.uleb128 0xe
 2366 0009 1B       		.uleb128 0x1b
 2367 000a 0E       		.uleb128 0xe
 2368 000b 55       		.uleb128 0x55
 2369 000c 17       		.uleb128 0x17
 2370 000d 11       		.uleb128 0x11
 2371 000e 01       		.uleb128 0x1
 2372 000f 10       		.uleb128 0x10
 2373 0010 17       		.uleb128 0x17
 2374 0011 00       		.byte	0
 2375 0012 00       		.byte	0
 2376 0013 02       		.uleb128 0x2
 2377 0014 24       		.uleb128 0x24
 2378 0015 00       		.byte	0
 2379 0016 0B       		.uleb128 0xb
 2380 0017 0B       		.uleb128 0xb
 2381 0018 3E       		.uleb128 0x3e
 2382 0019 0B       		.uleb128 0xb
 2383 001a 03       		.uleb128 0x3
 2384 001b 08       		.uleb128 0x8
 2385 001c 00       		.byte	0
 2386 001d 00       		.byte	0
 2387 001e 03       		.uleb128 0x3
 2388 001f 24       		.uleb128 0x24
 2389 0020 00       		.byte	0
 2390 0021 0B       		.uleb128 0xb
 2391 0022 0B       		.uleb128 0xb
 2392 0023 3E       		.uleb128 0x3e
 2393 0024 0B       		.uleb128 0xb
 2394 0025 03       		.uleb128 0x3
ARM GAS  /tmp/ccnew0QN.s 			page 43


 2395 0026 0E       		.uleb128 0xe
 2396 0027 00       		.byte	0
 2397 0028 00       		.byte	0
 2398 0029 04       		.uleb128 0x4
 2399 002a 16       		.uleb128 0x16
 2400 002b 00       		.byte	0
 2401 002c 03       		.uleb128 0x3
 2402 002d 0E       		.uleb128 0xe
 2403 002e 3A       		.uleb128 0x3a
 2404 002f 0B       		.uleb128 0xb
 2405 0030 3B       		.uleb128 0x3b
 2406 0031 0B       		.uleb128 0xb
 2407 0032 49       		.uleb128 0x49
 2408 0033 13       		.uleb128 0x13
 2409 0034 00       		.byte	0
 2410 0035 00       		.byte	0
 2411 0036 05       		.uleb128 0x5
 2412 0037 26       		.uleb128 0x26
 2413 0038 00       		.byte	0
 2414 0039 49       		.uleb128 0x49
 2415 003a 13       		.uleb128 0x13
 2416 003b 00       		.byte	0
 2417 003c 00       		.byte	0
 2418 003d 06       		.uleb128 0x6
 2419 003e 35       		.uleb128 0x35
 2420 003f 00       		.byte	0
 2421 0040 49       		.uleb128 0x49
 2422 0041 13       		.uleb128 0x13
 2423 0042 00       		.byte	0
 2424 0043 00       		.byte	0
 2425 0044 07       		.uleb128 0x7
 2426 0045 13       		.uleb128 0x13
 2427 0046 01       		.byte	0x1
 2428 0047 03       		.uleb128 0x3
 2429 0048 0E       		.uleb128 0xe
 2430 0049 0B       		.uleb128 0xb
 2431 004a 0B       		.uleb128 0xb
 2432 004b 3A       		.uleb128 0x3a
 2433 004c 0B       		.uleb128 0xb
 2434 004d 3B       		.uleb128 0x3b
 2435 004e 0B       		.uleb128 0xb
 2436 004f 01       		.uleb128 0x1
 2437 0050 13       		.uleb128 0x13
 2438 0051 00       		.byte	0
 2439 0052 00       		.byte	0
 2440 0053 08       		.uleb128 0x8
 2441 0054 0D       		.uleb128 0xd
 2442 0055 00       		.byte	0
 2443 0056 03       		.uleb128 0x3
 2444 0057 0E       		.uleb128 0xe
 2445 0058 3A       		.uleb128 0x3a
 2446 0059 0B       		.uleb128 0xb
 2447 005a 3B       		.uleb128 0x3b
 2448 005b 0B       		.uleb128 0xb
 2449 005c 49       		.uleb128 0x49
 2450 005d 13       		.uleb128 0x13
 2451 005e 38       		.uleb128 0x38
ARM GAS  /tmp/ccnew0QN.s 			page 44


 2452 005f 0B       		.uleb128 0xb
 2453 0060 00       		.byte	0
 2454 0061 00       		.byte	0
 2455 0062 09       		.uleb128 0x9
 2456 0063 0D       		.uleb128 0xd
 2457 0064 00       		.byte	0
 2458 0065 03       		.uleb128 0x3
 2459 0066 08       		.uleb128 0x8
 2460 0067 3A       		.uleb128 0x3a
 2461 0068 0B       		.uleb128 0xb
 2462 0069 3B       		.uleb128 0x3b
 2463 006a 0B       		.uleb128 0xb
 2464 006b 49       		.uleb128 0x49
 2465 006c 13       		.uleb128 0x13
 2466 006d 38       		.uleb128 0x38
 2467 006e 0B       		.uleb128 0xb
 2468 006f 00       		.byte	0
 2469 0070 00       		.byte	0
 2470 0071 0A       		.uleb128 0xa
 2471 0072 0D       		.uleb128 0xd
 2472 0073 00       		.byte	0
 2473 0074 03       		.uleb128 0x3
 2474 0075 08       		.uleb128 0x8
 2475 0076 3A       		.uleb128 0x3a
 2476 0077 0B       		.uleb128 0xb
 2477 0078 3B       		.uleb128 0x3b
 2478 0079 05       		.uleb128 0x5
 2479 007a 49       		.uleb128 0x49
 2480 007b 13       		.uleb128 0x13
 2481 007c 38       		.uleb128 0x38
 2482 007d 0B       		.uleb128 0xb
 2483 007e 00       		.byte	0
 2484 007f 00       		.byte	0
 2485 0080 0B       		.uleb128 0xb
 2486 0081 0D       		.uleb128 0xd
 2487 0082 00       		.byte	0
 2488 0083 03       		.uleb128 0x3
 2489 0084 0E       		.uleb128 0xe
 2490 0085 3A       		.uleb128 0x3a
 2491 0086 0B       		.uleb128 0xb
 2492 0087 3B       		.uleb128 0x3b
 2493 0088 05       		.uleb128 0x5
 2494 0089 49       		.uleb128 0x49
 2495 008a 13       		.uleb128 0x13
 2496 008b 38       		.uleb128 0x38
 2497 008c 0B       		.uleb128 0xb
 2498 008d 00       		.byte	0
 2499 008e 00       		.byte	0
 2500 008f 0C       		.uleb128 0xc
 2501 0090 0F       		.uleb128 0xf
 2502 0091 00       		.byte	0
 2503 0092 0B       		.uleb128 0xb
 2504 0093 0B       		.uleb128 0xb
 2505 0094 49       		.uleb128 0x49
 2506 0095 13       		.uleb128 0x13
 2507 0096 00       		.byte	0
 2508 0097 00       		.byte	0
ARM GAS  /tmp/ccnew0QN.s 			page 45


 2509 0098 0D       		.uleb128 0xd
 2510 0099 13       		.uleb128 0x13
 2511 009a 01       		.byte	0x1
 2512 009b 03       		.uleb128 0x3
 2513 009c 0E       		.uleb128 0xe
 2514 009d 0B       		.uleb128 0xb
 2515 009e 0B       		.uleb128 0xb
 2516 009f 3A       		.uleb128 0x3a
 2517 00a0 0B       		.uleb128 0xb
 2518 00a1 3B       		.uleb128 0x3b
 2519 00a2 05       		.uleb128 0x5
 2520 00a3 01       		.uleb128 0x1
 2521 00a4 13       		.uleb128 0x13
 2522 00a5 00       		.byte	0
 2523 00a6 00       		.byte	0
 2524 00a7 0E       		.uleb128 0xe
 2525 00a8 15       		.uleb128 0x15
 2526 00a9 01       		.byte	0x1
 2527 00aa 27       		.uleb128 0x27
 2528 00ab 19       		.uleb128 0x19
 2529 00ac 01       		.uleb128 0x1
 2530 00ad 13       		.uleb128 0x13
 2531 00ae 00       		.byte	0
 2532 00af 00       		.byte	0
 2533 00b0 0F       		.uleb128 0xf
 2534 00b1 05       		.uleb128 0x5
 2535 00b2 00       		.byte	0
 2536 00b3 49       		.uleb128 0x49
 2537 00b4 13       		.uleb128 0x13
 2538 00b5 00       		.byte	0
 2539 00b6 00       		.byte	0
 2540 00b7 10       		.uleb128 0x10
 2541 00b8 0F       		.uleb128 0xf
 2542 00b9 00       		.byte	0
 2543 00ba 0B       		.uleb128 0xb
 2544 00bb 0B       		.uleb128 0xb
 2545 00bc 00       		.byte	0
 2546 00bd 00       		.byte	0
 2547 00be 11       		.uleb128 0x11
 2548 00bf 34       		.uleb128 0x34
 2549 00c0 00       		.byte	0
 2550 00c1 03       		.uleb128 0x3
 2551 00c2 0E       		.uleb128 0xe
 2552 00c3 3A       		.uleb128 0x3a
 2553 00c4 0B       		.uleb128 0xb
 2554 00c5 3B       		.uleb128 0x3b
 2555 00c6 05       		.uleb128 0x5
 2556 00c7 49       		.uleb128 0x49
 2557 00c8 13       		.uleb128 0x13
 2558 00c9 3F       		.uleb128 0x3f
 2559 00ca 19       		.uleb128 0x19
 2560 00cb 3C       		.uleb128 0x3c
 2561 00cc 19       		.uleb128 0x19
 2562 00cd 00       		.byte	0
 2563 00ce 00       		.byte	0
 2564 00cf 12       		.uleb128 0x12
 2565 00d0 34       		.uleb128 0x34
ARM GAS  /tmp/ccnew0QN.s 			page 46


 2566 00d1 00       		.byte	0
 2567 00d2 03       		.uleb128 0x3
 2568 00d3 0E       		.uleb128 0xe
 2569 00d4 3A       		.uleb128 0x3a
 2570 00d5 0B       		.uleb128 0xb
 2571 00d6 3B       		.uleb128 0x3b
 2572 00d7 0B       		.uleb128 0xb
 2573 00d8 49       		.uleb128 0x49
 2574 00d9 13       		.uleb128 0x13
 2575 00da 3F       		.uleb128 0x3f
 2576 00db 19       		.uleb128 0x19
 2577 00dc 3C       		.uleb128 0x3c
 2578 00dd 19       		.uleb128 0x19
 2579 00de 00       		.byte	0
 2580 00df 00       		.byte	0
 2581 00e0 13       		.uleb128 0x13
 2582 00e1 01       		.uleb128 0x1
 2583 00e2 01       		.byte	0x1
 2584 00e3 49       		.uleb128 0x49
 2585 00e4 13       		.uleb128 0x13
 2586 00e5 01       		.uleb128 0x1
 2587 00e6 13       		.uleb128 0x13
 2588 00e7 00       		.byte	0
 2589 00e8 00       		.byte	0
 2590 00e9 14       		.uleb128 0x14
 2591 00ea 21       		.uleb128 0x21
 2592 00eb 00       		.byte	0
 2593 00ec 49       		.uleb128 0x49
 2594 00ed 13       		.uleb128 0x13
 2595 00ee 2F       		.uleb128 0x2f
 2596 00ef 0B       		.uleb128 0xb
 2597 00f0 00       		.byte	0
 2598 00f1 00       		.byte	0
 2599 00f2 15       		.uleb128 0x15
 2600 00f3 13       		.uleb128 0x13
 2601 00f4 01       		.byte	0x1
 2602 00f5 0B       		.uleb128 0xb
 2603 00f6 0B       		.uleb128 0xb
 2604 00f7 3A       		.uleb128 0x3a
 2605 00f8 0B       		.uleb128 0xb
 2606 00f9 3B       		.uleb128 0x3b
 2607 00fa 0B       		.uleb128 0xb
 2608 00fb 01       		.uleb128 0x1
 2609 00fc 13       		.uleb128 0x13
 2610 00fd 00       		.byte	0
 2611 00fe 00       		.byte	0
 2612 00ff 16       		.uleb128 0x16
 2613 0100 17       		.uleb128 0x17
 2614 0101 01       		.byte	0x1
 2615 0102 0B       		.uleb128 0xb
 2616 0103 0B       		.uleb128 0xb
 2617 0104 3A       		.uleb128 0x3a
 2618 0105 0B       		.uleb128 0xb
 2619 0106 3B       		.uleb128 0x3b
 2620 0107 0B       		.uleb128 0xb
 2621 0108 01       		.uleb128 0x1
 2622 0109 13       		.uleb128 0x13
ARM GAS  /tmp/ccnew0QN.s 			page 47


 2623 010a 00       		.byte	0
 2624 010b 00       		.byte	0
 2625 010c 17       		.uleb128 0x17
 2626 010d 0D       		.uleb128 0xd
 2627 010e 00       		.byte	0
 2628 010f 03       		.uleb128 0x3
 2629 0110 0E       		.uleb128 0xe
 2630 0111 3A       		.uleb128 0x3a
 2631 0112 0B       		.uleb128 0xb
 2632 0113 3B       		.uleb128 0x3b
 2633 0114 0B       		.uleb128 0xb
 2634 0115 49       		.uleb128 0x49
 2635 0116 13       		.uleb128 0x13
 2636 0117 00       		.byte	0
 2637 0118 00       		.byte	0
 2638 0119 18       		.uleb128 0x18
 2639 011a 0D       		.uleb128 0xd
 2640 011b 00       		.byte	0
 2641 011c 03       		.uleb128 0x3
 2642 011d 0E       		.uleb128 0xe
 2643 011e 3A       		.uleb128 0x3a
 2644 011f 0B       		.uleb128 0xb
 2645 0120 3B       		.uleb128 0x3b
 2646 0121 05       		.uleb128 0x5
 2647 0122 49       		.uleb128 0x49
 2648 0123 13       		.uleb128 0x13
 2649 0124 00       		.byte	0
 2650 0125 00       		.byte	0
 2651 0126 19       		.uleb128 0x19
 2652 0127 34       		.uleb128 0x34
 2653 0128 00       		.byte	0
 2654 0129 03       		.uleb128 0x3
 2655 012a 08       		.uleb128 0x8
 2656 012b 3A       		.uleb128 0x3a
 2657 012c 0B       		.uleb128 0xb
 2658 012d 3B       		.uleb128 0x3b
 2659 012e 05       		.uleb128 0x5
 2660 012f 49       		.uleb128 0x49
 2661 0130 13       		.uleb128 0x13
 2662 0131 3F       		.uleb128 0x3f
 2663 0132 19       		.uleb128 0x19
 2664 0133 3C       		.uleb128 0x3c
 2665 0134 19       		.uleb128 0x19
 2666 0135 00       		.byte	0
 2667 0136 00       		.byte	0
 2668 0137 1A       		.uleb128 0x1a
 2669 0138 21       		.uleb128 0x21
 2670 0139 00       		.byte	0
 2671 013a 00       		.byte	0
 2672 013b 00       		.byte	0
 2673 013c 1B       		.uleb128 0x1b
 2674 013d 15       		.uleb128 0x15
 2675 013e 01       		.byte	0x1
 2676 013f 27       		.uleb128 0x27
 2677 0140 19       		.uleb128 0x19
 2678 0141 49       		.uleb128 0x49
 2679 0142 13       		.uleb128 0x13
ARM GAS  /tmp/ccnew0QN.s 			page 48


 2680 0143 01       		.uleb128 0x1
 2681 0144 13       		.uleb128 0x13
 2682 0145 00       		.byte	0
 2683 0146 00       		.byte	0
 2684 0147 1C       		.uleb128 0x1c
 2685 0148 16       		.uleb128 0x16
 2686 0149 00       		.byte	0
 2687 014a 03       		.uleb128 0x3
 2688 014b 0E       		.uleb128 0xe
 2689 014c 3A       		.uleb128 0x3a
 2690 014d 0B       		.uleb128 0xb
 2691 014e 3B       		.uleb128 0x3b
 2692 014f 05       		.uleb128 0x5
 2693 0150 49       		.uleb128 0x49
 2694 0151 13       		.uleb128 0x13
 2695 0152 00       		.byte	0
 2696 0153 00       		.byte	0
 2697 0154 1D       		.uleb128 0x1d
 2698 0155 34       		.uleb128 0x34
 2699 0156 00       		.byte	0
 2700 0157 03       		.uleb128 0x3
 2701 0158 0E       		.uleb128 0xe
 2702 0159 3A       		.uleb128 0x3a
 2703 015a 0B       		.uleb128 0xb
 2704 015b 3B       		.uleb128 0x3b
 2705 015c 05       		.uleb128 0x5
 2706 015d 49       		.uleb128 0x49
 2707 015e 13       		.uleb128 0x13
 2708 015f 02       		.uleb128 0x2
 2709 0160 18       		.uleb128 0x18
 2710 0161 00       		.byte	0
 2711 0162 00       		.byte	0
 2712 0163 1E       		.uleb128 0x1e
 2713 0164 2E       		.uleb128 0x2e
 2714 0165 01       		.byte	0x1
 2715 0166 3F       		.uleb128 0x3f
 2716 0167 19       		.uleb128 0x19
 2717 0168 03       		.uleb128 0x3
 2718 0169 0E       		.uleb128 0xe
 2719 016a 3A       		.uleb128 0x3a
 2720 016b 0B       		.uleb128 0xb
 2721 016c 3B       		.uleb128 0x3b
 2722 016d 05       		.uleb128 0x5
 2723 016e 27       		.uleb128 0x27
 2724 016f 19       		.uleb128 0x19
 2725 0170 49       		.uleb128 0x49
 2726 0171 13       		.uleb128 0x13
 2727 0172 11       		.uleb128 0x11
 2728 0173 01       		.uleb128 0x1
 2729 0174 12       		.uleb128 0x12
 2730 0175 06       		.uleb128 0x6
 2731 0176 40       		.uleb128 0x40
 2732 0177 18       		.uleb128 0x18
 2733 0178 9742     		.uleb128 0x2117
 2734 017a 19       		.uleb128 0x19
 2735 017b 01       		.uleb128 0x1
 2736 017c 13       		.uleb128 0x13
ARM GAS  /tmp/ccnew0QN.s 			page 49


 2737 017d 00       		.byte	0
 2738 017e 00       		.byte	0
 2739 017f 1F       		.uleb128 0x1f
 2740 0180 05       		.uleb128 0x5
 2741 0181 00       		.byte	0
 2742 0182 03       		.uleb128 0x3
 2743 0183 08       		.uleb128 0x8
 2744 0184 3A       		.uleb128 0x3a
 2745 0185 0B       		.uleb128 0xb
 2746 0186 3B       		.uleb128 0x3b
 2747 0187 05       		.uleb128 0x5
 2748 0188 49       		.uleb128 0x49
 2749 0189 13       		.uleb128 0x13
 2750 018a 02       		.uleb128 0x2
 2751 018b 17       		.uleb128 0x17
 2752 018c 00       		.byte	0
 2753 018d 00       		.byte	0
 2754 018e 20       		.uleb128 0x20
 2755 018f 34       		.uleb128 0x34
 2756 0190 00       		.byte	0
 2757 0191 03       		.uleb128 0x3
 2758 0192 08       		.uleb128 0x8
 2759 0193 3A       		.uleb128 0x3a
 2760 0194 0B       		.uleb128 0xb
 2761 0195 3B       		.uleb128 0x3b
 2762 0196 05       		.uleb128 0x5
 2763 0197 49       		.uleb128 0x49
 2764 0198 13       		.uleb128 0x13
 2765 0199 02       		.uleb128 0x2
 2766 019a 17       		.uleb128 0x17
 2767 019b 00       		.byte	0
 2768 019c 00       		.byte	0
 2769 019d 21       		.uleb128 0x21
 2770 019e 05       		.uleb128 0x5
 2771 019f 00       		.byte	0
 2772 01a0 03       		.uleb128 0x3
 2773 01a1 08       		.uleb128 0x8
 2774 01a2 3A       		.uleb128 0x3a
 2775 01a3 0B       		.uleb128 0xb
 2776 01a4 3B       		.uleb128 0x3b
 2777 01a5 05       		.uleb128 0x5
 2778 01a6 49       		.uleb128 0x49
 2779 01a7 13       		.uleb128 0x13
 2780 01a8 02       		.uleb128 0x2
 2781 01a9 18       		.uleb128 0x18
 2782 01aa 00       		.byte	0
 2783 01ab 00       		.byte	0
 2784 01ac 22       		.uleb128 0x22
 2785 01ad 34       		.uleb128 0x34
 2786 01ae 00       		.byte	0
 2787 01af 03       		.uleb128 0x3
 2788 01b0 08       		.uleb128 0x8
 2789 01b1 3A       		.uleb128 0x3a
 2790 01b2 0B       		.uleb128 0xb
 2791 01b3 3B       		.uleb128 0x3b
 2792 01b4 05       		.uleb128 0x5
 2793 01b5 49       		.uleb128 0x49
ARM GAS  /tmp/ccnew0QN.s 			page 50


 2794 01b6 13       		.uleb128 0x13
 2795 01b7 02       		.uleb128 0x2
 2796 01b8 18       		.uleb128 0x18
 2797 01b9 00       		.byte	0
 2798 01ba 00       		.byte	0
 2799 01bb 23       		.uleb128 0x23
 2800 01bc 2E       		.uleb128 0x2e
 2801 01bd 01       		.byte	0x1
 2802 01be 3F       		.uleb128 0x3f
 2803 01bf 19       		.uleb128 0x19
 2804 01c0 03       		.uleb128 0x3
 2805 01c1 0E       		.uleb128 0xe
 2806 01c2 3A       		.uleb128 0x3a
 2807 01c3 0B       		.uleb128 0xb
 2808 01c4 3B       		.uleb128 0x3b
 2809 01c5 05       		.uleb128 0x5
 2810 01c6 27       		.uleb128 0x27
 2811 01c7 19       		.uleb128 0x19
 2812 01c8 49       		.uleb128 0x49
 2813 01c9 13       		.uleb128 0x13
 2814 01ca 11       		.uleb128 0x11
 2815 01cb 01       		.uleb128 0x1
 2816 01cc 12       		.uleb128 0x12
 2817 01cd 06       		.uleb128 0x6
 2818 01ce 40       		.uleb128 0x40
 2819 01cf 18       		.uleb128 0x18
 2820 01d0 9742     		.uleb128 0x2117
 2821 01d2 19       		.uleb128 0x19
 2822 01d3 00       		.byte	0
 2823 01d4 00       		.byte	0
 2824 01d5 00       		.byte	0
 2825              		.section	.debug_loc,"",%progbits
 2826              	.Ldebug_loc0:
 2827              	.LLST5:
 2828 0000 00000000 		.4byte	.LVL15
 2829 0004 3E000000 		.4byte	.LVL22
 2830 0008 0100     		.2byte	0x1
 2831 000a 50       		.byte	0x50
 2832 000b 3E000000 		.4byte	.LVL22
 2833 000f 42000000 		.4byte	.LVL23
 2834 0013 0400     		.2byte	0x4
 2835 0015 F3       		.byte	0xf3
 2836 0016 01       		.uleb128 0x1
 2837 0017 50       		.byte	0x50
 2838 0018 9F       		.byte	0x9f
 2839 0019 42000000 		.4byte	.LVL23
 2840 001d 4C000000 		.4byte	.LVL26
 2841 0021 0100     		.2byte	0x1
 2842 0023 50       		.byte	0x50
 2843 0024 4C000000 		.4byte	.LVL26
 2844 0028 4E000000 		.4byte	.LVL27
 2845 002c 0400     		.2byte	0x4
 2846 002e F3       		.byte	0xf3
 2847 002f 01       		.uleb128 0x1
 2848 0030 50       		.byte	0x50
 2849 0031 9F       		.byte	0x9f
 2850 0032 4E000000 		.4byte	.LVL27
ARM GAS  /tmp/ccnew0QN.s 			page 51


 2851 0036 52000000 		.4byte	.LVL29
 2852 003a 0100     		.2byte	0x1
 2853 003c 50       		.byte	0x50
 2854 003d 52000000 		.4byte	.LVL29
 2855 0041 54000000 		.4byte	.LVL30
 2856 0045 0400     		.2byte	0x4
 2857 0047 F3       		.byte	0xf3
 2858 0048 01       		.uleb128 0x1
 2859 0049 50       		.byte	0x50
 2860 004a 9F       		.byte	0x9f
 2861 004b 54000000 		.4byte	.LVL30
 2862 004f 56000000 		.4byte	.LVL31
 2863 0053 0100     		.2byte	0x1
 2864 0055 50       		.byte	0x50
 2865 0056 56000000 		.4byte	.LVL31
 2866 005a 58000000 		.4byte	.LVL32
 2867 005e 0400     		.2byte	0x4
 2868 0060 F3       		.byte	0xf3
 2869 0061 01       		.uleb128 0x1
 2870 0062 50       		.byte	0x50
 2871 0063 9F       		.byte	0x9f
 2872 0064 58000000 		.4byte	.LVL32
 2873 0068 5A000000 		.4byte	.LVL33
 2874 006c 0100     		.2byte	0x1
 2875 006e 50       		.byte	0x50
 2876 006f 5A000000 		.4byte	.LVL33
 2877 0073 5C000000 		.4byte	.LVL34
 2878 0077 0400     		.2byte	0x4
 2879 0079 F3       		.byte	0xf3
 2880 007a 01       		.uleb128 0x1
 2881 007b 50       		.byte	0x50
 2882 007c 9F       		.byte	0x9f
 2883 007d 5C000000 		.4byte	.LVL34
 2884 0081 5E000000 		.4byte	.LVL35
 2885 0085 0100     		.2byte	0x1
 2886 0087 50       		.byte	0x50
 2887 0088 5E000000 		.4byte	.LVL35
 2888 008c 60000000 		.4byte	.LVL36
 2889 0090 0400     		.2byte	0x4
 2890 0092 F3       		.byte	0xf3
 2891 0093 01       		.uleb128 0x1
 2892 0094 50       		.byte	0x50
 2893 0095 9F       		.byte	0x9f
 2894 0096 60000000 		.4byte	.LVL36
 2895 009a 62000000 		.4byte	.LVL37
 2896 009e 0100     		.2byte	0x1
 2897 00a0 50       		.byte	0x50
 2898 00a1 62000000 		.4byte	.LVL37
 2899 00a5 64000000 		.4byte	.LVL38
 2900 00a9 0400     		.2byte	0x4
 2901 00ab F3       		.byte	0xf3
 2902 00ac 01       		.uleb128 0x1
 2903 00ad 50       		.byte	0x50
 2904 00ae 9F       		.byte	0x9f
 2905 00af 64000000 		.4byte	.LVL38
 2906 00b3 66000000 		.4byte	.LVL39
 2907 00b7 0100     		.2byte	0x1
ARM GAS  /tmp/ccnew0QN.s 			page 52


 2908 00b9 50       		.byte	0x50
 2909 00ba 66000000 		.4byte	.LVL39
 2910 00be 68000000 		.4byte	.LVL40
 2911 00c2 0400     		.2byte	0x4
 2912 00c4 F3       		.byte	0xf3
 2913 00c5 01       		.uleb128 0x1
 2914 00c6 50       		.byte	0x50
 2915 00c7 9F       		.byte	0x9f
 2916 00c8 68000000 		.4byte	.LVL40
 2917 00cc 6C000000 		.4byte	.LVL41
 2918 00d0 0100     		.2byte	0x1
 2919 00d2 50       		.byte	0x50
 2920 00d3 6C000000 		.4byte	.LVL41
 2921 00d7 6E000000 		.4byte	.LVL42
 2922 00db 0400     		.2byte	0x4
 2923 00dd F3       		.byte	0xf3
 2924 00de 01       		.uleb128 0x1
 2925 00df 50       		.byte	0x50
 2926 00e0 9F       		.byte	0x9f
 2927 00e1 6E000000 		.4byte	.LVL42
 2928 00e5 84000000 		.4byte	.LFE292
 2929 00e9 0100     		.2byte	0x1
 2930 00eb 50       		.byte	0x50
 2931 00ec 00000000 		.4byte	0
 2932 00f0 00000000 		.4byte	0
 2933              	.LLST6:
 2934 00f4 10000000 		.4byte	.LVL16
 2935 00f8 1C000000 		.4byte	.LVL18
 2936 00fc 0300     		.2byte	0x3
 2937 00fe 71       		.byte	0x71
 2938 00ff 7E       		.sleb128 -2
 2939 0100 9F       		.byte	0x9f
 2940 0101 1C000000 		.4byte	.LVL18
 2941 0105 70000000 		.4byte	.LVL43
 2942 0109 0100     		.2byte	0x1
 2943 010b 51       		.byte	0x51
 2944 010c 70000000 		.4byte	.LVL43
 2945 0110 78000000 		.4byte	.LVL44
 2946 0114 0100     		.2byte	0x1
 2947 0116 52       		.byte	0x52
 2948 0117 78000000 		.4byte	.LVL44
 2949 011b 7A000000 		.4byte	.LVL45
 2950 011f 0100     		.2byte	0x1
 2951 0121 53       		.byte	0x53
 2952 0122 00000000 		.4byte	0
 2953 0126 00000000 		.4byte	0
 2954              	.LLST7:
 2955 012a 14000000 		.4byte	.LVL17
 2956 012e 46000000 		.4byte	.LVL25
 2957 0132 0100     		.2byte	0x1
 2958 0134 53       		.byte	0x53
 2959 0135 46000000 		.4byte	.LVL25
 2960 0139 50000000 		.4byte	.LVL28
 2961 013d 0200     		.2byte	0x2
 2962 013f 71       		.byte	0x71
 2963 0140 7C       		.sleb128 -4
 2964 0141 50000000 		.4byte	.LVL28
ARM GAS  /tmp/ccnew0QN.s 			page 53


 2965 0145 78000000 		.4byte	.LVL44
 2966 0149 0100     		.2byte	0x1
 2967 014b 53       		.byte	0x53
 2968 014c 78000000 		.4byte	.LVL44
 2969 0150 7A000000 		.4byte	.LVL45
 2970 0154 0200     		.2byte	0x2
 2971 0156 72       		.byte	0x72
 2972 0157 7C       		.sleb128 -4
 2973 0158 7A000000 		.4byte	.LVL45
 2974 015c 84000000 		.4byte	.LFE292
 2975 0160 0100     		.2byte	0x1
 2976 0162 53       		.byte	0x53
 2977 0163 00000000 		.4byte	0
 2978 0167 00000000 		.4byte	0
 2979              	.LLST8:
 2980 016b 20000000 		.4byte	.LVL19
 2981 016f 7A000000 		.4byte	.LVL45
 2982 0173 0100     		.2byte	0x1
 2983 0175 54       		.byte	0x54
 2984 0176 00000000 		.4byte	0
 2985 017a 00000000 		.4byte	0
 2986              	.LLST9:
 2987 017e 22000000 		.4byte	.LVL20
 2988 0182 7A000000 		.4byte	.LVL45
 2989 0186 0100     		.2byte	0x1
 2990 0188 55       		.byte	0x55
 2991 0189 00000000 		.4byte	0
 2992 018d 00000000 		.4byte	0
 2993              	.LLST3:
 2994 0191 00000000 		.4byte	.LVL10
 2995 0195 14000000 		.4byte	.LVL11
 2996 0199 0100     		.2byte	0x1
 2997 019b 50       		.byte	0x50
 2998 019c 14000000 		.4byte	.LVL11
 2999 01a0 1E000000 		.4byte	.LVL13
 3000 01a4 0400     		.2byte	0x4
 3001 01a6 F3       		.byte	0xf3
 3002 01a7 01       		.uleb128 0x1
 3003 01a8 50       		.byte	0x50
 3004 01a9 9F       		.byte	0x9f
 3005 01aa 1E000000 		.4byte	.LVL13
 3006 01ae 20000000 		.4byte	.LVL14
 3007 01b2 0100     		.2byte	0x1
 3008 01b4 50       		.byte	0x50
 3009 01b5 20000000 		.4byte	.LVL14
 3010 01b9 28000000 		.4byte	.LFE291
 3011 01bd 0400     		.2byte	0x4
 3012 01bf F3       		.byte	0xf3
 3013 01c0 01       		.uleb128 0x1
 3014 01c1 50       		.byte	0x50
 3015 01c2 9F       		.byte	0x9f
 3016 01c3 00000000 		.4byte	0
 3017 01c7 00000000 		.4byte	0
 3018              	.LLST4:
 3019 01cb 00000000 		.4byte	.LVL10
 3020 01cf 1C000000 		.4byte	.LVL12
 3021 01d3 0200     		.2byte	0x2
ARM GAS  /tmp/ccnew0QN.s 			page 54


 3022 01d5 30       		.byte	0x30
 3023 01d6 9F       		.byte	0x9f
 3024 01d7 1C000000 		.4byte	.LVL12
 3025 01db 1E000000 		.4byte	.LVL13
 3026 01df 0100     		.2byte	0x1
 3027 01e1 50       		.byte	0x50
 3028 01e2 1E000000 		.4byte	.LVL13
 3029 01e6 20000000 		.4byte	.LVL14
 3030 01ea 0200     		.2byte	0x2
 3031 01ec 30       		.byte	0x30
 3032 01ed 9F       		.byte	0x9f
 3033 01ee 20000000 		.4byte	.LVL14
 3034 01f2 28000000 		.4byte	.LFE291
 3035 01f6 0100     		.2byte	0x1
 3036 01f8 50       		.byte	0x50
 3037 01f9 00000000 		.4byte	0
 3038 01fd 00000000 		.4byte	0
 3039              	.LLST0:
 3040 0201 00000000 		.4byte	.LVL0
 3041 0205 10000000 		.4byte	.LVL1
 3042 0209 0100     		.2byte	0x1
 3043 020b 50       		.byte	0x50
 3044 020c 10000000 		.4byte	.LVL1
 3045 0210 12000000 		.4byte	.LVL2
 3046 0214 0400     		.2byte	0x4
 3047 0216 F3       		.byte	0xf3
 3048 0217 01       		.uleb128 0x1
 3049 0218 50       		.byte	0x50
 3050 0219 9F       		.byte	0x9f
 3051 021a 12000000 		.4byte	.LVL2
 3052 021e 2C000000 		.4byte	.LVL8
 3053 0222 0100     		.2byte	0x1
 3054 0224 50       		.byte	0x50
 3055 0225 2C000000 		.4byte	.LVL8
 3056 0229 34000000 		.4byte	.LFE290
 3057 022d 0400     		.2byte	0x4
 3058 022f F3       		.byte	0xf3
 3059 0230 01       		.uleb128 0x1
 3060 0231 50       		.byte	0x50
 3061 0232 9F       		.byte	0x9f
 3062 0233 00000000 		.4byte	0
 3063 0237 00000000 		.4byte	0
 3064              	.LLST1:
 3065 023b 00000000 		.4byte	.LVL0
 3066 023f 16000000 		.4byte	.LVL3
 3067 0243 0100     		.2byte	0x1
 3068 0245 51       		.byte	0x51
 3069 0246 16000000 		.4byte	.LVL3
 3070 024a 34000000 		.4byte	.LFE290
 3071 024e 0400     		.2byte	0x4
 3072 0250 F3       		.byte	0xf3
 3073 0251 01       		.uleb128 0x1
 3074 0252 51       		.byte	0x51
 3075 0253 9F       		.byte	0x9f
 3076 0254 00000000 		.4byte	0
 3077 0258 00000000 		.4byte	0
 3078              	.LLST2:
ARM GAS  /tmp/ccnew0QN.s 			page 55


 3079 025c 00000000 		.4byte	.LVL0
 3080 0260 16000000 		.4byte	.LVL3
 3081 0264 0200     		.2byte	0x2
 3082 0266 30       		.byte	0x30
 3083 0267 9F       		.byte	0x9f
 3084 0268 1E000000 		.4byte	.LVL4
 3085 026c 20000000 		.4byte	.LVL5
 3086 0270 0100     		.2byte	0x1
 3087 0272 52       		.byte	0x52
 3088 0273 20000000 		.4byte	.LVL5
 3089 0277 22000000 		.4byte	.LVL6
 3090 027b 0300     		.2byte	0x3
 3091 027d 73       		.byte	0x73
 3092 027e 01       		.sleb128 1
 3093 027f 9F       		.byte	0x9f
 3094 0280 22000000 		.4byte	.LVL6
 3095 0284 28000000 		.4byte	.LVL7
 3096 0288 0300     		.2byte	0x3
 3097 028a 72       		.byte	0x72
 3098 028b 01       		.sleb128 1
 3099 028c 9F       		.byte	0x9f
 3100 028d 2E000000 		.4byte	.LVL9
 3101 0291 34000000 		.4byte	.LFE290
 3102 0295 0100     		.2byte	0x1
 3103 0297 50       		.byte	0x50
 3104 0298 00000000 		.4byte	0
 3105 029c 00000000 		.4byte	0
 3106              		.section	.debug_aranges,"",%progbits
 3107 0000 2C000000 		.4byte	0x2c
 3108 0004 0200     		.2byte	0x2
 3109 0006 00000000 		.4byte	.Ldebug_info0
 3110 000a 04       		.byte	0x4
 3111 000b 00       		.byte	0
 3112 000c 0000     		.2byte	0
 3113 000e 0000     		.2byte	0
 3114 0010 00000000 		.4byte	.LFB290
 3115 0014 34000000 		.4byte	.LFE290-.LFB290
 3116 0018 00000000 		.4byte	.LFB291
 3117 001c 28000000 		.4byte	.LFE291-.LFB291
 3118 0020 00000000 		.4byte	.LFB292
 3119 0024 84000000 		.4byte	.LFE292-.LFB292
 3120 0028 00000000 		.4byte	0
 3121 002c 00000000 		.4byte	0
 3122              		.section	.debug_ranges,"",%progbits
 3123              	.Ldebug_ranges0:
 3124 0000 00000000 		.4byte	.LFB290
 3125 0004 34000000 		.4byte	.LFE290
 3126 0008 00000000 		.4byte	.LFB291
 3127 000c 28000000 		.4byte	.LFE291
 3128 0010 00000000 		.4byte	.LFB292
 3129 0014 84000000 		.4byte	.LFE292
 3130 0018 00000000 		.4byte	0
 3131 001c 00000000 		.4byte	0
 3132              		.section	.debug_line,"",%progbits
 3133              	.Ldebug_line0:
 3134 0000 E2030000 		.section	.debug_str,"MS",%progbits,1
 3134      02005E03 
ARM GAS  /tmp/ccnew0QN.s 			page 56


 3134      00000201 
 3134      FB0E0D00 
 3134      01010101 
 3135              	.LASF58:
 3136 0000 72656164 		.ascii	"ready_list_t\000"
 3136      795F6C69 
 3136      73745F74 
 3136      00
 3137              	.LASF9:
 3138 000d 73697A65 		.ascii	"size_t\000"
 3138      5F7400
 3139              	.LASF64:
 3140 0014 64656C74 		.ascii	"delta\000"
 3140      6100
 3141              	.LASF166:
 3142 001a 2E2E2F2E 		.ascii	"../../modules/ChibiOS/ext/fatfs/src/ffunicode.c\000"
 3142      2E2F6D6F 
 3142      64756C65 
 3142      732F4368 
 3142      6962694F 
 3143              	.LASF22:
 3144 004a 75696E74 		.ascii	"uint64_t\000"
 3144      36345F74 
 3144      00
 3145              	.LASF77:
 3146 0053 6B65726E 		.ascii	"kernel_stats\000"
 3146      656C5F73 
 3146      74617473 
 3146      00
 3147              	.LASF13:
 3148 0060 5F5F7569 		.ascii	"__uint8_t\000"
 3148      6E74385F 
 3148      7400
 3149              	.LASF57:
 3150 006a 70726576 		.ascii	"prev\000"
 3150      00
 3151              	.LASF88:
 3152 006f 706F7274 		.ascii	"port_intctx\000"
 3152      5F696E74 
 3152      63747800 
 3153              	.LASF56:
 3154 007b 63685F74 		.ascii	"ch_threads_queue\000"
 3154      68726561 
 3154      64735F71 
 3154      75657565 
 3154      00
 3155              	.LASF69:
 3156 008c 73797374 		.ascii	"system_debug_t\000"
 3156      656D5F64 
 3156      65627567 
 3156      5F7400
 3157              	.LASF144:
 3158 009b 70726F76 		.ascii	"provider\000"
 3158      69646572 
 3158      00
 3159              	.LASF154:
 3160 00a4 73656D5F 		.ascii	"sem_list\000"
ARM GAS  /tmp/ccnew0QN.s 			page 57


 3160      6C697374 
 3160      00
 3161              	.LASF92:
 3162 00ad 776F7273 		.ascii	"worst\000"
 3162      7400
 3163              	.LASF95:
 3164 00b3 74696D65 		.ascii	"time_measurement_t\000"
 3164      5F6D6561 
 3164      73757265 
 3164      6D656E74 
 3164      5F7400
 3165              	.LASF8:
 3166 00c6 6C6F6E67 		.ascii	"long long unsigned int\000"
 3166      206C6F6E 
 3166      6720756E 
 3166      7369676E 
 3166      65642069 
 3167              	.LASF102:
 3168 00dd 65786974 		.ascii	"exitcode\000"
 3168      636F6465 
 3168      00
 3169              	.LASF76:
 3170 00e6 6D61696E 		.ascii	"mainthread\000"
 3170      74687265 
 3170      616400
 3171              	.LASF105:
 3172 00f1 73656E74 		.ascii	"sentmsg\000"
 3172      6D736700 
 3173              	.LASF66:
 3174 00f9 76697274 		.ascii	"virtual_timers_list_t\000"
 3174      75616C5F 
 3174      74696D65 
 3174      72735F6C 
 3174      6973745F 
 3175              	.LASF81:
 3176 010f 49544D5F 		.ascii	"ITM_RxBuffer\000"
 3176      52784275 
 3176      66666572 
 3176      00
 3177              	.LASF147:
 3178 011c 64796E5F 		.ascii	"dyn_element_t\000"
 3178      656C656D 
 3178      656E745F 
 3178      7400
 3179              	.LASF54:
 3180 012a 6E657874 		.ascii	"next\000"
 3180      00
 3181              	.LASF24:
 3182 012f 72747469 		.ascii	"rttime_t\000"
 3182      6D655F74 
 3182      00
 3183              	.LASF10:
 3184 0138 6C6F6E67 		.ascii	"long long int\000"
 3184      206C6F6E 
 3184      6720696E 
 3184      7400
 3185              	.LASF12:
ARM GAS  /tmp/ccnew0QN.s 			page 58


 3186 0146 7369676E 		.ascii	"signed char\000"
 3186      65642063 
 3186      68617200 
 3187              	.LASF163:
 3188 0152 66665F77 		.ascii	"ff_wtoupper\000"
 3188      746F7570 
 3188      70657200 
 3189              	.LASF116:
 3190 015e 73697A65 		.ascii	"size\000"
 3190      00
 3191              	.LASF165:
 3192 0163 474E5520 		.ascii	"GNU C11 6.3.1 20170620 (release) [ARM/embedded-6-br"
 3192      43313120 
 3192      362E332E 
 3192      31203230 
 3192      31373036 
 3193 0196 616E6368 		.ascii	"anch revision 249437] -mcpu=cortex-m4 -mfloat-abi=h"
 3193      20726576 
 3193      6973696F 
 3193      6E203234 
 3193      39343337 
 3194 01c9 61726420 		.ascii	"ard -mfpu=fpv4-sp-d16 -mno-thumb-interwork -mthumb "
 3194      2D6D6670 
 3194      753D6670 
 3194      76342D73 
 3194      702D6431 
 3195 01fc 2D67202D 		.ascii	"-g -Os -fomit-frame-pointer -falign-functions=16 -f"
 3195      4F73202D 
 3195      666F6D69 
 3195      742D6672 
 3195      616D652D 
 3196 022f 66756E63 		.ascii	"function-sections -fdata-sections -fno-common -fsin"
 3196      74696F6E 
 3196      2D736563 
 3196      74696F6E 
 3196      73202D66 
 3197 0262 676C652D 		.ascii	"gle-precision-constant\000"
 3197      70726563 
 3197      6973696F 
 3197      6E2D636F 
 3197      6E737461 
 3198              	.LASF75:
 3199 0279 76746C69 		.ascii	"vtlist\000"
 3199      737400
 3200              	.LASF44:
 3201 0280 6D736771 		.ascii	"msgqueue\000"
 3201      75657565 
 3201      00
 3202              	.LASF40:
 3203 0289 73746174 		.ascii	"state\000"
 3203      6500
 3204              	.LASF6:
 3205 028f 6C6F6E67 		.ascii	"long int\000"
 3205      20696E74 
 3205      00
 3206              	.LASF26:
 3207 0298 74737461 		.ascii	"tstate_t\000"
ARM GAS  /tmp/ccnew0QN.s 			page 59


 3207      74655F74 
 3207      00
 3208              	.LASF65:
 3209 02a1 66756E63 		.ascii	"func\000"
 3209      00
 3210              	.LASF49:
 3211 02a6 73746174 		.ascii	"stats\000"
 3211      7300
 3212              	.LASF132:
 3213 02ac 63686465 		.ascii	"chdebug_t\000"
 3213      6275675F 
 3213      7400
 3214              	.LASF130:
 3215 02b6 6F66665F 		.ascii	"off_preempt\000"
 3215      70726565 
 3215      6D707400 
 3216              	.LASF16:
 3217 02c2 5F5F7569 		.ascii	"__uint32_t\000"
 3217      6E743332 
 3217      5F7400
 3218              	.LASF85:
 3219 02cd 72656761 		.ascii	"regarm_t\000"
 3219      726D5F74 
 3219      00
 3220              	.LASF156:
 3221 02d6 6D62785F 		.ascii	"mbx_list\000"
 3221      6C697374 
 3221      00
 3222              	.LASF70:
 3223 02df 63685F73 		.ascii	"ch_system_debug\000"
 3223      79737465 
 3223      6D5F6465 
 3223      62756700 
 3224              	.LASF43:
 3225 02ef 77616974 		.ascii	"waiting\000"
 3225      696E6700 
 3226              	.LASF74:
 3227 02f7 726C6973 		.ascii	"rlist\000"
 3227      7400
 3228              	.LASF115:
 3229 02fd 7A65726F 		.ascii	"zero\000"
 3229      00
 3230              	.LASF134:
 3231 0302 6D757465 		.ascii	"mutex_t\000"
 3231      785F7400 
 3232              	.LASF143:
 3233 030a 616C6967 		.ascii	"align\000"
 3233      6E00
 3234              	.LASF79:
 3235 0310 73797369 		.ascii	"sysinterval_t\000"
 3235      6E746572 
 3235      76616C5F 
 3235      7400
 3236              	.LASF31:
 3237 031e 636E745F 		.ascii	"cnt_t\000"
 3237      7400
 3238              	.LASF0:
ARM GAS  /tmp/ccnew0QN.s 			page 60


 3239 0324 756E7369 		.ascii	"unsigned int\000"
 3239      676E6564 
 3239      20696E74 
 3239      00
 3240              	.LASF19:
 3241 0331 75696E74 		.ascii	"uint16_t\000"
 3241      31365F74 
 3241      00
 3242              	.LASF82:
 3243 033a 53797374 		.ascii	"SystemCoreClock\000"
 3243      656D436F 
 3243      7265436C 
 3243      6F636B00 
 3244              	.LASF106:
 3245 034a 77747365 		.ascii	"wtsemp\000"
 3245      6D7000
 3246              	.LASF104:
 3247 0351 77747472 		.ascii	"wttrp\000"
 3247      7000
 3248              	.LASF133:
 3249 0357 63685F64 		.ascii	"ch_debug\000"
 3249      65627567 
 3249      00
 3250              	.LASF159:
 3251 0360 63685F66 		.ascii	"ch_factory\000"
 3251      6163746F 
 3251      727900
 3252              	.LASF145:
 3253 036b 6D656D6F 		.ascii	"memory_pool_t\000"
 3253      72795F70 
 3253      6F6F6C5F 
 3253      7400
 3254              	.LASF96:
 3255 0379 6E5F6972 		.ascii	"n_irq\000"
 3255      7100
 3256              	.LASF34:
 3257 037f 71756575 		.ascii	"queue\000"
 3257      6500
 3258              	.LASF48:
 3259 0385 6D706F6F 		.ascii	"mpool\000"
 3259      6C00
 3260              	.LASF129:
 3261 038b 6F66665F 		.ascii	"off_refs\000"
 3261      72656673 
 3261      00
 3262              	.LASF100:
 3263 0394 6B65726E 		.ascii	"kernel_stats_t\000"
 3263      656C5F73 
 3263      74617473 
 3263      5F7400
 3264              	.LASF38:
 3265 03a3 6E616D65 		.ascii	"name\000"
 3265      00
 3266              	.LASF52:
 3267 03a8 63685F74 		.ascii	"ch_thread\000"
 3267      68726561 
 3267      6400
ARM GAS  /tmp/ccnew0QN.s 			page 61


 3268              	.LASF29:
 3269 03b2 6D73675F 		.ascii	"msg_t\000"
 3269      7400
 3270              	.LASF93:
 3271 03b8 6C617374 		.ascii	"last\000"
 3271      00
 3272              	.LASF32:
 3273 03bd 75636E74 		.ascii	"ucnt_t\000"
 3273      5F7400
 3274              	.LASF45:
 3275 03c4 6570656E 		.ascii	"epending\000"
 3275      64696E67 
 3275      00
 3276              	.LASF149:
 3277 03cd 64796E5F 		.ascii	"dyn_list_t\000"
 3277      6C697374 
 3277      5F7400
 3278              	.LASF72:
 3279 03d8 63685F73 		.ascii	"ch_system_t\000"
 3279      79737465 
 3279      6D5F7400 
 3280              	.LASF122:
 3281 03e4 6F66665F 		.ascii	"off_ctx\000"
 3281      63747800 
 3282              	.LASF25:
 3283 03ec 746D6F64 		.ascii	"tmode_t\000"
 3283      655F7400 
 3284              	.LASF99:
 3285 03f4 6D5F6372 		.ascii	"m_crit_isr\000"
 3285      69745F69 
 3285      737200
 3286              	.LASF59:
 3287 03ff 63685F72 		.ascii	"ch_ready_list\000"
 3287      65616479 
 3287      5F6C6973 
 3287      7400
 3288              	.LASF30:
 3289 040d 6576656E 		.ascii	"eventmask_t\000"
 3289      746D6173 
 3289      6B5F7400 
 3290              	.LASF83:
 3291 0419 41484250 		.ascii	"AHBPrescTable\000"
 3291      72657363 
 3291      5461626C 
 3291      6500
 3292              	.LASF138:
 3293 0427 656E646D 		.ascii	"endmem\000"
 3293      656D00
 3294              	.LASF15:
 3295 042e 5F5F696E 		.ascii	"__int32_t\000"
 3295      7433325F 
 3295      7400
 3296              	.LASF86:
 3297 0438 73746B61 		.ascii	"stkalign_t\000"
 3297      6C69676E 
 3297      5F7400
 3298              	.LASF36:
ARM GAS  /tmp/ccnew0QN.s 			page 62


 3299 0443 6E657765 		.ascii	"newer\000"
 3299      7200
 3300              	.LASF47:
 3301 0449 7265616C 		.ascii	"realprio\000"
 3301      7072696F 
 3301      00
 3302              	.LASF117:
 3303 0452 76657273 		.ascii	"version\000"
 3303      696F6E00 
 3304              	.LASF80:
 3305 045a 73697A65 		.ascii	"sizetype\000"
 3305      74797065 
 3305      00
 3306              	.LASF50:
 3307 0463 74687265 		.ascii	"thread_reference_t\000"
 3307      61645F72 
 3307      65666572 
 3307      656E6365 
 3307      5F7400
 3308              	.LASF67:
 3309 0476 63685F76 		.ascii	"ch_virtual_timers_list\000"
 3309      69727475 
 3309      616C5F74 
 3309      696D6572 
 3309      735F6C69 
 3310              	.LASF11:
 3311 048d 6C6F6E67 		.ascii	"long double\000"
 3311      20646F75 
 3311      626C6500 
 3312              	.LASF148:
 3313 0499 63685F64 		.ascii	"ch_dyn_list\000"
 3313      796E5F6C 
 3313      69737400 
 3314              	.LASF168:
 3315 04a5 66665F75 		.ascii	"ff_uni2oem\000"
 3315      6E69326F 
 3315      656D00
 3316              	.LASF123:
 3317 04b0 6F66665F 		.ascii	"off_newer\000"
 3317      6E657765 
 3317      7200
 3318              	.LASF4:
 3319 04ba 574F5244 		.ascii	"WORD\000"
 3319      00
 3320              	.LASF87:
 3321 04bf 706F7274 		.ascii	"port_context\000"
 3321      5F636F6E 
 3321      74657874 
 3321      00
 3322              	.LASF90:
 3323 04cc 746D5F63 		.ascii	"tm_calibration_t\000"
 3323      616C6962 
 3323      72617469 
 3323      6F6E5F74 
 3323      00
 3324              	.LASF35:
 3325 04dd 7072696F 		.ascii	"prio\000"
ARM GAS  /tmp/ccnew0QN.s 			page 63


 3325      00
 3326              	.LASF155:
 3327 04e2 73656D5F 		.ascii	"sem_pool\000"
 3327      706F6F6C 
 3327      00
 3328              	.LASF60:
 3329 04eb 63757272 		.ascii	"current\000"
 3329      656E7400 
 3330              	.LASF17:
 3331 04f3 5F5F7569 		.ascii	"__uint64_t\000"
 3331      6E743634 
 3331      5F7400
 3332              	.LASF139:
 3333 04fe 6D656D63 		.ascii	"memcore_t\000"
 3333      6F72655F 
 3333      7400
 3334              	.LASF94:
 3335 0508 63756D75 		.ascii	"cumulative\000"
 3335      6C617469 
 3335      766500
 3336              	.LASF161:
 3337 0513 63767431 		.ascii	"cvt1\000"
 3337      00
 3338              	.LASF162:
 3339 0518 63767432 		.ascii	"cvt2\000"
 3339      00
 3340              	.LASF27:
 3341 051d 74726566 		.ascii	"trefs_t\000"
 3341      735F7400 
 3342              	.LASF120:
 3343 0525 74687265 		.ascii	"threadsize\000"
 3343      61647369 
 3343      7A6500
 3344              	.LASF42:
 3345 0530 72656673 		.ascii	"refs\000"
 3345      00
 3346              	.LASF62:
 3347 0535 76697274 		.ascii	"virtual_timer_t\000"
 3347      75616C5F 
 3347      74696D65 
 3347      725F7400 
 3348              	.LASF146:
 3349 0545 63685F64 		.ascii	"ch_dyn_element\000"
 3349      796E5F65 
 3349      6C656D65 
 3349      6E7400
 3350              	.LASF28:
 3351 0554 74707269 		.ascii	"tprio_t\000"
 3351      6F5F7400 
 3352              	.LASF153:
 3353 055c 6275665F 		.ascii	"buf_list\000"
 3353      6C697374 
 3353      00
 3354              	.LASF97:
 3355 0565 6E5F6374 		.ascii	"n_ctxswc\000"
 3355      78737763 
 3355      00
ARM GAS  /tmp/ccnew0QN.s 			page 64


 3356              	.LASF135:
 3357 056e 5F426F6F 		.ascii	"_Bool\000"
 3357      6C00
 3358              	.LASF20:
 3359 0574 696E7433 		.ascii	"int32_t\000"
 3359      325F7400 
 3360              	.LASF1:
 3361 057c 756E7369 		.ascii	"unsigned char\000"
 3361      676E6564 
 3361      20636861 
 3361      7200
 3362              	.LASF121:
 3363 058a 6F66665F 		.ascii	"off_prio\000"
 3363      7072696F 
 3363      00
 3364              	.LASF126:
 3365 0593 6F66665F 		.ascii	"off_stklimit\000"
 3365      73746B6C 
 3365      696D6974 
 3365      00
 3366              	.LASF2:
 3367 05a0 73686F72 		.ascii	"short int\000"
 3367      7420696E 
 3367      7400
 3368              	.LASF68:
 3369 05aa 6C617374 		.ascii	"lasttime\000"
 3369      74696D65 
 3369      00
 3370              	.LASF108:
 3371 05b3 65776D61 		.ascii	"ewmask\000"
 3371      736B00
 3372              	.LASF73:
 3373 05ba 63685F73 		.ascii	"ch_system\000"
 3373      79737465 
 3373      6D00
 3374              	.LASF152:
 3375 05c4 6F626A5F 		.ascii	"obj_pool\000"
 3375      706F6F6C 
 3375      00
 3376              	.LASF160:
 3377 05cd 75633835 		.ascii	"uc850\000"
 3377      3000
 3378              	.LASF101:
 3379 05d3 7264796D 		.ascii	"rdymsg\000"
 3379      736700
 3380              	.LASF63:
 3381 05da 63685F76 		.ascii	"ch_virtual_timer\000"
 3381      69727475 
 3381      616C5F74 
 3381      696D6572 
 3381      00
 3382              	.LASF109:
 3383 05eb 63685F73 		.ascii	"ch_semaphore\000"
 3383      656D6170 
 3383      686F7265 
 3383      00
 3384              	.LASF131:
ARM GAS  /tmp/ccnew0QN.s 			page 65


 3385 05f8 6F66665F 		.ascii	"off_time\000"
 3385      74696D65 
 3385      00
 3386              	.LASF113:
 3387 0601 63685F69 		.ascii	"ch_idle_thread_wa\000"
 3387      646C655F 
 3387      74687265 
 3387      61645F77 
 3387      6100
 3388              	.LASF119:
 3389 0613 74696D65 		.ascii	"timesize\000"
 3389      73697A65 
 3389      00
 3390              	.LASF21:
 3391 061c 75696E74 		.ascii	"uint32_t\000"
 3391      33325F74 
 3391      00
 3392              	.LASF107:
 3393 0625 77746D74 		.ascii	"wtmtxp\000"
 3393      787000
 3394              	.LASF53:
 3395 062c 63685F74 		.ascii	"ch_threads_list\000"
 3395      68726561 
 3395      64735F6C 
 3395      69737400 
 3396              	.LASF111:
 3397 063c 6F776E65 		.ascii	"owner\000"
 3397      7200
 3398              	.LASF7:
 3399 0642 6C6F6E67 		.ascii	"long unsigned int\000"
 3399      20756E73 
 3399      69676E65 
 3399      6420696E 
 3399      7400
 3400              	.LASF39:
 3401 0654 77616261 		.ascii	"wabase\000"
 3401      736500
 3402              	.LASF112:
 3403 065b 63686172 		.ascii	"char\000"
 3403      00
 3404              	.LASF37:
 3405 0660 6F6C6465 		.ascii	"older\000"
 3405      7200
 3406              	.LASF84:
 3407 0666 41504250 		.ascii	"APBPrescTable\000"
 3407      72657363 
 3407      5461626C 
 3407      6500
 3408              	.LASF151:
 3409 0674 6F626A5F 		.ascii	"obj_list\000"
 3409      6C697374 
 3409      00
 3410              	.LASF14:
 3411 067d 5F5F7569 		.ascii	"__uint16_t\000"
 3411      6E743136 
 3411      5F7400
 3412              	.LASF33:
ARM GAS  /tmp/ccnew0QN.s 			page 66


 3413 0688 74687265 		.ascii	"thread_t\000"
 3413      61645F74 
 3413      00
 3414              	.LASF91:
 3415 0691 62657374 		.ascii	"best\000"
 3415      00
 3416              	.LASF140:
 3417 0696 63685F6D 		.ascii	"ch_memcore\000"
 3417      656D636F 
 3417      726500
 3418              	.LASF78:
 3419 06a1 73797374 		.ascii	"systime_t\000"
 3419      696D655F 
 3419      7400
 3420              	.LASF61:
 3421 06ab 76746675 		.ascii	"vtfunc_t\000"
 3421      6E635F74 
 3421      00
 3422              	.LASF71:
 3423 06b4 70616E69 		.ascii	"panic_msg\000"
 3423      635F6D73 
 3423      6700
 3424              	.LASF89:
 3425 06be 6F666673 		.ascii	"offset\000"
 3425      657400
 3426              	.LASF110:
 3427 06c5 63685F6D 		.ascii	"ch_mutex\000"
 3427      75746578 
 3427      00
 3428              	.LASF124:
 3429 06ce 6F66665F 		.ascii	"off_older\000"
 3429      6F6C6465 
 3429      7200
 3430              	.LASF3:
 3431 06d8 73686F72 		.ascii	"short unsigned int\000"
 3431      7420756E 
 3431      7369676E 
 3431      65642069 
 3431      6E7400
 3432              	.LASF114:
 3433 06eb 6964656E 		.ascii	"identifier\000"
 3433      74696669 
 3433      657200
 3434              	.LASF23:
 3435 06f6 7274636E 		.ascii	"rtcnt_t\000"
 3435      745F7400 
 3436              	.LASF136:
 3437 06fe 6D656D67 		.ascii	"memgetfunc_t\000"
 3437      65746675 
 3437      6E635F74 
 3437      00
 3438              	.LASF142:
 3439 070b 6F626A65 		.ascii	"object_size\000"
 3439      63745F73 
 3439      697A6500 
 3440              	.LASF118:
 3441 0717 70747273 		.ascii	"ptrsize\000"
ARM GAS  /tmp/ccnew0QN.s 			page 67


 3441      697A6500 
 3442              	.LASF150:
 3443 071f 63685F6F 		.ascii	"ch_objects_factory\000"
 3443      626A6563 
 3443      74735F66 
 3443      6163746F 
 3443      727900
 3444              	.LASF55:
 3445 0732 74687265 		.ascii	"threads_queue_t\000"
 3445      6164735F 
 3445      71756575 
 3445      655F7400 
 3446              	.LASF141:
 3447 0742 706F6F6C 		.ascii	"pool_header\000"
 3447      5F686561 
 3447      64657200 
 3448              	.LASF125:
 3449 074e 6F66665F 		.ascii	"off_name\000"
 3449      6E616D65 
 3449      00
 3450              	.LASF164:
 3451 0757 66665F6F 		.ascii	"ff_oem2uni\000"
 3451      656D3275 
 3451      6E6900
 3452              	.LASF18:
 3453 0762 75696E74 		.ascii	"uint8_t\000"
 3453      385F7400 
 3454              	.LASF41:
 3455 076a 666C6167 		.ascii	"flags\000"
 3455      7300
 3456              	.LASF157:
 3457 0770 6669666F 		.ascii	"fifo_list\000"
 3457      5F6C6973 
 3457      7400
 3458              	.LASF103:
 3459 077a 77746F62 		.ascii	"wtobjp\000"
 3459      6A7000
 3460              	.LASF5:
 3461 0781 57434841 		.ascii	"WCHAR\000"
 3461      5200
 3462              	.LASF51:
 3463 0787 74687265 		.ascii	"threads_list_t\000"
 3463      6164735F 
 3463      6C697374 
 3463      5F7400
 3464              	.LASF127:
 3465 0796 6F66665F 		.ascii	"off_state\000"
 3465      73746174 
 3465      6500
 3466              	.LASF158:
 3467 07a0 6F626A65 		.ascii	"objects_factory_t\000"
 3467      6374735F 
 3467      66616374 
 3467      6F72795F 
 3467      7400
 3468              	.LASF128:
 3469 07b2 6F66665F 		.ascii	"off_flags\000"
ARM GAS  /tmp/ccnew0QN.s 			page 68


 3469      666C6167 
 3469      7300
 3470              	.LASF46:
 3471 07bc 6D74786C 		.ascii	"mtxlist\000"
 3471      69737400 
 3472              	.LASF98:
 3473 07c4 6D5F6372 		.ascii	"m_crit_thd\000"
 3473      69745F74 
 3473      686400
 3474              	.LASF167:
 3475 07cf 2F686F6D 		.ascii	"/home/haggisaerospace/ardupilot/ardupilot/build/Cub"
 3475      652F6861 
 3475      67676973 
 3475      6165726F 
 3475      73706163 
 3476 0802 65426C61 		.ascii	"eBlack\000"
 3476      636B00
 3477              	.LASF137:
 3478 0809 6E657874 		.ascii	"nextmem\000"
 3478      6D656D00 
 3479              		.ident	"GCC: (GNU Tools for ARM Embedded Processors 6-2017-q2-update) 6.3.1 20170620 (release) [AR
ARM GAS  /tmp/ccnew0QN.s 			page 69


DEFINED SYMBOLS
                            *ABS*:0000000000000000 ffunicode.c
     /tmp/ccnew0QN.s:18     .text.ff_uni2oem:0000000000000000 $t
     /tmp/ccnew0QN.s:25     .text.ff_uni2oem:0000000000000000 ff_uni2oem
     /tmp/ccnew0QN.s:82     .text.ff_uni2oem:0000000000000030 $d
     /tmp/ccnew0QN.s:87     .text.ff_oem2uni:0000000000000000 $t
     /tmp/ccnew0QN.s:94     .text.ff_oem2uni:0000000000000000 ff_oem2uni
     /tmp/ccnew0QN.s:131    .text.ff_oem2uni:0000000000000024 $d
     /tmp/ccnew0QN.s:136    .text.ff_wtoupper:0000000000000000 $t
     /tmp/ccnew0QN.s:143    .text.ff_wtoupper:0000000000000000 ff_wtoupper
     /tmp/ccnew0QN.s:192    .text.ff_wtoupper:0000000000000032 $d
     /tmp/ccnew0QN.s:282    .text.ff_wtoupper:000000000000007c $d
     /tmp/ccnew0QN.s:288    .rodata.cvt1.8449:0000000000000000 $d
     /tmp/ccnew0QN.s:292    .rodata.cvt1.8449:0000000000000000 cvt1.8449
     /tmp/ccnew0QN.s:543    .rodata.cvt2.8450:0000000000000000 $d
     /tmp/ccnew0QN.s:547    .rodata.cvt2.8450:0000000000000000 cvt2.8450
     /tmp/ccnew0QN.s:643    .rodata.uc850:0000000000000000 $d
     /tmp/ccnew0QN.s:647    .rodata.uc850:0000000000000000 uc850
                     .debug_frame:0000000000000010 $d
     /tmp/ccnew0QN.s:201    .text.ff_wtoupper:000000000000003b $d
     /tmp/ccnew0QN.s:201    .text.ff_wtoupper:000000000000003c $t

NO UNDEFINED SYMBOLS
