ARM GAS  /tmp/ccd4hBPW.s 			page 1


   1              		.cpu cortex-m4
   2              		.eabi_attribute 27, 1
   3              		.eabi_attribute 28, 1
   4              		.eabi_attribute 20, 1
   5              		.eabi_attribute 21, 1
   6              		.eabi_attribute 23, 3
   7              		.eabi_attribute 24, 1
   8              		.eabi_attribute 25, 1
   9              		.eabi_attribute 26, 1
  10              		.eabi_attribute 30, 4
  11              		.eabi_attribute 34, 1
  12              		.eabi_attribute 18, 4
  13              		.file	"hal_serial.c"
  14              		.text
  15              	.Ltext0:
  16              		.cfi_sections	.debug_frame
  17              		.section	.text._readt,"ax",%progbits
  18              		.align	1
  19              		.syntax unified
  20              		.thumb
  21              		.thumb_func
  22              		.fpu fpv4-sp-d16
  23              		.type	_readt, %function
  24              	_readt:
  25              	.LFB330:
  26              		.file 1 "../../modules/ChibiOS/os/hal/src/hal_serial.c"
  27              		.loc 1 89 0
  28              		.cfi_startproc
  29              		@ args = 0, pretend = 0, frame = 0
  30              		@ frame_needed = 0, uses_anonymous_args = 0
  31              		@ link register save eliminated.
  32              	.LVL0:
  33              		.loc 1 91 0
  34 0000 0C30     		adds	r0, r0, #12
  35              	.LVL1:
  36 0002 FFF7FEBF 		b	iqReadTimeout
  37              	.LVL2:
  38              		.cfi_endproc
  39              	.LFE330:
  40              		.size	_readt, .-_readt
  41              		.section	.text._read,"ax",%progbits
  42              		.align	1
  43              		.syntax unified
  44              		.thumb
  45              		.thumb_func
  46              		.fpu fpv4-sp-d16
  47              		.type	_read, %function
  48              	_read:
  49              	.LFB324:
  50              		.loc 1 56 0
  51              		.cfi_startproc
  52              		@ args = 0, pretend = 0, frame = 0
  53              		@ frame_needed = 0, uses_anonymous_args = 0
  54              		@ link register save eliminated.
  55              	.LVL3:
  56              		.loc 1 58 0
  57 0000 4FF0FF33 		mov	r3, #-1
ARM GAS  /tmp/ccd4hBPW.s 			page 2


  58 0004 0C30     		adds	r0, r0, #12
  59              	.LVL4:
  60 0006 FFF7FEBF 		b	iqReadTimeout
  61              	.LVL5:
  62              		.cfi_endproc
  63              	.LFE324:
  64              		.size	_read, .-_read
  65              		.section	.text._writet,"ax",%progbits
  66              		.align	1
  67              		.syntax unified
  68              		.thumb
  69              		.thumb_func
  70              		.fpu fpv4-sp-d16
  71              		.type	_writet, %function
  72              	_writet:
  73              	.LFB329:
  74              		.loc 1 83 0
  75              		.cfi_startproc
  76              		@ args = 0, pretend = 0, frame = 0
  77              		@ frame_needed = 0, uses_anonymous_args = 0
  78              		@ link register save eliminated.
  79              	.LVL6:
  80              		.loc 1 85 0
  81 0000 3030     		adds	r0, r0, #48
  82              	.LVL7:
  83 0002 FFF7FEBF 		b	oqWriteTimeout
  84              	.LVL8:
  85              		.cfi_endproc
  86              	.LFE329:
  87              		.size	_writet, .-_writet
  88              		.section	.text._write,"ax",%progbits
  89              		.align	1
  90              		.syntax unified
  91              		.thumb
  92              		.thumb_func
  93              		.fpu fpv4-sp-d16
  94              		.type	_write, %function
  95              	_write:
  96              	.LFB323:
  97              		.loc 1 50 0
  98              		.cfi_startproc
  99              		@ args = 0, pretend = 0, frame = 0
 100              		@ frame_needed = 0, uses_anonymous_args = 0
 101              		@ link register save eliminated.
 102              	.LVL9:
 103              		.loc 1 52 0
 104 0000 4FF0FF33 		mov	r3, #-1
 105 0004 3030     		adds	r0, r0, #48
 106              	.LVL10:
 107 0006 FFF7FEBF 		b	oqWriteTimeout
 108              	.LVL11:
 109              		.cfi_endproc
 110              	.LFE323:
 111              		.size	_write, .-_write
 112              		.section	.text._gett,"ax",%progbits
 113              		.align	1
 114              		.syntax unified
ARM GAS  /tmp/ccd4hBPW.s 			page 3


 115              		.thumb
 116              		.thumb_func
 117              		.fpu fpv4-sp-d16
 118              		.type	_gett, %function
 119              	_gett:
 120              	.LFB328:
 121              		.loc 1 77 0
 122              		.cfi_startproc
 123              		@ args = 0, pretend = 0, frame = 0
 124              		@ frame_needed = 0, uses_anonymous_args = 0
 125              		@ link register save eliminated.
 126              	.LVL12:
 127              		.loc 1 79 0
 128 0000 0C30     		adds	r0, r0, #12
 129              	.LVL13:
 130 0002 FFF7FEBF 		b	iqGetTimeout
 131              	.LVL14:
 132              		.cfi_endproc
 133              	.LFE328:
 134              		.size	_gett, .-_gett
 135              		.section	.text._get,"ax",%progbits
 136              		.align	1
 137              		.syntax unified
 138              		.thumb
 139              		.thumb_func
 140              		.fpu fpv4-sp-d16
 141              		.type	_get, %function
 142              	_get:
 143              	.LFB326:
 144              		.loc 1 67 0
 145              		.cfi_startproc
 146              		@ args = 0, pretend = 0, frame = 0
 147              		@ frame_needed = 0, uses_anonymous_args = 0
 148              		@ link register save eliminated.
 149              	.LVL15:
 150              		.loc 1 69 0
 151 0000 4FF0FF31 		mov	r1, #-1
 152 0004 0C30     		adds	r0, r0, #12
 153              	.LVL16:
 154 0006 FFF7FEBF 		b	iqGetTimeout
 155              	.LVL17:
 156              		.cfi_endproc
 157              	.LFE326:
 158              		.size	_get, .-_get
 159              		.section	.text._putt,"ax",%progbits
 160              		.align	1
 161              		.syntax unified
 162              		.thumb
 163              		.thumb_func
 164              		.fpu fpv4-sp-d16
 165              		.type	_putt, %function
 166              	_putt:
 167              	.LFB327:
 168              		.loc 1 72 0
 169              		.cfi_startproc
 170              		@ args = 0, pretend = 0, frame = 0
 171              		@ frame_needed = 0, uses_anonymous_args = 0
ARM GAS  /tmp/ccd4hBPW.s 			page 4


 172              		@ link register save eliminated.
 173              	.LVL18:
 174              		.loc 1 74 0
 175 0000 3030     		adds	r0, r0, #48
 176              	.LVL19:
 177 0002 FFF7FEBF 		b	oqPutTimeout
 178              	.LVL20:
 179              		.cfi_endproc
 180              	.LFE327:
 181              		.size	_putt, .-_putt
 182              		.section	.text._put,"ax",%progbits
 183              		.align	1
 184              		.syntax unified
 185              		.thumb
 186              		.thumb_func
 187              		.fpu fpv4-sp-d16
 188              		.type	_put, %function
 189              	_put:
 190              	.LFB325:
 191              		.loc 1 62 0
 192              		.cfi_startproc
 193              		@ args = 0, pretend = 0, frame = 0
 194              		@ frame_needed = 0, uses_anonymous_args = 0
 195              		@ link register save eliminated.
 196              	.LVL21:
 197              		.loc 1 64 0
 198 0000 4FF0FF32 		mov	r2, #-1
 199 0004 3030     		adds	r0, r0, #48
 200              	.LVL22:
 201 0006 FFF7FEBF 		b	oqPutTimeout
 202              	.LVL23:
 203              		.cfi_endproc
 204              	.LFE325:
 205              		.size	_put, .-_put
 206              		.section	.text._ctl,"ax",%progbits
 207              		.align	1
 208              		.syntax unified
 209              		.thumb
 210              		.thumb_func
 211              		.fpu fpv4-sp-d16
 212              		.type	_ctl, %function
 213              	_ctl:
 214              	.LFB342:
 215              		.cfi_startproc
 216              		@ args = 0, pretend = 0, frame = 0
 217              		@ frame_needed = 0, uses_anonymous_args = 0
 218              		@ link register save eliminated.
 219 0000 0020     		movs	r0, #0
 220 0002 7047     		bx	lr
 221              		.cfi_endproc
 222              	.LFE342:
 223              		.size	_ctl, .-_ctl
 224              		.section	.text.sdInit,"ax",%progbits
 225              		.align	1
 226              		.global	sdInit
 227              		.syntax unified
 228              		.thumb
ARM GAS  /tmp/ccd4hBPW.s 			page 5


 229              		.thumb_func
 230              		.fpu fpv4-sp-d16
 231              		.type	sdInit, %function
 232              	sdInit:
 233              	.LFB332:
 234              		.loc 1 135 0
 235              		.cfi_startproc
 236              		@ args = 0, pretend = 0, frame = 0
 237              		@ frame_needed = 0, uses_anonymous_args = 0
 238              		@ link register save eliminated.
 239              		.loc 1 137 0
 240 0000 FFF7FEBF 		b	sd_lld_init
 241              	.LVL24:
 242              		.cfi_endproc
 243              	.LFE332:
 244              		.size	sdInit, .-sdInit
 245              		.section	.text.sdObjectInit,"ax",%progbits
 246              		.align	1
 247              		.global	sdObjectInit
 248              		.syntax unified
 249              		.thumb
 250              		.thumb_func
 251              		.fpu fpv4-sp-d16
 252              		.type	sdObjectInit, %function
 253              	sdObjectInit:
 254              	.LFB333:
 255              		.loc 1 158 0
 256              		.cfi_startproc
 257              		@ args = 0, pretend = 0, frame = 0
 258              		@ frame_needed = 0, uses_anonymous_args = 0
 259              	.LVL25:
 260 0000 37B5     		push	{r0, r1, r2, r4, r5, lr}
 261              		.cfi_def_cfa_offset 24
 262              		.cfi_offset 4, -12
 263              		.cfi_offset 5, -8
 264              		.cfi_offset 14, -4
 265              		.loc 1 160 0
 266 0002 0346     		mov	r3, r0
 267              		.loc 1 158 0
 268 0004 1546     		mov	r5, r2
 269              		.loc 1 160 0
 270 0006 0E4A     		ldr	r2, .L12
 271              	.LVL26:
 272 0008 43F8042B 		str	r2, [r3], #4
 273              	.LVL27:
 274              	.LBB46:
 275              	.LBB47:
 276              	.LBB48:
 277              		.file 2 "../../modules/ChibiOS/os/rt/include/chevents.h"
 278              		.loc 2 173 0
 279 000c 4360     		str	r3, [r0, #4]
 280              	.LVL28:
 281              	.LBE48:
 282              	.LBE47:
 283              	.LBE46:
 284              		.loc 1 162 0
 285 000e 0123     		movs	r3, #1
ARM GAS  /tmp/ccd4hBPW.s 			page 6


 286              		.loc 1 158 0
 287 0010 0446     		mov	r4, r0
 288              		.loc 1 162 0
 289 0012 0372     		strb	r3, [r0, #8]
 290              		.loc 1 163 0
 291 0014 4FF40072 		mov	r2, #512
 292 0018 0090     		str	r0, [sp]
 293 001a 0B46     		mov	r3, r1
 294 001c 00F15401 		add	r1, r0, #84
 295              	.LVL29:
 296 0020 0C30     		adds	r0, r0, #12
 297              	.LVL30:
 298 0022 FFF7FEFF 		bl	iqObjectInit
 299              	.LVL31:
 300              		.loc 1 164 0
 301 0026 0094     		str	r4, [sp]
 302 0028 2B46     		mov	r3, r5
 303 002a 4FF40072 		mov	r2, #512
 304 002e 04F51571 		add	r1, r4, #596
 305 0032 04F13000 		add	r0, r4, #48
 306 0036 FFF7FEFF 		bl	oqObjectInit
 307              	.LVL32:
 308              		.loc 1 165 0
 309 003a 03B0     		add	sp, sp, #12
 310              		.cfi_def_cfa_offset 12
 311              		@ sp needed
 312 003c 30BD     		pop	{r4, r5, pc}
 313              	.LVL33:
 314              	.L13:
 315 003e 00BF     		.align	2
 316              	.L12:
 317 0040 00000000 		.word	.LANCHOR0
 318              		.cfi_endproc
 319              	.LFE333:
 320              		.size	sdObjectInit, .-sdObjectInit
 321              		.section	.text.sdStart,"ax",%progbits
 322              		.align	1
 323              		.global	sdStart
 324              		.syntax unified
 325              		.thumb
 326              		.thumb_func
 327              		.fpu fpv4-sp-d16
 328              		.type	sdStart, %function
 329              	sdStart:
 330              	.LFB334:
 331              		.loc 1 185 0
 332              		.cfi_startproc
 333              		@ args = 0, pretend = 0, frame = 0
 334              		@ frame_needed = 0, uses_anonymous_args = 0
 335              	.LVL34:
 336 0000 38B5     		push	{r3, r4, r5, lr}
 337              		.cfi_def_cfa_offset 16
 338              		.cfi_offset 3, -16
 339              		.cfi_offset 4, -12
 340              		.cfi_offset 5, -8
 341              		.cfi_offset 14, -4
 342              		.loc 1 185 0
ARM GAS  /tmp/ccd4hBPW.s 			page 7


 343 0002 0446     		mov	r4, r0
 344 0004 0D46     		mov	r5, r1
 345              	.LBB63:
 346              	.LBB64:
 347              	.LBB65:
 348              	.LBB66:
 349              	.LBB67:
 350              	.LBB68:
 351              		.file 3 "../../modules/ChibiOS/os/common/ext/ARM/CMSIS/Core/Include/cmsis_gcc.h"
 352              		.loc 3 493 0
 353 0006 2023     		movs	r3, #32
 354              		.syntax unified
 355              	@ 493 "../../modules/ChibiOS/os/common/ext/ARM/CMSIS/Core/Include/cmsis_gcc.h" 1
 356 0008 83F31188 		MSR basepri, r3
 357              	@ 0 "" 2
 358              	.LVL35:
 359              		.thumb
 360              		.syntax unified
 361              	.LBE68:
 362              	.LBE67:
 363              	.LBE66:
 364              		.file 4 "../../modules/ChibiOS/os/rt/include/chsys.h"
 365              		.loc 4 356 0
 366 000c FFF7FEFF 		bl	_stats_start_measure_crit_thd
 367              	.LVL36:
 368              	.LBE65:
 369              	.LBE64:
 370              	.LBE63:
 371              		.loc 1 192 0
 372 0010 2946     		mov	r1, r5
 373 0012 2046     		mov	r0, r4
 374 0014 FFF7FEFF 		bl	sd_lld_start
 375              	.LVL37:
 376              		.loc 1 193 0
 377 0018 0223     		movs	r3, #2
 378 001a 2372     		strb	r3, [r4, #8]
 379              	.LBB69:
 380              	.LBB70:
 381              	.LBB71:
 382              		.loc 4 368 0
 383 001c FFF7FEFF 		bl	_stats_stop_measure_crit_thd
 384              	.LVL38:
 385              	.LBB72:
 386              	.LBB73:
 387              	.LBB74:
 388              		.loc 3 493 0
 389 0020 0023     		movs	r3, #0
 390              		.syntax unified
 391              	@ 493 "../../modules/ChibiOS/os/common/ext/ARM/CMSIS/Core/Include/cmsis_gcc.h" 1
 392 0022 83F31188 		MSR basepri, r3
 393              	@ 0 "" 2
 394              	.LVL39:
 395              		.thumb
 396              		.syntax unified
 397 0026 38BD     		pop	{r3, r4, r5, pc}
 398              	.LBE74:
 399              	.LBE73:
ARM GAS  /tmp/ccd4hBPW.s 			page 8


 400              	.LBE72:
 401              	.LBE71:
 402              	.LBE70:
 403              	.LBE69:
 404              		.cfi_endproc
 405              	.LFE334:
 406              		.size	sdStart, .-sdStart
 407              		.section	.text.sdStop,"ax",%progbits
 408              		.align	1
 409              		.global	sdStop
 410              		.syntax unified
 411              		.thumb
 412              		.thumb_func
 413              		.fpu fpv4-sp-d16
 414              		.type	sdStop, %function
 415              	sdStop:
 416              	.LFB335:
 417              		.loc 1 206 0
 418              		.cfi_startproc
 419              		@ args = 0, pretend = 0, frame = 0
 420              		@ frame_needed = 0, uses_anonymous_args = 0
 421              	.LVL40:
 422 0000 10B5     		push	{r4, lr}
 423              		.cfi_def_cfa_offset 8
 424              		.cfi_offset 4, -8
 425              		.cfi_offset 14, -4
 426              	.LBB91:
 427              	.LBB92:
 428              	.LBB93:
 429              	.LBB94:
 430              	.LBB95:
 431              	.LBB96:
 432              		.loc 3 493 0
 433 0002 2023     		movs	r3, #32
 434              	.LBE96:
 435              	.LBE95:
 436              	.LBE94:
 437              	.LBE93:
 438              	.LBE92:
 439              	.LBE91:
 440              		.loc 1 206 0
 441 0004 0446     		mov	r4, r0
 442              	.LBB102:
 443              	.LBB101:
 444              	.LBB100:
 445              	.LBB99:
 446              	.LBB98:
 447              	.LBB97:
 448              		.loc 3 493 0
 449              		.syntax unified
 450              	@ 493 "../../modules/ChibiOS/os/common/ext/ARM/CMSIS/Core/Include/cmsis_gcc.h" 1
 451 0006 83F31188 		MSR basepri, r3
 452              	@ 0 "" 2
 453              	.LVL41:
 454              		.thumb
 455              		.syntax unified
 456              	.LBE97:
ARM GAS  /tmp/ccd4hBPW.s 			page 9


 457              	.LBE98:
 458              	.LBE99:
 459              		.loc 4 356 0
 460 000a FFF7FEFF 		bl	_stats_start_measure_crit_thd
 461              	.LVL42:
 462              	.LBE100:
 463              	.LBE101:
 464              	.LBE102:
 465              		.loc 1 215 0
 466 000e 2046     		mov	r0, r4
 467 0010 FFF7FEFF 		bl	sd_lld_stop
 468              	.LVL43:
 469              		.loc 1 216 0
 470 0014 0123     		movs	r3, #1
 471 0016 2372     		strb	r3, [r4, #8]
 472              		.loc 1 217 0
 473 0018 04F13000 		add	r0, r4, #48
 474 001c FFF7FEFF 		bl	oqResetI
 475              	.LVL44:
 476              		.loc 1 218 0
 477 0020 04F10C00 		add	r0, r4, #12
 478 0024 FFF7FEFF 		bl	iqResetI
 479              	.LVL45:
 480              	.LBB103:
 481              	.LBB104:
 482              		.file 5 "../../modules/ChibiOS/os/hal/osal/rt/osal.h"
 483              		.loc 5 618 0
 484 0028 FFF7FEFF 		bl	chSchRescheduleS
 485              	.LVL46:
 486              	.LBE104:
 487              	.LBE103:
 488              	.LBB105:
 489              	.LBB106:
 490              	.LBB107:
 491              		.loc 4 368 0
 492 002c FFF7FEFF 		bl	_stats_stop_measure_crit_thd
 493              	.LVL47:
 494              	.LBB108:
 495              	.LBB109:
 496              	.LBB110:
 497              		.loc 3 493 0
 498 0030 0023     		movs	r3, #0
 499              		.syntax unified
 500              	@ 493 "../../modules/ChibiOS/os/common/ext/ARM/CMSIS/Core/Include/cmsis_gcc.h" 1
 501 0032 83F31188 		MSR basepri, r3
 502              	@ 0 "" 2
 503              	.LVL48:
 504              		.thumb
 505              		.syntax unified
 506 0036 10BD     		pop	{r4, pc}
 507              	.LBE110:
 508              	.LBE109:
 509              	.LBE108:
 510              	.LBE107:
 511              	.LBE106:
 512              	.LBE105:
 513              		.cfi_endproc
ARM GAS  /tmp/ccd4hBPW.s 			page 10


 514              	.LFE335:
 515              		.size	sdStop, .-sdStop
 516              		.section	.text.sdIncomingDataI,"ax",%progbits
 517              		.align	1
 518              		.global	sdIncomingDataI
 519              		.syntax unified
 520              		.thumb
 521              		.thumb_func
 522              		.fpu fpv4-sp-d16
 523              		.type	sdIncomingDataI, %function
 524              	sdIncomingDataI:
 525              	.LFB336:
 526              		.loc 1 240 0
 527              		.cfi_startproc
 528              		@ args = 0, pretend = 0, frame = 0
 529              		@ frame_needed = 0, uses_anonymous_args = 0
 530              	.LVL49:
 531 0000 38B5     		push	{r3, r4, r5, lr}
 532              		.cfi_def_cfa_offset 16
 533              		.cfi_offset 3, -16
 534              		.cfi_offset 4, -12
 535              		.cfi_offset 5, -8
 536              		.cfi_offset 14, -4
 537              		.loc 1 245 0
 538 0002 4369     		ldr	r3, [r0, #20]
 539              		.loc 1 240 0
 540 0004 0446     		mov	r4, r0
 541 0006 0D46     		mov	r5, r1
 542              		.loc 1 245 0
 543 0008 1BB9     		cbnz	r3, .L17
 544              	.LVL50:
 545              	.LBB111:
 546              	.LBB112:
 547              		.loc 5 895 0
 548 000a 0421     		movs	r1, #4
 549              	.LVL51:
 550 000c 0844     		add	r0, r0, r1
 551              	.LVL52:
 552 000e FFF7FEFF 		bl	chEvtBroadcastFlagsI
 553              	.LVL53:
 554              	.L17:
 555              	.LBE112:
 556              	.LBE111:
 557              		.loc 1 247 0
 558 0012 2946     		mov	r1, r5
 559 0014 04F10C00 		add	r0, r4, #12
 560 0018 FFF7FEFF 		bl	iqPutI
 561              	.LVL54:
 562 001c 0028     		cmp	r0, #0
 563 001e 06DA     		bge	.L16
 564              	.LVL55:
 565              	.LBB113:
 566              	.LBB114:
 567              		.loc 5 895 0
 568 0020 201D     		adds	r0, r4, #4
 569              	.LVL56:
 570 0022 4FF48061 		mov	r1, #1024
ARM GAS  /tmp/ccd4hBPW.s 			page 11


 571              	.LBE114:
 572              	.LBE113:
 573              		.loc 1 249 0
 574 0026 BDE83840 		pop	{r3, r4, r5, lr}
 575              		.cfi_remember_state
 576              		.cfi_restore 14
 577              		.cfi_restore 5
 578              		.cfi_restore 4
 579              		.cfi_restore 3
 580              		.cfi_def_cfa_offset 0
 581              	.LVL57:
 582              	.LBB116:
 583              	.LBB115:
 584              		.loc 5 895 0
 585 002a FFF7FEBF 		b	chEvtBroadcastFlagsI
 586              	.LVL58:
 587              	.L16:
 588              		.cfi_restore_state
 589 002e 38BD     		pop	{r3, r4, r5, pc}
 590              	.LBE115:
 591              	.LBE116:
 592              		.cfi_endproc
 593              	.LFE336:
 594              		.size	sdIncomingDataI, .-sdIncomingDataI
 595              		.section	.text.sdRequestDataI,"ax",%progbits
 596              		.align	1
 597              		.global	sdRequestDataI
 598              		.syntax unified
 599              		.thumb
 600              		.thumb_func
 601              		.fpu fpv4-sp-d16
 602              		.type	sdRequestDataI, %function
 603              	sdRequestDataI:
 604              	.LFB337:
 605              		.loc 1 266 0
 606              		.cfi_startproc
 607              		@ args = 0, pretend = 0, frame = 0
 608              		@ frame_needed = 0, uses_anonymous_args = 0
 609              	.LVL59:
 610 0000 38B5     		push	{r3, r4, r5, lr}
 611              		.cfi_def_cfa_offset 16
 612              		.cfi_offset 3, -16
 613              		.cfi_offset 4, -12
 614              		.cfi_offset 5, -8
 615              		.cfi_offset 14, -4
 616              		.loc 1 266 0
 617 0002 0446     		mov	r4, r0
 618              		.loc 1 272 0
 619 0004 3030     		adds	r0, r0, #48
 620              	.LVL60:
 621 0006 FFF7FEFF 		bl	oqGetI
 622              	.LVL61:
 623              		.loc 1 273 0
 624 000a 051E     		subs	r5, r0, #0
 625 000c 03DA     		bge	.L19
 626              	.LVL62:
 627              	.LBB117:
ARM GAS  /tmp/ccd4hBPW.s 			page 12


 628              	.LBB118:
 629              		.loc 5 895 0
 630 000e 0821     		movs	r1, #8
 631 0010 201D     		adds	r0, r4, #4
 632              	.LVL63:
 633 0012 FFF7FEFF 		bl	chEvtBroadcastFlagsI
 634              	.LVL64:
 635              	.L19:
 636              	.LBE118:
 637              	.LBE117:
 638              		.loc 1 276 0
 639 0016 2846     		mov	r0, r5
 640 0018 38BD     		pop	{r3, r4, r5, pc}
 641              		.cfi_endproc
 642              	.LFE337:
 643              		.size	sdRequestDataI, .-sdRequestDataI
 644              		.section	.text.sdPutWouldBlock,"ax",%progbits
 645              		.align	1
 646              		.global	sdPutWouldBlock
 647              		.syntax unified
 648              		.thumb
 649              		.thumb_func
 650              		.fpu fpv4-sp-d16
 651              		.type	sdPutWouldBlock, %function
 652              	sdPutWouldBlock:
 653              	.LFB338:
 654              		.loc 1 293 0
 655              		.cfi_startproc
 656              		@ args = 0, pretend = 0, frame = 0
 657              		@ frame_needed = 0, uses_anonymous_args = 0
 658              	.LVL65:
 659 0000 10B5     		push	{r4, lr}
 660              		.cfi_def_cfa_offset 8
 661              		.cfi_offset 4, -8
 662              		.cfi_offset 14, -4
 663              	.LBB133:
 664              	.LBB134:
 665              	.LBB135:
 666              	.LBB136:
 667              	.LBB137:
 668              	.LBB138:
 669              		.loc 3 493 0
 670 0002 2023     		movs	r3, #32
 671              	.LBE138:
 672              	.LBE137:
 673              	.LBE136:
 674              	.LBE135:
 675              	.LBE134:
 676              	.LBE133:
 677              		.loc 1 293 0
 678 0004 0446     		mov	r4, r0
 679              	.LBB144:
 680              	.LBB143:
 681              	.LBB142:
 682              	.LBB141:
 683              	.LBB140:
 684              	.LBB139:
ARM GAS  /tmp/ccd4hBPW.s 			page 13


 685              		.loc 3 493 0
 686              		.syntax unified
 687              	@ 493 "../../modules/ChibiOS/os/common/ext/ARM/CMSIS/Core/Include/cmsis_gcc.h" 1
 688 0006 83F31188 		MSR basepri, r3
 689              	@ 0 "" 2
 690              	.LVL66:
 691              		.thumb
 692              		.syntax unified
 693              	.LBE139:
 694              	.LBE140:
 695              	.LBE141:
 696              		.loc 4 356 0
 697 000a FFF7FEFF 		bl	_stats_start_measure_crit_thd
 698              	.LVL67:
 699              	.LBE142:
 700              	.LBE143:
 701              	.LBE144:
 702              		.loc 1 297 0
 703 000e A46B     		ldr	r4, [r4, #56]
 704              	.LVL68:
 705              	.LBB145:
 706              	.LBB146:
 707              	.LBB147:
 708              		.loc 4 368 0
 709 0010 FFF7FEFF 		bl	_stats_stop_measure_crit_thd
 710              	.LVL69:
 711              	.LBB148:
 712              	.LBB149:
 713              	.LBB150:
 714              		.loc 3 493 0
 715 0014 0023     		movs	r3, #0
 716              		.syntax unified
 717              	@ 493 "../../modules/ChibiOS/os/common/ext/ARM/CMSIS/Core/Include/cmsis_gcc.h" 1
 718 0016 83F31188 		MSR basepri, r3
 719              	@ 0 "" 2
 720              	.LVL70:
 721              		.thumb
 722              		.syntax unified
 723              	.LBE150:
 724              	.LBE149:
 725              	.LBE148:
 726              	.LBE147:
 727              	.LBE146:
 728              	.LBE145:
 729              		.loc 1 301 0
 730 001a B4FA84F0 		clz	r0, r4
 731 001e 4009     		lsrs	r0, r0, #5
 732 0020 10BD     		pop	{r4, pc}
 733              		.cfi_endproc
 734              	.LFE338:
 735              		.size	sdPutWouldBlock, .-sdPutWouldBlock
 736              		.section	.text.sdGetWouldBlock,"ax",%progbits
 737              		.align	1
 738              		.global	sdGetWouldBlock
 739              		.syntax unified
 740              		.thumb
 741              		.thumb_func
ARM GAS  /tmp/ccd4hBPW.s 			page 14


 742              		.fpu fpv4-sp-d16
 743              		.type	sdGetWouldBlock, %function
 744              	sdGetWouldBlock:
 745              	.LFB339:
 746              		.loc 1 318 0
 747              		.cfi_startproc
 748              		@ args = 0, pretend = 0, frame = 0
 749              		@ frame_needed = 0, uses_anonymous_args = 0
 750              	.LVL71:
 751 0000 10B5     		push	{r4, lr}
 752              		.cfi_def_cfa_offset 8
 753              		.cfi_offset 4, -8
 754              		.cfi_offset 14, -4
 755              	.LBB165:
 756              	.LBB166:
 757              	.LBB167:
 758              	.LBB168:
 759              	.LBB169:
 760              	.LBB170:
 761              		.loc 3 493 0
 762 0002 2023     		movs	r3, #32
 763              	.LBE170:
 764              	.LBE169:
 765              	.LBE168:
 766              	.LBE167:
 767              	.LBE166:
 768              	.LBE165:
 769              		.loc 1 318 0
 770 0004 0446     		mov	r4, r0
 771              	.LBB176:
 772              	.LBB175:
 773              	.LBB174:
 774              	.LBB173:
 775              	.LBB172:
 776              	.LBB171:
 777              		.loc 3 493 0
 778              		.syntax unified
 779              	@ 493 "../../modules/ChibiOS/os/common/ext/ARM/CMSIS/Core/Include/cmsis_gcc.h" 1
 780 0006 83F31188 		MSR basepri, r3
 781              	@ 0 "" 2
 782              	.LVL72:
 783              		.thumb
 784              		.syntax unified
 785              	.LBE171:
 786              	.LBE172:
 787              	.LBE173:
 788              		.loc 4 356 0
 789 000a FFF7FEFF 		bl	_stats_start_measure_crit_thd
 790              	.LVL73:
 791              	.LBE174:
 792              	.LBE175:
 793              	.LBE176:
 794              		.loc 1 322 0
 795 000e 6469     		ldr	r4, [r4, #20]
 796              	.LVL74:
 797              	.LBB177:
 798              	.LBB178:
ARM GAS  /tmp/ccd4hBPW.s 			page 15


 799              	.LBB179:
 800              		.loc 4 368 0
 801 0010 FFF7FEFF 		bl	_stats_stop_measure_crit_thd
 802              	.LVL75:
 803              	.LBB180:
 804              	.LBB181:
 805              	.LBB182:
 806              		.loc 3 493 0
 807 0014 0023     		movs	r3, #0
 808              		.syntax unified
 809              	@ 493 "../../modules/ChibiOS/os/common/ext/ARM/CMSIS/Core/Include/cmsis_gcc.h" 1
 810 0016 83F31188 		MSR basepri, r3
 811              	@ 0 "" 2
 812              	.LVL76:
 813              		.thumb
 814              		.syntax unified
 815              	.LBE182:
 816              	.LBE181:
 817              	.LBE180:
 818              	.LBE179:
 819              	.LBE178:
 820              	.LBE177:
 821              		.loc 1 326 0
 822 001a B4FA84F0 		clz	r0, r4
 823 001e 4009     		lsrs	r0, r0, #5
 824 0020 10BD     		pop	{r4, pc}
 825              		.cfi_endproc
 826              	.LFE339:
 827              		.size	sdGetWouldBlock, .-sdGetWouldBlock
 828              		.section	.text.sdControl,"ax",%progbits
 829              		.align	1
 830              		.global	sdControl
 831              		.syntax unified
 832              		.thumb
 833              		.thumb_func
 834              		.fpu fpv4-sp-d16
 835              		.type	sdControl, %function
 836              	sdControl:
 837              	.LFB340:
 838              		.loc 1 342 0
 839              		.cfi_startproc
 840              		@ args = 0, pretend = 0, frame = 0
 841              		@ frame_needed = 0, uses_anonymous_args = 0
 842              		@ link register save eliminated.
 843              	.LVL77:
 844              		.loc 1 345 0
 845 0000 0020     		movs	r0, #0
 846              	.LVL78:
 847 0002 7047     		bx	lr
 848              		.cfi_endproc
 849              	.LFE340:
 850              		.size	sdControl, .-sdControl
 851              		.section	.rodata.vmt,"a",%progbits
 852              		.align	2
 853              		.set	.LANCHOR0,. + 0
 854              		.type	vmt, %object
 855              		.size	vmt, 40
ARM GAS  /tmp/ccd4hBPW.s 			page 16


 856              	vmt:
 857 0000 00000000 		.word	0
 858 0004 00000000 		.word	_write
 859 0008 00000000 		.word	_read
 860 000c 00000000 		.word	_put
 861 0010 00000000 		.word	_get
 862 0014 00000000 		.word	_putt
 863 0018 00000000 		.word	_gett
 864 001c 00000000 		.word	_writet
 865 0020 00000000 		.word	_readt
 866 0024 00000000 		.word	_ctl
 867              		.text
 868              	.Letext0:
 869              		.file 6 "/opt/gcc-arm-none-eabi-6-2017-q2-update/lib/gcc/arm-none-eabi/6.3.1/include/stddef.h"
 870              		.file 7 "/opt/gcc-arm-none-eabi-6-2017-q2-update/arm-none-eabi/include/machine/_default_types.h"
 871              		.file 8 "/opt/gcc-arm-none-eabi-6-2017-q2-update/arm-none-eabi/include/sys/_stdint.h"
 872              		.file 9 "/opt/gcc-arm-none-eabi-6-2017-q2-update/arm-none-eabi/include/stdint.h"
 873              		.file 10 "../../modules/ChibiOS/os/common/ports/ARMCMx/compilers/GCC/chtypes.h"
 874              		.file 11 "../../modules/ChibiOS/os/rt/include/chsystypes.h"
 875              		.file 12 "../../modules/ChibiOS/os/rt/include/chschd.h"
 876              		.file 13 "../../modules/ChibiOS/os/rt/include/chtime.h"
 877              		.file 14 "../../modules/ChibiOS/os/common/ext/ARM/CMSIS/Core/Include/core_cm4.h"
 878              		.file 15 "../../modules/ChibiOS/os/common/ext/ST/STM32F4xx/system_stm32f4xx.h"
 879              		.file 16 "../../modules/ChibiOS/os/common/ext/ST/STM32F4xx/stm32f427xx.h"
 880              		.file 17 "../../modules/ChibiOS/os/common/ports/ARMCMx/chcore.h"
 881              		.file 18 "../../modules/ChibiOS/os/common/ports/ARMCMx/chcore_v7m.h"
 882              		.file 19 "../../modules/ChibiOS/os/hal/ports/STM32/LLD/TIMv1/stm32_tim.h"
 883              		.file 20 "../../modules/ChibiOS/os/rt/include/chtm.h"
 884              		.file 21 "../../modules/ChibiOS/os/rt/include/chstats.h"
 885              		.file 22 "../../modules/ChibiOS/os/rt/include/chsem.h"
 886              		.file 23 "../../modules/ChibiOS/os/rt/include/chmtx.h"
 887              		.file 24 "../../modules/ChibiOS/os/rt/include/chregistry.h"
 888              		.file 25 "../../modules/ChibiOS/os/oslib/include/chmemcore.h"
 889              		.file 26 "../../modules/ChibiOS/os/oslib/include/chmempools.h"
 890              		.file 27 "../../modules/ChibiOS/os/oslib/include/chfactory.h"
 891              		.file 28 "../../modules/ChibiOS/os/hal/ports/STM32/LLD/DMAv2/stm32_dma.h"
 892              		.file 29 "../../modules/ChibiOS/os/hal/include/hal_ioblock.h"
 893              		.file 30 "../../modules/ChibiOS/os/hal/include/hal_queues.h"
 894              		.file 31 "../../modules/ChibiOS/os/hal/include/hal_pal.h"
 895              		.file 32 "../../modules/ChibiOS/os/hal/ports/STM32/LLD/GPIOv2/stm32_gpio.h"
 896              		.file 33 "../../modules/ChibiOS/os/hal/ports/STM32/LLD/GPIOv2/hal_pal_lld.h"
 897              		.file 34 "../../modules/ChibiOS/os/hal/include/hal_adc.h"
 898              		.file 35 "../../modules/ChibiOS/os/hal/ports/STM32/LLD/ADCv2/hal_adc_lld.h"
 899              		.file 36 "../../modules/ChibiOS/os/hal/include/hal_i2c.h"
 900              		.file 37 "../../modules/ChibiOS/os/hal/ports/STM32/LLD/I2Cv1/hal_i2c_lld.h"
 901              		.file 38 "../../modules/ChibiOS/os/hal/include/hal_pwm.h"
 902              		.file 39 "../../modules/ChibiOS/os/hal/ports/STM32/LLD/TIMv1/hal_pwm_lld.h"
 903              		.file 40 "../../modules/ChibiOS/os/hal/include/hal_serial.h"
 904              		.file 41 "../../modules/ChibiOS/os/hal/ports/STM32/LLD/USARTv1/hal_serial_lld.h"
 905              		.file 42 "../../modules/ChibiOS/os/hal/include/hal_sdc.h"
 906              		.file 43 "../../modules/ChibiOS/os/hal/ports/STM32/LLD/SDIOv1/hal_sdc_lld.h"
 907              		.file 44 "../../modules/ChibiOS/os/hal/include/hal_spi.h"
 908              		.file 45 "../../modules/ChibiOS/os/hal/ports/STM32/LLD/SPIv1/hal_spi_lld.h"
 909              		.file 46 "../../modules/ChibiOS/os/hal/include/hal_usb.h"
 910              		.file 47 "../../modules/ChibiOS/os/hal/ports/STM32/LLD/OTGv1/hal_usb_lld.h"
 911              		.file 48 "../../modules/ChibiOS/os/hal/ports/STM32/LLD/OTGv1/stm32_otg.h"