ARM GAS  /tmp/ccq7nZSP.s 			page 1


   1              		.cpu cortex-m4
   2              		.eabi_attribute 27, 1
   3              		.eabi_attribute 28, 1
   4              		.eabi_attribute 20, 1
   5              		.eabi_attribute 21, 1
   6              		.eabi_attribute 23, 3
   7              		.eabi_attribute 24, 1
   8              		.eabi_attribute 25, 1
   9              		.eabi_attribute 26, 1
  10              		.eabi_attribute 30, 4
  11              		.eabi_attribute 34, 1
  12              		.eabi_attribute 18, 4
  13              		.file	"hal_i2c_lld.c"
  14              		.text
  15              	.Ltext0:
  16              		.cfi_sections	.debug_frame
  17              		.section	.text.i2c_lld_serve_event_interrupt,"ax",%progbits
  18              		.align	1
  19              		.syntax unified
  20              		.thumb
  21              		.thumb_func
  22              		.fpu fpv4-sp-d16
  23              		.type	i2c_lld_serve_event_interrupt, %function
  24              	i2c_lld_serve_event_interrupt:
  25              	.LFB327:
  26              		.file 1 "../../modules/ChibiOS/os/hal/ports/STM32/LLD/I2Cv1/hal_i2c_lld.c"
  27              		.loc 1 283 0
  28              		.cfi_startproc
  29              		@ args = 0, pretend = 0, frame = 0
  30              		@ frame_needed = 0, uses_anonymous_args = 0
  31              	.LVL0:
  32 0000 F8B5     		push	{r3, r4, r5, r6, r7, lr}
  33              		.cfi_def_cfa_offset 24
  34              		.cfi_offset 3, -24
  35              		.cfi_offset 4, -20
  36              		.cfi_offset 5, -16
  37              		.cfi_offset 6, -12
  38              		.cfi_offset 7, -8
  39              		.cfi_offset 14, -4
  40              		.loc 1 284 0
  41 0002 446B     		ldr	r4, [r0, #52]
  42              	.LVL1:
  43              		.loc 1 291 0
  44 0004 3D4A     		ldr	r2, .L31
  45              		.loc 1 285 0
  46 0006 A369     		ldr	r3, [r4, #24]
  47              	.LVL2:
  48              		.loc 1 286 0
  49 0008 6669     		ldr	r6, [r4, #20]
  50              	.LVL3:
  51              		.loc 1 291 0
  52 000a 46EA0343 		orr	r3, r6, r3, lsl #16
  53              	.LVL4:
  54 000e 23F07F43 		bic	r3, r3, #-16777216
  55 0012 9342     		cmp	r3, r2
  56              		.loc 1 283 0
  57 0014 0546     		mov	r5, r0
ARM GAS  /tmp/ccq7nZSP.s 			page 2


  58              		.loc 1 291 0
  59 0016 35D0     		beq	.L3
  60 0018 10D8     		bhi	.L4
  61 001a 073A     		subs	r2, r2, #7
  62 001c 9342     		cmp	r3, r2
  63 001e 21D0     		beq	.L5
  64 0020 0132     		adds	r2, r2, #1
  65 0022 9342     		cmp	r3, r2
  66 0024 32D0     		beq	.L6
  67              	.L2:
  68              		.loc 1 328 0
  69 0026 3106     		lsls	r1, r6, #24
  70              		.loc 1 329 0
  71 0028 44BF     		itt	mi
  72 002a 0023     		movmi	r3, #0
  73 002c 2361     		strmi	r3, [r4, #16]
  74              		.loc 1 330 0
  75 002e 7207     		lsls	r2, r6, #29
  76              		.loc 1 331 0
  77 0030 48BF     		it	mi
  78 0032 2369     		ldrmi	r3, [r4, #16]
  79              		.loc 1 332 0
  80 0034 F306     		lsls	r3, r6, #27
  81 0036 20D5     		bpl	.L10
  82              		.loc 1 333 0
  83 0038 2368     		ldr	r3, [r4]
  84 003a 3BE0     		b	.L30
  85              	.L4:
  86              		.loc 1 291 0
  87 003c 304A     		ldr	r2, .L31+4
  88 003e 9342     		cmp	r3, r2
  89 0040 3AD0     		beq	.L7
  90 0042 0232     		adds	r2, r2, #2
  91 0044 9342     		cmp	r3, r2
  92 0046 EED1     		bne	.L2
  93              		.loc 1 317 0
  94 0048 C36A     		ldr	r3, [r0, #44]
  95 004a 1B68     		ldr	r3, [r3]
  96 004c 5F68     		ldr	r7, [r3, #4]
  97 004e 002F     		cmp	r7, #0
  98 0050 3DD0     		beq	.L12
  99              		.loc 1 319 0
 100 0052 038C     		ldrh	r3, [r0, #32]
 101 0054 43F00103 		orr	r3, r3, #1
 102 0058 0384     		strh	r3, [r0, #32]	@ movhi
 103              		.loc 1 320 0
 104 005a 2368     		ldr	r3, [r4]
 105 005c 43F4A063 		orr	r3, r3, #1280
 106 0060 2360     		str	r3, [r4]
 107              		.loc 1 321 0
 108 0062 F8BD     		pop	{r3, r4, r5, r6, r7, pc}
 109              	.LVL5:
 110              	.L5:
 111              		.loc 1 293 0
 112 0064 038C     		ldrh	r3, [r0, #32]
 113 0066 1A0A     		lsrs	r2, r3, #8
 114 0068 06D0     		beq	.L29
ARM GAS  /tmp/ccq7nZSP.s 			page 3


 115              		.loc 1 295 0
 116 006a 03F00103 		and	r3, r3, #1
 117 006e 43F0F003 		orr	r3, r3, #240
 118 0072 02F00602 		and	r2, r2, #6
 119 0076 1343     		orrs	r3, r3, r2
 120              	.L29:
 121              		.loc 1 302 0
 122 0078 2361     		str	r3, [r4, #16]
 123              	.LVL6:
 124              	.L10:
 125              		.loc 1 337 0
 126 007a 16F00A0F 		tst	r6, #10
 127              		.loc 1 338 0
 128 007e 18BF     		it	ne
 129 0080 A369     		ldrne	r3, [r4, #24]
 130 0082 F8BD     		pop	{r3, r4, r5, r6, r7, pc}
 131              	.LVL7:
 132              	.L3:
 133              		.loc 1 302 0
 134 0084 038C     		ldrh	r3, [r0, #32]
 135 0086 C3F34703 		ubfx	r3, r3, #1, #8
 136 008a F5E7     		b	.L29
 137              	.L6:
 138              		.loc 1 305 0
 139 008c 6368     		ldr	r3, [r4, #4]
 140 008e 23F40073 		bic	r3, r3, #512
 141 0092 6360     		str	r3, [r4, #4]
 142              		.loc 1 306 0
 143 0094 C36A     		ldr	r3, [r0, #44]
 144 0096 1B68     		ldr	r3, [r3]
 145 0098 1A68     		ldr	r2, [r3]
 146 009a 42F00102 		orr	r2, r2, #1
 147 009e 1A60     		str	r2, [r3]
 148              		.loc 1 307 0
 149 00a0 6268     		ldr	r2, [r4, #4]
 150 00a2 42F48052 		orr	r2, r2, #4096
 151 00a6 6260     		str	r2, [r4, #4]
 152              		.loc 1 308 0
 153 00a8 5B68     		ldr	r3, [r3, #4]
 154 00aa 012B     		cmp	r3, #1
 155 00ac E5D8     		bhi	.L10
 156              		.loc 1 309 0
 157 00ae 2368     		ldr	r3, [r4]
 158 00b0 23F48063 		bic	r3, r3, #1024
 159              	.L30:
 160              		.loc 1 333 0
 161 00b4 2360     		str	r3, [r4]
 162 00b6 E0E7     		b	.L10
 163              	.L7:
 164              		.loc 1 312 0
 165 00b8 6368     		ldr	r3, [r4, #4]
 166 00ba 23F40073 		bic	r3, r3, #512
 167 00be 6360     		str	r3, [r4, #4]
 168              		.loc 1 313 0
 169 00c0 036B     		ldr	r3, [r0, #48]
 170 00c2 1A68     		ldr	r2, [r3]
 171 00c4 1368     		ldr	r3, [r2]
ARM GAS  /tmp/ccq7nZSP.s 			page 4


 172 00c6 43F00103 		orr	r3, r3, #1
 173 00ca 1360     		str	r3, [r2]
 174              		.loc 1 314 0
 175 00cc D5E7     		b	.L10
 176              	.L12:
 177              		.loc 1 323 0
 178 00ce 6368     		ldr	r3, [r4, #4]
 179 00d0 23F40073 		bic	r3, r3, #512
 180 00d4 6360     		str	r3, [r4, #4]
 181              		.loc 1 324 0
 182 00d6 2368     		ldr	r3, [r4]
 183 00d8 43F40073 		orr	r3, r3, #512
 184 00dc 2360     		str	r3, [r4]
 185              	.LVL8:
 186              	.LBB86:
 187              	.LBB87:
 188              	.LBB88:
 189              	.LBB89:
 190              	.LBB90:
 191              	.LBB91:
 192              	.LBB92:
 193              		.file 2 "../../modules/ChibiOS/os/common/ext/ARM/CMSIS/Core/Include/cmsis_gcc.h"
 194              		.loc 2 493 0
 195 00de 2023     		movs	r3, #32
 196              		.syntax unified
 197              	@ 493 "../../modules/ChibiOS/os/common/ext/ARM/CMSIS/Core/Include/cmsis_gcc.h" 1
 198 00e0 83F31188 		MSR basepri, r3
 199              	@ 0 "" 2
 200              	.LVL9:
 201              		.thumb
 202              		.syntax unified
 203              	.LBE92:
 204              	.LBE91:
 205              	.LBE90:
 206              	.LBE89:
 207              		.file 3 "../../modules/ChibiOS/os/rt/include/chsys.h"
 208              		.loc 3 396 0
 209 00e4 FFF7FEFF 		bl	_stats_start_measure_crit_isr
 210              	.LVL10:
 211              	.LBE88:
 212              	.LBE87:
 213              	.LBE86:
 214              	.LBB93:
 215              	.LBB94:
 216              		.file 4 "../../modules/ChibiOS/os/hal/osal/rt/osal.h"
 217              		.loc 4 775 0
 218 00e8 3946     		mov	r1, r7
 219 00ea 05F11C00 		add	r0, r5, #28
 220              	.LVL11:
 221 00ee FFF7FEFF 		bl	chThdResumeI
 222              	.LVL12:
 223              	.LBE94:
 224              	.LBE93:
 225              	.LBB95:
 226              	.LBB96:
 227              	.LBB97:
 228              		.loc 3 416 0
ARM GAS  /tmp/ccq7nZSP.s 			page 5


 229 00f2 FFF7FEFF 		bl	_stats_stop_measure_crit_isr
 230              	.LVL13:
 231              	.LBB98:
 232              	.LBB99:
 233              	.LBB100:
 234              	.LBB101:
 235              		.loc 2 493 0
 236              		.syntax unified
 237              	@ 493 "../../modules/ChibiOS/os/common/ext/ARM/CMSIS/Core/Include/cmsis_gcc.h" 1
 238 00f6 87F31188 		MSR basepri, r7
 239              	@ 0 "" 2
 240              	.LVL14:
 241              		.thumb
 242              		.syntax unified
 243 00fa BEE7     		b	.L10
 244              	.L32:
 245              		.align	2
 246              	.L31:
 247 00fc 08000300 		.word	196616
 248 0100 82000700 		.word	458882
 249              	.LBE101:
 250              	.LBE100:
 251              	.LBE99:
 252              	.LBE98:
 253              	.LBE97:
 254              	.LBE96:
 255              	.LBE95:
 256              		.cfi_endproc
 257              	.LFE327:
 258              		.size	i2c_lld_serve_event_interrupt, .-i2c_lld_serve_event_interrupt
 259              		.section	.text.i2c_lld_serve_tx_end_irq,"ax",%progbits
 260              		.align	1
 261              		.syntax unified
 262              		.thumb
 263              		.thumb_func
 264              		.fpu fpv4-sp-d16
 265              		.type	i2c_lld_serve_tx_end_irq, %function
 266              	i2c_lld_serve_tx_end_irq:
 267              	.LFB329:
 268              		.loc 1 376 0
 269              		.cfi_startproc
 270              		@ args = 0, pretend = 0, frame = 0
 271              		@ frame_needed = 0, uses_anonymous_args = 0
 272              	.LVL15:
 273              		.loc 1 381 0
 274 0000 11F00C0F 		tst	r1, #12
 275              		.loc 1 376 0
 276 0004 38B5     		push	{r3, r4, r5, lr}
 277              		.cfi_def_cfa_offset 16
 278              		.cfi_offset 3, -16
 279              		.cfi_offset 4, -12
 280              		.cfi_offset 5, -8
 281              		.cfi_offset 14, -4
 282              		.loc 1 376 0
 283 0006 0546     		mov	r5, r0
 284              		.loc 1 377 0
 285 0008 446B     		ldr	r4, [r0, #52]
ARM GAS  /tmp/ccq7nZSP.s 			page 6


 286              	.LVL16:
 287              		.loc 1 381 0
 288 000a 02D0     		beq	.L34
 289              	.LVL17:
 290              	.LBB102:
 291              	.LBB103:
 292              		.loc 4 480 0
 293 000c 0A48     		ldr	r0, .L40
 294              	.LVL18:
 295 000e FFF7FEFF 		bl	chSysHalt
 296              	.LVL19:
 297              	.L34:
 298              	.LBE103:
 299              	.LBE102:
 300              		.loc 1 388 0
 301 0012 2B6B     		ldr	r3, [r5, #48]
 302 0014 1A68     		ldr	r2, [r3]
 303 0016 1168     		ldr	r1, [r2]
 304 0018 21F01F01 		bic	r1, r1, #31
 305 001c 1160     		str	r1, [r2]
 306              	.L35:
 307              		.loc 1 388 0 is_stmt 0 discriminator 2
 308 001e 1168     		ldr	r1, [r2]
 309 0020 C907     		lsls	r1, r1, #31
 310 0022 FCD4     		bmi	.L35
 311              		.loc 1 388 0 discriminator 3
 312 0024 597A     		ldrb	r1, [r3, #9]	@ zero_extendqisi2
 313 0026 5A68     		ldr	r2, [r3, #4]
 314 0028 3D23     		movs	r3, #61
 315 002a 8B40     		lsls	r3, r3, r1
 316 002c 1360     		str	r3, [r2]
 317              		.loc 1 392 0 is_stmt 1 discriminator 3
 318 002e 6368     		ldr	r3, [r4, #4]
 319 0030 43F40073 		orr	r3, r3, #512
 320 0034 6360     		str	r3, [r4, #4]
 321 0036 38BD     		pop	{r3, r4, r5, pc}
 322              	.LVL20:
 323              	.L41:
 324              		.align	2
 325              	.L40:
 326 0038 00000000 		.word	.LC0
 327              		.cfi_endproc
 328              	.LFE329:
 329              		.size	i2c_lld_serve_tx_end_irq, .-i2c_lld_serve_tx_end_irq
 330              		.section	.text.i2c_lld_serve_rx_end_irq,"ax",%progbits
 331              		.align	1
 332              		.syntax unified
 333              		.thumb
 334              		.thumb_func
 335              		.fpu fpv4-sp-d16
 336              		.type	i2c_lld_serve_rx_end_irq, %function
 337              	i2c_lld_serve_rx_end_irq:
 338              	.LFB328:
 339              		.loc 1 349 0
 340              		.cfi_startproc
 341              		@ args = 0, pretend = 0, frame = 0
 342              		@ frame_needed = 0, uses_anonymous_args = 0
ARM GAS  /tmp/ccq7nZSP.s 			page 7


 343              	.LVL21:
 344              		.loc 1 354 0
 345 0000 11F00C0F 		tst	r1, #12
 346              		.loc 1 349 0
 347 0004 70B5     		push	{r4, r5, r6, lr}
 348              		.cfi_def_cfa_offset 16
 349              		.cfi_offset 4, -16
 350              		.cfi_offset 5, -12
 351              		.cfi_offset 6, -8
 352              		.cfi_offset 14, -4
 353              		.loc 1 349 0
 354 0006 0646     		mov	r6, r0
 355              		.loc 1 350 0
 356 0008 446B     		ldr	r4, [r0, #52]
 357              	.LVL22:
 358              		.loc 1 354 0
 359 000a 02D0     		beq	.L43
 360              	.LVL23:
 361              	.LBB124:
 362              	.LBB125:
 363              		.loc 4 480 0
 364 000c 1648     		ldr	r0, .L49
 365              	.LVL24:
 366 000e FFF7FEFF 		bl	chSysHalt
 367              	.LVL25:
 368              	.L43:
 369              	.LBE125:
 370              	.LBE124:
 371              		.loc 1 361 0
 372 0012 F36A     		ldr	r3, [r6, #44]
 373 0014 1A68     		ldr	r2, [r3]
 374 0016 1168     		ldr	r1, [r2]
 375 0018 21F01F01 		bic	r1, r1, #31
 376 001c 1160     		str	r1, [r2]
 377              	.L44:
 378              		.loc 1 361 0 is_stmt 0 discriminator 2
 379 001e 1568     		ldr	r5, [r2]
 380 0020 15F00105 		ands	r5, r5, #1
 381 0024 FBD1     		bne	.L44
 382              		.loc 1 361 0 discriminator 3
 383 0026 597A     		ldrb	r1, [r3, #9]	@ zero_extendqisi2
 384 0028 5A68     		ldr	r2, [r3, #4]
 385 002a 3D23     		movs	r3, #61
 386 002c 8B40     		lsls	r3, r3, r1
 387 002e 1360     		str	r3, [r2]
 388              		.loc 1 363 0 is_stmt 1 discriminator 3
 389 0030 6368     		ldr	r3, [r4, #4]
 390 0032 23F48053 		bic	r3, r3, #4096
 391 0036 6360     		str	r3, [r4, #4]
 392              		.loc 1 364 0 discriminator 3
 393 0038 2368     		ldr	r3, [r4]
 394 003a 23F48063 		bic	r3, r3, #1024
 395 003e 2360     		str	r3, [r4]
 396              		.loc 1 365 0 discriminator 3
 397 0040 2368     		ldr	r3, [r4]
 398 0042 43F40073 		orr	r3, r3, #512
 399 0046 2360     		str	r3, [r4]
ARM GAS  /tmp/ccq7nZSP.s 			page 8


 400              	.LVL26:
 401              	.LBB126:
 402              	.LBB127:
 403              	.LBB128:
 404              	.LBB129:
 405              	.LBB130:
 406              	.LBB131:
 407              	.LBB132:
 408              		.loc 2 493 0 discriminator 3
 409 0048 2023     		movs	r3, #32
 410              		.syntax unified
 411              	@ 493 "../../modules/ChibiOS/os/common/ext/ARM/CMSIS/Core/Include/cmsis_gcc.h" 1
 412 004a 83F31188 		MSR basepri, r3
 413              	@ 0 "" 2
 414              	.LVL27:
 415              		.thumb
 416              		.syntax unified
 417              	.LBE132:
 418              	.LBE131:
 419              	.LBE130:
 420              	.LBE129:
 421              		.loc 3 396 0 discriminator 3
 422 004e FFF7FEFF 		bl	_stats_start_measure_crit_isr
 423              	.LVL28:
 424              	.LBE128:
 425              	.LBE127:
 426              	.LBE126:
 427              	.LBB133:
 428              	.LBB134:
 429              		.loc 4 775 0 discriminator 3
 430 0052 2946     		mov	r1, r5
 431 0054 06F11C00 		add	r0, r6, #28
 432              	.LVL29:
 433 0058 FFF7FEFF 		bl	chThdResumeI
 434              	.LVL30:
 435              	.LBE134:
 436              	.LBE133:
 437              	.LBB135:
 438              	.LBB136:
 439              	.LBB137:
 440              		.loc 3 416 0 discriminator 3
 441 005c FFF7FEFF 		bl	_stats_stop_measure_crit_isr
 442              	.LVL31:
 443              	.LBB138:
 444              	.LBB139:
 445              	.LBB140:
 446              	.LBB141:
 447              		.loc 2 493 0 discriminator 3
 448              		.syntax unified
 449              	@ 493 "../../modules/ChibiOS/os/common/ext/ARM/CMSIS/Core/Include/cmsis_gcc.h" 1
 450 0060 85F31188 		MSR basepri, r5
 451              	@ 0 "" 2
 452              	.LVL32:
 453              		.thumb
 454              		.syntax unified
 455 0064 70BD     		pop	{r4, r5, r6, pc}
 456              	.LVL33:
ARM GAS  /tmp/ccq7nZSP.s 			page 9


 457              	.L50:
 458 0066 00BF     		.align	2
 459              	.L49:
 460 0068 00000000 		.word	.LC0
 461              	.LBE141:
 462              	.LBE140:
 463              	.LBE139:
 464              	.LBE138:
 465              	.LBE137:
 466              	.LBE136:
 467              	.LBE135:
 468              		.cfi_endproc
 469              	.LFE328:
 470              		.size	i2c_lld_serve_rx_end_irq, .-i2c_lld_serve_rx_end_irq
 471              		.section	.text.i2c_lld_serve_error_interrupt,"ax",%progbits
 472              		.align	1
 473              		.syntax unified
 474              		.thumb
 475              		.thumb_func
 476              		.fpu fpv4-sp-d16
 477              		.type	i2c_lld_serve_error_interrupt, %function
 478              	i2c_lld_serve_error_interrupt:
 479              	.LFB330:
 480              		.loc 1 403 0
 481              		.cfi_startproc
 482              		@ args = 0, pretend = 0, frame = 0
 483              		@ frame_needed = 0, uses_anonymous_args = 0
 484              	.LVL34:
 485              		.loc 1 406 0
 486 0000 036B     		ldr	r3, [r0, #48]
 487 0002 1A68     		ldr	r2, [r3]
 488              		.loc 1 403 0
 489 0004 10B5     		push	{r4, lr}
 490              		.cfi_def_cfa_offset 8
 491              		.cfi_offset 4, -8
 492              		.cfi_offset 14, -4
 493              		.loc 1 403 0
 494 0006 0446     		mov	r4, r0
 495              		.loc 1 406 0
 496 0008 1068     		ldr	r0, [r2]
 497              	.LVL35:
 498 000a 20F01F00 		bic	r0, r0, #31
 499 000e 1060     		str	r0, [r2]
 500              	.L52:
 501              		.loc 1 406 0 is_stmt 0 discriminator 2
 502 0010 1068     		ldr	r0, [r2]
 503 0012 C007     		lsls	r0, r0, #31
 504 0014 FCD4     		bmi	.L52
 505              		.loc 1 406 0 discriminator 3
 506 0016 587A     		ldrb	r0, [r3, #9]	@ zero_extendqisi2
 507 0018 5A68     		ldr	r2, [r3, #4]
 508 001a 3D23     		movs	r3, #61
 509 001c 8340     		lsls	r3, r3, r0
 510 001e 1360     		str	r3, [r2]
 511              		.loc 1 407 0 is_stmt 1 discriminator 3
 512 0020 E36A     		ldr	r3, [r4, #44]
 513 0022 1A68     		ldr	r2, [r3]
ARM GAS  /tmp/ccq7nZSP.s 			page 10


 514 0024 1068     		ldr	r0, [r2]
 515 0026 20F01F00 		bic	r0, r0, #31
 516 002a 1060     		str	r0, [r2]
 517              	.L53:
 518              		.loc 1 407 0 is_stmt 0 discriminator 2
 519 002c 1068     		ldr	r0, [r2]
 520 002e C007     		lsls	r0, r0, #31
 521 0030 FCD4     		bmi	.L53
 522              		.loc 1 407 0 discriminator 3
 523 0032 587A     		ldrb	r0, [r3, #9]	@ zero_extendqisi2
 524 0034 5A68     		ldr	r2, [r3, #4]
 525 0036 3D23     		movs	r3, #61
 526 0038 8340     		lsls	r3, r3, r0
 527 003a 1360     		str	r3, [r2]
 528              		.loc 1 411 0 is_stmt 1 discriminator 3
 529 003c 11F48073 		ands	r3, r1, #256
 530              		.loc 1 412 0 discriminator 3
 531 0040 18BF     		it	ne
 532 0042 0123     		movne	r3, #1
 533 0044 A360     		str	r3, [r4, #8]
 534              		.loc 1 414 0 discriminator 3
 535 0046 8805     		lsls	r0, r1, #22
 536              		.loc 1 415 0 discriminator 3
 537 0048 42BF     		ittt	mi
 538 004a A368     		ldrmi	r3, [r4, #8]
 539 004c 43F00203 		orrmi	r3, r3, #2
 540 0050 A360     		strmi	r3, [r4, #8]
 541              		.loc 1 417 0 discriminator 3
 542 0052 4A05     		lsls	r2, r1, #21
 543 0054 0CD5     		bpl	.L57
 544              		.loc 1 418 0
 545 0056 636B     		ldr	r3, [r4, #52]
 546 0058 5A68     		ldr	r2, [r3, #4]
 547 005a 22F40072 		bic	r2, r2, #512
 548 005e 5A60     		str	r2, [r3, #4]
 549              		.loc 1 419 0
 550 0060 1A68     		ldr	r2, [r3]
 551 0062 42F40072 		orr	r2, r2, #512
 552 0066 1A60     		str	r2, [r3]
 553              		.loc 1 420 0
 554 0068 A368     		ldr	r3, [r4, #8]
 555 006a 43F00403 		orr	r3, r3, #4
 556 006e A360     		str	r3, [r4, #8]
 557              	.L57:
 558              		.loc 1 423 0
 559 0070 0B05     		lsls	r3, r1, #20
 560              		.loc 1 424 0
 561 0072 42BF     		ittt	mi
 562 0074 A368     		ldrmi	r3, [r4, #8]
 563 0076 43F00803 		orrmi	r3, r3, #8
 564 007a A360     		strmi	r3, [r4, #8]
 565              		.loc 1 426 0
 566 007c 4804     		lsls	r0, r1, #17
 567              		.loc 1 427 0
 568 007e 42BF     		ittt	mi
 569 0080 A368     		ldrmi	r3, [r4, #8]
 570 0082 43F02003 		orrmi	r3, r3, #32
ARM GAS  /tmp/ccq7nZSP.s 			page 11


 571 0086 A360     		strmi	r3, [r4, #8]
 572              		.loc 1 429 0
 573 0088 CA04     		lsls	r2, r1, #19
 574              		.loc 1 430 0
 575 008a 42BF     		ittt	mi
 576 008c A368     		ldrmi	r3, [r4, #8]
 577 008e 43F01003 		orrmi	r3, r3, #16
 578 0092 A360     		strmi	r3, [r4, #8]
 579              		.loc 1 432 0
 580 0094 0B04     		lsls	r3, r1, #16
 581              		.loc 1 433 0
 582 0096 42BF     		ittt	mi
 583 0098 A368     		ldrmi	r3, [r4, #8]
 584 009a 43F04003 		orrmi	r3, r3, #64
 585 009e A360     		strmi	r3, [r4, #8]
 586              		.loc 1 436 0
 587 00a0 A368     		ldr	r3, [r4, #8]
 588 00a2 7BB1     		cbz	r3, .L51
 589              	.LVL36:
 590              	.LBB160:
 591              	.LBB161:
 592              	.LBB162:
 593              	.LBB163:
 594              	.LBB164:
 595              	.LBB165:
 596              	.LBB166:
 597              		.loc 2 493 0
 598 00a4 2023     		movs	r3, #32
 599              		.syntax unified
 600              	@ 493 "../../modules/ChibiOS/os/common/ext/ARM/CMSIS/Core/Include/cmsis_gcc.h" 1
 601 00a6 83F31188 		MSR basepri, r3
 602              	@ 0 "" 2
 603              	.LVL37:
 604              		.thumb
 605              		.syntax unified
 606              	.LBE166:
 607              	.LBE165:
 608              	.LBE164:
 609              	.LBE163:
 610              		.loc 3 396 0
 611 00aa FFF7FEFF 		bl	_stats_start_measure_crit_isr
 612              	.LVL38:
 613              	.LBE162:
 614              	.LBE161:
 615              	.LBE160:
 616              	.LBB167:
 617              	.LBB168:
 618              		.loc 4 775 0
 619 00ae 6FF00101 		mvn	r1, #1
 620 00b2 04F11C00 		add	r0, r4, #28
 621              	.LVL39:
 622 00b6 FFF7FEFF 		bl	chThdResumeI
 623              	.LVL40:
 624              	.LBE168:
 625              	.LBE167:
 626              	.LBB169:
 627              	.LBB170:
ARM GAS  /tmp/ccq7nZSP.s 			page 12


 628              	.LBB171:
 629              		.loc 3 416 0
 630 00ba FFF7FEFF 		bl	_stats_stop_measure_crit_isr
 631              	.LVL41:
 632              	.LBB172:
 633              	.LBB173:
 634              	.LBB174:
 635              	.LBB175:
 636              		.loc 2 493 0
 637 00be 0023     		movs	r3, #0
 638              		.syntax unified
 639              	@ 493 "../../modules/ChibiOS/os/common/ext/ARM/CMSIS/Core/Include/cmsis_gcc.h" 1
 640 00c0 83F31188 		MSR basepri, r3
 641              	@ 0 "" 2
 642              	.LVL42:
 643              		.thumb
 644              		.syntax unified
 645              	.L51:
 646 00c4 10BD     		pop	{r4, pc}
 647              	.LBE175:
 648              	.LBE174:
 649              	.LBE173:
 650              	.LBE172:
 651              	.LBE171:
 652              	.LBE170:
 653              	.LBE169:
 654              		.cfi_endproc
 655              	.LFE330:
 656              		.size	i2c_lld_serve_error_interrupt, .-i2c_lld_serve_error_interrupt
 657              		.section	.text.VectorBC,"ax",%progbits
 658              		.align	1
 659              		.global	VectorBC
 660              		.syntax unified
 661              		.thumb
 662              		.thumb_func
 663              		.fpu fpv4-sp-d16
 664              		.type	VectorBC, %function
 665              	VectorBC:
 666              	.LFB331:
 667              		.loc 1 450 0
 668              		.cfi_startproc
 669              		@ args = 0, pretend = 0, frame = 0
 670              		@ frame_needed = 0, uses_anonymous_args = 0
 671 0000 08B5     		push	{r3, lr}
 672              		.cfi_def_cfa_offset 8
 673              		.cfi_offset 3, -8
 674              		.cfi_offset 14, -4
 675              		.loc 1 452 0
 676 0002 FFF7FEFF 		bl	_stats_increase_irq
 677              	.LVL43:
 678              		.loc 1 454 0
 679 0006 0348     		ldr	r0, .L85
 680 0008 FFF7FEFF 		bl	i2c_lld_serve_event_interrupt
 681              	.LVL44:
 682              		.loc 1 457 0
 683 000c BDE80840 		pop	{r3, lr}
 684              		.cfi_restore 14
ARM GAS  /tmp/ccq7nZSP.s 			page 13


 685              		.cfi_restore 3
 686              		.cfi_def_cfa_offset 0
 687              		.loc 1 456 0
 688 0010 FFF7FEBF 		b	_port_irq_epilogue
 689              	.LVL45:
 690              	.L86:
 691              		.align	2
 692              	.L85:
 693 0014 00000000 		.word	.LANCHOR0
 694              		.cfi_endproc
 695              	.LFE331:
 696              		.size	VectorBC, .-VectorBC
 697              		.section	.text.VectorC0,"ax",%progbits
 698              		.align	1
 699              		.global	VectorC0
 700              		.syntax unified
 701              		.thumb
 702              		.thumb_func
 703              		.fpu fpv4-sp-d16
 704              		.type	VectorC0, %function
 705              	VectorC0:
 706              	.LFB332:
 707              		.loc 1 462 0
 708              		.cfi_startproc
 709              		@ args = 0, pretend = 0, frame = 0
 710              		@ frame_needed = 0, uses_anonymous_args = 0
 711 0000 38B5     		push	{r3, r4, r5, lr}
 712              		.cfi_def_cfa_offset 16
 713              		.cfi_offset 3, -16
 714              		.cfi_offset 4, -12
 715              		.cfi_offset 5, -8
 716              		.cfi_offset 14, -4
 717              		.loc 1 463 0
 718 0002 094C     		ldr	r4, .L88
 719 0004 636B     		ldr	r3, [r4, #52]
 720 0006 5D69     		ldr	r5, [r3, #20]
 721              	.LVL46:
 722              		.loc 1 465 0
 723 0008 FFF7FEFF 		bl	_stats_increase_irq
 724              	.LVL47:
 725              		.loc 1 467 0
 726 000c 626B     		ldr	r2, [r4, #52]
 727 000e 05F45F43 		and	r3, r5, #57088
 728 0012 DB43     		mvns	r3, r3
 729 0014 5361     		str	r3, [r2, #20]
 730              		.loc 1 468 0
 731 0016 A9B2     		uxth	r1, r5
 732 0018 2046     		mov	r0, r4
 733 001a FFF7FEFF 		bl	i2c_lld_serve_error_interrupt
 734              	.LVL48:
 735              		.loc 1 471 0
 736 001e BDE83840 		pop	{r3, r4, r5, lr}
 737              		.cfi_restore 14
 738              		.cfi_restore 5
 739              		.cfi_restore 4
 740              		.cfi_restore 3
 741              		.cfi_def_cfa_offset 0
ARM GAS  /tmp/ccq7nZSP.s 			page 14


 742              	.LVL49:
 743              		.loc 1 470 0
 744 0022 FFF7FEBF 		b	_port_irq_epilogue
 745              	.LVL50:
 746              	.L89:
 747 0026 00BF     		.align	2
 748              	.L88:
 749 0028 00000000 		.word	.LANCHOR0
 750              		.cfi_endproc
 751              	.LFE332:
 752              		.size	VectorC0, .-VectorC0
 753              		.section	.text.VectorC4,"ax",%progbits
 754              		.align	1
 755              		.global	VectorC4
 756              		.syntax unified
 757              		.thumb
 758              		.thumb_func
 759              		.fpu fpv4-sp-d16
 760              		.type	VectorC4, %function
 761              	VectorC4:
 762              	.LFB333:
 763              		.loc 1 480 0
 764              		.cfi_startproc
 765              		@ args = 0, pretend = 0, frame = 0
 766              		@ frame_needed = 0, uses_anonymous_args = 0
 767 0000 08B5     		push	{r3, lr}
 768              		.cfi_def_cfa_offset 8
 769              		.cfi_offset 3, -8
 770              		.cfi_offset 14, -4
 771              		.loc 1 482 0
 772 0002 FFF7FEFF 		bl	_stats_increase_irq
 773              	.LVL51:
 774              		.loc 1 484 0
 775 0006 0348     		ldr	r0, .L91
 776 0008 FFF7FEFF 		bl	i2c_lld_serve_event_interrupt
 777              	.LVL52:
 778              		.loc 1 487 0
 779 000c BDE80840 		pop	{r3, lr}
 780              		.cfi_restore 14
 781              		.cfi_restore 3
 782              		.cfi_def_cfa_offset 0
 783              		.loc 1 486 0
 784 0010 FFF7FEBF 		b	_port_irq_epilogue
 785              	.LVL53:
 786              	.L92:
 787              		.align	2
 788              	.L91:
 789 0014 00000000 		.word	.LANCHOR1
 790              		.cfi_endproc
 791              	.LFE333:
 792              		.size	VectorC4, .-VectorC4
 793              		.section	.text.VectorC8,"ax",%progbits
 794              		.align	1
 795              		.global	VectorC8
 796              		.syntax unified
 797              		.thumb
 798              		.thumb_func
ARM GAS  /tmp/ccq7nZSP.s 			page 15


 799              		.fpu fpv4-sp-d16
 800              		.type	VectorC8, %function
 801              	VectorC8:
 802              	.LFB334:
 803              		.loc 1 494 0
 804              		.cfi_startproc
 805              		@ args = 0, pretend = 0, frame = 0
 806              		@ frame_needed = 0, uses_anonymous_args = 0
 807 0000 38B5     		push	{r3, r4, r5, lr}
 808              		.cfi_def_cfa_offset 16
 809              		.cfi_offset 3, -16
 810              		.cfi_offset 4, -12
 811              		.cfi_offset 5, -8
 812              		.cfi_offset 14, -4
 813              		.loc 1 495 0
 814 0002 094C     		ldr	r4, .L94
 815 0004 636B     		ldr	r3, [r4, #52]
 816 0006 5D69     		ldr	r5, [r3, #20]
 817              	.LVL54:
 818              		.loc 1 497 0
 819 0008 FFF7FEFF 		bl	_stats_increase_irq
 820              	.LVL55:
 821              		.loc 1 499 0
 822 000c 626B     		ldr	r2, [r4, #52]
 823 000e 05F45F43 		and	r3, r5, #57088
 824 0012 DB43     		mvns	r3, r3
 825 0014 5361     		str	r3, [r2, #20]
 826              		.loc 1 500 0
 827 0016 A9B2     		uxth	r1, r5
 828 0018 2046     		mov	r0, r4
 829 001a FFF7FEFF 		bl	i2c_lld_serve_error_interrupt
 830              	.LVL56:
 831              		.loc 1 503 0
 832 001e BDE83840 		pop	{r3, r4, r5, lr}
 833              		.cfi_restore 14
 834              		.cfi_restore 5
 835              		.cfi_restore 4
 836              		.cfi_restore 3
 837              		.cfi_def_cfa_offset 0
 838              	.LVL57:
 839              		.loc 1 502 0
 840 0022 FFF7FEBF 		b	_port_irq_epilogue
 841              	.LVL58:
 842              	.L95:
 843 0026 00BF     		.align	2
 844              	.L94:
 845 0028 00000000 		.word	.LANCHOR1
 846              		.cfi_endproc
 847              	.LFE334:
 848              		.size	VectorC8, .-VectorC8
 849              		.section	.text.i2c_lld_init,"ax",%progbits
 850              		.align	1
 851              		.global	i2c_lld_init
 852              		.syntax unified
 853              		.thumb
 854              		.thumb_func
 855              		.fpu fpv4-sp-d16
ARM GAS  /tmp/ccq7nZSP.s 			page 16


 856              		.type	i2c_lld_init, %function
 857              	i2c_lld_init:
 858              	.LFB335:
 859              		.loc 1 547 0
 860              		.cfi_startproc
 861              		@ args = 0, pretend = 0, frame = 0
 862              		@ frame_needed = 0, uses_anonymous_args = 0
 863 0000 38B5     		push	{r3, r4, r5, lr}
 864              		.cfi_def_cfa_offset 16
 865              		.cfi_offset 3, -16
 866              		.cfi_offset 4, -12
 867              		.cfi_offset 5, -8
 868              		.cfi_offset 14, -4
 869              		.loc 1 550 0
 870 0002 0A4D     		ldr	r5, .L97
 871 0004 2846     		mov	r0, r5
 872 0006 FFF7FEFF 		bl	i2cObjectInit
 873              	.LVL59:
 874              		.loc 1 551 0
 875 000a 0024     		movs	r4, #0
 876              		.loc 1 552 0
 877 000c 084B     		ldr	r3, .L97+4
 878 000e 6B63     		str	r3, [r5, #52]
 879              		.loc 1 551 0
 880 0010 EC61     		str	r4, [r5, #28]
 881              		.loc 1 553 0
 882 0012 EC62     		str	r4, [r5, #44]
 883              		.loc 1 554 0
 884 0014 2C63     		str	r4, [r5, #48]
 885              		.loc 1 558 0
 886 0016 074D     		ldr	r5, .L97+8
 887 0018 2846     		mov	r0, r5
 888 001a FFF7FEFF 		bl	i2cObjectInit
 889              	.LVL60:
 890              		.loc 1 560 0
 891 001e 064B     		ldr	r3, .L97+12
 892              		.loc 1 559 0
 893 0020 EC61     		str	r4, [r5, #28]
 894              		.loc 1 560 0
 895 0022 6B63     		str	r3, [r5, #52]
 896              		.loc 1 561 0
 897 0024 EC62     		str	r4, [r5, #44]
 898              		.loc 1 562 0
 899 0026 2C63     		str	r4, [r5, #48]
 900 0028 38BD     		pop	{r3, r4, r5, pc}
 901              	.L98:
 902 002a 00BF     		.align	2
 903              	.L97:
 904 002c 00000000 		.word	.LANCHOR0
 905 0030 00540040 		.word	1073763328
 906 0034 00000000 		.word	.LANCHOR1
 907 0038 00580040 		.word	1073764352
 908              		.cfi_endproc
 909              	.LFE335:
 910              		.size	i2c_lld_init, .-i2c_lld_init
 911              		.section	.text.i2c_lld_start,"ax",%progbits
 912              		.align	1
ARM GAS  /tmp/ccq7nZSP.s 			page 17


 913              		.global	i2c_lld_start
 914              		.syntax unified
 915              		.thumb
 916              		.thumb_func
 917              		.fpu fpv4-sp-d16
 918              		.type	i2c_lld_start, %function
 919              	i2c_lld_start:
 920              	.LFB336:
 921              		.loc 1 581 0
 922              		.cfi_startproc
 923              		@ args = 0, pretend = 0, frame = 0
 924              		@ frame_needed = 0, uses_anonymous_args = 0
 925              	.LVL61:
 926              		.loc 1 585 0
 927 0000 0378     		ldrb	r3, [r0]	@ zero_extendqisi2
 928 0002 012B     		cmp	r3, #1
 929              		.loc 1 581 0
 930 0004 70B5     		push	{r4, r5, r6, lr}
 931              		.cfi_def_cfa_offset 16
 932              		.cfi_offset 4, -16
 933              		.cfi_offset 5, -12
 934              		.cfi_offset 6, -8
 935              		.cfi_offset 14, -4
 936              		.loc 1 581 0
 937 0006 0446     		mov	r4, r0
 938              		.loc 1 582 0
 939 0008 456B     		ldr	r5, [r0, #52]
 940              	.LVL62:
 941              		.loc 1 585 0
 942 000a 38D1     		bne	.L101
 943              		.loc 1 587 0
 944 000c 40F25643 		movw	r3, #1110
 945 0010 8362     		str	r3, [r0, #40]
 946              		.loc 1 591 0
 947 0012 40F21643 		movw	r3, #1046
 948 0016 4362     		str	r3, [r0, #36]
 949              		.loc 1 597 0
 950 0018 634B     		ldr	r3, .L116
 951 001a 9842     		cmp	r0, r3
 952 001c 6DD1     		bne	.L102
 953              		.loc 1 598 0
 954 001e 634E     		ldr	r6, .L116+4
 955              		.loc 1 600 0
 956 0020 634A     		ldr	r2, .L116+8
 957              		.loc 1 598 0
 958 0022 336A     		ldr	r3, [r6, #32]
 959 0024 43F40013 		orr	r3, r3, #2097152
 960 0028 3362     		str	r3, [r6, #32]
 961 002a 336A     		ldr	r3, [r6, #32]
 962 002c 23F40013 		bic	r3, r3, #2097152
 963 0030 3362     		str	r3, [r6, #32]
 964 0032 336A     		ldr	r3, [r6, #32]
 965              		.loc 1 600 0
 966 0034 0521     		movs	r1, #5
 967 0036 0346     		mov	r3, r0
 968 0038 0020     		movs	r0, #0
 969              	.LVL63:
ARM GAS  /tmp/ccq7nZSP.s 			page 18


 970 003a FFF7FEFF 		bl	dmaStreamAllocI
 971              	.LVL64:
 972              		.loc 1 605 0
 973 003e 5D4A     		ldr	r2, .L116+12
 974              		.loc 1 600 0
 975 0040 E062     		str	r0, [r4, #44]
 976              		.loc 1 605 0
 977 0042 2346     		mov	r3, r4
 978 0044 0521     		movs	r1, #5
 979 0046 0620     		movs	r0, #6
 980 0048 FFF7FEFF 		bl	dmaStreamAllocI
 981              	.LVL65:
 982              		.loc 1 611 0
 983 004c 336C     		ldr	r3, [r6, #64]
 984              		.loc 1 605 0
 985 004e 2063     		str	r0, [r4, #48]
 986              		.loc 1 611 0
 987 0050 43F40013 		orr	r3, r3, #2097152
 988 0054 3364     		str	r3, [r6, #64]
 989 0056 336E     		ldr	r3, [r6, #96]
 990 0058 43F40013 		orr	r3, r3, #2097152
 991 005c 3366     		str	r3, [r6, #96]
 992              		.loc 1 612 0
 993 005e 0521     		movs	r1, #5
 994 0060 1F20     		movs	r0, #31
 995              		.loc 1 611 0
 996 0062 336E     		ldr	r3, [r6, #96]
 997              		.loc 1 612 0
 998 0064 FFF7FEFF 		bl	nvicEnableVector
 999              	.LVL66:
 1000              		.loc 1 613 0
 1001 0068 0521     		movs	r1, #5
 1002 006a 2020     		movs	r0, #32
 1003 006c FFF7FEFF 		bl	nvicEnableVector
 1004              	.LVL67:
 1005              		.loc 1 615 0
 1006 0070 626A     		ldr	r2, [r4, #36]
 1007 0072 5149     		ldr	r1, .L116+16
 1008              	.L114:
 1009              		.loc 1 643 0
 1010 0074 A36A     		ldr	r3, [r4, #40]
 1011              		.loc 1 641 0
 1012 0076 0A43     		orrs	r2, r2, r1
 1013              		.loc 1 643 0
 1014 0078 0B43     		orrs	r3, r3, r1
 1015              		.loc 1 641 0
 1016 007a 6262     		str	r2, [r4, #36]
 1017              		.loc 1 643 0
 1018 007c A362     		str	r3, [r4, #40]
 1019              	.L101:
 1020              		.loc 1 676 0
 1021 007e E36A     		ldr	r3, [r4, #44]
 1022              	.LBB182:
 1023              	.LBB183:
 1024              		.loc 1 144 0
 1025 0080 616B     		ldr	r1, [r4, #52]
 1026              	.LBE183:
ARM GAS  /tmp/ccq7nZSP.s 			page 19


 1027              	.LBE182:
 1028              		.loc 1 676 0
 1029 0082 1A68     		ldr	r2, [r3]
 1030              	.LBB188:
 1031              	.LBB184:
 1032              		.loc 1 146 0
 1033 0084 6068     		ldr	r0, [r4, #4]
 1034              	.LBE184:
 1035              	.LBE188:
 1036              		.loc 1 676 0
 1037 0086 05F11003 		add	r3, r5, #16
 1038 008a 9360     		str	r3, [r2, #8]
 1039              		.loc 1 677 0
 1040 008c 226B     		ldr	r2, [r4, #48]
 1041              	.LBB189:
 1042              	.LBB185:
 1043              		.loc 1 147 0
 1044 008e 067A     		ldrb	r6, [r0, #8]	@ zero_extendqisi2
 1045              	.LBE185:
 1046              	.LBE189:
 1047              		.loc 1 677 0
 1048 0090 1268     		ldr	r2, [r2]
 1049 0092 9360     		str	r3, [r2, #8]
 1050              		.loc 1 680 0
 1051 0094 4FF40043 		mov	r3, #32768
 1052 0098 2B60     		str	r3, [r5]
 1053              		.loc 1 682 0
 1054 009a 4FF41062 		mov	r2, #2304
 1055              		.loc 1 681 0
 1056 009e 0023     		movs	r3, #0
 1057 00a0 2B60     		str	r3, [r5]
 1058              		.loc 1 682 0
 1059 00a2 6A60     		str	r2, [r5, #4]
 1060              	.LVL68:
 1061              	.LBB190:
 1062              	.LBB186:
 1063              		.loc 1 154 0
 1064 00a4 4C68     		ldr	r4, [r1, #4]
 1065              	.LVL69:
 1066              		.loc 1 146 0
 1067 00a6 4268     		ldr	r2, [r0, #4]
 1068              	.LVL70:
 1069              		.loc 1 154 0
 1070 00a8 24F03F04 		bic	r4, r4, #63
 1071 00ac 2404     		lsls	r4, r4, #16
 1072 00ae 240C     		lsrs	r4, r4, #16
 1073 00b0 4C60     		str	r4, [r1, #4]
 1074              		.loc 1 155 0
 1075 00b2 4C68     		ldr	r4, [r1, #4]
 1076 00b4 44F02A04 		orr	r4, r4, #42
 1077 00b8 4C60     		str	r4, [r1, #4]
 1078              	.LVL71:
 1079              		.loc 1 161 0
 1080 00ba 404C     		ldr	r4, .L116+20
 1081 00bc A242     		cmp	r2, r4
 1082 00be 4BDC     		bgt	.L104
 1083              	.LVL72:
ARM GAS  /tmp/ccq7nZSP.s 			page 20


 1084              		.loc 1 168 0
 1085 00c0 5200     		lsls	r2, r2, #1
 1086              	.LVL73:
 1087 00c2 3F4B     		ldr	r3, .L116+24
 1088 00c4 B3FBF2F3 		udiv	r3, r3, r2
 1089              		.loc 1 175 0
 1090 00c8 2B22     		movs	r2, #43
 1091              		.loc 1 172 0
 1092 00ca C3F30B03 		ubfx	r3, r3, #0, #12
 1093              	.LVL74:
 1094              	.L115:
 1095              		.loc 1 202 0
 1096 00ce 0A62     		str	r2, [r1, #32]
 1097              	.LVL75:
 1098              	.L105:
 1099              		.loc 1 207 0
 1100 00d0 CB61     		str	r3, [r1, #28]
 1101              	.LVL76:
 1102              	.LBE186:
 1103              	.LBE190:
 1104              	.LBB191:
 1105              	.LBB192:
 1106              		.loc 1 244 0
 1107 00d2 1F23     		movs	r3, #31
 1108 00d4 4B62     		str	r3, [r1, #36]
 1109              	.LVL77:
 1110              	.LBE192:
 1111              	.LBE191:
 1112              	.LBB193:
 1113              	.LBB194:
 1114              		.loc 1 261 0
 1115 00d6 0278     		ldrb	r2, [r0]	@ zero_extendqisi2
 1116              		.loc 1 260 0
 1117 00d8 0B68     		ldr	r3, [r1]
 1118              		.loc 1 261 0
 1119 00da 022A     		cmp	r2, #2
 1120              		.loc 1 260 0
 1121 00dc 9BB2     		uxth	r3, r3
 1122              	.LVL78:
 1123              		.loc 1 261 0
 1124 00de 59D0     		beq	.L109
 1125 00e0 032A     		cmp	r2, #3
 1126 00e2 5DD0     		beq	.L110
 1127 00e4 012A     		cmp	r2, #1
 1128 00e6 02D1     		bne	.L108
 1129              		.loc 1 263 0
 1130 00e8 23F00A03 		bic	r3, r3, #10
 1131              	.LVL79:
 1132 00ec 9BB2     		uxth	r3, r3
 1133              	.LVL80:
 1134              	.L108:
 1135              		.loc 1 273 0
 1136 00ee 0B60     		str	r3, [r1]
 1137              	.LVL81:
 1138              	.LBE194:
 1139              	.LBE193:
 1140              		.loc 1 690 0
ARM GAS  /tmp/ccq7nZSP.s 			page 21


 1141 00f0 2B68     		ldr	r3, [r5]
 1142 00f2 43F00103 		orr	r3, r3, #1
 1143 00f6 2B60     		str	r3, [r5]
 1144 00f8 70BD     		pop	{r4, r5, r6, pc}
 1145              	.LVL82:
 1146              	.L102:
 1147              		.loc 1 623 0
 1148 00fa 324B     		ldr	r3, .L116+28
 1149 00fc 9842     		cmp	r0, r3
 1150 00fe BED1     		bne	.L101
 1151              		.loc 1 624 0
 1152 0100 2A4E     		ldr	r6, .L116+4
 1153              		.loc 1 626 0
 1154 0102 2B4A     		ldr	r2, .L116+8
 1155              		.loc 1 624 0
 1156 0104 336A     		ldr	r3, [r6, #32]
 1157 0106 43F48003 		orr	r3, r3, #4194304
 1158 010a 3362     		str	r3, [r6, #32]
 1159 010c 336A     		ldr	r3, [r6, #32]
 1160 010e 23F48003 		bic	r3, r3, #4194304
 1161 0112 3362     		str	r3, [r6, #32]
 1162 0114 336A     		ldr	r3, [r6, #32]
 1163              		.loc 1 626 0
 1164 0116 0521     		movs	r1, #5
 1165 0118 0346     		mov	r3, r0
 1166 011a 0320     		movs	r0, #3
 1167              	.LVL83:
 1168 011c FFF7FEFF 		bl	dmaStreamAllocI
 1169              	.LVL84:
 1170              		.loc 1 631 0
 1171 0120 244A     		ldr	r2, .L116+12
 1172              		.loc 1 626 0
 1173 0122 E062     		str	r0, [r4, #44]
 1174              		.loc 1 631 0
 1175 0124 2346     		mov	r3, r4
 1176 0126 0521     		movs	r1, #5
 1177 0128 0720     		movs	r0, #7
 1178 012a FFF7FEFF 		bl	dmaStreamAllocI
 1179              	.LVL85:
 1180              		.loc 1 637 0
 1181 012e 336C     		ldr	r3, [r6, #64]
 1182              		.loc 1 631 0
 1183 0130 2063     		str	r0, [r4, #48]
 1184              		.loc 1 637 0
 1185 0132 43F48003 		orr	r3, r3, #4194304
 1186 0136 3364     		str	r3, [r6, #64]
 1187 0138 336E     		ldr	r3, [r6, #96]
 1188 013a 43F48003 		orr	r3, r3, #4194304
 1189 013e 3366     		str	r3, [r6, #96]
 1190              		.loc 1 638 0
 1191 0140 0521     		movs	r1, #5
 1192 0142 2120     		movs	r0, #33
 1193              		.loc 1 637 0
 1194 0144 336E     		ldr	r3, [r6, #96]
 1195              		.loc 1 638 0
 1196 0146 FFF7FEFF 		bl	nvicEnableVector
 1197              	.LVL86:
ARM GAS  /tmp/ccq7nZSP.s 			page 22


 1198              		.loc 1 639 0
 1199 014a 0521     		movs	r1, #5
 1200 014c 2220     		movs	r0, #34
 1201 014e FFF7FEFF 		bl	nvicEnableVector
 1202              	.LVL87:
 1203              		.loc 1 641 0
 1204 0152 626A     		ldr	r2, [r4, #36]
 1205 0154 1C49     		ldr	r1, .L116+32
 1206 0156 8DE7     		b	.L114
 1207              	.LVL88:
 1208              	.L104:
 1209              	.LBB196:
 1210              	.LBB187:
 1211              		.loc 1 177 0
 1212 0158 1C4C     		ldr	r4, .L116+36
 1213 015a A242     		cmp	r2, r4
 1214 015c B8DC     		bgt	.L105
 1215              		.loc 1 183 0
 1216 015e 022E     		cmp	r6, #2
 1217 0160 0AD1     		bne	.L106
 1218              		.loc 1 187 0
 1219 0162 02EB4204 		add	r4, r2, r2, lsl #1
 1220 0166 164A     		ldr	r2, .L116+24
 1221              	.LVL89:
 1222 0168 B2FBF4F2 		udiv	r2, r2, r4
 1223 016c 92B2     		uxth	r2, r2
 1224              	.LVL90:
 1225              	.L107:
 1226              		.loc 1 199 0
 1227 016e 1A43     		orrs	r2, r2, r3
 1228              	.LVL91:
 1229 0170 42F40043 		orr	r3, r2, #32768
 1230              	.LVL92:
 1231              		.loc 1 202 0
 1232 0174 0D22     		movs	r2, #13
 1233 0176 AAE7     		b	.L115
 1234              	.LVL93:
 1235              	.L106:
 1236              		.loc 1 189 0
 1237 0178 032E     		cmp	r6, #3
 1238              		.loc 1 193 0
 1239 017a 01BF     		itttt	eq
 1240 017c 1923     		moveq	r3, #25
 1241 017e 5343     		muleq	r3, r3, r2
 1242 0180 0F4A     		ldreq	r2, .L116+24
 1243              	.LVL94:
 1244 0182 B2FBF3F2 		udiveq	r2, r2, r3
 1245              		.loc 1 159 0
 1246 0186 12BF     		itee	ne
 1247 0188 40F6FF72 		movwne	r2, #4095
 1248              		.loc 1 193 0
 1249 018c 92B2     		uxtheq	r2, r2
 1250              	.LVL95:
 1251              		.loc 1 194 0
 1252 018e 4FF48043 		moveq	r3, #16384
 1253 0192 ECE7     		b	.L107
 1254              	.LVL96:
ARM GAS  /tmp/ccq7nZSP.s 			page 23


 1255              	.L109:
 1256 0194 23F00803 		bic	r3, r3, #8
 1257              	.LVL97:
 1258 0198 9BB2     		uxth	r3, r3
 1259              	.LBE187:
 1260              	.LBE196:
 1261              	.LBB197:
 1262              	.LBB195:
 1263              		.loc 1 267 0
 1264 019a 43F00203 		orr	r3, r3, #2
 1265              	.LVL98:
 1266 019e A6E7     		b	.L108
 1267              	.L110:
 1268              		.loc 1 270 0
 1269 01a0 43F00A03 		orr	r3, r3, #10
 1270              	.LVL99:
 1271 01a4 A3E7     		b	.L108
 1272              	.L117:
 1273 01a6 00BF     		.align	2
 1274              	.L116:
 1275 01a8 00000000 		.word	.LANCHOR0
 1276 01ac 00380240 		.word	1073887232
 1277 01b0 00000000 		.word	i2c_lld_serve_rx_end_irq
 1278 01b4 00000000 		.word	i2c_lld_serve_tx_end_irq
 1279 01b8 00000302 		.word	33751040
 1280 01bc A0860100 		.word	100000
 1281 01c0 80DE8002 		.word	42000000
 1282 01c4 00000000 		.word	.LANCHOR1
 1283 01c8 0000030E 		.word	235077632
 1284 01cc 801A0600 		.word	400000
 1285              	.LBE195:
 1286              	.LBE197:
 1287              		.cfi_endproc
 1288              	.LFE336:
 1289              		.size	i2c_lld_start, .-i2c_lld_start
 1290              		.section	.text.i2c_lld_stop,"ax",%progbits
 1291              		.align	1
 1292              		.global	i2c_lld_stop
 1293              		.syntax unified
 1294              		.thumb
 1295              		.thumb_func
 1296              		.fpu fpv4-sp-d16
 1297              		.type	i2c_lld_stop, %function
 1298              	i2c_lld_stop:
 1299              	.LFB337:
 1300              		.loc 1 700 0
 1301              		.cfi_startproc
 1302              		@ args = 0, pretend = 0, frame = 0
 1303              		@ frame_needed = 0, uses_anonymous_args = 0
 1304              	.LVL100:
 1305 0000 38B5     		push	{r3, r4, r5, lr}
 1306              		.cfi_def_cfa_offset 16
 1307              		.cfi_offset 3, -16
 1308              		.cfi_offset 4, -12
 1309              		.cfi_offset 5, -8
 1310              		.cfi_offset 14, -4
 1311              		.loc 1 703 0
ARM GAS  /tmp/ccq7nZSP.s 			page 24


 1312 0002 0378     		ldrb	r3, [r0]	@ zero_extendqisi2
 1313 0004 012B     		cmp	r3, #1
 1314              		.loc 1 700 0
 1315 0006 0446     		mov	r4, r0
 1316              		.loc 1 703 0
 1317 0008 3ED0     		beq	.L118
 1318              	.LVL101:
 1319              	.LBB200:
 1320              	.LBB201:
 1321              		.loc 1 123 0
 1322 000a 436B     		ldr	r3, [r0, #52]
 1323              	.LVL102:
 1324              		.loc 1 132 0
 1325 000c 006B     		ldr	r0, [r0, #48]
 1326              	.LVL103:
 1327              		.loc 1 126 0
 1328 000e 4FF40042 		mov	r2, #32768
 1329 0012 1A60     		str	r2, [r3]
 1330              		.loc 1 127 0
 1331 0014 0022     		movs	r2, #0
 1332 0016 1A60     		str	r2, [r3]
 1333              		.loc 1 128 0
 1334 0018 5A60     		str	r2, [r3, #4]
 1335              		.loc 1 129 0
 1336 001a 5A61     		str	r2, [r3, #20]
 1337              		.loc 1 132 0
 1338 001c 0368     		ldr	r3, [r0]
 1339              	.LVL104:
 1340 001e 1A68     		ldr	r2, [r3]
 1341 0020 22F01F02 		bic	r2, r2, #31
 1342 0024 1A60     		str	r2, [r3]
 1343              	.L121:
 1344 0026 1A68     		ldr	r2, [r3]
 1345 0028 D207     		lsls	r2, r2, #31
 1346 002a FCD4     		bmi	.L121
 1347 002c 417A     		ldrb	r1, [r0, #9]	@ zero_extendqisi2
 1348 002e 4268     		ldr	r2, [r0, #4]
 1349 0030 3D23     		movs	r3, #61
 1350 0032 8B40     		lsls	r3, r3, r1
 1351 0034 1360     		str	r3, [r2]
 1352              		.loc 1 133 0
 1353 0036 E36A     		ldr	r3, [r4, #44]
 1354 0038 1A68     		ldr	r2, [r3]
 1355 003a 1168     		ldr	r1, [r2]
 1356 003c 21F01F01 		bic	r1, r1, #31
 1357 0040 1160     		str	r1, [r2]
 1358              	.L122:
 1359 0042 1568     		ldr	r5, [r2]
 1360 0044 15F00105 		ands	r5, r5, #1
 1361 0048 FBD1     		bne	.L122
 1362 004a 597A     		ldrb	r1, [r3, #9]	@ zero_extendqisi2
 1363 004c 5A68     		ldr	r2, [r3, #4]
 1364 004e 3D23     		movs	r3, #61
 1365 0050 8B40     		lsls	r3, r3, r1
 1366 0052 1360     		str	r3, [r2]
 1367              	.LVL105:
 1368              	.LBE201:
ARM GAS  /tmp/ccq7nZSP.s 			page 25


 1369              	.LBE200:
 1370              		.loc 1 707 0
 1371 0054 FFF7FEFF 		bl	dmaStreamFreeI
 1372              	.LVL106:
 1373              		.loc 1 708 0
 1374 0058 E06A     		ldr	r0, [r4, #44]
 1375 005a FFF7FEFF 		bl	dmaStreamFreeI
 1376              	.LVL107:
 1377              		.loc 1 713 0
 1378 005e 144B     		ldr	r3, .L128
 1379              		.loc 1 709 0
 1380 0060 2563     		str	r5, [r4, #48]
 1381              		.loc 1 713 0
 1382 0062 9C42     		cmp	r4, r3
 1383              		.loc 1 710 0
 1384 0064 E562     		str	r5, [r4, #44]
 1385              		.loc 1 713 0
 1386 0066 10D1     		bne	.L123
 1387              		.loc 1 714 0
 1388 0068 1F20     		movs	r0, #31
 1389 006a FFF7FEFF 		bl	nvicDisableVector
 1390              	.LVL108:
 1391              		.loc 1 715 0
 1392 006e 2020     		movs	r0, #32
 1393 0070 FFF7FEFF 		bl	nvicDisableVector
 1394              	.LVL109:
 1395              		.loc 1 716 0
 1396 0074 0F4B     		ldr	r3, .L128+4
 1397 0076 1A6C     		ldr	r2, [r3, #64]
 1398 0078 22F40012 		bic	r2, r2, #2097152
 1399 007c 1A64     		str	r2, [r3, #64]
 1400 007e 1A6E     		ldr	r2, [r3, #96]
 1401 0080 22F40012 		bic	r2, r2, #2097152
 1402              	.L127:
 1403              		.loc 1 724 0
 1404 0084 1A66     		str	r2, [r3, #96]
 1405 0086 1B6E     		ldr	r3, [r3, #96]
 1406              	.L118:
 1407 0088 38BD     		pop	{r3, r4, r5, pc}
 1408              	.LVL110:
 1409              	.L123:
 1410              		.loc 1 721 0
 1411 008a 0B4B     		ldr	r3, .L128+8
 1412 008c 9C42     		cmp	r4, r3
 1413 008e FBD1     		bne	.L118
 1414              		.loc 1 722 0
 1415 0090 2120     		movs	r0, #33
 1416 0092 FFF7FEFF 		bl	nvicDisableVector
 1417              	.LVL111:
 1418              		.loc 1 723 0
 1419 0096 2220     		movs	r0, #34
 1420 0098 FFF7FEFF 		bl	nvicDisableVector
 1421              	.LVL112:
 1422              		.loc 1 724 0
 1423 009c 054B     		ldr	r3, .L128+4
 1424 009e 1A6C     		ldr	r2, [r3, #64]
 1425 00a0 22F48002 		bic	r2, r2, #4194304
ARM GAS  /tmp/ccq7nZSP.s 			page 26


 1426 00a4 1A64     		str	r2, [r3, #64]
 1427 00a6 1A6E     		ldr	r2, [r3, #96]
 1428 00a8 22F48002 		bic	r2, r2, #4194304
 1429 00ac EAE7     		b	.L127
 1430              	.L129:
 1431 00ae 00BF     		.align	2
 1432              	.L128:
 1433 00b0 00000000 		.word	.LANCHOR0
 1434 00b4 00380240 		.word	1073887232
 1435 00b8 00000000 		.word	.LANCHOR1
 1436              		.cfi_endproc
 1437              	.LFE337:
 1438              		.size	i2c_lld_stop, .-i2c_lld_stop
 1439              		.section	.text.i2c_lld_master_receive_timeout,"ax",%progbits
 1440              		.align	1
 1441              		.global	i2c_lld_master_receive_timeout
 1442              		.syntax unified
 1443              		.thumb
 1444              		.thumb_func
 1445              		.fpu fpv4-sp-d16
 1446              		.type	i2c_lld_master_receive_timeout, %function
 1447              	i2c_lld_master_receive_timeout:
 1448              	.LFB338:
 1449              		.loc 1 763 0
 1450              		.cfi_startproc
 1451              		@ args = 4, pretend = 0, frame = 0
 1452              		@ frame_needed = 0, uses_anonymous_args = 0
 1453              	.LVL113:
 1454              		.loc 1 774 0
 1455 0000 4900     		lsls	r1, r1, #1
 1456              	.LVL114:
 1457              		.loc 1 763 0
 1458 0002 2DE9F843 		push	{r3, r4, r5, r6, r7, r8, r9, lr}
 1459              		.cfi_def_cfa_offset 32
 1460              		.cfi_offset 3, -32
 1461              		.cfi_offset 4, -28
 1462              		.cfi_offset 5, -24
 1463              		.cfi_offset 6, -20
 1464              		.cfi_offset 7, -16
 1465              		.cfi_offset 8, -12
 1466              		.cfi_offset 9, -8
 1467              		.cfi_offset 14, -4
 1468              		.loc 1 774 0
 1469 0006 41F00101 		orr	r1, r1, #1
 1470              		.loc 1 771 0
 1471 000a 0026     		movs	r6, #0
 1472 000c 8660     		str	r6, [r0, #8]
 1473              		.loc 1 774 0
 1474 000e 0184     		strh	r1, [r0, #32]	@ movhi
 1475              		.loc 1 763 0
 1476 0010 0446     		mov	r4, r0
 1477 0012 9146     		mov	r9, r2
 1478 0014 9846     		mov	r8, r3
 1479 0016 089F     		ldr	r7, [sp, #32]
 1480              		.loc 1 764 0
 1481 0018 456B     		ldr	r5, [r0, #52]
 1482              	.LVL115:
ARM GAS  /tmp/ccq7nZSP.s 			page 27


 1483              	.LBB218:
 1484              	.LBB219:
 1485              	.LBB220:
 1486              		.loc 3 368 0
 1487 001a FFF7FEFF 		bl	_stats_stop_measure_crit_thd
 1488              	.LVL116:
 1489              	.LBB221:
 1490              	.LBB222:
 1491              	.LBB223:
 1492              		.loc 2 493 0
 1493              		.syntax unified
 1494              	@ 493 "../../modules/ChibiOS/os/common/ext/ARM/CMSIS/Core/Include/cmsis_gcc.h" 1
 1495 001e 86F31188 		MSR basepri, r6
 1496              	@ 0 "" 2
 1497              	.LVL117:
 1498              		.thumb
 1499              		.syntax unified
 1500              	.LBE223:
 1501              	.LBE222:
 1502              	.LBE221:
 1503              	.LBE220:
 1504              	.LBE219:
 1505              	.LBE218:
 1506              		.loc 1 780 0
 1507 0022 E36A     		ldr	r3, [r4, #44]
 1508 0024 1968     		ldr	r1, [r3]
 1509 0026 636A     		ldr	r3, [r4, #36]
 1510 0028 0B60     		str	r3, [r1]
 1511              		.loc 1 781 0
 1512 002a C1F80C90 		str	r9, [r1, #12]
 1513              	.LBB224:
 1514              	.LBB225:
 1515              	.LBB226:
 1516              	.LBB227:
 1517              	.LBB228:
 1518              	.LBB229:
 1519              		.loc 2 493 0
 1520 002e 2023     		movs	r3, #32
 1521              	.LBE229:
 1522              	.LBE228:
 1523              	.LBE227:
 1524              	.LBE226:
 1525              	.LBE225:
 1526              	.LBE224:
 1527              		.loc 1 782 0
 1528 0030 C1F80480 		str	r8, [r1, #4]
 1529              	.LVL118:
 1530              	.LBB235:
 1531              	.LBB234:
 1532              	.LBB233:
 1533              	.LBB232:
 1534              	.LBB231:
 1535              	.LBB230:
 1536              		.loc 2 493 0
 1537              		.syntax unified
 1538              	@ 493 "../../modules/ChibiOS/os/common/ext/ARM/CMSIS/Core/Include/cmsis_gcc.h" 1
 1539 0034 83F31188 		MSR basepri, r3
ARM GAS  /tmp/ccq7nZSP.s 			page 28


 1540              	@ 0 "" 2
 1541              	.LVL119:
 1542              		.thumb
 1543              		.syntax unified
 1544              	.LBE230:
 1545              	.LBE231:
 1546              	.LBE232:
 1547              		.loc 3 356 0
 1548 0038 FFF7FEFF 		bl	_stats_start_measure_crit_thd
 1549              	.LVL120:
 1550              	.LBE233:
 1551              	.LBE234:
 1552              	.LBE235:
 1553              		.loc 1 789 0
 1554 003c AB69     		ldr	r3, [r5, #24]
 1555 003e 9A07     		lsls	r2, r3, #30
 1556 0040 11D4     		bmi	.L130
 1557              		.loc 1 789 0 is_stmt 0 discriminator 1
 1558 0042 2B68     		ldr	r3, [r5]
 1559 0044 9B05     		lsls	r3, r3, #22
 1560 0046 0ED4     		bmi	.L130
 1561              		.loc 1 794 0 is_stmt 1
 1562 0048 6B68     		ldr	r3, [r5, #4]
 1563 004a 43F40073 		orr	r3, r3, #512
 1564 004e 6B60     		str	r3, [r5, #4]
 1565              		.loc 1 795 0
 1566 0050 2B68     		ldr	r3, [r5]
 1567 0052 43F4A063 		orr	r3, r3, #1280
 1568 0056 2B60     		str	r3, [r5]
 1569              	.LVL121:
 1570              	.LBB236:
 1571              	.LBB237:
 1572              		.loc 4 760 0
 1573 0058 3946     		mov	r1, r7
 1574 005a 04F11C00 		add	r0, r4, #28
 1575              	.LVL122:
 1576              	.LBE237:
 1577              	.LBE236:
 1578              		.loc 1 799 0
 1579 005e BDE8F843 		pop	{r3, r4, r5, r6, r7, r8, r9, lr}
 1580              		.cfi_remember_state
 1581              		.cfi_restore 14
 1582              		.cfi_restore 9
 1583              		.cfi_restore 8
 1584              		.cfi_restore 7
 1585              		.cfi_restore 6
 1586              		.cfi_restore 5
 1587              		.cfi_restore 4
 1588              		.cfi_restore 3
 1589              		.cfi_def_cfa_offset 0
 1590              	.LVL123:
 1591              	.LBB239:
 1592              	.LBB238:
 1593              		.loc 4 760 0
 1594 0062 FFF7FEBF 		b	chThdSuspendTimeoutS
 1595              	.LVL124:
 1596              	.L130:
ARM GAS  /tmp/ccq7nZSP.s 			page 29


 1597              		.cfi_restore_state
 1598              	.LBE238:
 1599              	.LBE239:
 1600              		.loc 1 799 0
 1601 0066 4FF0FF30 		mov	r0, #-1
 1602 006a BDE8F883 		pop	{r3, r4, r5, r6, r7, r8, r9, pc}
 1603              		.cfi_endproc
 1604              	.LFE338:
 1605              		.size	i2c_lld_master_receive_timeout, .-i2c_lld_master_receive_timeout
 1606              		.section	.text.i2c_lld_master_transmit_timeout,"ax",%progbits
 1607              		.align	1
 1608              		.global	i2c_lld_master_transmit_timeout
 1609              		.syntax unified
 1610              		.thumb
 1611              		.thumb_func
 1612              		.fpu fpv4-sp-d16
 1613              		.type	i2c_lld_master_transmit_timeout, %function
 1614              	i2c_lld_master_transmit_timeout:
 1615              	.LFB339:
 1616              		.loc 1 829 0
 1617              		.cfi_startproc
 1618              		@ args = 12, pretend = 0, frame = 0
 1619              		@ frame_needed = 0, uses_anonymous_args = 0
 1620              	.LVL125:
 1621 0000 2DE9F84F 		push	{r3, r4, r5, r6, r7, r8, r9, r10, fp, lr}
 1622              		.cfi_def_cfa_offset 40
 1623              		.cfi_offset 3, -40
 1624              		.cfi_offset 4, -36
 1625              		.cfi_offset 5, -32
 1626              		.cfi_offset 6, -28
 1627              		.cfi_offset 7, -24
 1628              		.cfi_offset 8, -20
 1629              		.cfi_offset 9, -16
 1630              		.cfi_offset 10, -12
 1631              		.cfi_offset 11, -8
 1632              		.cfi_offset 14, -4
 1633              		.loc 1 840 0
 1634 0004 4900     		lsls	r1, r1, #1
 1635              	.LVL126:
 1636              		.loc 1 837 0
 1637 0006 0026     		movs	r6, #0
 1638 0008 8660     		str	r6, [r0, #8]
 1639              		.loc 1 840 0
 1640 000a 0184     		strh	r1, [r0, #32]	@ movhi
 1641              		.loc 1 829 0
 1642 000c 0446     		mov	r4, r0
 1643 000e 9346     		mov	fp, r2
 1644 0010 9A46     		mov	r10, r3
 1645 0012 DDF82890 		ldr	r9, [sp, #40]
 1646 0016 DDF82C80 		ldr	r8, [sp, #44]
 1647 001a 0C9F     		ldr	r7, [sp, #48]
 1648              		.loc 1 830 0
 1649 001c 456B     		ldr	r5, [r0, #52]
 1650              	.LVL127:
 1651              	.LBB256:
 1652              	.LBB257:
 1653              	.LBB258:
ARM GAS  /tmp/ccq7nZSP.s 			page 30


 1654              		.loc 3 368 0
 1655 001e FFF7FEFF 		bl	_stats_stop_measure_crit_thd
 1656              	.LVL128:
 1657              	.LBB259:
 1658              	.LBB260:
 1659              	.LBB261:
 1660              		.loc 2 493 0
 1661              		.syntax unified
 1662              	@ 493 "../../modules/ChibiOS/os/common/ext/ARM/CMSIS/Core/Include/cmsis_gcc.h" 1
 1663 0022 86F31188 		MSR basepri, r6
 1664              	@ 0 "" 2
 1665              	.LVL129:
 1666              		.thumb
 1667              		.syntax unified
 1668              	.LBE261:
 1669              	.LBE260:
 1670              	.LBE259:
 1671              	.LBE258:
 1672              	.LBE257:
 1673              	.LBE256:
 1674              		.loc 1 846 0
 1675 0026 236B     		ldr	r3, [r4, #48]
 1676              		.loc 1 851 0
 1677 0028 626A     		ldr	r2, [r4, #36]
 1678              		.loc 1 846 0
 1679 002a 1968     		ldr	r1, [r3]
 1680 002c A36A     		ldr	r3, [r4, #40]
 1681 002e 0B60     		str	r3, [r1]
 1682              		.loc 1 851 0
 1683 0030 E36A     		ldr	r3, [r4, #44]
 1684              		.loc 1 847 0
 1685 0032 C1F80CB0 		str	fp, [r1, #12]
 1686              		.loc 1 851 0
 1687 0036 1B68     		ldr	r3, [r3]
 1688              		.loc 1 848 0
 1689 0038 C1F804A0 		str	r10, [r1, #4]
 1690              		.loc 1 851 0
 1691 003c 1A60     		str	r2, [r3]
 1692              		.loc 1 852 0
 1693 003e C3F80C90 		str	r9, [r3, #12]
 1694              		.loc 1 853 0
 1695 0042 C3F80480 		str	r8, [r3, #4]
 1696              	.LVL130:
 1697              	.LBB262:
 1698              	.LBB263:
 1699              	.LBB264:
 1700              	.LBB265:
 1701              	.LBB266:
 1702              	.LBB267:
 1703              		.loc 2 493 0
 1704 0046 2023     		movs	r3, #32
 1705              		.syntax unified
 1706              	@ 493 "../../modules/ChibiOS/os/common/ext/ARM/CMSIS/Core/Include/cmsis_gcc.h" 1
 1707 0048 83F31188 		MSR basepri, r3
 1708              	@ 0 "" 2
 1709              	.LVL131:
 1710              		.thumb
ARM GAS  /tmp/ccq7nZSP.s 			page 31


 1711              		.syntax unified
 1712              	.LBE267:
 1713              	.LBE266:
 1714              	.LBE265:
 1715              		.loc 3 356 0
 1716 004c FFF7FEFF 		bl	_stats_start_measure_crit_thd
 1717              	.LVL132:
 1718              	.LBE264:
 1719              	.LBE263:
 1720              	.LBE262:
 1721              		.loc 1 860 0
 1722 0050 AB69     		ldr	r3, [r5, #24]
 1723 0052 9A07     		lsls	r2, r3, #30
 1724 0054 11D4     		bmi	.L134
 1725              		.loc 1 860 0 is_stmt 0 discriminator 1
 1726 0056 2B68     		ldr	r3, [r5]
 1727 0058 9B05     		lsls	r3, r3, #22
 1728 005a 0ED4     		bmi	.L134
 1729              		.loc 1 865 0 is_stmt 1
 1730 005c 6B68     		ldr	r3, [r5, #4]
 1731 005e 43F40073 		orr	r3, r3, #512
 1732 0062 6B60     		str	r3, [r5, #4]
 1733              		.loc 1 866 0
 1734 0064 2B68     		ldr	r3, [r5]
 1735 0066 43F48073 		orr	r3, r3, #256
 1736 006a 2B60     		str	r3, [r5]
 1737              	.LVL133:
 1738              	.LBB268:
 1739              	.LBB269:
 1740              		.loc 4 760 0
 1741 006c 3946     		mov	r1, r7
 1742 006e 04F11C00 		add	r0, r4, #28
 1743              	.LVL134:
 1744              	.LBE269:
 1745              	.LBE268:
 1746              		.loc 1 870 0
 1747 0072 BDE8F84F 		pop	{r3, r4, r5, r6, r7, r8, r9, r10, fp, lr}
 1748              		.cfi_remember_state
 1749              		.cfi_restore 14
 1750              		.cfi_restore 11
 1751              		.cfi_restore 10
 1752              		.cfi_restore 9
 1753              		.cfi_restore 8
 1754              		.cfi_restore 7
 1755              		.cfi_restore 6
 1756              		.cfi_restore 5
 1757              		.cfi_restore 4
 1758              		.cfi_restore 3
 1759              		.cfi_def_cfa_offset 0
 1760              	.LVL135:
 1761              	.LBB271:
 1762              	.LBB270:
 1763              		.loc 4 760 0
 1764 0076 FFF7FEBF 		b	chThdSuspendTimeoutS
 1765              	.LVL136:
 1766              	.L134:
 1767              		.cfi_restore_state
ARM GAS  /tmp/ccq7nZSP.s 			page 32


 1768              	.LBE270:
 1769              	.LBE271:
 1770              		.loc 1 870 0
 1771 007a 4FF0FF30 		mov	r0, #-1
 1772 007e BDE8F88F 		pop	{r3, r4, r5, r6, r7, r8, r9, r10, fp, pc}
 1773              		.cfi_endproc
 1774              	.LFE339:
 1775              		.size	i2c_lld_master_transmit_timeout, .-i2c_lld_master_transmit_timeout
 1776              		.global	I2CD2
 1777              		.global	I2CD1
 1778              		.section	.bss.I2CD1,"aw",%nobits
 1779              		.align	2
 1780              		.set	.LANCHOR0,. + 0
 1781              		.type	I2CD1, %object
 1782              		.size	I2CD1, 56
 1783              	I2CD1:
 1784 0000 00000000 		.space	56
 1784      00000000 
 1784      00000000 
 1784      00000000 
 1784      00000000 
 1785              		.section	.bss.I2CD2,"aw",%nobits
 1786              		.align	2
 1787              		.set	.LANCHOR1,. + 0
 1788              		.type	I2CD2, %object
 1789              		.size	I2CD2, 56
 1790              	I2CD2:
 1791 0000 00000000 		.space	56
 1791      00000000 
 1791      00000000 
 1791      00000000 
 1791      00000000 
 1792              		.section	.rodata.i2c_lld_serve_tx_end_irq.str1.1,"aMS",%progbits,1
 1793              	.LC0:
 1794 0000 444D4120 		.ascii	"DMA failure\000"
 1794      6661696C 
 1794      75726500 
 1795              		.text
 1796              	.Letext0:
 1797              		.file 5 "/opt/gcc-arm-none-eabi-6-2017-q2-update/lib/gcc/arm-none-eabi/6.3.1/include/stddef.h"
 1798              		.file 6 "/opt/gcc-arm-none-eabi-6-2017-q2-update/arm-none-eabi/include/machine/_default_types.h"
 1799              		.file 7 "/opt/gcc-arm-none-eabi-6-2017-q2-update/arm-none-eabi/include/sys/_stdint.h"
 1800              		.file 8 "/opt/gcc-arm-none-eabi-6-2017-q2-update/arm-none-eabi/include/stdint.h"
 1801              		.file 9 "../../modules/ChibiOS/os/common/ports/ARMCMx/compilers/GCC/chtypes.h"
 1802              		.file 10 "../../modules/ChibiOS/os/rt/include/chsystypes.h"
 1803              		.file 11 "../../modules/ChibiOS/os/rt/include/chschd.h"
 1804              		.file 12 "../../modules/ChibiOS/os/rt/include/chtime.h"
 1805              		.file 13 "../../modules/ChibiOS/os/common/ext/ARM/CMSIS/Core/Include/core_cm4.h"
 1806              		.file 14 "../../modules/ChibiOS/os/common/ext/ST/STM32F4xx/system_stm32f4xx.h"
 1807              		.file 15 "../../modules/ChibiOS/os/common/ext/ST/STM32F4xx/stm32f427xx.h"
 1808              		.file 16 "../../modules/ChibiOS/os/common/ports/ARMCMx/chcore.h"
 1809              		.file 17 "../../modules/ChibiOS/os/common/ports/ARMCMx/chcore_v7m.h"
 1810              		.file 18 "../../modules/ChibiOS/os/hal/ports/STM32/LLD/TIMv1/stm32_tim.h"
 1811              		.file 19 "../../modules/ChibiOS/os/rt/include/chtm.h"
 1812              		.file 20 "../../modules/ChibiOS/os/rt/include/chstats.h"
 1813              		.file 21 "../../modules/ChibiOS/os/rt/include/chsem.h"
 1814              		.file 22 "../../modules/ChibiOS/os/rt/include/chmtx.h"
ARM GAS  /tmp/ccq7nZSP.s 			page 33


 1815              		.file 23 "../../modules/ChibiOS/os/rt/include/chregistry.h"
 1816              		.file 24 "../../modules/ChibiOS/os/rt/include/chevents.h"
 1817              		.file 25 "../../modules/ChibiOS/os/oslib/include/chmemcore.h"
 1818              		.file 26 "../../modules/ChibiOS/os/oslib/include/chmempools.h"
 1819              		.file 27 "../../modules/ChibiOS/os/oslib/include/chfactory.h"
 1820              		.file 28 "../../modules/ChibiOS/os/hal/ports/STM32/LLD/DMAv2/stm32_dma.h"
 1821              		.file 29 "../../modules/ChibiOS/os/hal/include/hal_ioblock.h"
 1822              		.file 30 "../../modules/ChibiOS/os/hal/include/hal_queues.h"
 1823              		.file 31 "../../modules/ChibiOS/os/hal/include/hal_pal.h"
 1824              		.file 32 "../../modules/ChibiOS/os/hal/ports/STM32/LLD/GPIOv2/stm32_gpio.h"
 1825              		.file 33 "../../modules/ChibiOS/os/hal/ports/STM32/LLD/GPIOv2/hal_pal_lld.h"
 1826              		.file 34 "../../modules/ChibiOS/os/hal/include/hal_adc.h"
 1827              		.file 35 "../../modules/ChibiOS/os/hal/ports/STM32/LLD/ADCv2/hal_adc_lld.h"
 1828              		.file 36 "../../modules/ChibiOS/os/hal/include/hal_i2c.h"
 1829              		.file 37 "../../modules/ChibiOS/os/hal/ports/STM32/LLD/I2Cv1/hal_i2c_lld.h"
 1830              		.file 38 "../../modules/ChibiOS/os/hal/include/hal_pwm.h"
 1831              		.file 39 "../../modules/ChibiOS/os/hal/ports/STM32/LLD/TIMv1/hal_pwm_lld.h"
 1832              		.file 40 "../../modules/ChibiOS/os/hal/include/hal_serial.h"
 1833              		.file 41 "../../modules/ChibiOS/os/hal/ports/STM32/LLD/USARTv1/hal_serial_lld.h"
 1834              		.file 42 "../../modules/ChibiOS/os/hal/include/hal_sdc.h"
 1835              		.file 43 "../../modules/ChibiOS/os/hal/ports/STM32/LLD/SDIOv1/hal_sdc_lld.h"
 1836              		.file 44 "../../modules/ChibiOS/os/hal/include/hal_spi.h"
 1837              		.file 45 "../../modules/ChibiOS/os/hal/ports/STM32/LLD/SPIv1/hal_spi_lld.h"
 1838              		.file 46 "../../modules/ChibiOS/os/hal/include/hal_usb.h"
 1839              		.file 47 "../../modules/ChibiOS/os/hal/ports/STM32/LLD/OTGv1/hal_usb_lld.h"
 1840              		.file 48 "../../modules/ChibiOS/os/hal/ports/STM32/LLD/OTGv1/stm32_otg.h"
 1841              		.file 49 "../../modules/ChibiOS/os/rt/include/chthreads.h"
 1842              		.file 50 "../../modules/ChibiOS/os/hal/ports/common/ARMCMx/nvic.h"
 1843              		.file 51 "../../modules/ChibiOS/os/rt/include/ch.h"