ARM GAS  /tmp/cccfbWMZ.s 			page 1


   1              		.syntax unified
   2              		.cpu cortex-m4
   3              		.eabi_attribute 27, 1
   4              		.eabi_attribute 28, 1
   5              		.fpu fpv4-sp-d16
   6              		.eabi_attribute 20, 1
   7              		.eabi_attribute 21, 1
   8              		.eabi_attribute 23, 3
   9              		.eabi_attribute 24, 1
  10              		.eabi_attribute 25, 1
  11              		.eabi_attribute 26, 1
  12              		.eabi_attribute 30, 4
  13              		.eabi_attribute 34, 1
  14              		.eabi_attribute 18, 4
  15              		.thumb
  16              		.file	"hal_usb_lld.c"
  17              		.text
  18              	.Ltext0:
  19              		.cfi_sections	.debug_frame
  20              		.section	.text.otg_disable_ep,"ax",%progbits
  21              		.align	1
  22              		.thumb
  23              		.thumb_func
  24              		.type	otg_disable_ep, %function
  25              	otg_disable_ep:
  26              	.LFB324:
  27              		.file 1 "../../modules/ChibiOS/os/hal/ports/STM32/LLD/OTGv1/hal_usb_lld.c"
  28              		.loc 1 154 0
  29              		.cfi_startproc
  30              		@ args = 0, pretend = 0, frame = 0
  31              		@ frame_needed = 0, uses_anonymous_args = 0
  32              	.LVL0:
  33              		.loc 1 158 0
  34 0000 836D     		ldr	r3, [r0, #88]
  35              		.loc 1 154 0
  36 0002 30B5     		push	{r4, r5, lr}
  37              		.cfi_def_cfa_offset 12
  38              		.cfi_offset 4, -12
  39              		.cfi_offset 5, -8
  40              		.cfi_offset 14, -4
  41              		.loc 1 155 0
  42 0004 446D     		ldr	r4, [r0, #84]
  43              	.LVL1:
  44              		.loc 1 158 0
  45 0006 9D68     		ldr	r5, [r3, #8]
  46 0008 0022     		movs	r2, #0
  47              	.LVL2:
  48              	.L2:
  49 000a 04EB4213 		add	r3, r4, r2, lsl #5
  50              		.loc 1 158 0 is_stmt 0 discriminator 3
  51 000e 0132     		adds	r2, r2, #1
  52              	.LVL3:
  53              		.loc 1 159 0 is_stmt 1 discriminator 3
  54 0010 0021     		movs	r1, #0
  55              		.loc 1 161 0 discriminator 3
  56 0012 4FF0FF30 		mov	r0, #-1
  57              		.loc 1 158 0 discriminator 3
ARM GAS  /tmp/cccfbWMZ.s 			page 2


  58 0016 AA42     		cmp	r2, r5
  59              		.loc 1 159 0 discriminator 3
  60 0018 C3F80019 		str	r1, [r3, #2304]
  61              		.loc 1 160 0 discriminator 3
  62 001c C3F81019 		str	r1, [r3, #2320]
  63              		.loc 1 161 0 discriminator 3
  64 0020 C3F80809 		str	r0, [r3, #2312]
  65              		.loc 1 163 0 discriminator 3
  66 0024 C3F8001B 		str	r1, [r3, #2816]
  67              		.loc 1 164 0 discriminator 3
  68 0028 C3F8101B 		str	r1, [r3, #2832]
  69              		.loc 1 165 0 discriminator 3
  70 002c C3F8080B 		str	r0, [r3, #2824]
  71              		.loc 1 158 0 discriminator 3
  72 0030 EBD9     		bls	.L2
  73              		.loc 1 167 0
  74 0032 4FF00113 		mov	r3, #65537
  75 0036 C4F81C38 		str	r3, [r4, #2076]
  76 003a 30BD     		pop	{r4, r5, pc}
  77              		.cfi_endproc
  78              	.LFE324:
  79              		.size	otg_disable_ep, .-otg_disable_ep
  80              		.section	.text.otg_txfifo_flush.isra.1,"ax",%progbits
  81              		.align	1
  82              		.thumb
  83              		.thumb_func
  84              		.type	otg_txfifo_flush.isra.1, %function
  85              	otg_txfifo_flush.isra.1:
  86              	.LFB356:
  87              		.loc 1 180 0
  88              		.cfi_startproc
  89              		@ args = 0, pretend = 0, frame = 0
  90              		@ frame_needed = 0, uses_anonymous_args = 0
  91              		@ link register save eliminated.
  92              	.LVL4:
  93              		.loc 1 183 0
  94 0000 8901     		lsls	r1, r1, #6
  95              	.LVL5:
  96 0002 41F02001 		orr	r1, r1, #32
  97 0006 0161     		str	r1, [r0, #16]
  98              	.L6:
  99              		.loc 1 184 0
 100 0008 0369     		ldr	r3, [r0, #16]
 101 000a 9B06     		lsls	r3, r3, #26
 102 000c FCD4     		bmi	.L6
 103              	.LVL6:
 104              	.LBB69:
 105              	.LBB70:
 106              		.file 2 "../../modules/ChibiOS/os/hal/osal/rt/osal.h"
 107              		.loc 2 591 0
 108 000e 1220     		movs	r0, #18
 109              	.LVL7:
 110 0010 FFF7FEBF 		b	chSysPolledDelayX
 111              	.LVL8:
 112              	.LBE70:
 113              	.LBE69:
 114              		.cfi_endproc
ARM GAS  /tmp/cccfbWMZ.s 			page 3


 115              	.LFE356:
 116              		.size	otg_txfifo_flush.isra.1, .-otg_txfifo_flush.isra.1
 117              		.section	.text.otg_txfifo_handler.constprop.9,"ax",%progbits
 118              		.align	1
 119              		.thumb
 120              		.thumb_func
 121              		.type	otg_txfifo_handler.constprop.9, %function
 122              	otg_txfifo_handler.constprop.9:
 123              	.LFB360:
 124              		.loc 1 324 0
 125              		.cfi_startproc
 126              		@ args = 0, pretend = 0, frame = 0
 127              		@ frame_needed = 0, uses_anonymous_args = 0
 128              	.LVL9:
 129 0000 2DE9F043 		push	{r4, r5, r6, r7, r8, r9, lr}
 130              		.cfi_def_cfa_offset 28
 131              		.cfi_offset 4, -28
 132              		.cfi_offset 5, -24
 133              		.cfi_offset 6, -20
 134              		.cfi_offset 7, -16
 135              		.cfi_offset 8, -12
 136              		.cfi_offset 9, -8
 137              		.cfi_offset 14, -4
 138              	.LBB74:
 139              		.loc 1 331 0
 140 0004 204D     		ldr	r5, .L16
 141 0006 05EB8003 		add	r3, r5, r0, lsl #2
 142              		.loc 1 345 0
 143 000a D5F85490 		ldr	r9, [r5, #84]
 144              		.loc 1 331 0
 145 000e D3F80CC0 		ldr	ip, [r3, #12]
 146 0012 DCF81420 		ldr	r2, [ip, #20]
 147              		.loc 1 351 0
 148 0016 00F1010E 		add	lr, r0, #1
 149              		.loc 1 331 0
 150 001a D2F80080 		ldr	r8, [r2]
 151              		.loc 1 351 0
 152 001e 09EB0E3E 		add	lr, r9, lr, lsl #12
 153              	.L13:
 154              		.loc 1 331 0
 155 0022 5168     		ldr	r1, [r2, #4]
 156 0024 4145     		cmp	r1, r8
 157 0026 0CD3     		bcc	.L9
 158              		.loc 1 333 0
 159 0028 696D     		ldr	r1, [r5, #84]
 160 002a 0123     		movs	r3, #1
 161 002c D1F83428 		ldr	r2, [r1, #2100]
 162 0030 03FA00F0 		lsl	r0, r3, r0
 163              	.LVL10:
 164 0034 22EA0002 		bic	r2, r2, r0
 165 0038 C1F83428 		str	r2, [r1, #2100]
 166              		.loc 1 335 0
 167 003c 1846     		mov	r0, r3
 168 003e BDE8F083 		pop	{r4, r5, r6, r7, r8, r9, pc}
 169              	.LVL11:
 170              	.L9:
 171              		.loc 1 340 0
ARM GAS  /tmp/cccfbWMZ.s 			page 4


 172 0042 BCF81040 		ldrh	r4, [ip, #16]
 173              		.loc 1 339 0
 174 0046 C1EB0803 		rsb	r3, r1, r8
 175 004a A342     		cmp	r3, r4
 176 004c 28BF     		it	cs
 177 004e 2346     		movcs	r3, r4
 178              	.LVL12:
 179              		.loc 1 345 0
 180 0050 09EB4014 		add	r4, r9, r0, lsl #5
 181 0054 D4F81849 		ldr	r4, [r4, #2328]
 182 0058 A4B2     		uxth	r4, r4
 183 005a B3EB840F 		cmp	r3, r4, lsl #2
 184 005e 0FD8     		bhi	.L14
 185              		.loc 1 351 0
 186 0060 9468     		ldr	r4, [r2, #8]
 187              	.LVL13:
 188 0062 2646     		mov	r6, r4
 189              	.LVL14:
 190              	.L12:
 191              	.LBB75:
 192              	.LBB76:
 193              		.loc 1 236 0
 194 0064 3768     		ldr	r7, [r6]
 195 0066 CEF80070 		str	r7, [lr]
 196 006a 9F1B     		subs	r7, r3, r6
 197 006c 2744     		add	r7, r7, r4
 198              		.loc 1 237 0
 199 006e 042F     		cmp	r7, #4
 200 0070 01D9     		bls	.L11
 201              	.LVL15:
 202              		.loc 1 241 0
 203 0072 0436     		adds	r6, r6, #4
 204              	.LVL16:
 205 0074 F6E7     		b	.L12
 206              	.LVL17:
 207              	.L11:
 208              	.LBE76:
 209              	.LBE75:
 210              		.loc 1 354 0
 211 0076 1C44     		add	r4, r4, r3
 212              	.LVL18:
 213              		.loc 1 355 0
 214 0078 0B44     		add	r3, r3, r1
 215              	.LVL19:
 216              		.loc 1 354 0
 217 007a 9460     		str	r4, [r2, #8]
 218              	.LVL20:
 219              		.loc 1 355 0
 220 007c 5360     		str	r3, [r2, #4]
 221 007e D0E7     		b	.L13
 222              	.LVL21:
 223              	.L14:
 224              		.loc 1 346 0
 225 0080 0020     		movs	r0, #0
 226              	.LVL22:
 227              	.LBE74:
 228              		.loc 1 360 0
ARM GAS  /tmp/cccfbWMZ.s 			page 5


 229 0082 BDE8F083 		pop	{r4, r5, r6, r7, r8, r9, pc}
 230              	.L17:
 231 0086 00BF     		.align	2
 232              	.L16:
 233 0088 00000000 		.word	.LANCHOR0
 234              		.cfi_endproc
 235              	.LFE360:
 236              		.size	otg_txfifo_handler.constprop.9, .-otg_txfifo_handler.constprop.9
 237              		.section	.text.usb_lld_init,"ax",%progbits
 238              		.align	1
 239              		.global	usb_lld_init
 240              		.thumb
 241              		.thumb_func
 242              		.type	usb_lld_init, %function
 243              	usb_lld_init:
 244              	.LFB339:
 245              		.loc 1 709 0
 246              		.cfi_startproc
 247              		@ args = 0, pretend = 0, frame = 0
 248              		@ frame_needed = 0, uses_anonymous_args = 0
 249 0000 10B5     		push	{r4, lr}
 250              		.cfi_def_cfa_offset 8
 251              		.cfi_offset 4, -8
 252              		.cfi_offset 14, -4
 253              		.loc 1 713 0
 254 0002 054C     		ldr	r4, .L19
 255 0004 2046     		mov	r0, r4
 256 0006 FFF7FEFF 		bl	usbObjectInit
 257              	.LVL23:
 258              		.loc 1 714 0
 259 000a 4FF0A043 		mov	r3, #1342177280
 260 000e 6365     		str	r3, [r4, #84]
 261              		.loc 1 715 0
 262 0010 024B     		ldr	r3, .L19+4
 263 0012 A365     		str	r3, [r4, #88]
 264 0014 10BD     		pop	{r4, pc}
 265              	.L20:
 266 0016 00BF     		.align	2
 267              	.L19:
 268 0018 00000000 		.word	.LANCHOR0
 269 001c 00000000 		.word	.LANCHOR1
 270              		.cfi_endproc
 271              	.LFE339:
 272              		.size	usb_lld_init, .-usb_lld_init
 273              		.section	.text.usb_lld_start,"ax",%progbits
 274              		.align	1
 275              		.global	usb_lld_start
 276              		.thumb
 277              		.thumb_func
 278              		.type	usb_lld_start, %function
 279              	usb_lld_start:
 280              	.LFB340:
 281              		.loc 1 736 0
 282              		.cfi_startproc
 283              		@ args = 0, pretend = 0, frame = 0
 284              		@ frame_needed = 0, uses_anonymous_args = 0
 285              	.LVL24:
ARM GAS  /tmp/cccfbWMZ.s 			page 6


 286              		.loc 1 739 0
 287 0000 0378     		ldrb	r3, [r0]	@ zero_extendqisi2
 288 0002 012B     		cmp	r3, #1
 289              		.loc 1 736 0
 290 0004 70B5     		push	{r4, r5, r6, lr}
 291              		.cfi_def_cfa_offset 16
 292              		.cfi_offset 4, -16
 293              		.cfi_offset 5, -12
 294              		.cfi_offset 6, -8
 295              		.cfi_offset 14, -4
 296              		.loc 1 736 0
 297 0006 0546     		mov	r5, r0
 298              		.loc 1 737 0
 299 0008 446D     		ldr	r4, [r0, #84]
 300              	.LVL25:
 301              		.loc 1 739 0
 302 000a 51D1     		bne	.L21
 303              		.loc 1 743 0
 304 000c 294B     		ldr	r3, .L33
 305 000e 9842     		cmp	r0, r3
 306 0010 1BD1     		bne	.L23
 307              		.loc 1 745 0
 308 0012 294B     		ldr	r3, .L33+4
 309 0014 5A6B     		ldr	r2, [r3, #52]
 310 0016 42F08002 		orr	r2, r2, #128
 311 001a 5A63     		str	r2, [r3, #52]
 312 001c 5A6D     		ldr	r2, [r3, #84]
 313 001e 42F08002 		orr	r2, r2, #128
 314 0022 5A65     		str	r2, [r3, #84]
 315 0024 5A6D     		ldr	r2, [r3, #84]
 316              		.loc 1 746 0
 317 0026 5A69     		ldr	r2, [r3, #20]
 318 0028 42F08002 		orr	r2, r2, #128
 319 002c 5A61     		str	r2, [r3, #20]
 320 002e 5A69     		ldr	r2, [r3, #20]
 321 0030 22F08002 		bic	r2, r2, #128
 322 0034 5A61     		str	r2, [r3, #20]
 323              		.loc 1 749 0
 324 0036 4320     		movs	r0, #67
 325              	.LVL26:
 326 0038 0E21     		movs	r1, #14
 327              		.loc 1 746 0
 328 003a 5B69     		ldr	r3, [r3, #20]
 329              		.loc 1 749 0
 330 003c FFF7FEFF 		bl	nvicEnableVector
 331              	.LVL27:
 332              		.loc 1 754 0
 333 0040 1E4B     		ldr	r3, .L33+8
 334 0042 E360     		str	r3, [r4, #12]
 335              		.loc 1 758 0
 336 0044 1E4B     		ldr	r3, .L33+12
 337 0046 C4F80038 		str	r3, [r4, #2048]
 338              	.L23:
 339              		.loc 1 808 0
 340 004a 0023     		movs	r3, #0
 341 004c C4F8003E 		str	r3, [r4, #3584]
 342              		.loc 1 811 0
ARM GAS  /tmp/cccfbWMZ.s 			page 7


 343 0050 C023     		movs	r3, #192
 344 0052 2360     		str	r3, [r4]
 345 0054 6E6D     		ldr	r6, [r5, #84]
 346              	.LVL28:
 347              		.loc 1 826 0
 348 0056 4FF45023 		mov	r3, #851968
 349 005a A363     		str	r3, [r4, #56]
 350              	.L24:
 351              	.LBB83:
 352              	.LBB84:
 353              		.loc 1 138 0
 354 005c 3369     		ldr	r3, [r6, #16]
 355 005e 002B     		cmp	r3, #0
 356 0060 FCDA     		bge	.L24
 357              		.loc 1 142 0
 358 0062 0123     		movs	r3, #1
 359 0064 3361     		str	r3, [r6, #16]
 360              	.LVL29:
 361              	.LBB85:
 362              	.LBB86:
 363              		.loc 2 591 0
 364 0066 0C20     		movs	r0, #12
 365 0068 FFF7FEFF 		bl	chSysPolledDelayX
 366              	.LVL30:
 367              	.L25:
 368              	.LBE86:
 369              	.LBE85:
 370              		.loc 1 144 0
 371 006c 3369     		ldr	r3, [r6, #16]
 372 006e DB07     		lsls	r3, r3, #31
 373 0070 FCD4     		bmi	.L25
 374              	.LVL31:
 375              	.LBB87:
 376              	.LBB88:
 377              		.loc 2 591 0
 378 0072 1220     		movs	r0, #18
 379 0074 FFF7FEFF 		bl	chSysPolledDelayX
 380              	.LVL32:
 381              	.L26:
 382              	.LBE88:
 383              	.LBE87:
 384              		.loc 1 150 0
 385 0078 3369     		ldr	r3, [r6, #16]
 386 007a 002B     		cmp	r3, #0
 387 007c FCDA     		bge	.L26
 388              	.LBE84:
 389              	.LBE83:
 390              		.loc 1 833 0
 391 007e 0026     		movs	r6, #0
 392              	.LVL33:
 393 0080 A660     		str	r6, [r4, #8]
 394              		.loc 1 836 0
 395 0082 2846     		mov	r0, r5
 396 0084 FFF7FEFF 		bl	otg_disable_ep
 397              	.LVL34:
 398              		.loc 1 843 0
 399 0088 6B68     		ldr	r3, [r5, #4]
ARM GAS  /tmp/cccfbWMZ.s 			page 8


 400              		.loc 1 840 0
 401 008a C4F81068 		str	r6, [r4, #2064]
 402              		.loc 1 843 0
 403 008e DB68     		ldr	r3, [r3, #12]
 404              		.loc 1 841 0
 405 0090 C4F81468 		str	r6, [r4, #2068]
 406              		.loc 1 842 0
 407 0094 C4F81C68 		str	r6, [r4, #2076]
 408              		.loc 1 843 0
 409 0098 0BB9     		cbnz	r3, .L27
 410              		.loc 1 844 0
 411 009a 0A4B     		ldr	r3, .L33+16
 412 009c 00E0     		b	.L32
 413              	.L27:
 414              		.loc 1 848 0
 415 009e 0A4B     		ldr	r3, .L33+20
 416              	.L32:
 417 00a0 A361     		str	r3, [r4, #24]
 418              		.loc 1 854 0
 419 00a2 4FF0FF33 		mov	r3, #-1
 420 00a6 6361     		str	r3, [r4, #20]
 421              		.loc 1 857 0
 422 00a8 A368     		ldr	r3, [r4, #8]
 423 00aa 43F00103 		orr	r3, r3, #1
 424 00ae A360     		str	r3, [r4, #8]
 425              	.LVL35:
 426              	.L21:
 427 00b0 70BD     		pop	{r4, r5, r6, pc}
 428              	.LVL36:
 429              	.L34:
 430 00b2 00BF     		.align	2
 431              	.L33:
 432 00b4 00000000 		.word	.LANCHOR0
 433 00b8 00380240 		.word	1073887232
 434 00bc 40140040 		.word	1073747008
 435 00c0 03002002 		.word	35651587
 436 00c4 003C30C0 		.word	-1070580736
 437 00c8 083C30C0 		.word	-1070580728
 438              		.cfi_endproc
 439              	.LFE340:
 440              		.size	usb_lld_start, .-usb_lld_start
 441              		.section	.text.usb_lld_stop,"ax",%progbits
 442              		.align	1
 443              		.global	usb_lld_stop
 444              		.thumb
 445              		.thumb_func
 446              		.type	usb_lld_stop, %function
 447              	usb_lld_stop:
 448              	.LFB341:
 449              		.loc 1 868 0
 450              		.cfi_startproc
 451              		@ args = 0, pretend = 0, frame = 0
 452              		@ frame_needed = 0, uses_anonymous_args = 0
 453              	.LVL37:
 454 0000 38B5     		push	{r3, r4, r5, lr}
 455              		.cfi_def_cfa_offset 16
 456              		.cfi_offset 3, -16
ARM GAS  /tmp/cccfbWMZ.s 			page 9


 457              		.cfi_offset 4, -12
 458              		.cfi_offset 5, -8
 459              		.cfi_offset 14, -4
 460              		.loc 1 872 0
 461 0002 0378     		ldrb	r3, [r0]	@ zero_extendqisi2
 462              		.loc 1 869 0
 463 0004 456D     		ldr	r5, [r0, #84]
 464              	.LVL38:
 465              		.loc 1 872 0
 466 0006 012B     		cmp	r3, #1
 467              		.loc 1 868 0
 468 0008 0446     		mov	r4, r0
 469              		.loc 1 872 0
 470 000a 16D0     		beq	.L35
 471              		.loc 1 876 0
 472 000c FFF7FEFF 		bl	otg_disable_ep
 473              	.LVL39:
 474              		.loc 1 878 0
 475 0010 0023     		movs	r3, #0
 476 0012 C5F81C38 		str	r3, [r5, #2076]
 477              		.loc 1 879 0
 478 0016 AB60     		str	r3, [r5, #8]
 479              		.loc 1 880 0
 480 0018 AB63     		str	r3, [r5, #56]
 481              		.loc 1 883 0
 482 001a 084B     		ldr	r3, .L39
 483 001c 9C42     		cmp	r4, r3
 484 001e 0CD1     		bne	.L35
 485              		.loc 1 884 0
 486 0020 4320     		movs	r0, #67
 487 0022 FFF7FEFF 		bl	nvicDisableVector
 488              	.LVL40:
 489              		.loc 1 885 0
 490 0026 064B     		ldr	r3, .L39+4
 491 0028 5A6B     		ldr	r2, [r3, #52]
 492 002a 22F08002 		bic	r2, r2, #128
 493 002e 5A63     		str	r2, [r3, #52]
 494 0030 5A6D     		ldr	r2, [r3, #84]
 495 0032 22F08002 		bic	r2, r2, #128
 496 0036 5A65     		str	r2, [r3, #84]
 497 0038 5B6D     		ldr	r3, [r3, #84]
 498              	.L35:
 499 003a 38BD     		pop	{r3, r4, r5, pc}
 500              	.LVL41:
 501              	.L40:
 502              		.align	2
 503              	.L39:
 504 003c 00000000 		.word	.LANCHOR0
 505 0040 00380240 		.word	1073887232
 506              		.cfi_endproc
 507              	.LFE341:
 508              		.size	usb_lld_stop, .-usb_lld_stop
 509              		.section	.text.usb_lld_reset,"ax",%progbits
 510              		.align	1
 511              		.global	usb_lld_reset
 512              		.thumb
 513              		.thumb_func
ARM GAS  /tmp/cccfbWMZ.s 			page 10


 514              		.type	usb_lld_reset, %function
 515              	usb_lld_reset:
 516              	.LFB342:
 517              		.loc 1 908 0
 518              		.cfi_startproc
 519              		@ args = 0, pretend = 0, frame = 0
 520              		@ frame_needed = 0, uses_anonymous_args = 0
 521              	.LVL42:
 522 0000 70B5     		push	{r4, r5, r6, lr}
 523              		.cfi_def_cfa_offset 16
 524              		.cfi_offset 4, -16
 525              		.cfi_offset 5, -12
 526              		.cfi_offset 6, -8
 527              		.cfi_offset 14, -4
 528              		.loc 1 910 0
 529 0002 446D     		ldr	r4, [r0, #84]
 530              	.LVL43:
 531              		.loc 1 908 0
 532 0004 0546     		mov	r5, r0
 533              		.loc 1 913 0
 534 0006 0021     		movs	r1, #0
 535 0008 2046     		mov	r0, r4
 536              	.LVL44:
 537 000a FFF7FEFF 		bl	otg_txfifo_flush.isra.1
 538              	.LVL45:
 539              		.loc 1 920 0
 540 000e A96D     		ldr	r1, [r5, #88]
 541              		.loc 1 916 0
 542 0010 0023     		movs	r3, #0
 543              		.loc 1 917 0
 544 0012 4FF00112 		mov	r2, #65537
 545              		.loc 1 920 0
 546 0016 8E68     		ldr	r6, [r1, #8]
 547              		.loc 1 916 0
 548 0018 C4F83438 		str	r3, [r4, #2100]
 549              		.loc 1 917 0
 550 001c C4F81C28 		str	r2, [r4, #2076]
 551              	.LVL46:
 552              	.L42:
 553 0020 04EB4312 		add	r2, r4, r3, lsl #5
 554              		.loc 1 921 0 discriminator 3
 555 0024 4FF00060 		mov	r0, #134217728
 556              		.loc 1 920 0 discriminator 3
 557 0028 0133     		adds	r3, r3, #1
 558              	.LVL47:
 559              		.loc 1 921 0 discriminator 3
 560 002a C2F80009 		str	r0, [r2, #2304]
 561              		.loc 1 920 0 discriminator 3
 562 002e B342     		cmp	r3, r6
 563              		.loc 1 922 0 discriminator 3
 564 0030 C2F8000B 		str	r0, [r2, #2816]
 565              		.loc 1 923 0 discriminator 3
 566 0034 4FF0FF30 		mov	r0, #-1
 567 0038 C2F80809 		str	r0, [r2, #2312]
 568              		.loc 1 924 0 discriminator 3
 569 003c C2F8080B 		str	r0, [r2, #2824]
 570              		.loc 1 920 0 discriminator 3
ARM GAS  /tmp/cccfbWMZ.s 			page 11


 571 0040 EED9     		bls	.L42
 572              	.LVL48:
 573              	.LBB97:
 574              	.LBB98:
 575              		.loc 1 199 0
 576 0042 0B68     		ldr	r3, [r1]
 577              	.LVL49:
 578 0044 EB65     		str	r3, [r5, #92]
 579 0046 6A6D     		ldr	r2, [r5, #84]
 580              	.LVL50:
 581              	.LBE98:
 582              	.LBE97:
 583              		.loc 1 931 0
 584 0048 0B68     		ldr	r3, [r1]
 585 004a 6362     		str	r3, [r4, #36]
 586              	.LBB99:
 587              	.LBB100:
 588              		.loc 1 173 0
 589 004c 1023     		movs	r3, #16
 590 004e 1361     		str	r3, [r2, #16]
 591              	.L43:
 592              		.loc 1 174 0
 593 0050 1369     		ldr	r3, [r2, #16]
 594 0052 13F01006 		ands	r6, r3, #16
 595 0056 FBD1     		bne	.L43
 596              	.LVL51:
 597              	.LBB101:
 598              	.LBB102:
 599              		.loc 2 591 0
 600 0058 1220     		movs	r0, #18
 601 005a FFF7FEFF 		bl	chSysPolledDelayX
 602              	.LVL52:
 603              	.LBE102:
 604              	.LBE101:
 605              	.LBE100:
 606              	.LBE99:
 607              		.loc 1 935 0
 608 005e D4F80038 		ldr	r3, [r4, #2048]
 609 0062 23F4FE63 		bic	r3, r3, #2032
 610 0066 C4F80038 		str	r3, [r4, #2048]
 611              		.loc 1 938 0
 612 006a A369     		ldr	r3, [r4, #24]
 613 006c 43F44023 		orr	r3, r3, #786432
 614 0070 43F01003 		orr	r3, r3, #16
 615 0074 A361     		str	r3, [r4, #24]
 616              		.loc 1 939 0
 617 0076 0923     		movs	r3, #9
 618 0078 C4F81038 		str	r3, [r4, #2064]
 619              		.loc 1 940 0
 620 007c C4F81438 		str	r3, [r4, #2068]
 621              		.loc 1 943 0
 622 0080 0A4B     		ldr	r3, .L46
 623 0082 EB60     		str	r3, [r5, #12]
 624              		.loc 1 944 0
 625 0084 4FF0C043 		mov	r3, #1610612736
 626 0088 C4F8103B 		str	r3, [r4, #2832]
 627              		.loc 1 945 0
ARM GAS  /tmp/cccfbWMZ.s 			page 12


 628 008c 084B     		ldr	r3, .L46+4
 629 008e C4F8003B 		str	r3, [r4, #2816]
 630              		.loc 1 947 0
 631 0092 C4F81069 		str	r6, [r4, #2320]
 632              		.loc 1 948 0
 633 0096 C4F80039 		str	r3, [r4, #2304]
 634              	.LVL53:
 635              	.LBB103:
 636              	.LBB104:
 637              		.loc 1 213 0
 638 009a EB6D     		ldr	r3, [r5, #92]
 639              	.LVL54:
 640              		.loc 1 214 0
 641 009c 03F11002 		add	r2, r3, #16
 642              	.LBE104:
 643              	.LBE103:
 644              		.loc 1 950 0
 645 00a0 43F48013 		orr	r3, r3, #1048576
 646              	.LVL55:
 647              	.LBB106:
 648              	.LBB105:
 649              		.loc 1 214 0
 650 00a4 EA65     		str	r2, [r5, #92]
 651              	.LVL56:
 652              	.LBE105:
 653              	.LBE106:
 654              		.loc 1 950 0
 655 00a6 A362     		str	r3, [r4, #40]
 656 00a8 70BD     		pop	{r4, r5, r6, pc}
 657              	.LVL57:
 658              	.L47:
 659 00aa 00BF     		.align	2
 660              	.L46:
 661 00ac 00000000 		.word	.LANCHOR2
 662 00b0 40800010 		.word	268468288
 663              		.cfi_endproc
 664              	.LFE342:
 665              		.size	usb_lld_reset, .-usb_lld_reset
 666              		.section	.text.usb_lld_set_address,"ax",%progbits
 667              		.align	1
 668              		.global	usb_lld_set_address
 669              		.thumb
 670              		.thumb_func
 671              		.type	usb_lld_set_address, %function
 672              	usb_lld_set_address:
 673              	.LFB343:
 674              		.loc 1 962 0
 675              		.cfi_startproc
 676              		@ args = 0, pretend = 0, frame = 0
 677              		@ frame_needed = 0, uses_anonymous_args = 0
 678              		@ link register save eliminated.
 679              	.LVL58:
 680              		.loc 1 963 0
 681 0000 426D     		ldr	r2, [r0, #84]
 682              	.LVL59:
 683              		.loc 1 965 0
 684 0002 90F84E10 		ldrb	r1, [r0, #78]	@ zero_extendqisi2
ARM GAS  /tmp/cccfbWMZ.s 			page 13


 685 0006 D2F80038 		ldr	r3, [r2, #2048]
 686 000a 23F4FE63 		bic	r3, r3, #2032
 687 000e 43EA0113 		orr	r3, r3, r1, lsl #4
 688 0012 C2F80038 		str	r3, [r2, #2048]
 689 0016 7047     		bx	lr
 690              		.cfi_endproc
 691              	.LFE343:
 692              		.size	usb_lld_set_address, .-usb_lld_set_address
 693              		.section	.text.usb_lld_init_endpoint,"ax",%progbits
 694              		.align	1
 695              		.global	usb_lld_init_endpoint
 696              		.thumb
 697              		.thumb_func
 698              		.type	usb_lld_init_endpoint, %function
 699              	usb_lld_init_endpoint:
 700              	.LFB344:
 701              		.loc 1 976 0
 702              		.cfi_startproc
 703              		@ args = 0, pretend = 0, frame = 0
 704              		@ frame_needed = 0, uses_anonymous_args = 0
 705              	.LVL60:
 706 0000 2DE9F041 		push	{r4, r5, r6, r7, r8, lr}
 707              		.cfi_def_cfa_offset 24
 708              		.cfi_offset 4, -24
 709              		.cfi_offset 5, -20
 710              		.cfi_offset 6, -16
 711              		.cfi_offset 7, -12
 712              		.cfi_offset 8, -8
 713              		.cfi_offset 14, -4
 714 0004 0FB2     		sxth	r7, r1
 715 0006 00EB8708 		add	r8, r0, r7, lsl #2
 716              		.loc 1 976 0
 717 000a 0D46     		mov	r5, r1
 718              		.loc 1 981 0
 719 000c D8F80C10 		ldr	r1, [r8, #12]
 720              	.LVL61:
 721              		.loc 1 978 0
 722 0010 446D     		ldr	r4, [r0, #84]
 723              	.LVL62:
 724              		.loc 1 981 0
 725 0012 0E68     		ldr	r6, [r1]
 726 0014 06F00303 		and	r3, r6, #3
 727 0018 022B     		cmp	r3, #2
 728 001a 07D0     		beq	.L51
 729 001c 032B     		cmp	r3, #3
 730 001e 07D0     		beq	.L52
 731              		.loc 1 983 0
 732 0020 3D4A     		ldr	r2, .L62
 733 0022 3E4E     		ldr	r6, .L62+4
 734 0024 012B     		cmp	r3, #1
 735 0026 18BF     		it	ne
 736 0028 1646     		movne	r6, r2
 737 002a 02E0     		b	.L50
 738              	.L51:
 739              	.LVL63:
 740              		.loc 1 989 0
 741 002c 3C4E     		ldr	r6, .L62+8
ARM GAS  /tmp/cccfbWMZ.s 			page 14


 742              		.loc 1 990 0
 743 002e 00E0     		b	.L50
 744              	.LVL64:
 745              	.L52:
 746              		.loc 1 992 0
 747 0030 3C4E     		ldr	r6, .L62+12
 748              	.LVL65:
 749              	.L50:
 750              		.loc 1 999 0
 751 0032 6A01     		lsls	r2, r5, #5
 752 0034 A318     		adds	r3, r4, r2
 753 0036 4FF0000E 		mov	lr, #0
 754 003a C3F810EB 		str	lr, [r3, #2832]
 755              		.loc 1 1000 0
 756 003e 8B69     		ldr	r3, [r1, #24]
 757 0040 05F1100C 		add	ip, r5, #16
 758 0044 8BB1     		cbz	r3, .L54
 759              		.loc 1 1001 0
 760 0046 B1F812E0 		ldrh	lr, [r1, #18]
 761 004a 05F15803 		add	r3, r5, #88
 762 004e 5B01     		lsls	r3, r3, #5
 763 0050 46EA0E0E 		orr	lr, r6, lr
 764 0054 44F803E0 		str	lr, [r4, r3]
 765              		.loc 1 1002 0
 766 0058 4FF0010E 		mov	lr, #1
 767 005c D4F81C38 		ldr	r3, [r4, #2076]
 768 0060 0EFA0CFE 		lsl	lr, lr, ip
 769 0064 4EEA0303 		orr	r3, lr, r3
 770 0068 0FE0     		b	.L60
 771              	.L54:
 772 006a 04EB471E 		add	lr, r4, r7, lsl #5
 773              		.loc 1 1005 0
 774 006e DEF8003B 		ldr	r3, [lr, #2816]
 775 0072 23F40043 		bic	r3, r3, #32768
 776 0076 CEF8003B 		str	r3, [lr, #2816]
 777              		.loc 1 1006 0
 778 007a D4F81C38 		ldr	r3, [r4, #2076]
 779 007e 4FF0010E 		mov	lr, #1
 780 0082 0EFA0CFE 		lsl	lr, lr, ip
 781 0086 23EA0E03 		bic	r3, r3, lr
 782              	.L60:
 783              		.loc 1 1010 0
 784 008a 2244     		add	r2, r2, r4
 785              		.loc 1 1006 0
 786 008c C4F81C38 		str	r3, [r4, #2076]
 787              		.loc 1 1010 0
 788 0090 0023     		movs	r3, #0
 789 0092 C2F81039 		str	r3, [r2, #2320]
 790              		.loc 1 1011 0
 791 0096 4B69     		ldr	r3, [r1, #20]
 792 0098 05F13F02 		add	r2, r5, #63
 793 009c 0BB3     		cbz	r3, .L56
 794              		.loc 1 1013 0
 795 009e 0B8A     		ldrh	r3, [r1, #16]
 796              		.loc 1 1014 0
 797 00a0 898B     		ldrh	r1, [r1, #28]
 798              		.loc 1 1013 0
ARM GAS  /tmp/cccfbWMZ.s 			page 15


 799 00a2 9B08     		lsrs	r3, r3, #2
 800              	.LVL66:
 801              		.loc 1 1014 0
 802 00a4 0129     		cmp	r1, #1
 803              		.loc 1 1015 0
 804 00a6 88BF     		it	hi
 805 00a8 4B43     		mulhi	r3, r1, r3
 806              	.LVL67:
 807              	.LBB107:
 808              	.LBB108:
 809              		.loc 1 213 0
 810 00aa C16D     		ldr	r1, [r0, #92]
 811              	.LVL68:
 812              	.LBE108:
 813              	.LBE107:
 814              		.loc 1 1016 0
 815 00ac 04EB8202 		add	r2, r4, r2, lsl #2
 816              	.LBB111:
 817              	.LBB109:
 818              		.loc 1 214 0
 819 00b0 5F18     		adds	r7, r3, r1
 820              	.LBE109:
 821              	.LBE111:
 822              		.loc 1 1016 0
 823 00b2 41EA0343 		orr	r3, r1, r3, lsl #16
 824              	.LVL69:
 825              	.LBB112:
 826              	.LBB110:
 827              		.loc 1 214 0
 828 00b6 C765     		str	r7, [r0, #92]
 829              	.LBE110:
 830              	.LBE112:
 831              		.loc 1 1018 0
 832 00b8 2946     		mov	r1, r5
 833              	.LVL70:
 834              		.loc 1 1016 0
 835 00ba 5360     		str	r3, [r2, #4]
 836              		.loc 1 1018 0
 837 00bc 2046     		mov	r0, r4
 838              	.LVL71:
 839 00be FFF7FEFF 		bl	otg_txfifo_flush.isra.1
 840              	.LVL72:
 841              		.loc 1 1022 0
 842 00c2 D8F80C30 		ldr	r3, [r8, #12]
 843              		.loc 1 1021 0
 844 00c6 1B8A     		ldrh	r3, [r3, #16]
 845 00c8 43EA8553 		orr	r3, r3, r5, lsl #22
 846 00cc 1E43     		orrs	r6, r6, r3
 847              	.LVL73:
 848              		.loc 1 1020 0
 849 00ce 05F14803 		add	r3, r5, #72
 850 00d2 5B01     		lsls	r3, r3, #5
 851 00d4 E650     		str	r6, [r4, r3]
 852              		.loc 1 1023 0
 853 00d6 0123     		movs	r3, #1
 854 00d8 D4F81C28 		ldr	r2, [r4, #2076]
 855 00dc AB40     		lsls	r3, r3, r5
ARM GAS  /tmp/cccfbWMZ.s 			page 16


 856 00de 1343     		orrs	r3, r3, r2
 857 00e0 15E0     		b	.L61
 858              	.LVL74:
 859              	.L56:
 860              		.loc 1 1026 0
 861 00e2 04EB8202 		add	r2, r4, r2, lsl #2
 862 00e6 104B     		ldr	r3, .L62+16
 863 00e8 5360     		str	r3, [r2, #4]
 864              		.loc 1 1027 0
 865 00ea 2046     		mov	r0, r4
 866              	.LVL75:
 867 00ec 2946     		mov	r1, r5
 868 00ee FFF7FEFF 		bl	otg_txfifo_flush.isra.1
 869              	.LVL76:
 870 00f2 04EB4713 		add	r3, r4, r7, lsl #5
 871              		.loc 1 1028 0
 872 00f6 D3F80029 		ldr	r2, [r3, #2304]
 873 00fa 22F40042 		bic	r2, r2, #32768
 874 00fe C3F80029 		str	r2, [r3, #2304]
 875              		.loc 1 1029 0
 876 0102 D4F81C28 		ldr	r2, [r4, #2076]
 877 0106 0123     		movs	r3, #1
 878 0108 AB40     		lsls	r3, r3, r5
 879 010a 22EA0303 		bic	r3, r2, r3
 880              	.LVL77:
 881              	.L61:
 882 010e C4F81C38 		str	r3, [r4, #2076]
 883 0112 BDE8F081 		pop	{r4, r5, r6, r7, r8, pc}
 884              	.LVL78:
 885              	.L63:
 886 0116 00BF     		.align	2
 887              	.L62:
 888 0118 00800010 		.word	268468224
 889 011c 00800410 		.word	268730368
 890 0120 00800810 		.word	268992512
 891 0124 00800C10 		.word	269254656
 892 0128 00040002 		.word	33555456
 893              		.cfi_endproc
 894              	.LFE344:
 895              		.size	usb_lld_init_endpoint, .-usb_lld_init_endpoint
 896              		.section	.text.usb_lld_disable_endpoints,"ax",%progbits
 897              		.align	1
 898              		.global	usb_lld_disable_endpoints
 899              		.thumb
 900              		.thumb_func
 901              		.type	usb_lld_disable_endpoints, %function
 902              	usb_lld_disable_endpoints:
 903              	.LFB345:
 904              		.loc 1 1040 0
 905              		.cfi_startproc
 906              		@ args = 0, pretend = 0, frame = 0
 907              		@ frame_needed = 0, uses_anonymous_args = 0
 908              		@ link register save eliminated.
 909              	.LVL79:
 910              	.LBB113:
 911              	.LBB114:
 912              		.loc 1 199 0
ARM GAS  /tmp/cccfbWMZ.s 			page 17


 913 0000 826D     		ldr	r2, [r0, #88]
 914 0002 1268     		ldr	r2, [r2]
 915 0004 C265     		str	r2, [r0, #92]
 916              	.LBE114:
 917              	.LBE113:
 918              		.loc 1 1046 0
 919 0006 FFF7FEBF 		b	otg_disable_ep
 920              	.LVL80:
 921              		.cfi_endproc
 922              	.LFE345:
 923              		.size	usb_lld_disable_endpoints, .-usb_lld_disable_endpoints
 924              		.section	.text.usb_lld_get_status_out,"ax",%progbits
 925              		.align	1
 926              		.global	usb_lld_get_status_out
 927              		.thumb
 928              		.thumb_func
 929              		.type	usb_lld_get_status_out, %function
 930              	usb_lld_get_status_out:
 931              	.LFB346:
 932              		.loc 1 1061 0
 933              		.cfi_startproc
 934              		@ args = 0, pretend = 0, frame = 0
 935              		@ frame_needed = 0, uses_anonymous_args = 0
 936              		@ link register save eliminated.
 937              	.LVL81:
 938              		.loc 1 1066 0
 939 0000 5831     		adds	r1, r1, #88
 940              	.LVL82:
 941 0002 436D     		ldr	r3, [r0, #84]
 942 0004 4901     		lsls	r1, r1, #5
 943 0006 5B58     		ldr	r3, [r3, r1]
 944              	.LVL83:
 945              		.loc 1 1067 0
 946 0008 13F40040 		ands	r0, r3, #32768
 947              	.LVL84:
 948 000c 04D0     		beq	.L66
 949              		.loc 1 1069 0
 950 000e 13F4001F 		tst	r3, #2097152
 951              		.loc 1 1071 0
 952 0012 14BF     		ite	ne
 953 0014 0120     		movne	r0, #1
 954 0016 0220     		moveq	r0, #2
 955              	.L66:
 956              		.loc 1 1072 0
 957 0018 7047     		bx	lr
 958              		.cfi_endproc
 959              	.LFE346:
 960              		.size	usb_lld_get_status_out, .-usb_lld_get_status_out
 961              		.section	.text.usb_lld_get_status_in,"ax",%progbits
 962              		.align	1
 963              		.global	usb_lld_get_status_in
 964              		.thumb
 965              		.thumb_func
 966              		.type	usb_lld_get_status_in, %function
 967              	usb_lld_get_status_in:
 968              	.LFB347:
 969              		.loc 1 1086 0
ARM GAS  /tmp/cccfbWMZ.s 			page 18


 970              		.cfi_startproc
 971              		@ args = 0, pretend = 0, frame = 0
 972              		@ frame_needed = 0, uses_anonymous_args = 0
 973              		@ link register save eliminated.
 974              	.LVL85:
 975              		.loc 1 1091 0
 976 0000 4831     		adds	r1, r1, #72
 977              	.LVL86:
 978 0002 436D     		ldr	r3, [r0, #84]
 979 0004 4901     		lsls	r1, r1, #5
 980 0006 5B58     		ldr	r3, [r3, r1]
 981              	.LVL87:
 982              		.loc 1 1092 0
 983 0008 13F40040 		ands	r0, r3, #32768
 984              	.LVL88:
 985 000c 04D0     		beq	.L70
 986              		.loc 1 1094 0
 987 000e 13F4001F 		tst	r3, #2097152
 988              		.loc 1 1096 0
 989 0012 14BF     		ite	ne
 990 0014 0120     		movne	r0, #1
 991 0016 0220     		moveq	r0, #2
 992              	.L70:
 993              		.loc 1 1097 0
 994 0018 7047     		bx	lr
 995              		.cfi_endproc
 996              	.LFE347:
 997              		.size	usb_lld_get_status_in, .-usb_lld_get_status_in
 998              		.section	.text.usb_lld_read_setup,"ax",%progbits
 999              		.align	1
 1000              		.global	usb_lld_read_setup
 1001              		.thumb
 1002              		.thumb_func
 1003              		.type	usb_lld_read_setup, %function
 1004              	usb_lld_read_setup:
 1005              	.LFB348:
 1006              		.loc 1 1113 0
 1007              		.cfi_startproc
 1008              		@ args = 0, pretend = 0, frame = 0
 1009              		@ frame_needed = 0, uses_anonymous_args = 0
 1010              		@ link register save eliminated.
 1011              	.LVL89:
 1012              		.loc 1 1115 0
 1013 0000 00EB8101 		add	r1, r0, r1, lsl #2
 1014              	.LVL90:
 1015 0004 CB68     		ldr	r3, [r1, #12]
 1016 0006 196A     		ldr	r1, [r3, #32]
 1017 0008 0B68     		ldr	r3, [r1]	@ unaligned
 1018 000a 1360     		str	r3, [r2]	@ unaligned
 1019 000c 4B68     		ldr	r3, [r1, #4]	@ unaligned
 1020 000e 5360     		str	r3, [r2, #4]	@ unaligned
 1021 0010 7047     		bx	lr
 1022              		.cfi_endproc
 1023              	.LFE348:
 1024              		.size	usb_lld_read_setup, .-usb_lld_read_setup
 1025              		.section	.text.usb_lld_start_out,"ax",%progbits
 1026              		.align	1
ARM GAS  /tmp/cccfbWMZ.s 			page 19


 1027              		.global	usb_lld_start_out
 1028              		.thumb
 1029              		.thumb_func
 1030              		.type	usb_lld_start_out, %function
 1031              	usb_lld_start_out:
 1032              	.LFB349:
 1033              		.loc 1 1126 0
 1034              		.cfi_startproc
 1035              		@ args = 0, pretend = 0, frame = 0
 1036              		@ frame_needed = 0, uses_anonymous_args = 0
 1037              	.LVL91:
 1038              		.loc 1 1128 0
 1039 0000 00EB8103 		add	r3, r0, r1, lsl #2
 1040              		.loc 1 1126 0
 1041 0004 30B5     		push	{r4, r5, lr}
 1042              		.cfi_def_cfa_offset 12
 1043              		.cfi_offset 4, -12
 1044              		.cfi_offset 5, -8
 1045              		.cfi_offset 14, -4
 1046              		.loc 1 1128 0
 1047 0006 DD68     		ldr	r5, [r3, #12]
 1048 0008 AA69     		ldr	r2, [r5, #24]
 1049              	.LVL92:
 1050              		.loc 1 1131 0
 1051 000a 1368     		ldr	r3, [r2]
 1052 000c D360     		str	r3, [r2, #12]
 1053              		.loc 1 1132 0
 1054 000e 19B9     		cbnz	r1, .L75
 1055              		.loc 1 1132 0 is_stmt 0 discriminator 1
 1056 0010 402B     		cmp	r3, #64
 1057              		.loc 1 1133 0 is_stmt 1 discriminator 1
 1058 0012 84BF     		itt	hi
 1059 0014 4023     		movhi	r3, #64
 1060 0016 1360     		strhi	r3, [r2]
 1061              	.L75:
 1062 0018 1468     		ldr	r4, [r2]
 1063              		.loc 1 1140 0
 1064 001a 6B8A     		ldrh	r3, [r5, #18]
 1065              		.loc 1 1145 0
 1066 001c 426D     		ldr	r2, [r0, #84]
 1067              	.LVL93:
 1068 001e 013C     		subs	r4, r4, #1
 1069              		.loc 1 1140 0
 1070 0020 1C44     		add	r4, r4, r3
 1071 0022 B4FBF3F4 		udiv	r4, r4, r3
 1072              	.LVL94:
 1073              		.loc 1 1142 0
 1074 0026 6343     		muls	r3, r4, r3
 1075              	.LVL95:
 1076              		.loc 1 1145 0
 1077 0028 E004     		lsls	r0, r4, #19
 1078              	.LVL96:
 1079              		.loc 1 1142 0
 1080 002a 0333     		adds	r3, r3, #3
 1081 002c 40F0C040 		orr	r0, r0, #1610612736
 1082 0030 23F00303 		bic	r3, r3, #3
 1083              	.LVL97:
ARM GAS  /tmp/cccfbWMZ.s 			page 20


 1084              		.loc 1 1145 0
 1085 0034 0343     		orrs	r3, r3, r0
 1086              	.LVL98:
 1087 0036 02EB4110 		add	r0, r2, r1, lsl #5
 1088 003a 09B2     		sxth	r1, r1
 1089              	.LVL99:
 1090 003c C0F8103B 		str	r3, [r0, #2832]
 1091              		.loc 1 1149 0
 1092 0040 2B68     		ldr	r3, [r5]
 1093 0042 03F00303 		and	r3, r3, #3
 1094 0046 012B     		cmp	r3, #1
 1095 0048 0ED1     		bne	.L76
 1096              		.loc 1 1151 0
 1097 004a D2F80838 		ldr	r3, [r2, #2056]
 1098 004e 02EB4110 		add	r0, r2, r1, lsl #5
 1099 0052 13F4807F 		tst	r3, #256
 1100              		.loc 1 1152 0
 1101 0056 D0F8003B 		ldr	r3, [r0, #2816]
 1102 005a 14BF     		ite	ne
 1103 005c 43F08053 		orrne	r3, r3, #268435456
 1104              		.loc 1 1154 0
 1105 0060 43F00053 		orreq	r3, r3, #536870912
 1106 0064 C0F8003B 		str	r3, [r0, #2816]
 1107              	.L76:
 1108 0068 02EB4112 		add	r2, r2, r1, lsl #5
 1109              		.loc 1 1158 0
 1110 006c D2F8003B 		ldr	r3, [r2, #2816]
 1111 0070 43F00443 		orr	r3, r3, #-2080374784
 1112 0074 C2F8003B 		str	r3, [r2, #2816]
 1113 0078 30BD     		pop	{r4, r5, pc}
 1114              		.cfi_endproc
 1115              	.LFE349:
 1116              		.size	usb_lld_start_out, .-usb_lld_start_out
 1117              		.section	.text.otg_epout_handler.constprop.7,"ax",%progbits
 1118              		.align	1
 1119              		.thumb
 1120              		.thumb_func
 1121              		.type	otg_epout_handler.constprop.7, %function
 1122              	otg_epout_handler.constprop.7:
 1123              	.LFB362:
 1124              		.loc 1 413 0
 1125              		.cfi_startproc
 1126              		@ args = 0, pretend = 0, frame = 0
 1127              		@ frame_needed = 0, uses_anonymous_args = 0
 1128              	.LVL100:
 1129 0000 2DE9F041 		push	{r4, r5, r6, r7, r8, lr}
 1130              		.cfi_def_cfa_offset 24
 1131              		.cfi_offset 4, -24
 1132              		.cfi_offset 5, -20
 1133              		.cfi_offset 6, -16
 1134              		.cfi_offset 7, -12
 1135              		.cfi_offset 8, -8
 1136              		.cfi_offset 14, -4
 1137              		.loc 1 414 0
 1138 0004 264D     		ldr	r5, .L97
 1139 0006 6E6D     		ldr	r6, [r5, #84]
 1140              	.LVL101:
ARM GAS  /tmp/cccfbWMZ.s 			page 21


 1141              		.loc 1 415 0
 1142 0008 06EB4013 		add	r3, r6, r0, lsl #5
 1143              		.loc 1 413 0
 1144 000c 0446     		mov	r4, r0
 1145              		.loc 1 415 0
 1146 000e D3F8087B 		ldr	r7, [r3, #2824]
 1147              	.LVL102:
 1148              		.loc 1 418 0
 1149 0012 C3F8087B 		str	r7, [r3, #2824]
 1150              		.loc 1 420 0
 1151 0016 3807     		lsls	r0, r7, #28
 1152              	.LVL103:
 1153 0018 0AD5     		bpl	.L80
 1154 001a D6F81438 		ldr	r3, [r6, #2068]
 1155 001e 1907     		lsls	r1, r3, #28
 1156 0020 06D5     		bpl	.L80
 1157              		.loc 1 423 0
 1158 0022 05EB8403 		add	r3, r5, r4, lsl #2
 1159 0026 2846     		mov	r0, r5
 1160 0028 DB68     		ldr	r3, [r3, #12]
 1161 002a 2146     		mov	r1, r4
 1162 002c 5B68     		ldr	r3, [r3, #4]
 1163 002e 9847     		blx	r3
 1164              	.LVL104:
 1165              	.L80:
 1166              		.loc 1 426 0
 1167 0030 FA07     		lsls	r2, r7, #31
 1168 0032 32D5     		bpl	.L79
 1169 0034 D6F81438 		ldr	r3, [r6, #2068]
 1170 0038 DB07     		lsls	r3, r3, #31
 1171 003a 2ED5     		bpl	.L79
 1172              	.LBB132:
 1173              		.loc 1 430 0
 1174 003c 05EB8403 		add	r3, r5, r4, lsl #2
 1175 0040 D968     		ldr	r1, [r3, #12]
 1176 0042 8B69     		ldr	r3, [r1, #24]
 1177              	.LVL105:
 1178              		.loc 1 433 0
 1179 0044 E4B9     		cbnz	r4, .L84
 1180              		.loc 1 447 0
 1181 0046 4A8A     		ldrh	r2, [r1, #18]
 1182 0048 5E68     		ldr	r6, [r3, #4]
 1183              	.LVL106:
 1184 004a B6FBF2F0 		udiv	r0, r6, r2
 1185 004e 02FB1062 		mls	r2, r2, r0, r6
 1186 0052 AAB9     		cbnz	r2, .L84
 1187              		.loc 1 448 0
 1188 0054 1868     		ldr	r0, [r3]
 1189 0056 DA68     		ldr	r2, [r3, #12]
 1190              		.loc 1 447 0
 1191 0058 9042     		cmp	r0, r2
 1192 005a 11D2     		bcs	.L84
 1193              		.loc 1 449 0
 1194 005c 121A     		subs	r2, r2, r0
 1195              		.loc 1 450 0
 1196 005e 83E81400 		stmia	r3, {r2, r4}
 1197              	.LVL107:
ARM GAS  /tmp/cccfbWMZ.s 			page 22


 1198              	.LBB133:
 1199              	.LBB134:
 1200              	.LBB135:
 1201              	.LBB136:
 1202              	.LBB137:
 1203              	.LBB138:
 1204              	.LBB139:
 1205              		.file 3 "../../modules/ChibiOS/os/common/ext/ARM/CMSIS/Core/Include/cmsis_gcc.h"
 1206              		.loc 3 493 0
 1207 0062 2023     		movs	r3, #32
 1208              	.LVL108:
 1209              	@ 493 "../../modules/ChibiOS/os/common/ext/ARM/CMSIS/Core/Include/cmsis_gcc.h" 1
 1210 0064 83F31188 		MSR basepri, r3
 1211              	@ 0 "" 2
 1212              		.thumb
 1213              	.LBE139:
 1214              	.LBE138:
 1215              	.LBE137:
 1216              	.LBE136:
 1217              		.file 4 "../../modules/ChibiOS/os/rt/include/chsys.h"
 1218              		.loc 4 396 0
 1219 0068 FFF7FEFF 		bl	_stats_start_measure_crit_isr
 1220              	.LVL109:
 1221              	.LBE135:
 1222              	.LBE134:
 1223              	.LBE133:
 1224              		.loc 1 452 0
 1225 006c 0C48     		ldr	r0, .L97
 1226 006e 2146     		mov	r1, r4
 1227 0070 FFF7FEFF 		bl	usb_lld_start_out
 1228              	.LVL110:
 1229              	.LBB140:
 1230              	.LBB141:
 1231              	.LBB142:
 1232              		.loc 4 416 0
 1233 0074 FFF7FEFF 		bl	_stats_stop_measure_crit_isr
 1234              	.LVL111:
 1235              	.LBB143:
 1236              	.LBB144:
 1237              	.LBB145:
 1238              	.LBB146:
 1239              		.loc 3 493 0
 1240              	@ 493 "../../modules/ChibiOS/os/common/ext/ARM/CMSIS/Core/Include/cmsis_gcc.h" 1
 1241 0078 84F31188 		MSR basepri, r4
 1242              	@ 0 "" 2
 1243              		.thumb
 1244 007c BDE8F081 		pop	{r4, r5, r6, r7, r8, pc}
 1245              	.LVL112:
 1246              	.L84:
 1247              	.LBE146:
 1248              	.LBE145:
 1249              	.LBE144:
 1250              	.LBE143:
 1251              	.LBE142:
 1252              	.LBE141:
 1253              	.LBE140:
 1254              		.loc 1 459 0
ARM GAS  /tmp/cccfbWMZ.s 			page 23


 1255 0080 6A89     		ldrh	r2, [r5, #10]
 1256 0082 0123     		movs	r3, #1
 1257              	.LVL113:
 1258 0084 A340     		lsls	r3, r3, r4
 1259 0086 22EA0303 		bic	r3, r2, r3
 1260 008a 6B81     		strh	r3, [r5, #10]	@ movhi
 1261 008c CB68     		ldr	r3, [r1, #12]
 1262 008e 23B1     		cbz	r3, .L79
 1263 0090 2146     		mov	r1, r4
 1264              	.LVL114:
 1265 0092 0348     		ldr	r0, .L97
 1266              	.LBE132:
 1267              		.loc 1 461 0
 1268 0094 BDE8F041 		pop	{r4, r5, r6, r7, r8, lr}
 1269              		.cfi_remember_state
 1270              		.cfi_restore 14
 1271              		.cfi_restore 8
 1272              		.cfi_restore 7
 1273              		.cfi_restore 6
 1274              		.cfi_restore 5
 1275              		.cfi_restore 4
 1276              		.cfi_def_cfa_offset 0
 1277              	.LVL115:
 1278              	.LBB147:
 1279              		.loc 1 459 0
 1280 0098 1847     		bx	r3	@ indirect register sibling call
 1281              	.LVL116:
 1282              	.L79:
 1283              		.cfi_restore_state
 1284 009a BDE8F081 		pop	{r4, r5, r6, r7, r8, pc}
 1285              	.LVL117:
 1286              	.L98:
 1287 009e 00BF     		.align	2
 1288              	.L97:
 1289 00a0 00000000 		.word	.LANCHOR0
 1290              	.LBE147:
 1291              		.cfi_endproc
 1292              	.LFE362:
 1293              		.size	otg_epout_handler.constprop.7, .-otg_epout_handler.constprop.7
 1294              		.section	.text.usb_lld_start_in,"ax",%progbits
 1295              		.align	1
 1296              		.global	usb_lld_start_in
 1297              		.thumb
 1298              		.thumb_func
 1299              		.type	usb_lld_start_in, %function
 1300              	usb_lld_start_in:
 1301              	.LFB350:
 1302              		.loc 1 1169 0
 1303              		.cfi_startproc
 1304              		@ args = 0, pretend = 0, frame = 0
 1305              		@ frame_needed = 0, uses_anonymous_args = 0
 1306              	.LVL118:
 1307              		.loc 1 1170 0
 1308 0000 00EB8103 		add	r3, r0, r1, lsl #2
 1309              		.loc 1 1169 0
 1310 0004 F0B5     		push	{r4, r5, r6, r7, lr}
 1311              		.cfi_def_cfa_offset 20
ARM GAS  /tmp/cccfbWMZ.s 			page 24


 1312              		.cfi_offset 4, -20
 1313              		.cfi_offset 5, -16
 1314              		.cfi_offset 6, -12
 1315              		.cfi_offset 7, -8
 1316              		.cfi_offset 14, -4
 1317              		.loc 1 1170 0
 1318 0006 DD68     		ldr	r5, [r3, #12]
 1319 0008 436D     		ldr	r3, [r0, #84]
 1320 000a 6A69     		ldr	r2, [r5, #20]
 1321              	.LVL119:
 1322              		.loc 1 1173 0
 1323 000c 1668     		ldr	r6, [r2]
 1324 000e D660     		str	r6, [r2, #12]
 1325 0010 4C01     		lsls	r4, r1, #5
 1326              		.loc 1 1174 0
 1327 0012 1EB9     		cbnz	r6, .L100
 1328              		.loc 1 1176 0
 1329 0014 1C44     		add	r4, r4, r3
 1330 0016 4FF40022 		mov	r2, #524288
 1331              	.LVL120:
 1332 001a 0FE0     		b	.L105
 1333              	.LVL121:
 1334              	.L100:
 1335              	.LBB148:
 1336              		.loc 1 1179 0
 1337 001c 19B9     		cbnz	r1, .L102
 1338              		.loc 1 1179 0 is_stmt 0 discriminator 1
 1339 001e 402E     		cmp	r6, #64
 1340              		.loc 1 1180 0 is_stmt 1 discriminator 1
 1341 0020 84BF     		itt	hi
 1342 0022 4020     		movhi	r0, #64
 1343              	.LVL122:
 1344 0024 1060     		strhi	r0, [r2]
 1345              	.L102:
 1346              		.loc 1 1183 0
 1347 0026 1268     		ldr	r2, [r2]
 1348              	.LVL123:
 1349 0028 2F8A     		ldrh	r7, [r5, #16]
 1350              	.LVL124:
 1351 002a 42F00056 		orr	r6, r2, #536870912
 1352 002e 013A     		subs	r2, r2, #1
 1353              	.LVL125:
 1354 0030 D019     		adds	r0, r2, r7
 1355              		.loc 1 1186 0
 1356 0032 1C44     		add	r4, r4, r3
 1357              		.loc 1 1183 0
 1358 0034 B0FBF7F2 		udiv	r2, r0, r7
 1359              		.loc 1 1186 0
 1360 0038 46EAC242 		orr	r2, r6, r2, lsl #19
 1361              	.LVL126:
 1362              	.L105:
 1363 003c C4F81029 		str	r2, [r4, #2320]
 1364              	.LBE148:
 1365              		.loc 1 1191 0
 1366 0040 2A68     		ldr	r2, [r5]
 1367 0042 02F00302 		and	r2, r2, #3
 1368 0046 012A     		cmp	r2, #1
ARM GAS  /tmp/cccfbWMZ.s 			page 25


 1369 0048 0AB2     		sxth	r2, r1
 1370 004a 0ED1     		bne	.L103
 1371              		.loc 1 1193 0
 1372 004c D3F80808 		ldr	r0, [r3, #2056]
 1373 0050 03EB4214 		add	r4, r3, r2, lsl #5
 1374 0054 10F4807F 		tst	r0, #256
 1375              		.loc 1 1194 0
 1376 0058 D4F80009 		ldr	r0, [r4, #2304]
 1377 005c 14BF     		ite	ne
 1378 005e 40F08050 		orrne	r0, r0, #268435456
 1379              		.loc 1 1196 0
 1380 0062 40F00050 		orreq	r0, r0, #536870912
 1381 0066 C4F80009 		str	r0, [r4, #2304]
 1382              	.L103:
 1383 006a 03EB4212 		add	r2, r3, r2, lsl #5
 1384              		.loc 1 1200 0
 1385 006e D2F80009 		ldr	r0, [r2, #2304]
 1386 0072 40F00440 		orr	r0, r0, #-2080374784
 1387 0076 C2F80009 		str	r0, [r2, #2304]
 1388              		.loc 1 1201 0
 1389 007a D3F83408 		ldr	r0, [r3, #2100]
 1390 007e 0122     		movs	r2, #1
 1391 0080 8A40     		lsls	r2, r2, r1
 1392 0082 0243     		orrs	r2, r2, r0
 1393 0084 C3F83428 		str	r2, [r3, #2100]
 1394 0088 F0BD     		pop	{r4, r5, r6, r7, pc}
 1395              		.cfi_endproc
 1396              	.LFE350:
 1397              		.size	usb_lld_start_in, .-usb_lld_start_in
 1398              		.section	.text.otg_epin_handler.constprop.8,"ax",%progbits
 1399              		.align	1
 1400              		.thumb
 1401              		.thumb_func
 1402              		.type	otg_epin_handler.constprop.8, %function
 1403              	otg_epin_handler.constprop.8:
 1404              	.LFB361:
 1405              		.loc 1 370 0
 1406              		.cfi_startproc
 1407              		@ args = 0, pretend = 0, frame = 0
 1408              		@ frame_needed = 0, uses_anonymous_args = 0
 1409              	.LVL127:
 1410 0000 2DE9F041 		push	{r4, r5, r6, r7, r8, lr}
 1411              		.cfi_def_cfa_offset 24
 1412              		.cfi_offset 4, -24
 1413              		.cfi_offset 5, -20
 1414              		.cfi_offset 6, -16
 1415              		.cfi_offset 7, -12
 1416              		.cfi_offset 8, -8
 1417              		.cfi_offset 14, -4
 1418              		.loc 1 371 0
 1419 0004 224D     		ldr	r5, .L125
 1420 0006 6E6D     		ldr	r6, [r5, #84]
 1421              	.LVL128:
 1422              		.loc 1 372 0
 1423 0008 06EB4013 		add	r3, r6, r0, lsl #5
 1424              		.loc 1 370 0
 1425 000c 0446     		mov	r4, r0
ARM GAS  /tmp/cccfbWMZ.s 			page 26


 1426              		.loc 1 372 0
 1427 000e D3F80879 		ldr	r7, [r3, #2312]
 1428              	.LVL129:
 1429              		.loc 1 374 0
 1430 0012 C3F80879 		str	r7, [r3, #2312]
 1431              		.loc 1 379 0
 1432 0016 F907     		lsls	r1, r7, #31
 1433 0018 2AD5     		bpl	.L109
 1434 001a D6F81038 		ldr	r3, [r6, #2064]
 1435 001e DA07     		lsls	r2, r3, #31
 1436 0020 26D5     		bpl	.L109
 1437              	.LBB166:
 1438              		.loc 1 381 0
 1439 0022 05EB8003 		add	r3, r5, r0, lsl #2
 1440 0026 D968     		ldr	r1, [r3, #12]
 1441 0028 4B69     		ldr	r3, [r1, #20]
 1442              	.LVL130:
 1443              		.loc 1 383 0
 1444 002a 1868     		ldr	r0, [r3]
 1445              	.LVL131:
 1446 002c DA68     		ldr	r2, [r3, #12]
 1447 002e 9042     		cmp	r0, r2
 1448 0030 13D2     		bcs	.L111
 1449              		.loc 1 387 0
 1450 0032 121A     		subs	r2, r2, r0
 1451              		.loc 1 388 0
 1452 0034 4FF00008 		mov	r8, #0
 1453              		.loc 1 387 0
 1454 0038 1A60     		str	r2, [r3]
 1455              		.loc 1 388 0
 1456 003a C3F80480 		str	r8, [r3, #4]
 1457              	.LVL132:
 1458              	.LBB167:
 1459              	.LBB168:
 1460              	.LBB169:
 1461              	.LBB170:
 1462              	.LBB171:
 1463              	.LBB172:
 1464              	.LBB173:
 1465              		.loc 3 493 0
 1466 003e 2023     		movs	r3, #32
 1467              	.LVL133:
 1468              	@ 493 "../../modules/ChibiOS/os/common/ext/ARM/CMSIS/Core/Include/cmsis_gcc.h" 1
 1469 0040 83F31188 		MSR basepri, r3
 1470              	@ 0 "" 2
 1471              		.thumb
 1472              	.LBE173:
 1473              	.LBE172:
 1474              	.LBE171:
 1475              	.LBE170:
 1476              		.loc 4 396 0
 1477 0044 FFF7FEFF 		bl	_stats_start_measure_crit_isr
 1478              	.LVL134:
 1479              	.LBE169:
 1480              	.LBE168:
 1481              	.LBE167:
 1482              		.loc 1 390 0
ARM GAS  /tmp/cccfbWMZ.s 			page 27


 1483 0048 2846     		mov	r0, r5
 1484 004a 2146     		mov	r1, r4
 1485 004c FFF7FEFF 		bl	usb_lld_start_in
 1486              	.LVL135:
 1487              	.LBB174:
 1488              	.LBB175:
 1489              	.LBB176:
 1490              		.loc 4 416 0
 1491 0050 FFF7FEFF 		bl	_stats_stop_measure_crit_isr
 1492              	.LVL136:
 1493              	.LBB177:
 1494              	.LBB178:
 1495              	.LBB179:
 1496              	.LBB180:
 1497              		.loc 3 493 0
 1498              	@ 493 "../../modules/ChibiOS/os/common/ext/ARM/CMSIS/Core/Include/cmsis_gcc.h" 1
 1499 0054 88F31188 		MSR basepri, r8
 1500              	@ 0 "" 2
 1501              		.thumb
 1502 0058 0AE0     		b	.L109
 1503              	.LVL137:
 1504              	.L111:
 1505              	.LBE180:
 1506              	.LBE179:
 1507              	.LBE178:
 1508              	.LBE177:
 1509              	.LBE176:
 1510              	.LBE175:
 1511              	.LBE174:
 1512              		.loc 1 395 0
 1513 005a 2A89     		ldrh	r2, [r5, #8]
 1514 005c 0123     		movs	r3, #1
 1515              	.LVL138:
 1516 005e A340     		lsls	r3, r3, r4
 1517 0060 22EA0303 		bic	r3, r2, r3
 1518 0064 2B81     		strh	r3, [r5, #8]	@ movhi
 1519 0066 8B68     		ldr	r3, [r1, #8]
 1520 0068 13B1     		cbz	r3, .L109
 1521 006a 2846     		mov	r0, r5
 1522 006c 2146     		mov	r1, r4
 1523              	.LVL139:
 1524 006e 9847     		blx	r3
 1525              	.LVL140:
 1526              	.L109:
 1527              	.LBE166:
 1528              		.loc 1 398 0
 1529 0070 3B06     		lsls	r3, r7, #24
 1530 0072 0AD5     		bpl	.L107
 1531              		.loc 1 399 0
 1532 0074 D6F83428 		ldr	r2, [r6, #2100]
 1533 0078 0123     		movs	r3, #1
 1534 007a A340     		lsls	r3, r3, r4
 1535              		.loc 1 398 0
 1536 007c 1342     		tst	r3, r2
 1537 007e 04D0     		beq	.L107
 1538              		.loc 1 401 0
 1539 0080 2046     		mov	r0, r4
ARM GAS  /tmp/cccfbWMZ.s 			page 28


 1540              		.loc 1 403 0
 1541 0082 BDE8F041 		pop	{r4, r5, r6, r7, r8, lr}
 1542              		.cfi_remember_state
 1543              		.cfi_restore 14
 1544              		.cfi_restore 8
 1545              		.cfi_restore 7
 1546              		.cfi_restore 6
 1547              		.cfi_restore 5
 1548              		.cfi_restore 4
 1549              		.cfi_def_cfa_offset 0
 1550              	.LVL141:
 1551              		.loc 1 401 0
 1552 0086 FFF7FEBF 		b	otg_txfifo_handler.constprop.9
 1553              	.LVL142:
 1554              	.L107:
 1555              		.cfi_restore_state
 1556 008a BDE8F081 		pop	{r4, r5, r6, r7, r8, pc}
 1557              	.LVL143:
 1558              	.L126:
 1559 008e 00BF     		.align	2
 1560              	.L125:
 1561 0090 00000000 		.word	.LANCHOR0
 1562              		.cfi_endproc
 1563              	.LFE361:
 1564              		.size	otg_epin_handler.constprop.8, .-otg_epin_handler.constprop.8
 1565              		.section	.text.Vector14C,"ax",%progbits
 1566              		.align	1
 1567              		.global	Vector14C
 1568              		.thumb
 1569              		.thumb_func
 1570              		.type	Vector14C, %function
 1571              	Vector14C:
 1572              	.LFB338:
 1573              		.loc 1 674 0
 1574              		.cfi_startproc
 1575              		@ args = 0, pretend = 0, frame = 0
 1576              		@ frame_needed = 0, uses_anonymous_args = 0
 1577 0000 2DE9F843 		push	{r3, r4, r5, r6, r7, r8, r9, lr}
 1578              		.cfi_def_cfa_offset 32
 1579              		.cfi_offset 3, -32
 1580              		.cfi_offset 4, -28
 1581              		.cfi_offset 5, -24
 1582              		.cfi_offset 6, -20
 1583              		.cfi_offset 7, -16
 1584              		.cfi_offset 8, -12
 1585              		.cfi_offset 9, -8
 1586              		.cfi_offset 14, -4
 1587              		.loc 1 676 0
 1588 0004 FFF7FEFF 		bl	_stats_increase_irq
 1589              	.LVL144:
 1590              	.LBB193:
 1591              	.LBB194:
 1592              		.loc 1 529 0
 1593 0008 9248     		ldr	r0, .L224
 1594 000a 446D     		ldr	r4, [r0, #84]
 1595              	.LVL145:
 1596              		.loc 1 532 0
ARM GAS  /tmp/cccfbWMZ.s 			page 29


 1597 000c 6369     		ldr	r3, [r4, #20]
 1598              	.LVL146:
 1599              		.loc 1 533 0
 1600 000e A569     		ldr	r5, [r4, #24]
 1601 0010 1D40     		ands	r5, r5, r3
 1602              	.LVL147:
 1603              		.loc 1 537 0
 1604 0012 15F4805F 		tst	r5, #4096
 1605              		.loc 1 534 0
 1606 0016 6561     		str	r5, [r4, #20]
 1607 0018 0646     		mov	r6, r0
 1608              		.loc 1 537 0
 1609 001a 02D0     		beq	.L128
 1610              		.loc 1 539 0
 1611 001c FFF7FEFF 		bl	_usb_reset
 1612              	.LVL148:
 1613 0020 13E1     		b	.L129
 1614              	.L128:
 1615              		.loc 1 546 0
 1616 0022 002D     		cmp	r5, #0
 1617 0024 12DA     		bge	.L130
 1618              		.loc 1 549 0
 1619 0026 D4F8003E 		ldr	r3, [r4, #3584]
 1620              		.loc 1 557 0
 1621 002a 8A48     		ldr	r0, .L224
 1622              		.loc 1 549 0
 1623 002c 9B07     		lsls	r3, r3, #30
 1624              		.loc 1 551 0
 1625 002e 1EBF     		ittt	ne
 1626 0030 D4F8003E 		ldrne	r3, [r4, #3584]
 1627 0034 23F00303 		bicne	r3, r3, #3
 1628 0038 C4F8003E 		strne	r3, [r4, #3584]
 1629              		.loc 1 555 0
 1630 003c D4F80438 		ldr	r3, [r4, #2052]
 1631 0040 23F00103 		bic	r3, r3, #1
 1632 0044 C4F80438 		str	r3, [r4, #2052]
 1633              		.loc 1 557 0
 1634 0048 FFF7FEFF 		bl	_usb_wakeup
 1635              	.LVL149:
 1636              	.L130:
 1637              		.loc 1 561 0
 1638 004c 2F05     		lsls	r7, r5, #20
 1639 004e 02D5     		bpl	.L132
 1640              		.loc 1 563 0
 1641 0050 8048     		ldr	r0, .L224
 1642 0052 FFF7FEFF 		bl	_usb_suspend
 1643              	.LVL150:
 1644              	.L132:
 1645              		.loc 1 567 0
 1646 0056 A804     		lsls	r0, r5, #18
 1647 0058 0CD5     		bpl	.L133
 1648              		.loc 1 569 0
 1649 005a D4F80838 		ldr	r3, [r4, #2056]
 1650 005e 13F0060F 		tst	r3, #6
 1651              		.loc 1 570 0
 1652 0062 E368     		ldr	r3, [r4, #12]
 1653 0064 23F47053 		bic	r3, r3, #15360
ARM GAS  /tmp/cccfbWMZ.s 			page 30


 1654 0068 0CBF     		ite	eq
 1655 006a 43F41053 		orreq	r3, r3, #9216
 1656              		.loc 1 574 0
 1657 006e 43F4A053 		orrne	r3, r3, #5120
 1658 0072 E360     		str	r3, [r4, #12]
 1659              	.L133:
 1660              		.loc 1 580 0
 1661 0074 2907     		lsls	r1, r5, #28
 1662 0076 04D5     		bpl	.L135
 1663              		.loc 1 581 0
 1664 0078 7368     		ldr	r3, [r6, #4]
 1665 007a DB68     		ldr	r3, [r3, #12]
 1666 007c 0BB1     		cbz	r3, .L135
 1667 007e 7548     		ldr	r0, .L224
 1668 0080 9847     		blx	r3
 1669              	.LVL151:
 1670              	.L135:
 1671              		.loc 1 585 0
 1672 0082 EA02     		lsls	r2, r5, #11
 1673 0084 02D4     		bmi	.L136
 1674              	.L144:
 1675              		.loc 1 590 0
 1676 0086 AB02     		lsls	r3, r5, #10
 1677 0088 43D5     		bpl	.L138
 1678 008a 38E0     		b	.L221
 1679              	.L136:
 1680              	.LVL152:
 1681              	.LBB195:
 1682              	.LBB196:
 1683              		.loc 1 472 0
 1684 008c D6F85490 		ldr	r9, [r6, #84]
 1685              	.LVL153:
 1686 0090 4FF00008 		mov	r8, #0
 1687              	.LVL154:
 1688              	.L139:
 1689              		.loc 1 474 0
 1690 0094 B36D     		ldr	r3, [r6, #88]
 1691 0096 9B68     		ldr	r3, [r3, #8]
 1692 0098 5FFA88F7 		uxtb	r7, r8
 1693              	.LVL155:
 1694 009c 9F42     		cmp	r7, r3
 1695 009e F2D8     		bhi	.L144
 1696 00a0 09EB4713 		add	r3, r9, r7, lsl #5
 1697              		.loc 1 475 0
 1698 00a4 D3F80029 		ldr	r2, [r3, #2304]
 1699 00a8 02F44022 		and	r2, r2, #786432
 1700 00ac B2F5802F 		cmp	r2, #262144
 1701 00b0 22D1     		bne	.L140
 1702              		.loc 1 476 0
 1703 00b2 D3F80029 		ldr	r2, [r3, #2304]
 1704              		.loc 1 475 0
 1705 00b6 002A     		cmp	r2, #0
 1706 00b8 1EDA     		bge	.L140
 1707              		.loc 1 479 0
 1708 00ba D3F80029 		ldr	r2, [r3, #2304]
 1709 00be 42F09042 		orr	r2, r2, #1207959552
 1710 00c2 C3F80029 		str	r2, [r3, #2304]
ARM GAS  /tmp/cccfbWMZ.s 			page 31


 1711              	.L141:
 1712              		.loc 1 480 0
 1713 00c6 D3F80029 		ldr	r2, [r3, #2304]
 1714 00ca 002A     		cmp	r2, #0
 1715 00cc FBDB     		blt	.L141
 1716              		.loc 1 484 0
 1717 00ce 706D     		ldr	r0, [r6, #84]
 1718 00d0 3946     		mov	r1, r7
 1719 00d2 FFF7FEFF 		bl	otg_txfifo_flush.isra.1
 1720              	.LVL156:
 1721              		.loc 1 487 0
 1722 00d6 3289     		ldrh	r2, [r6, #8]
 1723 00d8 0123     		movs	r3, #1
 1724 00da BB40     		lsls	r3, r3, r7
 1725 00dc 22EA0303 		bic	r3, r2, r3
 1726 00e0 3381     		strh	r3, [r6, #8]	@ movhi
 1727 00e2 06EB8703 		add	r3, r6, r7, lsl #2
 1728 00e6 DB68     		ldr	r3, [r3, #12]
 1729 00e8 9B68     		ldr	r3, [r3, #8]
 1730 00ea 13B1     		cbz	r3, .L142
 1731 00ec 5948     		ldr	r0, .L224
 1732 00ee 3946     		mov	r1, r7
 1733 00f0 9847     		blx	r3
 1734              	.LVL157:
 1735              	.L142:
 1736              		.loc 1 490 0
 1737 00f2 3846     		mov	r0, r7
 1738 00f4 FFF7FEFF 		bl	otg_txfifo_handler.constprop.9
 1739              	.LVL158:
 1740              	.L140:
 1741 00f8 08F10108 		add	r8, r8, #1
 1742              	.LVL159:
 1743 00fc CAE7     		b	.L139
 1744              	.LVL160:
 1745              	.L221:
 1746              	.LBE196:
 1747              	.LBE195:
 1748              	.LBB197:
 1749              	.LBB198:
 1750              		.loc 1 504 0
 1751 00fe 776D     		ldr	r7, [r6, #84]
 1752              	.LVL161:
 1753 0100 4FF00008 		mov	r8, #0
 1754              	.LVL162:
 1755              	.L147:
 1756              		.loc 1 506 0
 1757 0104 B36D     		ldr	r3, [r6, #88]
 1758 0106 5348     		ldr	r0, .L224
 1759 0108 9B68     		ldr	r3, [r3, #8]
 1760 010a 5FFA88F1 		uxtb	r1, r8
 1761              	.LVL163:
 1762 010e 9942     		cmp	r1, r3
 1763 0110 02D9     		bls	.L151
 1764              	.LVL164:
 1765              	.L138:
 1766              	.LBE198:
 1767              	.LBE197:
ARM GAS  /tmp/cccfbWMZ.s 			page 32


 1768              		.loc 1 596 0
 1769 0112 EF06     		lsls	r7, r5, #27
 1770 0114 6BD5     		bpl	.L152
 1771 0116 1BE0     		b	.L222
 1772              	.LVL165:
 1773              	.L151:
 1774 0118 07EB4112 		add	r2, r7, r1, lsl #5
 1775              	.LBB200:
 1776              	.LBB199:
 1777              		.loc 1 507 0
 1778 011c D2F8003B 		ldr	r3, [r2, #2816]
 1779 0120 03F44023 		and	r3, r3, #786432
 1780 0124 B3F5802F 		cmp	r3, #262144
 1781 0128 0FD1     		bne	.L149
 1782              		.loc 1 508 0
 1783 012a D2F8003B 		ldr	r3, [r2, #2816]
 1784              		.loc 1 507 0
 1785 012e 002B     		cmp	r3, #0
 1786 0130 0BDA     		bge	.L149
 1787              		.loc 1 516 0
 1788 0132 4289     		ldrh	r2, [r0, #10]
 1789 0134 0123     		movs	r3, #1
 1790 0136 8B40     		lsls	r3, r3, r1
 1791 0138 22EA0303 		bic	r3, r2, r3
 1792 013c 4381     		strh	r3, [r0, #10]	@ movhi
 1793 013e 00EB8103 		add	r3, r0, r1, lsl #2
 1794 0142 DB68     		ldr	r3, [r3, #12]
 1795 0144 DB68     		ldr	r3, [r3, #12]
 1796 0146 03B1     		cbz	r3, .L149
 1797 0148 9847     		blx	r3
 1798              	.LVL166:
 1799              	.L149:
 1800 014a 08F10108 		add	r8, r8, #1
 1801              	.LVL167:
 1802 014e D9E7     		b	.L147
 1803              	.LVL168:
 1804              	.L222:
 1805              	.LBE199:
 1806              	.LBE200:
 1807              	.LBB201:
 1808              	.LBB202:
 1809              		.loc 1 285 0
 1810 0150 706D     		ldr	r0, [r6, #84]
 1811 0152 404B     		ldr	r3, .L224
 1812 0154 026A     		ldr	r2, [r0, #32]
 1813              	.LVL169:
 1814              		.loc 1 288 0
 1815 0156 C2F30A17 		ubfx	r7, r2, #4, #11
 1816              	.LVL170:
 1817              		.loc 1 289 0
 1818 015a 02F00F01 		and	r1, r2, #15
 1819              	.LVL171:
 1820              		.loc 1 291 0
 1821 015e 02F4F012 		and	r2, r2, #1966080
 1822              	.LVL172:
 1823 0162 B2F5802F 		cmp	r2, #262144
 1824 0166 18D0     		beq	.L153
ARM GAS  /tmp/cccfbWMZ.s 			page 33


 1825 0168 B2F5402F 		cmp	r2, #786432
 1826 016c 3FD1     		bne	.L152
 1827              		.loc 1 293 0
 1828 016e 03EB8103 		add	r3, r3, r1, lsl #2
 1829 0172 DB68     		ldr	r3, [r3, #12]
 1830 0174 196A     		ldr	r1, [r3, #32]
 1831              	.LVL173:
 1832              	.LBB203:
 1833              	.LBB204:
 1834              		.loc 1 260 0
 1835 0176 0023     		movs	r3, #0
 1836              		.loc 1 259 0
 1837 0178 1A46     		mov	r2, r3
 1838              	.LVL174:
 1839              	.L155:
 1840              		.loc 1 262 0
 1841 017a BB42     		cmp	r3, r7
 1842 017c 37D0     		beq	.L152
 1843              		.loc 1 263 0
 1844 017e 9E07     		lsls	r6, r3, #30
 1845              		.loc 1 264 0
 1846 0180 04BF     		itt	eq
 1847 0182 00F58052 		addeq	r2, r0, #4096
 1848              	.LVL175:
 1849 0186 1268     		ldreq	r2, [r2]
 1850              	.LVL176:
 1851              		.loc 1 266 0
 1852 0188 072B     		cmp	r3, #7
 1853              		.loc 1 267 0
 1854 018a 98BF     		it	ls
 1855 018c 0A70     		strbls	r2, [r1]
 1856              		.loc 1 270 0
 1857 018e 03F10103 		add	r3, r3, #1
 1858              	.LVL177:
 1859              		.loc 1 268 0
 1860 0192 9CBF     		itt	ls
 1861 0194 120A     		lsrls	r2, r2, #8
 1862              	.LVL178:
 1863              		.loc 1 267 0
 1864 0196 0131     		addls	r1, r1, #1
 1865              	.LVL179:
 1866 0198 EFE7     		b	.L155
 1867              	.LVL180:
 1868              	.L153:
 1869              	.LBE204:
 1870              	.LBE203:
 1871              		.loc 1 300 0
 1872 019a 8A1C     		adds	r2, r1, #2
 1873 019c 03EB8203 		add	r3, r3, r2, lsl #2
 1874 01a0 5B68     		ldr	r3, [r3, #4]
 1875 01a2 9969     		ldr	r1, [r3, #24]
 1876              	.LVL181:
 1877              		.loc 1 299 0
 1878 01a4 0B68     		ldr	r3, [r1]
 1879 01a6 D1F808C0 		ldr	ip, [r1, #8]
 1880 01aa 4968     		ldr	r1, [r1, #4]
 1881 01ac C1EB030E 		rsb	lr, r1, r3
ARM GAS  /tmp/cccfbWMZ.s 			page 34


 1882              	.LVL182:
 1883              	.LBB205:
 1884              	.LBB206:
 1885              		.loc 1 260 0
 1886 01b0 0023     		movs	r3, #0
 1887              		.loc 1 259 0
 1888 01b2 1946     		mov	r1, r3
 1889              	.LVL183:
 1890              	.L159:
 1891              		.loc 1 262 0
 1892 01b4 BB42     		cmp	r3, r7
 1893 01b6 10D0     		beq	.L223
 1894              		.loc 1 263 0
 1895 01b8 13F0030F 		tst	r3, #3
 1896              		.loc 1 264 0
 1897 01bc 04BF     		itt	eq
 1898 01be 00F58051 		addeq	r1, r0, #4096
 1899              	.LVL184:
 1900 01c2 0968     		ldreq	r1, [r1]
 1901              	.LVL185:
 1902              		.loc 1 266 0
 1903 01c4 7345     		cmp	r3, lr
 1904              		.loc 1 267 0
 1905 01c6 38BF     		it	cc
 1906 01c8 8CF80010 		strbcc	r1, [ip]
 1907              		.loc 1 270 0
 1908 01cc 03F10103 		add	r3, r3, #1
 1909              	.LVL186:
 1910              		.loc 1 268 0
 1911 01d0 3CBF     		itt	cc
 1912 01d2 090A     		lsrcc	r1, r1, #8
 1913              	.LVL187:
 1914              		.loc 1 267 0
 1915 01d4 0CF1010C 		addcc	ip, ip, #1
 1916              	.LVL188:
 1917 01d8 ECE7     		b	.L159
 1918              	.L223:
 1919              	.LBE206:
 1920              	.LBE205:
 1921              		.loc 1 304 0
 1922 01da 06EB8206 		add	r6, r6, r2, lsl #2
 1923 01de 7268     		ldr	r2, [r6, #4]
 1924              	.LVL189:
 1925 01e0 9269     		ldr	r2, [r2, #24]
 1926 01e2 9168     		ldr	r1, [r2, #8]
 1927              	.LVL190:
 1928 01e4 1944     		add	r1, r1, r3
 1929 01e6 9160     		str	r1, [r2, #8]
 1930              		.loc 1 305 0
 1931 01e8 5168     		ldr	r1, [r2, #4]
 1932 01ea 0B44     		add	r3, r3, r1
 1933              	.LVL191:
 1934 01ec 5360     		str	r3, [r2, #4]
 1935              	.LVL192:
 1936              	.L152:
 1937              	.LBE202:
 1938              	.LBE201:
ARM GAS  /tmp/cccfbWMZ.s 			page 35


 1939              		.loc 1 602 0
 1940 01ee 2903     		lsls	r1, r5, #12
 1941              		.loc 1 601 0
 1942 01f0 D4F81848 		ldr	r4, [r4, #2072]
 1943              	.LVL193:
 1944              		.loc 1 602 0
 1945 01f4 13D5     		bpl	.L164
 1946              		.loc 1 603 0
 1947 01f6 E203     		lsls	r2, r4, #15
 1948 01f8 02D5     		bpl	.L165
 1949              		.loc 1 604 0
 1950 01fa 0020     		movs	r0, #0
 1951 01fc FFF7FEFF 		bl	otg_epout_handler.constprop.7
 1952              	.LVL194:
 1953              	.L165:
 1954              		.loc 1 605 0
 1955 0200 A303     		lsls	r3, r4, #14
 1956 0202 02D5     		bpl	.L166
 1957              		.loc 1 606 0
 1958 0204 0120     		movs	r0, #1
 1959 0206 FFF7FEFF 		bl	otg_epout_handler.constprop.7
 1960              	.LVL195:
 1961              	.L166:
 1962              		.loc 1 607 0
 1963 020a 6703     		lsls	r7, r4, #13
 1964 020c 02D5     		bpl	.L167
 1965              		.loc 1 608 0
 1966 020e 0220     		movs	r0, #2
 1967 0210 FFF7FEFF 		bl	otg_epout_handler.constprop.7
 1968              	.LVL196:
 1969              	.L167:
 1970              		.loc 1 609 0
 1971 0214 2603     		lsls	r6, r4, #12
 1972 0216 02D5     		bpl	.L164
 1973              		.loc 1 610 0
 1974 0218 0320     		movs	r0, #3
 1975 021a FFF7FEFF 		bl	otg_epout_handler.constprop.7
 1976              	.LVL197:
 1977              	.L164:
 1978              		.loc 1 632 0
 1979 021e 6D03     		lsls	r5, r5, #13
 1980              	.LVL198:
 1981 0220 13D5     		bpl	.L129
 1982              		.loc 1 633 0
 1983 0222 E007     		lsls	r0, r4, #31
 1984 0224 02D5     		bpl	.L170
 1985              		.loc 1 634 0
 1986 0226 0020     		movs	r0, #0
 1987 0228 FFF7FEFF 		bl	otg_epin_handler.constprop.8
 1988              	.LVL199:
 1989              	.L170:
 1990              		.loc 1 635 0
 1991 022c A107     		lsls	r1, r4, #30
 1992 022e 02D5     		bpl	.L171
 1993              		.loc 1 636 0
 1994 0230 0120     		movs	r0, #1
 1995 0232 FFF7FEFF 		bl	otg_epin_handler.constprop.8
ARM GAS  /tmp/cccfbWMZ.s 			page 36


 1996              	.LVL200:
 1997              	.L171:
 1998              		.loc 1 637 0
 1999 0236 6207     		lsls	r2, r4, #29
 2000 0238 02D5     		bpl	.L172
 2001              		.loc 1 638 0
 2002 023a 0220     		movs	r0, #2
 2003 023c FFF7FEFF 		bl	otg_epin_handler.constprop.8
 2004              	.LVL201:
 2005              	.L172:
 2006              		.loc 1 639 0
 2007 0240 2307     		lsls	r3, r4, #28
 2008 0242 02D5     		bpl	.L129
 2009              		.loc 1 640 0
 2010 0244 0320     		movs	r0, #3
 2011 0246 FFF7FEFF 		bl	otg_epin_handler.constprop.8
 2012              	.LVL202:
 2013              	.L129:
 2014              	.LBE194:
 2015              	.LBE193:
 2016              		.loc 1 681 0
 2017 024a BDE8F843 		pop	{r3, r4, r5, r6, r7, r8, r9, lr}
 2018              		.cfi_restore 14
 2019              		.cfi_restore 9
 2020              		.cfi_restore 8
 2021              		.cfi_restore 7
 2022              		.cfi_restore 6
 2023              		.cfi_restore 5
 2024              		.cfi_restore 4
 2025              		.cfi_restore 3
 2026              		.cfi_def_cfa_offset 0
 2027              		.loc 1 680 0
 2028 024e FFF7FEBF 		b	_port_irq_epilogue
 2029              	.LVL203:
 2030              	.L225:
 2031 0252 00BF     		.align	2
 2032              	.L224:
 2033 0254 00000000 		.word	.LANCHOR0
 2034              		.cfi_endproc
 2035              	.LFE338:
 2036              		.size	Vector14C, .-Vector14C
 2037              		.section	.text.usb_lld_stall_out,"ax",%progbits
 2038              		.align	1
 2039              		.global	usb_lld_stall_out
 2040              		.thumb
 2041              		.thumb_func
 2042              		.type	usb_lld_stall_out, %function
 2043              	usb_lld_stall_out:
 2044              	.LFB351:
 2045              		.loc 1 1212 0
 2046              		.cfi_startproc
 2047              		@ args = 0, pretend = 0, frame = 0
 2048              		@ frame_needed = 0, uses_anonymous_args = 0
 2049              		@ link register save eliminated.
 2050              	.LVL204:
 2051 0000 436D     		ldr	r3, [r0, #84]
 2052 0002 03EB4111 		add	r1, r3, r1, lsl #5
ARM GAS  /tmp/cccfbWMZ.s 			page 37


 2053              	.LVL205:
 2054              		.loc 1 1214 0
 2055 0006 D1F8003B 		ldr	r3, [r1, #2816]
 2056 000a 43F40013 		orr	r3, r3, #2097152
 2057 000e C1F8003B 		str	r3, [r1, #2816]
 2058 0012 7047     		bx	lr
 2059              		.cfi_endproc
 2060              	.LFE351:
 2061              		.size	usb_lld_stall_out, .-usb_lld_stall_out
 2062              		.section	.text.usb_lld_stall_in,"ax",%progbits
 2063              		.align	1
 2064              		.global	usb_lld_stall_in
 2065              		.thumb
 2066              		.thumb_func
 2067              		.type	usb_lld_stall_in, %function
 2068              	usb_lld_stall_in:
 2069              	.LFB352:
 2070              		.loc 1 1225 0
 2071              		.cfi_startproc
 2072              		@ args = 0, pretend = 0, frame = 0
 2073              		@ frame_needed = 0, uses_anonymous_args = 0
 2074              		@ link register save eliminated.
 2075              	.LVL206:
 2076 0000 436D     		ldr	r3, [r0, #84]
 2077 0002 03EB4111 		add	r1, r3, r1, lsl #5
 2078              	.LVL207:
 2079              		.loc 1 1227 0
 2080 0006 D1F80039 		ldr	r3, [r1, #2304]
 2081 000a 43F40013 		orr	r3, r3, #2097152
 2082 000e C1F80039 		str	r3, [r1, #2304]
 2083 0012 7047     		bx	lr
 2084              		.cfi_endproc
 2085              	.LFE352:
 2086              		.size	usb_lld_stall_in, .-usb_lld_stall_in
 2087              		.section	.text.usb_lld_clear_out,"ax",%progbits
 2088              		.align	1
 2089              		.global	usb_lld_clear_out
 2090              		.thumb
 2091              		.thumb_func
 2092              		.type	usb_lld_clear_out, %function
 2093              	usb_lld_clear_out:
 2094              	.LFB353:
 2095              		.loc 1 1238 0
 2096              		.cfi_startproc
 2097              		@ args = 0, pretend = 0, frame = 0
 2098              		@ frame_needed = 0, uses_anonymous_args = 0
 2099              		@ link register save eliminated.
 2100              	.LVL208:
 2101 0000 436D     		ldr	r3, [r0, #84]
 2102 0002 03EB4111 		add	r1, r3, r1, lsl #5
 2103              	.LVL209:
 2104              		.loc 1 1240 0
 2105 0006 D1F8003B 		ldr	r3, [r1, #2816]
 2106 000a 23F40013 		bic	r3, r3, #2097152
 2107 000e C1F8003B 		str	r3, [r1, #2816]
 2108 0012 7047     		bx	lr
 2109              		.cfi_endproc
ARM GAS  /tmp/cccfbWMZ.s 			page 38


 2110              	.LFE353:
 2111              		.size	usb_lld_clear_out, .-usb_lld_clear_out
 2112              		.section	.text.usb_lld_clear_in,"ax",%progbits
 2113              		.align	1
 2114              		.global	usb_lld_clear_in
 2115              		.thumb
 2116              		.thumb_func
 2117              		.type	usb_lld_clear_in, %function
 2118              	usb_lld_clear_in:
 2119              	.LFB354:
 2120              		.loc 1 1251 0
 2121              		.cfi_startproc
 2122              		@ args = 0, pretend = 0, frame = 0
 2123              		@ frame_needed = 0, uses_anonymous_args = 0
 2124              		@ link register save eliminated.
 2125              	.LVL210:
 2126 0000 436D     		ldr	r3, [r0, #84]
 2127 0002 03EB4111 		add	r1, r3, r1, lsl #5
 2128              	.LVL211:
 2129              		.loc 1 1253 0
 2130 0006 D1F80039 		ldr	r3, [r1, #2304]
 2131 000a 23F40013 		bic	r3, r3, #2097152
 2132 000e C1F80039 		str	r3, [r1, #2304]
 2133 0012 7047     		bx	lr
 2134              		.cfi_endproc
 2135              	.LFE354:
 2136              		.size	usb_lld_clear_in, .-usb_lld_clear_in
 2137              		.global	USBD1
 2138              		.section	.rodata.fsparams,"a",%progbits
 2139              		.align	2
 2140              		.set	.LANCHOR1,. + 0
 2141              		.type	fsparams, %object
 2142              		.size	fsparams, 12
 2143              	fsparams:
 2144 0000 80000000 		.word	128
 2145 0004 40010000 		.word	320
 2146 0008 03000000 		.word	3
 2147              		.section	.bss.USBD1,"aw",%nobits
 2148              		.align	2
 2149              		.set	.LANCHOR0,. + 0
 2150              		.type	USBD1, %object
 2151              		.size	USBD1, 96
 2152              	USBD1:
 2153 0000 00000000 		.space	96
 2153      00000000 
 2153      00000000 
 2153      00000000 
 2153      00000000 
 2154              		.section	.rodata.ep0config,"a",%progbits
 2155              		.align	2
 2156              		.set	.LANCHOR2,. + 0
 2157              		.type	ep0config, %object
 2158              		.size	ep0config, 36
 2159              	ep0config:
 2160 0000 00000000 		.word	0
 2161 0004 00000000 		.word	_usb_ep0setup
 2162 0008 00000000 		.word	_usb_ep0in
ARM GAS  /tmp/cccfbWMZ.s 			page 39


 2163 000c 00000000 		.word	_usb_ep0out
 2164 0010 4000     		.short	64
 2165 0012 4000     		.short	64
 2166 0014 00000000 		.word	ep0_state
 2167 0018 00000000 		.word	ep0_state
 2168 001c 0100     		.short	1
 2169 001e 0000     		.space	2
 2170 0020 00000000 		.word	ep0setup_buffer
 2171              		.section	.bss.ep0_state,"aw",%nobits
 2172              		.align	2
 2173              		.type	ep0_state, %object
 2174              		.size	ep0_state, 16
 2175              	ep0_state:
 2176 0000 00000000 		.space	16
 2176      00000000 
 2176      00000000 
 2176      00000000 
 2177              		.section	.bss.ep0setup_buffer,"aw",%nobits
 2178              		.type	ep0setup_buffer, %object
 2179              		.size	ep0setup_buffer, 8
 2180              	ep0setup_buffer:
 2181 0000 00000000 		.space	8
 2181      00000000 
 2182              		.text
 2183              	.Letext0:
 2184              		.file 5 "/opt/gcc-arm-none-eabi-4_9-2015q3/lib/gcc/arm-none-eabi/4.9.3/include/stddef.h"
 2185              		.file 6 "/opt/gcc-arm-none-eabi-4_9-2015q3/arm-none-eabi/include/machine/_default_types.h"
 2186              		.file 7 "/opt/gcc-arm-none-eabi-4_9-2015q3/arm-none-eabi/include/sys/_stdint.h"
 2187              		.file 8 "../../modules/ChibiOS/os/common/ports/ARMCMx/compilers/GCC/chtypes.h"
 2188              		.file 9 "../../modules/ChibiOS/os/rt/include/chsystypes.h"
 2189              		.file 10 "../../modules/ChibiOS/os/rt/include/chschd.h"
 2190              		.file 11 "../../modules/ChibiOS/os/rt/include/chtime.h"
 2191              		.file 12 "../../modules/ChibiOS/os/common/ext/ST/STM32F4xx/stm32f427xx.h"
 2192              		.file 13 "../../modules/ChibiOS/os/common/ports/ARMCMx/chcore.h"
 2193              		.file 14 "../../modules/ChibiOS/os/common/ports/ARMCMx/chcore_v7m.h"
 2194              		.file 15 "../../modules/ChibiOS/os/rt/include/chtm.h"
 2195              		.file 16 "../../modules/ChibiOS/os/rt/include/chstats.h"
 2196              		.file 17 "../../modules/ChibiOS/os/rt/include/chsem.h"
 2197              		.file 18 "../../modules/ChibiOS/os/rt/include/chmtx.h"
 2198              		.file 19 "../../modules/ChibiOS/os/hal/include/hal_usb.h"
 2199              		.file 20 "../../modules/ChibiOS/os/hal/ports/STM32/LLD/OTGv1/hal_usb_lld.h"
 2200              		.file 21 "../../modules/ChibiOS/os/hal/ports/STM32/LLD/OTGv1/stm32_otg.h"
 2201              		.file 22 "../../modules/ChibiOS/os/common/ext/ARM/CMSIS/Core/Include/core_cm4.h"
 2202              		.file 23 "../../modules/ChibiOS/os/hal/ports/common/ARMCMx/nvic.h"