ARM GAS  /tmp/cc6IKL1m.s 			page 1


   1              		.cpu cortex-m4
   2              		.eabi_attribute 27, 1
   3              		.eabi_attribute 28, 1
   4              		.eabi_attribute 20, 1
   5              		.eabi_attribute 21, 1
   6              		.eabi_attribute 23, 3
   7              		.eabi_attribute 24, 1
   8              		.eabi_attribute 25, 1
   9              		.eabi_attribute 26, 1
  10              		.eabi_attribute 30, 4
  11              		.eabi_attribute 34, 1
  12              		.eabi_attribute 18, 4
  13              		.file	"hal_adc_lld.c"
  14              		.text
  15              	.Ltext0:
  16              		.cfi_sections	.debug_frame
  17              		.section	.text.adc_lld_init,"ax",%progbits
  18              		.align	1
  19              		.global	adc_lld_init
  20              		.syntax unified
  21              		.thumb
  22              		.thumb_func
  23              		.fpu fpv4-sp-d16
  24              		.type	adc_lld_init, %function
  25              	adc_lld_init:
  26              	.LFB325:
  27              		.file 1 "../../modules/ChibiOS/os/hal/ports/STM32/LLD/ADCv2/hal_adc_lld.c"
  28              		.loc 1 192 0
  29              		.cfi_startproc
  30              		@ args = 0, pretend = 0, frame = 0
  31              		@ frame_needed = 0, uses_anonymous_args = 0
  32 0000 10B5     		push	{r4, lr}
  33              		.cfi_def_cfa_offset 8
  34              		.cfi_offset 4, -8
  35              		.cfi_offset 14, -4
  36              		.loc 1 196 0
  37 0002 084C     		ldr	r4, .L2
  38 0004 2046     		mov	r0, r4
  39 0006 FFF7FEFF 		bl	adcObjectInit
  40              	.LVL0:
  41              		.loc 1 197 0
  42 000a 074B     		ldr	r3, .L2+4
  43 000c A361     		str	r3, [r4, #24]
  44              		.loc 1 198 0
  45 000e 0023     		movs	r3, #0
  46 0010 E361     		str	r3, [r4, #28]
  47              		.loc 1 199 0
  48 0012 064B     		ldr	r3, .L2+8
  49 0014 2362     		str	r3, [r4, #32]
  50              		.loc 1 235 0
  51 0016 0621     		movs	r1, #6
  52 0018 1220     		movs	r0, #18
  53              		.loc 1 236 0
  54 001a BDE81040 		pop	{r4, lr}
  55              		.cfi_restore 14
  56              		.cfi_restore 4
  57              		.cfi_def_cfa_offset 0
ARM GAS  /tmp/cc6IKL1m.s 			page 2


  58              		.loc 1 235 0
  59 001e FFF7FEBF 		b	nvicEnableVector
  60              	.LVL1:
  61              	.L3:
  62 0022 00BF     		.align	2
  63              	.L2:
  64 0024 00000000 		.word	.LANCHOR0
  65 0028 00200140 		.word	1073815552
  66 002c 162C0200 		.word	142358
  67              		.cfi_endproc
  68              	.LFE325:
  69              		.size	adc_lld_init, .-adc_lld_init
  70              		.section	.text.adc_lld_start,"ax",%progbits
  71              		.align	1
  72              		.global	adc_lld_start
  73              		.syntax unified
  74              		.thumb
  75              		.thumb_func
  76              		.fpu fpv4-sp-d16
  77              		.type	adc_lld_start, %function
  78              	adc_lld_start:
  79              	.LFB326:
  80              		.loc 1 245 0
  81              		.cfi_startproc
  82              		@ args = 0, pretend = 0, frame = 0
  83              		@ frame_needed = 0, uses_anonymous_args = 0
  84              	.LVL2:
  85              		.loc 1 248 0
  86 0000 0378     		ldrb	r3, [r0]	@ zero_extendqisi2
  87 0002 012B     		cmp	r3, #1
  88              		.loc 1 245 0
  89 0004 10B5     		push	{r4, lr}
  90              		.cfi_def_cfa_offset 8
  91              		.cfi_offset 4, -8
  92              		.cfi_offset 14, -4
  93              		.loc 1 245 0
  94 0006 0446     		mov	r4, r0
  95              		.loc 1 248 0
  96 0008 23D1     		bne	.L4
  97              		.loc 1 250 0
  98 000a 124B     		ldr	r3, .L7
  99 000c 9842     		cmp	r0, r3
 100 000e 13D1     		bne	.L6
 101              		.loc 1 251 0
 102 0010 0346     		mov	r3, r0
 103 0012 114A     		ldr	r2, .L7+4
 104 0014 0621     		movs	r1, #6
 105 0016 0C20     		movs	r0, #12
 106              	.LVL3:
 107 0018 FFF7FEFF 		bl	dmaStreamAllocI
 108              	.LVL4:
 109              		.loc 1 256 0
 110 001c 0368     		ldr	r3, [r0]
 111 001e 0F4A     		ldr	r2, .L7+8
 112              		.loc 1 251 0
 113 0020 E061     		str	r0, [r4, #28]
 114              		.loc 1 256 0
ARM GAS  /tmp/cc6IKL1m.s 			page 3


 115 0022 9A60     		str	r2, [r3, #8]
 116              		.loc 1 257 0
 117 0024 0E4B     		ldr	r3, .L7+12
 118 0026 5A6C     		ldr	r2, [r3, #68]
 119 0028 42F48072 		orr	r2, r2, #256
 120 002c 5A64     		str	r2, [r3, #68]
 121 002e 5A6E     		ldr	r2, [r3, #100]
 122 0030 42F48072 		orr	r2, r2, #256
 123 0034 5A66     		str	r2, [r3, #100]
 124 0036 5B6E     		ldr	r3, [r3, #100]
 125              	.L6:
 126              		.loc 1 287 0
 127 0038 0A4A     		ldr	r2, .L7+16
 128 003a 5368     		ldr	r3, [r2, #4]
 129 003c 03F44003 		and	r3, r3, #12582912
 130 0040 43F48033 		orr	r3, r3, #65536
 131 0044 5360     		str	r3, [r2, #4]
 132              		.loc 1 292 0
 133 0046 A369     		ldr	r3, [r4, #24]
 134 0048 0022     		movs	r2, #0
 135 004a 5A60     		str	r2, [r3, #4]
 136              		.loc 1 293 0
 137 004c 9A60     		str	r2, [r3, #8]
 138              		.loc 1 294 0
 139 004e 0122     		movs	r2, #1
 140 0050 9A60     		str	r2, [r3, #8]
 141              	.L4:
 142 0052 10BD     		pop	{r4, pc}
 143              	.LVL5:
 144              	.L8:
 145              		.align	2
 146              	.L7:
 147 0054 00000000 		.word	.LANCHOR0
 148 0058 00000000 		.word	adc_lld_serve_rx_interrupt
 149 005c 4C200140 		.word	1073815628
 150 0060 00380240 		.word	1073887232
 151 0064 00230140 		.word	1073816320
 152              		.cfi_endproc
 153              	.LFE326:
 154              		.size	adc_lld_start, .-adc_lld_start
 155              		.section	.text.adc_lld_stop,"ax",%progbits
 156              		.align	1
 157              		.global	adc_lld_stop
 158              		.syntax unified
 159              		.thumb
 160              		.thumb_func
 161              		.fpu fpv4-sp-d16
 162              		.type	adc_lld_stop, %function
 163              	adc_lld_stop:
 164              	.LFB327:
 165              		.loc 1 305 0
 166              		.cfi_startproc
 167              		@ args = 0, pretend = 0, frame = 0
 168              		@ frame_needed = 0, uses_anonymous_args = 0
 169              	.LVL6:
 170              		.loc 1 308 0
 171 0000 0378     		ldrb	r3, [r0]	@ zero_extendqisi2
ARM GAS  /tmp/cc6IKL1m.s 			page 4


 172 0002 022B     		cmp	r3, #2
 173              		.loc 1 305 0
 174 0004 10B5     		push	{r4, lr}
 175              		.cfi_def_cfa_offset 8
 176              		.cfi_offset 4, -8
 177              		.cfi_offset 14, -4
 178              		.loc 1 305 0
 179 0006 0446     		mov	r4, r0
 180              		.loc 1 308 0
 181 0008 14D1     		bne	.L9
 182              		.loc 1 310 0
 183 000a C069     		ldr	r0, [r0, #28]
 184              	.LVL7:
 185 000c FFF7FEFF 		bl	dmaStreamFreeI
 186              	.LVL8:
 187              		.loc 1 313 0
 188 0010 A269     		ldr	r2, [r4, #24]
 189              		.loc 1 311 0
 190 0012 0023     		movs	r3, #0
 191 0014 E361     		str	r3, [r4, #28]
 192              		.loc 1 313 0
 193 0016 5360     		str	r3, [r2, #4]
 194              		.loc 1 314 0
 195 0018 9360     		str	r3, [r2, #8]
 196              		.loc 1 317 0
 197 001a 074B     		ldr	r3, .L13
 198 001c 9C42     		cmp	r4, r3
 199 001e 09D1     		bne	.L9
 200              		.loc 1 318 0
 201 0020 064B     		ldr	r3, .L13+4
 202 0022 5A6C     		ldr	r2, [r3, #68]
 203 0024 22F48072 		bic	r2, r2, #256
 204 0028 5A64     		str	r2, [r3, #68]
 205 002a 5A6E     		ldr	r2, [r3, #100]
 206 002c 22F48072 		bic	r2, r2, #256
 207 0030 5A66     		str	r2, [r3, #100]
 208 0032 5B6E     		ldr	r3, [r3, #100]
 209              	.L9:
 210 0034 10BD     		pop	{r4, pc}
 211              	.LVL9:
 212              	.L14:
 213 0036 00BF     		.align	2
 214              	.L13:
 215 0038 00000000 		.word	.LANCHOR0
 216 003c 00380240 		.word	1073887232
 217              		.cfi_endproc
 218              	.LFE327:
 219              		.size	adc_lld_stop, .-adc_lld_stop
 220              		.section	.text.adc_lld_start_conversion,"ax",%progbits
 221              		.align	1
 222              		.global	adc_lld_start_conversion
 223              		.syntax unified
 224              		.thumb
 225              		.thumb_func
 226              		.fpu fpv4-sp-d16
 227              		.type	adc_lld_start_conversion, %function
 228              	adc_lld_start_conversion:
ARM GAS  /tmp/cc6IKL1m.s 			page 5


 229              	.LFB328:
 230              		.loc 1 340 0
 231              		.cfi_startproc
 232              		@ args = 0, pretend = 0, frame = 0
 233              		@ frame_needed = 0, uses_anonymous_args = 0
 234              	.LVL10:
 235              		.loc 1 343 0
 236 0000 0269     		ldr	r2, [r0, #16]
 237              	.LVL11:
 238              		.loc 1 346 0
 239 0002 016A     		ldr	r1, [r0, #32]
 240              	.LVL12:
 241              		.loc 1 347 0
 242 0004 1378     		ldrb	r3, [r2]	@ zero_extendqisi2
 243              		.loc 1 340 0
 244 0006 30B5     		push	{r4, r5, lr}
 245              		.cfi_def_cfa_offset 12
 246              		.cfi_offset 4, -12
 247              		.cfi_offset 5, -8
 248              		.cfi_offset 14, -4
 249 0008 C568     		ldr	r5, [r0, #12]
 250              		.loc 1 347 0
 251 000a 2BB1     		cbz	r3, .L16
 252              	.LVL13:
 253              		.loc 1 349 0
 254 000c 012D     		cmp	r5, #1
 255              		.loc 1 348 0
 256 000e 94BF     		ite	ls
 257 0010 41F48071 		orrls	r1, r1, #256
 258              	.LVL14:
 259              		.loc 1 352 0
 260 0014 41F48471 		orrhi	r1, r1, #264
 261              	.LVL15:
 262              	.L16:
 263              		.loc 1 355 0
 264 0018 C369     		ldr	r3, [r0, #28]
 265 001a 8468     		ldr	r4, [r0, #8]
 266 001c 1B68     		ldr	r3, [r3]
 267 001e DC60     		str	r4, [r3, #12]
 268              		.loc 1 356 0
 269 0020 5488     		ldrh	r4, [r2, #2]
 270 0022 6543     		muls	r5, r4, r5
 271 0024 5D60     		str	r5, [r3, #4]
 272              		.loc 1 358 0
 273 0026 1960     		str	r1, [r3]
 274              		.loc 1 359 0
 275 0028 1968     		ldr	r1, [r3]
 276              	.LVL16:
 277 002a 41F00101 		orr	r1, r1, #1
 278 002e 1960     		str	r1, [r3]
 279              	.LVL17:
 280              		.loc 1 362 0
 281 0030 8369     		ldr	r3, [r0, #24]
 282 0032 0021     		movs	r1, #0
 283 0034 1960     		str	r1, [r3]
 284              		.loc 1 363 0
 285 0036 5169     		ldr	r1, [r2, #20]
ARM GAS  /tmp/cc6IKL1m.s 			page 6


 286 0038 D960     		str	r1, [r3, #12]
 287              		.loc 1 364 0
 288 003a 9169     		ldr	r1, [r2, #24]
 289 003c 1961     		str	r1, [r3, #16]
 290              		.loc 1 365 0
 291 003e 918B     		ldrh	r1, [r2, #28]
 292 0040 5962     		str	r1, [r3, #36]
 293              		.loc 1 366 0
 294 0042 D18B     		ldrh	r1, [r2, #30]
 295 0044 9962     		str	r1, [r3, #40]
 296              		.loc 1 367 0
 297 0046 116A     		ldr	r1, [r2, #32]
 298 0048 013C     		subs	r4, r4, #1
 299 004a 41EA0454 		orr	r4, r1, r4, lsl #20
 300              		.loc 1 368 0
 301 004e 516A     		ldr	r1, [r2, #36]
 302              		.loc 1 367 0
 303 0050 DC62     		str	r4, [r3, #44]
 304              		.loc 1 368 0
 305 0052 1963     		str	r1, [r3, #48]
 306              		.loc 1 369 0
 307 0054 916A     		ldr	r1, [r2, #40]
 308 0056 5963     		str	r1, [r3, #52]
 309              		.loc 1 372 0
 310 0058 D168     		ldr	r1, [r2, #12]
 311              		.loc 1 375 0
 312 005a 1269     		ldr	r2, [r2, #16]
 313              	.LVL18:
 314              		.loc 1 372 0
 315 005c 41F08061 		orr	r1, r1, #67108864
 316 0060 41F48071 		orr	r1, r1, #256
 317 0064 5960     		str	r1, [r3, #4]
 318              		.loc 1 379 0
 319 0066 5100     		lsls	r1, r2, #1
 320              		.loc 1 381 0
 321 0068 43BF     		ittte	mi
 322 006a 22F08041 		bicmi	r1, r2, #1073741824
 323 006e 21F00201 		bicmi	r1, r1, #2
 324 0072 40F20330 		movwmi	r0, #771
 325              	.LVL19:
 326              		.loc 1 375 0
 327 0076 42F44072 		orrpl	r2, r2, #768
 328              	.LVL20:
 329              		.loc 1 381 0
 330 007a 45BF     		ittet	mi
 331 007c 0143     		orrmi	r1, r1, r0
 332              		.loc 1 384 0
 333 007e 0243     		orrmi	r2, r2, r0
 334              		.loc 1 375 0
 335 0080 42F00102 		orrpl	r2, r2, #1
 336              		.loc 1 381 0
 337 0084 9960     		strmi	r1, [r3, #8]
 338              		.loc 1 387 0
 339 0086 9A60     		str	r2, [r3, #8]
 340              	.LVL21:
 341 0088 30BD     		pop	{r4, r5, pc}
 342              		.cfi_endproc
ARM GAS  /tmp/cc6IKL1m.s 			page 7


 343              	.LFE328:
 344              		.size	adc_lld_start_conversion, .-adc_lld_start_conversion
 345              		.section	.text.adc_lld_stop_conversion,"ax",%progbits
 346              		.align	1
 347              		.global	adc_lld_stop_conversion
 348              		.syntax unified
 349              		.thumb
 350              		.thumb_func
 351              		.fpu fpv4-sp-d16
 352              		.type	adc_lld_stop_conversion, %function
 353              	adc_lld_stop_conversion:
 354              	.LFB329:
 355              		.loc 1 397 0
 356              		.cfi_startproc
 357              		@ args = 0, pretend = 0, frame = 0
 358              		@ frame_needed = 0, uses_anonymous_args = 0
 359              	.LVL22:
 360              		.loc 1 399 0
 361 0000 C169     		ldr	r1, [r0, #28]
 362              		.loc 1 397 0
 363 0002 10B5     		push	{r4, lr}
 364              		.cfi_def_cfa_offset 8
 365              		.cfi_offset 4, -8
 366              		.cfi_offset 14, -4
 367              		.loc 1 399 0
 368 0004 0C68     		ldr	r4, [r1]
 369 0006 2368     		ldr	r3, [r4]
 370 0008 23F01F03 		bic	r3, r3, #31
 371 000c 2360     		str	r3, [r4]
 372              	.L25:
 373              		.loc 1 399 0 is_stmt 0 discriminator 2
 374 000e 2268     		ldr	r2, [r4]
 375 0010 12F00102 		ands	r2, r2, #1
 376 0014 FBD1     		bne	.L25
 377              		.loc 1 399 0 discriminator 3
 378 0016 4C68     		ldr	r4, [r1, #4]
 379 0018 497A     		ldrb	r1, [r1, #9]	@ zero_extendqisi2
 380 001a 3D23     		movs	r3, #61
 381 001c 8B40     		lsls	r3, r3, r1
 382 001e 2360     		str	r3, [r4]
 383              		.loc 1 400 0 is_stmt 1 discriminator 3
 384 0020 8369     		ldr	r3, [r0, #24]
 385 0022 5A60     		str	r2, [r3, #4]
 386              		.loc 1 402 0 discriminator 3
 387 0024 9A68     		ldr	r2, [r3, #8]
 388 0026 22F08042 		bic	r2, r2, #1073741824
 389 002a 9A60     		str	r2, [r3, #8]
 390              		.loc 1 403 0 discriminator 3
 391 002c 0122     		movs	r2, #1
 392 002e 9A60     		str	r2, [r3, #8]
 393 0030 10BD     		pop	{r4, pc}
 394              		.cfi_endproc
 395              	.LFE329:
 396              		.size	adc_lld_stop_conversion, .-adc_lld_stop_conversion
 397              		.section	.text.Vector88,"ax",%progbits
 398              		.align	1
 399              		.global	Vector88
ARM GAS  /tmp/cc6IKL1m.s 			page 8


 400              		.syntax unified
 401              		.thumb
 402              		.thumb_func
 403              		.fpu fpv4-sp-d16
 404              		.type	Vector88, %function
 405              	Vector88:
 406              	.LFB324:
 407              		.loc 1 111 0
 408              		.cfi_startproc
 409              		@ args = 0, pretend = 0, frame = 0
 410              		@ frame_needed = 0, uses_anonymous_args = 0
 411 0000 70B5     		push	{r4, r5, r6, lr}
 412              		.cfi_def_cfa_offset 16
 413              		.cfi_offset 4, -16
 414              		.cfi_offset 5, -12
 415              		.cfi_offset 6, -8
 416              		.cfi_offset 14, -4
 417              		.loc 1 114 0
 418 0002 FFF7FEFF 		bl	_stats_increase_irq
 419              	.LVL23:
 420              		.loc 1 117 0
 421 0006 304B     		ldr	r3, .L51
 422 0008 1E68     		ldr	r6, [r3]
 423              	.LVL24:
 424              		.loc 1 118 0
 425 000a 0022     		movs	r2, #0
 426 000c 1A60     		str	r2, [r3]
 427              		.loc 1 121 0
 428 000e B206     		lsls	r2, r6, #26
 429 0010 28D5     		bpl	.L28
 430              		.loc 1 121 0 is_stmt 0 discriminator 1
 431 0012 2E4D     		ldr	r5, .L51+4
 432 0014 EB69     		ldr	r3, [r5, #28]
 433 0016 1B68     		ldr	r3, [r3]
 434 0018 5B68     		ldr	r3, [r3, #4]
 435 001a 1BB3     		cbz	r3, .L28
 436              		.loc 1 124 0 is_stmt 1
 437 001c 2B69     		ldr	r3, [r5, #16]
 438 001e 0BB3     		cbz	r3, .L28
 439              		.loc 1 125 0
 440 0020 2846     		mov	r0, r5
 441 0022 FFF7FEFF 		bl	adc_lld_stop_conversion
 442              	.LVL25:
 443 0026 2B69     		ldr	r3, [r5, #16]
 444 0028 9B68     		ldr	r3, [r3, #8]
 445 002a 002B     		cmp	r3, #0
 446 002c 44D0     		beq	.L29
 447              		.loc 1 125 0 is_stmt 0 discriminator 1
 448 002e 0522     		movs	r2, #5
 449 0030 2A70     		strb	r2, [r5]
 450 0032 0121     		movs	r1, #1
 451 0034 2846     		mov	r0, r5
 452 0036 9847     		blx	r3
 453              	.LVL26:
 454 0038 2B78     		ldrb	r3, [r5]	@ zero_extendqisi2
 455 003a 052B     		cmp	r3, #5
 456 003c 04BF     		itt	eq
ARM GAS  /tmp/cc6IKL1m.s 			page 9


 457 003e 0223     		moveq	r3, #2
 458 0040 2B70     		strbeq	r3, [r5]
 459 0042 0023     		movs	r3, #0
 460 0044 2B61     		str	r3, [r5, #16]
 461              	.L31:
 462              	.LVL27:
 463              	.LBB84:
 464              	.LBB85:
 465              	.LBB86:
 466              	.LBB87:
 467              	.LBB88:
 468              	.LBB89:
 469              	.LBB90:
 470              		.file 2 "../../modules/ChibiOS/os/common/ext/ARM/CMSIS/Core/Include/cmsis_gcc.h"
 471              		.loc 2 493 0 is_stmt 1 discriminator 7
 472 0046 2023     		movs	r3, #32
 473              		.syntax unified
 474              	@ 493 "../../modules/ChibiOS/os/common/ext/ARM/CMSIS/Core/Include/cmsis_gcc.h" 1
 475 0048 83F31188 		MSR basepri, r3
 476              	@ 0 "" 2
 477              	.LVL28:
 478              		.thumb
 479              		.syntax unified
 480              	.LBE90:
 481              	.LBE89:
 482              	.LBE88:
 483              	.LBE87:
 484              		.file 3 "../../modules/ChibiOS/os/rt/include/chsys.h"
 485              		.loc 3 396 0 discriminator 7
 486 004c FFF7FEFF 		bl	_stats_start_measure_crit_isr
 487              	.LVL29:
 488              	.LBE86:
 489              	.LBE85:
 490              	.LBE84:
 491              	.LBB91:
 492              	.LBB92:
 493              		.file 4 "../../modules/ChibiOS/os/hal/osal/rt/osal.h"
 494              		.loc 4 775 0 discriminator 7
 495 0050 4FF0FF31 		mov	r1, #-1
 496 0054 1E48     		ldr	r0, .L51+8
 497 0056 FFF7FEFF 		bl	chThdResumeI
 498              	.LVL30:
 499              	.LBE92:
 500              	.LBE91:
 501              	.LBB93:
 502              	.LBB94:
 503              	.LBB95:
 504              		.loc 3 416 0 discriminator 7
 505 005a FFF7FEFF 		bl	_stats_stop_measure_crit_isr
 506              	.LVL31:
 507              	.LBB96:
 508              	.LBB97:
 509              	.LBB98:
 510              	.LBB99:
 511              		.loc 2 493 0 discriminator 7
 512 005e 0023     		movs	r3, #0
 513              		.syntax unified
ARM GAS  /tmp/cc6IKL1m.s 			page 10


 514              	@ 493 "../../modules/ChibiOS/os/common/ext/ARM/CMSIS/Core/Include/cmsis_gcc.h" 1
 515 0060 83F31188 		MSR basepri, r3
 516              	@ 0 "" 2
 517              	.LVL32:
 518              		.thumb
 519              		.syntax unified
 520              	.L28:
 521              	.LBE99:
 522              	.LBE98:
 523              	.LBE97:
 524              	.LBE96:
 525              	.LBE95:
 526              	.LBE94:
 527              	.LBE93:
 528              		.loc 1 127 0
 529 0064 F307     		lsls	r3, r6, #31
 530 0066 23D5     		bpl	.L32
 531              		.loc 1 128 0
 532 0068 184D     		ldr	r5, .L51+4
 533 006a 2B69     		ldr	r3, [r5, #16]
 534 006c 03B3     		cbz	r3, .L32
 535              		.loc 1 129 0
 536 006e 2846     		mov	r0, r5
 537 0070 FFF7FEFF 		bl	adc_lld_stop_conversion
 538              	.LVL33:
 539 0074 2B69     		ldr	r3, [r5, #16]
 540 0076 9B68     		ldr	r3, [r3, #8]
 541 0078 13B3     		cbz	r3, .L33
 542              		.loc 1 129 0 is_stmt 0 discriminator 1
 543 007a 0522     		movs	r2, #5
 544 007c 2A70     		strb	r2, [r5]
 545 007e 0221     		movs	r1, #2
 546 0080 2846     		mov	r0, r5
 547 0082 9847     		blx	r3
 548              	.LVL34:
 549 0084 2B78     		ldrb	r3, [r5]	@ zero_extendqisi2
 550 0086 052B     		cmp	r3, #5
 551 0088 04BF     		itt	eq
 552 008a 0223     		moveq	r3, #2
 553 008c 2B70     		strbeq	r3, [r5]
 554 008e 0023     		movs	r3, #0
 555 0090 2B61     		str	r3, [r5, #16]
 556              	.L35:
 557              	.LVL35:
 558              	.LBB100:
 559              	.LBB101:
 560              	.LBB102:
 561              	.LBB103:
 562              	.LBB104:
 563              	.LBB105:
 564              	.LBB106:
 565              		.loc 2 493 0 is_stmt 1 discriminator 7
 566 0092 2023     		movs	r3, #32
 567              		.syntax unified
 568              	@ 493 "../../modules/ChibiOS/os/common/ext/ARM/CMSIS/Core/Include/cmsis_gcc.h" 1
 569 0094 83F31188 		MSR basepri, r3
 570              	@ 0 "" 2
ARM GAS  /tmp/cc6IKL1m.s 			page 11


 571              	.LVL36:
 572              		.thumb
 573              		.syntax unified
 574              	.LBE106:
 575              	.LBE105:
 576              	.LBE104:
 577              	.LBE103:
 578              		.loc 3 396 0 discriminator 7
 579 0098 FFF7FEFF 		bl	_stats_start_measure_crit_isr
 580              	.LVL37:
 581              	.LBE102:
 582              	.LBE101:
 583              	.LBE100:
 584              	.LBB107:
 585              	.LBB108:
 586              		.loc 4 775 0 discriminator 7
 587 009c 4FF0FF31 		mov	r1, #-1
 588 00a0 0B48     		ldr	r0, .L51+8
 589 00a2 FFF7FEFF 		bl	chThdResumeI
 590              	.LVL38:
 591              	.LBE108:
 592              	.LBE107:
 593              	.LBB109:
 594              	.LBB110:
 595              	.LBB111:
 596              		.loc 3 416 0 discriminator 7
 597 00a6 FFF7FEFF 		bl	_stats_stop_measure_crit_isr
 598              	.LVL39:
 599              	.LBB112:
 600              	.LBB113:
 601              	.LBB114:
 602              	.LBB115:
 603              		.loc 2 493 0 discriminator 7
 604 00aa 0023     		movs	r3, #0
 605              		.syntax unified
 606              	@ 493 "../../modules/ChibiOS/os/common/ext/ARM/CMSIS/Core/Include/cmsis_gcc.h" 1
 607 00ac 83F31188 		MSR basepri, r3
 608              	@ 0 "" 2
 609              	.LVL40:
 610              		.thumb
 611              		.syntax unified
 612              	.L32:
 613              	.LBE115:
 614              	.LBE114:
 615              	.LBE113:
 616              	.LBE112:
 617              	.LBE111:
 618              	.LBE110:
 619              	.LBE109:
 620              		.loc 1 180 0
 621 00b0 BDE87040 		pop	{r4, r5, r6, lr}
 622              		.cfi_remember_state
 623              		.cfi_restore 14
 624              		.cfi_restore 6
 625              		.cfi_restore 5
 626              		.cfi_restore 4
 627              		.cfi_def_cfa_offset 0
ARM GAS  /tmp/cc6IKL1m.s 			page 12


 628              	.LVL41:
 629              		.loc 1 179 0
 630 00b4 FFF7FEBF 		b	_port_irq_epilogue
 631              	.LVL42:
 632              	.L29:
 633              		.cfi_restore_state
 634              		.loc 1 125 0 discriminator 2
 635 00b8 0222     		movs	r2, #2
 636 00ba 2A70     		strb	r2, [r5]
 637 00bc 2B61     		str	r3, [r5, #16]
 638 00be C2E7     		b	.L31
 639              	.L33:
 640              		.loc 1 129 0 discriminator 2
 641 00c0 0222     		movs	r2, #2
 642 00c2 2A70     		strb	r2, [r5]
 643 00c4 2B61     		str	r3, [r5, #16]
 644 00c6 E4E7     		b	.L35
 645              	.L52:
 646              		.align	2
 647              	.L51:
 648 00c8 00200140 		.word	1073815552
 649 00cc 00000000 		.word	.LANCHOR0
 650 00d0 14000000 		.word	.LANCHOR0+20
 651              		.cfi_endproc
 652              	.LFE324:
 653              		.size	Vector88, .-Vector88
 654              		.section	.text.adc_lld_serve_rx_interrupt,"ax",%progbits
 655              		.align	1
 656              		.syntax unified
 657              		.thumb
 658              		.thumb_func
 659              		.fpu fpv4-sp-d16
 660              		.type	adc_lld_serve_rx_interrupt, %function
 661              	adc_lld_serve_rx_interrupt:
 662              	.LFB323:
 663              		.loc 1 75 0
 664              		.cfi_startproc
 665              		@ args = 0, pretend = 0, frame = 0
 666              		@ frame_needed = 0, uses_anonymous_args = 0
 667              	.LVL43:
 668              		.loc 1 78 0
 669 0000 11F00C0F 		tst	r1, #12
 670              		.loc 1 75 0
 671 0004 10B5     		push	{r4, lr}
 672              		.cfi_def_cfa_offset 8
 673              		.cfi_offset 4, -8
 674              		.cfi_offset 14, -4
 675              		.loc 1 75 0
 676 0006 0446     		mov	r4, r0
 677              		.loc 1 78 0
 678 0008 23D0     		beq	.L54
 679              		.loc 1 81 0
 680 000a FFF7FEFF 		bl	adc_lld_stop_conversion
 681              	.LVL44:
 682 000e 0369     		ldr	r3, [r0, #16]
 683 0010 9B68     		ldr	r3, [r3, #8]
 684 0012 DBB1     		cbz	r3, .L55
ARM GAS  /tmp/cc6IKL1m.s 			page 13


 685              		.loc 1 81 0 is_stmt 0 discriminator 1
 686 0014 0522     		movs	r2, #5
 687 0016 0270     		strb	r2, [r0]
 688 0018 0021     		movs	r1, #0
 689 001a 9847     		blx	r3
 690              	.LVL45:
 691 001c 2378     		ldrb	r3, [r4]	@ zero_extendqisi2
 692 001e 052B     		cmp	r3, #5
 693 0020 04BF     		itt	eq
 694 0022 0223     		moveq	r3, #2
 695 0024 2370     		strbeq	r3, [r4]
 696 0026 0023     		movs	r3, #0
 697              	.L77:
 698              		.loc 1 81 0 discriminator 2
 699 0028 2361     		str	r3, [r4, #16]
 700              	.LVL46:
 701              	.LBB152:
 702              	.LBB153:
 703              	.LBB154:
 704              	.LBB155:
 705              	.LBB156:
 706              	.LBB157:
 707              	.LBB158:
 708              		.loc 2 493 0 is_stmt 1 discriminator 2
 709 002a 2023     		movs	r3, #32
 710              		.syntax unified
 711              	@ 493 "../../modules/ChibiOS/os/common/ext/ARM/CMSIS/Core/Include/cmsis_gcc.h" 1
 712 002c 83F31188 		MSR basepri, r3
 713              	@ 0 "" 2
 714              	.LVL47:
 715              		.thumb
 716              		.syntax unified
 717              	.LBE158:
 718              	.LBE157:
 719              	.LBE156:
 720              	.LBE155:
 721              		.loc 3 396 0 discriminator 2
 722 0030 FFF7FEFF 		bl	_stats_start_measure_crit_isr
 723              	.LVL48:
 724              	.LBE154:
 725              	.LBE153:
 726              	.LBE152:
 727              	.LBB159:
 728              	.LBB160:
 729              		.loc 4 775 0 discriminator 2
 730 0034 4FF0FF31 		mov	r1, #-1
 731              	.LVL49:
 732              	.L78:
 733              	.LBE160:
 734              	.LBE159:
 735              	.LBB161:
 736              	.LBB162:
 737              		.loc 4 775 0 is_stmt 0 discriminator 8
 738 0038 04F11400 		add	r0, r4, #20
 739 003c FFF7FEFF 		bl	chThdResumeI
 740              	.LVL50:
 741              	.LBE162:
ARM GAS  /tmp/cc6IKL1m.s 			page 14


 742              	.LBE161:
 743              	.LBB164:
 744              	.LBB165:
 745              	.LBB166:
 746              		.loc 3 416 0 is_stmt 1 discriminator 8
 747 0040 FFF7FEFF 		bl	_stats_stop_measure_crit_isr
 748              	.LVL51:
 749              	.LBB167:
 750              	.LBB168:
 751              	.LBB169:
 752              	.LBB170:
 753              		.loc 2 493 0 discriminator 8
 754 0044 0023     		movs	r3, #0
 755              		.syntax unified
 756              	@ 493 "../../modules/ChibiOS/os/common/ext/ARM/CMSIS/Core/Include/cmsis_gcc.h" 1
 757 0046 83F31188 		MSR basepri, r3
 758              	@ 0 "" 2
 759              	.LVL52:
 760              		.thumb
 761              		.syntax unified
 762 004a 10BD     		pop	{r4, pc}
 763              	.LVL53:
 764              	.L55:
 765              	.LBE170:
 766              	.LBE169:
 767              	.LBE168:
 768              	.LBE167:
 769              	.LBE166:
 770              	.LBE165:
 771              	.LBE164:
 772              		.loc 1 81 0 discriminator 2
 773 004c 0222     		movs	r2, #2
 774 004e 0270     		strb	r2, [r0]
 775 0050 EAE7     		b	.L77
 776              	.LVL54:
 777              	.L54:
 778              		.loc 1 86 0
 779 0052 0369     		ldr	r3, [r0, #16]
 780 0054 5BB3     		cbz	r3, .L53
 781              		.loc 1 88 0
 782 0056 8A06     		lsls	r2, r1, #26
 783 0058 22D5     		bpl	.L60
 784              		.loc 1 90 0
 785 005a 1A78     		ldrb	r2, [r3]	@ zero_extendqisi2
 786 005c 52B1     		cbz	r2, .L61
 787              		.loc 1 90 0 is_stmt 0 discriminator 1
 788 005e 5B68     		ldr	r3, [r3, #4]
 789 0060 2BB3     		cbz	r3, .L53
 790              		.loc 1 90 0 discriminator 3
 791 0062 0422     		movs	r2, #4
 792 0064 0270     		strb	r2, [r0]
 793 0066 9847     		blx	r3
 794              	.LVL55:
 795 0068 2378     		ldrb	r3, [r4]	@ zero_extendqisi2
 796 006a 042B     		cmp	r3, #4
 797 006c 1FD1     		bne	.L53
 798              		.loc 1 90 0 discriminator 4
ARM GAS  /tmp/cc6IKL1m.s 			page 15


 799 006e 0323     		movs	r3, #3
 800 0070 2370     		strb	r3, [r4]
 801 0072 10BD     		pop	{r4, pc}
 802              	.LVL56:
 803              	.L61:
 804              		.loc 1 90 0 discriminator 2
 805 0074 FFF7FEFF 		bl	adc_lld_stop_conversion
 806              	.LVL57:
 807 0078 0369     		ldr	r3, [r0, #16]
 808 007a 5B68     		ldr	r3, [r3, #4]
 809 007c 2BB1     		cbz	r3, .L63
 810              		.loc 1 90 0 discriminator 5
 811 007e 0422     		movs	r2, #4
 812 0080 0270     		strb	r2, [r0]
 813 0082 9847     		blx	r3
 814              	.LVL58:
 815 0084 2378     		ldrb	r3, [r4]	@ zero_extendqisi2
 816 0086 042B     		cmp	r3, #4
 817 0088 03D1     		bne	.L64
 818              	.L63:
 819              		.loc 1 90 0 discriminator 7
 820 008a 0223     		movs	r3, #2
 821 008c 2370     		strb	r3, [r4]
 822 008e 0023     		movs	r3, #0
 823 0090 2361     		str	r3, [r4, #16]
 824              	.L64:
 825              	.LVL59:
 826              	.LBB171:
 827              	.LBB172:
 828              	.LBB173:
 829              	.LBB174:
 830              	.LBB175:
 831              	.LBB176:
 832              	.LBB177:
 833              		.loc 2 493 0 is_stmt 1 discriminator 8
 834 0092 2023     		movs	r3, #32
 835              		.syntax unified
 836              	@ 493 "../../modules/ChibiOS/os/common/ext/ARM/CMSIS/Core/Include/cmsis_gcc.h" 1
 837 0094 83F31188 		MSR basepri, r3
 838              	@ 0 "" 2
 839              	.LVL60:
 840              		.thumb
 841              		.syntax unified
 842              	.LBE177:
 843              	.LBE176:
 844              	.LBE175:
 845              	.LBE174:
 846              		.loc 3 396 0 discriminator 8
 847 0098 FFF7FEFF 		bl	_stats_start_measure_crit_isr
 848              	.LVL61:
 849              	.LBE173:
 850              	.LBE172:
 851              	.LBE171:
 852              	.LBB178:
 853              	.LBB163:
 854              		.loc 4 775 0 discriminator 8
 855 009c 0021     		movs	r1, #0
ARM GAS  /tmp/cc6IKL1m.s 			page 16


 856 009e CBE7     		b	.L78
 857              	.LVL62:
 858              	.L60:
 859              	.LBE163:
 860              	.LBE178:
 861              		.loc 1 92 0
 862 00a0 CA06     		lsls	r2, r1, #27
 863 00a2 04D5     		bpl	.L53
 864              		.loc 1 94 0
 865 00a4 5B68     		ldr	r3, [r3, #4]
 866 00a6 13B1     		cbz	r3, .L53
 867              		.loc 1 98 0 discriminator 1
 868 00a8 BDE81040 		pop	{r4, lr}
 869              		.cfi_remember_state
 870              		.cfi_restore 14
 871              		.cfi_restore 4
 872              		.cfi_def_cfa_offset 0
 873              		.loc 1 94 0 discriminator 1
 874 00ac 1847     		bx	r3	@ indirect register sibling call
 875              	.LVL63:
 876              	.L53:
 877              		.cfi_restore_state
 878 00ae 10BD     		pop	{r4, pc}
 879              		.cfi_endproc
 880              	.LFE323:
 881              		.size	adc_lld_serve_rx_interrupt, .-adc_lld_serve_rx_interrupt
 882              		.section	.text.adcSTM32EnableTSVREFE,"ax",%progbits
 883              		.align	1
 884              		.global	adcSTM32EnableTSVREFE
 885              		.syntax unified
 886              		.thumb
 887              		.thumb_func
 888              		.fpu fpv4-sp-d16
 889              		.type	adcSTM32EnableTSVREFE, %function
 890              	adcSTM32EnableTSVREFE:
 891              	.LFB330:
 892              		.loc 1 412 0
 893              		.cfi_startproc
 894              		@ args = 0, pretend = 0, frame = 0
 895              		@ frame_needed = 0, uses_anonymous_args = 0
 896              		@ link register save eliminated.
 897              		.loc 1 414 0
 898 0000 024A     		ldr	r2, .L80
 899 0002 5368     		ldr	r3, [r2, #4]
 900 0004 43F40003 		orr	r3, r3, #8388608
 901 0008 5360     		str	r3, [r2, #4]
 902 000a 7047     		bx	lr
 903              	.L81:
 904              		.align	2
 905              	.L80:
 906 000c 00230140 		.word	1073816320
 907              		.cfi_endproc
 908              	.LFE330:
 909              		.size	adcSTM32EnableTSVREFE, .-adcSTM32EnableTSVREFE
 910              		.section	.text.adcSTM32DisableTSVREFE,"ax",%progbits
 911              		.align	1
 912              		.global	adcSTM32DisableTSVREFE
ARM GAS  /tmp/cc6IKL1m.s 			page 17


 913              		.syntax unified
 914              		.thumb
 915              		.thumb_func
 916              		.fpu fpv4-sp-d16
 917              		.type	adcSTM32DisableTSVREFE, %function
 918              	adcSTM32DisableTSVREFE:
 919              	.LFB331:
 920              		.loc 1 423 0
 921              		.cfi_startproc
 922              		@ args = 0, pretend = 0, frame = 0
 923              		@ frame_needed = 0, uses_anonymous_args = 0
 924              		@ link register save eliminated.
 925              		.loc 1 425 0
 926 0000 024A     		ldr	r2, .L83
 927 0002 5368     		ldr	r3, [r2, #4]
 928 0004 23F40003 		bic	r3, r3, #8388608
 929 0008 5360     		str	r3, [r2, #4]
 930 000a 7047     		bx	lr
 931              	.L84:
 932              		.align	2
 933              	.L83:
 934 000c 00230140 		.word	1073816320
 935              		.cfi_endproc
 936              	.LFE331:
 937              		.size	adcSTM32DisableTSVREFE, .-adcSTM32DisableTSVREFE
 938              		.section	.text.adcSTM32EnableVBATE,"ax",%progbits
 939              		.align	1
 940              		.global	adcSTM32EnableVBATE
 941              		.syntax unified
 942              		.thumb
 943              		.thumb_func
 944              		.fpu fpv4-sp-d16
 945              		.type	adcSTM32EnableVBATE, %function
 946              	adcSTM32EnableVBATE:
 947              	.LFB332:
 948              		.loc 1 434 0
 949              		.cfi_startproc
 950              		@ args = 0, pretend = 0, frame = 0
 951              		@ frame_needed = 0, uses_anonymous_args = 0
 952              		@ link register save eliminated.
 953              		.loc 1 436 0
 954 0000 024A     		ldr	r2, .L86
 955 0002 5368     		ldr	r3, [r2, #4]
 956 0004 43F48003 		orr	r3, r3, #4194304
 957 0008 5360     		str	r3, [r2, #4]
 958 000a 7047     		bx	lr
 959              	.L87:
 960              		.align	2
 961              	.L86:
 962 000c 00230140 		.word	1073816320
 963              		.cfi_endproc
 964              	.LFE332:
 965              		.size	adcSTM32EnableVBATE, .-adcSTM32EnableVBATE
 966              		.section	.text.adcSTM32DisableVBATE,"ax",%progbits
 967              		.align	1
 968              		.global	adcSTM32DisableVBATE
 969              		.syntax unified
ARM GAS  /tmp/cc6IKL1m.s 			page 18


 970              		.thumb
 971              		.thumb_func
 972              		.fpu fpv4-sp-d16
 973              		.type	adcSTM32DisableVBATE, %function
 974              	adcSTM32DisableVBATE:
 975              	.LFB333:
 976              		.loc 1 445 0
 977              		.cfi_startproc
 978              		@ args = 0, pretend = 0, frame = 0
 979              		@ frame_needed = 0, uses_anonymous_args = 0
 980              		@ link register save eliminated.
 981              		.loc 1 447 0
 982 0000 024A     		ldr	r2, .L89
 983 0002 5368     		ldr	r3, [r2, #4]
 984 0004 23F48003 		bic	r3, r3, #4194304
 985 0008 5360     		str	r3, [r2, #4]
 986 000a 7047     		bx	lr
 987              	.L90:
 988              		.align	2
 989              	.L89:
 990 000c 00230140 		.word	1073816320
 991              		.cfi_endproc
 992              	.LFE333:
 993              		.size	adcSTM32DisableVBATE, .-adcSTM32DisableVBATE
 994              		.global	ADCD1
 995              		.section	.bss.ADCD1,"aw",%nobits
 996              		.align	2
 997              		.set	.LANCHOR0,. + 0
 998              		.type	ADCD1, %object
 999              		.size	ADCD1, 36
 1000              	ADCD1:
 1001 0000 00000000 		.space	36
 1001      00000000 
 1001      00000000 
 1001      00000000 
 1001      00000000 
 1002              		.text
 1003              	.Letext0:
 1004              		.file 5 "/opt/gcc-arm-none-eabi-6-2017-q2-update/lib/gcc/arm-none-eabi/6.3.1/include/stddef.h"
 1005              		.file 6 "/opt/gcc-arm-none-eabi-6-2017-q2-update/arm-none-eabi/include/machine/_default_types.h"
 1006              		.file 7 "/opt/gcc-arm-none-eabi-6-2017-q2-update/arm-none-eabi/include/sys/_stdint.h"
 1007              		.file 8 "/opt/gcc-arm-none-eabi-6-2017-q2-update/arm-none-eabi/include/stdint.h"
 1008              		.file 9 "../../modules/ChibiOS/os/common/ports/ARMCMx/compilers/GCC/chtypes.h"
 1009              		.file 10 "../../modules/ChibiOS/os/rt/include/chsystypes.h"
 1010              		.file 11 "../../modules/ChibiOS/os/rt/include/chschd.h"
 1011              		.file 12 "../../modules/ChibiOS/os/rt/include/chtime.h"
 1012              		.file 13 "../../modules/ChibiOS/os/common/ext/ARM/CMSIS/Core/Include/core_cm4.h"
 1013              		.file 14 "../../modules/ChibiOS/os/common/ext/ST/STM32F4xx/system_stm32f4xx.h"
 1014              		.file 15 "../../modules/ChibiOS/os/common/ext/ST/STM32F4xx/stm32f427xx.h"
 1015              		.file 16 "../../modules/ChibiOS/os/common/ports/ARMCMx/chcore.h"
 1016              		.file 17 "../../modules/ChibiOS/os/common/ports/ARMCMx/chcore_v7m.h"
 1017              		.file 18 "../../modules/ChibiOS/os/hal/ports/STM32/LLD/TIMv1/stm32_tim.h"
 1018              		.file 19 "../../modules/ChibiOS/os/rt/include/chtm.h"
 1019              		.file 20 "../../modules/ChibiOS/os/rt/include/chstats.h"
 1020              		.file 21 "../../modules/ChibiOS/os/rt/include/chsem.h"
 1021              		.file 22 "../../modules/ChibiOS/os/rt/include/chmtx.h"
 1022              		.file 23 "../../modules/ChibiOS/os/rt/include/chregistry.h"
ARM GAS  /tmp/cc6IKL1m.s 			page 19


 1023              		.file 24 "../../modules/ChibiOS/os/rt/include/chevents.h"
 1024              		.file 25 "../../modules/ChibiOS/os/oslib/include/chmemcore.h"
 1025              		.file 26 "../../modules/ChibiOS/os/oslib/include/chmempools.h"
 1026              		.file 27 "../../modules/ChibiOS/os/oslib/include/chfactory.h"
 1027              		.file 28 "../../modules/ChibiOS/os/hal/ports/STM32/LLD/DMAv2/stm32_dma.h"
 1028              		.file 29 "../../modules/ChibiOS/os/hal/include/hal_ioblock.h"
 1029              		.file 30 "../../modules/ChibiOS/os/hal/include/hal_queues.h"
 1030              		.file 31 "../../modules/ChibiOS/os/hal/include/hal_pal.h"
 1031              		.file 32 "../../modules/ChibiOS/os/hal/ports/STM32/LLD/GPIOv2/stm32_gpio.h"
 1032              		.file 33 "../../modules/ChibiOS/os/hal/ports/STM32/LLD/GPIOv2/hal_pal_lld.h"
 1033              		.file 34 "../../modules/ChibiOS/os/hal/include/hal_adc.h"
 1034              		.file 35 "../../modules/ChibiOS/os/hal/ports/STM32/LLD/ADCv2/hal_adc_lld.h"
 1035              		.file 36 "../../modules/ChibiOS/os/hal/include/hal_i2c.h"
 1036              		.file 37 "../../modules/ChibiOS/os/hal/ports/STM32/LLD/I2Cv1/hal_i2c_lld.h"
 1037              		.file 38 "../../modules/ChibiOS/os/hal/include/hal_pwm.h"
 1038              		.file 39 "../../modules/ChibiOS/os/hal/ports/STM32/LLD/TIMv1/hal_pwm_lld.h"
 1039              		.file 40 "../../modules/ChibiOS/os/hal/include/hal_serial.h"
 1040              		.file 41 "../../modules/ChibiOS/os/hal/ports/STM32/LLD/USARTv1/hal_serial_lld.h"
 1041              		.file 42 "../../modules/ChibiOS/os/hal/include/hal_sdc.h"
 1042              		.file 43 "../../modules/ChibiOS/os/hal/ports/STM32/LLD/SDIOv1/hal_sdc_lld.h"
 1043              		.file 44 "../../modules/ChibiOS/os/hal/include/hal_spi.h"
 1044              		.file 45 "../../modules/ChibiOS/os/hal/ports/STM32/LLD/SPIv1/hal_spi_lld.h"
 1045              		.file 46 "../../modules/ChibiOS/os/hal/include/hal_usb.h"
 1046              		.file 47 "../../modules/ChibiOS/os/hal/ports/STM32/LLD/OTGv1/hal_usb_lld.h"
 1047              		.file 48 "../../modules/ChibiOS/os/hal/ports/STM32/LLD/OTGv1/stm32_otg.h"
 1048              		.file 49 "../../modules/ChibiOS/os/hal/ports/common/ARMCMx/nvic.h"
 1049              		.file 50 "../../modules/ChibiOS/os/rt/include/chthreads.h"