ARM GAS  /tmp/ccmTpnC0.s 			page 1


   1              		.cpu cortex-m4
   2              		.eabi_attribute 27, 1
   3              		.eabi_attribute 28, 1
   4              		.eabi_attribute 20, 1
   5              		.eabi_attribute 21, 1
   6              		.eabi_attribute 23, 3
   7              		.eabi_attribute 24, 1
   8              		.eabi_attribute 25, 1
   9              		.eabi_attribute 26, 1
  10              		.eabi_attribute 30, 4
  11              		.eabi_attribute 34, 1
  12              		.eabi_attribute 18, 4
  13              		.file	"hal_serial_usb.c"
  14              		.text
  15              	.Ltext0:
  16              		.cfi_sections	.debug_frame
  17              		.section	.text.obnotify,"ax",%progbits
  18              		.align	1
  19              		.syntax unified
  20              		.thumb
  21              		.thumb_func
  22              		.fpu fpv4-sp-d16
  23              		.type	obnotify, %function
  24              	obnotify:
  25              	.LFB334:
  26              		.file 1 "../../modules/ChibiOS/os/hal/src/hal_serial_usb.c"
  27              		.loc 1 178 0
  28              		.cfi_startproc
  29              		@ args = 0, pretend = 0, frame = 8
  30              		@ frame_needed = 0, uses_anonymous_args = 0
  31              	.LVL0:
  32 0000 13B5     		push	{r0, r1, r4, lr}
  33              		.cfi_def_cfa_offset 16
  34              		.cfi_offset 4, -8
  35              		.cfi_offset 14, -4
  36              		.loc 1 180 0
  37 0002 446B     		ldr	r4, [r0, #52]
  38              	.LVL1:
  39              		.loc 1 184 0
  40 0004 D4F88C34 		ldr	r3, [r4, #1164]
  41 0008 1A68     		ldr	r2, [r3]
  42 000a 1178     		ldrb	r1, [r2]	@ zero_extendqisi2
  43 000c 0429     		cmp	r1, #4
  44 000e 15D1     		bne	.L1
  45              		.loc 1 184 0 is_stmt 0 discriminator 1
  46 0010 217A     		ldrb	r1, [r4, #8]	@ zero_extendqisi2
  47 0012 0229     		cmp	r1, #2
  48 0014 12D1     		bne	.L1
  49              		.loc 1 190 0 is_stmt 1
  50 0016 1979     		ldrb	r1, [r3, #4]	@ zero_extendqisi2
  51 0018 1289     		ldrh	r2, [r2, #8]
  52 001a 0123     		movs	r3, #1
  53 001c 8B40     		lsls	r3, r3, r1
  54 001e 1342     		tst	r3, r2
  55 0020 0CD1     		bne	.L1
  56              	.LBB74:
  57              		.loc 1 193 0
ARM GAS  /tmp/ccmTpnC0.s 			page 2


  58 0022 01A9     		add	r1, sp, #4
  59 0024 04F14400 		add	r0, r4, #68
  60              	.LVL2:
  61 0028 FFF7FEFF 		bl	obqGetFullBufferI
  62              	.LVL3:
  63              		.loc 1 195 0
  64 002c D4F88C44 		ldr	r4, [r4, #1164]
  65              	.LVL4:
  66 0030 019B     		ldr	r3, [sp, #4]
  67 0032 2179     		ldrb	r1, [r4, #4]	@ zero_extendqisi2
  68 0034 0246     		mov	r2, r0
  69 0036 2068     		ldr	r0, [r4]
  70              	.LVL5:
  71 0038 FFF7FEFF 		bl	usbStartTransmitI
  72              	.LVL6:
  73              	.L1:
  74              	.LBE74:
  75              		.loc 1 197 0
  76 003c 02B0     		add	sp, sp, #8
  77              		.cfi_def_cfa_offset 8
  78              		@ sp needed
  79 003e 10BD     		pop	{r4, pc}
  80              		.cfi_endproc
  81              	.LFE334:
  82              		.size	obnotify, .-obnotify
  83              		.section	.text._readt,"ax",%progbits
  84              		.align	1
  85              		.syntax unified
  86              		.thumb
  87              		.thumb_func
  88              		.fpu fpv4-sp-d16
  89              		.type	_readt, %function
  90              	_readt:
  91              	.LFB331:
  92              		.loc 1 124 0
  93              		.cfi_startproc
  94              		@ args = 0, pretend = 0, frame = 0
  95              		@ frame_needed = 0, uses_anonymous_args = 0
  96              		@ link register save eliminated.
  97              	.LVL7:
  98              		.loc 1 126 0
  99 0000 0C30     		adds	r0, r0, #12
 100              	.LVL8:
 101 0002 FFF7FEBF 		b	ibqReadTimeout
 102              	.LVL9:
 103              		.cfi_endproc
 104              	.LFE331:
 105              		.size	_readt, .-_readt
 106              		.section	.text._read,"ax",%progbits
 107              		.align	1
 108              		.syntax unified
 109              		.thumb
 110              		.thumb_func
 111              		.fpu fpv4-sp-d16
 112              		.type	_read, %function
 113              	_read:
 114              	.LFB325:
ARM GAS  /tmp/ccmTpnC0.s 			page 3


 115              		.loc 1 91 0
 116              		.cfi_startproc
 117              		@ args = 0, pretend = 0, frame = 0
 118              		@ frame_needed = 0, uses_anonymous_args = 0
 119              		@ link register save eliminated.
 120              	.LVL10:
 121              		.loc 1 93 0
 122 0000 4FF0FF33 		mov	r3, #-1
 123 0004 0C30     		adds	r0, r0, #12
 124              	.LVL11:
 125 0006 FFF7FEBF 		b	ibqReadTimeout
 126              	.LVL12:
 127              		.cfi_endproc
 128              	.LFE325:
 129              		.size	_read, .-_read
 130              		.section	.text._writet,"ax",%progbits
 131              		.align	1
 132              		.syntax unified
 133              		.thumb
 134              		.thumb_func
 135              		.fpu fpv4-sp-d16
 136              		.type	_writet, %function
 137              	_writet:
 138              	.LFB330:
 139              		.loc 1 118 0
 140              		.cfi_startproc
 141              		@ args = 0, pretend = 0, frame = 0
 142              		@ frame_needed = 0, uses_anonymous_args = 0
 143              		@ link register save eliminated.
 144              	.LVL13:
 145              		.loc 1 120 0
 146 0000 4430     		adds	r0, r0, #68
 147              	.LVL14:
 148 0002 FFF7FEBF 		b	obqWriteTimeout
 149              	.LVL15:
 150              		.cfi_endproc
 151              	.LFE330:
 152              		.size	_writet, .-_writet
 153              		.section	.text._write,"ax",%progbits
 154              		.align	1
 155              		.syntax unified
 156              		.thumb
 157              		.thumb_func
 158              		.fpu fpv4-sp-d16
 159              		.type	_write, %function
 160              	_write:
 161              	.LFB324:
 162              		.loc 1 85 0
 163              		.cfi_startproc
 164              		@ args = 0, pretend = 0, frame = 0
 165              		@ frame_needed = 0, uses_anonymous_args = 0
 166              		@ link register save eliminated.
 167              	.LVL16:
 168              		.loc 1 87 0
 169 0000 4FF0FF33 		mov	r3, #-1
 170 0004 4430     		adds	r0, r0, #68
 171              	.LVL17:
ARM GAS  /tmp/ccmTpnC0.s 			page 4


 172 0006 FFF7FEBF 		b	obqWriteTimeout
 173              	.LVL18:
 174              		.cfi_endproc
 175              	.LFE324:
 176              		.size	_write, .-_write
 177              		.section	.text._gett,"ax",%progbits
 178              		.align	1
 179              		.syntax unified
 180              		.thumb
 181              		.thumb_func
 182              		.fpu fpv4-sp-d16
 183              		.type	_gett, %function
 184              	_gett:
 185              	.LFB329:
 186              		.loc 1 112 0
 187              		.cfi_startproc
 188              		@ args = 0, pretend = 0, frame = 0
 189              		@ frame_needed = 0, uses_anonymous_args = 0
 190              		@ link register save eliminated.
 191              	.LVL19:
 192              		.loc 1 114 0
 193 0000 0C30     		adds	r0, r0, #12
 194              	.LVL20:
 195 0002 FFF7FEBF 		b	ibqGetTimeout
 196              	.LVL21:
 197              		.cfi_endproc
 198              	.LFE329:
 199              		.size	_gett, .-_gett
 200              		.section	.text._get,"ax",%progbits
 201              		.align	1
 202              		.syntax unified
 203              		.thumb
 204              		.thumb_func
 205              		.fpu fpv4-sp-d16
 206              		.type	_get, %function
 207              	_get:
 208              	.LFB327:
 209              		.loc 1 102 0
 210              		.cfi_startproc
 211              		@ args = 0, pretend = 0, frame = 0
 212              		@ frame_needed = 0, uses_anonymous_args = 0
 213              		@ link register save eliminated.
 214              	.LVL22:
 215              		.loc 1 104 0
 216 0000 4FF0FF31 		mov	r1, #-1
 217 0004 0C30     		adds	r0, r0, #12
 218              	.LVL23:
 219 0006 FFF7FEBF 		b	ibqGetTimeout
 220              	.LVL24:
 221              		.cfi_endproc
 222              	.LFE327:
 223              		.size	_get, .-_get
 224              		.section	.text._putt,"ax",%progbits
 225              		.align	1
 226              		.syntax unified
 227              		.thumb
 228              		.thumb_func
ARM GAS  /tmp/ccmTpnC0.s 			page 5


 229              		.fpu fpv4-sp-d16
 230              		.type	_putt, %function
 231              	_putt:
 232              	.LFB328:
 233              		.loc 1 107 0
 234              		.cfi_startproc
 235              		@ args = 0, pretend = 0, frame = 0
 236              		@ frame_needed = 0, uses_anonymous_args = 0
 237              		@ link register save eliminated.
 238              	.LVL25:
 239              		.loc 1 109 0
 240 0000 4430     		adds	r0, r0, #68
 241              	.LVL26:
 242 0002 FFF7FEBF 		b	obqPutTimeout
 243              	.LVL27:
 244              		.cfi_endproc
 245              	.LFE328:
 246              		.size	_putt, .-_putt
 247              		.section	.text._put,"ax",%progbits
 248              		.align	1
 249              		.syntax unified
 250              		.thumb
 251              		.thumb_func
 252              		.fpu fpv4-sp-d16
 253              		.type	_put, %function
 254              	_put:
 255              	.LFB326:
 256              		.loc 1 97 0
 257              		.cfi_startproc
 258              		@ args = 0, pretend = 0, frame = 0
 259              		@ frame_needed = 0, uses_anonymous_args = 0
 260              		@ link register save eliminated.
 261              	.LVL28:
 262              		.loc 1 99 0
 263 0000 4FF0FF32 		mov	r2, #-1
 264 0004 4430     		adds	r0, r0, #68
 265              	.LVL29:
 266 0006 FFF7FEBF 		b	obqPutTimeout
 267              	.LVL30:
 268              		.cfi_endproc
 269              	.LFE326:
 270              		.size	_put, .-_put
 271              		.section	.text.sdu_start_receive,"ax",%progbits
 272              		.align	1
 273              		.syntax unified
 274              		.thumb
 275              		.thumb_func
 276              		.fpu fpv4-sp-d16
 277              		.type	sdu_start_receive, %function
 278              	sdu_start_receive:
 279              	.LFB323:
 280              		.loc 1 53 0
 281              		.cfi_startproc
 282              		@ args = 0, pretend = 0, frame = 0
 283              		@ frame_needed = 0, uses_anonymous_args = 0
 284              	.LVL31:
 285              		.loc 1 58 0
ARM GAS  /tmp/ccmTpnC0.s 			page 6


 286 0000 D0F88C24 		ldr	r2, [r0, #1164]
 287              		.loc 1 53 0
 288 0004 38B5     		push	{r3, r4, r5, lr}
 289              		.cfi_def_cfa_offset 16
 290              		.cfi_offset 3, -16
 291              		.cfi_offset 4, -12
 292              		.cfi_offset 5, -8
 293              		.cfi_offset 14, -4
 294              		.loc 1 58 0
 295 0006 1368     		ldr	r3, [r2]
 296 0008 1978     		ldrb	r1, [r3]	@ zero_extendqisi2
 297 000a 0429     		cmp	r1, #4
 298              		.loc 1 53 0
 299 000c 0546     		mov	r5, r0
 300              		.loc 1 58 0
 301 000e 01D0     		beq	.L12
 302              	.LVL32:
 303              	.L14:
 304              		.loc 1 60 0
 305 0010 0120     		movs	r0, #1
 306 0012 38BD     		pop	{r3, r4, r5, pc}
 307              	.LVL33:
 308              	.L12:
 309              		.loc 1 58 0 discriminator 1
 310 0014 017A     		ldrb	r1, [r0, #8]	@ zero_extendqisi2
 311 0016 0229     		cmp	r1, #2
 312 0018 FAD1     		bne	.L14
 313              		.loc 1 64 0
 314 001a 1279     		ldrb	r2, [r2, #4]	@ zero_extendqisi2
 315 001c 5C89     		ldrh	r4, [r3, #10]
 316 001e 0120     		movs	r0, #1
 317              	.LVL34:
 318 0020 9040     		lsls	r0, r0, r2
 319 0022 0440     		ands	r4, r0, r4
 320 0024 F4D1     		bne	.L14
 321              	.LVL35:
 322              	.LBB77:
 323              	.LBB78:
 324              		.loc 1 69 0
 325 0026 05F10C00 		add	r0, r5, #12
 326 002a FFF7FEFF 		bl	ibqGetEmptyBufferI
 327              	.LVL36:
 328              		.loc 1 70 0
 329 002e 0246     		mov	r2, r0
 330 0030 0028     		cmp	r0, #0
 331 0032 EDD0     		beq	.L14
 332              		.loc 1 75 0
 333 0034 D5F88C54 		ldr	r5, [r5, #1164]
 334              	.LVL37:
 335 0038 4FF48073 		mov	r3, #256
 336 003c 2868     		ldr	r0, [r5]
 337              	.LVL38:
 338 003e 6979     		ldrb	r1, [r5, #5]	@ zero_extendqisi2
 339 0040 FFF7FEFF 		bl	usbStartReceiveI
 340              	.LVL39:
 341              		.loc 1 78 0
 342 0044 2046     		mov	r0, r4
ARM GAS  /tmp/ccmTpnC0.s 			page 7


 343              	.LBE78:
 344              	.LBE77:
 345              		.loc 1 79 0
 346 0046 38BD     		pop	{r3, r4, r5, pc}
 347              		.cfi_endproc
 348              	.LFE323:
 349              		.size	sdu_start_receive, .-sdu_start_receive
 350              		.section	.text.ibnotify,"ax",%progbits
 351              		.align	1
 352              		.syntax unified
 353              		.thumb
 354              		.thumb_func
 355              		.fpu fpv4-sp-d16
 356              		.type	ibnotify, %function
 357              	ibnotify:
 358              	.LFB333:
 359              		.loc 1 168 0
 360              		.cfi_startproc
 361              		@ args = 0, pretend = 0, frame = 0
 362              		@ frame_needed = 0, uses_anonymous_args = 0
 363              		@ link register save eliminated.
 364              	.LVL40:
 365              		.loc 1 170 0
 366 0000 406B     		ldr	r0, [r0, #52]
 367              	.LVL41:
 368 0002 FFF7FEBF 		b	sdu_start_receive
 369              	.LVL42:
 370              		.cfi_endproc
 371              	.LFE333:
 372              		.size	ibnotify, .-ibnotify
 373              		.section	.text._ctl,"ax",%progbits
 374              		.align	1
 375              		.syntax unified
 376              		.thumb
 377              		.thumb_func
 378              		.fpu fpv4-sp-d16
 379              		.type	_ctl, %function
 380              	_ctl:
 381              	.LFB350:
 382              		.cfi_startproc
 383              		@ args = 0, pretend = 0, frame = 0
 384              		@ frame_needed = 0, uses_anonymous_args = 0
 385              		@ link register save eliminated.
 386 0000 0020     		movs	r0, #0
 387 0002 7047     		bx	lr
 388              		.cfi_endproc
 389              	.LFE350:
 390              		.size	_ctl, .-_ctl
 391              		.section	.text.sduInit,"ax",%progbits
 392              		.align	1
 393              		.global	sduInit
 394              		.syntax unified
 395              		.thumb
 396              		.thumb_func
 397              		.fpu fpv4-sp-d16
 398              		.type	sduInit, %function
 399              	sduInit:
ARM GAS  /tmp/ccmTpnC0.s 			page 8


 400              	.LFB335:
 401              		.loc 1 210 0
 402              		.cfi_startproc
 403              		@ args = 0, pretend = 0, frame = 0
 404              		@ frame_needed = 0, uses_anonymous_args = 0
 405              		@ link register save eliminated.
 406 0000 7047     		bx	lr
 407              		.cfi_endproc
 408              	.LFE335:
 409              		.size	sduInit, .-sduInit
 410              		.section	.text.sduObjectInit,"ax",%progbits
 411              		.align	1
 412              		.global	sduObjectInit
 413              		.syntax unified
 414              		.thumb
 415              		.thumb_func
 416              		.fpu fpv4-sp-d16
 417              		.type	sduObjectInit, %function
 418              	sduObjectInit:
 419              	.LFB336:
 420              		.loc 1 222 0
 421              		.cfi_startproc
 422              		@ args = 0, pretend = 0, frame = 0
 423              		@ frame_needed = 0, uses_anonymous_args = 0
 424              	.LVL43:
 425              		.loc 1 222 0
 426 0000 7FB5     		push	{r0, r1, r2, r3, r4, r5, r6, lr}
 427              		.cfi_def_cfa_offset 32
 428              		.cfi_offset 4, -16
 429              		.cfi_offset 5, -12
 430              		.cfi_offset 6, -8
 431              		.cfi_offset 14, -4
 432              		.loc 1 224 0
 433 0002 0346     		mov	r3, r0
 434 0004 114A     		ldr	r2, .L22
 435 0006 43F8042B 		str	r2, [r3], #4
 436              	.LVL44:
 437              		.loc 1 226 0
 438 000a 0125     		movs	r5, #1
 439              	.LBB79:
 440              	.LBB80:
 441              	.LBB81:
 442              		.file 2 "../../modules/ChibiOS/os/rt/include/chevents.h"
 443              		.loc 2 173 0
 444 000c 4360     		str	r3, [r0, #4]
 445              	.LVL45:
 446              	.LBE81:
 447              	.LBE80:
 448              	.LBE79:
 449              		.loc 1 227 0
 450 000e 0226     		movs	r6, #2
 451 0010 0F4B     		ldr	r3, .L22+4
 452              		.loc 1 226 0
 453 0012 0572     		strb	r5, [r0, #8]
 454              		.loc 1 222 0
 455 0014 0446     		mov	r4, r0
 456              		.loc 1 227 0
ARM GAS  /tmp/ccmTpnC0.s 			page 9


 457 0016 0290     		str	r0, [sp, #8]
 458 0018 0193     		str	r3, [sp, #4]
 459 001a 00F17C02 		add	r2, r0, #124
 460 001e 2946     		mov	r1, r5
 461 0020 0096     		str	r6, [sp]
 462 0022 4FF48073 		mov	r3, #256
 463 0026 0C30     		adds	r0, r0, #12
 464              	.LVL46:
 465 0028 FFF7FEFF 		bl	ibqObjectInit
 466              	.LVL47:
 467              		.loc 1 230 0
 468 002c 094B     		ldr	r3, .L22+8
 469 002e 0193     		str	r3, [sp, #4]
 470 0030 0294     		str	r4, [sp, #8]
 471 0032 0096     		str	r6, [sp]
 472 0034 4FF48073 		mov	r3, #256
 473 0038 04F52172 		add	r2, r4, #644
 474 003c 2946     		mov	r1, r5
 475 003e 04F14400 		add	r0, r4, #68
 476 0042 FFF7FEFF 		bl	obqObjectInit
 477              	.LVL48:
 478              		.loc 1 233 0
 479 0046 04B0     		add	sp, sp, #16
 480              		.cfi_def_cfa_offset 16
 481              		@ sp needed
 482 0048 70BD     		pop	{r4, r5, r6, pc}
 483              	.LVL49:
 484              	.L23:
 485 004a 00BF     		.align	2
 486              	.L22:
 487 004c 00000000 		.word	.LANCHOR0
 488 0050 00000000 		.word	ibnotify
 489 0054 00000000 		.word	obnotify
 490              		.cfi_endproc
 491              	.LFE336:
 492              		.size	sduObjectInit, .-sduObjectInit
 493              		.section	.text.sduStart,"ax",%progbits
 494              		.align	1
 495              		.global	sduStart
 496              		.syntax unified
 497              		.thumb
 498              		.thumb_func
 499              		.fpu fpv4-sp-d16
 500              		.type	sduStart, %function
 501              	sduStart:
 502              	.LFB337:
 503              		.loc 1 243 0
 504              		.cfi_startproc
 505              		@ args = 0, pretend = 0, frame = 0
 506              		@ frame_needed = 0, uses_anonymous_args = 0
 507              	.LVL50:
 508 0000 70B5     		push	{r4, r5, r6, lr}
 509              		.cfi_def_cfa_offset 16
 510              		.cfi_offset 4, -16
 511              		.cfi_offset 5, -12
 512              		.cfi_offset 6, -8
 513              		.cfi_offset 14, -4
ARM GAS  /tmp/ccmTpnC0.s 			page 10


 514              	.LBB96:
 515              	.LBB97:
 516              	.LBB98:
 517              	.LBB99:
 518              	.LBB100:
 519              	.LBB101:
 520              		.file 3 "../../modules/ChibiOS/os/common/ext/ARM/CMSIS/Core/Include/cmsis_gcc.h"
 521              		.loc 3 493 0
 522 0002 2023     		movs	r3, #32
 523              	.LBE101:
 524              	.LBE100:
 525              	.LBE99:
 526              	.LBE98:
 527              	.LBE97:
 528              	.LBE96:
 529              		.loc 1 243 0
 530 0004 0446     		mov	r4, r0
 531 0006 0D46     		mov	r5, r1
 532              		.loc 1 244 0
 533 0008 0E68     		ldr	r6, [r1]
 534              	.LVL51:
 535              	.LBB107:
 536              	.LBB106:
 537              	.LBB105:
 538              	.LBB104:
 539              	.LBB103:
 540              	.LBB102:
 541              		.loc 3 493 0
 542              		.syntax unified
 543              	@ 493 "../../modules/ChibiOS/os/common/ext/ARM/CMSIS/Core/Include/cmsis_gcc.h" 1
 544 000a 83F31188 		MSR basepri, r3
 545              	@ 0 "" 2
 546              	.LVL52:
 547              		.thumb
 548              		.syntax unified
 549              	.LBE102:
 550              	.LBE103:
 551              	.LBE104:
 552              		.file 4 "../../modules/ChibiOS/os/rt/include/chsys.h"
 553              		.loc 4 356 0
 554 000e FFF7FEFF 		bl	_stats_start_measure_crit_thd
 555              	.LVL53:
 556              	.LBE105:
 557              	.LBE106:
 558              	.LBE107:
 559              		.loc 1 251 0
 560 0012 2B79     		ldrb	r3, [r5, #4]	@ zero_extendqisi2
 561 0014 06EB8303 		add	r3, r6, r3, lsl #2
 562 0018 9C61     		str	r4, [r3, #24]
 563              		.loc 1 252 0
 564 001a 6B79     		ldrb	r3, [r5, #5]	@ zero_extendqisi2
 565 001c 0933     		adds	r3, r3, #9
 566 001e 46F82340 		str	r4, [r6, r3, lsl #2]
 567              		.loc 1 253 0
 568 0022 AB79     		ldrb	r3, [r5, #6]	@ zero_extendqisi2
 569 0024 13B1     		cbz	r3, .L25
 570              		.loc 1 254 0
ARM GAS  /tmp/ccmTpnC0.s 			page 11


 571 0026 06EB8306 		add	r6, r6, r3, lsl #2
 572              	.LVL54:
 573 002a B461     		str	r4, [r6, #24]
 574              	.L25:
 575              		.loc 1 257 0
 576 002c 0223     		movs	r3, #2
 577 002e 2372     		strb	r3, [r4, #8]
 578              		.loc 1 256 0
 579 0030 C4F88C54 		str	r5, [r4, #1164]
 580              	.LBB108:
 581              	.LBB109:
 582              	.LBB110:
 583              		.loc 4 368 0
 584 0034 FFF7FEFF 		bl	_stats_stop_measure_crit_thd
 585              	.LVL55:
 586              	.LBB111:
 587              	.LBB112:
 588              	.LBB113:
 589              		.loc 3 493 0
 590 0038 0023     		movs	r3, #0
 591              		.syntax unified
 592              	@ 493 "../../modules/ChibiOS/os/common/ext/ARM/CMSIS/Core/Include/cmsis_gcc.h" 1
 593 003a 83F31188 		MSR basepri, r3
 594              	@ 0 "" 2
 595              	.LVL56:
 596              		.thumb
 597              		.syntax unified
 598 003e 70BD     		pop	{r4, r5, r6, pc}
 599              	.LBE113:
 600              	.LBE112:
 601              	.LBE111:
 602              	.LBE110:
 603              	.LBE109:
 604              	.LBE108:
 605              		.cfi_endproc
 606              	.LFE337:
 607              		.size	sduStart, .-sduStart
 608              		.section	.text.sduStop,"ax",%progbits
 609              		.align	1
 610              		.global	sduStop
 611              		.syntax unified
 612              		.thumb
 613              		.thumb_func
 614              		.fpu fpv4-sp-d16
 615              		.type	sduStop, %function
 616              	sduStop:
 617              	.LFB338:
 618              		.loc 1 270 0
 619              		.cfi_startproc
 620              		@ args = 0, pretend = 0, frame = 0
 621              		@ frame_needed = 0, uses_anonymous_args = 0
 622              	.LVL57:
 623 0000 38B5     		push	{r3, r4, r5, lr}
 624              		.cfi_def_cfa_offset 16
 625              		.cfi_offset 3, -16
 626              		.cfi_offset 4, -12
 627              		.cfi_offset 5, -8
ARM GAS  /tmp/ccmTpnC0.s 			page 12


 628              		.cfi_offset 14, -4
 629              		.loc 1 271 0
 630 0002 D0F88C34 		ldr	r3, [r0, #1164]
 631              		.loc 1 270 0
 632 0006 0446     		mov	r4, r0
 633              		.loc 1 271 0
 634 0008 1D68     		ldr	r5, [r3]
 635              	.LVL58:
 636              	.LBB132:
 637              	.LBB133:
 638              	.LBB134:
 639              	.LBB135:
 640              	.LBB136:
 641              	.LBB137:
 642              		.loc 3 493 0
 643 000a 2023     		movs	r3, #32
 644              		.syntax unified
 645              	@ 493 "../../modules/ChibiOS/os/common/ext/ARM/CMSIS/Core/Include/cmsis_gcc.h" 1
 646 000c 83F31188 		MSR basepri, r3
 647              	@ 0 "" 2
 648              	.LVL59:
 649              		.thumb
 650              		.syntax unified
 651              	.LBE137:
 652              	.LBE136:
 653              	.LBE135:
 654              		.loc 4 356 0
 655 0010 FFF7FEFF 		bl	_stats_start_measure_crit_thd
 656              	.LVL60:
 657              	.LBE134:
 658              	.LBE133:
 659              	.LBE132:
 660              		.loc 1 281 0
 661 0014 D4F88C14 		ldr	r1, [r4, #1164]
 662 0018 0B79     		ldrb	r3, [r1, #4]	@ zero_extendqisi2
 663 001a 0533     		adds	r3, r3, #5
 664 001c 05EB8303 		add	r3, r5, r3, lsl #2
 665 0020 0022     		movs	r2, #0
 666 0022 5A60     		str	r2, [r3, #4]
 667              		.loc 1 282 0
 668 0024 4B79     		ldrb	r3, [r1, #5]	@ zero_extendqisi2
 669 0026 0933     		adds	r3, r3, #9
 670 0028 45F82320 		str	r2, [r5, r3, lsl #2]
 671              		.loc 1 283 0
 672 002c 8B79     		ldrb	r3, [r1, #6]	@ zero_extendqisi2
 673 002e 1BB1     		cbz	r3, .L30
 674              		.loc 1 284 0
 675 0030 0533     		adds	r3, r3, #5
 676 0032 05EB8305 		add	r5, r5, r3, lsl #2
 677              	.LVL61:
 678 0036 6A60     		str	r2, [r5, #4]
 679              	.L30:
 680              		.loc 1 287 0
 681 0038 0123     		movs	r3, #1
 682              		.loc 1 286 0
 683 003a 0025     		movs	r5, #0
 684              		.loc 1 287 0
ARM GAS  /tmp/ccmTpnC0.s 			page 13


 685 003c 2372     		strb	r3, [r4, #8]
 686              	.LVL62:
 687              	.LBB138:
 688              	.LBB139:
 689              		.file 5 "../../modules/ChibiOS/os/hal/osal/rt/osal.h"
 690              		.loc 5 895 0
 691 003e 0221     		movs	r1, #2
 692 0040 201D     		adds	r0, r4, #4
 693              	.LVL63:
 694              	.LBE139:
 695              	.LBE138:
 696              		.loc 1 286 0
 697 0042 C4F88C54 		str	r5, [r4, #1164]
 698              	.LBB141:
 699              	.LBB140:
 700              		.loc 5 895 0
 701 0046 FFF7FEFF 		bl	chEvtBroadcastFlagsI
 702              	.LVL64:
 703              	.LBE140:
 704              	.LBE141:
 705              		.loc 1 291 0
 706 004a 04F10C00 		add	r0, r4, #12
 707 004e FFF7FEFF 		bl	ibqResetI
 708              	.LVL65:
 709              		.loc 1 292 0
 710 0052 04F14400 		add	r0, r4, #68
 711 0056 FFF7FEFF 		bl	obqResetI
 712              	.LVL66:
 713              	.LBB142:
 714              	.LBB143:
 715              		.loc 5 618 0
 716 005a FFF7FEFF 		bl	chSchRescheduleS
 717              	.LVL67:
 718              	.LBE143:
 719              	.LBE142:
 720              	.LBB144:
 721              	.LBB145:
 722              	.LBB146:
 723              		.loc 4 368 0
 724 005e FFF7FEFF 		bl	_stats_stop_measure_crit_thd
 725              	.LVL68:
 726              	.LBB147:
 727              	.LBB148:
 728              	.LBB149:
 729              		.loc 3 493 0
 730              		.syntax unified
 731              	@ 493 "../../modules/ChibiOS/os/common/ext/ARM/CMSIS/Core/Include/cmsis_gcc.h" 1
 732 0062 85F31188 		MSR basepri, r5
 733              	@ 0 "" 2
 734              	.LVL69:
 735              		.thumb
 736              		.syntax unified
 737 0066 38BD     		pop	{r3, r4, r5, pc}
 738              	.LBE149:
 739              	.LBE148:
 740              	.LBE147:
 741              	.LBE146:
ARM GAS  /tmp/ccmTpnC0.s 			page 14


 742              	.LBE145:
 743              	.LBE144:
 744              		.cfi_endproc
 745              	.LFE338:
 746              		.size	sduStop, .-sduStop
 747              		.section	.text.sduSuspendHookI,"ax",%progbits
 748              		.align	1
 749              		.global	sduSuspendHookI
 750              		.syntax unified
 751              		.thumb
 752              		.thumb_func
 753              		.fpu fpv4-sp-d16
 754              		.type	sduSuspendHookI, %function
 755              	sduSuspendHookI:
 756              	.LFB339:
 757              		.loc 1 310 0
 758              		.cfi_startproc
 759              		@ args = 0, pretend = 0, frame = 0
 760              		@ frame_needed = 0, uses_anonymous_args = 0
 761              	.LVL70:
 762 0000 38B5     		push	{r3, r4, r5, lr}
 763              		.cfi_def_cfa_offset 16
 764              		.cfi_offset 3, -16
 765              		.cfi_offset 4, -12
 766              		.cfi_offset 5, -8
 767              		.cfi_offset 14, -4
 768              		.loc 1 313 0
 769 0002 037D     		ldrb	r3, [r0, #20]	@ zero_extendqisi2
 770              		.loc 1 310 0
 771 0004 0446     		mov	r4, r0
 772              		.loc 1 313 0
 773 0006 13B1     		cbz	r3, .L35
 774              		.loc 1 313 0 is_stmt 0 discriminator 1
 775 0008 90F84C30 		ldrb	r3, [r0, #76]	@ zero_extendqisi2
 776 000c ABB9     		cbnz	r3, .L34
 777              	.L35:
 778              	.LVL71:
 779              	.LBB150:
 780              	.LBB151:
 781              		.loc 5 895 0 is_stmt 1
 782 000e 201D     		adds	r0, r4, #4
 783              	.LVL72:
 784              	.LBE151:
 785              	.LBE150:
 786              		.loc 1 317 0
 787 0010 0125     		movs	r5, #1
 788              	.LBB153:
 789              	.LBB152:
 790              		.loc 5 895 0
 791 0012 0221     		movs	r1, #2
 792 0014 FFF7FEFF 		bl	chEvtBroadcastFlagsI
 793              	.LVL73:
 794              	.LBE152:
 795              	.LBE153:
 796              	.LBB154:
 797              	.LBB155:
 798              		.loc 5 857 0
ARM GAS  /tmp/ccmTpnC0.s 			page 15


 799 0018 04F10C00 		add	r0, r4, #12
 800              	.LBE155:
 801              	.LBE154:
 802              		.loc 1 317 0
 803 001c 2575     		strb	r5, [r4, #20]
 804              	.LVL74:
 805              	.LBB157:
 806              	.LBB156:
 807              		.loc 5 857 0
 808 001e 6FF00101 		mvn	r1, #1
 809 0022 FFF7FEFF 		bl	chThdDequeueAllI
 810              	.LVL75:
 811              	.LBE156:
 812              	.LBE157:
 813              		.loc 1 318 0
 814 0026 84F84C50 		strb	r5, [r4, #76]
 815              	.LVL76:
 816              	.LBB158:
 817              	.LBB159:
 818              		.loc 5 857 0
 819 002a 04F14400 		add	r0, r4, #68
 820              	.LVL77:
 821 002e 6FF00101 		mvn	r1, #1
 822              	.LBE159:
 823              	.LBE158:
 824              		.loc 1 319 0
 825 0032 BDE83840 		pop	{r3, r4, r5, lr}
 826              		.cfi_remember_state
 827              		.cfi_restore 14
 828              		.cfi_restore 5
 829              		.cfi_restore 4
 830              		.cfi_restore 3
 831              		.cfi_def_cfa_offset 0
 832              	.LVL78:
 833              	.LBB161:
 834              	.LBB160:
 835              		.loc 5 857 0
 836 0036 FFF7FEBF 		b	chThdDequeueAllI
 837              	.LVL79:
 838              	.L34:
 839              		.cfi_restore_state
 840 003a 38BD     		pop	{r3, r4, r5, pc}
 841              	.LBE160:
 842              	.LBE161:
 843              		.cfi_endproc
 844              	.LFE339:
 845              		.size	sduSuspendHookI, .-sduSuspendHookI
 846              		.section	.text.sduWakeupHookI,"ax",%progbits
 847              		.align	1
 848              		.global	sduWakeupHookI
 849              		.syntax unified
 850              		.thumb
 851              		.thumb_func
 852              		.fpu fpv4-sp-d16
 853              		.type	sduWakeupHookI, %function
 854              	sduWakeupHookI:
 855              	.LFB340:
ARM GAS  /tmp/ccmTpnC0.s 			page 16


 856              		.loc 1 333 0
 857              		.cfi_startproc
 858              		@ args = 0, pretend = 0, frame = 0
 859              		@ frame_needed = 0, uses_anonymous_args = 0
 860              	.LVL80:
 861 0000 10B5     		push	{r4, lr}
 862              		.cfi_def_cfa_offset 8
 863              		.cfi_offset 4, -8
 864              		.cfi_offset 14, -4
 865              	.LBB162:
 866              	.LBB163:
 867              		.loc 5 895 0
 868 0002 0121     		movs	r1, #1
 869              	.LBE163:
 870              	.LBE162:
 871              		.loc 1 333 0
 872 0004 0446     		mov	r4, r0
 873              	.LBB165:
 874              	.LBB164:
 875              		.loc 5 895 0
 876 0006 0430     		adds	r0, r0, #4
 877              	.LVL81:
 878 0008 FFF7FEFF 		bl	chEvtBroadcastFlagsI
 879              	.LVL82:
 880              	.LBE164:
 881              	.LBE165:
 882              		.loc 1 336 0
 883 000c 0023     		movs	r3, #0
 884 000e 2375     		strb	r3, [r4, #20]
 885              		.loc 1 337 0
 886 0010 84F84C30 		strb	r3, [r4, #76]
 887 0014 10BD     		pop	{r4, pc}
 888              		.cfi_endproc
 889              	.LFE340:
 890              		.size	sduWakeupHookI, .-sduWakeupHookI
 891              		.section	.text.sduConfigureHookI,"ax",%progbits
 892              		.align	1
 893              		.global	sduConfigureHookI
 894              		.syntax unified
 895              		.thumb
 896              		.thumb_func
 897              		.fpu fpv4-sp-d16
 898              		.type	sduConfigureHookI, %function
 899              	sduConfigureHookI:
 900              	.LFB341:
 901              		.loc 1 347 0
 902              		.cfi_startproc
 903              		@ args = 0, pretend = 0, frame = 0
 904              		@ frame_needed = 0, uses_anonymous_args = 0
 905              	.LVL83:
 906 0000 38B5     		push	{r3, r4, r5, lr}
 907              		.cfi_def_cfa_offset 16
 908              		.cfi_offset 3, -16
 909              		.cfi_offset 4, -12
 910              		.cfi_offset 5, -8
 911              		.cfi_offset 14, -4
 912              		.loc 1 347 0
ARM GAS  /tmp/ccmTpnC0.s 			page 17


 913 0002 0446     		mov	r4, r0
 914              		.loc 1 350 0
 915 0004 0025     		movs	r5, #0
 916              		.loc 1 349 0
 917 0006 0C30     		adds	r0, r0, #12
 918              	.LVL84:
 919 0008 FFF7FEFF 		bl	ibqResetI
 920              	.LVL85:
 921              		.loc 1 351 0
 922 000c 04F14400 		add	r0, r4, #68
 923              		.loc 1 350 0
 924 0010 2575     		strb	r5, [r4, #20]
 925              		.loc 1 351 0
 926 0012 FFF7FEFF 		bl	obqResetI
 927              	.LVL86:
 928              	.LBB166:
 929              	.LBB167:
 930              		.loc 5 895 0
 931 0016 201D     		adds	r0, r4, #4
 932              	.LBE167:
 933              	.LBE166:
 934              		.loc 1 352 0
 935 0018 84F84C50 		strb	r5, [r4, #76]
 936              	.LVL87:
 937              	.LBB169:
 938              	.LBB168:
 939              		.loc 5 895 0
 940 001c 0121     		movs	r1, #1
 941 001e FFF7FEFF 		bl	chEvtBroadcastFlagsI
 942              	.LVL88:
 943              	.LBE168:
 944              	.LBE169:
 945              		.loc 1 354 0
 946 0022 2046     		mov	r0, r4
 947              		.loc 1 355 0
 948 0024 BDE83840 		pop	{r3, r4, r5, lr}
 949              		.cfi_restore 14
 950              		.cfi_restore 5
 951              		.cfi_restore 4
 952              		.cfi_restore 3
 953              		.cfi_def_cfa_offset 0
 954              	.LVL89:
 955              		.loc 1 354 0
 956 0028 FFF7FEBF 		b	sdu_start_receive
 957              	.LVL90:
 958              		.cfi_endproc
 959              	.LFE341:
 960              		.size	sduConfigureHookI, .-sduConfigureHookI
 961              		.section	.text.sduRequestsHook,"ax",%progbits
 962              		.align	1
 963              		.global	sduRequestsHook
 964              		.syntax unified
 965              		.thumb
 966              		.thumb_func
 967              		.fpu fpv4-sp-d16
 968              		.type	sduRequestsHook, %function
 969              	sduRequestsHook:
ARM GAS  /tmp/ccmTpnC0.s 			page 18


 970              	.LFB342:
 971              		.loc 1 372 0
 972              		.cfi_startproc
 973              		@ args = 0, pretend = 0, frame = 0
 974              		@ frame_needed = 0, uses_anonymous_args = 0
 975              		@ link register save eliminated.
 976              	.LVL91:
 977              		.loc 1 374 0
 978 0000 90F84430 		ldrb	r3, [r0, #68]	@ zero_extendqisi2
 979 0004 03F06003 		and	r3, r3, #96
 980 0008 202B     		cmp	r3, #32
 981 000a 19D1     		bne	.L47
 982              		.loc 1 375 0
 983 000c 90F84520 		ldrb	r2, [r0, #69]	@ zero_extendqisi2
 984 0010 212A     		cmp	r2, #33
 985 0012 0AD0     		beq	.L44
 986 0014 222A     		cmp	r2, #34
 987 0016 4FF00003 		mov	r3, #0
 988 001a 0ED0     		beq	.L45
 989 001c 202A     		cmp	r2, #32
 990 001e 0FD1     		bne	.L47
 991              		.loc 1 380 0
 992 0020 084A     		ldr	r2, .L51
 993 0022 8263     		str	r2, [r0, #56]
 994 0024 0722     		movs	r2, #7
 995 0026 C263     		str	r2, [r0, #60]
 996 0028 04E0     		b	.L50
 997              	.L44:
 998              		.loc 1 377 0
 999 002a 064B     		ldr	r3, .L51
 1000 002c 8363     		str	r3, [r0, #56]
 1001 002e 0723     		movs	r3, #7
 1002 0030 C363     		str	r3, [r0, #60]
 1003 0032 0023     		movs	r3, #0
 1004              	.L50:
 1005              		.loc 1 384 0
 1006 0034 0364     		str	r3, [r0, #64]
 1007              		.loc 1 385 0
 1008 0036 0120     		movs	r0, #1
 1009              	.LVL92:
 1010 0038 7047     		bx	lr
 1011              	.LVL93:
 1012              	.L45:
 1013              		.loc 1 384 0
 1014 003a 8363     		str	r3, [r0, #56]
 1015 003c C363     		str	r3, [r0, #60]
 1016 003e F9E7     		b	.L50
 1017              	.L47:
 1018              		.loc 1 390 0
 1019 0040 0020     		movs	r0, #0
 1020              	.LVL94:
 1021 0042 7047     		bx	lr
 1022              	.L52:
 1023              		.align	2
 1024              	.L51:
 1025 0044 00000000 		.word	.LANCHOR1
 1026              		.cfi_endproc
ARM GAS  /tmp/ccmTpnC0.s 			page 19


 1027              	.LFE342:
 1028              		.size	sduRequestsHook, .-sduRequestsHook
 1029              		.section	.text.sduSOFHookI,"ax",%progbits
 1030              		.align	1
 1031              		.global	sduSOFHookI
 1032              		.syntax unified
 1033              		.thumb
 1034              		.thumb_func
 1035              		.fpu fpv4-sp-d16
 1036              		.type	sduSOFHookI, %function
 1037              	sduSOFHookI:
 1038              	.LFB343:
 1039              		.loc 1 402 0
 1040              		.cfi_startproc
 1041              		@ args = 0, pretend = 0, frame = 8
 1042              		@ frame_needed = 0, uses_anonymous_args = 0
 1043              	.LVL95:
 1044              		.loc 1 406 0
 1045 0000 D0F88C34 		ldr	r3, [r0, #1164]
 1046              		.loc 1 402 0
 1047 0004 37B5     		push	{r0, r1, r2, r4, r5, lr}
 1048              		.cfi_def_cfa_offset 24
 1049              		.cfi_offset 4, -12
 1050              		.cfi_offset 5, -8
 1051              		.cfi_offset 14, -4
 1052              		.loc 1 406 0
 1053 0006 1A68     		ldr	r2, [r3]
 1054 0008 1178     		ldrb	r1, [r2]	@ zero_extendqisi2
 1055 000a 0429     		cmp	r1, #4
 1056              		.loc 1 402 0
 1057 000c 0446     		mov	r4, r0
 1058              		.loc 1 406 0
 1059 000e 1AD1     		bne	.L53
 1060              		.loc 1 406 0 is_stmt 0 discriminator 1
 1061 0010 017A     		ldrb	r1, [r0, #8]	@ zero_extendqisi2
 1062 0012 0229     		cmp	r1, #2
 1063 0014 17D1     		bne	.L53
 1064              		.loc 1 413 0 is_stmt 1
 1065 0016 1979     		ldrb	r1, [r3, #4]	@ zero_extendqisi2
 1066 0018 1289     		ldrh	r2, [r2, #8]
 1067 001a 0123     		movs	r3, #1
 1068 001c 8B40     		lsls	r3, r3, r1
 1069 001e 1342     		tst	r3, r2
 1070 0020 11D1     		bne	.L53
 1071              		.loc 1 419 0
 1072 0022 00F14405 		add	r5, r0, #68
 1073 0026 2846     		mov	r0, r5
 1074              	.LVL96:
 1075 0028 FFF7FEFF 		bl	obqTryFlushI
 1076              	.LVL97:
 1077 002c 58B1     		cbz	r0, .L53
 1078              	.LBB170:
 1079              		.loc 1 421 0
 1080 002e 01A9     		add	r1, sp, #4
 1081 0030 2846     		mov	r0, r5
 1082 0032 FFF7FEFF 		bl	obqGetFullBufferI
 1083              	.LVL98:
ARM GAS  /tmp/ccmTpnC0.s 			page 20


 1084              		.loc 1 425 0
 1085 0036 D4F88C44 		ldr	r4, [r4, #1164]
 1086              	.LVL99:
 1087 003a 019B     		ldr	r3, [sp, #4]
 1088 003c 2179     		ldrb	r1, [r4, #4]	@ zero_extendqisi2
 1089 003e 0246     		mov	r2, r0
 1090 0040 2068     		ldr	r0, [r4]
 1091              	.LVL100:
 1092 0042 FFF7FEFF 		bl	usbStartTransmitI
 1093              	.LVL101:
 1094              	.L53:
 1095              	.LBE170:
 1096              		.loc 1 427 0
 1097 0046 03B0     		add	sp, sp, #12
 1098              		.cfi_def_cfa_offset 12
 1099              		@ sp needed
 1100 0048 30BD     		pop	{r4, r5, pc}
 1101              		.cfi_endproc
 1102              	.LFE343:
 1103              		.size	sduSOFHookI, .-sduSOFHookI
 1104              		.section	.text.sduDataTransmitted,"ax",%progbits
 1105              		.align	1
 1106              		.global	sduDataTransmitted
 1107              		.syntax unified
 1108              		.thumb
 1109              		.thumb_func
 1110              		.fpu fpv4-sp-d16
 1111              		.type	sduDataTransmitted, %function
 1112              	sduDataTransmitted:
 1113              	.LFB344:
 1114              		.loc 1 437 0
 1115              		.cfi_startproc
 1116              		@ args = 0, pretend = 0, frame = 8
 1117              		@ frame_needed = 0, uses_anonymous_args = 0
 1118              	.LVL102:
 1119              		.loc 1 440 0
 1120 0000 00EB8103 		add	r3, r0, r1, lsl #2
 1121              		.loc 1 437 0
 1122 0004 F7B5     		push	{r0, r1, r2, r4, r5, r6, r7, lr}
 1123              		.cfi_def_cfa_offset 32
 1124              		.cfi_offset 4, -20
 1125              		.cfi_offset 5, -16
 1126              		.cfi_offset 6, -12
 1127              		.cfi_offset 7, -8
 1128              		.cfi_offset 14, -4
 1129              		.loc 1 440 0
 1130 0006 9C69     		ldr	r4, [r3, #24]
 1131              	.LVL103:
 1132              		.loc 1 437 0
 1133 0008 0546     		mov	r5, r0
 1134 000a 0E46     		mov	r6, r1
 1135              		.loc 1 442 0
 1136 000c 14B3     		cbz	r4, .L60
 1137              	.LVL104:
 1138              	.LBB189:
 1139              	.LBB190:
 1140              	.LBB191:
ARM GAS  /tmp/ccmTpnC0.s 			page 21


 1141              	.LBB192:
 1142              	.LBB193:
 1143              	.LBB194:
 1144              	.LBB195:
 1145              		.loc 3 493 0
 1146 000e 2023     		movs	r3, #32
 1147              		.syntax unified
 1148              	@ 493 "../../modules/ChibiOS/os/common/ext/ARM/CMSIS/Core/Include/cmsis_gcc.h" 1
 1149 0010 83F31188 		MSR basepri, r3
 1150              	@ 0 "" 2
 1151              	.LVL105:
 1152              		.thumb
 1153              		.syntax unified
 1154 0014 05EB8607 		add	r7, r5, r6, lsl #2
 1155              	.LBE195:
 1156              	.LBE194:
 1157              	.LBE193:
 1158              	.LBE192:
 1159              		.loc 4 396 0
 1160 0018 FFF7FEFF 		bl	_stats_start_measure_crit_isr
 1161              	.LVL106:
 1162              	.LBE191:
 1163              	.LBE190:
 1164              	.LBE189:
 1165              	.LBB196:
 1166              	.LBB197:
 1167              		.loc 5 895 0
 1168 001c 201D     		adds	r0, r4, #4
 1169              	.LVL107:
 1170 001e 0821     		movs	r1, #8
 1171 0020 FFF7FEFF 		bl	chEvtBroadcastFlagsI
 1172              	.LVL108:
 1173              	.LBE197:
 1174              	.LBE196:
 1175              		.loc 1 452 0
 1176 0024 FB68     		ldr	r3, [r7, #12]
 1177 0026 5B69     		ldr	r3, [r3, #20]
 1178 0028 1B68     		ldr	r3, [r3]
 1179 002a 4434     		adds	r4, r4, #68
 1180              	.LVL109:
 1181 002c 13B1     		cbz	r3, .L62
 1182              		.loc 1 453 0
 1183 002e 2046     		mov	r0, r4
 1184 0030 FFF7FEFF 		bl	obqReleaseEmptyBufferI
 1185              	.LVL110:
 1186              	.L62:
 1187              		.loc 1 457 0
 1188 0034 01A9     		add	r1, sp, #4
 1189 0036 2046     		mov	r0, r4
 1190 0038 FFF7FEFF 		bl	obqGetFullBufferI
 1191              	.LVL111:
 1192              		.loc 1 459 0
 1193 003c 0246     		mov	r2, r0
 1194 003e 58B1     		cbz	r0, .L63
 1195              		.loc 1 462 0
 1196 0040 019B     		ldr	r3, [sp, #4]
 1197              	.L75:
ARM GAS  /tmp/ccmTpnC0.s 			page 22


 1198              		.loc 1 471 0
 1199 0042 3146     		mov	r1, r6
 1200 0044 2846     		mov	r0, r5
 1201              	.LVL112:
 1202 0046 FFF7FEFF 		bl	usbStartTransmitI
 1203              	.LVL113:
 1204              	.L64:
 1205              	.LBB198:
 1206              	.LBB199:
 1207              	.LBB200:
 1208              		.loc 4 416 0
 1209 004a FFF7FEFF 		bl	_stats_stop_measure_crit_isr
 1210              	.LVL114:
 1211              	.LBB201:
 1212              	.LBB202:
 1213              	.LBB203:
 1214              	.LBB204:
 1215              		.loc 3 493 0
 1216 004e 0023     		movs	r3, #0
 1217              		.syntax unified
 1218              	@ 493 "../../modules/ChibiOS/os/common/ext/ARM/CMSIS/Core/Include/cmsis_gcc.h" 1
 1219 0050 83F31188 		MSR basepri, r3
 1220              	@ 0 "" 2
 1221              	.LVL115:
 1222              		.thumb
 1223              		.syntax unified
 1224              	.L60:
 1225              	.LBE204:
 1226              	.LBE203:
 1227              	.LBE202:
 1228              	.LBE201:
 1229              	.LBE200:
 1230              	.LBE199:
 1231              	.LBE198:
 1232              		.loc 1 479 0
 1233 0054 03B0     		add	sp, sp, #12
 1234              		.cfi_remember_state
 1235              		.cfi_def_cfa_offset 20
 1236              		@ sp needed
 1237 0056 F0BD     		pop	{r4, r5, r6, r7, pc}
 1238              	.LVL116:
 1239              	.L63:
 1240              		.cfi_restore_state
 1241              		.loc 1 464 0
 1242 0058 FB68     		ldr	r3, [r7, #12]
 1243 005a 5A69     		ldr	r2, [r3, #20]
 1244 005c 1268     		ldr	r2, [r2]
 1245 005e 002A     		cmp	r2, #0
 1246 0060 F3D0     		beq	.L64
 1247              		.loc 1 466 0 discriminator 1
 1248 0062 1B8A     		ldrh	r3, [r3, #16]
 1249 0064 013B     		subs	r3, r3, #1
 1250              		.loc 1 464 0 discriminator 1
 1251 0066 1340     		ands	r3, r3, r2
 1252 0068 EFD1     		bne	.L64
 1253              		.loc 1 471 0
 1254 006a 05F14402 		add	r2, r5, #68
ARM GAS  /tmp/ccmTpnC0.s 			page 23


 1255 006e E8E7     		b	.L75
 1256              		.cfi_endproc
 1257              	.LFE344:
 1258              		.size	sduDataTransmitted, .-sduDataTransmitted
 1259              		.section	.text.sduDataReceived,"ax",%progbits
 1260              		.align	1
 1261              		.global	sduDataReceived
 1262              		.syntax unified
 1263              		.thumb
 1264              		.thumb_func
 1265              		.fpu fpv4-sp-d16
 1266              		.type	sduDataReceived, %function
 1267              	sduDataReceived:
 1268              	.LFB345:
 1269              		.loc 1 489 0
 1270              		.cfi_startproc
 1271              		@ args = 0, pretend = 0, frame = 0
 1272              		@ frame_needed = 0, uses_anonymous_args = 0
 1273              	.LVL117:
 1274              		.loc 1 491 0
 1275 0000 0931     		adds	r1, r1, #9
 1276              	.LVL118:
 1277              		.loc 1 489 0
 1278 0002 38B5     		push	{r3, r4, r5, lr}
 1279              		.cfi_def_cfa_offset 16
 1280              		.cfi_offset 3, -16
 1281              		.cfi_offset 4, -12
 1282              		.cfi_offset 5, -8
 1283              		.cfi_offset 14, -4
 1284              		.loc 1 491 0
 1285 0004 50F82140 		ldr	r4, [r0, r1, lsl #2]
 1286              	.LVL119:
 1287              		.loc 1 493 0
 1288 0008 FCB1     		cbz	r4, .L76
 1289              	.LVL120:
 1290              	.LBB223:
 1291              	.LBB224:
 1292              	.LBB225:
 1293              	.LBB226:
 1294              	.LBB227:
 1295              	.LBB228:
 1296              	.LBB229:
 1297              		.loc 3 493 0
 1298 000a 2023     		movs	r3, #32
 1299              		.syntax unified
 1300              	@ 493 "../../modules/ChibiOS/os/common/ext/ARM/CMSIS/Core/Include/cmsis_gcc.h" 1
 1301 000c 83F31188 		MSR basepri, r3
 1302              	@ 0 "" 2
 1303              	.LVL121:
 1304              		.thumb
 1305              		.syntax unified
 1306              	.LBE229:
 1307              	.LBE228:
 1308              	.LBE227:
 1309              	.LBE226:
 1310              		.loc 4 396 0
 1311 0010 FFF7FEFF 		bl	_stats_start_measure_crit_isr
ARM GAS  /tmp/ccmTpnC0.s 			page 24


 1312              	.LVL122:
 1313              	.LBE225:
 1314              	.LBE224:
 1315              	.LBE223:
 1316              		.loc 1 500 0
 1317 0014 D4F88C24 		ldr	r2, [r4, #1164]
 1318 0018 1368     		ldr	r3, [r2]
 1319 001a 5279     		ldrb	r2, [r2, #5]	@ zero_extendqisi2
 1320 001c 03EB8203 		add	r3, r3, r2, lsl #2
 1321 0020 DB68     		ldr	r3, [r3, #12]
 1322 0022 9B69     		ldr	r3, [r3, #24]
 1323 0024 5D68     		ldr	r5, [r3, #4]
 1324              	.LVL123:
 1325              		.loc 1 502 0
 1326 0026 45B1     		cbz	r5, .L78
 1327              	.LVL124:
 1328              	.LBB230:
 1329              	.LBB231:
 1330              		.loc 5 895 0
 1331 0028 0421     		movs	r1, #4
 1332 002a 6018     		adds	r0, r4, r1
 1333              	.LVL125:
 1334 002c FFF7FEFF 		bl	chEvtBroadcastFlagsI
 1335              	.LVL126:
 1336              	.LBE231:
 1337              	.LBE230:
 1338              		.loc 1 507 0
 1339 0030 2946     		mov	r1, r5
 1340 0032 04F10C00 		add	r0, r4, #12
 1341 0036 FFF7FEFF 		bl	ibqPostFullBufferI
 1342              	.LVL127:
 1343              	.L78:
 1344              		.loc 1 513 0
 1345 003a 2046     		mov	r0, r4
 1346 003c FFF7FEFF 		bl	sdu_start_receive
 1347              	.LVL128:
 1348              	.LBB232:
 1349              	.LBB233:
 1350              	.LBB234:
 1351              		.loc 4 416 0
 1352 0040 FFF7FEFF 		bl	_stats_stop_measure_crit_isr
 1353              	.LVL129:
 1354              	.LBB235:
 1355              	.LBB236:
 1356              	.LBB237:
 1357              	.LBB238:
 1358              		.loc 3 493 0
 1359 0044 0023     		movs	r3, #0
 1360              		.syntax unified
 1361              	@ 493 "../../modules/ChibiOS/os/common/ext/ARM/CMSIS/Core/Include/cmsis_gcc.h" 1
 1362 0046 83F31188 		MSR basepri, r3
 1363              	@ 0 "" 2
 1364              	.LVL130:
 1365              		.thumb
 1366              		.syntax unified
 1367              	.L76:
 1368 004a 38BD     		pop	{r3, r4, r5, pc}
ARM GAS  /tmp/ccmTpnC0.s 			page 25


 1369              	.LBE238:
 1370              	.LBE237:
 1371              	.LBE236:
 1372              	.LBE235:
 1373              	.LBE234:
 1374              	.LBE233:
 1375              	.LBE232:
 1376              		.cfi_endproc
 1377              	.LFE345:
 1378              		.size	sduDataReceived, .-sduDataReceived
 1379              		.section	.text.sduInterruptTransmitted,"ax",%progbits
 1380              		.align	1
 1381              		.global	sduInterruptTransmitted
 1382              		.syntax unified
 1383              		.thumb
 1384              		.thumb_func
 1385              		.fpu fpv4-sp-d16
 1386              		.type	sduInterruptTransmitted, %function
 1387              	sduInterruptTransmitted:
 1388              	.LFB346:
 1389              		.loc 1 526 0
 1390              		.cfi_startproc
 1391              		@ args = 0, pretend = 0, frame = 0
 1392              		@ frame_needed = 0, uses_anonymous_args = 0
 1393              		@ link register save eliminated.
 1394              	.LVL131:
 1395 0000 7047     		bx	lr
 1396              		.cfi_endproc
 1397              	.LFE346:
 1398              		.size	sduInterruptTransmitted, .-sduInterruptTransmitted
 1399              		.section	.text.sduControl,"ax",%progbits
 1400              		.align	1
 1401              		.global	sduControl
 1402              		.syntax unified
 1403              		.thumb
 1404              		.thumb_func
 1405              		.fpu fpv4-sp-d16
 1406              		.type	sduControl, %function
 1407              	sduControl:
 1408              	.LFB347:
 1409              		.loc 1 546 0
 1410              		.cfi_startproc
 1411              		@ args = 0, pretend = 0, frame = 0
 1412              		@ frame_needed = 0, uses_anonymous_args = 0
 1413              		@ link register save eliminated.
 1414              	.LVL132:
 1415              		.loc 1 549 0
 1416 0000 0020     		movs	r0, #0
 1417              	.LVL133:
 1418 0002 7047     		bx	lr
 1419              		.cfi_endproc
 1420              	.LFE347:
 1421              		.size	sduControl, .-sduControl
 1422              		.section	.data.linecoding,"aw",%progbits
 1423              		.set	.LANCHOR1,. + 0
 1424              		.type	linecoding, %object
 1425              		.size	linecoding, 7
ARM GAS  /tmp/ccmTpnC0.s 			page 26


 1426              	linecoding:
 1427 0000 00       		.byte	0
 1428 0001 96       		.byte	-106
 1429 0002 00       		.byte	0
 1430 0003 00       		.byte	0
 1431 0004 00       		.byte	0
 1432 0005 00       		.byte	0
 1433 0006 08       		.byte	8
 1434              		.section	.rodata.vmt,"a",%progbits
 1435              		.align	2
 1436              		.set	.LANCHOR0,. + 0
 1437              		.type	vmt, %object
 1438              		.size	vmt, 40
 1439              	vmt:
 1440 0000 00000000 		.word	0
 1441 0004 00000000 		.word	_write
 1442 0008 00000000 		.word	_read
 1443 000c 00000000 		.word	_put
 1444 0010 00000000 		.word	_get
 1445 0014 00000000 		.word	_putt
 1446 0018 00000000 		.word	_gett
 1447 001c 00000000 		.word	_writet
 1448 0020 00000000 		.word	_readt
 1449 0024 00000000 		.word	_ctl
 1450              		.text
 1451              	.Letext0:
 1452              		.file 6 "/opt/gcc-arm-none-eabi-6-2017-q2-update/lib/gcc/arm-none-eabi/6.3.1/include/stddef.h"
 1453              		.file 7 "/opt/gcc-arm-none-eabi-6-2017-q2-update/arm-none-eabi/include/machine/_default_types.h"
 1454              		.file 8 "/opt/gcc-arm-none-eabi-6-2017-q2-update/arm-none-eabi/include/sys/_stdint.h"
 1455              		.file 9 "/opt/gcc-arm-none-eabi-6-2017-q2-update/arm-none-eabi/include/stdint.h"
 1456              		.file 10 "../../modules/ChibiOS/os/common/ports/ARMCMx/compilers/GCC/chtypes.h"
 1457              		.file 11 "../../modules/ChibiOS/os/rt/include/chsystypes.h"
 1458              		.file 12 "../../modules/ChibiOS/os/rt/include/chschd.h"
 1459              		.file 13 "../../modules/ChibiOS/os/rt/include/chtime.h"
 1460              		.file 14 "../../modules/ChibiOS/os/common/ext/ARM/CMSIS/Core/Include/core_cm4.h"
 1461              		.file 15 "../../modules/ChibiOS/os/common/ext/ST/STM32F4xx/system_stm32f4xx.h"
 1462              		.file 16 "../../modules/ChibiOS/os/common/ext/ST/STM32F4xx/stm32f427xx.h"
 1463              		.file 17 "../../modules/ChibiOS/os/common/ports/ARMCMx/chcore.h"
 1464              		.file 18 "../../modules/ChibiOS/os/common/ports/ARMCMx/chcore_v7m.h"
 1465              		.file 19 "../../modules/ChibiOS/os/hal/ports/STM32/LLD/TIMv1/stm32_tim.h"
 1466              		.file 20 "../../modules/ChibiOS/os/rt/include/chtm.h"
 1467              		.file 21 "../../modules/ChibiOS/os/rt/include/chstats.h"
 1468              		.file 22 "../../modules/ChibiOS/os/rt/include/chsem.h"
 1469              		.file 23 "../../modules/ChibiOS/os/rt/include/chmtx.h"
 1470              		.file 24 "../../modules/ChibiOS/os/rt/include/chregistry.h"
 1471              		.file 25 "../../modules/ChibiOS/os/oslib/include/chmemcore.h"
 1472              		.file 26 "../../modules/ChibiOS/os/oslib/include/chmempools.h"
 1473              		.file 27 "../../modules/ChibiOS/os/oslib/include/chfactory.h"
 1474              		.file 28 "../../modules/ChibiOS/os/hal/ports/STM32/LLD/DMAv2/stm32_dma.h"
 1475              		.file 29 "../../modules/ChibiOS/os/hal/include/hal_ioblock.h"
 1476              		.file 30 "../../modules/ChibiOS/os/hal/include/hal_buffers.h"
 1477              		.file 31 "../../modules/ChibiOS/os/hal/include/hal_queues.h"
 1478              		.file 32 "../../modules/ChibiOS/os/hal/include/hal_pal.h"
 1479              		.file 33 "../../modules/ChibiOS/os/hal/ports/STM32/LLD/GPIOv2/stm32_gpio.h"
 1480              		.file 34 "../../modules/ChibiOS/os/hal/ports/STM32/LLD/GPIOv2/hal_pal_lld.h"
 1481              		.file 35 "../../modules/ChibiOS/os/hal/include/hal_adc.h"
 1482              		.file 36 "../../modules/ChibiOS/os/hal/ports/STM32/LLD/ADCv2/hal_adc_lld.h"
ARM GAS  /tmp/ccmTpnC0.s 			page 27


 1483              		.file 37 "../../modules/ChibiOS/os/hal/include/hal_i2c.h"
 1484              		.file 38 "../../modules/ChibiOS/os/hal/ports/STM32/LLD/I2Cv1/hal_i2c_lld.h"
 1485              		.file 39 "../../modules/ChibiOS/os/hal/include/hal_pwm.h"
 1486              		.file 40 "../../modules/ChibiOS/os/hal/ports/STM32/LLD/TIMv1/hal_pwm_lld.h"
 1487              		.file 41 "../../modules/ChibiOS/os/hal/include/hal_serial.h"
 1488              		.file 42 "../../modules/ChibiOS/os/hal/ports/STM32/LLD/USARTv1/hal_serial_lld.h"
 1489              		.file 43 "../../modules/ChibiOS/os/hal/include/hal_sdc.h"
 1490              		.file 44 "../../modules/ChibiOS/os/hal/ports/STM32/LLD/SDIOv1/hal_sdc_lld.h"
 1491              		.file 45 "../../modules/ChibiOS/os/hal/include/hal_spi.h"
 1492              		.file 46 "../../modules/ChibiOS/os/hal/ports/STM32/LLD/SPIv1/hal_spi_lld.h"
 1493              		.file 47 "../../modules/ChibiOS/os/hal/include/hal_usb.h"
 1494              		.file 48 "../../modules/ChibiOS/os/hal/ports/STM32/LLD/OTGv1/hal_usb_lld.h"
 1495              		.file 49 "../../modules/ChibiOS/os/hal/ports/STM32/LLD/OTGv1/stm32_otg.h"
 1496              		.file 50 "../../modules/ChibiOS/os/hal/include/hal_usb_cdc.h"
 1497              		.file 51 "../../modules/ChibiOS/os/hal/include/hal_serial_usb.h"
 1498              		.file 52 "../../modules/ChibiOS/os/rt/include/chthreads.h"