ARM GAS  /tmp/ccDt2b3x.s 			page 1


   1              		.syntax unified
   2              		.cpu cortex-m4
   3              		.eabi_attribute 27, 1
   4              		.eabi_attribute 28, 1
   5              		.fpu fpv4-sp-d16
   6              		.eabi_attribute 20, 1
   7              		.eabi_attribute 21, 1
   8              		.eabi_attribute 23, 3
   9              		.eabi_attribute 24, 1
  10              		.eabi_attribute 25, 1
  11              		.eabi_attribute 26, 1
  12              		.eabi_attribute 30, 4
  13              		.eabi_attribute 34, 1
  14              		.eabi_attribute 18, 4
  15              		.thumb
  16              		.file	"hal_i2c.c"
  17              		.text
  18              	.Ltext0:
  19              		.cfi_sections	.debug_frame
  20              		.section	.text.i2cInit,"ax",%progbits
  21              		.align	1
  22              		.global	i2cInit
  23              		.thumb
  24              		.thumb_func
  25              		.type	i2cInit, %function
  26              	i2cInit:
  27              	.LFB323:
  28              		.file 1 "../../modules/ChibiOS/os/hal/src/hal_i2c.c"
  29              		.loc 1 59 0
  30              		.cfi_startproc
  31              		@ args = 0, pretend = 0, frame = 0
  32              		@ frame_needed = 0, uses_anonymous_args = 0
  33              		@ link register save eliminated.
  34              		.loc 1 61 0
  35 0000 FFF7FEBF 		b	i2c_lld_init
  36              	.LVL0:
  37              		.cfi_endproc
  38              	.LFE323:
  39              		.size	i2cInit, .-i2cInit
  40              		.section	.text.i2cObjectInit,"ax",%progbits
  41              		.align	1
  42              		.global	i2cObjectInit
  43              		.thumb
  44              		.thumb_func
  45              		.type	i2cObjectInit, %function
  46              	i2cObjectInit:
  47              	.LFB324:
  48              		.loc 1 71 0
  49              		.cfi_startproc
  50              		@ args = 0, pretend = 0, frame = 0
  51              		@ frame_needed = 0, uses_anonymous_args = 0
  52              		@ link register save eliminated.
  53              	.LVL1:
  54              		.loc 1 73 0
  55 0000 0123     		movs	r3, #1
  56 0002 0370     		strb	r3, [r0]
  57              		.loc 1 74 0
ARM GAS  /tmp/ccDt2b3x.s 			page 2


  58 0004 0023     		movs	r3, #0
  59 0006 4360     		str	r3, [r0, #4]
  60              	.LVL2:
  61              	.LBB36:
  62              	.LBB37:
  63              		.file 2 "../../modules/ChibiOS/os/hal/osal/rt/osal.h"
  64              		.loc 2 974 0
  65 0008 0C30     		adds	r0, r0, #12
  66              	.LVL3:
  67 000a FFF7FEBF 		b	chMtxObjectInit
  68              	.LVL4:
  69              	.LBE37:
  70              	.LBE36:
  71              		.cfi_endproc
  72              	.LFE324:
  73              		.size	i2cObjectInit, .-i2cObjectInit
  74              		.section	.text.i2cStart,"ax",%progbits
  75              		.align	1
  76              		.global	i2cStart
  77              		.thumb
  78              		.thumb_func
  79              		.type	i2cStart, %function
  80              	i2cStart:
  81              	.LFB325:
  82              		.loc 1 93 0
  83              		.cfi_startproc
  84              		@ args = 0, pretend = 0, frame = 0
  85              		@ frame_needed = 0, uses_anonymous_args = 0
  86              	.LVL5:
  87 0000 38B5     		push	{r3, r4, r5, lr}
  88              		.cfi_def_cfa_offset 16
  89              		.cfi_offset 3, -16
  90              		.cfi_offset 4, -12
  91              		.cfi_offset 5, -8
  92              		.cfi_offset 14, -4
  93              		.loc 1 93 0
  94 0002 0446     		mov	r4, r0
  95 0004 0D46     		mov	r5, r1
  96              	.LBB52:
  97              	.LBB53:
  98              	.LBB54:
  99              	.LBB55:
 100              	.LBB56:
 101              	.LBB57:
 102              		.file 3 "../../modules/ChibiOS/os/common/ext/ARM/CMSIS/Core/Include/cmsis_gcc.h"
 103              		.loc 3 493 0
 104 0006 2023     		movs	r3, #32
 105              	@ 493 "../../modules/ChibiOS/os/common/ext/ARM/CMSIS/Core/Include/cmsis_gcc.h" 1
 106 0008 83F31188 		MSR basepri, r3
 107              	@ 0 "" 2
 108              		.thumb
 109              	.LBE57:
 110              	.LBE56:
 111              	.LBE55:
 112              		.file 4 "../../modules/ChibiOS/os/rt/include/chsys.h"
 113              		.loc 4 356 0
 114 000c FFF7FEFF 		bl	_stats_start_measure_crit_thd
ARM GAS  /tmp/ccDt2b3x.s 			page 3


 115              	.LVL6:
 116              	.LBE54:
 117              	.LBE53:
 118              	.LBE52:
 119              		.loc 1 101 0
 120 0010 2046     		mov	r0, r4
 121              		.loc 1 100 0
 122 0012 6560     		str	r5, [r4, #4]
 123              		.loc 1 101 0
 124 0014 FFF7FEFF 		bl	i2c_lld_start
 125              	.LVL7:
 126              		.loc 1 102 0
 127 0018 0223     		movs	r3, #2
 128 001a 2370     		strb	r3, [r4]
 129              	.LBB58:
 130              	.LBB59:
 131              	.LBB60:
 132              		.loc 4 368 0
 133 001c FFF7FEFF 		bl	_stats_stop_measure_crit_thd
 134              	.LVL8:
 135              	.LBB61:
 136              	.LBB62:
 137              	.LBB63:
 138              		.loc 3 493 0
 139 0020 0023     		movs	r3, #0
 140              	@ 493 "../../modules/ChibiOS/os/common/ext/ARM/CMSIS/Core/Include/cmsis_gcc.h" 1
 141 0022 83F31188 		MSR basepri, r3
 142              	@ 0 "" 2
 143              		.thumb
 144 0026 38BD     		pop	{r3, r4, r5, pc}
 145              	.LBE63:
 146              	.LBE62:
 147              	.LBE61:
 148              	.LBE60:
 149              	.LBE59:
 150              	.LBE58:
 151              		.cfi_endproc
 152              	.LFE325:
 153              		.size	i2cStart, .-i2cStart
 154              		.section	.text.i2cStop,"ax",%progbits
 155              		.align	1
 156              		.global	i2cStop
 157              		.thumb
 158              		.thumb_func
 159              		.type	i2cStop, %function
 160              	i2cStop:
 161              	.LFB326:
 162              		.loc 1 113 0
 163              		.cfi_startproc
 164              		@ args = 0, pretend = 0, frame = 0
 165              		@ frame_needed = 0, uses_anonymous_args = 0
 166              	.LVL9:
 167 0000 38B5     		push	{r3, r4, r5, lr}
 168              		.cfi_def_cfa_offset 16
 169              		.cfi_offset 3, -16
 170              		.cfi_offset 4, -12
 171              		.cfi_offset 5, -8
ARM GAS  /tmp/ccDt2b3x.s 			page 4


 172              		.cfi_offset 14, -4
 173              		.loc 1 113 0
 174 0002 0446     		mov	r4, r0
 175              	.LBB78:
 176              	.LBB79:
 177              	.LBB80:
 178              	.LBB81:
 179              	.LBB82:
 180              	.LBB83:
 181              		.loc 3 493 0
 182 0004 2023     		movs	r3, #32
 183              	@ 493 "../../modules/ChibiOS/os/common/ext/ARM/CMSIS/Core/Include/cmsis_gcc.h" 1
 184 0006 83F31188 		MSR basepri, r3
 185              	@ 0 "" 2
 186              		.thumb
 187              	.LBE83:
 188              	.LBE82:
 189              	.LBE81:
 190              		.loc 4 356 0
 191 000a FFF7FEFF 		bl	_stats_start_measure_crit_thd
 192              	.LVL10:
 193              	.LBE80:
 194              	.LBE79:
 195              	.LBE78:
 196              		.loc 1 122 0
 197 000e 2046     		mov	r0, r4
 198 0010 FFF7FEFF 		bl	i2c_lld_stop
 199              	.LVL11:
 200              		.loc 1 123 0
 201 0014 0025     		movs	r5, #0
 202              		.loc 1 124 0
 203 0016 0123     		movs	r3, #1
 204              		.loc 1 123 0
 205 0018 6560     		str	r5, [r4, #4]
 206              		.loc 1 124 0
 207 001a 2370     		strb	r3, [r4]
 208              	.LBB84:
 209              	.LBB85:
 210              	.LBB86:
 211              		.loc 4 368 0
 212 001c FFF7FEFF 		bl	_stats_stop_measure_crit_thd
 213              	.LVL12:
 214              	.LBB87:
 215              	.LBB88:
 216              	.LBB89:
 217              		.loc 3 493 0
 218              	@ 493 "../../modules/ChibiOS/os/common/ext/ARM/CMSIS/Core/Include/cmsis_gcc.h" 1
 219 0020 85F31188 		MSR basepri, r5
 220              	@ 0 "" 2
 221              		.thumb
 222 0024 38BD     		pop	{r3, r4, r5, pc}
 223              	.LBE89:
 224              	.LBE88:
 225              	.LBE87:
 226              	.LBE86:
 227              	.LBE85:
 228              	.LBE84:
ARM GAS  /tmp/ccDt2b3x.s 			page 5


 229              		.cfi_endproc
 230              	.LFE326:
 231              		.size	i2cStop, .-i2cStop
 232              		.section	.text.i2cGetErrors,"ax",%progbits
 233              		.align	1
 234              		.global	i2cGetErrors
 235              		.thumb
 236              		.thumb_func
 237              		.type	i2cGetErrors, %function
 238              	i2cGetErrors:
 239              	.LFB327:
 240              		.loc 1 137 0
 241              		.cfi_startproc
 242              		@ args = 0, pretend = 0, frame = 0
 243              		@ frame_needed = 0, uses_anonymous_args = 0
 244              		@ link register save eliminated.
 245              	.LVL13:
 246              		.loc 1 142 0
 247 0000 8068     		ldr	r0, [r0, #8]
 248              	.LVL14:
 249 0002 7047     		bx	lr
 250              		.cfi_endproc
 251              	.LFE327:
 252              		.size	i2cGetErrors, .-i2cGetErrors
 253              		.section	.text.i2cMasterTransmitTimeout,"ax",%progbits
 254              		.align	1
 255              		.global	i2cMasterTransmitTimeout
 256              		.thumb
 257              		.thumb_func
 258              		.type	i2cMasterTransmitTimeout, %function
 259              	i2cMasterTransmitTimeout:
 260              	.LFB328:
 261              		.loc 1 176 0
 262              		.cfi_startproc
 263              		@ args = 12, pretend = 0, frame = 0
 264              		@ frame_needed = 0, uses_anonymous_args = 0
 265              	.LVL15:
 266 0000 2DE9FF41 		push	{r0, r1, r2, r3, r4, r5, r6, r7, r8, lr}
 267              		.cfi_def_cfa_offset 40
 268              		.cfi_offset 4, -24
 269              		.cfi_offset 5, -20
 270              		.cfi_offset 6, -16
 271              		.cfi_offset 7, -12
 272              		.cfi_offset 8, -8
 273              		.cfi_offset 14, -4
 274              		.loc 1 176 0
 275 0004 1E46     		mov	r6, r3
 276 0006 0446     		mov	r4, r0
 277 0008 8846     		mov	r8, r1
 278 000a 1746     		mov	r7, r2
 279              	.LBB104:
 280              	.LBB105:
 281              	.LBB106:
 282              	.LBB107:
 283              	.LBB108:
 284              	.LBB109:
 285              		.loc 3 493 0
ARM GAS  /tmp/ccDt2b3x.s 			page 6


 286 000c 2023     		movs	r3, #32
 287              	.LVL16:
 288              	@ 493 "../../modules/ChibiOS/os/common/ext/ARM/CMSIS/Core/Include/cmsis_gcc.h" 1
 289 000e 83F31188 		MSR basepri, r3
 290              	@ 0 "" 2
 291              		.thumb
 292              	.LBE109:
 293              	.LBE108:
 294              	.LBE107:
 295              		.loc 4 356 0
 296 0012 FFF7FEFF 		bl	_stats_start_measure_crit_thd
 297              	.LVL17:
 298              	.LBE106:
 299              	.LBE105:
 300              	.LBE104:
 301              		.loc 1 188 0
 302 0016 0323     		movs	r3, #3
 303 0018 2370     		strb	r3, [r4]
 304              		.loc 1 189 0
 305 001a 0A9B     		ldr	r3, [sp, #40]
 306 001c 0093     		str	r3, [sp]
 307 001e 0B9B     		ldr	r3, [sp, #44]
 308 0020 0193     		str	r3, [sp, #4]
 309              		.loc 1 187 0
 310 0022 0025     		movs	r5, #0
 311              		.loc 1 189 0
 312 0024 0C9B     		ldr	r3, [sp, #48]
 313 0026 0293     		str	r3, [sp, #8]
 314 0028 4146     		mov	r1, r8
 315 002a 3A46     		mov	r2, r7
 316 002c 3346     		mov	r3, r6
 317              		.loc 1 187 0
 318 002e A560     		str	r5, [r4, #8]
 319              		.loc 1 189 0
 320 0030 2046     		mov	r0, r4
 321 0032 FFF7FEFF 		bl	i2c_lld_master_transmit_timeout
 322              	.LVL18:
 323              		.loc 1 191 0
 324 0036 431C     		adds	r3, r0, #1
 325              		.loc 1 192 0
 326 0038 0CBF     		ite	eq
 327 003a 0523     		moveq	r3, #5
 328              		.loc 1 195 0
 329 003c 0223     		movne	r3, #2
 330 003e 2370     		strb	r3, [r4]
 331              		.loc 1 189 0
 332 0040 0646     		mov	r6, r0
 333              	.LVL19:
 334              	.LBB110:
 335              	.LBB111:
 336              	.LBB112:
 337              		.loc 4 368 0
 338 0042 FFF7FEFF 		bl	_stats_stop_measure_crit_thd
 339              	.LVL20:
 340              	.LBB113:
 341              	.LBB114:
 342              	.LBB115:
ARM GAS  /tmp/ccDt2b3x.s 			page 7


 343              		.loc 3 493 0
 344              	@ 493 "../../modules/ChibiOS/os/common/ext/ARM/CMSIS/Core/Include/cmsis_gcc.h" 1
 345 0046 85F31188 		MSR basepri, r5
 346              	@ 0 "" 2
 347              		.thumb
 348              	.LBE115:
 349              	.LBE114:
 350              	.LBE113:
 351              	.LBE112:
 352              	.LBE111:
 353              	.LBE110:
 354              		.loc 1 199 0
 355 004a 3046     		mov	r0, r6
 356 004c 04B0     		add	sp, sp, #16
 357              		.cfi_def_cfa_offset 24
 358              		@ sp needed
 359 004e BDE8F081 		pop	{r4, r5, r6, r7, r8, pc}
 360              		.cfi_endproc
 361              	.LFE328:
 362              		.size	i2cMasterTransmitTimeout, .-i2cMasterTransmitTimeout
 363              		.section	.text.i2cMasterReceiveTimeout,"ax",%progbits
 364              		.align	1
 365              		.global	i2cMasterReceiveTimeout
 366              		.thumb
 367              		.thumb_func
 368              		.type	i2cMasterReceiveTimeout, %function
 369              	i2cMasterReceiveTimeout:
 370              	.LFB329:
 371              		.loc 1 225 0
 372              		.cfi_startproc
 373              		@ args = 4, pretend = 0, frame = 0
 374              		@ frame_needed = 0, uses_anonymous_args = 0
 375              	.LVL21:
 376 0000 2DE9F341 		push	{r0, r1, r4, r5, r6, r7, r8, lr}
 377              		.cfi_def_cfa_offset 32
 378              		.cfi_offset 4, -24
 379              		.cfi_offset 5, -20
 380              		.cfi_offset 6, -16
 381              		.cfi_offset 7, -12
 382              		.cfi_offset 8, -8
 383              		.cfi_offset 14, -4
 384              		.loc 1 225 0
 385 0004 1E46     		mov	r6, r3
 386 0006 0446     		mov	r4, r0
 387 0008 8846     		mov	r8, r1
 388 000a 1746     		mov	r7, r2
 389              	.LBB130:
 390              	.LBB131:
 391              	.LBB132:
 392              	.LBB133:
 393              	.LBB134:
 394              	.LBB135:
 395              		.loc 3 493 0
 396 000c 2023     		movs	r3, #32
 397              	.LVL22:
 398              	@ 493 "../../modules/ChibiOS/os/common/ext/ARM/CMSIS/Core/Include/cmsis_gcc.h" 1
 399 000e 83F31188 		MSR basepri, r3
ARM GAS  /tmp/ccDt2b3x.s 			page 8


 400              	@ 0 "" 2
 401              		.thumb
 402              	.LBE135:
 403              	.LBE134:
 404              	.LBE133:
 405              		.loc 4 356 0
 406 0012 FFF7FEFF 		bl	_stats_start_measure_crit_thd
 407              	.LVL23:
 408              	.LBE132:
 409              	.LBE131:
 410              	.LBE130:
 411              		.loc 1 237 0
 412 0016 0423     		movs	r3, #4
 413 0018 2370     		strb	r3, [r4]
 414              		.loc 1 236 0
 415 001a 0025     		movs	r5, #0
 416              		.loc 1 238 0
 417 001c 089B     		ldr	r3, [sp, #32]
 418 001e 0093     		str	r3, [sp]
 419 0020 4146     		mov	r1, r8
 420 0022 3A46     		mov	r2, r7
 421 0024 3346     		mov	r3, r6
 422              		.loc 1 236 0
 423 0026 A560     		str	r5, [r4, #8]
 424              		.loc 1 238 0
 425 0028 2046     		mov	r0, r4
 426 002a FFF7FEFF 		bl	i2c_lld_master_receive_timeout
 427              	.LVL24:
 428              		.loc 1 239 0
 429 002e 431C     		adds	r3, r0, #1
 430              		.loc 1 240 0
 431 0030 0CBF     		ite	eq
 432 0032 0523     		moveq	r3, #5
 433              		.loc 1 243 0
 434 0034 0223     		movne	r3, #2
 435 0036 2370     		strb	r3, [r4]
 436              		.loc 1 238 0
 437 0038 0646     		mov	r6, r0
 438              	.LVL25:
 439              	.LBB136:
 440              	.LBB137:
 441              	.LBB138:
 442              		.loc 4 368 0
 443 003a FFF7FEFF 		bl	_stats_stop_measure_crit_thd
 444              	.LVL26:
 445              	.LBB139:
 446              	.LBB140:
 447              	.LBB141:
 448              		.loc 3 493 0
 449              	@ 493 "../../modules/ChibiOS/os/common/ext/ARM/CMSIS/Core/Include/cmsis_gcc.h" 1
 450 003e 85F31188 		MSR basepri, r5
 451              	@ 0 "" 2
 452              		.thumb
 453              	.LBE141:
 454              	.LBE140:
 455              	.LBE139:
 456              	.LBE138:
ARM GAS  /tmp/ccDt2b3x.s 			page 9


 457              	.LBE137:
 458              	.LBE136:
 459              		.loc 1 247 0
 460 0042 3046     		mov	r0, r6
 461 0044 02B0     		add	sp, sp, #8
 462              		.cfi_def_cfa_offset 24
 463              		@ sp needed
 464 0046 BDE8F081 		pop	{r4, r5, r6, r7, r8, pc}
 465              		.cfi_endproc
 466              	.LFE329:
 467              		.size	i2cMasterReceiveTimeout, .-i2cMasterReceiveTimeout
 468              		.section	.text.i2cAcquireBus,"ax",%progbits
 469              		.align	1
 470              		.global	i2cAcquireBus
 471              		.thumb
 472              		.thumb_func
 473              		.type	i2cAcquireBus, %function
 474              	i2cAcquireBus:
 475              	.LFB330:
 476              		.loc 1 261 0
 477              		.cfi_startproc
 478              		@ args = 0, pretend = 0, frame = 0
 479              		@ frame_needed = 0, uses_anonymous_args = 0
 480              		@ link register save eliminated.
 481              	.LVL27:
 482              	.LBB142:
 483              	.LBB143:
 484              		.loc 2 994 0
 485 0000 0C30     		adds	r0, r0, #12
 486              	.LVL28:
 487 0002 FFF7FEBF 		b	chMtxLock
 488              	.LVL29:
 489              	.LBE143:
 490              	.LBE142:
 491              		.cfi_endproc
 492              	.LFE330:
 493              		.size	i2cAcquireBus, .-i2cAcquireBus
 494              		.section	.text.i2cReleaseBus,"ax",%progbits
 495              		.align	1
 496              		.global	i2cReleaseBus
 497              		.thumb
 498              		.thumb_func
 499              		.type	i2cReleaseBus, %function
 500              	i2cReleaseBus:
 501              	.LFB331:
 502              		.loc 1 277 0
 503              		.cfi_startproc
 504              		@ args = 0, pretend = 0, frame = 0
 505              		@ frame_needed = 0, uses_anonymous_args = 0
 506              		@ link register save eliminated.
 507              	.LVL30:
 508              	.LBB144:
 509              	.LBB145:
 510              		.loc 2 1018 0
 511 0000 0C30     		adds	r0, r0, #12
 512              	.LVL31:
 513 0002 FFF7FEBF 		b	chMtxUnlock
ARM GAS  /tmp/ccDt2b3x.s 			page 10


 514              	.LVL32:
 515              	.LBE145:
 516              	.LBE144:
 517              		.cfi_endproc
 518              	.LFE331:
 519              		.size	i2cReleaseBus, .-i2cReleaseBus
 520              		.text
 521              	.Letext0:
 522              		.file 5 "/opt/gcc-arm-none-eabi-4_9-2015q3/lib/gcc/arm-none-eabi/4.9.3/include/stddef.h"
 523              		.file 6 "/opt/gcc-arm-none-eabi-4_9-2015q3/arm-none-eabi/include/machine/_default_types.h"
 524              		.file 7 "/opt/gcc-arm-none-eabi-4_9-2015q3/arm-none-eabi/include/sys/_stdint.h"
 525              		.file 8 "../../modules/ChibiOS/os/common/ports/ARMCMx/compilers/GCC/chtypes.h"
 526              		.file 9 "../../modules/ChibiOS/os/rt/include/chsystypes.h"
 527              		.file 10 "../../modules/ChibiOS/os/rt/include/chschd.h"
 528              		.file 11 "../../modules/ChibiOS/os/rt/include/chtime.h"
 529              		.file 12 "../../modules/ChibiOS/os/common/ext/ST/STM32F4xx/stm32f427xx.h"
 530              		.file 13 "../../modules/ChibiOS/os/common/ports/ARMCMx/chcore.h"
 531              		.file 14 "../../modules/ChibiOS/os/common/ports/ARMCMx/chcore_v7m.h"
 532              		.file 15 "../../modules/ChibiOS/os/rt/include/chtm.h"
 533              		.file 16 "../../modules/ChibiOS/os/rt/include/chstats.h"
 534              		.file 17 "../../modules/ChibiOS/os/rt/include/chsem.h"
 535              		.file 18 "../../modules/ChibiOS/os/rt/include/chmtx.h"
 536              		.file 19 "../../modules/ChibiOS/os/hal/ports/STM32/LLD/DMAv2/stm32_dma.h"
 537              		.file 20 "../../modules/ChibiOS/os/hal/include/hal_i2c.h"
 538              		.file 21 "../../modules/ChibiOS/os/hal/ports/STM32/LLD/I2Cv1/hal_i2c_lld.h"
 539              		.file 22 "../../modules/ChibiOS/os/common/ext/ARM/CMSIS/Core/Include/core_cm4.h"
 540              		.section	.debug_info,"",%progbits
 541              	.Ldebug_info0:
 542 0000 71130000 		.4byte	0x1371
 543 0004 0400     		.2byte	0x4
 544 0006 00000000 		.4byte	.Ldebug_abbrev0
 545 000a 04       		.byte	0x4
 546 000b 01       		.uleb128 0x1
 547 000c 13060000 		.4byte	.LASF192
 548 0010 01       		.byte	0x1
 549 0011 A1040000 		.4byte	.LASF193
 550 0015 89020000 		.4byte	.LASF194
 551 0019 00000000 		.4byte	.Ldebug_ranges0+0
 552 001d 00000000 		.4byte	0
 553 0021 00000000 		.4byte	.Ldebug_line0
 554 0025 02       		.uleb128 0x2
 555 0026 04       		.byte	0x4
 556 0027 05       		.byte	0x5
 557 0028 696E7400 		.ascii	"int\000"
 558 002c 03       		.uleb128 0x3
 559 002d 36000000 		.4byte	.LASF2
 560 0031 05       		.byte	0x5
 561 0032 D4       		.byte	0xd4
 562 0033 37000000 		.4byte	0x37
 563 0037 04       		.uleb128 0x4
 564 0038 04       		.byte	0x4
 565 0039 07       		.byte	0x7
 566 003a 0D030000 		.4byte	.LASF0
 567 003e 04       		.uleb128 0x4
 568 003f 01       		.byte	0x1
 569 0040 06       		.byte	0x6
 570 0041 AA010000 		.4byte	.LASF1
ARM GAS  /tmp/ccDt2b3x.s 			page 11


 571 0045 03       		.uleb128 0x3
 572 0046 60000000 		.4byte	.LASF3
 573 004a 06       		.byte	0x6
 574 004b 1D       		.byte	0x1d
 575 004c 50000000 		.4byte	0x50
 576 0050 04       		.uleb128 0x4
 577 0051 01       		.byte	0x1
 578 0052 08       		.byte	0x8
 579 0053 05060000 		.4byte	.LASF4
 580 0057 04       		.uleb128 0x4
 581 0058 02       		.byte	0x2
 582 0059 05       		.byte	0x5
 583 005a 05040000 		.4byte	.LASF5
 584 005e 03       		.uleb128 0x3
 585 005f 32080000 		.4byte	.LASF6
 586 0063 06       		.byte	0x6
 587 0064 2B       		.byte	0x2b
 588 0065 69000000 		.4byte	0x69
 589 0069 04       		.uleb128 0x4
 590 006a 02       		.byte	0x2
 591 006b 07       		.byte	0x7
 592 006c 62030000 		.4byte	.LASF7
 593 0070 03       		.uleb128 0x3
 594 0071 0F040000 		.4byte	.LASF8
 595 0075 06       		.byte	0x6
 596 0076 3F       		.byte	0x3f
 597 0077 7B000000 		.4byte	0x7b
 598 007b 04       		.uleb128 0x4
 599 007c 04       		.byte	0x4
 600 007d 05       		.byte	0x5
 601 007e 21020000 		.4byte	.LASF9
 602 0082 03       		.uleb128 0x3
 603 0083 6B020000 		.4byte	.LASF10
 604 0087 06       		.byte	0x6
 605 0088 41       		.byte	0x41
 606 0089 8D000000 		.4byte	0x8d
 607 008d 04       		.uleb128 0x4
 608 008e 04       		.byte	0x4
 609 008f 07       		.byte	0x7
 610 0090 F7070000 		.4byte	.LASF11
 611 0094 04       		.uleb128 0x4
 612 0095 08       		.byte	0x8
 613 0096 05       		.byte	0x5
 614 0097 EB020000 		.4byte	.LASF12
 615 009b 03       		.uleb128 0x3
 616 009c 4D050000 		.4byte	.LASF13
 617 00a0 06       		.byte	0x6
 618 00a1 5B       		.byte	0x5b
 619 00a2 A6000000 		.4byte	0xa6
 620 00a6 04       		.uleb128 0x4
 621 00a7 08       		.byte	0x8
 622 00a8 07       		.byte	0x7
 623 00a9 F3000000 		.4byte	.LASF14
 624 00ad 03       		.uleb128 0x3
 625 00ae 05090000 		.4byte	.LASF15
 626 00b2 07       		.byte	0x7
 627 00b3 14       		.byte	0x14
ARM GAS  /tmp/ccDt2b3x.s 			page 12


 628 00b4 45000000 		.4byte	0x45
 629 00b8 03       		.uleb128 0x3
 630 00b9 D7030000 		.4byte	.LASF16
 631 00bd 07       		.byte	0x7
 632 00be 1A       		.byte	0x1a
 633 00bf 5E000000 		.4byte	0x5e
 634 00c3 03       		.uleb128 0x3
 635 00c4 FD050000 		.4byte	.LASF17
 636 00c8 07       		.byte	0x7
 637 00c9 1F       		.byte	0x1f
 638 00ca 70000000 		.4byte	0x70
 639 00ce 03       		.uleb128 0x3
 640 00cf C3070000 		.4byte	.LASF18
 641 00d3 07       		.byte	0x7
 642 00d4 20       		.byte	0x20
 643 00d5 82000000 		.4byte	0x82
 644 00d9 03       		.uleb128 0x3
 645 00da 4A000000 		.4byte	.LASF19
 646 00de 07       		.byte	0x7
 647 00df 26       		.byte	0x26
 648 00e0 9B000000 		.4byte	0x9b
 649 00e4 03       		.uleb128 0x3
 650 00e5 CB080000 		.4byte	.LASF20
 651 00e9 08       		.byte	0x8
 652 00ea 27       		.byte	0x27
 653 00eb CE000000 		.4byte	0xce
 654 00ef 03       		.uleb128 0x3
 655 00f0 56010000 		.4byte	.LASF21
 656 00f4 08       		.byte	0x8
 657 00f5 28       		.byte	0x28
 658 00f6 D9000000 		.4byte	0xd9
 659 00fa 03       		.uleb128 0x3
 660 00fb CF030000 		.4byte	.LASF22
 661 00ff 08       		.byte	0x8
 662 0100 2A       		.byte	0x2a
 663 0101 AD000000 		.4byte	0xad
 664 0105 03       		.uleb128 0x3
 665 0106 2A020000 		.4byte	.LASF23
 666 010a 08       		.byte	0x8
 667 010b 2B       		.byte	0x2b
 668 010c AD000000 		.4byte	0xad
 669 0110 03       		.uleb128 0x3
 670 0111 69050000 		.4byte	.LASF24
 671 0115 08       		.byte	0x8
 672 0116 2C       		.byte	0x2c
 673 0117 AD000000 		.4byte	0xad
 674 011b 03       		.uleb128 0x3
 675 011c C7050000 		.4byte	.LASF25
 676 0120 08       		.byte	0x8
 677 0121 2E       		.byte	0x2e
 678 0122 CE000000 		.4byte	0xce
 679 0126 03       		.uleb128 0x3
 680 0127 A8030000 		.4byte	.LASF26
 681 012b 08       		.byte	0x8
 682 012c 2F       		.byte	0x2f
 683 012d C3000000 		.4byte	0xc3
 684 0131 03       		.uleb128 0x3
ARM GAS  /tmp/ccDt2b3x.s 			page 13


 685 0132 F9030000 		.4byte	.LASF27
 686 0136 08       		.byte	0x8
 687 0137 31       		.byte	0x31
 688 0138 CE000000 		.4byte	0xce
 689 013c 03       		.uleb128 0x3
 690 013d 07030000 		.4byte	.LASF28
 691 0141 08       		.byte	0x8
 692 0142 33       		.byte	0x33
 693 0143 C3000000 		.4byte	0xc3
 694 0147 03       		.uleb128 0x3
 695 0148 B3030000 		.4byte	.LASF29
 696 014c 08       		.byte	0x8
 697 014d 34       		.byte	0x34
 698 014e CE000000 		.4byte	0xce
 699 0152 03       		.uleb128 0x3
 700 0153 3D080000 		.4byte	.LASF30
 701 0157 09       		.byte	0x9
 702 0158 34       		.byte	0x34
 703 0159 5D010000 		.4byte	0x15d
 704 015d 05       		.uleb128 0x5
 705 015e 8E030000 		.4byte	.LASF49
 706 0162 60       		.byte	0x60
 707 0163 0A       		.byte	0xa
 708 0164 8E       		.byte	0x8e
 709 0165 48020000 		.4byte	0x248
 710 0169 06       		.uleb128 0x6
 711 016a 42030000 		.4byte	.LASF31
 712 016e 0A       		.byte	0xa
 713 016f 8F       		.byte	0x8f
 714 0170 7D020000 		.4byte	0x27d
 715 0174 00       		.byte	0
 716 0175 06       		.uleb128 0x6
 717 0176 38050000 		.4byte	.LASF32
 718 017a 0A       		.byte	0xa
 719 017b 90       		.byte	0x90
 720 017c 1B010000 		.4byte	0x11b
 721 0180 08       		.byte	0x8
 722 0181 07       		.uleb128 0x7
 723 0182 63747800 		.ascii	"ctx\000"
 724 0186 0A       		.byte	0xa
 725 0187 91       		.byte	0x91
 726 0188 97050000 		.4byte	0x597
 727 018c 0C       		.byte	0xc
 728 018d 06       		.uleb128 0x6
 729 018e 63050000 		.4byte	.LASF33
 730 0192 0A       		.byte	0xa
 731 0193 93       		.byte	0x93
 732 0194 53020000 		.4byte	0x253
 733 0198 10       		.byte	0x10
 734 0199 06       		.uleb128 0x6
 735 019a 15080000 		.4byte	.LASF34
 736 019e 0A       		.byte	0xa
 737 019f 94       		.byte	0x94
 738 01a0 53020000 		.4byte	0x253
 739 01a4 14       		.byte	0x14
 740 01a5 06       		.uleb128 0x6
 741 01a6 A3030000 		.4byte	.LASF35
ARM GAS  /tmp/ccDt2b3x.s 			page 14


 742 01aa 0A       		.byte	0xa
 743 01ab 9B       		.byte	0x9b
 744 01ac 7D080000 		.4byte	0x87d
 745 01b0 18       		.byte	0x18
 746 01b1 06       		.uleb128 0x6
 747 01b2 09080000 		.4byte	.LASF36
 748 01b6 0A       		.byte	0xa
 749 01b7 A4       		.byte	0xa4
 750 01b8 8F080000 		.4byte	0x88f
 751 01bc 1C       		.byte	0x1c
 752 01bd 06       		.uleb128 0x6
 753 01be 1B020000 		.4byte	.LASF37
 754 01c2 0A       		.byte	0xa
 755 01c3 A9       		.byte	0xa9
 756 01c4 05010000 		.4byte	0x105
 757 01c8 20       		.byte	0x20
 758 01c9 06       		.uleb128 0x6
 759 01ca 17090000 		.4byte	.LASF38
 760 01ce 0A       		.byte	0xa
 761 01cf AD       		.byte	0xad
 762 01d0 FA000000 		.4byte	0xfa
 763 01d4 21       		.byte	0x21
 764 01d5 06       		.uleb128 0x6
 765 01d6 91050000 		.4byte	.LASF39
 766 01da 0A       		.byte	0xa
 767 01db B2       		.byte	0xb2
 768 01dc 10010000 		.4byte	0x110
 769 01e0 22       		.byte	0x22
 770 01e1 08       		.uleb128 0x8
 771 01e2 7500     		.ascii	"u\000"
 772 01e4 0A       		.byte	0xa
 773 01e5 0301     		.2byte	0x103
 774 01e7 B3070000 		.4byte	0x7b3
 775 01eb 24       		.byte	0x24
 776 01ec 09       		.uleb128 0x9
 777 01ed CD020000 		.4byte	.LASF40
 778 01f1 0A       		.byte	0xa
 779 01f2 0801     		.2byte	0x108
 780 01f4 59020000 		.4byte	0x259
 781 01f8 28       		.byte	0x28
 782 01f9 09       		.uleb128 0x9
 783 01fa 08020000 		.4byte	.LASF41
 784 01fe 0A       		.byte	0xa
 785 01ff 0E01     		.2byte	0x10e
 786 0201 7D020000 		.4byte	0x27d
 787 0205 2C       		.byte	0x2c
 788 0206 09       		.uleb128 0x9
 789 0207 BA030000 		.4byte	.LASF42
 790 020b 0A       		.byte	0xa
 791 020c 1401     		.2byte	0x114
 792 020e 31010000 		.4byte	0x131
 793 0212 34       		.byte	0x34
 794 0213 09       		.uleb128 0x9
 795 0214 8E090000 		.4byte	.LASF43
 796 0218 0A       		.byte	0xa
 797 0219 1B01     		.2byte	0x11b
 798 021b 77080000 		.4byte	0x877
ARM GAS  /tmp/ccDt2b3x.s 			page 15


 799 021f 38       		.byte	0x38
 800 0220 09       		.uleb128 0x9
 801 0221 31040000 		.4byte	.LASF44
 802 0225 0A       		.byte	0xa
 803 0226 1F01     		.2byte	0x11f
 804 0228 1B010000 		.4byte	0x11b
 805 022c 3C       		.byte	0x3c
 806 022d 09       		.uleb128 0x9
 807 022e 48030000 		.4byte	.LASF45
 808 0232 0A       		.byte	0xa
 809 0233 2601     		.2byte	0x126
 810 0235 30030000 		.4byte	0x330
 811 0239 40       		.byte	0x40
 812 023a 09       		.uleb128 0x9
 813 023b 38020000 		.4byte	.LASF46
 814 023f 0A       		.byte	0xa
 815 0240 2C01     		.2byte	0x12c
 816 0242 64070000 		.4byte	0x764
 817 0246 48       		.byte	0x48
 818 0247 00       		.byte	0
 819 0248 03       		.uleb128 0x3
 820 0249 6E040000 		.4byte	.LASF47
 821 024d 09       		.byte	0x9
 822 024e 39       		.byte	0x39
 823 024f 53020000 		.4byte	0x253
 824 0253 0A       		.uleb128 0xa
 825 0254 04       		.byte	0x4
 826 0255 52010000 		.4byte	0x152
 827 0259 03       		.uleb128 0x3
 828 025a 3C090000 		.4byte	.LASF48
 829 025e 09       		.byte	0x9
 830 025f 3E       		.byte	0x3e
 831 0260 64020000 		.4byte	0x264
 832 0264 05       		.uleb128 0x5
 833 0265 D3070000 		.4byte	.LASF50
 834 0269 04       		.byte	0x4
 835 026a 0A       		.byte	0xa
 836 026b 7C       		.byte	0x7c
 837 026c 7D020000 		.4byte	0x27d
 838 0270 06       		.uleb128 0x6
 839 0271 51010000 		.4byte	.LASF51
 840 0275 0A       		.byte	0xa
 841 0276 7D       		.byte	0x7d
 842 0277 53020000 		.4byte	0x253
 843 027b 00       		.byte	0
 844 027c 00       		.byte	0
 845 027d 03       		.uleb128 0x3
 846 027e E2080000 		.4byte	.LASF52
 847 0282 09       		.byte	0x9
 848 0283 45       		.byte	0x45
 849 0284 88020000 		.4byte	0x288
 850 0288 05       		.uleb128 0x5
 851 0289 84000000 		.4byte	.LASF53
 852 028d 08       		.byte	0x8
 853 028e 0A       		.byte	0xa
 854 028f 83       		.byte	0x83
 855 0290 AD020000 		.4byte	0x2ad
ARM GAS  /tmp/ccDt2b3x.s 			page 16


 856 0294 06       		.uleb128 0x6
 857 0295 51010000 		.4byte	.LASF51
 858 0299 0A       		.byte	0xa
 859 029a 84       		.byte	0x84
 860 029b 53020000 		.4byte	0x253
 861 029f 00       		.byte	0
 862 02a0 06       		.uleb128 0x6
 863 02a1 73000000 		.4byte	.LASF54
 864 02a5 0A       		.byte	0xa
 865 02a6 85       		.byte	0x85
 866 02a7 53020000 		.4byte	0x253
 867 02ab 04       		.byte	0x4
 868 02ac 00       		.byte	0
 869 02ad 03       		.uleb128 0x3
 870 02ae 24000000 		.4byte	.LASF55
 871 02b2 09       		.byte	0x9
 872 02b3 4C       		.byte	0x4c
 873 02b4 B8020000 		.4byte	0x2b8
 874 02b8 0B       		.uleb128 0xb
 875 02b9 EB030000 		.4byte	.LASF56
 876 02bd 1C       		.byte	0x1c
 877 02be 0A       		.byte	0xa
 878 02bf 5E01     		.2byte	0x15e
 879 02c1 14030000 		.4byte	0x314
 880 02c5 09       		.uleb128 0x9
 881 02c6 42030000 		.4byte	.LASF31
 882 02ca 0A       		.byte	0xa
 883 02cb 5F01     		.2byte	0x15f
 884 02cd 7D020000 		.4byte	0x27d
 885 02d1 00       		.byte	0
 886 02d2 09       		.uleb128 0x9
 887 02d3 38050000 		.4byte	.LASF32
 888 02d7 0A       		.byte	0xa
 889 02d8 6001     		.2byte	0x160
 890 02da 1B010000 		.4byte	0x11b
 891 02de 08       		.byte	0x8
 892 02df 08       		.uleb128 0x8
 893 02e0 63747800 		.ascii	"ctx\000"
 894 02e4 0A       		.byte	0xa
 895 02e5 6201     		.2byte	0x162
 896 02e7 97050000 		.4byte	0x597
 897 02eb 0C       		.byte	0xc
 898 02ec 09       		.uleb128 0x9
 899 02ed 63050000 		.4byte	.LASF33
 900 02f1 0A       		.byte	0xa
 901 02f2 6501     		.2byte	0x165
 902 02f4 53020000 		.4byte	0x253
 903 02f8 10       		.byte	0x10
 904 02f9 09       		.uleb128 0x9
 905 02fa 15080000 		.4byte	.LASF34
 906 02fe 0A       		.byte	0xa
 907 02ff 6601     		.2byte	0x166
 908 0301 53020000 		.4byte	0x253
 909 0305 14       		.byte	0x14
 910 0306 09       		.uleb128 0x9
 911 0307 45050000 		.4byte	.LASF57
 912 030b 0A       		.byte	0xa
ARM GAS  /tmp/ccDt2b3x.s 			page 17


 913 030c 6901     		.2byte	0x169
 914 030e 53020000 		.4byte	0x253
 915 0312 18       		.byte	0x18
 916 0313 00       		.byte	0
 917 0314 03       		.uleb128 0x3
 918 0315 55080000 		.4byte	.LASF58
 919 0319 09       		.byte	0x9
 920 031a 51       		.byte	0x51
 921 031b 1F030000 		.4byte	0x31f
 922 031f 0A       		.uleb128 0xa
 923 0320 04       		.byte	0x4
 924 0321 25030000 		.4byte	0x325
 925 0325 0C       		.uleb128 0xc
 926 0326 30030000 		.4byte	0x330
 927 032a 0D       		.uleb128 0xd
 928 032b 30030000 		.4byte	0x330
 929 032f 00       		.byte	0
 930 0330 0E       		.uleb128 0xe
 931 0331 04       		.byte	0x4
 932 0332 03       		.uleb128 0x3
 933 0333 96050000 		.4byte	.LASF59
 934 0337 09       		.byte	0x9
 935 0338 56       		.byte	0x56
 936 0339 3D030000 		.4byte	0x33d
 937 033d 0B       		.uleb128 0xb
 938 033e BA080000 		.4byte	.LASF60
 939 0342 14       		.byte	0x14
 940 0343 0A       		.byte	0xa
 941 0344 3901     		.2byte	0x139
 942 0346 8C030000 		.4byte	0x38c
 943 034a 09       		.uleb128 0x9
 944 034b 51010000 		.4byte	.LASF51
 945 034f 0A       		.byte	0xa
 946 0350 3A01     		.2byte	0x13a
 947 0352 95080000 		.4byte	0x895
 948 0356 00       		.byte	0
 949 0357 09       		.uleb128 0x9
 950 0358 73000000 		.4byte	.LASF54
 951 035c 0A       		.byte	0xa
 952 035d 3B01     		.2byte	0x13b
 953 035f 95080000 		.4byte	0x895
 954 0363 04       		.byte	0x4
 955 0364 09       		.uleb128 0x9
 956 0365 3D000000 		.4byte	.LASF61
 957 0369 0A       		.byte	0xa
 958 036a 3C01     		.2byte	0x13c
 959 036c 70040000 		.4byte	0x470
 960 0370 08       		.byte	0x8
 961 0371 09       		.uleb128 0x9
 962 0372 33020000 		.4byte	.LASF62
 963 0376 0A       		.byte	0xa
 964 0377 3D01     		.2byte	0x13d
 965 0379 14030000 		.4byte	0x314
 966 037d 0C       		.byte	0xc
 967 037e 08       		.uleb128 0x8
 968 037f 70617200 		.ascii	"par\000"
 969 0383 0A       		.byte	0xa
ARM GAS  /tmp/ccDt2b3x.s 			page 18


 970 0384 3F01     		.2byte	0x13f
 971 0386 30030000 		.4byte	0x330
 972 038a 10       		.byte	0x10
 973 038b 00       		.byte	0
 974 038c 03       		.uleb128 0x3
 975 038d 29010000 		.4byte	.LASF63
 976 0391 09       		.byte	0x9
 977 0392 5B       		.byte	0x5b
 978 0393 97030000 		.4byte	0x397
 979 0397 0B       		.uleb128 0xb
 980 0398 81040000 		.4byte	.LASF64
 981 039c 10       		.byte	0x10
 982 039d 0A       		.byte	0xa
 983 039e 4901     		.2byte	0x149
 984 03a0 D9030000 		.4byte	0x3d9
 985 03a4 09       		.uleb128 0x9
 986 03a5 51010000 		.4byte	.LASF51
 987 03a9 0A       		.byte	0xa
 988 03aa 4A01     		.2byte	0x14a
 989 03ac 95080000 		.4byte	0x895
 990 03b0 00       		.byte	0
 991 03b1 09       		.uleb128 0x9
 992 03b2 73000000 		.4byte	.LASF54
 993 03b6 0A       		.byte	0xa
 994 03b7 4C01     		.2byte	0x14c
 995 03b9 95080000 		.4byte	0x895
 996 03bd 04       		.byte	0x4
 997 03be 09       		.uleb128 0x9
 998 03bf 3D000000 		.4byte	.LASF61
 999 03c3 0A       		.byte	0xa
 1000 03c4 4E01     		.2byte	0x14e
 1001 03c6 70040000 		.4byte	0x470
 1002 03ca 08       		.byte	0x8
 1003 03cb 09       		.uleb128 0x9
 1004 03cc 3C070000 		.4byte	.LASF65
 1005 03d0 0A       		.byte	0xa
 1006 03d1 5601     		.2byte	0x156
 1007 03d3 65040000 		.4byte	0x465
 1008 03d7 0C       		.byte	0xc
 1009 03d8 00       		.byte	0
 1010 03d9 03       		.uleb128 0x3
 1011 03da 95000000 		.4byte	.LASF66
 1012 03de 09       		.byte	0x9
 1013 03df 60       		.byte	0x60
 1014 03e0 E4030000 		.4byte	0x3e4
 1015 03e4 0B       		.uleb128 0xb
 1016 03e5 5F090000 		.4byte	.LASF67
 1017 03e9 04       		.byte	0x4
 1018 03ea 0A       		.byte	0xa
 1019 03eb 7001     		.2byte	0x170
 1020 03ed FF030000 		.4byte	0x3ff
 1021 03f1 09       		.uleb128 0x9
 1022 03f2 7F080000 		.4byte	.LASF68
 1023 03f6 0A       		.byte	0xa
 1024 03f7 7801     		.2byte	0x178
 1025 03f9 9B080000 		.4byte	0x89b
 1026 03fd 00       		.byte	0
ARM GAS  /tmp/ccDt2b3x.s 			page 19


 1027 03fe 00       		.byte	0
 1028 03ff 03       		.uleb128 0x3
 1029 0400 C3030000 		.4byte	.LASF69
 1030 0404 09       		.byte	0x9
 1031 0405 65       		.byte	0x65
 1032 0406 0A040000 		.4byte	0x40a
 1033 040a 0B       		.uleb128 0xb
 1034 040b 59070000 		.4byte	.LASF70
 1035 040f D0       		.byte	0xd0
 1036 0410 0A       		.byte	0xa
 1037 0411 9001     		.2byte	0x190
 1038 0413 65040000 		.4byte	0x465
 1039 0417 09       		.uleb128 0x9
 1040 0418 FF080000 		.4byte	.LASF71
 1041 041c 0A       		.byte	0xa
 1042 041d 9401     		.2byte	0x194
 1043 041f AD020000 		.4byte	0x2ad
 1044 0423 00       		.byte	0
 1045 0424 09       		.uleb128 0x9
 1046 0425 F5010000 		.4byte	.LASF72
 1047 0429 0A       		.byte	0xa
 1048 042a 9801     		.2byte	0x198
 1049 042c 8C030000 		.4byte	0x38c
 1050 0430 1C       		.byte	0x1c
 1051 0431 08       		.uleb128 0x8
 1052 0432 64626700 		.ascii	"dbg\000"
 1053 0436 0A       		.byte	0xa
 1054 0437 9C01     		.2byte	0x19c
 1055 0439 D9030000 		.4byte	0x3d9
 1056 043d 2C       		.byte	0x2c
 1057 043e 09       		.uleb128 0x9
 1058 043f 98030000 		.4byte	.LASF73
 1059 0443 0A       		.byte	0xa
 1060 0444 A001     		.2byte	0x1a0
 1061 0446 52010000 		.4byte	0x152
 1062 044a 30       		.byte	0x30
 1063 044b 08       		.uleb128 0x8
 1064 044c 746D00   		.ascii	"tm\000"
 1065 044f 0A       		.byte	0xa
 1066 0450 A501     		.2byte	0x1a5
 1067 0452 16070000 		.4byte	0x716
 1068 0456 90       		.byte	0x90
 1069 0457 09       		.uleb128 0x9
 1070 0458 53000000 		.4byte	.LASF74
 1071 045c 0A       		.byte	0xa
 1072 045d AB01     		.2byte	0x1ab
 1073 045f A8070000 		.4byte	0x7a8
 1074 0463 98       		.byte	0x98
 1075 0464 00       		.byte	0
 1076 0465 03       		.uleb128 0x3
 1077 0466 4B080000 		.4byte	.LASF75
 1078 046a 0B       		.byte	0xb
 1079 046b 6D       		.byte	0x6d
 1080 046c CE000000 		.4byte	0xce
 1081 0470 03       		.uleb128 0x3
 1082 0471 F9020000 		.4byte	.LASF76
 1083 0475 0B       		.byte	0xb
ARM GAS  /tmp/ccDt2b3x.s 			page 20


 1084 0476 79       		.byte	0x79
 1085 0477 CE000000 		.4byte	0xce
 1086 047b 04       		.uleb128 0x4
 1087 047c 04       		.byte	0x4
 1088 047d 07       		.byte	0x7
 1089 047e 65040000 		.4byte	.LASF77
 1090 0482 0F       		.uleb128 0xf
 1091 0483 CE000000 		.4byte	0xce
 1092 0487 10       		.uleb128 0x10
 1093 0488 18       		.byte	0x18
 1094 0489 0C       		.byte	0xc
 1095 048a 7101     		.2byte	0x171
 1096 048c DE040000 		.4byte	0x4de
 1097 0490 08       		.uleb128 0x8
 1098 0491 435200   		.ascii	"CR\000"
 1099 0494 0C       		.byte	0xc
 1100 0495 7301     		.2byte	0x173
 1101 0497 82040000 		.4byte	0x482
 1102 049b 00       		.byte	0
 1103 049c 09       		.uleb128 0x9
 1104 049d 7A080000 		.4byte	.LASF78
 1105 04a1 0C       		.byte	0xc
 1106 04a2 7401     		.2byte	0x174
 1107 04a4 82040000 		.4byte	0x482
 1108 04a8 04       		.byte	0x4
 1109 04a9 08       		.uleb128 0x8
 1110 04aa 50415200 		.ascii	"PAR\000"
 1111 04ae 0C       		.byte	0xc
 1112 04af 7501     		.2byte	0x175
 1113 04b1 82040000 		.4byte	0x482
 1114 04b5 08       		.byte	0x8
 1115 04b6 09       		.uleb128 0x9
 1116 04b7 31000000 		.4byte	.LASF79
 1117 04bb 0C       		.byte	0xc
 1118 04bc 7601     		.2byte	0x176
 1119 04be 82040000 		.4byte	0x482
 1120 04c2 0C       		.byte	0xc
 1121 04c3 09       		.uleb128 0x9
 1122 04c4 D3080000 		.4byte	.LASF80
 1123 04c8 0C       		.byte	0xc
 1124 04c9 7701     		.2byte	0x177
 1125 04cb 82040000 		.4byte	0x482
 1126 04cf 10       		.byte	0x10
 1127 04d0 08       		.uleb128 0x8
 1128 04d1 46435200 		.ascii	"FCR\000"
 1129 04d5 0C       		.byte	0xc
 1130 04d6 7801     		.2byte	0x178
 1131 04d8 82040000 		.4byte	0x482
 1132 04dc 14       		.byte	0x14
 1133 04dd 00       		.byte	0
 1134 04de 11       		.uleb128 0x11
 1135 04df 90080000 		.4byte	.LASF81
 1136 04e3 0C       		.byte	0xc
 1137 04e4 7901     		.2byte	0x179
 1138 04e6 87040000 		.4byte	0x487
 1139 04ea 10       		.uleb128 0x10
 1140 04eb 28       		.byte	0x28
ARM GAS  /tmp/ccDt2b3x.s 			page 21


 1141 04ec 0C       		.byte	0xc
 1142 04ed 6D02     		.2byte	0x26d
 1143 04ef 75050000 		.4byte	0x575
 1144 04f3 08       		.uleb128 0x8
 1145 04f4 43523100 		.ascii	"CR1\000"
 1146 04f8 0C       		.byte	0xc
 1147 04f9 6F02     		.2byte	0x26f
 1148 04fb 82040000 		.4byte	0x482
 1149 04ff 00       		.byte	0
 1150 0500 08       		.uleb128 0x8
 1151 0501 43523200 		.ascii	"CR2\000"
 1152 0505 0C       		.byte	0xc
 1153 0506 7002     		.2byte	0x270
 1154 0508 82040000 		.4byte	0x482
 1155 050c 04       		.byte	0x4
 1156 050d 09       		.uleb128 0x9
 1157 050e 0D090000 		.4byte	.LASF82
 1158 0512 0C       		.byte	0xc
 1159 0513 7102     		.2byte	0x271
 1160 0515 82040000 		.4byte	0x482
 1161 0519 08       		.byte	0x8
 1162 051a 09       		.uleb128 0x9
 1163 051b 12090000 		.4byte	.LASF83
 1164 051f 0C       		.byte	0xc
 1165 0520 7202     		.2byte	0x272
 1166 0522 82040000 		.4byte	0x482
 1167 0526 0C       		.byte	0xc
 1168 0527 08       		.uleb128 0x8
 1169 0528 445200   		.ascii	"DR\000"
 1170 052b 0C       		.byte	0xc
 1171 052c 7302     		.2byte	0x273
 1172 052e 82040000 		.4byte	0x482
 1173 0532 10       		.byte	0x10
 1174 0533 08       		.uleb128 0x8
 1175 0534 53523100 		.ascii	"SR1\000"
 1176 0538 0C       		.byte	0xc
 1177 0539 7402     		.2byte	0x274
 1178 053b 82040000 		.4byte	0x482
 1179 053f 14       		.byte	0x14
 1180 0540 08       		.uleb128 0x8
 1181 0541 53523200 		.ascii	"SR2\000"
 1182 0545 0C       		.byte	0xc
 1183 0546 7502     		.2byte	0x275
 1184 0548 82040000 		.4byte	0x482
 1185 054c 18       		.byte	0x18
 1186 054d 08       		.uleb128 0x8
 1187 054e 43435200 		.ascii	"CCR\000"
 1188 0552 0C       		.byte	0xc
 1189 0553 7602     		.2byte	0x276
 1190 0555 82040000 		.4byte	0x482
 1191 0559 1C       		.byte	0x1c
 1192 055a 09       		.uleb128 0x9
 1193 055b C3000000 		.4byte	.LASF84
 1194 055f 0C       		.byte	0xc
 1195 0560 7702     		.2byte	0x277
 1196 0562 82040000 		.4byte	0x482
 1197 0566 20       		.byte	0x20
ARM GAS  /tmp/ccDt2b3x.s 			page 22


 1198 0567 09       		.uleb128 0x9
 1199 0568 3E020000 		.4byte	.LASF85
 1200 056c 0C       		.byte	0xc
 1201 056d 7802     		.2byte	0x278
 1202 056f 82040000 		.4byte	0x482
 1203 0573 24       		.byte	0x24
 1204 0574 00       		.byte	0
 1205 0575 11       		.uleb128 0x11
 1206 0576 6F090000 		.4byte	.LASF86
 1207 057a 0C       		.byte	0xc
 1208 057b 7902     		.2byte	0x279
 1209 057d EA040000 		.4byte	0x4ea
 1210 0581 03       		.uleb128 0x3
 1211 0582 76020000 		.4byte	.LASF87
 1212 0586 0D       		.byte	0xd
 1213 0587 65       		.byte	0x65
 1214 0588 30030000 		.4byte	0x330
 1215 058c 03       		.uleb128 0x3
 1216 058d 19040000 		.4byte	.LASF88
 1217 0591 0D       		.byte	0xd
 1218 0592 6D       		.byte	0x6d
 1219 0593 D9000000 		.4byte	0xd9
 1220 0597 05       		.uleb128 0x5
 1221 0598 0F050000 		.4byte	.LASF89
 1222 059c 04       		.byte	0x4
 1223 059d 0D       		.byte	0xd
 1224 059e 89       		.byte	0x89
 1225 059f AF050000 		.4byte	0x5af
 1226 05a3 07       		.uleb128 0x7
 1227 05a4 737000   		.ascii	"sp\000"
 1228 05a7 0D       		.byte	0xd
 1229 05a8 8A       		.byte	0x8a
 1230 05a9 FB060000 		.4byte	0x6fb
 1231 05ad 00       		.byte	0
 1232 05ae 00       		.byte	0
 1233 05af 0B       		.uleb128 0xb
 1234 05b0 78000000 		.4byte	.LASF90
 1235 05b4 64       		.byte	0x64
 1236 05b5 0E       		.byte	0xe
 1237 05b6 5901     		.2byte	0x159
 1238 05b8 FB060000 		.4byte	0x6fb
 1239 05bc 08       		.uleb128 0x8
 1240 05bd 73313600 		.ascii	"s16\000"
 1241 05c1 0E       		.byte	0xe
 1242 05c2 5B01     		.2byte	0x15b
 1243 05c4 81050000 		.4byte	0x581
 1244 05c8 00       		.byte	0
 1245 05c9 08       		.uleb128 0x8
 1246 05ca 73313700 		.ascii	"s17\000"
 1247 05ce 0E       		.byte	0xe
 1248 05cf 5C01     		.2byte	0x15c
 1249 05d1 81050000 		.4byte	0x581
 1250 05d5 04       		.byte	0x4
 1251 05d6 08       		.uleb128 0x8
 1252 05d7 73313800 		.ascii	"s18\000"
 1253 05db 0E       		.byte	0xe
 1254 05dc 5D01     		.2byte	0x15d
ARM GAS  /tmp/ccDt2b3x.s 			page 23


 1255 05de 81050000 		.4byte	0x581
 1256 05e2 08       		.byte	0x8
 1257 05e3 08       		.uleb128 0x8
 1258 05e4 73313900 		.ascii	"s19\000"
 1259 05e8 0E       		.byte	0xe
 1260 05e9 5E01     		.2byte	0x15e
 1261 05eb 81050000 		.4byte	0x581
 1262 05ef 0C       		.byte	0xc
 1263 05f0 08       		.uleb128 0x8
 1264 05f1 73323000 		.ascii	"s20\000"
 1265 05f5 0E       		.byte	0xe
 1266 05f6 5F01     		.2byte	0x15f
 1267 05f8 81050000 		.4byte	0x581
 1268 05fc 10       		.byte	0x10
 1269 05fd 08       		.uleb128 0x8
 1270 05fe 73323100 		.ascii	"s21\000"
 1271 0602 0E       		.byte	0xe
 1272 0603 6001     		.2byte	0x160
 1273 0605 81050000 		.4byte	0x581
 1274 0609 14       		.byte	0x14
 1275 060a 08       		.uleb128 0x8
 1276 060b 73323200 		.ascii	"s22\000"
 1277 060f 0E       		.byte	0xe
 1278 0610 6101     		.2byte	0x161
 1279 0612 81050000 		.4byte	0x581
 1280 0616 18       		.byte	0x18
 1281 0617 08       		.uleb128 0x8
 1282 0618 73323300 		.ascii	"s23\000"
 1283 061c 0E       		.byte	0xe
 1284 061d 6201     		.2byte	0x162
 1285 061f 81050000 		.4byte	0x581
 1286 0623 1C       		.byte	0x1c
 1287 0624 08       		.uleb128 0x8
 1288 0625 73323400 		.ascii	"s24\000"
 1289 0629 0E       		.byte	0xe
 1290 062a 6301     		.2byte	0x163
 1291 062c 81050000 		.4byte	0x581
 1292 0630 20       		.byte	0x20
 1293 0631 08       		.uleb128 0x8
 1294 0632 73323500 		.ascii	"s25\000"
 1295 0636 0E       		.byte	0xe
 1296 0637 6401     		.2byte	0x164
 1297 0639 81050000 		.4byte	0x581
 1298 063d 24       		.byte	0x24
 1299 063e 08       		.uleb128 0x8
 1300 063f 73323600 		.ascii	"s26\000"
 1301 0643 0E       		.byte	0xe
 1302 0644 6501     		.2byte	0x165
 1303 0646 81050000 		.4byte	0x581
 1304 064a 28       		.byte	0x28
 1305 064b 08       		.uleb128 0x8
 1306 064c 73323700 		.ascii	"s27\000"
 1307 0650 0E       		.byte	0xe
 1308 0651 6601     		.2byte	0x166
 1309 0653 81050000 		.4byte	0x581
 1310 0657 2C       		.byte	0x2c
 1311 0658 08       		.uleb128 0x8
ARM GAS  /tmp/ccDt2b3x.s 			page 24


 1312 0659 73323800 		.ascii	"s28\000"
 1313 065d 0E       		.byte	0xe
 1314 065e 6701     		.2byte	0x167
 1315 0660 81050000 		.4byte	0x581
 1316 0664 30       		.byte	0x30
 1317 0665 08       		.uleb128 0x8
 1318 0666 73323900 		.ascii	"s29\000"
 1319 066a 0E       		.byte	0xe
 1320 066b 6801     		.2byte	0x168
 1321 066d 81050000 		.4byte	0x581
 1322 0671 34       		.byte	0x34
 1323 0672 08       		.uleb128 0x8
 1324 0673 73333000 		.ascii	"s30\000"
 1325 0677 0E       		.byte	0xe
 1326 0678 6901     		.2byte	0x169
 1327 067a 81050000 		.4byte	0x581
 1328 067e 38       		.byte	0x38
 1329 067f 08       		.uleb128 0x8
 1330 0680 73333100 		.ascii	"s31\000"
 1331 0684 0E       		.byte	0xe
 1332 0685 6A01     		.2byte	0x16a
 1333 0687 81050000 		.4byte	0x581
 1334 068b 3C       		.byte	0x3c
 1335 068c 08       		.uleb128 0x8
 1336 068d 723400   		.ascii	"r4\000"
 1337 0690 0E       		.byte	0xe
 1338 0691 6C01     		.2byte	0x16c
 1339 0693 81050000 		.4byte	0x581
 1340 0697 40       		.byte	0x40
 1341 0698 08       		.uleb128 0x8
 1342 0699 723500   		.ascii	"r5\000"
 1343 069c 0E       		.byte	0xe
 1344 069d 6D01     		.2byte	0x16d
 1345 069f 81050000 		.4byte	0x581
 1346 06a3 44       		.byte	0x44
 1347 06a4 08       		.uleb128 0x8
 1348 06a5 723600   		.ascii	"r6\000"
 1349 06a8 0E       		.byte	0xe
 1350 06a9 6E01     		.2byte	0x16e
 1351 06ab 81050000 		.4byte	0x581
 1352 06af 48       		.byte	0x48
 1353 06b0 08       		.uleb128 0x8
 1354 06b1 723700   		.ascii	"r7\000"
 1355 06b4 0E       		.byte	0xe
 1356 06b5 6F01     		.2byte	0x16f
 1357 06b7 81050000 		.4byte	0x581
 1358 06bb 4C       		.byte	0x4c
 1359 06bc 08       		.uleb128 0x8
 1360 06bd 723800   		.ascii	"r8\000"
 1361 06c0 0E       		.byte	0xe
 1362 06c1 7001     		.2byte	0x170
 1363 06c3 81050000 		.4byte	0x581
 1364 06c7 50       		.byte	0x50
 1365 06c8 08       		.uleb128 0x8
 1366 06c9 723900   		.ascii	"r9\000"
 1367 06cc 0E       		.byte	0xe
 1368 06cd 7101     		.2byte	0x171
ARM GAS  /tmp/ccDt2b3x.s 			page 25


 1369 06cf 81050000 		.4byte	0x581
 1370 06d3 54       		.byte	0x54
 1371 06d4 08       		.uleb128 0x8
 1372 06d5 72313000 		.ascii	"r10\000"
 1373 06d9 0E       		.byte	0xe
 1374 06da 7201     		.2byte	0x172
 1375 06dc 81050000 		.4byte	0x581
 1376 06e0 58       		.byte	0x58
 1377 06e1 08       		.uleb128 0x8
 1378 06e2 72313100 		.ascii	"r11\000"
 1379 06e6 0E       		.byte	0xe
 1380 06e7 7301     		.2byte	0x173
 1381 06e9 81050000 		.4byte	0x581
 1382 06ed 5C       		.byte	0x5c
 1383 06ee 08       		.uleb128 0x8
 1384 06ef 6C7200   		.ascii	"lr\000"
 1385 06f2 0E       		.byte	0xe
 1386 06f3 7401     		.2byte	0x174
 1387 06f5 81050000 		.4byte	0x581
 1388 06f9 60       		.byte	0x60
 1389 06fa 00       		.byte	0
 1390 06fb 0A       		.uleb128 0xa
 1391 06fc 04       		.byte	0x4
 1392 06fd AF050000 		.4byte	0x5af
 1393 0701 12       		.uleb128 0x12
 1394 0702 04       		.byte	0x4
 1395 0703 0F       		.byte	0xf
 1396 0704 38       		.byte	0x38
 1397 0705 16070000 		.4byte	0x716
 1398 0709 06       		.uleb128 0x6
 1399 070a 89080000 		.4byte	.LASF91
 1400 070e 0F       		.byte	0xf
 1401 070f 3C       		.byte	0x3c
 1402 0710 E4000000 		.4byte	0xe4
 1403 0714 00       		.byte	0
 1404 0715 00       		.byte	0
 1405 0716 03       		.uleb128 0x3
 1406 0717 1C050000 		.4byte	.LASF92
 1407 071b 0F       		.byte	0xf
 1408 071c 3D       		.byte	0x3d
 1409 071d 01070000 		.4byte	0x701
 1410 0721 12       		.uleb128 0x12
 1411 0722 18       		.byte	0x18
 1412 0723 0F       		.byte	0xf
 1413 0724 48       		.byte	0x48
 1414 0725 64070000 		.4byte	0x764
 1415 0729 06       		.uleb128 0x6
 1416 072a 46080000 		.4byte	.LASF93
 1417 072e 0F       		.byte	0xf
 1418 072f 49       		.byte	0x49
 1419 0730 E4000000 		.4byte	0xe4
 1420 0734 00       		.byte	0
 1421 0735 06       		.uleb128 0x6
 1422 0736 DA000000 		.4byte	.LASF94
 1423 073a 0F       		.byte	0xf
 1424 073b 4A       		.byte	0x4a
 1425 073c E4000000 		.4byte	0xe4
ARM GAS  /tmp/ccDt2b3x.s 			page 26


 1426 0740 04       		.byte	0x4
 1427 0741 06       		.uleb128 0x6
 1428 0742 AE030000 		.4byte	.LASF95
 1429 0746 0F       		.byte	0xf
 1430 0747 4B       		.byte	0x4b
 1431 0748 E4000000 		.4byte	0xe4
 1432 074c 08       		.byte	0x8
 1433 074d 07       		.uleb128 0x7
 1434 074e 6E00     		.ascii	"n\000"
 1435 0750 0F       		.byte	0xf
 1436 0751 4C       		.byte	0x4c
 1437 0752 47010000 		.4byte	0x147
 1438 0756 0C       		.byte	0xc
 1439 0757 06       		.uleb128 0x6
 1440 0758 58050000 		.4byte	.LASF96
 1441 075c 0F       		.byte	0xf
 1442 075d 4D       		.byte	0x4d
 1443 075e EF000000 		.4byte	0xef
 1444 0762 10       		.byte	0x10
 1445 0763 00       		.byte	0
 1446 0764 03       		.uleb128 0x3
 1447 0765 E0000000 		.4byte	.LASF97
 1448 0769 0F       		.byte	0xf
 1449 076a 4E       		.byte	0x4e
 1450 076b 21070000 		.4byte	0x721
 1451 076f 12       		.uleb128 0x12
 1452 0770 38       		.byte	0x38
 1453 0771 10       		.byte	0x10
 1454 0772 38       		.byte	0x38
 1455 0773 A8070000 		.4byte	0x7a8
 1456 0777 06       		.uleb128 0x6
 1457 0778 3C030000 		.4byte	.LASF98
 1458 077c 10       		.byte	0x10
 1459 077d 39       		.byte	0x39
 1460 077e 47010000 		.4byte	0x147
 1461 0782 00       		.byte	0
 1462 0783 06       		.uleb128 0x6
 1463 0784 EE050000 		.4byte	.LASF99
 1464 0788 10       		.byte	0x10
 1465 0789 3A       		.byte	0x3a
 1466 078a 47010000 		.4byte	0x147
 1467 078e 04       		.byte	0x4
 1468 078f 06       		.uleb128 0x6
 1469 0790 96090000 		.4byte	.LASF100
 1470 0794 10       		.byte	0x10
 1471 0795 3B       		.byte	0x3b
 1472 0796 64070000 		.4byte	0x764
 1473 079a 08       		.byte	0x8
 1474 079b 06       		.uleb128 0x6
 1475 079c E0030000 		.4byte	.LASF101
 1476 07a0 10       		.byte	0x10
 1477 07a1 3D       		.byte	0x3d
 1478 07a2 64070000 		.4byte	0x764
 1479 07a6 20       		.byte	0x20
 1480 07a7 00       		.byte	0
 1481 07a8 03       		.uleb128 0x3
 1482 07a9 75030000 		.4byte	.LASF102
ARM GAS  /tmp/ccDt2b3x.s 			page 27


 1483 07ad 10       		.byte	0x10
 1484 07ae 3F       		.byte	0x3f
 1485 07af 6F070000 		.4byte	0x76f
 1486 07b3 13       		.uleb128 0x13
 1487 07b4 04       		.byte	0x4
 1488 07b5 0A       		.byte	0xa
 1489 07b6 C6       		.byte	0xc6
 1490 07b7 15080000 		.4byte	0x815
 1491 07bb 14       		.uleb128 0x14
 1492 07bc 43000000 		.4byte	.LASF103
 1493 07c0 0A       		.byte	0xa
 1494 07c1 CD       		.byte	0xcd
 1495 07c2 26010000 		.4byte	0x126
 1496 07c6 14       		.uleb128 0x14
 1497 07c7 0A010000 		.4byte	.LASF104
 1498 07cb 0A       		.byte	0xa
 1499 07cc D4       		.byte	0xd4
 1500 07cd 26010000 		.4byte	0x126
 1501 07d1 14       		.uleb128 0x14
 1502 07d2 35090000 		.4byte	.LASF105
 1503 07d6 0A       		.byte	0xa
 1504 07d7 DB       		.byte	0xdb
 1505 07d8 30030000 		.4byte	0x330
 1506 07dc 14       		.uleb128 0x14
 1507 07dd 2E030000 		.4byte	.LASF106
 1508 07e1 0A       		.byte	0xa
 1509 07e2 E2       		.byte	0xe2
 1510 07e3 15080000 		.4byte	0x815
 1511 07e7 14       		.uleb128 0x14
 1512 07e8 21010000 		.4byte	.LASF107
 1513 07ec 0A       		.byte	0xa
 1514 07ed E7       		.byte	0xe7
 1515 07ee 26010000 		.4byte	0x126
 1516 07f2 14       		.uleb128 0x14
 1517 07f3 20030000 		.4byte	.LASF108
 1518 07f7 0A       		.byte	0xa
 1519 07f8 F0       		.byte	0xf0
 1520 07f9 40080000 		.4byte	0x840
 1521 07fd 14       		.uleb128 0x14
 1522 07fe CC070000 		.4byte	.LASF109
 1523 0802 0A       		.byte	0xa
 1524 0803 F9       		.byte	0xf9
 1525 0804 77080000 		.4byte	0x877
 1526 0808 15       		.uleb128 0x15
 1527 0809 52070000 		.4byte	.LASF110
 1528 080d 0A       		.byte	0xa
 1529 080e 0101     		.2byte	0x101
 1530 0810 31010000 		.4byte	0x131
 1531 0814 00       		.byte	0
 1532 0815 0A       		.uleb128 0xa
 1533 0816 04       		.byte	0x4
 1534 0817 48020000 		.4byte	0x248
 1535 081b 05       		.uleb128 0x5
 1536 081c B1070000 		.4byte	.LASF111
 1537 0820 0C       		.byte	0xc
 1538 0821 11       		.byte	0x11
 1539 0822 34       		.byte	0x34
ARM GAS  /tmp/ccDt2b3x.s 			page 28


 1540 0823 40080000 		.4byte	0x840
 1541 0827 06       		.uleb128 0x6
 1542 0828 42030000 		.4byte	.LASF31
 1543 082c 11       		.byte	0x11
 1544 082d 35       		.byte	0x35
 1545 082e 7D020000 		.4byte	0x27d
 1546 0832 00       		.byte	0
 1547 0833 07       		.uleb128 0x7
 1548 0834 636E7400 		.ascii	"cnt\000"
 1549 0838 11       		.byte	0x11
 1550 0839 37       		.byte	0x37
 1551 083a 3C010000 		.4byte	0x13c
 1552 083e 08       		.byte	0x8
 1553 083f 00       		.byte	0
 1554 0840 0A       		.uleb128 0xa
 1555 0841 04       		.byte	0x4
 1556 0842 1B080000 		.4byte	0x81b
 1557 0846 05       		.uleb128 0x5
 1558 0847 A3080000 		.4byte	.LASF112
 1559 084b 10       		.byte	0x10
 1560 084c 12       		.byte	0x12
 1561 084d 39       		.byte	0x39
 1562 084e 77080000 		.4byte	0x877
 1563 0852 06       		.uleb128 0x6
 1564 0853 42030000 		.4byte	.LASF31
 1565 0857 12       		.byte	0x12
 1566 0858 3A       		.byte	0x3a
 1567 0859 7D020000 		.4byte	0x27d
 1568 085d 00       		.byte	0
 1569 085e 06       		.uleb128 0x6
 1570 085f E3070000 		.4byte	.LASF113
 1571 0863 12       		.byte	0x12
 1572 0864 3C       		.byte	0x3c
 1573 0865 53020000 		.4byte	0x253
 1574 0869 08       		.byte	0x8
 1575 086a 06       		.uleb128 0x6
 1576 086b 51010000 		.4byte	.LASF51
 1577 086f 12       		.byte	0x12
 1578 0870 3E       		.byte	0x3e
 1579 0871 AB080000 		.4byte	0x8ab
 1580 0875 0C       		.byte	0xc
 1581 0876 00       		.byte	0
 1582 0877 0A       		.uleb128 0xa
 1583 0878 04       		.byte	0x4
 1584 0879 46080000 		.4byte	0x846
 1585 087d 0A       		.uleb128 0xa
 1586 087e 04       		.byte	0x4
 1587 087f 83080000 		.4byte	0x883
 1588 0883 16       		.uleb128 0x16
 1589 0884 88080000 		.4byte	0x888
 1590 0888 04       		.uleb128 0x4
 1591 0889 01       		.byte	0x1
 1592 088a 08       		.byte	0x8
 1593 088b 10080000 		.4byte	.LASF114
 1594 088f 0A       		.uleb128 0xa
 1595 0890 04       		.byte	0x4
 1596 0891 8C050000 		.4byte	0x58c
ARM GAS  /tmp/ccDt2b3x.s 			page 29


 1597 0895 0A       		.uleb128 0xa
 1598 0896 04       		.byte	0x4
 1599 0897 32030000 		.4byte	0x332
 1600 089b 0F       		.uleb128 0xf
 1601 089c 7D080000 		.4byte	0x87d
 1602 08a0 03       		.uleb128 0x3
 1603 08a1 96010000 		.4byte	.LASF115
 1604 08a5 12       		.byte	0x12
 1605 08a6 34       		.byte	0x34
 1606 08a7 46080000 		.4byte	0x846
 1607 08ab 0A       		.uleb128 0xa
 1608 08ac 04       		.byte	0x4
 1609 08ad A0080000 		.4byte	0x8a0
 1610 08b1 04       		.uleb128 0x4
 1611 08b2 01       		.byte	0x1
 1612 08b3 02       		.byte	0x2
 1613 08b4 F7050000 		.4byte	.LASF116
 1614 08b8 0A       		.uleb128 0xa
 1615 08b9 04       		.byte	0x4
 1616 08ba AD000000 		.4byte	0xad
 1617 08be 17       		.uleb128 0x17
 1618 08bf 88080000 		.4byte	0x888
 1619 08c3 CE080000 		.4byte	0x8ce
 1620 08c7 18       		.uleb128 0x18
 1621 08c8 7B040000 		.4byte	0x47b
 1622 08cc 07       		.byte	0x7
 1623 08cd 00       		.byte	0
 1624 08ce 10       		.uleb128 0x10
 1625 08cf 0C       		.byte	0xc
 1626 08d0 13       		.byte	0x13
 1627 08d1 A201     		.2byte	0x1a2
 1628 08d3 26090000 		.4byte	0x926
 1629 08d7 09       		.uleb128 0x9
 1630 08d8 C9000000 		.4byte	.LASF117
 1631 08dc 13       		.byte	0x13
 1632 08dd A301     		.2byte	0x1a3
 1633 08df 26090000 		.4byte	0x926
 1634 08e3 00       		.byte	0
 1635 08e4 09       		.uleb128 0x9
 1636 08e5 BE070000 		.4byte	.LASF118
 1637 08e9 13       		.byte	0x13
 1638 08ea A401     		.2byte	0x1a4
 1639 08ec 2C090000 		.4byte	0x92c
 1640 08f0 04       		.byte	0x4
 1641 08f1 09       		.uleb128 0x9
 1642 08f2 C7020000 		.4byte	.LASF119
 1643 08f6 13       		.byte	0x13
 1644 08f7 A801     		.2byte	0x1a8
 1645 08f9 AD000000 		.4byte	0xad
 1646 08fd 08       		.byte	0x8
 1647 08fe 09       		.uleb128 0x9
 1648 08ff 43020000 		.4byte	.LASF120
 1649 0903 13       		.byte	0x13
 1650 0904 AA01     		.2byte	0x1aa
 1651 0906 AD000000 		.4byte	0xad
 1652 090a 09       		.byte	0x9
 1653 090b 09       		.uleb128 0x9
ARM GAS  /tmp/ccDt2b3x.s 			page 30


 1654 090c 7F020000 		.4byte	.LASF121
 1655 0910 13       		.byte	0x13
 1656 0911 AC01     		.2byte	0x1ac
 1657 0913 AD000000 		.4byte	0xad
 1658 0917 0A       		.byte	0xa
 1659 0918 09       		.uleb128 0x9
 1660 0919 A1090000 		.4byte	.LASF122
 1661 091d 13       		.byte	0x13
 1662 091e AD01     		.2byte	0x1ad
 1663 0920 AD000000 		.4byte	0xad
 1664 0924 0B       		.byte	0xb
 1665 0925 00       		.byte	0
 1666 0926 0A       		.uleb128 0xa
 1667 0927 04       		.byte	0x4
 1668 0928 DE040000 		.4byte	0x4de
 1669 092c 0A       		.uleb128 0xa
 1670 092d 04       		.byte	0x4
 1671 092e 82040000 		.4byte	0x482
 1672 0932 11       		.uleb128 0x11
 1673 0933 A6050000 		.4byte	.LASF123
 1674 0937 13       		.byte	0x13
 1675 0938 AE01     		.2byte	0x1ae
 1676 093a CE080000 		.4byte	0x8ce
 1677 093e 0A       		.uleb128 0xa
 1678 093f 04       		.byte	0x4
 1679 0940 44090000 		.4byte	0x944
 1680 0944 16       		.uleb128 0x16
 1681 0945 AD000000 		.4byte	0xad
 1682 0949 0A       		.uleb128 0xa
 1683 094a 04       		.byte	0x4
 1684 094b 4F090000 		.4byte	0x94f
 1685 094f 16       		.uleb128 0x16
 1686 0950 32090000 		.4byte	0x932
 1687 0954 19       		.uleb128 0x19
 1688 0955 01       		.byte	0x1
 1689 0956 14       		.byte	0x14
 1690 0957 4C       		.byte	0x4c
 1691 0958 81090000 		.4byte	0x981
 1692 095c 1A       		.uleb128 0x1a
 1693 095d 31070000 		.4byte	.LASF124
 1694 0961 00       		.sleb128 0
 1695 0962 1A       		.uleb128 0x1a
 1696 0963 6A000000 		.4byte	.LASF125
 1697 0967 01       		.sleb128 1
 1698 0968 1A       		.uleb128 0x1a
 1699 0969 5F010000 		.4byte	.LASF126
 1700 096d 02       		.sleb128 2
 1701 096e 1A       		.uleb128 0x1a
 1702 096f CF050000 		.4byte	.LASF127
 1703 0973 03       		.sleb128 3
 1704 0974 1A       		.uleb128 0x1a
 1705 0975 E9070000 		.4byte	.LASF128
 1706 0979 04       		.sleb128 4
 1707 097a 1A       		.uleb128 0x1a
 1708 097b A6070000 		.4byte	.LASF129
 1709 097f 05       		.sleb128 5
 1710 0980 00       		.byte	0
ARM GAS  /tmp/ccDt2b3x.s 			page 31


 1711 0981 03       		.uleb128 0x3
 1712 0982 71050000 		.4byte	.LASF130
 1713 0986 14       		.byte	0x14
 1714 0987 53       		.byte	0x53
 1715 0988 54090000 		.4byte	0x954
 1716 098c 11       		.uleb128 0x11
 1717 098d 11020000 		.4byte	.LASF131
 1718 0991 15       		.byte	0x15
 1719 0992 6E01     		.2byte	0x16e
 1720 0994 B8000000 		.4byte	0xb8
 1721 0998 11       		.uleb128 0x11
 1722 0999 DD050000 		.4byte	.LASF132
 1723 099d 15       		.byte	0x15
 1724 099e 7301     		.2byte	0x173
 1725 09a0 CE000000 		.4byte	0xce
 1726 09a4 1B       		.uleb128 0x1b
 1727 09a5 01       		.byte	0x1
 1728 09a6 15       		.byte	0x15
 1729 09a7 7801     		.2byte	0x178
 1730 09a9 C0090000 		.4byte	0x9c0
 1731 09ad 1A       		.uleb128 0x1a
 1732 09ae 2D050000 		.4byte	.LASF133
 1733 09b2 01       		.sleb128 1
 1734 09b3 1A       		.uleb128 0x1a
 1735 09b4 4E030000 		.4byte	.LASF134
 1736 09b8 02       		.sleb128 2
 1737 09b9 1A       		.uleb128 0x1a
 1738 09ba 59020000 		.4byte	.LASF135
 1739 09be 03       		.sleb128 3
 1740 09bf 00       		.byte	0
 1741 09c0 11       		.uleb128 0x11
 1742 09c1 7B090000 		.4byte	.LASF136
 1743 09c5 15       		.byte	0x15
 1744 09c6 7C01     		.2byte	0x17c
 1745 09c8 A4090000 		.4byte	0x9a4
 1746 09cc 1B       		.uleb128 0x1b
 1747 09cd 01       		.byte	0x1
 1748 09ce 15       		.byte	0x15
 1749 09cf 8101     		.2byte	0x181
 1750 09d1 E8090000 		.4byte	0x9e8
 1751 09d5 1A       		.uleb128 0x1a
 1752 09d6 00000000 		.4byte	.LASF137
 1753 09da 01       		.sleb128 1
 1754 09db 1A       		.uleb128 0x1a
 1755 09dc 94070000 		.4byte	.LASF138
 1756 09e0 02       		.sleb128 2
 1757 09e1 1A       		.uleb128 0x1a
 1758 09e2 7C050000 		.4byte	.LASF139
 1759 09e6 03       		.sleb128 3
 1760 09e7 00       		.byte	0
 1761 09e8 11       		.uleb128 0x11
 1762 09e9 15000000 		.4byte	.LASF140
 1763 09ed 15       		.byte	0x15
 1764 09ee 8501     		.2byte	0x185
 1765 09f0 CC090000 		.4byte	0x9cc
 1766 09f4 10       		.uleb128 0x10
 1767 09f5 0C       		.byte	0xc
ARM GAS  /tmp/ccDt2b3x.s 			page 32


 1768 09f6 15       		.byte	0x15
 1769 09f7 8A01     		.2byte	0x18a
 1770 09f9 250A0000 		.4byte	0xa25
 1771 09fd 09       		.uleb128 0x9
 1772 09fe 29070000 		.4byte	.LASF141
 1773 0a02 15       		.byte	0x15
 1774 0a03 8C01     		.2byte	0x18c
 1775 0a05 C0090000 		.4byte	0x9c0
 1776 0a09 00       		.byte	0
 1777 0a0a 09       		.uleb128 0x9
 1778 0a0b B6010000 		.4byte	.LASF142
 1779 0a0f 15       		.byte	0x15
 1780 0a10 8D01     		.2byte	0x18d
 1781 0a12 CE000000 		.4byte	0xce
 1782 0a16 04       		.byte	0x4
 1783 0a17 09       		.uleb128 0x9
 1784 0a18 CC040000 		.4byte	.LASF143
 1785 0a1c 15       		.byte	0x15
 1786 0a1d 9001     		.2byte	0x190
 1787 0a1f E8090000 		.4byte	0x9e8
 1788 0a23 08       		.byte	0x8
 1789 0a24 00       		.byte	0
 1790 0a25 11       		.uleb128 0x11
 1791 0a26 D8080000 		.4byte	.LASF144
 1792 0a2a 15       		.byte	0x15
 1793 0a2b 9201     		.2byte	0x192
 1794 0a2d F4090000 		.4byte	0x9f4
 1795 0a31 11       		.uleb128 0x11
 1796 0a32 84030000 		.4byte	.LASF145
 1797 0a36 15       		.byte	0x15
 1798 0a37 9701     		.2byte	0x197
 1799 0a39 3D0A0000 		.4byte	0xa3d
 1800 0a3d 0B       		.uleb128 0xb
 1801 0a3e 84030000 		.4byte	.LASF145
 1802 0a42 38       		.byte	0x38
 1803 0a43 15       		.byte	0x15
 1804 0a44 9C01     		.2byte	0x19c
 1805 0a46 DA0A0000 		.4byte	0xada
 1806 0a4a 09       		.uleb128 0x9
 1807 0a4b 1B020000 		.4byte	.LASF37
 1808 0a4f 15       		.byte	0x15
 1809 0a50 A001     		.2byte	0x1a0
 1810 0a52 81090000 		.4byte	0x981
 1811 0a56 00       		.byte	0
 1812 0a57 09       		.uleb128 0x9
 1813 0a58 1B080000 		.4byte	.LASF146
 1814 0a5c 15       		.byte	0x15
 1815 0a5d A401     		.2byte	0x1a4
 1816 0a5f DA0A0000 		.4byte	0xada
 1817 0a63 04       		.byte	0x4
 1818 0a64 09       		.uleb128 0x9
 1819 0a65 27030000 		.4byte	.LASF147
 1820 0a69 15       		.byte	0x15
 1821 0a6a A801     		.2byte	0x1a8
 1822 0a6c 98090000 		.4byte	0x998
 1823 0a70 08       		.byte	0x8
 1824 0a71 09       		.uleb128 0x9
ARM GAS  /tmp/ccDt2b3x.s 			page 33


 1825 0a72 E8050000 		.4byte	.LASF148
 1826 0a76 15       		.byte	0x15
 1827 0a77 AD01     		.2byte	0x1ad
 1828 0a79 A0080000 		.4byte	0x8a0
 1829 0a7d 0C       		.byte	0xc
 1830 0a7e 09       		.uleb128 0x9
 1831 0a7f 87090000 		.4byte	.LASF149
 1832 0a83 15       		.byte	0x15
 1833 0a84 B601     		.2byte	0x1b6
 1834 0a86 48020000 		.4byte	0x248
 1835 0a8a 1C       		.byte	0x1c
 1836 0a8b 09       		.uleb128 0x9
 1837 0a8c E8010000 		.4byte	.LASF150
 1838 0a90 15       		.byte	0x15
 1839 0a91 BA01     		.2byte	0x1ba
 1840 0a93 8C090000 		.4byte	0x98c
 1841 0a97 20       		.byte	0x20
 1842 0a98 09       		.uleb128 0x9
 1843 0a99 49020000 		.4byte	.LASF151
 1844 0a9d 15       		.byte	0x15
 1845 0a9e BE01     		.2byte	0x1be
 1846 0aa0 CE000000 		.4byte	0xce
 1847 0aa4 24       		.byte	0x24
 1848 0aa5 09       		.uleb128 0x9
 1849 0aa6 E1020000 		.4byte	.LASF152
 1850 0aaa 15       		.byte	0x15
 1851 0aab C201     		.2byte	0x1c2
 1852 0aad CE000000 		.4byte	0xce
 1853 0ab1 28       		.byte	0x28
 1854 0ab2 09       		.uleb128 0x9
 1855 0ab3 0F000000 		.4byte	.LASF153
 1856 0ab7 15       		.byte	0x15
 1857 0ab8 C601     		.2byte	0x1c6
 1858 0aba 49090000 		.4byte	0x949
 1859 0abe 2C       		.byte	0x2c
 1860 0abf 09       		.uleb128 0x9
 1861 0ac0 53020000 		.4byte	.LASF154
 1862 0ac4 15       		.byte	0x15
 1863 0ac5 CA01     		.2byte	0x1ca
 1864 0ac7 49090000 		.4byte	0x949
 1865 0acb 30       		.byte	0x30
 1866 0acc 08       		.uleb128 0x8
 1867 0acd 69326300 		.ascii	"i2c\000"
 1868 0ad1 15       		.byte	0x15
 1869 0ad2 CE01     		.2byte	0x1ce
 1870 0ad4 E50A0000 		.4byte	0xae5
 1871 0ad8 34       		.byte	0x34
 1872 0ad9 00       		.byte	0
 1873 0ada 0A       		.uleb128 0xa
 1874 0adb 04       		.byte	0x4
 1875 0adc E00A0000 		.4byte	0xae0
 1876 0ae0 16       		.uleb128 0x16
 1877 0ae1 250A0000 		.4byte	0xa25
 1878 0ae5 0A       		.uleb128 0xa
 1879 0ae6 04       		.byte	0x4
 1880 0ae7 75050000 		.4byte	0x575
 1881 0aeb 1C       		.uleb128 0x1c
ARM GAS  /tmp/ccDt2b3x.s 			page 34


 1882 0aec 5E080000 		.4byte	.LASF157
 1883 0af0 03       		.byte	0x3
 1884 0af1 EB01     		.2byte	0x1eb
 1885 0af3 03       		.byte	0x3
 1886 0af4 050B0000 		.4byte	0xb05
 1887 0af8 1D       		.uleb128 0x1d
 1888 0af9 ED010000 		.4byte	.LASF159
 1889 0afd 03       		.byte	0x3
 1890 0afe EB01     		.2byte	0x1eb
 1891 0b00 CE000000 		.4byte	0xce
 1892 0b04 00       		.byte	0
 1893 0b05 1E       		.uleb128 0x1e
 1894 0b06 D0000000 		.4byte	.LASF155
 1895 0b0a 0E       		.byte	0xe
 1896 0b0b 5A02     		.2byte	0x25a
 1897 0b0d 03       		.byte	0x3
 1898 0b0e 1E       		.uleb128 0x1e
 1899 0b0f FC010000 		.4byte	.LASF156
 1900 0b13 0E       		.byte	0xe
 1901 0b14 7202     		.2byte	0x272
 1902 0b16 03       		.byte	0x3
 1903 0b17 1C       		.uleb128 0x1c
 1904 0b18 82010000 		.4byte	.LASF158
 1905 0b1c 02       		.byte	0x2
 1906 0b1d CB03     		.2byte	0x3cb
 1907 0b1f 03       		.byte	0x3
 1908 0b20 300B0000 		.4byte	0xb30
 1909 0b24 1F       		.uleb128 0x1f
 1910 0b25 6D7000   		.ascii	"mp\000"
 1911 0b28 02       		.byte	0x2
 1912 0b29 CB03     		.2byte	0x3cb
 1913 0b2b AB080000 		.4byte	0x8ab
 1914 0b2f 00       		.byte	0
 1915 0b30 1E       		.uleb128 0x1e
 1916 0b31 D5020000 		.4byte	.LASF160
 1917 0b35 02       		.byte	0x2
 1918 0b36 FD01     		.2byte	0x1fd
 1919 0b38 03       		.byte	0x3
 1920 0b39 1E       		.uleb128 0x1e
 1921 0b3a 76070000 		.4byte	.LASF161
 1922 0b3e 02       		.byte	0x2
 1923 0b3f 0802     		.2byte	0x208
 1924 0b41 03       		.byte	0x3
 1925 0b42 1C       		.uleb128 0x1c
 1926 0b43 6C080000 		.4byte	.LASF162
 1927 0b47 02       		.byte	0x2
 1928 0b48 DF03     		.2byte	0x3df
 1929 0b4a 03       		.byte	0x3
 1930 0b4b 5B0B0000 		.4byte	0xb5b
 1931 0b4f 1F       		.uleb128 0x1f
 1932 0b50 6D7000   		.ascii	"mp\000"
 1933 0b53 02       		.byte	0x2
 1934 0b54 DF03     		.2byte	0x3df
 1935 0b56 AB080000 		.4byte	0x8ab
 1936 0b5a 00       		.byte	0
 1937 0b5b 1C       		.uleb128 0x1c
 1938 0b5c 22080000 		.4byte	.LASF163
ARM GAS  /tmp/ccDt2b3x.s 			page 35


 1939 0b60 02       		.byte	0x2
 1940 0b61 F703     		.2byte	0x3f7
 1941 0b63 03       		.byte	0x3
 1942 0b64 740B0000 		.4byte	0xb74
 1943 0b68 1F       		.uleb128 0x1f
 1944 0b69 6D7000   		.ascii	"mp\000"
 1945 0b6c 02       		.byte	0x2
 1946 0b6d F703     		.2byte	0x3f7
 1947 0b6f AB080000 		.4byte	0x8ab
 1948 0b73 00       		.byte	0
 1949 0b74 20       		.uleb128 0x20
 1950 0b75 4B090000 		.4byte	.LASF164
 1951 0b79 01       		.byte	0x1
 1952 0b7a 3B       		.byte	0x3b
 1953 0b7b 00000000 		.4byte	.LFB323
 1954 0b7f 04000000 		.4byte	.LFE323-.LFB323
 1955 0b83 01       		.uleb128 0x1
 1956 0b84 9C       		.byte	0x9c
 1957 0b85 930B0000 		.4byte	0xb93
 1958 0b89 21       		.uleb128 0x21
 1959 0b8a 04000000 		.4byte	.LVL0
 1960 0b8e AD120000 		.4byte	0x12ad
 1961 0b92 00       		.byte	0
 1962 0b93 20       		.uleb128 0x20
 1963 0b94 AC080000 		.4byte	.LASF165
 1964 0b98 01       		.byte	0x1
 1965 0b99 47       		.byte	0x47
 1966 0b9a 00000000 		.4byte	.LFB324
 1967 0b9e 0E000000 		.4byte	.LFE324-.LFB324
 1968 0ba2 01       		.uleb128 0x1
 1969 0ba3 9C       		.byte	0x9c
 1970 0ba4 E40B0000 		.4byte	0xbe4
 1971 0ba8 22       		.uleb128 0x22
 1972 0ba9 4C010000 		.4byte	.LASF169
 1973 0bad 01       		.byte	0x1
 1974 0bae 47       		.byte	0x47
 1975 0baf E40B0000 		.4byte	0xbe4
 1976 0bb3 00000000 		.4byte	.LLST0
 1977 0bb7 23       		.uleb128 0x23
 1978 0bb8 170B0000 		.4byte	0xb17
 1979 0bbc 08000000 		.4byte	.LBB36
 1980 0bc0 06000000 		.4byte	.LBE36-.LBB36
 1981 0bc4 01       		.byte	0x1
 1982 0bc5 4D       		.byte	0x4d
 1983 0bc6 24       		.uleb128 0x24
 1984 0bc7 240B0000 		.4byte	0xb24
 1985 0bcb 2E000000 		.4byte	.LLST1
 1986 0bcf 25       		.uleb128 0x25
 1987 0bd0 0E000000 		.4byte	.LVL4
 1988 0bd4 B5120000 		.4byte	0x12b5
 1989 0bd8 26       		.uleb128 0x26
 1990 0bd9 01       		.uleb128 0x1
 1991 0bda 50       		.byte	0x50
 1992 0bdb 05       		.uleb128 0x5
 1993 0bdc F3       		.byte	0xf3
 1994 0bdd 01       		.uleb128 0x1
 1995 0bde 50       		.byte	0x50
ARM GAS  /tmp/ccDt2b3x.s 			page 36


 1996 0bdf 23       		.byte	0x23
 1997 0be0 0C       		.uleb128 0xc
 1998 0be1 00       		.byte	0
 1999 0be2 00       		.byte	0
 2000 0be3 00       		.byte	0
 2001 0be4 0A       		.uleb128 0xa
 2002 0be5 04       		.byte	0x4
 2003 0be6 310A0000 		.4byte	0xa31
 2004 0bea 1E       		.uleb128 0x1e
 2005 0beb 6C070000 		.4byte	.LASF166
 2006 0bef 04       		.byte	0x4
 2007 0bf0 6101     		.2byte	0x161
 2008 0bf2 03       		.byte	0x3
 2009 0bf3 1C       		.uleb128 0x1c
 2010 0bf4 53090000 		.4byte	.LASF167
 2011 0bf8 04       		.byte	0x4
 2012 0bf9 6D01     		.2byte	0x16d
 2013 0bfb 03       		.byte	0x3
 2014 0bfc 0E0C0000 		.4byte	0xc0e
 2015 0c00 27       		.uleb128 0x27
 2016 0c01 63070000 		.4byte	.LASF171
 2017 0c05 1E0C0000 		.4byte	0xc1e
 2018 0c09 53090000 		.4byte	.LASF167
 2019 0c0d 00       		.byte	0
 2020 0c0e 17       		.uleb128 0x17
 2021 0c0f 88080000 		.4byte	0x888
 2022 0c13 1E0C0000 		.4byte	0xc1e
 2023 0c17 18       		.uleb128 0x18
 2024 0c18 7B040000 		.4byte	0x47b
 2025 0c1c 0B       		.byte	0xb
 2026 0c1d 00       		.byte	0
 2027 0c1e 16       		.uleb128 0x16
 2028 0c1f 0E0C0000 		.4byte	0xc0e
 2029 0c23 20       		.uleb128 0x20
 2030 0c24 98040000 		.4byte	.LASF168
 2031 0c28 01       		.byte	0x1
 2032 0c29 5D       		.byte	0x5d
 2033 0c2a 00000000 		.4byte	.LFB325
 2034 0c2e 28000000 		.4byte	.LFE325-.LFB325
 2035 0c32 01       		.uleb128 0x1
 2036 0c33 9C       		.byte	0x9c
 2037 0c34 330D0000 		.4byte	0xd33
 2038 0c38 22       		.uleb128 0x22
 2039 0c39 4C010000 		.4byte	.LASF169
 2040 0c3d 01       		.byte	0x1
 2041 0c3e 5D       		.byte	0x5d
 2042 0c3f E40B0000 		.4byte	0xbe4
 2043 0c43 5E000000 		.4byte	.LLST2
 2044 0c47 22       		.uleb128 0x22
 2045 0c48 1B080000 		.4byte	.LASF146
 2046 0c4c 01       		.byte	0x1
 2047 0c4d 5D       		.byte	0x5d
 2048 0c4e DA0A0000 		.4byte	0xada
 2049 0c52 7C000000 		.4byte	.LLST3
 2050 0c56 28       		.uleb128 0x28
 2051 0c57 63070000 		.4byte	.LASF171
 2052 0c5b 430D0000 		.4byte	0xd43
ARM GAS  /tmp/ccDt2b3x.s 			page 37


 2053 0c5f 29       		.uleb128 0x29
 2054 0c60 300B0000 		.4byte	0xb30
 2055 0c64 06000000 		.4byte	.LBB52
 2056 0c68 0A000000 		.4byte	.LBE52-.LBB52
 2057 0c6c 01       		.byte	0x1
 2058 0c6d 63       		.byte	0x63
 2059 0c6e B90C0000 		.4byte	0xcb9
 2060 0c72 2A       		.uleb128 0x2a
 2061 0c73 EA0B0000 		.4byte	0xbea
 2062 0c77 06000000 		.4byte	.LBB53
 2063 0c7b 0A000000 		.4byte	.LBE53-.LBB53
 2064 0c7f 02       		.byte	0x2
 2065 0c80 FF01     		.2byte	0x1ff
 2066 0c82 2B       		.uleb128 0x2b
 2067 0c83 050B0000 		.4byte	0xb05
 2068 0c87 06000000 		.4byte	.LBB55
 2069 0c8b 06000000 		.4byte	.LBE55-.LBB55
 2070 0c8f 04       		.byte	0x4
 2071 0c90 6301     		.2byte	0x163
 2072 0c92 AE0C0000 		.4byte	0xcae
 2073 0c96 2A       		.uleb128 0x2a
 2074 0c97 EB0A0000 		.4byte	0xaeb
 2075 0c9b 06000000 		.4byte	.LBB56
 2076 0c9f 06000000 		.4byte	.LBE56-.LBB56
 2077 0ca3 0E       		.byte	0xe
 2078 0ca4 6202     		.2byte	0x262
 2079 0ca6 2C       		.uleb128 0x2c
 2080 0ca7 F80A0000 		.4byte	0xaf8
 2081 0cab 20       		.byte	0x20
 2082 0cac 00       		.byte	0
 2083 0cad 00       		.byte	0
 2084 0cae 2D       		.uleb128 0x2d
 2085 0caf 10000000 		.4byte	.LVL6
 2086 0cb3 C6120000 		.4byte	0x12c6
 2087 0cb7 00       		.byte	0
 2088 0cb8 00       		.byte	0
 2089 0cb9 29       		.uleb128 0x29
 2090 0cba 390B0000 		.4byte	0xb39
 2091 0cbe 1C000000 		.4byte	.LBB58
 2092 0cc2 0C000000 		.4byte	.LBE58-.LBB58
 2093 0cc6 01       		.byte	0x1
 2094 0cc7 67       		.byte	0x67
 2095 0cc8 220D0000 		.4byte	0xd22
 2096 0ccc 2A       		.uleb128 0x2a
 2097 0ccd F30B0000 		.4byte	0xbf3
 2098 0cd1 1C000000 		.4byte	.LBB59
 2099 0cd5 0C000000 		.4byte	.LBE59-.LBB59
 2100 0cd9 02       		.byte	0x2
 2101 0cda 0A02     		.2byte	0x20a
 2102 0cdc 2E       		.uleb128 0x2e
 2103 0cdd 1C000000 		.4byte	.LBB60
 2104 0ce1 0C000000 		.4byte	.LBE60-.LBB60
 2105 0ce5 2F       		.uleb128 0x2f
 2106 0ce6 000C0000 		.4byte	0xc00
 2107 0cea 2B       		.uleb128 0x2b
 2108 0ceb 0E0B0000 		.4byte	0xb0e
 2109 0cef 20000000 		.4byte	.LBB61
ARM GAS  /tmp/ccDt2b3x.s 			page 38


 2110 0cf3 08000000 		.4byte	.LBE61-.LBB61
 2111 0cf7 04       		.byte	0x4
 2112 0cf8 7A01     		.2byte	0x17a
 2113 0cfa 160D0000 		.4byte	0xd16
 2114 0cfe 2A       		.uleb128 0x2a
 2115 0cff EB0A0000 		.4byte	0xaeb
 2116 0d03 20000000 		.4byte	.LBB62
 2117 0d07 08000000 		.4byte	.LBE62-.LBB62
 2118 0d0b 0E       		.byte	0xe
 2119 0d0c 7502     		.2byte	0x275
 2120 0d0e 2C       		.uleb128 0x2c
 2121 0d0f F80A0000 		.4byte	0xaf8
 2122 0d13 00       		.byte	0
 2123 0d14 00       		.byte	0
 2124 0d15 00       		.byte	0
 2125 0d16 2D       		.uleb128 0x2d
 2126 0d17 20000000 		.4byte	.LVL8
 2127 0d1b CD120000 		.4byte	0x12cd
 2128 0d1f 00       		.byte	0
 2129 0d20 00       		.byte	0
 2130 0d21 00       		.byte	0
 2131 0d22 30       		.uleb128 0x30
 2132 0d23 18000000 		.4byte	.LVL7
 2133 0d27 D4120000 		.4byte	0x12d4
 2134 0d2b 26       		.uleb128 0x26
 2135 0d2c 01       		.uleb128 0x1
 2136 0d2d 50       		.byte	0x50
 2137 0d2e 02       		.uleb128 0x2
 2138 0d2f 74       		.byte	0x74
 2139 0d30 00       		.sleb128 0
 2140 0d31 00       		.byte	0
 2141 0d32 00       		.byte	0
 2142 0d33 17       		.uleb128 0x17
 2143 0d34 88080000 		.4byte	0x888
 2144 0d38 430D0000 		.4byte	0xd43
 2145 0d3c 18       		.uleb128 0x18
 2146 0d3d 7B040000 		.4byte	0x47b
 2147 0d41 08       		.byte	0x8
 2148 0d42 00       		.byte	0
 2149 0d43 16       		.uleb128 0x16
 2150 0d44 330D0000 		.4byte	0xd33
 2151 0d48 20       		.uleb128 0x20
 2152 0d49 07050000 		.4byte	.LASF170
 2153 0d4d 01       		.byte	0x1
 2154 0d4e 71       		.byte	0x71
 2155 0d4f 00000000 		.4byte	.LFB326
 2156 0d53 26000000 		.4byte	.LFE326-.LFB326
 2157 0d57 01       		.uleb128 0x1
 2158 0d58 9C       		.byte	0x9c
 2159 0d59 490E0000 		.4byte	0xe49
 2160 0d5d 22       		.uleb128 0x22
 2161 0d5e 4C010000 		.4byte	.LASF169
 2162 0d62 01       		.byte	0x1
 2163 0d63 71       		.byte	0x71
 2164 0d64 E40B0000 		.4byte	0xbe4
 2165 0d68 9A000000 		.4byte	.LLST4
 2166 0d6c 28       		.uleb128 0x28
ARM GAS  /tmp/ccDt2b3x.s 			page 39


 2167 0d6d 63070000 		.4byte	.LASF171
 2168 0d71 490E0000 		.4byte	0xe49
 2169 0d75 29       		.uleb128 0x29
 2170 0d76 300B0000 		.4byte	0xb30
 2171 0d7a 04000000 		.4byte	.LBB78
 2172 0d7e 0A000000 		.4byte	.LBE78-.LBB78
 2173 0d82 01       		.byte	0x1
 2174 0d83 75       		.byte	0x75
 2175 0d84 CF0D0000 		.4byte	0xdcf
 2176 0d88 2A       		.uleb128 0x2a
 2177 0d89 EA0B0000 		.4byte	0xbea
 2178 0d8d 04000000 		.4byte	.LBB79
 2179 0d91 0A000000 		.4byte	.LBE79-.LBB79
 2180 0d95 02       		.byte	0x2
 2181 0d96 FF01     		.2byte	0x1ff
 2182 0d98 2B       		.uleb128 0x2b
 2183 0d99 050B0000 		.4byte	0xb05
 2184 0d9d 04000000 		.4byte	.LBB81
 2185 0da1 06000000 		.4byte	.LBE81-.LBB81
 2186 0da5 04       		.byte	0x4
 2187 0da6 6301     		.2byte	0x163
 2188 0da8 C40D0000 		.4byte	0xdc4
 2189 0dac 2A       		.uleb128 0x2a
 2190 0dad EB0A0000 		.4byte	0xaeb
 2191 0db1 04000000 		.4byte	.LBB82
 2192 0db5 06000000 		.4byte	.LBE82-.LBB82
 2193 0db9 0E       		.byte	0xe
 2194 0dba 6202     		.2byte	0x262
 2195 0dbc 2C       		.uleb128 0x2c
 2196 0dbd F80A0000 		.4byte	0xaf8
 2197 0dc1 20       		.byte	0x20
 2198 0dc2 00       		.byte	0
 2199 0dc3 00       		.byte	0
 2200 0dc4 2D       		.uleb128 0x2d
 2201 0dc5 0E000000 		.4byte	.LVL10
 2202 0dc9 C6120000 		.4byte	0x12c6
 2203 0dcd 00       		.byte	0
 2204 0dce 00       		.byte	0
 2205 0dcf 29       		.uleb128 0x29
 2206 0dd0 390B0000 		.4byte	0xb39
 2207 0dd4 1C000000 		.4byte	.LBB84
 2208 0dd8 0A000000 		.4byte	.LBE84-.LBB84
 2209 0ddc 01       		.byte	0x1
 2210 0ddd 7E       		.byte	0x7e
 2211 0dde 380E0000 		.4byte	0xe38
 2212 0de2 2A       		.uleb128 0x2a
 2213 0de3 F30B0000 		.4byte	0xbf3
 2214 0de7 1C000000 		.4byte	.LBB85
 2215 0deb 0A000000 		.4byte	.LBE85-.LBB85
 2216 0def 02       		.byte	0x2
 2217 0df0 0A02     		.2byte	0x20a
 2218 0df2 2E       		.uleb128 0x2e
 2219 0df3 1C000000 		.4byte	.LBB86
 2220 0df7 0A000000 		.4byte	.LBE86-.LBB86
 2221 0dfb 2F       		.uleb128 0x2f
 2222 0dfc 000C0000 		.4byte	0xc00
 2223 0e00 2B       		.uleb128 0x2b
ARM GAS  /tmp/ccDt2b3x.s 			page 40


 2224 0e01 0E0B0000 		.4byte	0xb0e
 2225 0e05 20000000 		.4byte	.LBB87
 2226 0e09 06000000 		.4byte	.LBE87-.LBB87
 2227 0e0d 04       		.byte	0x4
 2228 0e0e 7A01     		.2byte	0x17a
 2229 0e10 2C0E0000 		.4byte	0xe2c
 2230 0e14 2A       		.uleb128 0x2a
 2231 0e15 EB0A0000 		.4byte	0xaeb
 2232 0e19 20000000 		.4byte	.LBB88
 2233 0e1d 06000000 		.4byte	.LBE88-.LBB88
 2234 0e21 0E       		.byte	0xe
 2235 0e22 7502     		.2byte	0x275
 2236 0e24 2C       		.uleb128 0x2c
 2237 0e25 F80A0000 		.4byte	0xaf8
 2238 0e29 00       		.byte	0
 2239 0e2a 00       		.byte	0
 2240 0e2b 00       		.byte	0
 2241 0e2c 2D       		.uleb128 0x2d
 2242 0e2d 20000000 		.4byte	.LVL12
 2243 0e31 CD120000 		.4byte	0x12cd
 2244 0e35 00       		.byte	0
 2245 0e36 00       		.byte	0
 2246 0e37 00       		.byte	0
 2247 0e38 30       		.uleb128 0x30
 2248 0e39 14000000 		.4byte	.LVL11
 2249 0e3d E6120000 		.4byte	0x12e6
 2250 0e41 26       		.uleb128 0x26
 2251 0e42 01       		.uleb128 0x1
 2252 0e43 50       		.byte	0x50
 2253 0e44 02       		.uleb128 0x2
 2254 0e45 74       		.byte	0x74
 2255 0e46 00       		.sleb128 0
 2256 0e47 00       		.byte	0
 2257 0e48 00       		.byte	0
 2258 0e49 16       		.uleb128 0x16
 2259 0e4a BE080000 		.4byte	0x8be
 2260 0e4e 31       		.uleb128 0x31
 2261 0e4f 45070000 		.4byte	.LASF172
 2262 0e53 01       		.byte	0x1
 2263 0e54 89       		.byte	0x89
 2264 0e55 98090000 		.4byte	0x998
 2265 0e59 00000000 		.4byte	.LFB327
 2266 0e5d 04000000 		.4byte	.LFE327-.LFB327
 2267 0e61 01       		.uleb128 0x1
 2268 0e62 9C       		.byte	0x9c
 2269 0e63 800E0000 		.4byte	0xe80
 2270 0e67 22       		.uleb128 0x22
 2271 0e68 4C010000 		.4byte	.LASF169
 2272 0e6c 01       		.byte	0x1
 2273 0e6d 89       		.byte	0x89
 2274 0e6e E40B0000 		.4byte	0xbe4
 2275 0e72 B8000000 		.4byte	.LLST5
 2276 0e76 28       		.uleb128 0x28
 2277 0e77 63070000 		.4byte	.LASF171
 2278 0e7b 900E0000 		.4byte	0xe90
 2279 0e7f 00       		.byte	0
 2280 0e80 17       		.uleb128 0x17
ARM GAS  /tmp/ccDt2b3x.s 			page 41


 2281 0e81 88080000 		.4byte	0x888
 2282 0e85 900E0000 		.4byte	0xe90
 2283 0e89 18       		.uleb128 0x18
 2284 0e8a 7B040000 		.4byte	0x47b
 2285 0e8e 0C       		.byte	0xc
 2286 0e8f 00       		.byte	0
 2287 0e90 16       		.uleb128 0x16
 2288 0e91 800E0000 		.4byte	0xe80
 2289 0e95 31       		.uleb128 0x31
 2290 0e96 69010000 		.4byte	.LASF173
 2291 0e9a 01       		.byte	0x1
 2292 0e9b AA       		.byte	0xaa
 2293 0e9c 26010000 		.4byte	0x126
 2294 0ea0 00000000 		.4byte	.LFB328
 2295 0ea4 52000000 		.4byte	.LFE328-.LFB328
 2296 0ea8 01       		.uleb128 0x1
 2297 0ea9 9C       		.byte	0x9c
 2298 0eaa 2A100000 		.4byte	0x102a
 2299 0eae 22       		.uleb128 0x22
 2300 0eaf 4C010000 		.4byte	.LASF169
 2301 0eb3 01       		.byte	0x1
 2302 0eb4 AA       		.byte	0xaa
 2303 0eb5 E40B0000 		.4byte	0xbe4
 2304 0eb9 D9000000 		.4byte	.LLST6
 2305 0ebd 22       		.uleb128 0x22
 2306 0ebe E8010000 		.4byte	.LASF150
 2307 0ec2 01       		.byte	0x1
 2308 0ec3 AB       		.byte	0xab
 2309 0ec4 8C090000 		.4byte	0x98c
 2310 0ec8 F7000000 		.4byte	.LLST7
 2311 0ecc 22       		.uleb128 0x22
 2312 0ecd 1A030000 		.4byte	.LASF174
 2313 0ed1 01       		.byte	0x1
 2314 0ed2 AC       		.byte	0xac
 2315 0ed3 3E090000 		.4byte	0x93e
 2316 0ed7 18010000 		.4byte	.LLST8
 2317 0edb 22       		.uleb128 0x22
 2318 0edc 3D050000 		.4byte	.LASF175
 2319 0ee0 01       		.byte	0x1
 2320 0ee1 AD       		.byte	0xad
 2321 0ee2 2C000000 		.4byte	0x2c
 2322 0ee6 36010000 		.4byte	.LLST9
 2323 0eea 32       		.uleb128 0x32
 2324 0eeb C2010000 		.4byte	.LASF176
 2325 0eef 01       		.byte	0x1
 2326 0ef0 AE       		.byte	0xae
 2327 0ef1 B8080000 		.4byte	0x8b8
 2328 0ef5 02       		.uleb128 0x2
 2329 0ef6 91       		.byte	0x91
 2330 0ef7 00       		.sleb128 0
 2331 0ef8 32       		.uleb128 0x32
 2332 0ef9 FF040000 		.4byte	.LASF177
 2333 0efd 01       		.byte	0x1
 2334 0efe AF       		.byte	0xaf
 2335 0eff 2C000000 		.4byte	0x2c
 2336 0f03 02       		.uleb128 0x2
 2337 0f04 91       		.byte	0x91
ARM GAS  /tmp/ccDt2b3x.s 			page 42


 2338 0f05 04       		.sleb128 4
 2339 0f06 32       		.uleb128 0x32
 2340 0f07 34030000 		.4byte	.LASF178
 2341 0f0b 01       		.byte	0x1
 2342 0f0c B0       		.byte	0xb0
 2343 0f0d 70040000 		.4byte	0x470
 2344 0f11 02       		.uleb128 0x2
 2345 0f12 91       		.byte	0x91
 2346 0f13 08       		.sleb128 8
 2347 0f14 33       		.uleb128 0x33
 2348 0f15 43000000 		.4byte	.LASF103
 2349 0f19 01       		.byte	0x1
 2350 0f1a B1       		.byte	0xb1
 2351 0f1b 26010000 		.4byte	0x126
 2352 0f1f 62010000 		.4byte	.LLST10
 2353 0f23 28       		.uleb128 0x28
 2354 0f24 63070000 		.4byte	.LASF171
 2355 0f28 3A100000 		.4byte	0x103a
 2356 0f2c 29       		.uleb128 0x29
 2357 0f2d 300B0000 		.4byte	0xb30
 2358 0f31 0C000000 		.4byte	.LBB104
 2359 0f35 0A000000 		.4byte	.LBE104-.LBB104
 2360 0f39 01       		.byte	0x1
 2361 0f3a BA       		.byte	0xba
 2362 0f3b 860F0000 		.4byte	0xf86
 2363 0f3f 2A       		.uleb128 0x2a
 2364 0f40 EA0B0000 		.4byte	0xbea
 2365 0f44 0C000000 		.4byte	.LBB105
 2366 0f48 0A000000 		.4byte	.LBE105-.LBB105
 2367 0f4c 02       		.byte	0x2
 2368 0f4d FF01     		.2byte	0x1ff
 2369 0f4f 2B       		.uleb128 0x2b
 2370 0f50 050B0000 		.4byte	0xb05
 2371 0f54 0C000000 		.4byte	.LBB107
 2372 0f58 06000000 		.4byte	.LBE107-.LBB107
 2373 0f5c 04       		.byte	0x4
 2374 0f5d 6301     		.2byte	0x163
 2375 0f5f 7B0F0000 		.4byte	0xf7b
 2376 0f63 2A       		.uleb128 0x2a
 2377 0f64 EB0A0000 		.4byte	0xaeb
 2378 0f68 0C000000 		.4byte	.LBB108
 2379 0f6c 06000000 		.4byte	.LBE108-.LBB108
 2380 0f70 0E       		.byte	0xe
 2381 0f71 6202     		.2byte	0x262
 2382 0f73 2C       		.uleb128 0x2c
 2383 0f74 F80A0000 		.4byte	0xaf8
 2384 0f78 20       		.byte	0x20
 2385 0f79 00       		.byte	0
 2386 0f7a 00       		.byte	0
 2387 0f7b 2D       		.uleb128 0x2d
 2388 0f7c 16000000 		.4byte	.LVL17
 2389 0f80 C6120000 		.4byte	0x12c6
 2390 0f84 00       		.byte	0
 2391 0f85 00       		.byte	0
 2392 0f86 29       		.uleb128 0x29
 2393 0f87 390B0000 		.4byte	0xb39
 2394 0f8b 42000000 		.4byte	.LBB110
ARM GAS  /tmp/ccDt2b3x.s 			page 43


 2395 0f8f 08000000 		.4byte	.LBE110-.LBB110
 2396 0f93 01       		.byte	0x1
 2397 0f94 C5       		.byte	0xc5
 2398 0f95 EF0F0000 		.4byte	0xfef
 2399 0f99 2A       		.uleb128 0x2a
 2400 0f9a F30B0000 		.4byte	0xbf3
 2401 0f9e 42000000 		.4byte	.LBB111
 2402 0fa2 08000000 		.4byte	.LBE111-.LBB111
 2403 0fa6 02       		.byte	0x2
 2404 0fa7 0A02     		.2byte	0x20a
 2405 0fa9 2E       		.uleb128 0x2e
 2406 0faa 42000000 		.4byte	.LBB112
 2407 0fae 08000000 		.4byte	.LBE112-.LBB112
 2408 0fb2 2F       		.uleb128 0x2f
 2409 0fb3 000C0000 		.4byte	0xc00
 2410 0fb7 2B       		.uleb128 0x2b
 2411 0fb8 0E0B0000 		.4byte	0xb0e
 2412 0fbc 46000000 		.4byte	.LBB113
 2413 0fc0 04000000 		.4byte	.LBE113-.LBB113
 2414 0fc4 04       		.byte	0x4
 2415 0fc5 7A01     		.2byte	0x17a
 2416 0fc7 E30F0000 		.4byte	0xfe3
 2417 0fcb 2A       		.uleb128 0x2a
 2418 0fcc EB0A0000 		.4byte	0xaeb
 2419 0fd0 46000000 		.4byte	.LBB114
 2420 0fd4 04000000 		.4byte	.LBE114-.LBB114
 2421 0fd8 0E       		.byte	0xe
 2422 0fd9 7502     		.2byte	0x275
 2423 0fdb 2C       		.uleb128 0x2c
 2424 0fdc F80A0000 		.4byte	0xaf8
 2425 0fe0 00       		.byte	0
 2426 0fe1 00       		.byte	0
 2427 0fe2 00       		.byte	0
 2428 0fe3 2D       		.uleb128 0x2d
 2429 0fe4 46000000 		.4byte	.LVL20
 2430 0fe8 CD120000 		.4byte	0x12cd
 2431 0fec 00       		.byte	0
 2432 0fed 00       		.byte	0
 2433 0fee 00       		.byte	0
 2434 0fef 30       		.uleb128 0x30
 2435 0ff0 36000000 		.4byte	.LVL18
 2436 0ff4 F8120000 		.4byte	0x12f8
 2437 0ff8 26       		.uleb128 0x26
 2438 0ff9 01       		.uleb128 0x1
 2439 0ffa 53       		.byte	0x53
 2440 0ffb 02       		.uleb128 0x2
 2441 0ffc 76       		.byte	0x76
 2442 0ffd 00       		.sleb128 0
 2443 0ffe 26       		.uleb128 0x26
 2444 0fff 01       		.uleb128 0x1
 2445 1000 52       		.byte	0x52
 2446 1001 02       		.uleb128 0x2
 2447 1002 77       		.byte	0x77
 2448 1003 00       		.sleb128 0
 2449 1004 26       		.uleb128 0x26
 2450 1005 01       		.uleb128 0x1
 2451 1006 51       		.byte	0x51
ARM GAS  /tmp/ccDt2b3x.s 			page 44


 2452 1007 02       		.uleb128 0x2
 2453 1008 78       		.byte	0x78
 2454 1009 00       		.sleb128 0
 2455 100a 26       		.uleb128 0x26
 2456 100b 01       		.uleb128 0x1
 2457 100c 50       		.byte	0x50
 2458 100d 02       		.uleb128 0x2
 2459 100e 74       		.byte	0x74
 2460 100f 00       		.sleb128 0
 2461 1010 26       		.uleb128 0x26
 2462 1011 02       		.uleb128 0x2
 2463 1012 7D       		.byte	0x7d
 2464 1013 08       		.sleb128 8
 2465 1014 03       		.uleb128 0x3
 2466 1015 91       		.byte	0x91
 2467 1016 08       		.sleb128 8
 2468 1017 06       		.byte	0x6
 2469 1018 26       		.uleb128 0x26
 2470 1019 02       		.uleb128 0x2
 2471 101a 7D       		.byte	0x7d
 2472 101b 04       		.sleb128 4
 2473 101c 03       		.uleb128 0x3
 2474 101d 91       		.byte	0x91
 2475 101e 04       		.sleb128 4
 2476 101f 06       		.byte	0x6
 2477 1020 26       		.uleb128 0x26
 2478 1021 02       		.uleb128 0x2
 2479 1022 7D       		.byte	0x7d
 2480 1023 00       		.sleb128 0
 2481 1024 03       		.uleb128 0x3
 2482 1025 91       		.byte	0x91
 2483 1026 00       		.sleb128 0
 2484 1027 06       		.byte	0x6
 2485 1028 00       		.byte	0
 2486 1029 00       		.byte	0
 2487 102a 17       		.uleb128 0x17
 2488 102b 88080000 		.4byte	0x888
 2489 102f 3A100000 		.4byte	0x103a
 2490 1033 18       		.uleb128 0x18
 2491 1034 7B040000 		.4byte	0x47b
 2492 1038 18       		.byte	0x18
 2493 1039 00       		.byte	0
 2494 103a 16       		.uleb128 0x16
 2495 103b 2A100000 		.4byte	0x102a
 2496 103f 31       		.uleb128 0x31
 2497 1040 1D090000 		.4byte	.LASF179
 2498 1044 01       		.byte	0x1
 2499 1045 DD       		.byte	0xdd
 2500 1046 26010000 		.4byte	0x126
 2501 104a 00000000 		.4byte	.LFB329
 2502 104e 4A000000 		.4byte	.LFE329-.LFB329
 2503 1052 01       		.uleb128 0x1
 2504 1053 9C       		.byte	0x9c
 2505 1054 A8110000 		.4byte	0x11a8
 2506 1058 22       		.uleb128 0x22
 2507 1059 4C010000 		.4byte	.LASF169
 2508 105d 01       		.byte	0x1
ARM GAS  /tmp/ccDt2b3x.s 			page 45


 2509 105e DD       		.byte	0xdd
 2510 105f E40B0000 		.4byte	0xbe4
 2511 1063 80010000 		.4byte	.LLST11
 2512 1067 22       		.uleb128 0x22
 2513 1068 E8010000 		.4byte	.LASF150
 2514 106c 01       		.byte	0x1
 2515 106d DE       		.byte	0xde
 2516 106e 8C090000 		.4byte	0x98c
 2517 1072 9E010000 		.4byte	.LLST12
 2518 1076 22       		.uleb128 0x22
 2519 1077 C2010000 		.4byte	.LASF176
 2520 107b 01       		.byte	0x1
 2521 107c DF       		.byte	0xdf
 2522 107d B8080000 		.4byte	0x8b8
 2523 1081 BF010000 		.4byte	.LLST13
 2524 1085 22       		.uleb128 0x22
 2525 1086 FF040000 		.4byte	.LASF177
 2526 108a 01       		.byte	0x1
 2527 108b E0       		.byte	0xe0
 2528 108c 2C000000 		.4byte	0x2c
 2529 1090 DD010000 		.4byte	.LLST14
 2530 1094 32       		.uleb128 0x32
 2531 1095 34030000 		.4byte	.LASF178
 2532 1099 01       		.byte	0x1
 2533 109a E1       		.byte	0xe1
 2534 109b 70040000 		.4byte	0x470
 2535 109f 02       		.uleb128 0x2
 2536 10a0 91       		.byte	0x91
 2537 10a1 00       		.sleb128 0
 2538 10a2 33       		.uleb128 0x33
 2539 10a3 43000000 		.4byte	.LASF103
 2540 10a7 01       		.byte	0x1
 2541 10a8 E3       		.byte	0xe3
 2542 10a9 26010000 		.4byte	0x126
 2543 10ad 09020000 		.4byte	.LLST15
 2544 10b1 28       		.uleb128 0x28
 2545 10b2 63070000 		.4byte	.LASF171
 2546 10b6 B8110000 		.4byte	0x11b8
 2547 10ba 29       		.uleb128 0x29
 2548 10bb 300B0000 		.4byte	0xb30
 2549 10bf 0C000000 		.4byte	.LBB130
 2550 10c3 0A000000 		.4byte	.LBE130-.LBB130
 2551 10c7 01       		.byte	0x1
 2552 10c8 EB       		.byte	0xeb
 2553 10c9 14110000 		.4byte	0x1114
 2554 10cd 2A       		.uleb128 0x2a
 2555 10ce EA0B0000 		.4byte	0xbea
 2556 10d2 0C000000 		.4byte	.LBB131
 2557 10d6 0A000000 		.4byte	.LBE131-.LBB131
 2558 10da 02       		.byte	0x2
 2559 10db FF01     		.2byte	0x1ff
 2560 10dd 2B       		.uleb128 0x2b
 2561 10de 050B0000 		.4byte	0xb05
 2562 10e2 0C000000 		.4byte	.LBB133
 2563 10e6 06000000 		.4byte	.LBE133-.LBB133
 2564 10ea 04       		.byte	0x4
 2565 10eb 6301     		.2byte	0x163
ARM GAS  /tmp/ccDt2b3x.s 			page 46


 2566 10ed 09110000 		.4byte	0x1109
 2567 10f1 2A       		.uleb128 0x2a
 2568 10f2 EB0A0000 		.4byte	0xaeb
 2569 10f6 0C000000 		.4byte	.LBB134
 2570 10fa 06000000 		.4byte	.LBE134-.LBB134
 2571 10fe 0E       		.byte	0xe
 2572 10ff 6202     		.2byte	0x262
 2573 1101 2C       		.uleb128 0x2c
 2574 1102 F80A0000 		.4byte	0xaf8
 2575 1106 20       		.byte	0x20
 2576 1107 00       		.byte	0
 2577 1108 00       		.byte	0
 2578 1109 2D       		.uleb128 0x2d
 2579 110a 16000000 		.4byte	.LVL23
 2580 110e C6120000 		.4byte	0x12c6
 2581 1112 00       		.byte	0
 2582 1113 00       		.byte	0
 2583 1114 29       		.uleb128 0x29
 2584 1115 390B0000 		.4byte	0xb39
 2585 1119 3A000000 		.4byte	.LBB136
 2586 111d 08000000 		.4byte	.LBE136-.LBB136
 2587 1121 01       		.byte	0x1
 2588 1122 F5       		.byte	0xf5
 2589 1123 7D110000 		.4byte	0x117d
 2590 1127 2A       		.uleb128 0x2a
 2591 1128 F30B0000 		.4byte	0xbf3
 2592 112c 3A000000 		.4byte	.LBB137
 2593 1130 08000000 		.4byte	.LBE137-.LBB137
 2594 1134 02       		.byte	0x2
 2595 1135 0A02     		.2byte	0x20a
 2596 1137 2E       		.uleb128 0x2e
 2597 1138 3A000000 		.4byte	.LBB138
 2598 113c 08000000 		.4byte	.LBE138-.LBB138
 2599 1140 2F       		.uleb128 0x2f
 2600 1141 000C0000 		.4byte	0xc00
 2601 1145 2B       		.uleb128 0x2b
 2602 1146 0E0B0000 		.4byte	0xb0e
 2603 114a 3E000000 		.4byte	.LBB139
 2604 114e 04000000 		.4byte	.LBE139-.LBB139
 2605 1152 04       		.byte	0x4
 2606 1153 7A01     		.2byte	0x17a
 2607 1155 71110000 		.4byte	0x1171
 2608 1159 2A       		.uleb128 0x2a
 2609 115a EB0A0000 		.4byte	0xaeb
 2610 115e 3E000000 		.4byte	.LBB140
 2611 1162 04000000 		.4byte	.LBE140-.LBB140
 2612 1166 0E       		.byte	0xe
 2613 1167 7502     		.2byte	0x275
 2614 1169 2C       		.uleb128 0x2c
 2615 116a F80A0000 		.4byte	0xaf8
 2616 116e 00       		.byte	0
 2617 116f 00       		.byte	0
 2618 1170 00       		.byte	0
 2619 1171 2D       		.uleb128 0x2d
 2620 1172 3E000000 		.4byte	.LVL26
 2621 1176 CD120000 		.4byte	0x12cd
 2622 117a 00       		.byte	0
ARM GAS  /tmp/ccDt2b3x.s 			page 47


 2623 117b 00       		.byte	0
 2624 117c 00       		.byte	0
 2625 117d 30       		.uleb128 0x30
 2626 117e 2E000000 		.4byte	.LVL24
 2627 1182 2C130000 		.4byte	0x132c
 2628 1186 26       		.uleb128 0x26
 2629 1187 01       		.uleb128 0x1
 2630 1188 53       		.byte	0x53
 2631 1189 02       		.uleb128 0x2
 2632 118a 76       		.byte	0x76
 2633 118b 00       		.sleb128 0
 2634 118c 26       		.uleb128 0x26
 2635 118d 01       		.uleb128 0x1
 2636 118e 52       		.byte	0x52
 2637 118f 02       		.uleb128 0x2
 2638 1190 77       		.byte	0x77
 2639 1191 00       		.sleb128 0
 2640 1192 26       		.uleb128 0x26
 2641 1193 01       		.uleb128 0x1
 2642 1194 51       		.byte	0x51
 2643 1195 02       		.uleb128 0x2
 2644 1196 78       		.byte	0x78
 2645 1197 00       		.sleb128 0
 2646 1198 26       		.uleb128 0x26
 2647 1199 01       		.uleb128 0x1
 2648 119a 50       		.byte	0x50
 2649 119b 02       		.uleb128 0x2
 2650 119c 74       		.byte	0x74
 2651 119d 00       		.sleb128 0
 2652 119e 26       		.uleb128 0x26
 2653 119f 02       		.uleb128 0x2
 2654 11a0 7D       		.byte	0x7d
 2655 11a1 00       		.sleb128 0
 2656 11a2 03       		.uleb128 0x3
 2657 11a3 91       		.byte	0x91
 2658 11a4 00       		.sleb128 0
 2659 11a5 06       		.byte	0x6
 2660 11a6 00       		.byte	0
 2661 11a7 00       		.byte	0
 2662 11a8 17       		.uleb128 0x17
 2663 11a9 88080000 		.4byte	0x888
 2664 11ad B8110000 		.4byte	0x11b8
 2665 11b1 18       		.uleb128 0x18
 2666 11b2 7B040000 		.4byte	0x47b
 2667 11b6 17       		.byte	0x17
 2668 11b7 00       		.byte	0
 2669 11b8 16       		.uleb128 0x16
 2670 11b9 A8110000 		.4byte	0x11a8
 2671 11bd 34       		.uleb128 0x34
 2672 11be B9050000 		.4byte	.LASF180
 2673 11c2 01       		.byte	0x1
 2674 11c3 0501     		.2byte	0x105
 2675 11c5 00000000 		.4byte	.LFB330
 2676 11c9 06000000 		.4byte	.LFE330-.LFB330
 2677 11cd 01       		.uleb128 0x1
 2678 11ce 9C       		.byte	0x9c
 2679 11cf 1A120000 		.4byte	0x121a
ARM GAS  /tmp/ccDt2b3x.s 			page 48


 2680 11d3 35       		.uleb128 0x35
 2681 11d4 4C010000 		.4byte	.LASF169
 2682 11d8 01       		.byte	0x1
 2683 11d9 0501     		.2byte	0x105
 2684 11db E40B0000 		.4byte	0xbe4
 2685 11df 27020000 		.4byte	.LLST16
 2686 11e3 28       		.uleb128 0x28
 2687 11e4 63070000 		.4byte	.LASF171
 2688 11e8 2A120000 		.4byte	0x122a
 2689 11ec 2A       		.uleb128 0x2a
 2690 11ed 420B0000 		.4byte	0xb42
 2691 11f1 00000000 		.4byte	.LBB142
 2692 11f5 06000000 		.4byte	.LBE142-.LBB142
 2693 11f9 01       		.byte	0x1
 2694 11fa 0901     		.2byte	0x109
 2695 11fc 24       		.uleb128 0x24
 2696 11fd 4F0B0000 		.4byte	0xb4f
 2697 1201 55020000 		.4byte	.LLST17
 2698 1205 25       		.uleb128 0x25
 2699 1206 06000000 		.4byte	.LVL29
 2700 120a 56130000 		.4byte	0x1356
 2701 120e 26       		.uleb128 0x26
 2702 120f 01       		.uleb128 0x1
 2703 1210 50       		.byte	0x50
 2704 1211 05       		.uleb128 0x5
 2705 1212 F3       		.byte	0xf3
 2706 1213 01       		.uleb128 0x1
 2707 1214 50       		.byte	0x50
 2708 1215 23       		.byte	0x23
 2709 1216 0C       		.uleb128 0xc
 2710 1217 00       		.byte	0
 2711 1218 00       		.byte	0
 2712 1219 00       		.byte	0
 2713 121a 17       		.uleb128 0x17
 2714 121b 88080000 		.4byte	0x888
 2715 121f 2A120000 		.4byte	0x122a
 2716 1223 18       		.uleb128 0x18
 2717 1224 7B040000 		.4byte	0x47b
 2718 1228 0D       		.byte	0xd
 2719 1229 00       		.byte	0
 2720 122a 16       		.uleb128 0x16
 2721 122b 1A120000 		.4byte	0x121a
 2722 122f 34       		.uleb128 0x34
 2723 1230 13010000 		.4byte	.LASF181
 2724 1234 01       		.byte	0x1
 2725 1235 1501     		.2byte	0x115
 2726 1237 00000000 		.4byte	.LFB331
 2727 123b 06000000 		.4byte	.LFE331-.LFB331
 2728 123f 01       		.uleb128 0x1
 2729 1240 9C       		.byte	0x9c
 2730 1241 8C120000 		.4byte	0x128c
 2731 1245 35       		.uleb128 0x35
 2732 1246 4C010000 		.4byte	.LASF169
 2733 124a 01       		.byte	0x1
 2734 124b 1501     		.2byte	0x115
 2735 124d E40B0000 		.4byte	0xbe4
 2736 1251 85020000 		.4byte	.LLST18
ARM GAS  /tmp/ccDt2b3x.s 			page 49


 2737 1255 28       		.uleb128 0x28
 2738 1256 63070000 		.4byte	.LASF171
 2739 125a 8C120000 		.4byte	0x128c
 2740 125e 2A       		.uleb128 0x2a
 2741 125f 5B0B0000 		.4byte	0xb5b
 2742 1263 00000000 		.4byte	.LBB144
 2743 1267 06000000 		.4byte	.LBE144-.LBB144
 2744 126b 01       		.byte	0x1
 2745 126c 1901     		.2byte	0x119
 2746 126e 24       		.uleb128 0x24
 2747 126f 680B0000 		.4byte	0xb68
 2748 1273 B3020000 		.4byte	.LLST19
 2749 1277 25       		.uleb128 0x25
 2750 1278 06000000 		.4byte	.LVL32
 2751 127c 67130000 		.4byte	0x1367
 2752 1280 26       		.uleb128 0x26
 2753 1281 01       		.uleb128 0x1
 2754 1282 50       		.byte	0x50
 2755 1283 05       		.uleb128 0x5
 2756 1284 F3       		.byte	0xf3
 2757 1285 01       		.uleb128 0x1
 2758 1286 50       		.byte	0x50
 2759 1287 23       		.byte	0x23
 2760 1288 0C       		.uleb128 0xc
 2761 1289 00       		.byte	0
 2762 128a 00       		.byte	0
 2763 128b 00       		.byte	0
 2764 128c 16       		.uleb128 0x16
 2765 128d 1A120000 		.4byte	0x121a
 2766 1291 36       		.uleb128 0x36
 2767 1292 3F010000 		.4byte	.LASF182
 2768 1296 16       		.byte	0x16
 2769 1297 0408     		.2byte	0x804
 2770 1299 9D120000 		.4byte	0x129d
 2771 129d 0F       		.uleb128 0xf
 2772 129e C3000000 		.4byte	0xc3
 2773 12a2 37       		.uleb128 0x37
 2774 12a3 636800   		.ascii	"ch\000"
 2775 12a6 0A       		.byte	0xa
 2776 12a7 C701     		.2byte	0x1c7
 2777 12a9 FF030000 		.4byte	0x3ff
 2778 12ad 38       		.uleb128 0x38
 2779 12ae F2080000 		.4byte	.LASF183
 2780 12b2 15       		.byte	0x15
 2781 12b3 F301     		.2byte	0x1f3
 2782 12b5 39       		.uleb128 0x39
 2783 12b6 84070000 		.4byte	.LASF186
 2784 12ba 12       		.byte	0x12
 2785 12bb 66       		.byte	0x66
 2786 12bc C6120000 		.4byte	0x12c6
 2787 12c0 0D       		.uleb128 0xd
 2788 12c1 AB080000 		.4byte	0x8ab
 2789 12c5 00       		.byte	0
 2790 12c6 3A       		.uleb128 0x3a
 2791 12c7 D7040000 		.4byte	.LASF184
 2792 12cb 10       		.byte	0x10
 2793 12cc 4F       		.byte	0x4f
ARM GAS  /tmp/ccDt2b3x.s 			page 50


 2794 12cd 3A       		.uleb128 0x3a
 2795 12ce 48040000 		.4byte	.LASF185
 2796 12d2 10       		.byte	0x10
 2797 12d3 50       		.byte	0x50
 2798 12d4 3B       		.uleb128 0x3b
 2799 12d5 3A040000 		.4byte	.LASF187
 2800 12d9 15       		.byte	0x15
 2801 12da F401     		.2byte	0x1f4
 2802 12dc E6120000 		.4byte	0x12e6
 2803 12e0 0D       		.uleb128 0xd
 2804 12e1 E40B0000 		.4byte	0xbe4
 2805 12e5 00       		.byte	0
 2806 12e6 3B       		.uleb128 0x3b
 2807 12e7 24040000 		.4byte	.LASF188
 2808 12eb 15       		.byte	0x15
 2809 12ec F501     		.2byte	0x1f5
 2810 12ee F8120000 		.4byte	0x12f8
 2811 12f2 0D       		.uleb128 0xd
 2812 12f3 E40B0000 		.4byte	0xbe4
 2813 12f7 00       		.byte	0
 2814 12f8 3C       		.uleb128 0x3c
 2815 12f9 C8010000 		.4byte	.LASF189
 2816 12fd 15       		.byte	0x15
 2817 12fe F601     		.2byte	0x1f6
 2818 1300 26010000 		.4byte	0x126
 2819 1304 2C130000 		.4byte	0x132c
 2820 1308 0D       		.uleb128 0xd
 2821 1309 E40B0000 		.4byte	0xbe4
 2822 130d 0D       		.uleb128 0xd
 2823 130e 8C090000 		.4byte	0x98c
 2824 1312 0D       		.uleb128 0xd
 2825 1313 3E090000 		.4byte	0x93e
 2826 1317 0D       		.uleb128 0xd
 2827 1318 2C000000 		.4byte	0x2c
 2828 131c 0D       		.uleb128 0xd
 2829 131d B8080000 		.4byte	0x8b8
 2830 1321 0D       		.uleb128 0xd
 2831 1322 2C000000 		.4byte	0x2c
 2832 1326 0D       		.uleb128 0xd
 2833 1327 70040000 		.4byte	0x470
 2834 132b 00       		.byte	0
 2835 132c 3C       		.uleb128 0x3c
 2836 132d A4000000 		.4byte	.LASF190
 2837 1331 15       		.byte	0x15
 2838 1332 FA01     		.2byte	0x1fa
 2839 1334 26010000 		.4byte	0x126
 2840 1338 56130000 		.4byte	0x1356
 2841 133c 0D       		.uleb128 0xd
 2842 133d E40B0000 		.4byte	0xbe4
 2843 1341 0D       		.uleb128 0xd
 2844 1342 8C090000 		.4byte	0x98c
 2845 1346 0D       		.uleb128 0xd
 2846 1347 B8080000 		.4byte	0x8b8
 2847 134b 0D       		.uleb128 0xd
 2848 134c 2C000000 		.4byte	0x2c
 2849 1350 0D       		.uleb128 0xd
 2850 1351 70040000 		.4byte	0x470
ARM GAS  /tmp/ccDt2b3x.s 			page 51


 2851 1355 00       		.byte	0
 2852 1356 39       		.uleb128 0x39
 2853 1357 F5040000 		.4byte	.LASF191
 2854 135b 12       		.byte	0x12
 2855 135c 67       		.byte	0x67
 2856 135d 67130000 		.4byte	0x1367
 2857 1361 0D       		.uleb128 0xd
 2858 1362 AB080000 		.4byte	0x8ab
 2859 1366 00       		.byte	0
 2860 1367 3D       		.uleb128 0x3d
 2861 1368 9E010000 		.4byte	.LASF195
 2862 136c 12       		.byte	0x12
 2863 136d 6B       		.byte	0x6b
 2864 136e 0D       		.uleb128 0xd
 2865 136f AB080000 		.4byte	0x8ab
 2866 1373 00       		.byte	0
 2867 1374 00       		.byte	0
 2868              		.section	.debug_abbrev,"",%progbits
 2869              	.Ldebug_abbrev0:
 2870 0000 01       		.uleb128 0x1
 2871 0001 11       		.uleb128 0x11
 2872 0002 01       		.byte	0x1
 2873 0003 25       		.uleb128 0x25
 2874 0004 0E       		.uleb128 0xe
 2875 0005 13       		.uleb128 0x13
 2876 0006 0B       		.uleb128 0xb
 2877 0007 03       		.uleb128 0x3
 2878 0008 0E       		.uleb128 0xe
 2879 0009 1B       		.uleb128 0x1b
 2880 000a 0E       		.uleb128 0xe
 2881 000b 55       		.uleb128 0x55
 2882 000c 17       		.uleb128 0x17
 2883 000d 11       		.uleb128 0x11
 2884 000e 01       		.uleb128 0x1
 2885 000f 10       		.uleb128 0x10
 2886 0010 17       		.uleb128 0x17
 2887 0011 00       		.byte	0
 2888 0012 00       		.byte	0
 2889 0013 02       		.uleb128 0x2
 2890 0014 24       		.uleb128 0x24
 2891 0015 00       		.byte	0
 2892 0016 0B       		.uleb128 0xb
 2893 0017 0B       		.uleb128 0xb
 2894 0018 3E       		.uleb128 0x3e
 2895 0019 0B       		.uleb128 0xb
 2896 001a 03       		.uleb128 0x3
 2897 001b 08       		.uleb128 0x8
 2898 001c 00       		.byte	0
 2899 001d 00       		.byte	0
 2900 001e 03       		.uleb128 0x3
 2901 001f 16       		.uleb128 0x16
 2902 0020 00       		.byte	0
 2903 0021 03       		.uleb128 0x3
 2904 0022 0E       		.uleb128 0xe
 2905 0023 3A       		.uleb128 0x3a
 2906 0024 0B       		.uleb128 0xb
 2907 0025 3B       		.uleb128 0x3b
ARM GAS  /tmp/ccDt2b3x.s 			page 52


 2908 0026 0B       		.uleb128 0xb
 2909 0027 49       		.uleb128 0x49
 2910 0028 13       		.uleb128 0x13
 2911 0029 00       		.byte	0
 2912 002a 00       		.byte	0
 2913 002b 04       		.uleb128 0x4
 2914 002c 24       		.uleb128 0x24
 2915 002d 00       		.byte	0
 2916 002e 0B       		.uleb128 0xb
 2917 002f 0B       		.uleb128 0xb
 2918 0030 3E       		.uleb128 0x3e
 2919 0031 0B       		.uleb128 0xb
 2920 0032 03       		.uleb128 0x3
 2921 0033 0E       		.uleb128 0xe
 2922 0034 00       		.byte	0
 2923 0035 00       		.byte	0
 2924 0036 05       		.uleb128 0x5
 2925 0037 13       		.uleb128 0x13
 2926 0038 01       		.byte	0x1
 2927 0039 03       		.uleb128 0x3
 2928 003a 0E       		.uleb128 0xe
 2929 003b 0B       		.uleb128 0xb
 2930 003c 0B       		.uleb128 0xb
 2931 003d 3A       		.uleb128 0x3a
 2932 003e 0B       		.uleb128 0xb
 2933 003f 3B       		.uleb128 0x3b
 2934 0040 0B       		.uleb128 0xb
 2935 0041 01       		.uleb128 0x1
 2936 0042 13       		.uleb128 0x13
 2937 0043 00       		.byte	0
 2938 0044 00       		.byte	0
 2939 0045 06       		.uleb128 0x6
 2940 0046 0D       		.uleb128 0xd
 2941 0047 00       		.byte	0
 2942 0048 03       		.uleb128 0x3
 2943 0049 0E       		.uleb128 0xe
 2944 004a 3A       		.uleb128 0x3a
 2945 004b 0B       		.uleb128 0xb
 2946 004c 3B       		.uleb128 0x3b
 2947 004d 0B       		.uleb128 0xb
 2948 004e 49       		.uleb128 0x49
 2949 004f 13       		.uleb128 0x13
 2950 0050 38       		.uleb128 0x38
 2951 0051 0B       		.uleb128 0xb
 2952 0052 00       		.byte	0
 2953 0053 00       		.byte	0
 2954 0054 07       		.uleb128 0x7
 2955 0055 0D       		.uleb128 0xd
 2956 0056 00       		.byte	0
 2957 0057 03       		.uleb128 0x3
 2958 0058 08       		.uleb128 0x8
 2959 0059 3A       		.uleb128 0x3a
 2960 005a 0B       		.uleb128 0xb
 2961 005b 3B       		.uleb128 0x3b
 2962 005c 0B       		.uleb128 0xb
 2963 005d 49       		.uleb128 0x49
 2964 005e 13       		.uleb128 0x13
ARM GAS  /tmp/ccDt2b3x.s 			page 53


 2965 005f 38       		.uleb128 0x38
 2966 0060 0B       		.uleb128 0xb
 2967 0061 00       		.byte	0
 2968 0062 00       		.byte	0
 2969 0063 08       		.uleb128 0x8
 2970 0064 0D       		.uleb128 0xd
 2971 0065 00       		.byte	0
 2972 0066 03       		.uleb128 0x3
 2973 0067 08       		.uleb128 0x8
 2974 0068 3A       		.uleb128 0x3a
 2975 0069 0B       		.uleb128 0xb
 2976 006a 3B       		.uleb128 0x3b
 2977 006b 05       		.uleb128 0x5
 2978 006c 49       		.uleb128 0x49
 2979 006d 13       		.uleb128 0x13
 2980 006e 38       		.uleb128 0x38
 2981 006f 0B       		.uleb128 0xb
 2982 0070 00       		.byte	0
 2983 0071 00       		.byte	0
 2984 0072 09       		.uleb128 0x9
 2985 0073 0D       		.uleb128 0xd
 2986 0074 00       		.byte	0
 2987 0075 03       		.uleb128 0x3
 2988 0076 0E       		.uleb128 0xe
 2989 0077 3A       		.uleb128 0x3a
 2990 0078 0B       		.uleb128 0xb
 2991 0079 3B       		.uleb128 0x3b
 2992 007a 05       		.uleb128 0x5
 2993 007b 49       		.uleb128 0x49
 2994 007c 13       		.uleb128 0x13
 2995 007d 38       		.uleb128 0x38
 2996 007e 0B       		.uleb128 0xb
 2997 007f 00       		.byte	0
 2998 0080 00       		.byte	0
 2999 0081 0A       		.uleb128 0xa
 3000 0082 0F       		.uleb128 0xf
 3001 0083 00       		.byte	0
 3002 0084 0B       		.uleb128 0xb
 3003 0085 0B       		.uleb128 0xb
 3004 0086 49       		.uleb128 0x49
 3005 0087 13       		.uleb128 0x13
 3006 0088 00       		.byte	0
 3007 0089 00       		.byte	0
 3008 008a 0B       		.uleb128 0xb
 3009 008b 13       		.uleb128 0x13
 3010 008c 01       		.byte	0x1
 3011 008d 03       		.uleb128 0x3
 3012 008e 0E       		.uleb128 0xe
 3013 008f 0B       		.uleb128 0xb
 3014 0090 0B       		.uleb128 0xb
 3015 0091 3A       		.uleb128 0x3a
 3016 0092 0B       		.uleb128 0xb
 3017 0093 3B       		.uleb128 0x3b
 3018 0094 05       		.uleb128 0x5
 3019 0095 01       		.uleb128 0x1
 3020 0096 13       		.uleb128 0x13
 3021 0097 00       		.byte	0
ARM GAS  /tmp/ccDt2b3x.s 			page 54


 3022 0098 00       		.byte	0
 3023 0099 0C       		.uleb128 0xc
 3024 009a 15       		.uleb128 0x15
 3025 009b 01       		.byte	0x1
 3026 009c 27       		.uleb128 0x27
 3027 009d 19       		.uleb128 0x19
 3028 009e 01       		.uleb128 0x1
 3029 009f 13       		.uleb128 0x13
 3030 00a0 00       		.byte	0
 3031 00a1 00       		.byte	0
 3032 00a2 0D       		.uleb128 0xd
 3033 00a3 05       		.uleb128 0x5
 3034 00a4 00       		.byte	0
 3035 00a5 49       		.uleb128 0x49
 3036 00a6 13       		.uleb128 0x13
 3037 00a7 00       		.byte	0
 3038 00a8 00       		.byte	0
 3039 00a9 0E       		.uleb128 0xe
 3040 00aa 0F       		.uleb128 0xf
 3041 00ab 00       		.byte	0
 3042 00ac 0B       		.uleb128 0xb
 3043 00ad 0B       		.uleb128 0xb
 3044 00ae 00       		.byte	0
 3045 00af 00       		.byte	0
 3046 00b0 0F       		.uleb128 0xf
 3047 00b1 35       		.uleb128 0x35
 3048 00b2 00       		.byte	0
 3049 00b3 49       		.uleb128 0x49
 3050 00b4 13       		.uleb128 0x13
 3051 00b5 00       		.byte	0
 3052 00b6 00       		.byte	0
 3053 00b7 10       		.uleb128 0x10
 3054 00b8 13       		.uleb128 0x13
 3055 00b9 01       		.byte	0x1
 3056 00ba 0B       		.uleb128 0xb
 3057 00bb 0B       		.uleb128 0xb
 3058 00bc 3A       		.uleb128 0x3a
 3059 00bd 0B       		.uleb128 0xb
 3060 00be 3B       		.uleb128 0x3b
 3061 00bf 05       		.uleb128 0x5
 3062 00c0 01       		.uleb128 0x1
 3063 00c1 13       		.uleb128 0x13
 3064 00c2 00       		.byte	0
 3065 00c3 00       		.byte	0
 3066 00c4 11       		.uleb128 0x11
 3067 00c5 16       		.uleb128 0x16
 3068 00c6 00       		.byte	0
 3069 00c7 03       		.uleb128 0x3
 3070 00c8 0E       		.uleb128 0xe
 3071 00c9 3A       		.uleb128 0x3a
 3072 00ca 0B       		.uleb128 0xb
 3073 00cb 3B       		.uleb128 0x3b
 3074 00cc 05       		.uleb128 0x5
 3075 00cd 49       		.uleb128 0x49
 3076 00ce 13       		.uleb128 0x13
 3077 00cf 00       		.byte	0
 3078 00d0 00       		.byte	0
ARM GAS  /tmp/ccDt2b3x.s 			page 55


 3079 00d1 12       		.uleb128 0x12
 3080 00d2 13       		.uleb128 0x13
 3081 00d3 01       		.byte	0x1
 3082 00d4 0B       		.uleb128 0xb
 3083 00d5 0B       		.uleb128 0xb
 3084 00d6 3A       		.uleb128 0x3a
 3085 00d7 0B       		.uleb128 0xb
 3086 00d8 3B       		.uleb128 0x3b
 3087 00d9 0B       		.uleb128 0xb
 3088 00da 01       		.uleb128 0x1
 3089 00db 13       		.uleb128 0x13
 3090 00dc 00       		.byte	0
 3091 00dd 00       		.byte	0
 3092 00de 13       		.uleb128 0x13
 3093 00df 17       		.uleb128 0x17
 3094 00e0 01       		.byte	0x1
 3095 00e1 0B       		.uleb128 0xb
 3096 00e2 0B       		.uleb128 0xb
 3097 00e3 3A       		.uleb128 0x3a
 3098 00e4 0B       		.uleb128 0xb
 3099 00e5 3B       		.uleb128 0x3b
 3100 00e6 0B       		.uleb128 0xb
 3101 00e7 01       		.uleb128 0x1
 3102 00e8 13       		.uleb128 0x13
 3103 00e9 00       		.byte	0
 3104 00ea 00       		.byte	0
 3105 00eb 14       		.uleb128 0x14
 3106 00ec 0D       		.uleb128 0xd
 3107 00ed 00       		.byte	0
 3108 00ee 03       		.uleb128 0x3
 3109 00ef 0E       		.uleb128 0xe
 3110 00f0 3A       		.uleb128 0x3a
 3111 00f1 0B       		.uleb128 0xb
 3112 00f2 3B       		.uleb128 0x3b
 3113 00f3 0B       		.uleb128 0xb
 3114 00f4 49       		.uleb128 0x49
 3115 00f5 13       		.uleb128 0x13
 3116 00f6 00       		.byte	0
 3117 00f7 00       		.byte	0
 3118 00f8 15       		.uleb128 0x15
 3119 00f9 0D       		.uleb128 0xd
 3120 00fa 00       		.byte	0
 3121 00fb 03       		.uleb128 0x3
 3122 00fc 0E       		.uleb128 0xe
 3123 00fd 3A       		.uleb128 0x3a
 3124 00fe 0B       		.uleb128 0xb
 3125 00ff 3B       		.uleb128 0x3b
 3126 0100 05       		.uleb128 0x5
 3127 0101 49       		.uleb128 0x49
 3128 0102 13       		.uleb128 0x13
 3129 0103 00       		.byte	0
 3130 0104 00       		.byte	0
 3131 0105 16       		.uleb128 0x16
 3132 0106 26       		.uleb128 0x26
 3133 0107 00       		.byte	0
 3134 0108 49       		.uleb128 0x49
 3135 0109 13       		.uleb128 0x13
ARM GAS  /tmp/ccDt2b3x.s 			page 56


 3136 010a 00       		.byte	0
 3137 010b 00       		.byte	0
 3138 010c 17       		.uleb128 0x17
 3139 010d 01       		.uleb128 0x1
 3140 010e 01       		.byte	0x1
 3141 010f 49       		.uleb128 0x49
 3142 0110 13       		.uleb128 0x13
 3143 0111 01       		.uleb128 0x1
 3144 0112 13       		.uleb128 0x13
 3145 0113 00       		.byte	0
 3146 0114 00       		.byte	0
 3147 0115 18       		.uleb128 0x18
 3148 0116 21       		.uleb128 0x21
 3149 0117 00       		.byte	0
 3150 0118 49       		.uleb128 0x49
 3151 0119 13       		.uleb128 0x13
 3152 011a 2F       		.uleb128 0x2f
 3153 011b 0B       		.uleb128 0xb
 3154 011c 00       		.byte	0
 3155 011d 00       		.byte	0
 3156 011e 19       		.uleb128 0x19
 3157 011f 04       		.uleb128 0x4
 3158 0120 01       		.byte	0x1
 3159 0121 0B       		.uleb128 0xb
 3160 0122 0B       		.uleb128 0xb
 3161 0123 3A       		.uleb128 0x3a
 3162 0124 0B       		.uleb128 0xb
 3163 0125 3B       		.uleb128 0x3b
 3164 0126 0B       		.uleb128 0xb
 3165 0127 01       		.uleb128 0x1
 3166 0128 13       		.uleb128 0x13
 3167 0129 00       		.byte	0
 3168 012a 00       		.byte	0
 3169 012b 1A       		.uleb128 0x1a
 3170 012c 28       		.uleb128 0x28
 3171 012d 00       		.byte	0
 3172 012e 03       		.uleb128 0x3
 3173 012f 0E       		.uleb128 0xe
 3174 0130 1C       		.uleb128 0x1c
 3175 0131 0D       		.uleb128 0xd
 3176 0132 00       		.byte	0
 3177 0133 00       		.byte	0
 3178 0134 1B       		.uleb128 0x1b
 3179 0135 04       		.uleb128 0x4
 3180 0136 01       		.byte	0x1
 3181 0137 0B       		.uleb128 0xb
 3182 0138 0B       		.uleb128 0xb
 3183 0139 3A       		.uleb128 0x3a
 3184 013a 0B       		.uleb128 0xb
 3185 013b 3B       		.uleb128 0x3b
 3186 013c 05       		.uleb128 0x5
 3187 013d 01       		.uleb128 0x1
 3188 013e 13       		.uleb128 0x13
 3189 013f 00       		.byte	0
 3190 0140 00       		.byte	0
 3191 0141 1C       		.uleb128 0x1c
 3192 0142 2E       		.uleb128 0x2e
ARM GAS  /tmp/ccDt2b3x.s 			page 57


 3193 0143 01       		.byte	0x1
 3194 0144 03       		.uleb128 0x3
 3195 0145 0E       		.uleb128 0xe
 3196 0146 3A       		.uleb128 0x3a
 3197 0147 0B       		.uleb128 0xb
 3198 0148 3B       		.uleb128 0x3b
 3199 0149 05       		.uleb128 0x5
 3200 014a 27       		.uleb128 0x27
 3201 014b 19       		.uleb128 0x19
 3202 014c 20       		.uleb128 0x20
 3203 014d 0B       		.uleb128 0xb
 3204 014e 01       		.uleb128 0x1
 3205 014f 13       		.uleb128 0x13
 3206 0150 00       		.byte	0
 3207 0151 00       		.byte	0
 3208 0152 1D       		.uleb128 0x1d
 3209 0153 05       		.uleb128 0x5
 3210 0154 00       		.byte	0
 3211 0155 03       		.uleb128 0x3
 3212 0156 0E       		.uleb128 0xe
 3213 0157 3A       		.uleb128 0x3a
 3214 0158 0B       		.uleb128 0xb
 3215 0159 3B       		.uleb128 0x3b
 3216 015a 05       		.uleb128 0x5
 3217 015b 49       		.uleb128 0x49
 3218 015c 13       		.uleb128 0x13
 3219 015d 00       		.byte	0
 3220 015e 00       		.byte	0
 3221 015f 1E       		.uleb128 0x1e
 3222 0160 2E       		.uleb128 0x2e
 3223 0161 00       		.byte	0
 3224 0162 03       		.uleb128 0x3
 3225 0163 0E       		.uleb128 0xe
 3226 0164 3A       		.uleb128 0x3a
 3227 0165 0B       		.uleb128 0xb
 3228 0166 3B       		.uleb128 0x3b
 3229 0167 05       		.uleb128 0x5
 3230 0168 27       		.uleb128 0x27
 3231 0169 19       		.uleb128 0x19
 3232 016a 20       		.uleb128 0x20
 3233 016b 0B       		.uleb128 0xb
 3234 016c 00       		.byte	0
 3235 016d 00       		.byte	0
 3236 016e 1F       		.uleb128 0x1f
 3237 016f 05       		.uleb128 0x5
 3238 0170 00       		.byte	0
 3239 0171 03       		.uleb128 0x3
 3240 0172 08       		.uleb128 0x8
 3241 0173 3A       		.uleb128 0x3a
 3242 0174 0B       		.uleb128 0xb
 3243 0175 3B       		.uleb128 0x3b
 3244 0176 05       		.uleb128 0x5
 3245 0177 49       		.uleb128 0x49
 3246 0178 13       		.uleb128 0x13
 3247 0179 00       		.byte	0
 3248 017a 00       		.byte	0
 3249 017b 20       		.uleb128 0x20
ARM GAS  /tmp/ccDt2b3x.s 			page 58


 3250 017c 2E       		.uleb128 0x2e
 3251 017d 01       		.byte	0x1
 3252 017e 3F       		.uleb128 0x3f
 3253 017f 19       		.uleb128 0x19
 3254 0180 03       		.uleb128 0x3
 3255 0181 0E       		.uleb128 0xe
 3256 0182 3A       		.uleb128 0x3a
 3257 0183 0B       		.uleb128 0xb
 3258 0184 3B       		.uleb128 0x3b
 3259 0185 0B       		.uleb128 0xb
 3260 0186 27       		.uleb128 0x27
 3261 0187 19       		.uleb128 0x19
 3262 0188 11       		.uleb128 0x11
 3263 0189 01       		.uleb128 0x1
 3264 018a 12       		.uleb128 0x12
 3265 018b 06       		.uleb128 0x6
 3266 018c 40       		.uleb128 0x40
 3267 018d 18       		.uleb128 0x18
 3268 018e 9742     		.uleb128 0x2117
 3269 0190 19       		.uleb128 0x19
 3270 0191 01       		.uleb128 0x1
 3271 0192 13       		.uleb128 0x13
 3272 0193 00       		.byte	0
 3273 0194 00       		.byte	0
 3274 0195 21       		.uleb128 0x21
 3275 0196 898201   		.uleb128 0x4109
 3276 0199 00       		.byte	0
 3277 019a 11       		.uleb128 0x11
 3278 019b 01       		.uleb128 0x1
 3279 019c 9542     		.uleb128 0x2115
 3280 019e 19       		.uleb128 0x19
 3281 019f 31       		.uleb128 0x31
 3282 01a0 13       		.uleb128 0x13
 3283 01a1 00       		.byte	0
 3284 01a2 00       		.byte	0
 3285 01a3 22       		.uleb128 0x22
 3286 01a4 05       		.uleb128 0x5
 3287 01a5 00       		.byte	0
 3288 01a6 03       		.uleb128 0x3
 3289 01a7 0E       		.uleb128 0xe
 3290 01a8 3A       		.uleb128 0x3a
 3291 01a9 0B       		.uleb128 0xb
 3292 01aa 3B       		.uleb128 0x3b
 3293 01ab 0B       		.uleb128 0xb
 3294 01ac 49       		.uleb128 0x49
 3295 01ad 13       		.uleb128 0x13
 3296 01ae 02       		.uleb128 0x2
 3297 01af 17       		.uleb128 0x17
 3298 01b0 00       		.byte	0
 3299 01b1 00       		.byte	0
 3300 01b2 23       		.uleb128 0x23
 3301 01b3 1D       		.uleb128 0x1d
 3302 01b4 01       		.byte	0x1
 3303 01b5 31       		.uleb128 0x31
 3304 01b6 13       		.uleb128 0x13
 3305 01b7 11       		.uleb128 0x11
 3306 01b8 01       		.uleb128 0x1
ARM GAS  /tmp/ccDt2b3x.s 			page 59


 3307 01b9 12       		.uleb128 0x12
 3308 01ba 06       		.uleb128 0x6
 3309 01bb 58       		.uleb128 0x58
 3310 01bc 0B       		.uleb128 0xb
 3311 01bd 59       		.uleb128 0x59
 3312 01be 0B       		.uleb128 0xb
 3313 01bf 00       		.byte	0
 3314 01c0 00       		.byte	0
 3315 01c1 24       		.uleb128 0x24
 3316 01c2 05       		.uleb128 0x5
 3317 01c3 00       		.byte	0
 3318 01c4 31       		.uleb128 0x31
 3319 01c5 13       		.uleb128 0x13
 3320 01c6 02       		.uleb128 0x2
 3321 01c7 17       		.uleb128 0x17
 3322 01c8 00       		.byte	0
 3323 01c9 00       		.byte	0
 3324 01ca 25       		.uleb128 0x25
 3325 01cb 898201   		.uleb128 0x4109
 3326 01ce 01       		.byte	0x1
 3327 01cf 11       		.uleb128 0x11
 3328 01d0 01       		.uleb128 0x1
 3329 01d1 9542     		.uleb128 0x2115
 3330 01d3 19       		.uleb128 0x19
 3331 01d4 31       		.uleb128 0x31
 3332 01d5 13       		.uleb128 0x13
 3333 01d6 00       		.byte	0
 3334 01d7 00       		.byte	0
 3335 01d8 26       		.uleb128 0x26
 3336 01d9 8A8201   		.uleb128 0x410a
 3337 01dc 00       		.byte	0
 3338 01dd 02       		.uleb128 0x2
 3339 01de 18       		.uleb128 0x18
 3340 01df 9142     		.uleb128 0x2111
 3341 01e1 18       		.uleb128 0x18
 3342 01e2 00       		.byte	0
 3343 01e3 00       		.byte	0
 3344 01e4 27       		.uleb128 0x27
 3345 01e5 34       		.uleb128 0x34
 3346 01e6 00       		.byte	0
 3347 01e7 03       		.uleb128 0x3
 3348 01e8 0E       		.uleb128 0xe
 3349 01e9 49       		.uleb128 0x49
 3350 01ea 13       		.uleb128 0x13
 3351 01eb 34       		.uleb128 0x34
 3352 01ec 19       		.uleb128 0x19
 3353 01ed 1C       		.uleb128 0x1c
 3354 01ee 0E       		.uleb128 0xe
 3355 01ef 00       		.byte	0
 3356 01f0 00       		.byte	0
 3357 01f1 28       		.uleb128 0x28
 3358 01f2 34       		.uleb128 0x34
 3359 01f3 00       		.byte	0
 3360 01f4 03       		.uleb128 0x3
 3361 01f5 0E       		.uleb128 0xe
 3362 01f6 49       		.uleb128 0x49
 3363 01f7 13       		.uleb128 0x13
ARM GAS  /tmp/ccDt2b3x.s 			page 60


 3364 01f8 34       		.uleb128 0x34
 3365 01f9 19       		.uleb128 0x19
 3366 01fa 00       		.byte	0
 3367 01fb 00       		.byte	0
 3368 01fc 29       		.uleb128 0x29
 3369 01fd 1D       		.uleb128 0x1d
 3370 01fe 01       		.byte	0x1
 3371 01ff 31       		.uleb128 0x31
 3372 0200 13       		.uleb128 0x13
 3373 0201 11       		.uleb128 0x11
 3374 0202 01       		.uleb128 0x1
 3375 0203 12       		.uleb128 0x12
 3376 0204 06       		.uleb128 0x6
 3377 0205 58       		.uleb128 0x58
 3378 0206 0B       		.uleb128 0xb
 3379 0207 59       		.uleb128 0x59
 3380 0208 0B       		.uleb128 0xb
 3381 0209 01       		.uleb128 0x1
 3382 020a 13       		.uleb128 0x13
 3383 020b 00       		.byte	0
 3384 020c 00       		.byte	0
 3385 020d 2A       		.uleb128 0x2a
 3386 020e 1D       		.uleb128 0x1d
 3387 020f 01       		.byte	0x1
 3388 0210 31       		.uleb128 0x31
 3389 0211 13       		.uleb128 0x13
 3390 0212 11       		.uleb128 0x11
 3391 0213 01       		.uleb128 0x1
 3392 0214 12       		.uleb128 0x12
 3393 0215 06       		.uleb128 0x6
 3394 0216 58       		.uleb128 0x58
 3395 0217 0B       		.uleb128 0xb
 3396 0218 59       		.uleb128 0x59
 3397 0219 05       		.uleb128 0x5
 3398 021a 00       		.byte	0
 3399 021b 00       		.byte	0
 3400 021c 2B       		.uleb128 0x2b
 3401 021d 1D       		.uleb128 0x1d
 3402 021e 01       		.byte	0x1
 3403 021f 31       		.uleb128 0x31
 3404 0220 13       		.uleb128 0x13
 3405 0221 11       		.uleb128 0x11
 3406 0222 01       		.uleb128 0x1
 3407 0223 12       		.uleb128 0x12
 3408 0224 06       		.uleb128 0x6
 3409 0225 58       		.uleb128 0x58
 3410 0226 0B       		.uleb128 0xb
 3411 0227 59       		.uleb128 0x59
 3412 0228 05       		.uleb128 0x5
 3413 0229 01       		.uleb128 0x1
 3414 022a 13       		.uleb128 0x13
 3415 022b 00       		.byte	0
 3416 022c 00       		.byte	0
 3417 022d 2C       		.uleb128 0x2c
 3418 022e 05       		.uleb128 0x5
 3419 022f 00       		.byte	0
 3420 0230 31       		.uleb128 0x31
ARM GAS  /tmp/ccDt2b3x.s 			page 61


 3421 0231 13       		.uleb128 0x13
 3422 0232 1C       		.uleb128 0x1c
 3423 0233 0B       		.uleb128 0xb
 3424 0234 00       		.byte	0
 3425 0235 00       		.byte	0
 3426 0236 2D       		.uleb128 0x2d
 3427 0237 898201   		.uleb128 0x4109
 3428 023a 00       		.byte	0
 3429 023b 11       		.uleb128 0x11
 3430 023c 01       		.uleb128 0x1
 3431 023d 31       		.uleb128 0x31
 3432 023e 13       		.uleb128 0x13
 3433 023f 00       		.byte	0
 3434 0240 00       		.byte	0
 3435 0241 2E       		.uleb128 0x2e
 3436 0242 0B       		.uleb128 0xb
 3437 0243 01       		.byte	0x1
 3438 0244 11       		.uleb128 0x11
 3439 0245 01       		.uleb128 0x1
 3440 0246 12       		.uleb128 0x12
 3441 0247 06       		.uleb128 0x6
 3442 0248 00       		.byte	0
 3443 0249 00       		.byte	0
 3444 024a 2F       		.uleb128 0x2f
 3445 024b 34       		.uleb128 0x34
 3446 024c 00       		.byte	0
 3447 024d 31       		.uleb128 0x31
 3448 024e 13       		.uleb128 0x13
 3449 024f 00       		.byte	0
 3450 0250 00       		.byte	0
 3451 0251 30       		.uleb128 0x30
 3452 0252 898201   		.uleb128 0x4109
 3453 0255 01       		.byte	0x1
 3454 0256 11       		.uleb128 0x11
 3455 0257 01       		.uleb128 0x1
 3456 0258 31       		.uleb128 0x31
 3457 0259 13       		.uleb128 0x13
 3458 025a 00       		.byte	0
 3459 025b 00       		.byte	0
 3460 025c 31       		.uleb128 0x31
 3461 025d 2E       		.uleb128 0x2e
 3462 025e 01       		.byte	0x1
 3463 025f 3F       		.uleb128 0x3f
 3464 0260 19       		.uleb128 0x19
 3465 0261 03       		.uleb128 0x3
 3466 0262 0E       		.uleb128 0xe
 3467 0263 3A       		.uleb128 0x3a
 3468 0264 0B       		.uleb128 0xb
 3469 0265 3B       		.uleb128 0x3b
 3470 0266 0B       		.uleb128 0xb
 3471 0267 27       		.uleb128 0x27
 3472 0268 19       		.uleb128 0x19
 3473 0269 49       		.uleb128 0x49
 3474 026a 13       		.uleb128 0x13
 3475 026b 11       		.uleb128 0x11
 3476 026c 01       		.uleb128 0x1
 3477 026d 12       		.uleb128 0x12
ARM GAS  /tmp/ccDt2b3x.s 			page 62


 3478 026e 06       		.uleb128 0x6
 3479 026f 40       		.uleb128 0x40
 3480 0270 18       		.uleb128 0x18
 3481 0271 9742     		.uleb128 0x2117
 3482 0273 19       		.uleb128 0x19
 3483 0274 01       		.uleb128 0x1
 3484 0275 13       		.uleb128 0x13
 3485 0276 00       		.byte	0
 3486 0277 00       		.byte	0
 3487 0278 32       		.uleb128 0x32
 3488 0279 05       		.uleb128 0x5
 3489 027a 00       		.byte	0
 3490 027b 03       		.uleb128 0x3
 3491 027c 0E       		.uleb128 0xe
 3492 027d 3A       		.uleb128 0x3a
 3493 027e 0B       		.uleb128 0xb
 3494 027f 3B       		.uleb128 0x3b
 3495 0280 0B       		.uleb128 0xb
 3496 0281 49       		.uleb128 0x49
 3497 0282 13       		.uleb128 0x13
 3498 0283 02       		.uleb128 0x2
 3499 0284 18       		.uleb128 0x18
 3500 0285 00       		.byte	0
 3501 0286 00       		.byte	0
 3502 0287 33       		.uleb128 0x33
 3503 0288 34       		.uleb128 0x34
 3504 0289 00       		.byte	0
 3505 028a 03       		.uleb128 0x3
 3506 028b 0E       		.uleb128 0xe
 3507 028c 3A       		.uleb128 0x3a
 3508 028d 0B       		.uleb128 0xb
 3509 028e 3B       		.uleb128 0x3b
 3510 028f 0B       		.uleb128 0xb
 3511 0290 49       		.uleb128 0x49
 3512 0291 13       		.uleb128 0x13
 3513 0292 02       		.uleb128 0x2
 3514 0293 17       		.uleb128 0x17
 3515 0294 00       		.byte	0
 3516 0295 00       		.byte	0
 3517 0296 34       		.uleb128 0x34
 3518 0297 2E       		.uleb128 0x2e
 3519 0298 01       		.byte	0x1
 3520 0299 3F       		.uleb128 0x3f
 3521 029a 19       		.uleb128 0x19
 3522 029b 03       		.uleb128 0x3
 3523 029c 0E       		.uleb128 0xe
 3524 029d 3A       		.uleb128 0x3a
 3525 029e 0B       		.uleb128 0xb
 3526 029f 3B       		.uleb128 0x3b
 3527 02a0 05       		.uleb128 0x5
 3528 02a1 27       		.uleb128 0x27
 3529 02a2 19       		.uleb128 0x19
 3530 02a3 11       		.uleb128 0x11
 3531 02a4 01       		.uleb128 0x1
 3532 02a5 12       		.uleb128 0x12
 3533 02a6 06       		.uleb128 0x6
 3534 02a7 40       		.uleb128 0x40
ARM GAS  /tmp/ccDt2b3x.s 			page 63


 3535 02a8 18       		.uleb128 0x18
 3536 02a9 9742     		.uleb128 0x2117
 3537 02ab 19       		.uleb128 0x19
 3538 02ac 01       		.uleb128 0x1
 3539 02ad 13       		.uleb128 0x13
 3540 02ae 00       		.byte	0
 3541 02af 00       		.byte	0
 3542 02b0 35       		.uleb128 0x35
 3543 02b1 05       		.uleb128 0x5
 3544 02b2 00       		.byte	0
 3545 02b3 03       		.uleb128 0x3
 3546 02b4 0E       		.uleb128 0xe
 3547 02b5 3A       		.uleb128 0x3a
 3548 02b6 0B       		.uleb128 0xb
 3549 02b7 3B       		.uleb128 0x3b
 3550 02b8 05       		.uleb128 0x5
 3551 02b9 49       		.uleb128 0x49
 3552 02ba 13       		.uleb128 0x13
 3553 02bb 02       		.uleb128 0x2
 3554 02bc 17       		.uleb128 0x17
 3555 02bd 00       		.byte	0
 3556 02be 00       		.byte	0
 3557 02bf 36       		.uleb128 0x36
 3558 02c0 34       		.uleb128 0x34
 3559 02c1 00       		.byte	0
 3560 02c2 03       		.uleb128 0x3
 3561 02c3 0E       		.uleb128 0xe
 3562 02c4 3A       		.uleb128 0x3a
 3563 02c5 0B       		.uleb128 0xb
 3564 02c6 3B       		.uleb128 0x3b
 3565 02c7 05       		.uleb128 0x5
 3566 02c8 49       		.uleb128 0x49
 3567 02c9 13       		.uleb128 0x13
 3568 02ca 3F       		.uleb128 0x3f
 3569 02cb 19       		.uleb128 0x19
 3570 02cc 3C       		.uleb128 0x3c
 3571 02cd 19       		.uleb128 0x19
 3572 02ce 00       		.byte	0
 3573 02cf 00       		.byte	0
 3574 02d0 37       		.uleb128 0x37
 3575 02d1 34       		.uleb128 0x34
 3576 02d2 00       		.byte	0
 3577 02d3 03       		.uleb128 0x3
 3578 02d4 08       		.uleb128 0x8
 3579 02d5 3A       		.uleb128 0x3a
 3580 02d6 0B       		.uleb128 0xb
 3581 02d7 3B       		.uleb128 0x3b
 3582 02d8 05       		.uleb128 0x5
 3583 02d9 49       		.uleb128 0x49
 3584 02da 13       		.uleb128 0x13
 3585 02db 3F       		.uleb128 0x3f
 3586 02dc 19       		.uleb128 0x19
 3587 02dd 3C       		.uleb128 0x3c
 3588 02de 19       		.uleb128 0x19
 3589 02df 00       		.byte	0
 3590 02e0 00       		.byte	0
 3591 02e1 38       		.uleb128 0x38
ARM GAS  /tmp/ccDt2b3x.s 			page 64


 3592 02e2 2E       		.uleb128 0x2e
 3593 02e3 00       		.byte	0
 3594 02e4 3F       		.uleb128 0x3f
 3595 02e5 19       		.uleb128 0x19
 3596 02e6 03       		.uleb128 0x3
 3597 02e7 0E       		.uleb128 0xe
 3598 02e8 3A       		.uleb128 0x3a
 3599 02e9 0B       		.uleb128 0xb
 3600 02ea 3B       		.uleb128 0x3b
 3601 02eb 05       		.uleb128 0x5
 3602 02ec 27       		.uleb128 0x27
 3603 02ed 19       		.uleb128 0x19
 3604 02ee 3C       		.uleb128 0x3c
 3605 02ef 19       		.uleb128 0x19
 3606 02f0 00       		.byte	0
 3607 02f1 00       		.byte	0
 3608 02f2 39       		.uleb128 0x39
 3609 02f3 2E       		.uleb128 0x2e
 3610 02f4 01       		.byte	0x1
 3611 02f5 3F       		.uleb128 0x3f
 3612 02f6 19       		.uleb128 0x19
 3613 02f7 03       		.uleb128 0x3
 3614 02f8 0E       		.uleb128 0xe
 3615 02f9 3A       		.uleb128 0x3a
 3616 02fa 0B       		.uleb128 0xb
 3617 02fb 3B       		.uleb128 0x3b
 3618 02fc 0B       		.uleb128 0xb
 3619 02fd 27       		.uleb128 0x27
 3620 02fe 19       		.uleb128 0x19
 3621 02ff 3C       		.uleb128 0x3c
 3622 0300 19       		.uleb128 0x19
 3623 0301 01       		.uleb128 0x1
 3624 0302 13       		.uleb128 0x13
 3625 0303 00       		.byte	0
 3626 0304 00       		.byte	0
 3627 0305 3A       		.uleb128 0x3a
 3628 0306 2E       		.uleb128 0x2e
 3629 0307 00       		.byte	0
 3630 0308 3F       		.uleb128 0x3f
 3631 0309 19       		.uleb128 0x19
 3632 030a 03       		.uleb128 0x3
 3633 030b 0E       		.uleb128 0xe
 3634 030c 3A       		.uleb128 0x3a
 3635 030d 0B       		.uleb128 0xb
 3636 030e 3B       		.uleb128 0x3b
 3637 030f 0B       		.uleb128 0xb
 3638 0310 27       		.uleb128 0x27
 3639 0311 19       		.uleb128 0x19
 3640 0312 3C       		.uleb128 0x3c
 3641 0313 19       		.uleb128 0x19
 3642 0314 00       		.byte	0
 3643 0315 00       		.byte	0
 3644 0316 3B       		.uleb128 0x3b
 3645 0317 2E       		.uleb128 0x2e
 3646 0318 01       		.byte	0x1
 3647 0319 3F       		.uleb128 0x3f
 3648 031a 19       		.uleb128 0x19
ARM GAS  /tmp/ccDt2b3x.s 			page 65


 3649 031b 03       		.uleb128 0x3
 3650 031c 0E       		.uleb128 0xe
 3651 031d 3A       		.uleb128 0x3a
 3652 031e 0B       		.uleb128 0xb
 3653 031f 3B       		.uleb128 0x3b
 3654 0320 05       		.uleb128 0x5
 3655 0321 27       		.uleb128 0x27
 3656 0322 19       		.uleb128 0x19
 3657 0323 3C       		.uleb128 0x3c
 3658 0324 19       		.uleb128 0x19
 3659 0325 01       		.uleb128 0x1
 3660 0326 13       		.uleb128 0x13
 3661 0327 00       		.byte	0
 3662 0328 00       		.byte	0
 3663 0329 3C       		.uleb128 0x3c
 3664 032a 2E       		.uleb128 0x2e
 3665 032b 01       		.byte	0x1
 3666 032c 3F       		.uleb128 0x3f
 3667 032d 19       		.uleb128 0x19
 3668 032e 03       		.uleb128 0x3
 3669 032f 0E       		.uleb128 0xe
 3670 0330 3A       		.uleb128 0x3a
 3671 0331 0B       		.uleb128 0xb
 3672 0332 3B       		.uleb128 0x3b
 3673 0333 05       		.uleb128 0x5
 3674 0334 27       		.uleb128 0x27
 3675 0335 19       		.uleb128 0x19
 3676 0336 49       		.uleb128 0x49
 3677 0337 13       		.uleb128 0x13
 3678 0338 3C       		.uleb128 0x3c
 3679 0339 19       		.uleb128 0x19
 3680 033a 01       		.uleb128 0x1
 3681 033b 13       		.uleb128 0x13
 3682 033c 00       		.byte	0
 3683 033d 00       		.byte	0
 3684 033e 3D       		.uleb128 0x3d
 3685 033f 2E       		.uleb128 0x2e
 3686 0340 01       		.byte	0x1
 3687 0341 3F       		.uleb128 0x3f
 3688 0342 19       		.uleb128 0x19
 3689 0343 03       		.uleb128 0x3
 3690 0344 0E       		.uleb128 0xe
 3691 0345 3A       		.uleb128 0x3a
 3692 0346 0B       		.uleb128 0xb
 3693 0347 3B       		.uleb128 0x3b
 3694 0348 0B       		.uleb128 0xb
 3695 0349 27       		.uleb128 0x27
 3696 034a 19       		.uleb128 0x19
 3697 034b 3C       		.uleb128 0x3c
 3698 034c 19       		.uleb128 0x19
 3699 034d 00       		.byte	0
 3700 034e 00       		.byte	0
 3701 034f 00       		.byte	0
 3702              		.section	.debug_loc,"",%progbits
 3703              	.Ldebug_loc0:
 3704              	.LLST0:
 3705 0000 00000000 		.4byte	.LVL1
ARM GAS  /tmp/ccDt2b3x.s 			page 66


 3706 0004 0A000000 		.4byte	.LVL3
 3707 0008 0100     		.2byte	0x1
 3708 000a 50       		.byte	0x50
 3709 000b 0A000000 		.4byte	.LVL3
 3710 000f 0D000000 		.4byte	.LVL4-1
 3711 0013 0300     		.2byte	0x3
 3712 0015 70       		.byte	0x70
 3713 0016 74       		.sleb128 -12
 3714 0017 9F       		.byte	0x9f
 3715 0018 0D000000 		.4byte	.LVL4-1
 3716 001c 0E000000 		.4byte	.LFE324
 3717 0020 0400     		.2byte	0x4
 3718 0022 F3       		.byte	0xf3
 3719 0023 01       		.uleb128 0x1
 3720 0024 50       		.byte	0x50
 3721 0025 9F       		.byte	0x9f
 3722 0026 00000000 		.4byte	0
 3723 002a 00000000 		.4byte	0
 3724              	.LLST1:
 3725 002e 08000000 		.4byte	.LVL2
 3726 0032 0A000000 		.4byte	.LVL3
 3727 0036 0300     		.2byte	0x3
 3728 0038 70       		.byte	0x70
 3729 0039 0C       		.sleb128 12
 3730 003a 9F       		.byte	0x9f
 3731 003b 0A000000 		.4byte	.LVL3
 3732 003f 0D000000 		.4byte	.LVL4-1
 3733 0043 0100     		.2byte	0x1
 3734 0045 50       		.byte	0x50
 3735 0046 0D000000 		.4byte	.LVL4-1
 3736 004a 0E000000 		.4byte	.LFE324
 3737 004e 0600     		.2byte	0x6
 3738 0050 F3       		.byte	0xf3
 3739 0051 01       		.uleb128 0x1
 3740 0052 50       		.byte	0x50
 3741 0053 23       		.byte	0x23
 3742 0054 0C       		.uleb128 0xc
 3743 0055 9F       		.byte	0x9f
 3744 0056 00000000 		.4byte	0
 3745 005a 00000000 		.4byte	0
 3746              	.LLST2:
 3747 005e 00000000 		.4byte	.LVL5
 3748 0062 0F000000 		.4byte	.LVL6-1
 3749 0066 0100     		.2byte	0x1
 3750 0068 50       		.byte	0x50
 3751 0069 0F000000 		.4byte	.LVL6-1
 3752 006d 28000000 		.4byte	.LFE325
 3753 0071 0100     		.2byte	0x1
 3754 0073 54       		.byte	0x54
 3755 0074 00000000 		.4byte	0
 3756 0078 00000000 		.4byte	0
 3757              	.LLST3:
 3758 007c 00000000 		.4byte	.LVL5
 3759 0080 0F000000 		.4byte	.LVL6-1
 3760 0084 0100     		.2byte	0x1
 3761 0086 51       		.byte	0x51
 3762 0087 0F000000 		.4byte	.LVL6-1
ARM GAS  /tmp/ccDt2b3x.s 			page 67


 3763 008b 28000000 		.4byte	.LFE325
 3764 008f 0100     		.2byte	0x1
 3765 0091 55       		.byte	0x55
 3766 0092 00000000 		.4byte	0
 3767 0096 00000000 		.4byte	0
 3768              	.LLST4:
 3769 009a 00000000 		.4byte	.LVL9
 3770 009e 0D000000 		.4byte	.LVL10-1
 3771 00a2 0100     		.2byte	0x1
 3772 00a4 50       		.byte	0x50
 3773 00a5 0D000000 		.4byte	.LVL10-1
 3774 00a9 26000000 		.4byte	.LFE326
 3775 00ad 0100     		.2byte	0x1
 3776 00af 54       		.byte	0x54
 3777 00b0 00000000 		.4byte	0
 3778 00b4 00000000 		.4byte	0
 3779              	.LLST5:
 3780 00b8 00000000 		.4byte	.LVL13
 3781 00bc 02000000 		.4byte	.LVL14
 3782 00c0 0100     		.2byte	0x1
 3783 00c2 50       		.byte	0x50
 3784 00c3 02000000 		.4byte	.LVL14
 3785 00c7 04000000 		.4byte	.LFE327
 3786 00cb 0400     		.2byte	0x4
 3787 00cd F3       		.byte	0xf3
 3788 00ce 01       		.uleb128 0x1
 3789 00cf 50       		.byte	0x50
 3790 00d0 9F       		.byte	0x9f
 3791 00d1 00000000 		.4byte	0
 3792 00d5 00000000 		.4byte	0
 3793              	.LLST6:
 3794 00d9 00000000 		.4byte	.LVL15
 3795 00dd 15000000 		.4byte	.LVL17-1
 3796 00e1 0100     		.2byte	0x1
 3797 00e3 50       		.byte	0x50
 3798 00e4 15000000 		.4byte	.LVL17-1
 3799 00e8 52000000 		.4byte	.LFE328
 3800 00ec 0100     		.2byte	0x1
 3801 00ee 54       		.byte	0x54
 3802 00ef 00000000 		.4byte	0
 3803 00f3 00000000 		.4byte	0
 3804              	.LLST7:
 3805 00f7 00000000 		.4byte	.LVL15
 3806 00fb 15000000 		.4byte	.LVL17-1
 3807 00ff 0100     		.2byte	0x1
 3808 0101 51       		.byte	0x51
 3809 0102 15000000 		.4byte	.LVL17-1
 3810 0106 52000000 		.4byte	.LFE328
 3811 010a 0400     		.2byte	0x4
 3812 010c F3       		.byte	0xf3
 3813 010d 01       		.uleb128 0x1
 3814 010e 51       		.byte	0x51
 3815 010f 9F       		.byte	0x9f
 3816 0110 00000000 		.4byte	0
 3817 0114 00000000 		.4byte	0
 3818              	.LLST8:
 3819 0118 00000000 		.4byte	.LVL15
ARM GAS  /tmp/ccDt2b3x.s 			page 68


 3820 011c 15000000 		.4byte	.LVL17-1
 3821 0120 0100     		.2byte	0x1
 3822 0122 52       		.byte	0x52
 3823 0123 15000000 		.4byte	.LVL17-1
 3824 0127 52000000 		.4byte	.LFE328
 3825 012b 0100     		.2byte	0x1
 3826 012d 57       		.byte	0x57
 3827 012e 00000000 		.4byte	0
 3828 0132 00000000 		.4byte	0
 3829              	.LLST9:
 3830 0136 00000000 		.4byte	.LVL15
 3831 013a 0E000000 		.4byte	.LVL16
 3832 013e 0100     		.2byte	0x1
 3833 0140 53       		.byte	0x53
 3834 0141 0E000000 		.4byte	.LVL16
 3835 0145 42000000 		.4byte	.LVL19
 3836 0149 0100     		.2byte	0x1
 3837 014b 56       		.byte	0x56
 3838 014c 42000000 		.4byte	.LVL19
 3839 0150 52000000 		.4byte	.LFE328
 3840 0154 0400     		.2byte	0x4
 3841 0156 F3       		.byte	0xf3
 3842 0157 01       		.uleb128 0x1
 3843 0158 53       		.byte	0x53
 3844 0159 9F       		.byte	0x9f
 3845 015a 00000000 		.4byte	0
 3846 015e 00000000 		.4byte	0
 3847              	.LLST10:
 3848 0162 42000000 		.4byte	.LVL19
 3849 0166 45000000 		.4byte	.LVL20-1
 3850 016a 0100     		.2byte	0x1
 3851 016c 50       		.byte	0x50
 3852 016d 45000000 		.4byte	.LVL20-1
 3853 0171 52000000 		.4byte	.LFE328
 3854 0175 0100     		.2byte	0x1
 3855 0177 56       		.byte	0x56
 3856 0178 00000000 		.4byte	0
 3857 017c 00000000 		.4byte	0
 3858              	.LLST11:
 3859 0180 00000000 		.4byte	.LVL21
 3860 0184 15000000 		.4byte	.LVL23-1
 3861 0188 0100     		.2byte	0x1
 3862 018a 50       		.byte	0x50
 3863 018b 15000000 		.4byte	.LVL23-1
 3864 018f 4A000000 		.4byte	.LFE329
 3865 0193 0100     		.2byte	0x1
 3866 0195 54       		.byte	0x54
 3867 0196 00000000 		.4byte	0
 3868 019a 00000000 		.4byte	0
 3869              	.LLST12:
 3870 019e 00000000 		.4byte	.LVL21
 3871 01a2 15000000 		.4byte	.LVL23-1
 3872 01a6 0100     		.2byte	0x1
 3873 01a8 51       		.byte	0x51
 3874 01a9 15000000 		.4byte	.LVL23-1
 3875 01ad 4A000000 		.4byte	.LFE329
 3876 01b1 0400     		.2byte	0x4
ARM GAS  /tmp/ccDt2b3x.s 			page 69


 3877 01b3 F3       		.byte	0xf3
 3878 01b4 01       		.uleb128 0x1
 3879 01b5 51       		.byte	0x51
 3880 01b6 9F       		.byte	0x9f
 3881 01b7 00000000 		.4byte	0
 3882 01bb 00000000 		.4byte	0
 3883              	.LLST13:
 3884 01bf 00000000 		.4byte	.LVL21
 3885 01c3 15000000 		.4byte	.LVL23-1
 3886 01c7 0100     		.2byte	0x1
 3887 01c9 52       		.byte	0x52
 3888 01ca 15000000 		.4byte	.LVL23-1
 3889 01ce 4A000000 		.4byte	.LFE329
 3890 01d2 0100     		.2byte	0x1
 3891 01d4 57       		.byte	0x57
 3892 01d5 00000000 		.4byte	0
 3893 01d9 00000000 		.4byte	0
 3894              	.LLST14:
 3895 01dd 00000000 		.4byte	.LVL21
 3896 01e1 0E000000 		.4byte	.LVL22
 3897 01e5 0100     		.2byte	0x1
 3898 01e7 53       		.byte	0x53
 3899 01e8 0E000000 		.4byte	.LVL22
 3900 01ec 3A000000 		.4byte	.LVL25
 3901 01f0 0100     		.2byte	0x1
 3902 01f2 56       		.byte	0x56
 3903 01f3 3A000000 		.4byte	.LVL25
 3904 01f7 4A000000 		.4byte	.LFE329
 3905 01fb 0400     		.2byte	0x4
 3906 01fd F3       		.byte	0xf3
 3907 01fe 01       		.uleb128 0x1
 3908 01ff 53       		.byte	0x53
 3909 0200 9F       		.byte	0x9f
 3910 0201 00000000 		.4byte	0
 3911 0205 00000000 		.4byte	0
 3912              	.LLST15:
 3913 0209 3A000000 		.4byte	.LVL25
 3914 020d 3D000000 		.4byte	.LVL26-1
 3915 0211 0100     		.2byte	0x1
 3916 0213 50       		.byte	0x50
 3917 0214 3D000000 		.4byte	.LVL26-1
 3918 0218 4A000000 		.4byte	.LFE329
 3919 021c 0100     		.2byte	0x1
 3920 021e 56       		.byte	0x56
 3921 021f 00000000 		.4byte	0
 3922 0223 00000000 		.4byte	0
 3923              	.LLST16:
 3924 0227 00000000 		.4byte	.LVL27
 3925 022b 02000000 		.4byte	.LVL28
 3926 022f 0100     		.2byte	0x1
 3927 0231 50       		.byte	0x50
 3928 0232 02000000 		.4byte	.LVL28
 3929 0236 05000000 		.4byte	.LVL29-1
 3930 023a 0300     		.2byte	0x3
 3931 023c 70       		.byte	0x70
 3932 023d 74       		.sleb128 -12
 3933 023e 9F       		.byte	0x9f
ARM GAS  /tmp/ccDt2b3x.s 			page 70


 3934 023f 05000000 		.4byte	.LVL29-1
 3935 0243 06000000 		.4byte	.LFE330
 3936 0247 0400     		.2byte	0x4
 3937 0249 F3       		.byte	0xf3
 3938 024a 01       		.uleb128 0x1
 3939 024b 50       		.byte	0x50
 3940 024c 9F       		.byte	0x9f
 3941 024d 00000000 		.4byte	0
 3942 0251 00000000 		.4byte	0
 3943              	.LLST17:
 3944 0255 00000000 		.4byte	.LVL27
 3945 0259 02000000 		.4byte	.LVL28
 3946 025d 0300     		.2byte	0x3
 3947 025f 70       		.byte	0x70
 3948 0260 0C       		.sleb128 12
 3949 0261 9F       		.byte	0x9f
 3950 0262 02000000 		.4byte	.LVL28
 3951 0266 05000000 		.4byte	.LVL29-1
 3952 026a 0100     		.2byte	0x1
 3953 026c 50       		.byte	0x50
 3954 026d 05000000 		.4byte	.LVL29-1
 3955 0271 06000000 		.4byte	.LFE330
 3956 0275 0600     		.2byte	0x6
 3957 0277 F3       		.byte	0xf3
 3958 0278 01       		.uleb128 0x1
 3959 0279 50       		.byte	0x50
 3960 027a 23       		.byte	0x23
 3961 027b 0C       		.uleb128 0xc
 3962 027c 9F       		.byte	0x9f
 3963 027d 00000000 		.4byte	0
 3964 0281 00000000 		.4byte	0
 3965              	.LLST18:
 3966 0285 00000000 		.4byte	.LVL30
 3967 0289 02000000 		.4byte	.LVL31
 3968 028d 0100     		.2byte	0x1
 3969 028f 50       		.byte	0x50
 3970 0290 02000000 		.4byte	.LVL31
 3971 0294 05000000 		.4byte	.LVL32-1
 3972 0298 0300     		.2byte	0x3
 3973 029a 70       		.byte	0x70
 3974 029b 74       		.sleb128 -12
 3975 029c 9F       		.byte	0x9f
 3976 029d 05000000 		.4byte	.LVL32-1
 3977 02a1 06000000 		.4byte	.LFE331
 3978 02a5 0400     		.2byte	0x4
 3979 02a7 F3       		.byte	0xf3
 3980 02a8 01       		.uleb128 0x1
 3981 02a9 50       		.byte	0x50
 3982 02aa 9F       		.byte	0x9f
 3983 02ab 00000000 		.4byte	0
 3984 02af 00000000 		.4byte	0
 3985              	.LLST19:
 3986 02b3 00000000 		.4byte	.LVL30
 3987 02b7 02000000 		.4byte	.LVL31
 3988 02bb 0300     		.2byte	0x3
 3989 02bd 70       		.byte	0x70
 3990 02be 0C       		.sleb128 12
ARM GAS  /tmp/ccDt2b3x.s 			page 71


 3991 02bf 9F       		.byte	0x9f
 3992 02c0 02000000 		.4byte	.LVL31
 3993 02c4 05000000 		.4byte	.LVL32-1
 3994 02c8 0100     		.2byte	0x1
 3995 02ca 50       		.byte	0x50
 3996 02cb 05000000 		.4byte	.LVL32-1
 3997 02cf 06000000 		.4byte	.LFE331
 3998 02d3 0600     		.2byte	0x6
 3999 02d5 F3       		.byte	0xf3
 4000 02d6 01       		.uleb128 0x1
 4001 02d7 50       		.byte	0x50
 4002 02d8 23       		.byte	0x23
 4003 02d9 0C       		.uleb128 0xc
 4004 02da 9F       		.byte	0x9f
 4005 02db 00000000 		.4byte	0
 4006 02df 00000000 		.4byte	0
 4007              		.section	.debug_aranges,"",%progbits
 4008 0000 5C000000 		.4byte	0x5c
 4009 0004 0200     		.2byte	0x2
 4010 0006 00000000 		.4byte	.Ldebug_info0
 4011 000a 04       		.byte	0x4
 4012 000b 00       		.byte	0
 4013 000c 0000     		.2byte	0
 4014 000e 0000     		.2byte	0
 4015 0010 00000000 		.4byte	.LFB323
 4016 0014 04000000 		.4byte	.LFE323-.LFB323
 4017 0018 00000000 		.4byte	.LFB324
 4018 001c 0E000000 		.4byte	.LFE324-.LFB324
 4019 0020 00000000 		.4byte	.LFB325
 4020 0024 28000000 		.4byte	.LFE325-.LFB325
 4021 0028 00000000 		.4byte	.LFB326
 4022 002c 26000000 		.4byte	.LFE326-.LFB326
 4023 0030 00000000 		.4byte	.LFB327
 4024 0034 04000000 		.4byte	.LFE327-.LFB327
 4025 0038 00000000 		.4byte	.LFB328
 4026 003c 52000000 		.4byte	.LFE328-.LFB328
 4027 0040 00000000 		.4byte	.LFB329
 4028 0044 4A000000 		.4byte	.LFE329-.LFB329
 4029 0048 00000000 		.4byte	.LFB330
 4030 004c 06000000 		.4byte	.LFE330-.LFB330
 4031 0050 00000000 		.4byte	.LFB331
 4032 0054 06000000 		.4byte	.LFE331-.LFB331
 4033 0058 00000000 		.4byte	0
 4034 005c 00000000 		.4byte	0
 4035              		.section	.debug_ranges,"",%progbits
 4036              	.Ldebug_ranges0:
 4037 0000 00000000 		.4byte	.LFB323
 4038 0004 04000000 		.4byte	.LFE323
 4039 0008 00000000 		.4byte	.LFB324
 4040 000c 0E000000 		.4byte	.LFE324
 4041 0010 00000000 		.4byte	.LFB325
 4042 0014 28000000 		.4byte	.LFE325
 4043 0018 00000000 		.4byte	.LFB326
 4044 001c 26000000 		.4byte	.LFE326
 4045 0020 00000000 		.4byte	.LFB327
 4046 0024 04000000 		.4byte	.LFE327
 4047 0028 00000000 		.4byte	.LFB328
ARM GAS  /tmp/ccDt2b3x.s 			page 72


 4048 002c 52000000 		.4byte	.LFE328
 4049 0030 00000000 		.4byte	.LFB329
 4050 0034 4A000000 		.4byte	.LFE329
 4051 0038 00000000 		.4byte	.LFB330
 4052 003c 06000000 		.4byte	.LFE330
 4053 0040 00000000 		.4byte	.LFB331
 4054 0044 06000000 		.4byte	.LFE331
 4055 0048 00000000 		.4byte	0
 4056 004c 00000000 		.4byte	0
 4057              		.section	.debug_line,"",%progbits
 4058              	.Ldebug_line0:
 4059 0000 13050000 		.section	.debug_str,"MS",%progbits,1
 4059      0200C603 
 4059      00000201 
 4059      FB0E0D00 
 4059      01010101 
 4060              	.LASF137:
 4061 0000 5354445F 		.ascii	"STD_DUTY_CYCLE\000"
 4061      44555459 
 4061      5F435943 
 4061      4C4500
 4062              	.LASF153:
 4063 000f 646D6172 		.ascii	"dmarx\000"
 4063      7800
 4064              	.LASF140:
 4065 0015 69326364 		.ascii	"i2cdutycycle_t\000"
 4065      75747963 
 4065      79636C65 
 4065      5F7400
 4066              	.LASF55:
 4067 0024 72656164 		.ascii	"ready_list_t\000"
 4067      795F6C69 
 4067      73745F74 
 4067      00
 4068              	.LASF79:
 4069 0031 4D304152 		.ascii	"M0AR\000"
 4069      00
 4070              	.LASF2:
 4071 0036 73697A65 		.ascii	"size_t\000"
 4071      5F7400
 4072              	.LASF61:
 4073 003d 64656C74 		.ascii	"delta\000"
 4073      6100
 4074              	.LASF103:
 4075 0043 7264796D 		.ascii	"rdymsg\000"
 4075      736700
 4076              	.LASF19:
 4077 004a 75696E74 		.ascii	"uint64_t\000"
 4077      36345F74 
 4077      00
 4078              	.LASF74:
 4079 0053 6B65726E 		.ascii	"kernel_stats\000"
 4079      656C5F73 
 4079      74617473 
 4079      00
 4080              	.LASF3:
 4081 0060 5F5F7569 		.ascii	"__uint8_t\000"
ARM GAS  /tmp/ccDt2b3x.s 			page 73


 4081      6E74385F 
 4081      7400
 4082              	.LASF125:
 4083 006a 4932435F 		.ascii	"I2C_STOP\000"
 4083      53544F50 
 4083      00
 4084              	.LASF54:
 4085 0073 70726576 		.ascii	"prev\000"
 4085      00
 4086              	.LASF90:
 4087 0078 706F7274 		.ascii	"port_intctx\000"
 4087      5F696E74 
 4087      63747800 
 4088              	.LASF53:
 4089 0084 63685F74 		.ascii	"ch_threads_queue\000"
 4089      68726561 
 4089      64735F71 
 4089      75657565 
 4089      00
 4090              	.LASF66:
 4091 0095 73797374 		.ascii	"system_debug_t\000"
 4091      656D5F64 
 4091      65627567 
 4091      5F7400
 4092              	.LASF190:
 4093 00a4 6932635F 		.ascii	"i2c_lld_master_receive_timeout\000"
 4093      6C6C645F 
 4093      6D617374 
 4093      65725F72 
 4093      65636569 
 4094              	.LASF84:
 4095 00c3 54524953 		.ascii	"TRISE\000"
 4095      4500
 4096              	.LASF117:
 4097 00c9 73747265 		.ascii	"stream\000"
 4097      616D00
 4098              	.LASF155:
 4099 00d0 706F7274 		.ascii	"port_lock\000"
 4099      5F6C6F63 
 4099      6B00
 4100              	.LASF94:
 4101 00da 776F7273 		.ascii	"worst\000"
 4101      7400
 4102              	.LASF97:
 4103 00e0 74696D65 		.ascii	"time_measurement_t\000"
 4103      5F6D6561 
 4103      73757265 
 4103      6D656E74 
 4103      5F7400
 4104              	.LASF14:
 4105 00f3 6C6F6E67 		.ascii	"long long unsigned int\000"
 4105      206C6F6E 
 4105      6720756E 
 4105      7369676E 
 4105      65642069 
 4106              	.LASF104:
 4107 010a 65786974 		.ascii	"exitcode\000"
ARM GAS  /tmp/ccDt2b3x.s 			page 74


 4107      636F6465 
 4107      00
 4108              	.LASF181:
 4109 0113 69326352 		.ascii	"i2cReleaseBus\000"
 4109      656C6561 
 4109      73654275 
 4109      7300
 4110              	.LASF107:
 4111 0121 73656E74 		.ascii	"sentmsg\000"
 4111      6D736700 
 4112              	.LASF63:
 4113 0129 76697274 		.ascii	"virtual_timers_list_t\000"
 4113      75616C5F 
 4113      74696D65 
 4113      72735F6C 
 4113      6973745F 
 4114              	.LASF182:
 4115 013f 49544D5F 		.ascii	"ITM_RxBuffer\000"
 4115      52784275 
 4115      66666572 
 4115      00
 4116              	.LASF169:
 4117 014c 69326370 		.ascii	"i2cp\000"
 4117      00
 4118              	.LASF51:
 4119 0151 6E657874 		.ascii	"next\000"
 4119      00
 4120              	.LASF21:
 4121 0156 72747469 		.ascii	"rttime_t\000"
 4121      6D655F74 
 4121      00
 4122              	.LASF126:
 4123 015f 4932435F 		.ascii	"I2C_READY\000"
 4123      52454144 
 4123      5900
 4124              	.LASF173:
 4125 0169 6932634D 		.ascii	"i2cMasterTransmitTimeout\000"
 4125      61737465 
 4125      72547261 
 4125      6E736D69 
 4125      7454696D 
 4126              	.LASF158:
 4127 0182 6F73616C 		.ascii	"osalMutexObjectInit\000"
 4127      4D757465 
 4127      784F626A 
 4127      65637449 
 4127      6E697400 
 4128              	.LASF115:
 4129 0196 6D757465 		.ascii	"mutex_t\000"
 4129      785F7400 
 4130              	.LASF195:
 4131 019e 63684D74 		.ascii	"chMtxUnlock\000"
 4131      78556E6C 
 4131      6F636B00 
 4132              	.LASF1:
 4133 01aa 7369676E 		.ascii	"signed char\000"
 4133      65642063 
ARM GAS  /tmp/ccDt2b3x.s 			page 75


 4133      68617200 
 4134              	.LASF142:
 4135 01b6 636C6F63 		.ascii	"clock_speed\000"
 4135      6B5F7370 
 4135      65656400 
 4136              	.LASF176:
 4137 01c2 72786275 		.ascii	"rxbuf\000"
 4137      6600
 4138              	.LASF189:
 4139 01c8 6932635F 		.ascii	"i2c_lld_master_transmit_timeout\000"
 4139      6C6C645F 
 4139      6D617374 
 4139      65725F74 
 4139      72616E73 
 4140              	.LASF150:
 4141 01e8 61646472 		.ascii	"addr\000"
 4141      00
 4142              	.LASF159:
 4143 01ed 62617365 		.ascii	"basePri\000"
 4143      50726900 
 4144              	.LASF72:
 4145 01f5 76746C69 		.ascii	"vtlist\000"
 4145      737400
 4146              	.LASF156:
 4147 01fc 706F7274 		.ascii	"port_unlock\000"
 4147      5F756E6C 
 4147      6F636B00 
 4148              	.LASF41:
 4149 0208 6D736771 		.ascii	"msgqueue\000"
 4149      75657565 
 4149      00
 4150              	.LASF131:
 4151 0211 69326361 		.ascii	"i2caddr_t\000"
 4151      6464725F 
 4151      7400
 4152              	.LASF37:
 4153 021b 73746174 		.ascii	"state\000"
 4153      6500
 4154              	.LASF9:
 4155 0221 6C6F6E67 		.ascii	"long int\000"
 4155      20696E74 
 4155      00
 4156              	.LASF23:
 4157 022a 74737461 		.ascii	"tstate_t\000"
 4157      74655F74 
 4157      00
 4158              	.LASF62:
 4159 0233 66756E63 		.ascii	"func\000"
 4159      00
 4160              	.LASF46:
 4161 0238 73746174 		.ascii	"stats\000"
 4161      7300
 4162              	.LASF85:
 4163 023e 464C5452 		.ascii	"FLTR\000"
 4163      00
 4164              	.LASF120:
 4165 0243 73686966 		.ascii	"shift\000"
ARM GAS  /tmp/ccDt2b3x.s 			page 76


 4165      7400
 4166              	.LASF151:
 4167 0249 7278646D 		.ascii	"rxdmamode\000"
 4167      616D6F64 
 4167      6500
 4168              	.LASF154:
 4169 0253 646D6174 		.ascii	"dmatx\000"
 4169      7800
 4170              	.LASF135:
 4171 0259 4F504D4F 		.ascii	"OPMODE_SMBUS_HOST\000"
 4171      44455F53 
 4171      4D425553 
 4171      5F484F53 
 4171      5400
 4172              	.LASF10:
 4173 026b 5F5F7569 		.ascii	"__uint32_t\000"
 4173      6E743332 
 4173      5F7400
 4174              	.LASF87:
 4175 0276 72656761 		.ascii	"regarm_t\000"
 4175      726D5F74 
 4175      00
 4176              	.LASF121:
 4177 027f 73656C66 		.ascii	"selfindex\000"
 4177      696E6465 
 4177      7800
 4178              	.LASF194:
 4179 0289 2F686F6D 		.ascii	"/home/mike/Documents/haggis-aero-2019/pixhawk/build"
 4179      652F6D69 
 4179      6B652F44 
 4179      6F63756D 
 4179      656E7473 
 4180 02bc 2F437562 		.ascii	"/CubeBlack\000"
 4180      65426C61 
 4180      636B00
 4181              	.LASF119:
 4182 02c7 64756D6D 		.ascii	"dummy\000"
 4182      7900
 4183              	.LASF40:
 4184 02cd 77616974 		.ascii	"waiting\000"
 4184      696E6700 
 4185              	.LASF160:
 4186 02d5 6F73616C 		.ascii	"osalSysLock\000"
 4186      5379734C 
 4186      6F636B00 
 4187              	.LASF152:
 4188 02e1 7478646D 		.ascii	"txdmamode\000"
 4188      616D6F64 
 4188      6500
 4189              	.LASF12:
 4190 02eb 6C6F6E67 		.ascii	"long long int\000"
 4190      206C6F6E 
 4190      6720696E 
 4190      7400
 4191              	.LASF76:
 4192 02f9 73797369 		.ascii	"sysinterval_t\000"
 4192      6E746572 
ARM GAS  /tmp/ccDt2b3x.s 			page 77


 4192      76616C5F 
 4192      7400
 4193              	.LASF28:
 4194 0307 636E745F 		.ascii	"cnt_t\000"
 4194      7400
 4195              	.LASF0:
 4196 030d 756E7369 		.ascii	"unsigned int\000"
 4196      676E6564 
 4196      20696E74 
 4196      00
 4197              	.LASF174:
 4198 031a 74786275 		.ascii	"txbuf\000"
 4198      6600
 4199              	.LASF108:
 4200 0320 77747365 		.ascii	"wtsemp\000"
 4200      6D7000
 4201              	.LASF147:
 4202 0327 6572726F 		.ascii	"errors\000"
 4202      727300
 4203              	.LASF106:
 4204 032e 77747472 		.ascii	"wttrp\000"
 4204      7000
 4205              	.LASF178:
 4206 0334 74696D65 		.ascii	"timeout\000"
 4206      6F757400 
 4207              	.LASF98:
 4208 033c 6E5F6972 		.ascii	"n_irq\000"
 4208      7100
 4209              	.LASF31:
 4210 0342 71756575 		.ascii	"queue\000"
 4210      6500
 4211              	.LASF45:
 4212 0348 6D706F6F 		.ascii	"mpool\000"
 4212      6C00
 4213              	.LASF134:
 4214 034e 4F504D4F 		.ascii	"OPMODE_SMBUS_DEVICE\000"
 4214      44455F53 
 4214      4D425553 
 4214      5F444556 
 4214      49434500 
 4215              	.LASF7:
 4216 0362 73686F72 		.ascii	"short unsigned int\000"
 4216      7420756E 
 4216      7369676E 
 4216      65642069 
 4216      6E7400
 4217              	.LASF102:
 4218 0375 6B65726E 		.ascii	"kernel_stats_t\000"
 4218      656C5F73 
 4218      74617473 
 4218      5F7400
 4219              	.LASF145:
 4220 0384 49324344 		.ascii	"I2CDriver\000"
 4220      72697665 
 4220      7200
 4221              	.LASF49:
 4222 038e 63685F74 		.ascii	"ch_thread\000"
ARM GAS  /tmp/ccDt2b3x.s 			page 78


 4222      68726561 
 4222      6400
 4223              	.LASF73:
 4224 0398 6D61696E 		.ascii	"mainthread\000"
 4224      74687265 
 4224      616400
 4225              	.LASF35:
 4226 03a3 6E616D65 		.ascii	"name\000"
 4226      00
 4227              	.LASF26:
 4228 03a8 6D73675F 		.ascii	"msg_t\000"
 4228      7400
 4229              	.LASF95:
 4230 03ae 6C617374 		.ascii	"last\000"
 4230      00
 4231              	.LASF29:
 4232 03b3 75636E74 		.ascii	"ucnt_t\000"
 4232      5F7400
 4233              	.LASF42:
 4234 03ba 6570656E 		.ascii	"epending\000"
 4234      64696E67 
 4234      00
 4235              	.LASF69:
 4236 03c3 63685F73 		.ascii	"ch_system_t\000"
 4236      79737465 
 4236      6D5F7400 
 4237              	.LASF22:
 4238 03cf 746D6F64 		.ascii	"tmode_t\000"
 4238      655F7400 
 4239              	.LASF16:
 4240 03d7 75696E74 		.ascii	"uint16_t\000"
 4240      31365F74 
 4240      00
 4241              	.LASF101:
 4242 03e0 6D5F6372 		.ascii	"m_crit_isr\000"
 4242      69745F69 
 4242      737200
 4243              	.LASF56:
 4244 03eb 63685F72 		.ascii	"ch_ready_list\000"
 4244      65616479 
 4244      5F6C6973 
 4244      7400
 4245              	.LASF27:
 4246 03f9 6576656E 		.ascii	"eventmask_t\000"
 4246      746D6173 
 4246      6B5F7400 
 4247              	.LASF5:
 4248 0405 73686F72 		.ascii	"short int\000"
 4248      7420696E 
 4248      7400
 4249              	.LASF8:
 4250 040f 5F5F696E 		.ascii	"__int32_t\000"
 4250      7433325F 
 4250      7400
 4251              	.LASF88:
 4252 0419 73746B61 		.ascii	"stkalign_t\000"
 4252      6C69676E 
ARM GAS  /tmp/ccDt2b3x.s 			page 79


 4252      5F7400
 4253              	.LASF188:
 4254 0424 6932635F 		.ascii	"i2c_lld_stop\000"
 4254      6C6C645F 
 4254      73746F70 
 4254      00
 4255              	.LASF44:
 4256 0431 7265616C 		.ascii	"realprio\000"
 4256      7072696F 
 4256      00
 4257              	.LASF187:
 4258 043a 6932635F 		.ascii	"i2c_lld_start\000"
 4258      6C6C645F 
 4258      73746172 
 4258      7400
 4259              	.LASF185:
 4260 0448 5F737461 		.ascii	"_stats_stop_measure_crit_thd\000"
 4260      74735F73 
 4260      746F705F 
 4260      6D656173 
 4260      7572655F 
 4261              	.LASF77:
 4262 0465 73697A65 		.ascii	"sizetype\000"
 4262      74797065 
 4262      00
 4263              	.LASF47:
 4264 046e 74687265 		.ascii	"thread_reference_t\000"
 4264      61645F72 
 4264      65666572 
 4264      656E6365 
 4264      5F7400
 4265              	.LASF64:
 4266 0481 63685F76 		.ascii	"ch_virtual_timers_list\000"
 4266      69727475 
 4266      616C5F74 
 4266      696D6572 
 4266      735F6C69 
 4267              	.LASF168:
 4268 0498 69326353 		.ascii	"i2cStart\000"
 4268      74617274 
 4268      00
 4269              	.LASF193:
 4270 04a1 2E2E2F2E 		.ascii	"../../modules/ChibiOS/os/hal/src/hal_i2c.c\000"
 4270      2E2F6D6F 
 4270      64756C65 
 4270      732F4368 
 4270      6962694F 
 4271              	.LASF143:
 4272 04cc 64757479 		.ascii	"duty_cycle\000"
 4272      5F637963 
 4272      6C6500
 4273              	.LASF184:
 4274 04d7 5F737461 		.ascii	"_stats_start_measure_crit_thd\000"
 4274      74735F73 
 4274      74617274 
 4274      5F6D6561 
 4274      73757265 
ARM GAS  /tmp/ccDt2b3x.s 			page 80


 4275              	.LASF191:
 4276 04f5 63684D74 		.ascii	"chMtxLock\000"
 4276      784C6F63 
 4276      6B00
 4277              	.LASF177:
 4278 04ff 72786279 		.ascii	"rxbytes\000"
 4278      74657300 
 4279              	.LASF170:
 4280 0507 69326353 		.ascii	"i2cStop\000"
 4280      746F7000 
 4281              	.LASF89:
 4282 050f 706F7274 		.ascii	"port_context\000"
 4282      5F636F6E 
 4282      74657874 
 4282      00
 4283              	.LASF92:
 4284 051c 746D5F63 		.ascii	"tm_calibration_t\000"
 4284      616C6962 
 4284      72617469 
 4284      6F6E5F74 
 4284      00
 4285              	.LASF133:
 4286 052d 4F504D4F 		.ascii	"OPMODE_I2C\000"
 4286      44455F49 
 4286      324300
 4287              	.LASF32:
 4288 0538 7072696F 		.ascii	"prio\000"
 4288      00
 4289              	.LASF175:
 4290 053d 74786279 		.ascii	"txbytes\000"
 4290      74657300 
 4291              	.LASF57:
 4292 0545 63757272 		.ascii	"current\000"
 4292      656E7400 
 4293              	.LASF13:
 4294 054d 5F5F7569 		.ascii	"__uint64_t\000"
 4294      6E743634 
 4294      5F7400
 4295              	.LASF96:
 4296 0558 63756D75 		.ascii	"cumulative\000"
 4296      6C617469 
 4296      766500
 4297              	.LASF33:
 4298 0563 6E657765 		.ascii	"newer\000"
 4298      7200
 4299              	.LASF24:
 4300 0569 74726566 		.ascii	"trefs_t\000"
 4300      735F7400 
 4301              	.LASF130:
 4302 0571 69326373 		.ascii	"i2cstate_t\000"
 4302      74617465 
 4302      5F7400
 4303              	.LASF139:
 4304 057c 46415354 		.ascii	"FAST_DUTY_CYCLE_16_9\000"
 4304      5F445554 
 4304      595F4359 
 4304      434C455F 
ARM GAS  /tmp/ccDt2b3x.s 			page 81


 4304      31365F39 
 4305              	.LASF39:
 4306 0591 72656673 		.ascii	"refs\000"
 4306      00
 4307              	.LASF59:
 4308 0596 76697274 		.ascii	"virtual_timer_t\000"
 4308      75616C5F 
 4308      74696D65 
 4308      725F7400 
 4309              	.LASF123:
 4310 05a6 73746D33 		.ascii	"stm32_dma_stream_t\000"
 4310      325F646D 
 4310      615F7374 
 4310      7265616D 
 4310      5F7400
 4311              	.LASF180:
 4312 05b9 69326341 		.ascii	"i2cAcquireBus\000"
 4312      63717569 
 4312      72654275 
 4312      7300
 4313              	.LASF25:
 4314 05c7 74707269 		.ascii	"tprio_t\000"
 4314      6F5F7400 
 4315              	.LASF127:
 4316 05cf 4932435F 		.ascii	"I2C_ACTIVE_TX\000"
 4316      41435449 
 4316      56455F54 
 4316      5800
 4317              	.LASF132:
 4318 05dd 69326366 		.ascii	"i2cflags_t\000"
 4318      6C616773 
 4318      5F7400
 4319              	.LASF148:
 4320 05e8 6D757465 		.ascii	"mutex\000"
 4320      7800
 4321              	.LASF99:
 4322 05ee 6E5F6374 		.ascii	"n_ctxswc\000"
 4322      78737763 
 4322      00
 4323              	.LASF116:
 4324 05f7 5F426F6F 		.ascii	"_Bool\000"
 4324      6C00
 4325              	.LASF17:
 4326 05fd 696E7433 		.ascii	"int32_t\000"
 4326      325F7400 
 4327              	.LASF4:
 4328 0605 756E7369 		.ascii	"unsigned char\000"
 4328      676E6564 
 4328      20636861 
 4328      7200
 4329              	.LASF192:
 4330 0613 474E5520 		.ascii	"GNU C 4.9.3 20150529 (release) [ARM/embedded-4_9-br"
 4330      4320342E 
 4330      392E3320 
 4330      32303135 
 4330      30353239 
 4331 0646 616E6368 		.ascii	"anch revision 227977] -mcpu=cortex-m4 -mfloat-abi=h"
ARM GAS  /tmp/ccDt2b3x.s 			page 82


 4331      20726576 
 4331      6973696F 
 4331      6E203232 
 4331      37393737 
 4332 0679 61726420 		.ascii	"ard -mfpu=fpv4-sp-d16 -mno-thumb-interwork -mthumb "
 4332      2D6D6670 
 4332      753D6670 
 4332      76342D73 
 4332      702D6431 
 4333 06ac 2D67202D 		.ascii	"-g -Os -fomit-frame-pointer -falign-functions=16 -f"
 4333      4F73202D 
 4333      666F6D69 
 4333      742D6672 
 4333      616D652D 
 4334 06df 66756E63 		.ascii	"function-sections -fdata-sections -fno-common -fsin"
 4334      74696F6E 
 4334      2D736563 
 4334      74696F6E 
 4334      73202D66 
 4335 0712 676C652D 		.ascii	"gle-precision-constant\000"
 4335      70726563 
 4335      6973696F 
 4335      6E2D636F 
 4335      6E737461 
 4336              	.LASF141:
 4337 0729 6F705F6D 		.ascii	"op_mode\000"
 4337      6F646500 
 4338              	.LASF124:
 4339 0731 4932435F 		.ascii	"I2C_UNINIT\000"
 4339      554E494E 
 4339      495400
 4340              	.LASF65:
 4341 073c 6C617374 		.ascii	"lasttime\000"
 4341      74696D65 
 4341      00
 4342              	.LASF172:
 4343 0745 69326347 		.ascii	"i2cGetErrors\000"
 4343      65744572 
 4343      726F7273 
 4343      00
 4344              	.LASF110:
 4345 0752 65776D61 		.ascii	"ewmask\000"
 4345      736B00
 4346              	.LASF70:
 4347 0759 63685F73 		.ascii	"ch_system\000"
 4347      79737465 
 4347      6D00
 4348              	.LASF171:
 4349 0763 5F5F6675 		.ascii	"__func__\000"
 4349      6E635F5F 
 4349      00
 4350              	.LASF166:
 4351 076c 63685379 		.ascii	"chSysLock\000"
 4351      734C6F63 
 4351      6B00
 4352              	.LASF161:
 4353 0776 6F73616C 		.ascii	"osalSysUnlock\000"
ARM GAS  /tmp/ccDt2b3x.s 			page 83


 4353      53797355 
 4353      6E6C6F63 
 4353      6B00
 4354              	.LASF186:
 4355 0784 63684D74 		.ascii	"chMtxObjectInit\000"
 4355      784F626A 
 4355      65637449 
 4355      6E697400 
 4356              	.LASF138:
 4357 0794 46415354 		.ascii	"FAST_DUTY_CYCLE_2\000"
 4357      5F445554 
 4357      595F4359 
 4357      434C455F 
 4357      3200
 4358              	.LASF129:
 4359 07a6 4932435F 		.ascii	"I2C_LOCKED\000"
 4359      4C4F434B 
 4359      454400
 4360              	.LASF111:
 4361 07b1 63685F73 		.ascii	"ch_semaphore\000"
 4361      656D6170 
 4361      686F7265 
 4361      00
 4362              	.LASF118:
 4363 07be 69666372 		.ascii	"ifcr\000"
 4363      00
 4364              	.LASF18:
 4365 07c3 75696E74 		.ascii	"uint32_t\000"
 4365      33325F74 
 4365      00
 4366              	.LASF109:
 4367 07cc 77746D74 		.ascii	"wtmtxp\000"
 4367      787000
 4368              	.LASF50:
 4369 07d3 63685F74 		.ascii	"ch_threads_list\000"
 4369      68726561 
 4369      64735F6C 
 4369      69737400 
 4370              	.LASF113:
 4371 07e3 6F776E65 		.ascii	"owner\000"
 4371      7200
 4372              	.LASF128:
 4373 07e9 4932435F 		.ascii	"I2C_ACTIVE_RX\000"
 4373      41435449 
 4373      56455F52 
 4373      5800
 4374              	.LASF11:
 4375 07f7 6C6F6E67 		.ascii	"long unsigned int\000"
 4375      20756E73 
 4375      69676E65 
 4375      6420696E 
 4375      7400
 4376              	.LASF36:
 4377 0809 77616261 		.ascii	"wabase\000"
 4377      736500
 4378              	.LASF114:
 4379 0810 63686172 		.ascii	"char\000"
ARM GAS  /tmp/ccDt2b3x.s 			page 84


 4379      00
 4380              	.LASF34:
 4381 0815 6F6C6465 		.ascii	"older\000"
 4381      7200
 4382              	.LASF146:
 4383 081b 636F6E66 		.ascii	"config\000"
 4383      696700
 4384              	.LASF163:
 4385 0822 6F73616C 		.ascii	"osalMutexUnlock\000"
 4385      4D757465 
 4385      78556E6C 
 4385      6F636B00 
 4386              	.LASF6:
 4387 0832 5F5F7569 		.ascii	"__uint16_t\000"
 4387      6E743136 
 4387      5F7400
 4388              	.LASF30:
 4389 083d 74687265 		.ascii	"thread_t\000"
 4389      61645F74 
 4389      00
 4390              	.LASF93:
 4391 0846 62657374 		.ascii	"best\000"
 4391      00
 4392              	.LASF75:
 4393 084b 73797374 		.ascii	"systime_t\000"
 4393      696D655F 
 4393      7400
 4394              	.LASF58:
 4395 0855 76746675 		.ascii	"vtfunc_t\000"
 4395      6E635F74 
 4395      00
 4396              	.LASF157:
 4397 085e 5F5F7365 		.ascii	"__set_BASEPRI\000"
 4397      745F4241 
 4397      53455052 
 4397      4900
 4398              	.LASF162:
 4399 086c 6F73616C 		.ascii	"osalMutexLock\000"
 4399      4D757465 
 4399      784C6F63 
 4399      6B00
 4400              	.LASF78:
 4401 087a 4E445452 		.ascii	"NDTR\000"
 4401      00
 4402              	.LASF68:
 4403 087f 70616E69 		.ascii	"panic_msg\000"
 4403      635F6D73 
 4403      6700
 4404              	.LASF91:
 4405 0889 6F666673 		.ascii	"offset\000"
 4405      657400
 4406              	.LASF81:
 4407 0890 444D415F 		.ascii	"DMA_Stream_TypeDef\000"
 4407      53747265 
 4407      616D5F54 
 4407      79706544 
 4407      656600
ARM GAS  /tmp/ccDt2b3x.s 			page 85


 4408              	.LASF112:
 4409 08a3 63685F6D 		.ascii	"ch_mutex\000"
 4409      75746578 
 4409      00
 4410              	.LASF165:
 4411 08ac 6932634F 		.ascii	"i2cObjectInit\000"
 4411      626A6563 
 4411      74496E69 
 4411      7400
 4412              	.LASF60:
 4413 08ba 63685F76 		.ascii	"ch_virtual_timer\000"
 4413      69727475 
 4413      616C5F74 
 4413      696D6572 
 4413      00
 4414              	.LASF20:
 4415 08cb 7274636E 		.ascii	"rtcnt_t\000"
 4415      745F7400 
 4416              	.LASF80:
 4417 08d3 4D314152 		.ascii	"M1AR\000"
 4417      00
 4418              	.LASF144:
 4419 08d8 49324343 		.ascii	"I2CConfig\000"
 4419      6F6E6669 
 4419      6700
 4420              	.LASF52:
 4421 08e2 74687265 		.ascii	"threads_queue_t\000"
 4421      6164735F 
 4421      71756575 
 4421      655F7400 
 4422              	.LASF183:
 4423 08f2 6932635F 		.ascii	"i2c_lld_init\000"
 4423      6C6C645F 
 4423      696E6974 
 4423      00
 4424              	.LASF71:
 4425 08ff 726C6973 		.ascii	"rlist\000"
 4425      7400
 4426              	.LASF15:
 4427 0905 75696E74 		.ascii	"uint8_t\000"
 4427      385F7400 
 4428              	.LASF82:
 4429 090d 4F415231 		.ascii	"OAR1\000"
 4429      00
 4430              	.LASF83:
 4431 0912 4F415232 		.ascii	"OAR2\000"
 4431      00
 4432              	.LASF38:
 4433 0917 666C6167 		.ascii	"flags\000"
 4433      7300
 4434              	.LASF179:
 4435 091d 6932634D 		.ascii	"i2cMasterReceiveTimeout\000"
 4435      61737465 
 4435      72526563 
 4435      65697665 
 4435      54696D65 
 4436              	.LASF105:
ARM GAS  /tmp/ccDt2b3x.s 			page 86


 4437 0935 77746F62 		.ascii	"wtobjp\000"
 4437      6A7000
 4438              	.LASF48:
 4439 093c 74687265 		.ascii	"threads_list_t\000"
 4439      6164735F 
 4439      6C697374 
 4439      5F7400
 4440              	.LASF164:
 4441 094b 69326349 		.ascii	"i2cInit\000"
 4441      6E697400 
 4442              	.LASF167:
 4443 0953 63685379 		.ascii	"chSysUnlock\000"
 4443      73556E6C 
 4443      6F636B00 
 4444              	.LASF67:
 4445 095f 63685F73 		.ascii	"ch_system_debug\000"
 4445      79737465 
 4445      6D5F6465 
 4445      62756700 
 4446              	.LASF86:
 4447 096f 4932435F 		.ascii	"I2C_TypeDef\000"
 4447      54797065 
 4447      44656600 
 4448              	.LASF136:
 4449 097b 6932636F 		.ascii	"i2copmode_t\000"
 4449      706D6F64 
 4449      655F7400 
 4450              	.LASF149:
 4451 0987 74687265 		.ascii	"thread\000"
 4451      616400
 4452              	.LASF43:
 4453 098e 6D74786C 		.ascii	"mtxlist\000"
 4453      69737400 
 4454              	.LASF100:
 4455 0996 6D5F6372 		.ascii	"m_crit_thd\000"
 4455      69745F74 
 4455      686400
 4456              	.LASF122:
 4457 09a1 76656374 		.ascii	"vector\000"
 4457      6F7200
 4458              		.ident	"GCC: (GNU Tools for ARM Embedded Processors) 4.9.3 20150529 (release) [ARM/embedded-4_9-br
ARM GAS  /tmp/ccDt2b3x.s 			page 87


DEFINED SYMBOLS
                            *ABS*:00000000 hal_i2c.c
     /tmp/ccDt2b3x.s:21     .text.i2cInit:00000000 $t
     /tmp/ccDt2b3x.s:26     .text.i2cInit:00000000 i2cInit
     /tmp/ccDt2b3x.s:41     .text.i2cObjectInit:00000000 $t
     /tmp/ccDt2b3x.s:46     .text.i2cObjectInit:00000000 i2cObjectInit
     /tmp/ccDt2b3x.s:75     .text.i2cStart:00000000 $t
     /tmp/ccDt2b3x.s:80     .text.i2cStart:00000000 i2cStart
     /tmp/ccDt2b3x.s:155    .text.i2cStop:00000000 $t
     /tmp/ccDt2b3x.s:160    .text.i2cStop:00000000 i2cStop
     /tmp/ccDt2b3x.s:233    .text.i2cGetErrors:00000000 $t
     /tmp/ccDt2b3x.s:238    .text.i2cGetErrors:00000000 i2cGetErrors
     /tmp/ccDt2b3x.s:254    .text.i2cMasterTransmitTimeout:00000000 $t
     /tmp/ccDt2b3x.s:259    .text.i2cMasterTransmitTimeout:00000000 i2cMasterTransmitTimeout
     /tmp/ccDt2b3x.s:364    .text.i2cMasterReceiveTimeout:00000000 $t
     /tmp/ccDt2b3x.s:369    .text.i2cMasterReceiveTimeout:00000000 i2cMasterReceiveTimeout
     /tmp/ccDt2b3x.s:469    .text.i2cAcquireBus:00000000 $t
     /tmp/ccDt2b3x.s:474    .text.i2cAcquireBus:00000000 i2cAcquireBus
     /tmp/ccDt2b3x.s:495    .text.i2cReleaseBus:00000000 $t
     /tmp/ccDt2b3x.s:500    .text.i2cReleaseBus:00000000 i2cReleaseBus
                     .debug_frame:00000010 $d

UNDEFINED SYMBOLS
i2c_lld_init
chMtxObjectInit
_stats_start_measure_crit_thd
i2c_lld_start
_stats_stop_measure_crit_thd
i2c_lld_stop
i2c_lld_master_transmit_timeout
i2c_lld_master_receive_timeout
chMtxLock
chMtxUnlock
