ARM GAS  /tmp/ccw0TMEs.s 			page 1


   1              		.cpu cortex-m4
   2              		.eabi_attribute 27, 1
   3              		.eabi_attribute 28, 1
   4              		.eabi_attribute 20, 1
   5              		.eabi_attribute 21, 1
   6              		.eabi_attribute 23, 3
   7              		.eabi_attribute 24, 1
   8              		.eabi_attribute 25, 1
   9              		.eabi_attribute 26, 1
  10              		.eabi_attribute 30, 4
  11              		.eabi_attribute 34, 1
  12              		.eabi_attribute 18, 4
  13              		.file	"hal_sdc_lld.c"
  14              		.text
  15              	.Ltext0:
  16              		.cfi_sections	.debug_frame
  17              		.section	.text.sdc_lld_collect_errors.isra.0,"ax",%progbits
  18              		.align	1
  19              		.syntax unified
  20              		.thumb
  21              		.thumb_func
  22              		.fpu fpv4-sp-d16
  23              		.type	sdc_lld_collect_errors.isra.0, %function
  24              	sdc_lld_collect_errors.isra.0:
  25              	.LFB347:
  26              		.file 1 "../../modules/ChibiOS/os/hal/ports/STM32/LLD/SDIOv1/hal_sdc_lld.c"
  27              		.loc 1 263 0
  28              		.cfi_startproc
  29              		@ args = 0, pretend = 0, frame = 0
  30              		@ frame_needed = 0, uses_anonymous_args = 0
  31              		@ link register save eliminated.
  32              	.LVL0:
  33              		.loc 1 266 0
  34 0000 01F00103 		and	r3, r1, #1
  35              	.LVL1:
  36              		.loc 1 268 0
  37 0004 8A07     		lsls	r2, r1, #30
  38              		.loc 1 269 0
  39 0006 48BF     		it	mi
  40 0008 43F00203 		orrmi	r3, r3, #2
  41              	.LVL2:
  42              		.loc 1 270 0
  43 000c 4A07     		lsls	r2, r1, #29
  44              		.loc 1 271 0
  45 000e 48BF     		it	mi
  46 0010 43F00803 		orrmi	r3, r3, #8
  47              	.LVL3:
  48              		.loc 1 272 0
  49 0014 0A07     		lsls	r2, r1, #28
  50              		.loc 1 273 0
  51 0016 48BF     		it	mi
  52 0018 43F00403 		orrmi	r3, r3, #4
  53              	.LVL4:
  54              		.loc 1 274 0
  55 001c CA06     		lsls	r2, r1, #27
  56              		.loc 1 275 0
  57 001e 48BF     		it	mi
ARM GAS  /tmp/ccw0TMEs.s 			page 2


  58 0020 43F01003 		orrmi	r3, r3, #16
  59              	.LVL5:
  60              		.loc 1 276 0
  61 0024 8A06     		lsls	r2, r1, #26
  62              		.loc 1 277 0
  63 0026 48BF     		it	mi
  64 0028 43F02003 		orrmi	r3, r3, #32
  65              	.LVL6:
  66              		.loc 1 278 0
  67 002c 8A05     		lsls	r2, r1, #22
  68              		.loc 1 281 0
  69 002e 0268     		ldr	r2, [r0]
  70              		.loc 1 279 0
  71 0030 48BF     		it	mi
  72 0032 43F04003 		orrmi	r3, r3, #64
  73              	.LVL7:
  74              		.loc 1 281 0
  75 0036 1343     		orrs	r3, r3, r2
  76              	.LVL8:
  77 0038 0360     		str	r3, [r0]
  78 003a 7047     		bx	lr
  79              		.cfi_endproc
  80              	.LFE347:
  81              		.size	sdc_lld_collect_errors.isra.0, .-sdc_lld_collect_errors.isra.0
  82              		.section	.text.Vector104,"ax",%progbits
  83              		.align	1
  84              		.global	Vector104
  85              		.syntax unified
  86              		.thumb
  87              		.thumb_func
  88              		.fpu fpv4-sp-d16
  89              		.type	Vector104, %function
  90              	Vector104:
  91              	.LFB329:
  92              		.loc 1 322 0
  93              		.cfi_startproc
  94              		@ args = 0, pretend = 0, frame = 0
  95              		@ frame_needed = 0, uses_anonymous_args = 0
  96 0000 10B5     		push	{r4, lr}
  97              		.cfi_def_cfa_offset 8
  98              		.cfi_offset 4, -8
  99              		.cfi_offset 14, -4
 100              		.loc 1 324 0
 101 0002 FFF7FEFF 		bl	_stats_increase_irq
 102              	.LVL9:
 103              	.LBB70:
 104              	.LBB71:
 105              	.LBB72:
 106              	.LBB73:
 107              	.LBB74:
 108              	.LBB75:
 109              	.LBB76:
 110              		.file 2 "../../modules/ChibiOS/os/common/ext/ARM/CMSIS/Core/Include/cmsis_gcc.h"
 111              		.loc 2 493 0
 112 0006 2023     		movs	r3, #32
 113              		.syntax unified
 114              	@ 493 "../../modules/ChibiOS/os/common/ext/ARM/CMSIS/Core/Include/cmsis_gcc.h" 1
ARM GAS  /tmp/ccw0TMEs.s 			page 3


 115 0008 83F31188 		MSR basepri, r3
 116              	@ 0 "" 2
 117              	.LVL10:
 118              		.thumb
 119              		.syntax unified
 120              	.LBE76:
 121              	.LBE75:
 122              	.LBE74:
 123              	.LBE73:
 124              		.file 3 "../../modules/ChibiOS/os/rt/include/chsys.h"
 125              		.loc 3 396 0
 126 000c FFF7FEFF 		bl	_stats_start_measure_crit_isr
 127              	.LVL11:
 128              	.LBE72:
 129              	.LBE71:
 130              	.LBE70:
 131              		.loc 1 330 0
 132 0010 074B     		ldr	r3, .L27
 133              	.LBB77:
 134              	.LBB78:
 135              		.file 4 "../../modules/ChibiOS/os/hal/osal/rt/osal.h"
 136              		.loc 4 775 0
 137 0012 0848     		ldr	r0, .L27+4
 138              	.LBE78:
 139              	.LBE77:
 140              		.loc 1 330 0
 141 0014 0024     		movs	r4, #0
 142 0016 DC63     		str	r4, [r3, #60]
 143              	.LVL12:
 144              	.LBB80:
 145              	.LBB79:
 146              		.loc 4 775 0
 147 0018 2146     		mov	r1, r4
 148 001a FFF7FEFF 		bl	chThdResumeI
 149              	.LVL13:
 150              	.LBE79:
 151              	.LBE80:
 152              	.LBB81:
 153              	.LBB82:
 154              	.LBB83:
 155              		.loc 3 416 0
 156 001e FFF7FEFF 		bl	_stats_stop_measure_crit_isr
 157              	.LVL14:
 158              	.LBB84:
 159              	.LBB85:
 160              	.LBB86:
 161              	.LBB87:
 162              		.loc 2 493 0
 163              		.syntax unified
 164              	@ 493 "../../modules/ChibiOS/os/common/ext/ARM/CMSIS/Core/Include/cmsis_gcc.h" 1
 165 0022 84F31188 		MSR basepri, r4
 166              	@ 0 "" 2
 167              	.LVL15:
 168              		.thumb
 169              		.syntax unified
 170              	.LBE87:
 171              	.LBE86:
ARM GAS  /tmp/ccw0TMEs.s 			page 4


 172              	.LBE85:
 173              	.LBE84:
 174              	.LBE83:
 175              	.LBE82:
 176              	.LBE81:
 177              		.loc 1 337 0
 178 0026 BDE81040 		pop	{r4, lr}
 179              		.cfi_restore 14
 180              		.cfi_restore 4
 181              		.cfi_def_cfa_offset 0
 182              		.loc 1 336 0
 183 002a FFF7FEBF 		b	_port_irq_epilogue
 184              	.LVL16:
 185              	.L28:
 186 002e 00BF     		.align	2
 187              	.L27:
 188 0030 002C0140 		.word	1073818624
 189 0034 3C000000 		.word	.LANCHOR0+60
 190              		.cfi_endproc
 191              	.LFE329:
 192              		.size	Vector104, .-Vector104
 193              		.section	.text.sdc_lld_init,"ax",%progbits
 194              		.align	1
 195              		.global	sdc_lld_init
 196              		.syntax unified
 197              		.thumb
 198              		.thumb_func
 199              		.fpu fpv4-sp-d16
 200              		.type	sdc_lld_init, %function
 201              	sdc_lld_init:
 202              	.LFB330:
 203              		.loc 1 348 0
 204              		.cfi_startproc
 205              		@ args = 0, pretend = 0, frame = 0
 206              		@ frame_needed = 0, uses_anonymous_args = 0
 207 0000 10B5     		push	{r4, lr}
 208              		.cfi_def_cfa_offset 8
 209              		.cfi_offset 4, -8
 210              		.cfi_offset 14, -4
 211              		.loc 1 350 0
 212 0002 074C     		ldr	r4, .L30
 213 0004 2046     		mov	r0, r4
 214 0006 FFF7FEFF 		bl	sdcObjectInit
 215              	.LVL17:
 216              		.loc 1 351 0
 217 000a 0023     		movs	r3, #0
 218 000c E363     		str	r3, [r4, #60]
 219              		.loc 1 352 0
 220 000e 6364     		str	r3, [r4, #68]
 221              		.loc 1 353 0
 222 0010 044B     		ldr	r3, .L30+4
 223 0012 A364     		str	r3, [r4, #72]
 224              		.loc 1 354 0
 225 0014 0921     		movs	r1, #9
 226 0016 3120     		movs	r0, #49
 227              		.loc 1 355 0
 228 0018 BDE81040 		pop	{r4, lr}
ARM GAS  /tmp/ccw0TMEs.s 			page 5


 229              		.cfi_restore 14
 230              		.cfi_restore 4
 231              		.cfi_def_cfa_offset 0
 232              		.loc 1 354 0
 233 001c FFF7FEBF 		b	nvicEnableVector
 234              	.LVL18:
 235              	.L31:
 236              		.align	2
 237              	.L30:
 238 0020 00000000 		.word	.LANCHOR0
 239 0024 002C0140 		.word	1073818624
 240              		.cfi_endproc
 241              	.LFE330:
 242              		.size	sdc_lld_init, .-sdc_lld_init
 243              		.section	.text.sdc_lld_start,"ax",%progbits
 244              		.align	1
 245              		.global	sdc_lld_start
 246              		.syntax unified
 247              		.thumb
 248              		.thumb_func
 249              		.fpu fpv4-sp-d16
 250              		.type	sdc_lld_start, %function
 251              	sdc_lld_start:
 252              	.LFB331:
 253              		.loc 1 364 0
 254              		.cfi_startproc
 255              		@ args = 0, pretend = 0, frame = 0
 256              		@ frame_needed = 0, uses_anonymous_args = 0
 257              	.LVL19:
 258              		.loc 1 367 0
 259 0000 C36A     		ldr	r3, [r0, #44]
 260              		.loc 1 364 0
 261 0002 10B5     		push	{r4, lr}
 262              		.cfi_def_cfa_offset 8
 263              		.cfi_offset 4, -8
 264              		.cfi_offset 14, -4
 265              		.loc 1 364 0
 266 0004 0446     		mov	r4, r0
 267              		.loc 1 367 0
 268 0006 0BB9     		cbnz	r3, .L33
 269              		.loc 1 368 0
 270 0008 124B     		ldr	r3, .L35
 271 000a C362     		str	r3, [r0, #44]
 272              	.L33:
 273              		.loc 1 378 0
 274 000c 124B     		ldr	r3, .L35+4
 275 000e 2364     		str	r3, [r4, #64]
 276              		.loc 1 383 0
 277 0010 2379     		ldrb	r3, [r4, #4]	@ zero_extendqisi2
 278 0012 012B     		cmp	r3, #1
 279 0014 16D1     		bne	.L34
 280              		.loc 1 384 0
 281 0016 0023     		movs	r3, #0
 282 0018 1A46     		mov	r2, r3
 283 001a 0921     		movs	r1, #9
 284 001c 0E20     		movs	r0, #14
 285              	.LVL20:
ARM GAS  /tmp/ccw0TMEs.s 			page 6


 286 001e FFF7FEFF 		bl	dmaStreamAllocI
 287              	.LVL21:
 288              		.loc 1 390 0
 289 0022 A36C     		ldr	r3, [r4, #72]
 290 0024 0268     		ldr	r2, [r0]
 291              		.loc 1 384 0
 292 0026 6064     		str	r0, [r4, #68]
 293              		.loc 1 390 0
 294 0028 8033     		adds	r3, r3, #128
 295 002a 9360     		str	r3, [r2, #8]
 296              		.loc 1 392 0
 297 002c 0723     		movs	r3, #7
 298 002e 5361     		str	r3, [r2, #20]
 299              		.loc 1 394 0
 300 0030 0A4B     		ldr	r3, .L35+8
 301 0032 5A6C     		ldr	r2, [r3, #68]
 302 0034 42F40062 		orr	r2, r2, #2048
 303 0038 5A64     		str	r2, [r3, #68]
 304 003a 5A6E     		ldr	r2, [r3, #100]
 305 003c 42F40062 		orr	r2, r2, #2048
 306 0040 5A66     		str	r2, [r3, #100]
 307 0042 5B6E     		ldr	r3, [r3, #100]
 308              	.L34:
 309              		.loc 1 398 0
 310 0044 A36C     		ldr	r3, [r4, #72]
 311 0046 0022     		movs	r2, #0
 312 0048 1A60     		str	r2, [r3]
 313              		.loc 1 399 0
 314 004a 5A60     		str	r2, [r3, #4]
 315              		.loc 1 400 0
 316 004c DA62     		str	r2, [r3, #44]
 317              		.loc 1 401 0
 318 004e 5A62     		str	r2, [r3, #36]
 319 0050 10BD     		pop	{r4, pc}
 320              	.LVL22:
 321              	.L36:
 322 0052 00BF     		.align	2
 323              	.L35:
 324 0054 00000000 		.word	.LANCHOR1
 325 0058 2054A308 		.word	144921632
 326 005c 00380240 		.word	1073887232
 327              		.cfi_endproc
 328              	.LFE331:
 329              		.size	sdc_lld_start, .-sdc_lld_start
 330              		.section	.text.sdc_lld_stop,"ax",%progbits
 331              		.align	1
 332              		.global	sdc_lld_stop
 333              		.syntax unified
 334              		.thumb
 335              		.thumb_func
 336              		.fpu fpv4-sp-d16
 337              		.type	sdc_lld_stop, %function
 338              	sdc_lld_stop:
 339              	.LFB332:
 340              		.loc 1 411 0
 341              		.cfi_startproc
 342              		@ args = 0, pretend = 0, frame = 0
ARM GAS  /tmp/ccw0TMEs.s 			page 7


 343              		@ frame_needed = 0, uses_anonymous_args = 0
 344              	.LVL23:
 345 0000 38B5     		push	{r3, r4, r5, lr}
 346              		.cfi_def_cfa_offset 16
 347              		.cfi_offset 3, -16
 348              		.cfi_offset 4, -12
 349              		.cfi_offset 5, -8
 350              		.cfi_offset 14, -4
 351              		.loc 1 413 0
 352 0002 0379     		ldrb	r3, [r0, #4]	@ zero_extendqisi2
 353 0004 012B     		cmp	r3, #1
 354              		.loc 1 411 0
 355 0006 0546     		mov	r5, r0
 356              		.loc 1 413 0
 357 0008 13D0     		beq	.L37
 358              		.loc 1 416 0
 359 000a 836C     		ldr	r3, [r0, #72]
 360              		.loc 1 422 0
 361 000c 406C     		ldr	r0, [r0, #68]
 362              	.LVL24:
 363              		.loc 1 416 0
 364 000e 0024     		movs	r4, #0
 365 0010 1C60     		str	r4, [r3]
 366              		.loc 1 417 0
 367 0012 5C60     		str	r4, [r3, #4]
 368              		.loc 1 418 0
 369 0014 DC62     		str	r4, [r3, #44]
 370              		.loc 1 419 0
 371 0016 5C62     		str	r4, [r3, #36]
 372              		.loc 1 422 0
 373 0018 FFF7FEFF 		bl	dmaStreamFreeI
 374              	.LVL25:
 375              		.loc 1 426 0
 376 001c 054B     		ldr	r3, .L42
 377              		.loc 1 423 0
 378 001e 6C64     		str	r4, [r5, #68]
 379              		.loc 1 426 0
 380 0020 5A6C     		ldr	r2, [r3, #68]
 381 0022 22F40062 		bic	r2, r2, #2048
 382 0026 5A64     		str	r2, [r3, #68]
 383 0028 5A6E     		ldr	r2, [r3, #100]
 384 002a 22F40062 		bic	r2, r2, #2048
 385 002e 5A66     		str	r2, [r3, #100]
 386 0030 5B6E     		ldr	r3, [r3, #100]
 387              	.L37:
 388 0032 38BD     		pop	{r3, r4, r5, pc}
 389              	.LVL26:
 390              	.L43:
 391              		.align	2
 392              	.L42:
 393 0034 00380240 		.word	1073887232
 394              		.cfi_endproc
 395              	.LFE332:
 396              		.size	sdc_lld_stop, .-sdc_lld_stop
 397              		.section	.text.sdc_lld_start_clk,"ax",%progbits
 398              		.align	1
 399              		.global	sdc_lld_start_clk
ARM GAS  /tmp/ccw0TMEs.s 			page 8


 400              		.syntax unified
 401              		.thumb
 402              		.thumb_func
 403              		.fpu fpv4-sp-d16
 404              		.type	sdc_lld_start_clk, %function
 405              	sdc_lld_start_clk:
 406              	.LFB333:
 407              		.loc 1 437 0
 408              		.cfi_startproc
 409              		@ args = 0, pretend = 0, frame = 0
 410              		@ frame_needed = 0, uses_anonymous_args = 0
 411              		@ link register save eliminated.
 412              	.LVL27:
 413              		.loc 1 440 0
 414 0000 836C     		ldr	r3, [r0, #72]
 415 0002 7822     		movs	r2, #120
 416 0004 5A60     		str	r2, [r3, #4]
 417              		.loc 1 441 0
 418 0006 1A68     		ldr	r2, [r3]
 419 0008 42F00302 		orr	r2, r2, #3
 420 000c 1A60     		str	r2, [r3]
 421              		.loc 1 442 0
 422 000e 5A68     		ldr	r2, [r3, #4]
 423 0010 42F48072 		orr	r2, r2, #256
 424 0014 5A60     		str	r2, [r3, #4]
 425              	.LVL28:
 426              	.LBB88:
 427              	.LBB89:
 428              		.loc 4 720 0
 429 0016 42F21070 		movw	r0, #10000
 430              	.LVL29:
 431 001a FFF7FEBF 		b	chThdSleep
 432              	.LVL30:
 433              	.LBE89:
 434              	.LBE88:
 435              		.cfi_endproc
 436              	.LFE333:
 437              		.size	sdc_lld_start_clk, .-sdc_lld_start_clk
 438              		.section	.text.sdc_lld_set_data_clk,"ax",%progbits
 439              		.align	1
 440              		.global	sdc_lld_set_data_clk
 441              		.syntax unified
 442              		.thumb
 443              		.thumb_func
 444              		.fpu fpv4-sp-d16
 445              		.type	sdc_lld_set_data_clk, %function
 446              	sdc_lld_set_data_clk:
 447              	.LFB334:
 448              		.loc 1 456 0
 449              		.cfi_startproc
 450              		@ args = 0, pretend = 0, frame = 0
 451              		@ frame_needed = 0, uses_anonymous_args = 0
 452              		@ link register save eliminated.
 453              	.LVL31:
 454              		.loc 1 468 0
 455 0000 816C     		ldr	r1, [r0, #72]
 456              	.LVL32:
ARM GAS  /tmp/ccw0TMEs.s 			page 9


 457              		.loc 1 457 0
 458 0002 C36A     		ldr	r3, [r0, #44]
 459              		.loc 1 468 0
 460 0004 4A68     		ldr	r2, [r1, #4]
 461 0006 5B79     		ldrb	r3, [r3, #5]	@ zero_extendqisi2
 462 0008 22F0FF02 		bic	r2, r2, #255
 463 000c 1343     		orrs	r3, r3, r2
 464 000e 4B60     		str	r3, [r1, #4]
 465              	.LVL33:
 466 0010 7047     		bx	lr
 467              		.cfi_endproc
 468              	.LFE334:
 469              		.size	sdc_lld_set_data_clk, .-sdc_lld_set_data_clk
 470              		.section	.text.sdc_lld_stop_clk,"ax",%progbits
 471              		.align	1
 472              		.global	sdc_lld_stop_clk
 473              		.syntax unified
 474              		.thumb
 475              		.thumb_func
 476              		.fpu fpv4-sp-d16
 477              		.type	sdc_lld_stop_clk, %function
 478              	sdc_lld_stop_clk:
 479              	.LFB335:
 480              		.loc 1 479 0
 481              		.cfi_startproc
 482              		@ args = 0, pretend = 0, frame = 0
 483              		@ frame_needed = 0, uses_anonymous_args = 0
 484              		@ link register save eliminated.
 485              	.LVL34:
 486              		.loc 1 481 0
 487 0000 836C     		ldr	r3, [r0, #72]
 488 0002 0022     		movs	r2, #0
 489 0004 5A60     		str	r2, [r3, #4]
 490              		.loc 1 482 0
 491 0006 1A60     		str	r2, [r3]
 492 0008 7047     		bx	lr
 493              		.cfi_endproc
 494              	.LFE335:
 495              		.size	sdc_lld_stop_clk, .-sdc_lld_stop_clk
 496              		.section	.text.sdc_lld_set_bus_mode,"ax",%progbits
 497              		.align	1
 498              		.global	sdc_lld_set_bus_mode
 499              		.syntax unified
 500              		.thumb
 501              		.thumb_func
 502              		.fpu fpv4-sp-d16
 503              		.type	sdc_lld_set_bus_mode, %function
 504              	sdc_lld_set_bus_mode:
 505              	.LFB336:
 506              		.loc 1 493 0
 507              		.cfi_startproc
 508              		@ args = 0, pretend = 0, frame = 0
 509              		@ frame_needed = 0, uses_anonymous_args = 0
 510              		@ link register save eliminated.
 511              	.LVL35:
 512              		.loc 1 494 0
 513 0000 826C     		ldr	r2, [r0, #72]
ARM GAS  /tmp/ccw0TMEs.s 			page 10


 514 0002 5368     		ldr	r3, [r2, #4]
 515              		.loc 1 496 0
 516 0004 0129     		cmp	r1, #1
 517              		.loc 1 494 0
 518 0006 23F4C053 		bic	r3, r3, #6144
 519              	.LVL36:
 520              		.loc 1 496 0
 521 000a 03D0     		beq	.L49
 522 000c 04D3     		bcc	.L52
 523 000e 0229     		cmp	r1, #2
 524 0010 04D0     		beq	.L51
 525 0012 7047     		bx	lr
 526              	.L49:
 527              		.loc 1 501 0
 528 0014 43F40063 		orr	r3, r3, #2048
 529              	.LVL37:
 530              	.L52:
 531              		.loc 1 504 0
 532 0018 5360     		str	r3, [r2, #4]
 533 001a 7047     		bx	lr
 534              	.LVL38:
 535              	.L51:
 536 001c 43F48053 		orr	r3, r3, #4096
 537              	.LVL39:
 538 0020 FAE7     		b	.L52
 539              		.cfi_endproc
 540              	.LFE336:
 541              		.size	sdc_lld_set_bus_mode, .-sdc_lld_set_bus_mode
 542              		.section	.text.sdc_lld_send_cmd_none,"ax",%progbits
 543              		.align	1
 544              		.global	sdc_lld_send_cmd_none
 545              		.syntax unified
 546              		.thumb
 547              		.thumb_func
 548              		.fpu fpv4-sp-d16
 549              		.type	sdc_lld_send_cmd_none, %function
 550              	sdc_lld_send_cmd_none:
 551              	.LFB337:
 552              		.loc 1 518 0
 553              		.cfi_startproc
 554              		@ args = 0, pretend = 0, frame = 0
 555              		@ frame_needed = 0, uses_anonymous_args = 0
 556              		@ link register save eliminated.
 557              	.LVL40:
 558              		.loc 1 520 0
 559 0000 836C     		ldr	r3, [r0, #72]
 560              		.loc 1 521 0
 561 0002 41F48061 		orr	r1, r1, #1024
 562              	.LVL41:
 563              		.loc 1 520 0
 564 0006 9A60     		str	r2, [r3, #8]
 565              		.loc 1 521 0
 566 0008 D960     		str	r1, [r3, #12]
 567              	.LVL42:
 568              	.L54:
 569              		.loc 1 522 0 discriminator 1
 570 000a 5A6B     		ldr	r2, [r3, #52]
ARM GAS  /tmp/ccw0TMEs.s 			page 11


 571 000c 1206     		lsls	r2, r2, #24
 572 000e FCD5     		bpl	.L54
 573              		.loc 1 524 0
 574 0010 8022     		movs	r2, #128
 575 0012 9A63     		str	r2, [r3, #56]
 576 0014 7047     		bx	lr
 577              		.cfi_endproc
 578              	.LFE337:
 579              		.size	sdc_lld_send_cmd_none, .-sdc_lld_send_cmd_none
 580              		.section	.text.sdc_lld_send_cmd_short,"ax",%progbits
 581              		.align	1
 582              		.global	sdc_lld_send_cmd_short
 583              		.syntax unified
 584              		.thumb
 585              		.thumb_func
 586              		.fpu fpv4-sp-d16
 587              		.type	sdc_lld_send_cmd_short, %function
 588              	sdc_lld_send_cmd_short:
 589              	.LFB338:
 590              		.loc 1 543 0
 591              		.cfi_startproc
 592              		@ args = 0, pretend = 0, frame = 0
 593              		@ frame_needed = 0, uses_anonymous_args = 0
 594              	.LVL43:
 595 0000 10B5     		push	{r4, lr}
 596              		.cfi_def_cfa_offset 8
 597              		.cfi_offset 4, -8
 598              		.cfi_offset 14, -4
 599              		.loc 1 546 0
 600 0002 846C     		ldr	r4, [r0, #72]
 601              		.loc 1 547 0
 602 0004 41F48861 		orr	r1, r1, #1088
 603              	.LVL44:
 604              		.loc 1 546 0
 605 0008 A260     		str	r2, [r4, #8]
 606              		.loc 1 547 0
 607 000a E160     		str	r1, [r4, #12]
 608              	.LVL45:
 609              	.L58:
 610              		.loc 1 548 0 discriminator 1
 611 000c 616B     		ldr	r1, [r4, #52]
 612              	.LVL46:
 613 000e 11F04502 		ands	r2, r1, #69
 614 0012 FBD0     		beq	.L58
 615              		.loc 1 551 0
 616 0014 A263     		str	r2, [r4, #56]
 617              		.loc 1 553 0
 618 0016 11F00402 		ands	r2, r1, #4
 619 001a 04D0     		beq	.L59
 620              		.loc 1 554 0
 621 001c 3430     		adds	r0, r0, #52
 622              	.LVL47:
 623 001e FFF7FEFF 		bl	sdc_lld_collect_errors.isra.0
 624              	.LVL48:
 625              		.loc 1 555 0
 626 0022 0120     		movs	r0, #1
 627              	.LVL49:
ARM GAS  /tmp/ccw0TMEs.s 			page 12


 628 0024 10BD     		pop	{r4, pc}
 629              	.LVL50:
 630              	.L59:
 631              		.loc 1 557 0
 632 0026 6169     		ldr	r1, [r4, #20]
 633              	.LVL51:
 634 0028 1960     		str	r1, [r3]
 635              		.loc 1 558 0
 636 002a 1046     		mov	r0, r2
 637              	.LVL52:
 638              		.loc 1 559 0
 639 002c 10BD     		pop	{r4, pc}
 640              		.cfi_endproc
 641              	.LFE338:
 642              		.size	sdc_lld_send_cmd_short, .-sdc_lld_send_cmd_short
 643              		.section	.text.sdc_lld_send_cmd_short_crc,"ax",%progbits
 644              		.align	1
 645              		.global	sdc_lld_send_cmd_short_crc
 646              		.syntax unified
 647              		.thumb
 648              		.thumb_func
 649              		.fpu fpv4-sp-d16
 650              		.type	sdc_lld_send_cmd_short_crc, %function
 651              	sdc_lld_send_cmd_short_crc:
 652              	.LFB339:
 653              		.loc 1 576 0
 654              		.cfi_startproc
 655              		@ args = 0, pretend = 0, frame = 0
 656              		@ frame_needed = 0, uses_anonymous_args = 0
 657              	.LVL53:
 658 0000 10B5     		push	{r4, lr}
 659              		.cfi_def_cfa_offset 8
 660              		.cfi_offset 4, -8
 661              		.cfi_offset 14, -4
 662              		.loc 1 579 0
 663 0002 846C     		ldr	r4, [r0, #72]
 664              		.loc 1 580 0
 665 0004 41F48861 		orr	r1, r1, #1088
 666              	.LVL54:
 667              		.loc 1 579 0
 668 0008 A260     		str	r2, [r4, #8]
 669              		.loc 1 580 0
 670 000a E160     		str	r1, [r4, #12]
 671              	.LVL55:
 672              	.L64:
 673              		.loc 1 581 0 discriminator 1
 674 000c 616B     		ldr	r1, [r4, #52]
 675              	.LVL56:
 676 000e 11F04502 		ands	r2, r1, #69
 677 0012 FBD0     		beq	.L64
 678              		.loc 1 584 0
 679 0014 A263     		str	r2, [r4, #56]
 680              		.loc 1 585 0
 681 0016 11F00502 		ands	r2, r1, #5
 682 001a 04D0     		beq	.L65
 683              		.loc 1 586 0
 684 001c 3430     		adds	r0, r0, #52
ARM GAS  /tmp/ccw0TMEs.s 			page 13


 685              	.LVL57:
 686 001e FFF7FEFF 		bl	sdc_lld_collect_errors.isra.0
 687              	.LVL58:
 688              		.loc 1 587 0
 689 0022 0120     		movs	r0, #1
 690              	.LVL59:
 691 0024 10BD     		pop	{r4, pc}
 692              	.LVL60:
 693              	.L65:
 694              		.loc 1 589 0
 695 0026 6169     		ldr	r1, [r4, #20]
 696              	.LVL61:
 697 0028 1960     		str	r1, [r3]
 698              		.loc 1 590 0
 699 002a 1046     		mov	r0, r2
 700              	.LVL62:
 701              		.loc 1 591 0
 702 002c 10BD     		pop	{r4, pc}
 703              		.cfi_endproc
 704              	.LFE339:
 705              		.size	sdc_lld_send_cmd_short_crc, .-sdc_lld_send_cmd_short_crc
 706              		.section	.text.sdc_lld_wait_transaction_end,"ax",%progbits
 707              		.align	1
 708              		.syntax unified
 709              		.thumb
 710              		.thumb_func
 711              		.fpu fpv4-sp-d16
 712              		.type	sdc_lld_wait_transaction_end, %function
 713              	sdc_lld_wait_transaction_end:
 714              	.LFB326:
 715              		.loc 1 211 0
 716              		.cfi_startproc
 717              		@ args = 0, pretend = 0, frame = 0
 718              		@ frame_needed = 0, uses_anonymous_args = 0
 719              	.LVL63:
 720 0000 2DE9F041 		push	{r4, r5, r6, r7, r8, lr}
 721              		.cfi_def_cfa_offset 24
 722              		.cfi_offset 4, -24
 723              		.cfi_offset 5, -20
 724              		.cfi_offset 6, -16
 725              		.cfi_offset 7, -12
 726              		.cfi_offset 8, -8
 727              		.cfi_offset 14, -4
 728              	.LBB121:
 729              	.LBB122:
 730              	.LBB123:
 731              	.LBB124:
 732              	.LBB125:
 733              	.LBB126:
 734              		.loc 2 493 0
 735 0004 2023     		movs	r3, #32
 736              	.LBE126:
 737              	.LBE125:
 738              	.LBE124:
 739              	.LBE123:
 740              	.LBE122:
 741              	.LBE121:
ARM GAS  /tmp/ccw0TMEs.s 			page 14


 742              		.loc 1 211 0
 743 0006 0546     		mov	r5, r0
 744              	.LVL64:
 745 0008 0F46     		mov	r7, r1
 746 000a 1646     		mov	r6, r2
 747              	.LBB132:
 748              	.LBB131:
 749              	.LBB130:
 750              	.LBB129:
 751              	.LBB128:
 752              	.LBB127:
 753              		.loc 2 493 0
 754              		.syntax unified
 755              	@ 493 "../../modules/ChibiOS/os/common/ext/ARM/CMSIS/Core/Include/cmsis_gcc.h" 1
 756 000c 83F31188 		MSR basepri, r3
 757              	@ 0 "" 2
 758              	.LVL65:
 759              		.thumb
 760              		.syntax unified
 761              	.LBE127:
 762              	.LBE128:
 763              	.LBE129:
 764              		.loc 3 356 0
 765 0010 FFF7FEFF 		bl	_stats_start_measure_crit_thd
 766              	.LVL66:
 767              	.LBE130:
 768              	.LBE131:
 769              	.LBE132:
 770              		.loc 1 216 0
 771 0014 AB6C     		ldr	r3, [r5, #72]
 772 0016 DB6B     		ldr	r3, [r3, #60]
 773 0018 2BB1     		cbz	r3, .L70
 774              	.LVL67:
 775              	.LBB133:
 776              	.LBB134:
 777              		.loc 4 735 0
 778 001a 4FF0FF31 		mov	r1, #-1
 779 001e 05F13C00 		add	r0, r5, #60
 780              	.LVL68:
 781 0022 FFF7FEFF 		bl	chThdSuspendTimeoutS
 782              	.LVL69:
 783              	.L70:
 784              	.LBE134:
 785              	.LBE133:
 786              		.loc 1 218 0
 787 0026 AA6C     		ldr	r2, [r5, #72]
 788 0028 546B     		ldr	r4, [r2, #52]
 789 002a 14F48074 		ands	r4, r4, #256
 790 002e 06D1     		bne	.L71
 791              	.LBB135:
 792              	.LBB136:
 793              	.LBB137:
 794              		.loc 3 368 0
 795 0030 FFF7FEFF 		bl	_stats_stop_measure_crit_thd
 796              	.LVL70:
 797              	.LBB138:
 798              	.LBB139:
ARM GAS  /tmp/ccw0TMEs.s 			page 15


 799              	.LBB140:
 800              		.loc 2 493 0
 801              		.syntax unified
 802              	@ 493 "../../modules/ChibiOS/os/common/ext/ARM/CMSIS/Core/Include/cmsis_gcc.h" 1
 803 0034 84F31188 		MSR basepri, r4
 804              	@ 0 "" 2
 805              	.LVL71:
 806              		.thumb
 807              		.syntax unified
 808              	.LBE140:
 809              	.LBE139:
 810              	.LBE138:
 811              	.LBE137:
 812              	.LBE136:
 813              	.LBE135:
 814              		.loc 1 220 0
 815 0038 0120     		movs	r0, #1
 816 003a BDE8F081 		pop	{r4, r5, r6, r7, r8, pc}
 817              	.LVL72:
 818              	.L71:
 819              		.loc 1 225 0
 820 003e 6B6C     		ldr	r3, [r5, #68]
 821 0040 1968     		ldr	r1, [r3]
 822              	.L73:
 823              		.loc 1 225 0 is_stmt 0 discriminator 1
 824 0042 0C68     		ldr	r4, [r1]
 825 0044 14F00104 		ands	r4, r4, #1
 826 0048 FBD1     		bne	.L73
 827              		.loc 1 229 0 is_stmt 1
 828 004a 587A     		ldrb	r0, [r3, #9]	@ zero_extendqisi2
 829 004c 5968     		ldr	r1, [r3, #4]
 830 004e 3D23     		movs	r3, #61
 831 0050 8340     		lsls	r3, r3, r0
 832 0052 0B60     		str	r3, [r1]
 833              		.loc 1 231 0
 834 0054 094B     		ldr	r3, .L79
 835 0056 9363     		str	r3, [r2, #56]
 836              		.loc 1 232 0
 837 0058 D462     		str	r4, [r2, #44]
 838              	.LBB141:
 839              	.LBB142:
 840              	.LBB143:
 841              		.loc 3 368 0
 842 005a FFF7FEFF 		bl	_stats_stop_measure_crit_thd
 843              	.LVL73:
 844              	.LBB144:
 845              	.LBB145:
 846              	.LBB146:
 847              		.loc 2 493 0
 848              		.syntax unified
 849              	@ 493 "../../modules/ChibiOS/os/common/ext/ARM/CMSIS/Core/Include/cmsis_gcc.h" 1
 850 005e 84F31188 		MSR basepri, r4
 851              	@ 0 "" 2
 852              	.LVL74:
 853              		.thumb
 854              		.syntax unified
 855              	.LBE146:
ARM GAS  /tmp/ccw0TMEs.s 			page 16


 856              	.LBE145:
 857              	.LBE144:
 858              	.LBE143:
 859              	.LBE142:
 860              	.LBE141:
 861              		.loc 1 249 0
 862 0062 012F     		cmp	r7, #1
 863 0064 07D9     		bls	.L74
 864              	.LVL75:
 865              	.LBB147:
 866              	.LBB148:
 867              		.loc 1 250 0
 868 0066 3346     		mov	r3, r6
 869 0068 2246     		mov	r2, r4
 870 006a 2846     		mov	r0, r5
 871 006c 0C21     		movs	r1, #12
 872              	.LBE148:
 873              	.LBE147:
 874              		.loc 1 253 0
 875 006e BDE8F041 		pop	{r4, r5, r6, r7, r8, lr}
 876              		.cfi_remember_state
 877              		.cfi_restore 14
 878              		.cfi_restore 8
 879              		.cfi_restore 7
 880              		.cfi_restore 6
 881              		.cfi_restore 5
 882              		.cfi_restore 4
 883              		.cfi_def_cfa_offset 0
 884              	.LVL76:
 885              	.LBB150:
 886              	.LBB149:
 887              		.loc 1 250 0
 888 0072 FFF7FEBF 		b	sdc_lld_send_cmd_short_crc
 889              	.LVL77:
 890              	.L74:
 891              		.cfi_restore_state
 892              	.LBE149:
 893              	.LBE150:
 894              		.loc 1 252 0
 895 0076 2046     		mov	r0, r4
 896              		.loc 1 253 0
 897 0078 BDE8F081 		pop	{r4, r5, r6, r7, r8, pc}
 898              	.LVL78:
 899              	.L80:
 900              		.align	2
 901              	.L79:
 902 007c FF07C000 		.word	12584959
 903              		.cfi_endproc
 904              	.LFE326:
 905              		.size	sdc_lld_wait_transaction_end, .-sdc_lld_wait_transaction_end
 906              		.section	.text.sdc_lld_error_cleanup,"ax",%progbits
 907              		.align	1
 908              		.syntax unified
 909              		.thumb
 910              		.thumb_func
 911              		.fpu fpv4-sp-d16
 912              		.type	sdc_lld_error_cleanup, %function
ARM GAS  /tmp/ccw0TMEs.s 			page 17


 913              	sdc_lld_error_cleanup:
 914              	.LFB328:
 915              		.loc 1 295 0
 916              		.cfi_startproc
 917              		@ args = 0, pretend = 0, frame = 0
 918              		@ frame_needed = 0, uses_anonymous_args = 0
 919              	.LVL79:
 920 0000 2DE9F041 		push	{r4, r5, r6, r7, r8, lr}
 921              		.cfi_def_cfa_offset 24
 922              		.cfi_offset 4, -24
 923              		.cfi_offset 5, -20
 924              		.cfi_offset 6, -16
 925              		.cfi_offset 7, -12
 926              		.cfi_offset 8, -8
 927              		.cfi_offset 14, -4
 928              		.loc 1 298 0
 929 0004 446C     		ldr	r4, [r0, #68]
 930 0006 667A     		ldrb	r6, [r4, #9]	@ zero_extendqisi2
 931 0008 6368     		ldr	r3, [r4, #4]
 932              		.loc 1 295 0
 933 000a 0546     		mov	r5, r0
 934 000c 9046     		mov	r8, r2
 935              		.loc 1 296 0
 936 000e 826C     		ldr	r2, [r0, #72]
 937              	.LVL80:
 938              		.loc 1 298 0
 939 0010 3D20     		movs	r0, #61
 940              	.LVL81:
 941 0012 B040     		lsls	r0, r0, r6
 942              		.loc 1 299 0
 943 0014 2668     		ldr	r6, [r4]
 944              		.loc 1 295 0
 945 0016 0F46     		mov	r7, r1
 946              		.loc 1 296 0
 947 0018 516B     		ldr	r1, [r2, #52]
 948              	.LVL82:
 949              		.loc 1 298 0
 950 001a 1860     		str	r0, [r3]
 951              		.loc 1 299 0
 952 001c 3468     		ldr	r4, [r6]
 953 001e 24F01F04 		bic	r4, r4, #31
 954 0022 3460     		str	r4, [r6]
 955              	.L82:
 956              		.loc 1 299 0 is_stmt 0 discriminator 2
 957 0024 3468     		ldr	r4, [r6]
 958 0026 14F00104 		ands	r4, r4, #1
 959 002a FBD1     		bne	.L82
 960              		.loc 1 299 0 discriminator 3
 961 002c 1860     		str	r0, [r3]
 962              		.loc 1 300 0 is_stmt 1 discriminator 3
 963 002e 0A4B     		ldr	r3, .L85
 964 0030 9363     		str	r3, [r2, #56]
 965              		.loc 1 303 0 discriminator 3
 966 0032 05F13400 		add	r0, r5, #52
 967              		.loc 1 301 0 discriminator 3
 968 0036 D463     		str	r4, [r2, #60]
 969              		.loc 1 302 0 discriminator 3
ARM GAS  /tmp/ccw0TMEs.s 			page 18


 970 0038 D462     		str	r4, [r2, #44]
 971              		.loc 1 303 0 discriminator 3
 972 003a FFF7FEFF 		bl	sdc_lld_collect_errors.isra.0
 973              	.LVL83:
 974              		.loc 1 304 0 discriminator 3
 975 003e 012F     		cmp	r7, #1
 976 0040 07D9     		bls	.L81
 977              	.LVL84:
 978              	.LBB153:
 979              	.LBB154:
 980              		.loc 1 305 0
 981 0042 4346     		mov	r3, r8
 982 0044 2246     		mov	r2, r4
 983 0046 2846     		mov	r0, r5
 984 0048 0C21     		movs	r1, #12
 985              	.LVL85:
 986              	.LBE154:
 987              	.LBE153:
 988              		.loc 1 306 0
 989 004a BDE8F041 		pop	{r4, r5, r6, r7, r8, lr}
 990              		.cfi_remember_state
 991              		.cfi_restore 14
 992              		.cfi_restore 8
 993              		.cfi_restore 7
 994              		.cfi_restore 6
 995              		.cfi_restore 5
 996              		.cfi_restore 4
 997              		.cfi_def_cfa_offset 0
 998              	.LVL86:
 999              	.LBB156:
 1000              	.LBB155:
 1001              		.loc 1 305 0
 1002 004e FFF7FEBF 		b	sdc_lld_send_cmd_short_crc
 1003              	.LVL87:
 1004              	.L81:
 1005              		.cfi_restore_state
 1006 0052 BDE8F081 		pop	{r4, r5, r6, r7, r8, pc}
 1007              	.LVL88:
 1008              	.L86:
 1009 0056 00BF     		.align	2
 1010              	.L85:
 1011 0058 FF07C000 		.word	12584959
 1012              	.LBE155:
 1013              	.LBE156:
 1014              		.cfi_endproc
 1015              	.LFE328:
 1016              		.size	sdc_lld_error_cleanup, .-sdc_lld_error_cleanup
 1017              		.section	.text.sdc_lld_send_cmd_long_crc,"ax",%progbits
 1018              		.align	1
 1019              		.global	sdc_lld_send_cmd_long_crc
 1020              		.syntax unified
 1021              		.thumb
 1022              		.thumb_func
 1023              		.fpu fpv4-sp-d16
 1024              		.type	sdc_lld_send_cmd_long_crc, %function
 1025              	sdc_lld_send_cmd_long_crc:
 1026              	.LFB340:
ARM GAS  /tmp/ccw0TMEs.s 			page 19


 1027              		.loc 1 608 0
 1028              		.cfi_startproc
 1029              		@ args = 0, pretend = 0, frame = 0
 1030              		@ frame_needed = 0, uses_anonymous_args = 0
 1031              	.LVL89:
 1032 0000 10B5     		push	{r4, lr}
 1033              		.cfi_def_cfa_offset 8
 1034              		.cfi_offset 4, -8
 1035              		.cfi_offset 14, -4
 1036              		.loc 1 613 0
 1037 0002 846C     		ldr	r4, [r0, #72]
 1038              		.loc 1 614 0
 1039 0004 41F49861 		orr	r1, r1, #1216
 1040              	.LVL90:
 1041              		.loc 1 613 0
 1042 0008 A260     		str	r2, [r4, #8]
 1043              		.loc 1 614 0
 1044 000a E160     		str	r1, [r4, #12]
 1045              	.LVL91:
 1046              	.L88:
 1047              		.loc 1 616 0 discriminator 1
 1048 000c 616B     		ldr	r1, [r4, #52]
 1049              	.LVL92:
 1050 000e 11F04502 		ands	r2, r1, #69
 1051 0012 FBD0     		beq	.L88
 1052              		.loc 1 619 0
 1053 0014 A263     		str	r2, [r4, #56]
 1054              		.loc 1 621 0
 1055 0016 11F03F02 		ands	r2, r1, #63
 1056 001a 04D0     		beq	.L89
 1057              		.loc 1 622 0
 1058 001c 3430     		adds	r0, r0, #52
 1059              	.LVL93:
 1060 001e FFF7FEFF 		bl	sdc_lld_collect_errors.isra.0
 1061              	.LVL94:
 1062              		.loc 1 623 0
 1063 0022 0120     		movs	r0, #1
 1064              	.LVL95:
 1065 0024 10BD     		pop	{r4, pc}
 1066              	.LVL96:
 1067              	.L89:
 1068              		.loc 1 626 0
 1069 0026 216A     		ldr	r1, [r4, #32]
 1070              	.LVL97:
 1071 0028 1960     		str	r1, [r3]
 1072              	.LVL98:
 1073              		.loc 1 627 0
 1074 002a E169     		ldr	r1, [r4, #28]
 1075 002c 5960     		str	r1, [r3, #4]
 1076              	.LVL99:
 1077              		.loc 1 628 0
 1078 002e A169     		ldr	r1, [r4, #24]
 1079 0030 9960     		str	r1, [r3, #8]
 1080              		.loc 1 629 0
 1081 0032 6169     		ldr	r1, [r4, #20]
 1082 0034 D960     		str	r1, [r3, #12]
 1083              		.loc 1 630 0
ARM GAS  /tmp/ccw0TMEs.s 			page 20


 1084 0036 1046     		mov	r0, r2
 1085              	.LVL100:
 1086              		.loc 1 631 0
 1087 0038 10BD     		pop	{r4, pc}
 1088              		.cfi_endproc
 1089              	.LFE340:
 1090              		.size	sdc_lld_send_cmd_long_crc, .-sdc_lld_send_cmd_long_crc
 1091              		.section	.text.sdc_lld_read_special,"ax",%progbits
 1092              		.align	1
 1093              		.global	sdc_lld_read_special
 1094              		.syntax unified
 1095              		.thumb
 1096              		.thumb_func
 1097              		.fpu fpv4-sp-d16
 1098              		.type	sdc_lld_read_special, %function
 1099              	sdc_lld_read_special:
 1100              	.LFB341:
 1101              		.loc 1 650 0
 1102              		.cfi_startproc
 1103              		@ args = 4, pretend = 0, frame = 16
 1104              		@ frame_needed = 0, uses_anonymous_args = 0
 1105              	.LVL101:
 1106 0000 F0B5     		push	{r4, r5, r6, r7, lr}
 1107              		.cfi_def_cfa_offset 20
 1108              		.cfi_offset 4, -20
 1109              		.cfi_offset 5, -16
 1110              		.cfi_offset 6, -12
 1111              		.cfi_offset 7, -8
 1112              		.cfi_offset 14, -4
 1113 0002 85B0     		sub	sp, sp, #20
 1114              		.cfi_def_cfa_offset 40
 1115              		.loc 1 650 0
 1116 0004 0446     		mov	r4, r0
 1117 0006 04A8     		add	r0, sp, #16
 1118              	.LVL102:
 1119 0008 1646     		mov	r6, r2
 1120 000a 40F80C1D 		str	r1, [r0, #-12]!
 1121              		.loc 1 653 0
 1122 000e 0146     		mov	r1, r0
 1123              	.LVL103:
 1124 0010 E06C     		ldr	r0, [r4, #76]
 1125              	.LVL104:
 1126              		.loc 1 650 0
 1127 0012 1D46     		mov	r5, r3
 1128              		.loc 1 653 0
 1129 0014 FFF7FEFF 		bl	bouncebuffer_setup_read
 1130              	.LVL105:
 1131              	.LBB159:
 1132              	.LBB160:
 1133              		.loc 1 93 0
 1134 0018 A36C     		ldr	r3, [r4, #72]
 1135 001a 214A     		ldr	r2, .L96
 1136 001c 5A62     		str	r2, [r3, #36]
 1137              		.loc 1 96 0
 1138 001e 2046     		mov	r0, r4
 1139              	.LBE160:
 1140              	.LBE159:
ARM GAS  /tmp/ccw0TMEs.s 			page 21


 1141              		.loc 1 655 0
 1142 0020 019F     		ldr	r7, [sp, #4]
 1143              	.LVL106:
 1144              	.LBB163:
 1145              	.LBB161:
 1146              		.loc 1 96 0
 1147 0022 FFF7FEFF 		bl	_sdc_wait_for_transfer_state
 1148              	.LVL107:
 1149 0026 0028     		cmp	r0, #0
 1150 0028 2DD1     		bne	.L94
 1151              		.loc 1 100 0
 1152 002a 636C     		ldr	r3, [r4, #68]
 1153 002c 1B68     		ldr	r3, [r3]
 1154              		.loc 1 101 0
 1155 002e B208     		lsrs	r2, r6, #2
 1156              		.loc 1 100 0
 1157 0030 DF60     		str	r7, [r3, #12]
 1158              		.loc 1 101 0
 1159 0032 5A60     		str	r2, [r3, #4]
 1160              		.loc 1 102 0
 1161 0034 226C     		ldr	r2, [r4, #64]
 1162 0036 1A60     		str	r2, [r3]
 1163              		.loc 1 103 0
 1164 0038 1A68     		ldr	r2, [r3]
 1165 003a 42F00102 		orr	r2, r2, #1
 1166 003e 1A60     		str	r2, [r3]
 1167              		.loc 1 106 0
 1168 0040 A36C     		ldr	r3, [r4, #72]
 1169 0042 184A     		ldr	r2, .L96+4
 1170 0044 9A63     		str	r2, [r3, #56]
 1171              		.loc 1 107 0
 1172 0046 40F22A32 		movw	r2, #810
 1173 004a DA63     		str	r2, [r3, #60]
 1174              		.loc 1 115 0
 1175 004c 0F22     		movs	r2, #15
 1176              		.loc 1 112 0
 1177 004e 9E62     		str	r6, [r3, #40]
 1178              	.LBE161:
 1179              	.LBE163:
 1180              		.loc 1 658 0
 1181 0050 2946     		mov	r1, r5
 1182              	.LBB164:
 1183              	.LBB162:
 1184              		.loc 1 115 0
 1185 0052 DA62     		str	r2, [r3, #44]
 1186              	.LVL108:
 1187              	.LBE162:
 1188              	.LBE164:
 1189              		.loc 1 658 0
 1190 0054 2046     		mov	r0, r4
 1191 0056 03AB     		add	r3, sp, #12
 1192 0058 0A9A     		ldr	r2, [sp, #40]
 1193 005a FFF7FEFF 		bl	sdc_lld_send_cmd_short_crc
 1194              	.LVL109:
 1195 005e 90B9     		cbnz	r0, .L94
 1196              		.loc 1 659 0
 1197 0060 114B     		ldr	r3, .L96+8
ARM GAS  /tmp/ccw0TMEs.s 			page 22


 1198 0062 039A     		ldr	r2, [sp, #12]
 1199 0064 1340     		ands	r3, r3, r2
 1200 0066 73B9     		cbnz	r3, .L94
 1201              		.loc 1 662 0
 1202 0068 03AA     		add	r2, sp, #12
 1203 006a 0121     		movs	r1, #1
 1204 006c 2046     		mov	r0, r4
 1205 006e FFF7FEFF 		bl	sdc_lld_wait_transaction_end
 1206              	.LVL110:
 1207 0072 0546     		mov	r5, r0
 1208 0074 38B9     		cbnz	r0, .L94
 1209              		.loc 1 665 0
 1210 0076 3246     		mov	r2, r6
 1211 0078 0199     		ldr	r1, [sp, #4]
 1212 007a E06C     		ldr	r0, [r4, #76]
 1213 007c FFF7FEFF 		bl	bouncebuffer_finish_read
 1214              	.LVL111:
 1215              	.L95:
 1216              		.loc 1 673 0
 1217 0080 2846     		mov	r0, r5
 1218 0082 05B0     		add	sp, sp, #20
 1219              		.cfi_remember_state
 1220              		.cfi_def_cfa_offset 20
 1221              		@ sp needed
 1222 0084 F0BD     		pop	{r4, r5, r6, r7, pc}
 1223              	.LVL112:
 1224              	.L94:
 1225              		.cfi_restore_state
 1226              	.LDL1:
 1227              		.loc 1 670 0
 1228 0086 0022     		movs	r2, #0
 1229 0088 0199     		ldr	r1, [sp, #4]
 1230 008a E06C     		ldr	r0, [r4, #76]
 1231 008c FFF7FEFF 		bl	bouncebuffer_finish_read
 1232              	.LVL113:
 1233              		.loc 1 671 0
 1234 0090 03AA     		add	r2, sp, #12
 1235 0092 0121     		movs	r1, #1
 1236 0094 2046     		mov	r0, r4
 1237 0096 FFF7FEFF 		bl	sdc_lld_error_cleanup
 1238              	.LVL114:
 1239              		.loc 1 672 0
 1240 009a 0125     		movs	r5, #1
 1241 009c F0E7     		b	.L95
 1242              	.L97:
 1243 009e 00BF     		.align	2
 1244              	.L96:
 1245 00a0 00366E01 		.word	24000000
 1246 00a4 FF07C000 		.word	12584959
 1247 00a8 08E0FFFD 		.word	-33562616
 1248              		.cfi_endproc
 1249              	.LFE341:
 1250              		.size	sdc_lld_read_special, .-sdc_lld_read_special
 1251              		.section	.text.sdc_lld_read_aligned,"ax",%progbits
 1252              		.align	1
 1253              		.global	sdc_lld_read_aligned
 1254              		.syntax unified
ARM GAS  /tmp/ccw0TMEs.s 			page 23


 1255              		.thumb
 1256              		.thumb_func
 1257              		.fpu fpv4-sp-d16
 1258              		.type	sdc_lld_read_aligned, %function
 1259              	sdc_lld_read_aligned:
 1260              	.LFB342:
 1261              		.loc 1 690 0
 1262              		.cfi_startproc
 1263              		@ args = 0, pretend = 0, frame = 16
 1264              		@ frame_needed = 0, uses_anonymous_args = 0
 1265              	.LVL115:
 1266 0000 2DE9FF41 		push	{r0, r1, r2, r3, r4, r5, r6, r7, r8, lr}
 1267              		.cfi_def_cfa_offset 40
 1268              		.cfi_offset 4, -24
 1269              		.cfi_offset 5, -20
 1270              		.cfi_offset 6, -16
 1271              		.cfi_offset 7, -12
 1272              		.cfi_offset 8, -8
 1273              		.cfi_offset 14, -4
 1274              		.loc 1 690 0
 1275 0004 1F46     		mov	r7, r3
 1276              		.loc 1 695 0
 1277 0006 836C     		ldr	r3, [r0, #72]
 1278              	.LVL116:
 1279              		.loc 1 690 0
 1280 0008 0192     		str	r2, [sp, #4]
 1281              		.loc 1 695 0
 1282 000a 2A4A     		ldr	r2, .L109
 1283              	.LVL117:
 1284 000c 5A62     		str	r2, [r3, #36]
 1285              		.loc 1 690 0
 1286 000e 0446     		mov	r4, r0
 1287 0010 8846     		mov	r8, r1
 1288              		.loc 1 698 0
 1289 0012 FFF7FEFF 		bl	_sdc_wait_for_transfer_state
 1290              	.LVL118:
 1291 0016 0546     		mov	r5, r0
 1292 0018 0028     		cmp	r0, #0
 1293 001a 46D1     		bne	.L105
 1294              		.loc 1 701 0
 1295 001c 7E02     		lsls	r6, r7, #9
 1296 001e 01A9     		add	r1, sp, #4
 1297 0020 3246     		mov	r2, r6
 1298 0022 E06C     		ldr	r0, [r4, #76]
 1299 0024 FFF7FEFF 		bl	bouncebuffer_setup_read
 1300              	.LVL119:
 1301              		.loc 1 704 0
 1302 0028 636C     		ldr	r3, [r4, #68]
 1303 002a 019A     		ldr	r2, [sp, #4]
 1304 002c 1B68     		ldr	r3, [r3]
 1305 002e DA60     		str	r2, [r3, #12]
 1306              		.loc 1 705 0
 1307 0030 B208     		lsrs	r2, r6, #2
 1308 0032 5A60     		str	r2, [r3, #4]
 1309              		.loc 1 707 0
 1310 0034 226C     		ldr	r2, [r4, #64]
 1311 0036 1A60     		str	r2, [r3]
ARM GAS  /tmp/ccw0TMEs.s 			page 24


 1312              		.loc 1 708 0
 1313 0038 1A68     		ldr	r2, [r3]
 1314 003a 42F00102 		orr	r2, r2, #1
 1315 003e 1A60     		str	r2, [r3]
 1316              		.loc 1 711 0
 1317 0040 A36C     		ldr	r3, [r4, #72]
 1318 0042 1D4A     		ldr	r2, .L109+4
 1319 0044 9A63     		str	r2, [r3, #56]
 1320              		.loc 1 712 0
 1321 0046 40F22A32 		movw	r2, #810
 1322 004a DA63     		str	r2, [r3, #60]
 1323              		.loc 1 720 0
 1324 004c 9B22     		movs	r2, #155
 1325              		.loc 1 717 0
 1326 004e 9E62     		str	r6, [r3, #40]
 1327              		.loc 1 720 0
 1328 0050 DA62     		str	r2, [r3, #44]
 1329              	.LVL120:
 1330              	.LBB167:
 1331              	.LBB168:
 1332              		.loc 1 142 0
 1333 0052 236B     		ldr	r3, [r4, #48]
 1334 0054 DB06     		lsls	r3, r3, #27
 1335              		.loc 1 143 0
 1336 0056 58BF     		it	pl
 1337 0058 4FEA4828 		lslpl	r8, r8, #9
 1338              	.LVL121:
 1339              		.loc 1 145 0
 1340 005c 012F     		cmp	r7, #1
 1341              		.loc 1 147 0
 1342 005e 8CBF     		ite	hi
 1343 0060 1221     		movhi	r1, #18
 1344              		.loc 1 153 0
 1345 0062 1121     		movls	r1, #17
 1346              		.loc 1 147 0
 1347 0064 03AB     		add	r3, sp, #12
 1348              	.LVL122:
 1349 0066 4246     		mov	r2, r8
 1350              		.loc 1 153 0
 1351 0068 2046     		mov	r0, r4
 1352 006a FFF7FEFF 		bl	sdc_lld_send_cmd_short_crc
 1353              	.LVL123:
 1354 006e 18B9     		cbnz	r0, .L102
 1355              		.loc 1 154 0
 1356 0070 124B     		ldr	r3, .L109+8
 1357 0072 039A     		ldr	r2, [sp, #12]
 1358 0074 1340     		ands	r3, r3, r2
 1359 0076 5BB1     		cbz	r3, .L103
 1360              	.LVL124:
 1361              	.L102:
 1362              	.LDL2:
 1363              	.LBE168:
 1364              	.LBE167:
 1365              		.loc 1 737 0
 1366 0078 0022     		movs	r2, #0
 1367 007a 0199     		ldr	r1, [sp, #4]
 1368 007c E06C     		ldr	r0, [r4, #76]
ARM GAS  /tmp/ccw0TMEs.s 			page 25


 1369 007e FFF7FEFF 		bl	bouncebuffer_finish_read
 1370              	.LVL125:
 1371              		.loc 1 738 0
 1372 0082 03AA     		add	r2, sp, #12
 1373 0084 3946     		mov	r1, r7
 1374 0086 2046     		mov	r0, r4
 1375 0088 FFF7FEFF 		bl	sdc_lld_error_cleanup
 1376              	.LVL126:
 1377              		.loc 1 739 0
 1378 008c 0125     		movs	r5, #1
 1379 008e 0CE0     		b	.L105
 1380              	.LVL127:
 1381              	.L103:
 1382              		.loc 1 729 0
 1383 0090 03AA     		add	r2, sp, #12
 1384 0092 3946     		mov	r1, r7
 1385 0094 2046     		mov	r0, r4
 1386 0096 FFF7FEFF 		bl	sdc_lld_wait_transaction_end
 1387              	.LVL128:
 1388 009a 0546     		mov	r5, r0
 1389 009c 0028     		cmp	r0, #0
 1390 009e EBD1     		bne	.L102
 1391              		.loc 1 732 0
 1392 00a0 3246     		mov	r2, r6
 1393 00a2 0199     		ldr	r1, [sp, #4]
 1394 00a4 E06C     		ldr	r0, [r4, #76]
 1395 00a6 FFF7FEFF 		bl	bouncebuffer_finish_read
 1396              	.LVL129:
 1397              	.L105:
 1398              		.loc 1 740 0
 1399 00aa 2846     		mov	r0, r5
 1400 00ac 04B0     		add	sp, sp, #16
 1401              		.cfi_def_cfa_offset 24
 1402              		@ sp needed
 1403 00ae BDE8F081 		pop	{r4, r5, r6, r7, r8, pc}
 1404              	.LVL130:
 1405              	.L110:
 1406 00b2 00BF     		.align	2
 1407              	.L109:
 1408 00b4 00366E01 		.word	24000000
 1409 00b8 FF07C000 		.word	12584959
 1410 00bc 08E0FFFD 		.word	-33562616
 1411              		.cfi_endproc
 1412              	.LFE342:
 1413              		.size	sdc_lld_read_aligned, .-sdc_lld_read_aligned
 1414              		.section	.text.sdc_lld_write_aligned,"ax",%progbits
 1415              		.align	1
 1416              		.global	sdc_lld_write_aligned
 1417              		.syntax unified
 1418              		.thumb
 1419              		.thumb_func
 1420              		.fpu fpv4-sp-d16
 1421              		.type	sdc_lld_write_aligned, %function
 1422              	sdc_lld_write_aligned:
 1423              	.LFB343:
 1424              		.loc 1 757 0
 1425              		.cfi_startproc
ARM GAS  /tmp/ccw0TMEs.s 			page 26


 1426              		@ args = 0, pretend = 0, frame = 16
 1427              		@ frame_needed = 0, uses_anonymous_args = 0
 1428              	.LVL131:
 1429 0000 F0B5     		push	{r4, r5, r6, r7, lr}
 1430              		.cfi_def_cfa_offset 20
 1431              		.cfi_offset 4, -20
 1432              		.cfi_offset 5, -16
 1433              		.cfi_offset 6, -12
 1434              		.cfi_offset 7, -8
 1435              		.cfi_offset 14, -4
 1436 0002 85B0     		sub	sp, sp, #20
 1437              		.cfi_def_cfa_offset 40
 1438              		.loc 1 757 0
 1439 0004 1E46     		mov	r6, r3
 1440              		.loc 1 762 0
 1441 0006 836C     		ldr	r3, [r0, #72]
 1442              	.LVL132:
 1443              		.loc 1 757 0
 1444 0008 0192     		str	r2, [sp, #4]
 1445              		.loc 1 762 0
 1446 000a 294A     		ldr	r2, .L122
 1447              	.LVL133:
 1448 000c 5A62     		str	r2, [r3, #36]
 1449              		.loc 1 757 0
 1450 000e 0446     		mov	r4, r0
 1451 0010 0F46     		mov	r7, r1
 1452              		.loc 1 765 0
 1453 0012 FFF7FEFF 		bl	_sdc_wait_for_transfer_state
 1454              	.LVL134:
 1455 0016 0546     		mov	r5, r0
 1456 0018 0028     		cmp	r0, #0
 1457 001a 46D1     		bne	.L118
 1458              		.loc 1 768 0
 1459 001c 7502     		lsls	r5, r6, #9
 1460 001e 01A9     		add	r1, sp, #4
 1461 0020 2A46     		mov	r2, r5
 1462 0022 E06C     		ldr	r0, [r4, #76]
 1463 0024 FFF7FEFF 		bl	bouncebuffer_setup_write
 1464              	.LVL135:
 1465              		.loc 1 771 0
 1466 0028 636C     		ldr	r3, [r4, #68]
 1467 002a 019A     		ldr	r2, [sp, #4]
 1468 002c 1B68     		ldr	r3, [r3]
 1469 002e DA60     		str	r2, [r3, #12]
 1470              		.loc 1 772 0
 1471 0030 AA08     		lsrs	r2, r5, #2
 1472 0032 5A60     		str	r2, [r3, #4]
 1473              		.loc 1 774 0
 1474 0034 226C     		ldr	r2, [r4, #64]
 1475 0036 42F04002 		orr	r2, r2, #64
 1476 003a 1A60     		str	r2, [r3]
 1477              		.loc 1 775 0
 1478 003c 1A68     		ldr	r2, [r3]
 1479 003e 42F00102 		orr	r2, r2, #1
 1480 0042 1A60     		str	r2, [r3]
 1481              		.loc 1 778 0
 1482 0044 A36C     		ldr	r3, [r4, #72]
ARM GAS  /tmp/ccw0TMEs.s 			page 27


 1483 0046 1B4A     		ldr	r2, .L122+4
 1484 0048 9A63     		str	r2, [r3, #56]
 1485              		.loc 1 779 0
 1486 004a 40F21A32 		movw	r2, #794
 1487 004e DA63     		str	r2, [r3, #60]
 1488              		.loc 1 784 0
 1489 0050 9D62     		str	r5, [r3, #40]
 1490              	.LVL136:
 1491              	.LBB171:
 1492              	.LBB172:
 1493              		.loc 1 180 0
 1494 0052 236B     		ldr	r3, [r4, #48]
 1495 0054 DB06     		lsls	r3, r3, #27
 1496              		.loc 1 181 0
 1497 0056 58BF     		it	pl
 1498 0058 7F02     		lslpl	r7, r7, #9
 1499              	.LVL137:
 1500              		.loc 1 183 0
 1501 005a 012E     		cmp	r6, #1
 1502              		.loc 1 185 0
 1503 005c 8CBF     		ite	hi
 1504 005e 1921     		movhi	r1, #25
 1505              		.loc 1 191 0
 1506 0060 1821     		movls	r1, #24
 1507              		.loc 1 185 0
 1508 0062 03AB     		add	r3, sp, #12
 1509              	.LVL138:
 1510 0064 3A46     		mov	r2, r7
 1511              		.loc 1 191 0
 1512 0066 2046     		mov	r0, r4
 1513 0068 FFF7FEFF 		bl	sdc_lld_send_cmd_short_crc
 1514              	.LVL139:
 1515 006c 18B9     		cbnz	r0, .L115
 1516              		.loc 1 192 0
 1517 006e 124B     		ldr	r3, .L122+8
 1518 0070 039A     		ldr	r2, [sp, #12]
 1519 0072 1340     		ands	r3, r3, r2
 1520 0074 53B1     		cbz	r3, .L116
 1521              	.LVL140:
 1522              	.L115:
 1523              	.LDL3:
 1524              	.LBE172:
 1525              	.LBE171:
 1526              		.loc 1 804 0
 1527 0076 0199     		ldr	r1, [sp, #4]
 1528 0078 E06C     		ldr	r0, [r4, #76]
 1529 007a FFF7FEFF 		bl	bouncebuffer_finish_write
 1530              	.LVL141:
 1531              		.loc 1 805 0
 1532 007e 03AA     		add	r2, sp, #12
 1533 0080 3146     		mov	r1, r6
 1534 0082 2046     		mov	r0, r4
 1535 0084 FFF7FEFF 		bl	sdc_lld_error_cleanup
 1536              	.LVL142:
 1537              		.loc 1 806 0
 1538 0088 0125     		movs	r5, #1
 1539 008a 0EE0     		b	.L118
ARM GAS  /tmp/ccw0TMEs.s 			page 28


 1540              	.LVL143:
 1541              	.L116:
 1542              		.loc 1 791 0
 1543 008c A36C     		ldr	r3, [r4, #72]
 1544 008e 9922     		movs	r2, #153
 1545 0090 DA62     		str	r2, [r3, #44]
 1546              		.loc 1 796 0
 1547 0092 3146     		mov	r1, r6
 1548 0094 03AA     		add	r2, sp, #12
 1549 0096 2046     		mov	r0, r4
 1550 0098 FFF7FEFF 		bl	sdc_lld_wait_transaction_end
 1551              	.LVL144:
 1552 009c 0546     		mov	r5, r0
 1553 009e 0028     		cmp	r0, #0
 1554 00a0 E9D1     		bne	.L115
 1555              		.loc 1 799 0
 1556 00a2 0199     		ldr	r1, [sp, #4]
 1557 00a4 E06C     		ldr	r0, [r4, #76]
 1558 00a6 FFF7FEFF 		bl	bouncebuffer_finish_write
 1559              	.LVL145:
 1560              	.L118:
 1561              		.loc 1 807 0
 1562 00aa 2846     		mov	r0, r5
 1563 00ac 05B0     		add	sp, sp, #20
 1564              		.cfi_def_cfa_offset 20
 1565              		@ sp needed
 1566 00ae F0BD     		pop	{r4, r5, r6, r7, pc}
 1567              	.LVL146:
 1568              	.L123:
 1569              		.align	2
 1570              	.L122:
 1571 00b0 00366E01 		.word	24000000
 1572 00b4 FF07C000 		.word	12584959
 1573 00b8 08E0FFFD 		.word	-33562616
 1574              		.cfi_endproc
 1575              	.LFE343:
 1576              		.size	sdc_lld_write_aligned, .-sdc_lld_write_aligned
 1577              		.section	.text.sdc_lld_read,"ax",%progbits
 1578              		.align	1
 1579              		.global	sdc_lld_read
 1580              		.syntax unified
 1581              		.thumb
 1582              		.thumb_func
 1583              		.fpu fpv4-sp-d16
 1584              		.type	sdc_lld_read, %function
 1585              	sdc_lld_read:
 1586              	.LFB344:
 1587              		.loc 1 824 0
 1588              		.cfi_startproc
 1589              		@ args = 0, pretend = 0, frame = 0
 1590              		@ frame_needed = 0, uses_anonymous_args = 0
 1591              	.LVL147:
 1592              		.loc 1 827 0
 1593 0000 12F0030F 		tst	r2, #3
 1594              		.loc 1 824 0
 1595 0004 2DE9F041 		push	{r4, r5, r6, r7, r8, lr}
 1596              		.cfi_def_cfa_offset 24
ARM GAS  /tmp/ccw0TMEs.s 			page 29


 1597              		.cfi_offset 4, -24
 1598              		.cfi_offset 5, -20
 1599              		.cfi_offset 6, -16
 1600              		.cfi_offset 7, -12
 1601              		.cfi_offset 8, -8
 1602              		.cfi_offset 14, -4
 1603              		.loc 1 824 0
 1604 0008 0746     		mov	r7, r0
 1605 000a 0C46     		mov	r4, r1
 1606 000c 1E46     		mov	r6, r3
 1607              		.loc 1 827 0
 1608 000e 1BD0     		beq	.L125
 1609 0010 C1EBC153 		rsb	r3, r1, r1, lsl #23
 1610              	.LVL148:
 1611              	.LBB173:
 1612              		.loc 1 830 0
 1613 0014 DFF83C80 		ldr	r8, .L129
 1614 0018 0E44     		add	r6, r6, r1
 1615              	.LVL149:
 1616 001a 02EB4325 		add	r5, r2, r3, lsl #9
 1617              	.LVL150:
 1618              	.L126:
 1619              		.loc 1 829 0 discriminator 1
 1620 001e B442     		cmp	r4, r6
 1621 0020 02D1     		bne	.L128
 1622              		.loc 1 836 0
 1623 0022 0020     		movs	r0, #0
 1624 0024 BDE8F081 		pop	{r4, r5, r6, r7, r8, pc}
 1625              	.LVL151:
 1626              	.L128:
 1627              		.loc 1 830 0
 1628 0028 0123     		movs	r3, #1
 1629 002a 0A4A     		ldr	r2, .L129
 1630 002c 2146     		mov	r1, r4
 1631 002e 3846     		mov	r0, r7
 1632 0030 FFF7FEFF 		bl	sdc_lld_read_aligned
 1633              	.LVL152:
 1634 0034 60B9     		cbnz	r0, .L127
 1635              		.loc 1 832 0 discriminator 2
 1636 0036 05EB4420 		add	r0, r5, r4, lsl #9
 1637 003a 4FF40072 		mov	r2, #512
 1638 003e 4146     		mov	r1, r8
 1639 0040 FFF7FEFF 		bl	memcpy
 1640              	.LVL153:
 1641              		.loc 1 834 0 discriminator 2
 1642 0044 0134     		adds	r4, r4, #1
 1643              	.LVL154:
 1644 0046 EAE7     		b	.L126
 1645              	.LVL155:
 1646              	.L125:
 1647              	.LBE173:
 1648              		.loc 1 842 0
 1649 0048 BDE8F041 		pop	{r4, r5, r6, r7, r8, lr}
 1650              		.cfi_remember_state
 1651              		.cfi_restore 14
 1652              		.cfi_restore 8
 1653              		.cfi_restore 7
ARM GAS  /tmp/ccw0TMEs.s 			page 30


 1654              		.cfi_restore 6
 1655              		.cfi_restore 5
 1656              		.cfi_restore 4
 1657              		.cfi_def_cfa_offset 0
 1658              		.loc 1 841 0
 1659 004c FFF7FEBF 		b	sdc_lld_read_aligned
 1660              	.LVL156:
 1661              	.L127:
 1662              		.cfi_restore_state
 1663              		.loc 1 842 0
 1664 0050 BDE8F081 		pop	{r4, r5, r6, r7, r8, pc}
 1665              	.LVL157:
 1666              	.L130:
 1667              		.align	2
 1668              	.L129:
 1669 0054 00000000 		.word	.LANCHOR2
 1670              		.cfi_endproc
 1671              	.LFE344:
 1672              		.size	sdc_lld_read, .-sdc_lld_read
 1673              		.section	.text.sdc_lld_write,"ax",%progbits
 1674              		.align	1
 1675              		.global	sdc_lld_write
 1676              		.syntax unified
 1677              		.thumb
 1678              		.thumb_func
 1679              		.fpu fpv4-sp-d16
 1680              		.type	sdc_lld_write, %function
 1681              	sdc_lld_write:
 1682              	.LFB345:
 1683              		.loc 1 859 0
 1684              		.cfi_startproc
 1685              		@ args = 0, pretend = 0, frame = 0
 1686              		@ frame_needed = 0, uses_anonymous_args = 0
 1687              	.LVL158:
 1688 0000 2DE9F041 		push	{r4, r5, r6, r7, r8, lr}
 1689              		.cfi_def_cfa_offset 24
 1690              		.cfi_offset 4, -24
 1691              		.cfi_offset 5, -20
 1692              		.cfi_offset 6, -16
 1693              		.cfi_offset 7, -12
 1694              		.cfi_offset 8, -8
 1695              		.cfi_offset 14, -4
 1696              		.loc 1 862 0
 1697 0004 9707     		lsls	r7, r2, #30
 1698              		.loc 1 859 0
 1699 0006 8046     		mov	r8, r0
 1700 0008 0C46     		mov	r4, r1
 1701 000a 1E46     		mov	r6, r3
 1702              		.loc 1 862 0
 1703 000c 1AD0     		beq	.L132
 1704 000e C1EBC153 		rsb	r3, r1, r1, lsl #23
 1705              	.LVL159:
 1706              	.LBB174:
 1707              		.loc 1 865 0
 1708 0012 0F4F     		ldr	r7, .L136
 1709 0014 0E44     		add	r6, r6, r1
 1710              	.LVL160:
ARM GAS  /tmp/ccw0TMEs.s 			page 31


 1711 0016 02EB4325 		add	r5, r2, r3, lsl #9
 1712              	.LVL161:
 1713              	.L133:
 1714              		.loc 1 864 0 discriminator 1
 1715 001a B442     		cmp	r4, r6
 1716 001c 02D1     		bne	.L135
 1717              		.loc 1 871 0
 1718 001e 0020     		movs	r0, #0
 1719 0020 BDE8F081 		pop	{r4, r5, r6, r7, r8, pc}
 1720              	.LVL162:
 1721              	.L135:
 1722              		.loc 1 865 0
 1723 0024 4FF40072 		mov	r2, #512
 1724 0028 05EB4421 		add	r1, r5, r4, lsl #9
 1725 002c 3846     		mov	r0, r7
 1726 002e FFF7FEFF 		bl	memcpy
 1727              	.LVL163:
 1728              		.loc 1 867 0
 1729 0032 0123     		movs	r3, #1
 1730 0034 3A46     		mov	r2, r7
 1731 0036 2146     		mov	r1, r4
 1732 0038 4046     		mov	r0, r8
 1733 003a FFF7FEFF 		bl	sdc_lld_write_aligned
 1734              	.LVL164:
 1735 003e 28B9     		cbnz	r0, .L134
 1736              		.loc 1 869 0 discriminator 2
 1737 0040 0134     		adds	r4, r4, #1
 1738              	.LVL165:
 1739 0042 EAE7     		b	.L133
 1740              	.LVL166:
 1741              	.L132:
 1742              	.LBE174:
 1743              		.loc 1 877 0
 1744 0044 BDE8F041 		pop	{r4, r5, r6, r7, r8, lr}
 1745              		.cfi_remember_state
 1746              		.cfi_restore 14
 1747              		.cfi_restore 8
 1748              		.cfi_restore 7
 1749              		.cfi_restore 6
 1750              		.cfi_restore 5
 1751              		.cfi_restore 4
 1752              		.cfi_def_cfa_offset 0
 1753              		.loc 1 876 0
 1754 0048 FFF7FEBF 		b	sdc_lld_write_aligned
 1755              	.LVL167:
 1756              	.L134:
 1757              		.cfi_restore_state
 1758              		.loc 1 877 0
 1759 004c BDE8F081 		pop	{r4, r5, r6, r7, r8, pc}
 1760              	.LVL168:
 1761              	.L137:
 1762              		.align	2
 1763              	.L136:
 1764 0050 00000000 		.word	.LANCHOR2
 1765              		.cfi_endproc
 1766              	.LFE345:
 1767              		.size	sdc_lld_write, .-sdc_lld_write
ARM GAS  /tmp/ccw0TMEs.s 			page 32


 1768              		.section	.text.sdc_lld_sync,"ax",%progbits
 1769              		.align	1
 1770              		.global	sdc_lld_sync
 1771              		.syntax unified
 1772              		.thumb
 1773              		.thumb_func
 1774              		.fpu fpv4-sp-d16
 1775              		.type	sdc_lld_sync, %function
 1776              	sdc_lld_sync:
 1777              	.LFB346:
 1778              		.loc 1 890 0
 1779              		.cfi_startproc
 1780              		@ args = 0, pretend = 0, frame = 0
 1781              		@ frame_needed = 0, uses_anonymous_args = 0
 1782              		@ link register save eliminated.
 1783              	.LVL169:
 1784              		.loc 1 895 0
 1785 0000 0020     		movs	r0, #0
 1786              	.LVL170:
 1787 0002 7047     		bx	lr
 1788              		.cfi_endproc
 1789              	.LFE346:
 1790              		.size	sdc_lld_sync, .-sdc_lld_sync
 1791              		.global	SDCD1
 1792              		.section	.bss.SDCD1,"aw",%nobits
 1793              		.align	2
 1794              		.set	.LANCHOR0,. + 0
 1795              		.type	SDCD1, %object
 1796              		.size	SDCD1, 80
 1797              	SDCD1:
 1798 0000 00000000 		.space	80
 1798      00000000 
 1798      00000000 
 1798      00000000 
 1798      00000000 
 1799              		.section	.bss.u,"aw",%nobits
 1800              		.align	2
 1801              		.set	.LANCHOR2,. + 0
 1802              		.type	u, %object
 1803              		.size	u, 512
 1804              	u:
 1805 0000 00000000 		.space	512
 1805      00000000 
 1805      00000000 
 1805      00000000 
 1805      00000000 
 1806              		.section	.rodata.sdc_default_cfg,"a",%progbits
 1807              		.align	2
 1808              		.set	.LANCHOR1,. + 0
 1809              		.type	sdc_default_cfg, %object
 1810              		.size	sdc_default_cfg, 8
 1811              	sdc_default_cfg:
 1812 0000 00000000 		.word	0
 1813 0004 01       		.byte	1
 1814 0005 00       		.byte	0
 1815 0006 0000     		.space	2
 1816              		.text
ARM GAS  /tmp/ccw0TMEs.s 			page 33


 1817              	.Letext0:
 1818              		.file 5 "/opt/gcc-arm-none-eabi-6-2017-q2-update/lib/gcc/arm-none-eabi/6.3.1/include/stddef.h"
 1819              		.file 6 "/opt/gcc-arm-none-eabi-6-2017-q2-update/arm-none-eabi/include/machine/_default_types.h"
 1820              		.file 7 "/opt/gcc-arm-none-eabi-6-2017-q2-update/arm-none-eabi/include/sys/lock.h"
 1821              		.file 8 "/opt/gcc-arm-none-eabi-6-2017-q2-update/arm-none-eabi/include/sys/_types.h"
 1822              		.file 9 "/opt/gcc-arm-none-eabi-6-2017-q2-update/arm-none-eabi/include/sys/reent.h"
 1823              		.file 10 "/opt/gcc-arm-none-eabi-6-2017-q2-update/arm-none-eabi/include/sys/_stdint.h"
 1824              		.file 11 "/opt/gcc-arm-none-eabi-6-2017-q2-update/arm-none-eabi/include/stdint.h"
 1825              		.file 12 "../../modules/ChibiOS/os/common/ports/ARMCMx/compilers/GCC/chtypes.h"
 1826              		.file 13 "../../modules/ChibiOS/os/rt/include/chsystypes.h"
 1827              		.file 14 "../../modules/ChibiOS/os/rt/include/chschd.h"
 1828              		.file 15 "../../modules/ChibiOS/os/rt/include/chtime.h"
 1829              		.file 16 "../../modules/ChibiOS/os/common/ext/ARM/CMSIS/Core/Include/core_cm4.h"
 1830              		.file 17 "../../modules/ChibiOS/os/common/ext/ST/STM32F4xx/system_stm32f4xx.h"
 1831              		.file 18 "../../modules/ChibiOS/os/common/ext/ST/STM32F4xx/stm32f427xx.h"
 1832              		.file 19 "../../modules/ChibiOS/os/common/ports/ARMCMx/chcore.h"
 1833              		.file 20 "../../modules/ChibiOS/os/common/ports/ARMCMx/chcore_v7m.h"
 1834              		.file 21 "../../modules/ChibiOS/os/hal/ports/STM32/LLD/TIMv1/stm32_tim.h"
 1835              		.file 22 "../../modules/ChibiOS/os/rt/include/chtm.h"
 1836              		.file 23 "../../modules/ChibiOS/os/rt/include/chstats.h"
 1837              		.file 24 "../../modules/ChibiOS/os/rt/include/chsem.h"
 1838              		.file 25 "../../modules/ChibiOS/os/rt/include/chmtx.h"
 1839              		.file 26 "../../modules/ChibiOS/os/rt/include/chregistry.h"
 1840              		.file 27 "../../modules/ChibiOS/os/rt/include/chevents.h"
 1841              		.file 28 "../../modules/ChibiOS/os/oslib/include/chmemcore.h"
 1842              		.file 29 "../../modules/ChibiOS/os/oslib/include/chmempools.h"
 1843              		.file 30 "../../modules/ChibiOS/os/oslib/include/chfactory.h"
 1844              		.file 31 "../../modules/ChibiOS/os/hal/ports/STM32/LLD/DMAv2/stm32_dma.h"
 1845              		.file 32 "../../modules/ChibiOS/os/hal/include/hal_ioblock.h"
 1846              		.file 33 "../../modules/ChibiOS/os/hal/include/hal_queues.h"
 1847              		.file 34 "../../modules/ChibiOS/os/hal/include/hal_pal.h"
 1848              		.file 35 "../../modules/ChibiOS/os/hal/ports/STM32/LLD/GPIOv2/stm32_gpio.h"
 1849              		.file 36 "../../modules/ChibiOS/os/hal/ports/STM32/LLD/GPIOv2/hal_pal_lld.h"
 1850              		.file 37 "../../modules/ChibiOS/os/hal/include/hal_adc.h"
 1851              		.file 38 "../../modules/ChibiOS/os/hal/ports/STM32/LLD/ADCv2/hal_adc_lld.h"
 1852              		.file 39 "../../modules/ChibiOS/os/hal/include/hal_i2c.h"
 1853              		.file 40 "../../modules/ChibiOS/os/hal/ports/STM32/LLD/I2Cv1/hal_i2c_lld.h"
 1854              		.file 41 "../../modules/ChibiOS/os/hal/include/hal_pwm.h"
 1855              		.file 42 "../../modules/ChibiOS/os/hal/ports/STM32/LLD/TIMv1/hal_pwm_lld.h"
 1856              		.file 43 "../../modules/ChibiOS/os/hal/include/hal_serial.h"
 1857              		.file 44 "../../modules/ChibiOS/os/hal/ports/STM32/LLD/USARTv1/hal_serial_lld.h"
 1858              		.file 45 "../../modules/ChibiOS/os/hal/include/hal_sdc.h"
 1859              		.file 46 "../../modules/ChibiOS/os/hal/ports/STM32/LLD/SDIOv1/hal_sdc_lld.h"
 1860              		.file 47 "../../libraries/AP_HAL_ChibiOS/hwdef/common/bouncebuffer.h"
 1861              		.file 48 "../../modules/ChibiOS/os/hal/include/hal_spi.h"
 1862              		.file 49 "../../modules/ChibiOS/os/hal/ports/STM32/LLD/SPIv1/hal_spi_lld.h"
 1863              		.file 50 "../../modules/ChibiOS/os/hal/include/hal_usb.h"
 1864              		.file 51 "../../modules/ChibiOS/os/hal/ports/STM32/LLD/OTGv1/hal_usb_lld.h"
 1865              		.file 52 "../../modules/ChibiOS/os/hal/ports/STM32/LLD/OTGv1/stm32_otg.h"
 1866              		.file 53 "../../modules/ChibiOS/os/rt/include/chthreads.h"
 1867              		.file 54 "../../modules/ChibiOS/os/hal/ports/common/ARMCMx/nvic.h"