ARM GAS  /tmp/cc8bVSRu.s 			page 1


   1              		.cpu cortex-m4
   2              		.eabi_attribute 27, 1
   3              		.eabi_attribute 28, 1
   4              		.eabi_attribute 20, 1
   5              		.eabi_attribute 21, 1
   6              		.eabi_attribute 23, 3
   7              		.eabi_attribute 24, 1
   8              		.eabi_attribute 25, 1
   9              		.eabi_attribute 26, 1
  10              		.eabi_attribute 30, 4
  11              		.eabi_attribute 34, 1
  12              		.eabi_attribute 18, 4
  13              		.file	"hal_spi_lld.c"
  14              		.text
  15              	.Ltext0:
  16              		.cfi_sections	.debug_frame
  17              		.section	.text.spi_lld_serve_tx_interrupt,"ax",%progbits
  18              		.align	1
  19              		.syntax unified
  20              		.thumb
  21              		.thumb_func
  22              		.fpu fpv4-sp-d16
  23              		.type	spi_lld_serve_tx_interrupt, %function
  24              	spi_lld_serve_tx_interrupt:
  25              	.LFB324:
  26              		.file 1 "../../modules/ChibiOS/os/hal/ports/STM32/LLD/SPIv1/hal_spi_lld.c"
  27              		.loc 1 170 0
  28              		.cfi_startproc
  29              		@ args = 0, pretend = 0, frame = 0
  30              		@ frame_needed = 0, uses_anonymous_args = 0
  31              		@ link register save eliminated.
  32              	.LVL0:
  33              		.loc 1 175 0
  34 0000 11F00C0F 		tst	r1, #12
  35 0004 02D0     		beq	.L1
  36              	.LVL1:
  37              	.LBB34:
  38              	.LBB35:
  39              		.file 2 "../../modules/ChibiOS/os/hal/osal/rt/osal.h"
  40              		.loc 2 480 0
  41 0006 0248     		ldr	r0, .L3
  42              	.LVL2:
  43 0008 FFF7FEBF 		b	chSysHalt
  44              	.LVL3:
  45              	.L1:
  46 000c 7047     		bx	lr
  47              	.L4:
  48 000e 00BF     		.align	2
  49              	.L3:
  50 0010 00000000 		.word	.LC0
  51              	.LBE35:
  52              	.LBE34:
  53              		.cfi_endproc
  54              	.LFE324:
  55              		.size	spi_lld_serve_tx_interrupt, .-spi_lld_serve_tx_interrupt
  56              		.section	.text.spi_lld_serve_rx_interrupt,"ax",%progbits
  57              		.align	1
ARM GAS  /tmp/cc8bVSRu.s 			page 2


  58              		.syntax unified
  59              		.thumb
  60              		.thumb_func
  61              		.fpu fpv4-sp-d16
  62              		.type	spi_lld_serve_rx_interrupt, %function
  63              	spi_lld_serve_rx_interrupt:
  64              	.LFB323:
  65              		.loc 1 132 0
  66              		.cfi_startproc
  67              		@ args = 0, pretend = 0, frame = 0
  68              		@ frame_needed = 0, uses_anonymous_args = 0
  69              	.LVL4:
  70              		.loc 1 136 0
  71 0000 11F00C0F 		tst	r1, #12
  72              		.loc 1 132 0
  73 0004 38B5     		push	{r3, r4, r5, lr}
  74              		.cfi_def_cfa_offset 16
  75              		.cfi_offset 3, -16
  76              		.cfi_offset 4, -12
  77              		.cfi_offset 5, -8
  78              		.cfi_offset 14, -4
  79              		.loc 1 132 0
  80 0006 0446     		mov	r4, r0
  81 0008 0D46     		mov	r5, r1
  82              		.loc 1 136 0
  83 000a 02D0     		beq	.L6
  84              	.LVL5:
  85              	.LBB56:
  86              	.LBB57:
  87              		.loc 2 480 0
  88 000c 2948     		ldr	r0, .L33
  89              	.LVL6:
  90 000e FFF7FEFF 		bl	chSysHalt
  91              	.LVL7:
  92              	.L6:
  93              	.LBE57:
  94              	.LBE56:
  95              		.loc 1 143 0
  96 0012 6368     		ldr	r3, [r4, #4]
  97 0014 1A78     		ldrb	r2, [r3]	@ zero_extendqisi2
  98 0016 AAB1     		cbz	r2, .L7
  99              		.loc 1 144 0
 100 0018 EA06     		lsls	r2, r5, #27
 101 001a 03D5     		bpl	.L8
 102              		.loc 1 146 0
 103 001c 5B68     		ldr	r3, [r3, #4]
 104 001e 0BB1     		cbz	r3, .L8
 105              		.loc 1 146 0 is_stmt 0 discriminator 1
 106 0020 2046     		mov	r0, r4
 107 0022 9847     		blx	r3
 108              	.LVL8:
 109              	.L8:
 110              		.loc 1 148 0 is_stmt 1
 111 0024 AB06     		lsls	r3, r5, #26
 112 0026 43D5     		bpl	.L5
 113              		.loc 1 150 0
 114 0028 6368     		ldr	r3, [r4, #4]
ARM GAS  /tmp/cc8bVSRu.s 			page 3


 115 002a 5B68     		ldr	r3, [r3, #4]
 116 002c 002B     		cmp	r3, #0
 117 002e 3FD0     		beq	.L5
 118              		.loc 1 150 0 is_stmt 0 discriminator 1
 119 0030 0422     		movs	r2, #4
 120 0032 2270     		strb	r2, [r4]
 121 0034 2046     		mov	r0, r4
 122 0036 9847     		blx	r3
 123              	.LVL9:
 124 0038 2378     		ldrb	r3, [r4]	@ zero_extendqisi2
 125 003a 042B     		cmp	r3, #4
 126 003c 38D1     		bne	.L5
 127              		.loc 1 150 0 discriminator 2
 128 003e 0323     		movs	r3, #3
 129 0040 2370     		strb	r3, [r4]
 130 0042 38BD     		pop	{r3, r4, r5, pc}
 131              	.LVL10:
 132              	.L7:
 133              		.loc 1 155 0 is_stmt 1
 134 0044 626A     		ldr	r2, [r4, #36]
 135 0046 1168     		ldr	r1, [r2]
 136 0048 0868     		ldr	r0, [r1]
 137 004a 20F01F00 		bic	r0, r0, #31
 138 004e 0860     		str	r0, [r1]
 139              	.LVL11:
 140              	.L12:
 141              		.loc 1 155 0 is_stmt 0 discriminator 2
 142 0050 0868     		ldr	r0, [r1]
 143 0052 C507     		lsls	r5, r0, #31
 144 0054 FCD4     		bmi	.L12
 145              		.loc 1 155 0 discriminator 3
 146 0056 507A     		ldrb	r0, [r2, #9]	@ zero_extendqisi2
 147 0058 5168     		ldr	r1, [r2, #4]
 148 005a 3D22     		movs	r2, #61
 149 005c 8240     		lsls	r2, r2, r0
 150 005e 0A60     		str	r2, [r1]
 151              		.loc 1 156 0 is_stmt 1 discriminator 3
 152 0060 226A     		ldr	r2, [r4, #32]
 153 0062 1168     		ldr	r1, [r2]
 154 0064 0868     		ldr	r0, [r1]
 155 0066 20F01F00 		bic	r0, r0, #31
 156 006a 0860     		str	r0, [r1]
 157              	.L13:
 158              		.loc 1 156 0 is_stmt 0 discriminator 2
 159 006c 0868     		ldr	r0, [r1]
 160 006e C007     		lsls	r0, r0, #31
 161 0070 FCD4     		bmi	.L13
 162              		.loc 1 156 0 discriminator 3
 163 0072 507A     		ldrb	r0, [r2, #9]	@ zero_extendqisi2
 164 0074 5168     		ldr	r1, [r2, #4]
 165              		.loc 1 160 0 is_stmt 1 discriminator 3
 166 0076 5B68     		ldr	r3, [r3, #4]
 167              		.loc 1 156 0 discriminator 3
 168 0078 3D22     		movs	r2, #61
 169 007a 8240     		lsls	r2, r2, r0
 170 007c 0A60     		str	r2, [r1]
 171              		.loc 1 160 0 discriminator 3
ARM GAS  /tmp/cc8bVSRu.s 			page 4


 172 007e 33B1     		cbz	r3, .L14
 173              		.loc 1 160 0 is_stmt 0 discriminator 1
 174 0080 0422     		movs	r2, #4
 175 0082 2270     		strb	r2, [r4]
 176 0084 2046     		mov	r0, r4
 177 0086 9847     		blx	r3
 178              	.LVL12:
 179 0088 2378     		ldrb	r3, [r4]	@ zero_extendqisi2
 180 008a 042B     		cmp	r3, #4
 181 008c 01D1     		bne	.L15
 182              	.L14:
 183              		.loc 1 160 0 discriminator 3
 184 008e 0223     		movs	r3, #2
 185 0090 2370     		strb	r3, [r4]
 186              	.L15:
 187              	.LVL13:
 188              	.LBB58:
 189              	.LBB59:
 190              	.LBB60:
 191              	.LBB61:
 192              	.LBB62:
 193              	.LBB63:
 194              	.LBB64:
 195              		.file 3 "../../modules/ChibiOS/os/common/ext/ARM/CMSIS/Core/Include/cmsis_gcc.h"
 196              		.loc 3 493 0 is_stmt 1 discriminator 4
 197 0092 2023     		movs	r3, #32
 198              		.syntax unified
 199              	@ 493 "../../modules/ChibiOS/os/common/ext/ARM/CMSIS/Core/Include/cmsis_gcc.h" 1
 200 0094 83F31188 		MSR basepri, r3
 201              	@ 0 "" 2
 202              	.LVL14:
 203              		.thumb
 204              		.syntax unified
 205              	.LBE64:
 206              	.LBE63:
 207              	.LBE62:
 208              	.LBE61:
 209              		.file 4 "../../modules/ChibiOS/os/rt/include/chsys.h"
 210              		.loc 4 396 0 discriminator 4
 211 0098 FFF7FEFF 		bl	_stats_start_measure_crit_isr
 212              	.LVL15:
 213              	.LBE60:
 214              	.LBE59:
 215              	.LBE58:
 216              	.LBB65:
 217              	.LBB66:
 218              		.loc 2 775 0 discriminator 4
 219 009c 0021     		movs	r1, #0
 220 009e 04F10800 		add	r0, r4, #8
 221              	.LVL16:
 222 00a2 FFF7FEFF 		bl	chThdResumeI
 223              	.LVL17:
 224              	.LBE66:
 225              	.LBE65:
 226              	.LBB67:
 227              	.LBB68:
 228              	.LBB69:
ARM GAS  /tmp/cc8bVSRu.s 			page 5


 229              		.loc 4 416 0 discriminator 4
 230 00a6 FFF7FEFF 		bl	_stats_stop_measure_crit_isr
 231              	.LVL18:
 232              	.LBB70:
 233              	.LBB71:
 234              	.LBB72:
 235              	.LBB73:
 236              		.loc 3 493 0 discriminator 4
 237 00aa 0023     		movs	r3, #0
 238              		.syntax unified
 239              	@ 493 "../../modules/ChibiOS/os/common/ext/ARM/CMSIS/Core/Include/cmsis_gcc.h" 1
 240 00ac 83F31188 		MSR basepri, r3
 241              	@ 0 "" 2
 242              	.LVL19:
 243              		.thumb
 244              		.syntax unified
 245              	.L5:
 246 00b0 38BD     		pop	{r3, r4, r5, pc}
 247              	.LVL20:
 248              	.L34:
 249 00b2 00BF     		.align	2
 250              	.L33:
 251 00b4 00000000 		.word	.LC0
 252              	.LBE73:
 253              	.LBE72:
 254              	.LBE71:
 255              	.LBE70:
 256              	.LBE69:
 257              	.LBE68:
 258              	.LBE67:
 259              		.cfi_endproc
 260              	.LFE323:
 261              		.size	spi_lld_serve_rx_interrupt, .-spi_lld_serve_rx_interrupt
 262              		.section	.text.spi_lld_init,"ax",%progbits
 263              		.align	1
 264              		.global	spi_lld_init
 265              		.syntax unified
 266              		.thumb
 267              		.thumb_func
 268              		.fpu fpv4-sp-d16
 269              		.type	spi_lld_init, %function
 270              	spi_lld_init:
 271              	.LFB325:
 272              		.loc 1 197 0
 273              		.cfi_startproc
 274              		@ args = 0, pretend = 0, frame = 0
 275              		@ frame_needed = 0, uses_anonymous_args = 0
 276 0000 38B5     		push	{r3, r4, r5, lr}
 277              		.cfi_def_cfa_offset 16
 278              		.cfi_offset 3, -16
 279              		.cfi_offset 4, -12
 280              		.cfi_offset 5, -8
 281              		.cfi_offset 14, -4
 282              		.loc 1 200 0
 283 0002 144C     		ldr	r4, .L36
 284 0004 2046     		mov	r0, r4
 285 0006 FFF7FEFF 		bl	spiObjectInit
ARM GAS  /tmp/cc8bVSRu.s 			page 6


 286              	.LVL21:
 287              		.loc 1 201 0
 288 000a 134B     		ldr	r3, .L36+4
 289 000c E361     		str	r3, [r4, #28]
 290              		.loc 1 204 0
 291 000e 134B     		ldr	r3, .L36+8
 292 0010 A362     		str	r3, [r4, #40]
 293              		.loc 1 202 0
 294 0012 0025     		movs	r5, #0
 295              		.loc 1 210 0
 296 0014 3033     		adds	r3, r3, #48
 297 0016 E362     		str	r3, [r4, #44]
 298              		.loc 1 202 0
 299 0018 2562     		str	r5, [r4, #32]
 300              		.loc 1 203 0
 301 001a 6562     		str	r5, [r4, #36]
 302              		.loc 1 218 0
 303 001c 104C     		ldr	r4, .L36+12
 304 001e 2046     		mov	r0, r4
 305 0020 FFF7FEFF 		bl	spiObjectInit
 306              	.LVL22:
 307              		.loc 1 219 0
 308 0024 0F4B     		ldr	r3, .L36+16
 309 0026 E361     		str	r3, [r4, #28]
 310              		.loc 1 222 0
 311 0028 0F4B     		ldr	r3, .L36+20
 312 002a A362     		str	r3, [r4, #40]
 313              		.loc 1 228 0
 314 002c 3033     		adds	r3, r3, #48
 315 002e E362     		str	r3, [r4, #44]
 316              		.loc 1 220 0
 317 0030 2562     		str	r5, [r4, #32]
 318              		.loc 1 221 0
 319 0032 6562     		str	r5, [r4, #36]
 320              		.loc 1 254 0
 321 0034 0D4C     		ldr	r4, .L36+24
 322 0036 2046     		mov	r0, r4
 323 0038 FFF7FEFF 		bl	spiObjectInit
 324              	.LVL23:
 325              		.loc 1 255 0
 326 003c 0C4B     		ldr	r3, .L36+28
 327 003e E361     		str	r3, [r4, #28]
 328              		.loc 1 258 0
 329 0040 0C4B     		ldr	r3, .L36+32
 330 0042 A362     		str	r3, [r4, #40]
 331              		.loc 1 264 0
 332 0044 03F17E43 		add	r3, r3, #-33554432
 333 0048 3033     		adds	r3, r3, #48
 334              		.loc 1 256 0
 335 004a 2562     		str	r5, [r4, #32]
 336              		.loc 1 257 0
 337 004c 6562     		str	r5, [r4, #36]
 338              		.loc 1 264 0
 339 004e E362     		str	r3, [r4, #44]
 340 0050 38BD     		pop	{r3, r4, r5, pc}
 341              	.L37:
 342 0052 00BF     		.align	2
ARM GAS  /tmp/cc8bVSRu.s 			page 7


 343              	.L36:
 344 0054 00000000 		.word	.LANCHOR0
 345 0058 00300140 		.word	1073819648
 346 005c 16000106 		.word	100728854
 347 0060 00000000 		.word	.LANCHOR1
 348 0064 00380040 		.word	1073756160
 349 0068 16000100 		.word	65558
 350 006c 00000000 		.word	.LANCHOR2
 351 0070 00340140 		.word	1073820672
 352 0074 1600010A 		.word	167837718
 353              		.cfi_endproc
 354              	.LFE325:
 355              		.size	spi_lld_init, .-spi_lld_init
 356              		.section	.text.spi_lld_start,"ax",%progbits
 357              		.align	1
 358              		.global	spi_lld_start
 359              		.syntax unified
 360              		.thumb
 361              		.thumb_func
 362              		.fpu fpv4-sp-d16
 363              		.type	spi_lld_start, %function
 364              	spi_lld_start:
 365              	.LFB326:
 366              		.loc 1 315 0
 367              		.cfi_startproc
 368              		@ args = 0, pretend = 0, frame = 0
 369              		@ frame_needed = 0, uses_anonymous_args = 0
 370              	.LVL24:
 371 0000 38B5     		push	{r3, r4, r5, lr}
 372              		.cfi_def_cfa_offset 16
 373              		.cfi_offset 3, -16
 374              		.cfi_offset 4, -12
 375              		.cfi_offset 5, -8
 376              		.cfi_offset 14, -4
 377              		.loc 1 318 0
 378 0002 0378     		ldrb	r3, [r0]	@ zero_extendqisi2
 379 0004 012B     		cmp	r3, #1
 380              		.loc 1 315 0
 381 0006 0446     		mov	r4, r0
 382              		.loc 1 318 0
 383 0008 3ED1     		bne	.L39
 384              		.loc 1 320 0
 385 000a 494B     		ldr	r3, .L50
 386 000c 9842     		cmp	r0, r3
 387 000e 18D1     		bne	.L40
 388              		.loc 1 321 0
 389 0010 0346     		mov	r3, r0
 390 0012 484A     		ldr	r2, .L50+4
 391 0014 0A21     		movs	r1, #10
 392 0016 0820     		movs	r0, #8
 393              	.LVL25:
 394 0018 FFF7FEFF 		bl	dmaStreamAllocI
 395              	.LVL26:
 396              		.loc 1 326 0
 397 001c 2346     		mov	r3, r4
 398              		.loc 1 321 0
 399 001e 2062     		str	r0, [r4, #32]
ARM GAS  /tmp/cc8bVSRu.s 			page 8


 400              		.loc 1 326 0
 401 0020 454A     		ldr	r2, .L50+8
 402 0022 0A21     		movs	r1, #10
 403 0024 0B20     		movs	r0, #11
 404 0026 FFF7FEFF 		bl	dmaStreamAllocI
 405              	.LVL27:
 406              		.loc 1 331 0
 407 002a 444B     		ldr	r3, .L50+12
 408              		.loc 1 326 0
 409 002c 6062     		str	r0, [r4, #36]
 410              		.loc 1 331 0
 411 002e 5A6C     		ldr	r2, [r3, #68]
 412 0030 42F48052 		orr	r2, r2, #4096
 413 0034 5A64     		str	r2, [r3, #68]
 414 0036 5A6E     		ldr	r2, [r3, #100]
 415 0038 42F48052 		orr	r2, r2, #4096
 416              	.L47:
 417              		.loc 1 376 0
 418 003c 5A66     		str	r2, [r3, #100]
 419 003e 5B6E     		ldr	r3, [r3, #100]
 420 0040 1AE0     		b	.L41
 421              	.LVL28:
 422              	.L40:
 423              		.loc 1 335 0
 424 0042 3F4B     		ldr	r3, .L50+16
 425 0044 9842     		cmp	r0, r3
 426 0046 52D1     		bne	.L42
 427              		.loc 1 336 0
 428 0048 0346     		mov	r3, r0
 429 004a 3A4A     		ldr	r2, .L50+4
 430 004c 0A21     		movs	r1, #10
 431 004e 0320     		movs	r0, #3
 432              	.LVL29:
 433 0050 FFF7FEFF 		bl	dmaStreamAllocI
 434              	.LVL30:
 435              		.loc 1 341 0
 436 0054 2346     		mov	r3, r4
 437              		.loc 1 336 0
 438 0056 2062     		str	r0, [r4, #32]
 439              		.loc 1 341 0
 440 0058 374A     		ldr	r2, .L50+8
 441 005a 0A21     		movs	r1, #10
 442 005c 0420     		movs	r0, #4
 443 005e FFF7FEFF 		bl	dmaStreamAllocI
 444              	.LVL31:
 445              		.loc 1 346 0
 446 0062 364B     		ldr	r3, .L50+12
 447              		.loc 1 341 0
 448 0064 6062     		str	r0, [r4, #36]
 449              		.loc 1 346 0
 450 0066 1A6C     		ldr	r2, [r3, #64]
 451 0068 42F48042 		orr	r2, r2, #16384
 452 006c 1A64     		str	r2, [r3, #64]
 453 006e 1A6E     		ldr	r2, [r3, #96]
 454 0070 42F48042 		orr	r2, r2, #16384
 455 0074 1A66     		str	r2, [r3, #96]
 456 0076 1B6E     		ldr	r3, [r3, #96]
ARM GAS  /tmp/cc8bVSRu.s 			page 9


 457              	.L41:
 458              		.loc 1 411 0
 459 0078 236A     		ldr	r3, [r4, #32]
 460 007a 1A68     		ldr	r2, [r3]
 461 007c E369     		ldr	r3, [r4, #28]
 462 007e 0C33     		adds	r3, r3, #12
 463 0080 9360     		str	r3, [r2, #8]
 464              		.loc 1 412 0
 465 0082 626A     		ldr	r2, [r4, #36]
 466 0084 1268     		ldr	r2, [r2]
 467 0086 9360     		str	r3, [r2, #8]
 468              	.L39:
 469              		.loc 1 416 0
 470 0088 6068     		ldr	r0, [r4, #4]
 471 008a E36A     		ldr	r3, [r4, #44]
 472 008c 018A     		ldrh	r1, [r0, #16]
 473 008e A26A     		ldr	r2, [r4, #40]
 474              		.loc 1 431 0
 475 0090 0578     		ldrb	r5, [r0]	@ zero_extendqisi2
 476              		.loc 1 416 0
 477 0092 11F4006F 		tst	r1, #2048
 478              		.loc 1 419 0
 479 0096 22F4F042 		bic	r2, r2, #30720
 480              		.loc 1 427 0
 481 009a 17BF     		itett	ne
 482 009c 23F4F043 		bicne	r3, r3, #30720
 483              		.loc 1 421 0
 484 00a0 23F4F043 		biceq	r3, r3, #30720
 485              		.loc 1 426 0
 486 00a4 42F42052 		orrne	r2, r2, #10240
 487              		.loc 1 428 0
 488 00a8 43F42053 		orrne	r3, r3, #10240
 489              		.loc 1 418 0
 490 00ac 0CBF     		ite	eq
 491 00ae A262     		streq	r2, [r4, #40]
 492              		.loc 1 425 0
 493 00b0 A262     		strne	r2, [r4, #40]
 494              		.loc 1 427 0
 495 00b2 E362     		str	r3, [r4, #44]
 496 00b4 A26A     		ldr	r2, [r4, #40]
 497 00b6 E36A     		ldr	r3, [r4, #44]
 498              		.loc 1 431 0
 499 00b8 002D     		cmp	r5, #0
 500 00ba 32D0     		beq	.L45
 501              		.loc 1 432 0
 502 00bc 42F48472 		orr	r2, r2, #264
 503 00c0 A262     		str	r2, [r4, #40]
 504              		.loc 1 433 0
 505 00c2 43F48473 		orr	r3, r3, #264
 506              	.L49:
 507              		.loc 1 437 0
 508 00c6 E362     		str	r3, [r4, #44]
 509              		.loc 1 441 0
 510 00c8 E369     		ldr	r3, [r4, #28]
 511 00ca 1A68     		ldr	r2, [r3]
 512 00cc 22F04002 		bic	r2, r2, #64
 513 00d0 1A60     		str	r2, [r3]
ARM GAS  /tmp/cc8bVSRu.s 			page 10


 514              		.loc 1 444 0
 515 00d2 428A     		ldrh	r2, [r0, #18]
 516              		.loc 1 442 0
 517 00d4 41F44171 		orr	r1, r1, #772
 518              		.loc 1 444 0
 519 00d8 42F00702 		orr	r2, r2, #7
 520 00dc 92B2     		uxth	r2, r2
 521              		.loc 1 442 0
 522 00de 89B2     		uxth	r1, r1
 523 00e0 1960     		str	r1, [r3]
 524              		.loc 1 444 0
 525 00e2 5A60     		str	r2, [r3, #4]
 526              		.loc 1 446 0
 527 00e4 1A68     		ldr	r2, [r3]
 528 00e6 42F04002 		orr	r2, r2, #64
 529 00ea 1A60     		str	r2, [r3]
 530 00ec 38BD     		pop	{r3, r4, r5, pc}
 531              	.LVL32:
 532              	.L42:
 533              		.loc 1 365 0
 534 00ee 154B     		ldr	r3, .L50+20
 535 00f0 9842     		cmp	r0, r3
 536 00f2 C1D1     		bne	.L41
 537              		.loc 1 366 0
 538 00f4 0346     		mov	r3, r0
 539 00f6 0F4A     		ldr	r2, .L50+4
 540 00f8 0A21     		movs	r1, #10
 541 00fa 0B20     		movs	r0, #11
 542              	.LVL33:
 543 00fc FFF7FEFF 		bl	dmaStreamAllocI
 544              	.LVL34:
 545              		.loc 1 371 0
 546 0100 2346     		mov	r3, r4
 547              		.loc 1 366 0
 548 0102 2062     		str	r0, [r4, #32]
 549              		.loc 1 371 0
 550 0104 0C4A     		ldr	r2, .L50+8
 551 0106 0A21     		movs	r1, #10
 552 0108 0920     		movs	r0, #9
 553 010a FFF7FEFF 		bl	dmaStreamAllocI
 554              	.LVL35:
 555              		.loc 1 376 0
 556 010e 0B4B     		ldr	r3, .L50+12
 557              		.loc 1 371 0
 558 0110 6062     		str	r0, [r4, #36]
 559              		.loc 1 376 0
 560 0112 5A6C     		ldr	r2, [r3, #68]
 561 0114 42F40052 		orr	r2, r2, #8192
 562 0118 5A64     		str	r2, [r3, #68]
 563 011a 5A6E     		ldr	r2, [r3, #100]
 564 011c 42F40052 		orr	r2, r2, #8192
 565 0120 8CE7     		b	.L47
 566              	.L45:
 567              		.loc 1 436 0
 568 0122 22F48472 		bic	r2, r2, #264
 569 0126 A262     		str	r2, [r4, #40]
 570              		.loc 1 437 0
ARM GAS  /tmp/cc8bVSRu.s 			page 11


 571 0128 23F48473 		bic	r3, r3, #264
 572 012c CBE7     		b	.L49
 573              	.L51:
 574 012e 00BF     		.align	2
 575              	.L50:
 576 0130 00000000 		.word	.LANCHOR0
 577 0134 00000000 		.word	spi_lld_serve_rx_interrupt
 578 0138 00000000 		.word	spi_lld_serve_tx_interrupt
 579 013c 00380240 		.word	1073887232
 580 0140 00000000 		.word	.LANCHOR1
 581 0144 00000000 		.word	.LANCHOR2
 582              		.cfi_endproc
 583              	.LFE326:
 584              		.size	spi_lld_start, .-spi_lld_start
 585              		.section	.text.spi_lld_stop,"ax",%progbits
 586              		.align	1
 587              		.global	spi_lld_stop
 588              		.syntax unified
 589              		.thumb
 590              		.thumb_func
 591              		.fpu fpv4-sp-d16
 592              		.type	spi_lld_stop, %function
 593              	spi_lld_stop:
 594              	.LFB327:
 595              		.loc 1 456 0
 596              		.cfi_startproc
 597              		@ args = 0, pretend = 0, frame = 0
 598              		@ frame_needed = 0, uses_anonymous_args = 0
 599              	.LVL36:
 600 0000 38B5     		push	{r3, r4, r5, lr}
 601              		.cfi_def_cfa_offset 16
 602              		.cfi_offset 3, -16
 603              		.cfi_offset 4, -12
 604              		.cfi_offset 5, -8
 605              		.cfi_offset 14, -4
 606              		.loc 1 459 0
 607 0002 0378     		ldrb	r3, [r0]	@ zero_extendqisi2
 608 0004 022B     		cmp	r3, #2
 609              		.loc 1 456 0
 610 0006 0446     		mov	r4, r0
 611              		.loc 1 459 0
 612 0008 1CD1     		bne	.L52
 613              		.loc 1 462 0
 614 000a C369     		ldr	r3, [r0, #28]
 615              		.loc 1 465 0
 616 000c 006A     		ldr	r0, [r0, #32]
 617              	.LVL37:
 618              		.loc 1 462 0
 619 000e 1A68     		ldr	r2, [r3]
 620              		.loc 1 463 0
 621 0010 0025     		movs	r5, #0
 622              		.loc 1 462 0
 623 0012 22F04002 		bic	r2, r2, #64
 624 0016 1A60     		str	r2, [r3]
 625              		.loc 1 463 0
 626 0018 1D60     		str	r5, [r3]
 627              		.loc 1 464 0
ARM GAS  /tmp/cc8bVSRu.s 			page 12


 628 001a 5D60     		str	r5, [r3, #4]
 629              		.loc 1 465 0
 630 001c FFF7FEFF 		bl	dmaStreamFreeI
 631              	.LVL38:
 632              		.loc 1 466 0
 633 0020 606A     		ldr	r0, [r4, #36]
 634 0022 FFF7FEFF 		bl	dmaStreamFreeI
 635              	.LVL39:
 636              		.loc 1 471 0
 637 0026 154B     		ldr	r3, .L59
 638              		.loc 1 467 0
 639 0028 2562     		str	r5, [r4, #32]
 640              		.loc 1 471 0
 641 002a 9C42     		cmp	r4, r3
 642              		.loc 1 468 0
 643 002c 6562     		str	r5, [r4, #36]
 644              		.loc 1 471 0
 645 002e 0AD1     		bne	.L55
 646              		.loc 1 472 0
 647 0030 134B     		ldr	r3, .L59+4
 648 0032 5A6C     		ldr	r2, [r3, #68]
 649 0034 22F48052 		bic	r2, r2, #4096
 650 0038 5A64     		str	r2, [r3, #68]
 651 003a 5A6E     		ldr	r2, [r3, #100]
 652 003c 22F48052 		bic	r2, r2, #4096
 653              	.L58:
 654              		.loc 1 484 0
 655 0040 5A66     		str	r2, [r3, #100]
 656 0042 5B6E     		ldr	r3, [r3, #100]
 657              	.L52:
 658 0044 38BD     		pop	{r3, r4, r5, pc}
 659              	.LVL40:
 660              	.L55:
 661              		.loc 1 475 0
 662 0046 0F4B     		ldr	r3, .L59+8
 663 0048 9C42     		cmp	r4, r3
 664 004a 0AD1     		bne	.L56
 665              		.loc 1 476 0
 666 004c 0C4B     		ldr	r3, .L59+4
 667 004e 1A6C     		ldr	r2, [r3, #64]
 668 0050 22F48042 		bic	r2, r2, #16384
 669 0054 1A64     		str	r2, [r3, #64]
 670 0056 1A6E     		ldr	r2, [r3, #96]
 671 0058 22F48042 		bic	r2, r2, #16384
 672 005c 1A66     		str	r2, [r3, #96]
 673 005e 1B6E     		ldr	r3, [r3, #96]
 674 0060 38BD     		pop	{r3, r4, r5, pc}
 675              	.LVL41:
 676              	.L56:
 677              		.loc 1 483 0
 678 0062 094B     		ldr	r3, .L59+12
 679 0064 9C42     		cmp	r4, r3
 680 0066 EDD1     		bne	.L52
 681              		.loc 1 484 0
 682 0068 054B     		ldr	r3, .L59+4
 683 006a 5A6C     		ldr	r2, [r3, #68]
 684 006c 22F40052 		bic	r2, r2, #8192
ARM GAS  /tmp/cc8bVSRu.s 			page 13


 685 0070 5A64     		str	r2, [r3, #68]
 686 0072 5A6E     		ldr	r2, [r3, #100]
 687 0074 22F40052 		bic	r2, r2, #8192
 688 0078 E2E7     		b	.L58
 689              	.L60:
 690 007a 00BF     		.align	2
 691              	.L59:
 692 007c 00000000 		.word	.LANCHOR0
 693 0080 00380240 		.word	1073887232
 694 0084 00000000 		.word	.LANCHOR1
 695 0088 00000000 		.word	.LANCHOR2
 696              		.cfi_endproc
 697              	.LFE327:
 698              		.size	spi_lld_stop, .-spi_lld_stop
 699              		.section	.text.spi_lld_ignore,"ax",%progbits
 700              		.align	1
 701              		.global	spi_lld_ignore
 702              		.syntax unified
 703              		.thumb
 704              		.thumb_func
 705              		.fpu fpv4-sp-d16
 706              		.type	spi_lld_ignore, %function
 707              	spi_lld_ignore:
 708              	.LFB328:
 709              		.loc 1 535 0
 710              		.cfi_startproc
 711              		@ args = 0, pretend = 0, frame = 0
 712              		@ frame_needed = 0, uses_anonymous_args = 0
 713              	.LVL42:
 714              		.loc 1 539 0
 715 0000 036A     		ldr	r3, [r0, #32]
 716 0002 1A68     		ldr	r2, [r3]
 717 0004 0A4B     		ldr	r3, .L62
 718              		.loc 1 535 0
 719 0006 10B5     		push	{r4, lr}
 720              		.cfi_def_cfa_offset 8
 721              		.cfi_offset 4, -8
 722              		.cfi_offset 14, -4
 723              		.loc 1 539 0
 724 0008 D360     		str	r3, [r2, #12]
 725              		.loc 1 541 0
 726 000a 836A     		ldr	r3, [r0, #40]
 727              		.loc 1 540 0
 728 000c 5160     		str	r1, [r2, #4]
 729              		.loc 1 541 0
 730 000e 1360     		str	r3, [r2]
 731              		.loc 1 543 0
 732 0010 436A     		ldr	r3, [r0, #36]
 733 0012 084C     		ldr	r4, .L62+4
 734 0014 1B68     		ldr	r3, [r3]
 735 0016 DC60     		str	r4, [r3, #12]
 736              		.loc 1 544 0
 737 0018 5960     		str	r1, [r3, #4]
 738              		.loc 1 545 0
 739 001a C16A     		ldr	r1, [r0, #44]
 740              	.LVL43:
 741 001c 1960     		str	r1, [r3]
ARM GAS  /tmp/cc8bVSRu.s 			page 14


 742              	.LVL44:
 743              		.loc 1 547 0
 744 001e 1168     		ldr	r1, [r2]
 745 0020 41F00101 		orr	r1, r1, #1
 746 0024 1160     		str	r1, [r2]
 747              		.loc 1 548 0
 748 0026 1A68     		ldr	r2, [r3]
 749 0028 42F00102 		orr	r2, r2, #1
 750 002c 1A60     		str	r2, [r3]
 751 002e 10BD     		pop	{r4, pc}
 752              	.L63:
 753              		.align	2
 754              	.L62:
 755 0030 00000000 		.word	.LANCHOR3
 756 0034 00000000 		.word	.LANCHOR4
 757              		.cfi_endproc
 758              	.LFE328:
 759              		.size	spi_lld_ignore, .-spi_lld_ignore
 760              		.section	.text.spi_lld_exchange,"ax",%progbits
 761              		.align	1
 762              		.global	spi_lld_exchange
 763              		.syntax unified
 764              		.thumb
 765              		.thumb_func
 766              		.fpu fpv4-sp-d16
 767              		.type	spi_lld_exchange, %function
 768              	spi_lld_exchange:
 769              	.LFB329:
 770              		.loc 1 567 0
 771              		.cfi_startproc
 772              		@ args = 0, pretend = 0, frame = 0
 773              		@ frame_needed = 0, uses_anonymous_args = 0
 774              	.LVL45:
 775 0000 10B5     		push	{r4, lr}
 776              		.cfi_def_cfa_offset 8
 777              		.cfi_offset 4, -8
 778              		.cfi_offset 14, -4
 779              		.loc 1 571 0
 780 0002 046A     		ldr	r4, [r0, #32]
 781 0004 2468     		ldr	r4, [r4]
 782 0006 E360     		str	r3, [r4, #12]
 783              		.loc 1 573 0
 784 0008 836A     		ldr	r3, [r0, #40]
 785              	.LVL46:
 786              		.loc 1 572 0
 787 000a 6160     		str	r1, [r4, #4]
 788              	.LVL47:
 789              		.loc 1 573 0
 790 000c 43F48063 		orr	r3, r3, #1024
 791 0010 2360     		str	r3, [r4]
 792              		.loc 1 575 0
 793 0012 436A     		ldr	r3, [r0, #36]
 794 0014 1B68     		ldr	r3, [r3]
 795 0016 DA60     		str	r2, [r3, #12]
 796              		.loc 1 577 0
 797 0018 C26A     		ldr	r2, [r0, #44]
 798              	.LVL48:
ARM GAS  /tmp/cc8bVSRu.s 			page 15


 799              		.loc 1 576 0
 800 001a 5960     		str	r1, [r3, #4]
 801              	.LVL49:
 802              		.loc 1 577 0
 803 001c 42F48062 		orr	r2, r2, #1024
 804 0020 1A60     		str	r2, [r3]
 805              		.loc 1 579 0
 806 0022 2268     		ldr	r2, [r4]
 807 0024 42F00102 		orr	r2, r2, #1
 808 0028 2260     		str	r2, [r4]
 809              		.loc 1 580 0
 810 002a 1A68     		ldr	r2, [r3]
 811 002c 42F00102 		orr	r2, r2, #1
 812 0030 1A60     		str	r2, [r3]
 813 0032 10BD     		pop	{r4, pc}
 814              		.cfi_endproc
 815              	.LFE329:
 816              		.size	spi_lld_exchange, .-spi_lld_exchange
 817              		.section	.text.spi_lld_send,"ax",%progbits
 818              		.align	1
 819              		.global	spi_lld_send
 820              		.syntax unified
 821              		.thumb
 822              		.thumb_func
 823              		.fpu fpv4-sp-d16
 824              		.type	spi_lld_send, %function
 825              	spi_lld_send:
 826              	.LFB330:
 827              		.loc 1 596 0
 828              		.cfi_startproc
 829              		@ args = 0, pretend = 0, frame = 0
 830              		@ frame_needed = 0, uses_anonymous_args = 0
 831              	.LVL50:
 832              		.loc 1 600 0
 833 0000 036A     		ldr	r3, [r0, #32]
 834              		.loc 1 596 0
 835 0002 10B5     		push	{r4, lr}
 836              		.cfi_def_cfa_offset 8
 837              		.cfi_offset 4, -8
 838              		.cfi_offset 14, -4
 839              		.loc 1 600 0
 840 0004 1C68     		ldr	r4, [r3]
 841 0006 0B4B     		ldr	r3, .L66
 842 0008 E360     		str	r3, [r4, #12]
 843              		.loc 1 602 0
 844 000a 836A     		ldr	r3, [r0, #40]
 845              		.loc 1 601 0
 846 000c 6160     		str	r1, [r4, #4]
 847              		.loc 1 602 0
 848 000e 2360     		str	r3, [r4]
 849              		.loc 1 604 0
 850 0010 436A     		ldr	r3, [r0, #36]
 851 0012 1B68     		ldr	r3, [r3]
 852 0014 DA60     		str	r2, [r3, #12]
 853              		.loc 1 606 0
 854 0016 C26A     		ldr	r2, [r0, #44]
 855              	.LVL51:
ARM GAS  /tmp/cc8bVSRu.s 			page 16


 856              		.loc 1 605 0
 857 0018 5960     		str	r1, [r3, #4]
 858              	.LVL52:
 859              		.loc 1 606 0
 860 001a 42F48062 		orr	r2, r2, #1024
 861 001e 1A60     		str	r2, [r3]
 862              		.loc 1 608 0
 863 0020 2268     		ldr	r2, [r4]
 864 0022 42F00102 		orr	r2, r2, #1
 865 0026 2260     		str	r2, [r4]
 866              		.loc 1 609 0
 867 0028 1A68     		ldr	r2, [r3]
 868 002a 42F00102 		orr	r2, r2, #1
 869 002e 1A60     		str	r2, [r3]
 870 0030 10BD     		pop	{r4, pc}
 871              	.L67:
 872 0032 00BF     		.align	2
 873              	.L66:
 874 0034 00000000 		.word	.LANCHOR3
 875              		.cfi_endproc
 876              	.LFE330:
 877              		.size	spi_lld_send, .-spi_lld_send
 878              		.section	.text.spi_lld_receive,"ax",%progbits
 879              		.align	1
 880              		.global	spi_lld_receive
 881              		.syntax unified
 882              		.thumb
 883              		.thumb_func
 884              		.fpu fpv4-sp-d16
 885              		.type	spi_lld_receive, %function
 886              	spi_lld_receive:
 887              	.LFB331:
 888              		.loc 1 625 0
 889              		.cfi_startproc
 890              		@ args = 0, pretend = 0, frame = 0
 891              		@ frame_needed = 0, uses_anonymous_args = 0
 892              	.LVL53:
 893              		.loc 1 629 0
 894 0000 036A     		ldr	r3, [r0, #32]
 895              		.loc 1 625 0
 896 0002 10B5     		push	{r4, lr}
 897              		.cfi_def_cfa_offset 8
 898              		.cfi_offset 4, -8
 899              		.cfi_offset 14, -4
 900              		.loc 1 629 0
 901 0004 1C68     		ldr	r4, [r3]
 902              		.loc 1 631 0
 903 0006 836A     		ldr	r3, [r0, #40]
 904              		.loc 1 629 0
 905 0008 E260     		str	r2, [r4, #12]
 906              		.loc 1 631 0
 907 000a 43F48063 		orr	r3, r3, #1024
 908              		.loc 1 630 0
 909 000e 6160     		str	r1, [r4, #4]
 910              		.loc 1 631 0
 911 0010 2360     		str	r3, [r4]
 912              		.loc 1 633 0
ARM GAS  /tmp/cc8bVSRu.s 			page 17


 913 0012 436A     		ldr	r3, [r0, #36]
 914 0014 074A     		ldr	r2, .L69
 915              	.LVL54:
 916 0016 1B68     		ldr	r3, [r3]
 917 0018 DA60     		str	r2, [r3, #12]
 918              		.loc 1 635 0
 919 001a C26A     		ldr	r2, [r0, #44]
 920              		.loc 1 634 0
 921 001c 5960     		str	r1, [r3, #4]
 922              		.loc 1 635 0
 923 001e 1A60     		str	r2, [r3]
 924              		.loc 1 637 0
 925 0020 2268     		ldr	r2, [r4]
 926 0022 42F00102 		orr	r2, r2, #1
 927 0026 2260     		str	r2, [r4]
 928              		.loc 1 638 0
 929 0028 1A68     		ldr	r2, [r3]
 930 002a 42F00102 		orr	r2, r2, #1
 931 002e 1A60     		str	r2, [r3]
 932 0030 10BD     		pop	{r4, pc}
 933              	.L70:
 934 0032 00BF     		.align	2
 935              	.L69:
 936 0034 00000000 		.word	.LANCHOR4
 937              		.cfi_endproc
 938              	.LFE331:
 939              		.size	spi_lld_receive, .-spi_lld_receive
 940              		.section	.text.spi_lld_abort,"ax",%progbits
 941              		.align	1
 942              		.global	spi_lld_abort
 943              		.syntax unified
 944              		.thumb
 945              		.thumb_func
 946              		.fpu fpv4-sp-d16
 947              		.type	spi_lld_abort, %function
 948              	spi_lld_abort:
 949              	.LFB332:
 950              		.loc 1 649 0
 951              		.cfi_startproc
 952              		@ args = 0, pretend = 0, frame = 0
 953              		@ frame_needed = 0, uses_anonymous_args = 0
 954              		@ link register save eliminated.
 955              	.LVL55:
 956              		.loc 1 652 0
 957 0000 436A     		ldr	r3, [r0, #36]
 958 0002 1A68     		ldr	r2, [r3]
 959 0004 1168     		ldr	r1, [r2]
 960 0006 21F01F01 		bic	r1, r1, #31
 961 000a 1160     		str	r1, [r2]
 962              	.L72:
 963              		.loc 1 652 0 is_stmt 0 discriminator 2
 964 000c 1168     		ldr	r1, [r2]
 965 000e C907     		lsls	r1, r1, #31
 966 0010 FCD4     		bmi	.L72
 967              		.loc 1 652 0 discriminator 3
 968 0012 597A     		ldrb	r1, [r3, #9]	@ zero_extendqisi2
 969 0014 5A68     		ldr	r2, [r3, #4]
ARM GAS  /tmp/cc8bVSRu.s 			page 18


 970 0016 3D23     		movs	r3, #61
 971 0018 8B40     		lsls	r3, r3, r1
 972 001a 1360     		str	r3, [r2]
 973              		.loc 1 653 0 is_stmt 1 discriminator 3
 974 001c 036A     		ldr	r3, [r0, #32]
 975 001e 1A68     		ldr	r2, [r3]
 976 0020 1168     		ldr	r1, [r2]
 977 0022 21F01F01 		bic	r1, r1, #31
 978 0026 1160     		str	r1, [r2]
 979              	.L73:
 980              		.loc 1 653 0 is_stmt 0 discriminator 2
 981 0028 1168     		ldr	r1, [r2]
 982 002a C907     		lsls	r1, r1, #31
 983 002c FCD4     		bmi	.L73
 984              		.loc 1 653 0 discriminator 3
 985 002e 597A     		ldrb	r1, [r3, #9]	@ zero_extendqisi2
 986 0030 5A68     		ldr	r2, [r3, #4]
 987 0032 3D23     		movs	r3, #61
 988 0034 8B40     		lsls	r3, r3, r1
 989 0036 1360     		str	r3, [r2]
 990 0038 7047     		bx	lr
 991              		.cfi_endproc
 992              	.LFE332:
 993              		.size	spi_lld_abort, .-spi_lld_abort
 994              		.section	.text.spi_lld_polled_exchange,"ax",%progbits
 995              		.align	1
 996              		.global	spi_lld_polled_exchange
 997              		.syntax unified
 998              		.thumb
 999              		.thumb_func
 1000              		.fpu fpv4-sp-d16
 1001              		.type	spi_lld_polled_exchange, %function
 1002              	spi_lld_polled_exchange:
 1003              	.LFB333:
 1004              		.loc 1 669 0 is_stmt 1
 1005              		.cfi_startproc
 1006              		@ args = 0, pretend = 0, frame = 0
 1007              		@ frame_needed = 0, uses_anonymous_args = 0
 1008              		@ link register save eliminated.
 1009              	.LVL56:
 1010              		.loc 1 671 0
 1011 0000 C369     		ldr	r3, [r0, #28]
 1012 0002 D960     		str	r1, [r3, #12]
 1013              	.L77:
 1014              		.loc 1 672 0 discriminator 1
 1015 0004 9A68     		ldr	r2, [r3, #8]
 1016 0006 D207     		lsls	r2, r2, #31
 1017 0008 FCD5     		bpl	.L77
 1018              		.loc 1 674 0
 1019 000a D868     		ldr	r0, [r3, #12]
 1020              	.LVL57:
 1021              		.loc 1 675 0
 1022 000c 80B2     		uxth	r0, r0
 1023 000e 7047     		bx	lr
 1024              		.cfi_endproc
 1025              	.LFE333:
 1026              		.size	spi_lld_polled_exchange, .-spi_lld_polled_exchange
ARM GAS  /tmp/cc8bVSRu.s 			page 19


 1027              		.global	SPID4
 1028              		.global	SPID2
 1029              		.global	SPID1
 1030              		.section	.bss.SPID1,"aw",%nobits
 1031              		.align	2
 1032              		.set	.LANCHOR0,. + 0
 1033              		.type	SPID1, %object
 1034              		.size	SPID1, 48
 1035              	SPID1:
 1036 0000 00000000 		.space	48
 1036      00000000 
 1036      00000000 
 1036      00000000 
 1036      00000000 
 1037              		.section	.bss.SPID2,"aw",%nobits
 1038              		.align	2
 1039              		.set	.LANCHOR1,. + 0
 1040              		.type	SPID2, %object
 1041              		.size	SPID2, 48
 1042              	SPID2:
 1043 0000 00000000 		.space	48
 1043      00000000 
 1043      00000000 
 1043      00000000 
 1043      00000000 
 1044              		.section	.bss.SPID4,"aw",%nobits
 1045              		.align	2
 1046              		.set	.LANCHOR2,. + 0
 1047              		.type	SPID4, %object
 1048              		.size	SPID4, 48
 1049              	SPID4:
 1050 0000 00000000 		.space	48
 1050      00000000 
 1050      00000000 
 1050      00000000 
 1050      00000000 
 1051              		.section	.bss.dummyrx,"aw",%nobits
 1052              		.align	1
 1053              		.set	.LANCHOR3,. + 0
 1054              		.type	dummyrx, %object
 1055              		.size	dummyrx, 2
 1056              	dummyrx:
 1057 0000 0000     		.space	2
 1058              		.section	.rodata.dummytx,"a",%progbits
 1059              		.align	1
 1060              		.set	.LANCHOR4,. + 0
 1061              		.type	dummytx, %object
 1062              		.size	dummytx, 2
 1063              	dummytx:
 1064 0000 FFFF     		.short	-1
 1065              		.section	.rodata.spi_lld_serve_tx_interrupt.str1.1,"aMS",%progbits,1
 1066              	.LC0:
 1067 0000 444D4120 		.ascii	"DMA failure\000"
 1067      6661696C 
 1067      75726500 
 1068              		.text
 1069              	.Letext0:
ARM GAS  /tmp/cc8bVSRu.s 			page 20


 1070              		.file 5 "/opt/gcc-arm-none-eabi-6-2017-q2-update/lib/gcc/arm-none-eabi/6.3.1/include/stddef.h"
 1071              		.file 6 "/opt/gcc-arm-none-eabi-6-2017-q2-update/arm-none-eabi/include/machine/_default_types.h"
 1072              		.file 7 "/opt/gcc-arm-none-eabi-6-2017-q2-update/arm-none-eabi/include/sys/_stdint.h"
 1073              		.file 8 "/opt/gcc-arm-none-eabi-6-2017-q2-update/arm-none-eabi/include/stdint.h"
 1074              		.file 9 "../../modules/ChibiOS/os/common/ports/ARMCMx/compilers/GCC/chtypes.h"
 1075              		.file 10 "../../modules/ChibiOS/os/rt/include/chsystypes.h"
 1076              		.file 11 "../../modules/ChibiOS/os/rt/include/chschd.h"
 1077              		.file 12 "../../modules/ChibiOS/os/rt/include/chtime.h"
 1078              		.file 13 "../../modules/ChibiOS/os/common/ext/ARM/CMSIS/Core/Include/core_cm4.h"
 1079              		.file 14 "../../modules/ChibiOS/os/common/ext/ST/STM32F4xx/system_stm32f4xx.h"
 1080              		.file 15 "../../modules/ChibiOS/os/common/ext/ST/STM32F4xx/stm32f427xx.h"
 1081              		.file 16 "../../modules/ChibiOS/os/common/ports/ARMCMx/chcore.h"
 1082              		.file 17 "../../modules/ChibiOS/os/common/ports/ARMCMx/chcore_v7m.h"
 1083              		.file 18 "../../modules/ChibiOS/os/hal/ports/STM32/LLD/TIMv1/stm32_tim.h"
 1084              		.file 19 "../../modules/ChibiOS/os/rt/include/chtm.h"
 1085              		.file 20 "../../modules/ChibiOS/os/rt/include/chstats.h"
 1086              		.file 21 "../../modules/ChibiOS/os/rt/include/chsem.h"
 1087              		.file 22 "../../modules/ChibiOS/os/rt/include/chmtx.h"
 1088              		.file 23 "../../modules/ChibiOS/os/rt/include/chregistry.h"
 1089              		.file 24 "../../modules/ChibiOS/os/rt/include/chevents.h"
 1090              		.file 25 "../../modules/ChibiOS/os/oslib/include/chmemcore.h"
 1091              		.file 26 "../../modules/ChibiOS/os/oslib/include/chmempools.h"
 1092              		.file 27 "../../modules/ChibiOS/os/oslib/include/chfactory.h"
 1093              		.file 28 "../../modules/ChibiOS/os/hal/ports/STM32/LLD/DMAv2/stm32_dma.h"
 1094              		.file 29 "../../modules/ChibiOS/os/hal/include/hal_ioblock.h"
 1095              		.file 30 "../../modules/ChibiOS/os/hal/include/hal_queues.h"
 1096              		.file 31 "../../modules/ChibiOS/os/hal/include/hal_pal.h"
 1097              		.file 32 "../../modules/ChibiOS/os/hal/ports/STM32/LLD/GPIOv2/stm32_gpio.h"
 1098              		.file 33 "../../modules/ChibiOS/os/hal/ports/STM32/LLD/GPIOv2/hal_pal_lld.h"
 1099              		.file 34 "../../modules/ChibiOS/os/hal/include/hal_adc.h"
 1100              		.file 35 "../../modules/ChibiOS/os/hal/ports/STM32/LLD/ADCv2/hal_adc_lld.h"
 1101              		.file 36 "../../modules/ChibiOS/os/hal/include/hal_i2c.h"
 1102              		.file 37 "../../modules/ChibiOS/os/hal/ports/STM32/LLD/I2Cv1/hal_i2c_lld.h"
 1103              		.file 38 "../../modules/ChibiOS/os/hal/include/hal_pwm.h"
 1104              		.file 39 "../../modules/ChibiOS/os/hal/ports/STM32/LLD/TIMv1/hal_pwm_lld.h"
 1105              		.file 40 "../../modules/ChibiOS/os/hal/include/hal_serial.h"
 1106              		.file 41 "../../modules/ChibiOS/os/hal/ports/STM32/LLD/USARTv1/hal_serial_lld.h"
 1107              		.file 42 "../../modules/ChibiOS/os/hal/include/hal_sdc.h"
 1108              		.file 43 "../../modules/ChibiOS/os/hal/ports/STM32/LLD/SDIOv1/hal_sdc_lld.h"
 1109              		.file 44 "../../modules/ChibiOS/os/hal/include/hal_spi.h"
 1110              		.file 45 "../../modules/ChibiOS/os/hal/ports/STM32/LLD/SPIv1/hal_spi_lld.h"
 1111              		.file 46 "../../modules/ChibiOS/os/hal/include/hal_usb.h"
 1112              		.file 47 "../../modules/ChibiOS/os/hal/ports/STM32/LLD/OTGv1/hal_usb_lld.h"
 1113              		.file 48 "../../modules/ChibiOS/os/hal/ports/STM32/LLD/OTGv1/stm32_otg.h"
 1114              		.file 49 "../../modules/ChibiOS/os/rt/include/ch.h"
 1115              		.file 50 "../../modules/ChibiOS/os/rt/include/chthreads.h"