ARM GAS  /tmp/ccstZhCX.s 			page 1


   1              		.syntax unified
   2              		.cpu cortex-m4
   3              		.eabi_attribute 27, 1
   4              		.eabi_attribute 28, 1
   5              		.fpu fpv4-sp-d16
   6              		.eabi_attribute 20, 1
   7              		.eabi_attribute 21, 1
   8              		.eabi_attribute 23, 3
   9              		.eabi_attribute 24, 1
  10              		.eabi_attribute 25, 1
  11              		.eabi_attribute 26, 1
  12              		.eabi_attribute 30, 4
  13              		.eabi_attribute 34, 1
  14              		.eabi_attribute 18, 4
  15              		.thumb
  16              		.file	"hal_lld.c"
  17              		.text
  18              	.Ltext0:
  19              		.cfi_sections	.debug_frame
  20              		.section	.text.hal_lld_init,"ax",%progbits
  21              		.align	1
  22              		.global	hal_lld_init
  23              		.thumb
  24              		.thumb_func
  25              		.type	hal_lld_init, %function
  26              	hal_lld_init:
  27              	.LFB324:
  28              		.file 1 "../../modules/ChibiOS/os/hal/ports/STM32/STM32F4xx/hal_lld.c"
  29              		.loc 1 114 0
  30              		.cfi_startproc
  31              		@ args = 0, pretend = 0, frame = 0
  32              		@ frame_needed = 0, uses_anonymous_args = 0
  33 0000 08B5     		push	{r3, lr}
  34              		.cfi_def_cfa_offset 8
  35              		.cfi_offset 3, -8
  36              		.cfi_offset 14, -4
  37              		.loc 1 120 0
  38 0002 224B     		ldr	r3, .L6
  39 0004 1A69     		ldr	r2, [r3, #16]
  40 0006 6FEAC252 		mvn	r2, r2, lsl #23
  41 000a 6FEAD252 		mvn	r2, r2, lsr #23
  42 000e 1A61     		str	r2, [r3, #16]
  43 0010 1A69     		ldr	r2, [r3, #16]
  44 0012 C2F30802 		ubfx	r2, r2, #0, #9
  45 0016 1A61     		str	r2, [r3, #16]
  46              		.loc 1 122 0
  47 0018 4FF0FF30 		mov	r0, #-1
  48              		.loc 1 120 0
  49 001c 1A69     		ldr	r2, [r3, #16]
  50              		.loc 1 122 0
  51 001e 5A69     		ldr	r2, [r3, #20]
  52 0020 5861     		str	r0, [r3, #20]
  53 0022 0021     		movs	r1, #0
  54 0024 5A69     		ldr	r2, [r3, #20]
  55 0026 5961     		str	r1, [r3, #20]
  56 0028 5A69     		ldr	r2, [r3, #20]
  57              		.loc 1 124 0
ARM GAS  /tmp/ccstZhCX.s 			page 2


  58 002a 1A6A     		ldr	r2, [r3, #32]
  59 002c 62F08052 		orn	r2, r2, #268435456
  60 0030 1A62     		str	r2, [r3, #32]
  61 0032 1A6A     		ldr	r2, [r3, #32]
  62 0034 02F08052 		and	r2, r2, #268435456
  63 0038 1A62     		str	r2, [r3, #32]
  64 003a 1A6A     		ldr	r2, [r3, #32]
  65              		.loc 1 125 0
  66 003c 5A6A     		ldr	r2, [r3, #36]
  67 003e 5862     		str	r0, [r3, #36]
  68 0040 5A6A     		ldr	r2, [r3, #36]
  69 0042 5962     		str	r1, [r3, #36]
  70 0044 5A6A     		ldr	r2, [r3, #36]
  71              		.loc 1 128 0
  72 0046 1A6C     		ldr	r2, [r3, #64]
  73 0048 42F08052 		orr	r2, r2, #268435456
  74 004c 1A64     		str	r2, [r3, #64]
  75 004e 1A6E     		ldr	r2, [r3, #96]
  76 0050 42F08052 		orr	r2, r2, #268435456
  77 0054 1A66     		str	r2, [r3, #96]
  78 0056 1A6E     		ldr	r2, [r3, #96]
  79              	.LBB4:
  80              	.LBB5:
  81              		.loc 1 57 0
  82 0058 0D4A     		ldr	r2, .L6+4
  83 005a 1068     		ldr	r0, [r2]
  84 005c 40F48070 		orr	r0, r0, #256
  85 0060 1060     		str	r0, [r2]
  86              		.loc 1 60 0
  87 0062 186F     		ldr	r0, [r3, #112]
  88 0064 00F44070 		and	r0, r0, #768
  89 0068 B0F5007F 		cmp	r0, #512
  90              		.loc 1 62 0
  91 006c 1EBF     		ittt	ne
  92 006e 4FF48030 		movne	r0, #65536
  93 0072 1867     		strne	r0, [r3, #112]
  94              		.loc 1 63 0
  95 0074 1967     		strne	r1, [r3, #112]
  96              		.loc 1 97 0
  97 0076 5368     		ldr	r3, [r2, #4]
  98 0078 23F40073 		bic	r3, r3, #512
  99 007c 5360     		str	r3, [r2, #4]
 100              	.LBE5:
 101              	.LBE4:
 102              		.loc 1 135 0
 103 007e FFF7FEFF 		bl	dmaInit
 104              	.LVL0:
 105              		.loc 1 145 0
 106 0082 BDE80840 		pop	{r3, lr}
 107              		.cfi_restore 14
 108              		.cfi_restore 3
 109              		.cfi_def_cfa_offset 0
 110              		.loc 1 139 0
 111 0086 FFF7FEBF 		b	irqInit
 112              	.LVL1:
 113              	.L7:
 114 008a 00BF     		.align	2
ARM GAS  /tmp/ccstZhCX.s 			page 3


 115              	.L6:
 116 008c 00380240 		.word	1073887232
 117 0090 00700040 		.word	1073770496
 118              		.cfi_endproc
 119              	.LFE324:
 120              		.size	hal_lld_init, .-hal_lld_init
 121              		.section	.text.stm32_clock_init,"ax",%progbits
 122              		.align	1
 123              		.global	stm32_clock_init
 124              		.thumb
 125              		.thumb_func
 126              		.type	stm32_clock_init, %function
 127              	stm32_clock_init:
 128              	.LFB325:
 129              		.loc 1 154 0
 130              		.cfi_startproc
 131              		@ args = 0, pretend = 0, frame = 0
 132              		@ frame_needed = 0, uses_anonymous_args = 0
 133              		@ link register save eliminated.
 134              		.loc 1 161 0
 135 0000 334B     		ldr	r3, .L33
 136 0002 4FF08052 		mov	r2, #268435456
 137 0006 1A64     		str	r2, [r3, #64]
 138              		.loc 1 166 0
 139 0008 324A     		ldr	r2, .L33+4
 140 000a 4FF44041 		mov	r1, #49152
 141 000e 1160     		str	r1, [r2]
 142              		.loc 1 173 0
 143 0010 1A68     		ldr	r2, [r3]
 144 0012 42F00102 		orr	r2, r2, #1
 145 0016 1A60     		str	r2, [r3]
 146              	.L9:
 147              		.loc 1 174 0 discriminator 1
 148 0018 1968     		ldr	r1, [r3]
 149 001a 2D4A     		ldr	r2, .L33
 150 001c 8807     		lsls	r0, r1, #30
 151 001e FBD5     		bpl	.L9
 152              		.loc 1 180 0
 153 0020 9368     		ldr	r3, [r2, #8]
 154 0022 23F00303 		bic	r3, r3, #3
 155 0026 9360     		str	r3, [r2, #8]
 156              	.L10:
 157              		.loc 1 181 0 discriminator 1
 158 0028 294B     		ldr	r3, .L33
 159 002a 9A68     		ldr	r2, [r3, #8]
 160 002c 12F00C02 		ands	r2, r2, #12
 161 0030 FAD1     		bne	.L10
 162              		.loc 1 185 0
 163 0032 1968     		ldr	r1, [r3]
 164 0034 01F0F901 		and	r1, r1, #249
 165 0038 1960     		str	r1, [r3]
 166              		.loc 1 186 0
 167 003a 9A60     		str	r2, [r3, #8]
 168              		.loc 1 195 0
 169 003c 1A68     		ldr	r2, [r3]
 170 003e 42F48032 		orr	r2, r2, #65536
 171 0042 1A60     		str	r2, [r3]
ARM GAS  /tmp/ccstZhCX.s 			page 4


 172              	.L11:
 173              		.loc 1 197 0 discriminator 1
 174 0044 1968     		ldr	r1, [r3]
 175 0046 224A     		ldr	r2, .L33
 176 0048 8903     		lsls	r1, r1, #14
 177 004a FBD5     		bpl	.L11
 178              		.loc 1 203 0
 179 004c 536F     		ldr	r3, [r2, #116]
 180 004e 43F00103 		orr	r3, r3, #1
 181 0052 5367     		str	r3, [r2, #116]
 182              	.L12:
 183              		.loc 1 204 0 discriminator 1
 184 0054 1E4B     		ldr	r3, .L33
 185 0056 5A6F     		ldr	r2, [r3, #116]
 186 0058 9007     		lsls	r0, r2, #30
 187 005a FBD5     		bpl	.L12
 188              		.loc 1 210 0
 189 005c 1E4A     		ldr	r2, .L33+8
 190 005e 5A60     		str	r2, [r3, #4]
 191              		.loc 1 212 0
 192 0060 1A68     		ldr	r2, [r3]
 193 0062 42F08072 		orr	r2, r2, #16777216
 194 0066 1A60     		str	r2, [r3]
 195              	.L13:
 196              		.loc 1 216 0 discriminator 1
 197 0068 1A4B     		ldr	r3, .L33+4
 198 006a 5B68     		ldr	r3, [r3, #4]
 199 006c 5904     		lsls	r1, r3, #17
 200 006e FBD5     		bpl	.L13
 201              	.L25:
 202              		.loc 1 232 0 discriminator 1
 203 0070 174B     		ldr	r3, .L33
 204 0072 1A68     		ldr	r2, [r3]
 205 0074 9201     		lsls	r2, r2, #6
 206 0076 FBD5     		bpl	.L25
 207              		.loc 1 260 0
 208 0078 184A     		ldr	r2, .L33+12
 209 007a 9A60     		str	r2, [r3, #8]
 210              	.LVL2:
 211              	.LBB6:
 212              		.loc 1 290 0
 213 007c 0322     		movs	r2, #3
 214 007e C3F88C20 		str	r2, [r3, #140]
 215              	.LBE6:
 216              		.loc 1 308 0
 217 0082 174B     		ldr	r3, .L33+16
 218 0084 1A68     		ldr	r2, [r3]
 219 0086 174B     		ldr	r3, .L33+20
 220 0088 9A42     		cmp	r2, r3
 221 008a 174B     		ldr	r3, .L33+24
 222 008c 07D1     		bne	.L15
 223              		.loc 1 308 0 is_stmt 0 discriminator 1
 224 008e 174A     		ldr	r2, .L33+28
 225 0090 1168     		ldr	r1, [r2]
 226 0092 174A     		ldr	r2, .L33+32
 227 0094 9142     		cmp	r1, r2
 228 0096 02D1     		bne	.L15
ARM GAS  /tmp/ccstZhCX.s 			page 5


 229              		.loc 1 309 0 is_stmt 1
 230 0098 40F20512 		movw	r2, #261
 231 009c 01E0     		b	.L31
 232              	.L15:
 233              		.loc 1 311 0
 234 009e 40F20572 		movw	r2, #1797
 235              	.L31:
 236 00a2 1A60     		str	r2, [r3]
 237              		.loc 1 320 0
 238 00a4 0A4B     		ldr	r3, .L33
 239 00a6 9A68     		ldr	r2, [r3, #8]
 240 00a8 42F00202 		orr	r2, r2, #2
 241 00ac 9A60     		str	r2, [r3, #8]
 242 00ae 1A46     		mov	r2, r3
 243              	.L17:
 244              		.loc 1 321 0 discriminator 1
 245 00b0 9168     		ldr	r1, [r2, #8]
 246 00b2 074B     		ldr	r3, .L33
 247 00b4 01F00C01 		and	r1, r1, #12
 248 00b8 0829     		cmp	r1, #8
 249 00ba F9D1     		bne	.L17
 250              		.loc 1 328 0
 251 00bc 5A6C     		ldr	r2, [r3, #68]
 252 00be 42F48042 		orr	r2, r2, #16384
 253 00c2 5A64     		str	r2, [r3, #68]
 254 00c4 5A6E     		ldr	r2, [r3, #100]
 255 00c6 42F48042 		orr	r2, r2, #16384
 256 00ca 5A66     		str	r2, [r3, #100]
 257 00cc 5B6E     		ldr	r3, [r3, #100]
 258 00ce 7047     		bx	lr
 259              	.L34:
 260              		.align	2
 261              	.L33:
 262 00d0 00380240 		.word	1073887232
 263 00d4 00700040 		.word	1073770496
 264 00d8 18544007 		.word	121656344
 265 00dc 00948838 		.word	948474880
 266 00e0 002004E0 		.word	-536600576
 267 00e4 11640020 		.word	536896529
 268 00e8 003C0240 		.word	1073888256
 269 00ec 00ED00E0 		.word	-536810240
 270 00f0 41C20F41 		.word	1091551809
 271              		.cfi_endproc
 272              	.LFE325:
 273              		.size	stm32_clock_init, .-stm32_clock_init
 274              		.global	SystemCoreClock
 275              		.section	.data.SystemCoreClock,"aw",%progbits
 276              		.align	2
 277              		.type	SystemCoreClock, %object
 278              		.size	SystemCoreClock, 4
 279              	SystemCoreClock:
 280 0000 007A030A 		.word	168000000
 281              		.text
 282              	.Letext0:
 283              		.file 2 "/opt/gcc-arm-none-eabi-4_9-2015q3/lib/gcc/arm-none-eabi/4.9.3/include/stddef.h"
 284              		.file 3 "/opt/gcc-arm-none-eabi-4_9-2015q3/arm-none-eabi/include/machine/_default_types.h"
 285              		.file 4 "/opt/gcc-arm-none-eabi-4_9-2015q3/arm-none-eabi/include/sys/_stdint.h"
ARM GAS  /tmp/ccstZhCX.s 			page 6


 286              		.file 5 "../../modules/ChibiOS/os/common/ports/ARMCMx/compilers/GCC/chtypes.h"
 287              		.file 6 "../../modules/ChibiOS/os/rt/include/chsystypes.h"
 288              		.file 7 "../../modules/ChibiOS/os/rt/include/chschd.h"
 289              		.file 8 "../../modules/ChibiOS/os/rt/include/chtime.h"
 290              		.file 9 "../../modules/ChibiOS/os/common/ext/ARM/CMSIS/Core/Include/core_cm4.h"
 291              		.file 10 "../../modules/ChibiOS/os/common/ext/ST/STM32F4xx/stm32f427xx.h"
 292              		.file 11 "../../modules/ChibiOS/os/common/ports/ARMCMx/chcore.h"
 293              		.file 12 "../../modules/ChibiOS/os/common/ports/ARMCMx/chcore_v7m.h"
 294              		.file 13 "../../modules/ChibiOS/os/rt/include/chtm.h"
 295              		.file 14 "../../modules/ChibiOS/os/rt/include/chstats.h"
 296              		.file 15 "../../modules/ChibiOS/os/rt/include/chsem.h"
 297              		.file 16 "../../modules/ChibiOS/os/rt/include/chmtx.h"
 298              		.file 17 "../../modules/ChibiOS/os/hal/ports/STM32/LLD/DMAv2/stm32_dma.h"
 299              		.file 18 "../../modules/ChibiOS/os/hal/ports/STM32/STM32F4xx/stm32_isr.h"