ARM GAS  /tmp/cc6Zu3YJ.s 			page 1


   1              		.syntax unified
   2              		.cpu cortex-m4
   3              		.eabi_attribute 27, 1
   4              		.eabi_attribute 28, 1
   5              		.fpu fpv4-sp-d16
   6              		.eabi_attribute 20, 1
   7              		.eabi_attribute 21, 1
   8              		.eabi_attribute 23, 3
   9              		.eabi_attribute 24, 1
  10              		.eabi_attribute 25, 1
  11              		.eabi_attribute 26, 1
  12              		.eabi_attribute 30, 4
  13              		.eabi_attribute 34, 1
  14              		.eabi_attribute 18, 4
  15              		.thumb
  16              		.file	"hal_serial_lld.c"
  17              		.text
  18              	.Ltext0:
  19              		.cfi_sections	.debug_frame
  20              		.section	.text.notify2,"ax",%progbits
  21              		.align	1
  22              		.thumb
  23              		.thumb_func
  24              		.type	notify2, %function
  25              	notify2:
  26              	.LFB327:
  27              		.file 1 "../../modules/ChibiOS/os/hal/ports/STM32/LLD/USARTv1/hal_serial_lld.c"
  28              		.loc 1 248 0
  29              		.cfi_startproc
  30              		@ args = 0, pretend = 0, frame = 0
  31              		@ frame_needed = 0, uses_anonymous_args = 0
  32              		@ link register save eliminated.
  33              	.LVL0:
  34              		.loc 1 251 0
  35 0000 024A     		ldr	r2, .L2
  36 0002 D368     		ldr	r3, [r2, #12]
  37 0004 43F0C003 		orr	r3, r3, #192
  38 0008 D360     		str	r3, [r2, #12]
  39 000a 7047     		bx	lr
  40              	.L3:
  41              		.align	2
  42              	.L2:
  43 000c 00440040 		.word	1073759232
  44              		.cfi_endproc
  45              	.LFE327:
  46              		.size	notify2, .-notify2
  47              		.section	.text.notify3,"ax",%progbits
  48              		.align	1
  49              		.thumb
  50              		.thumb_func
  51              		.type	notify3, %function
  52              	notify3:
  53              	.LFB328:
  54              		.loc 1 256 0
  55              		.cfi_startproc
  56              		@ args = 0, pretend = 0, frame = 0
  57              		@ frame_needed = 0, uses_anonymous_args = 0
ARM GAS  /tmp/cc6Zu3YJ.s 			page 2


  58              		@ link register save eliminated.
  59              	.LVL1:
  60              		.loc 1 259 0
  61 0000 024A     		ldr	r2, .L5
  62 0002 D368     		ldr	r3, [r2, #12]
  63 0004 43F0C003 		orr	r3, r3, #192
  64 0008 D360     		str	r3, [r2, #12]
  65 000a 7047     		bx	lr
  66              	.L6:
  67              		.align	2
  68              	.L5:
  69 000c 00480040 		.word	1073760256
  70              		.cfi_endproc
  71              	.LFE328:
  72              		.size	notify3, .-notify3
  73              		.section	.text.notify4,"ax",%progbits
  74              		.align	1
  75              		.thumb
  76              		.thumb_func
  77              		.type	notify4, %function
  78              	notify4:
  79              	.LFB329:
  80              		.loc 1 264 0
  81              		.cfi_startproc
  82              		@ args = 0, pretend = 0, frame = 0
  83              		@ frame_needed = 0, uses_anonymous_args = 0
  84              		@ link register save eliminated.
  85              	.LVL2:
  86              		.loc 1 267 0
  87 0000 024A     		ldr	r2, .L8
  88 0002 D368     		ldr	r3, [r2, #12]
  89 0004 43F0C003 		orr	r3, r3, #192
  90 0008 D360     		str	r3, [r2, #12]
  91 000a 7047     		bx	lr
  92              	.L9:
  93              		.align	2
  94              	.L8:
  95 000c 004C0040 		.word	1073761280
  96              		.cfi_endproc
  97              	.LFE329:
  98              		.size	notify4, .-notify4
  99              		.section	.text.notify6,"ax",%progbits
 100              		.align	1
 101              		.thumb
 102              		.thumb_func
 103              		.type	notify6, %function
 104              	notify6:
 105              	.LFB330:
 106              		.loc 1 280 0
 107              		.cfi_startproc
 108              		@ args = 0, pretend = 0, frame = 0
 109              		@ frame_needed = 0, uses_anonymous_args = 0
 110              		@ link register save eliminated.
 111              	.LVL3:
 112              		.loc 1 283 0
 113 0000 024A     		ldr	r2, .L11
 114 0002 D368     		ldr	r3, [r2, #12]
ARM GAS  /tmp/cc6Zu3YJ.s 			page 3


 115 0004 43F0C003 		orr	r3, r3, #192
 116 0008 D360     		str	r3, [r2, #12]
 117 000a 7047     		bx	lr
 118              	.L12:
 119              		.align	2
 120              	.L11:
 121 000c 00140140 		.word	1073812480
 122              		.cfi_endproc
 123              	.LFE330:
 124              		.size	notify6, .-notify6
 125              		.section	.text.notify7,"ax",%progbits
 126              		.align	1
 127              		.thumb
 128              		.thumb_func
 129              		.type	notify7, %function
 130              	notify7:
 131              	.LFB331:
 132              		.loc 1 288 0
 133              		.cfi_startproc
 134              		@ args = 0, pretend = 0, frame = 0
 135              		@ frame_needed = 0, uses_anonymous_args = 0
 136              		@ link register save eliminated.
 137              	.LVL4:
 138              		.loc 1 291 0
 139 0000 024A     		ldr	r2, .L14
 140 0002 D368     		ldr	r3, [r2, #12]
 141 0004 43F0C003 		orr	r3, r3, #192
 142 0008 D360     		str	r3, [r2, #12]
 143 000a 7047     		bx	lr
 144              	.L15:
 145              		.align	2
 146              	.L14:
 147 000c 00780040 		.word	1073772544
 148              		.cfi_endproc
 149              	.LFE331:
 150              		.size	notify7, .-notify7
 151              		.section	.text.notify8,"ax",%progbits
 152              		.align	1
 153              		.thumb
 154              		.thumb_func
 155              		.type	notify8, %function
 156              	notify8:
 157              	.LFB332:
 158              		.loc 1 296 0
 159              		.cfi_startproc
 160              		@ args = 0, pretend = 0, frame = 0
 161              		@ frame_needed = 0, uses_anonymous_args = 0
 162              		@ link register save eliminated.
 163              	.LVL5:
 164              		.loc 1 299 0
 165 0000 024A     		ldr	r2, .L17
 166 0002 D368     		ldr	r3, [r2, #12]
 167 0004 43F0C003 		orr	r3, r3, #192
 168 0008 D360     		str	r3, [r2, #12]
 169 000a 7047     		bx	lr
 170              	.L18:
 171              		.align	2
ARM GAS  /tmp/cc6Zu3YJ.s 			page 4


 172              	.L17:
 173 000c 007C0040 		.word	1073773568
 174              		.cfi_endproc
 175              	.LFE332:
 176              		.size	notify8, .-notify8
 177              		.section	.text.serve_interrupt,"ax",%progbits
 178              		.align	1
 179              		.thumb
 180              		.thumb_func
 181              		.type	serve_interrupt, %function
 182              	serve_interrupt:
 183              	.LFB326:
 184              		.loc 1 184 0
 185              		.cfi_startproc
 186              		@ args = 0, pretend = 0, frame = 0
 187              		@ frame_needed = 0, uses_anonymous_args = 0
 188              	.LVL6:
 189 0000 2DE9F041 		push	{r4, r5, r6, r7, r8, lr}
 190              		.cfi_def_cfa_offset 24
 191              		.cfi_offset 4, -24
 192              		.cfi_offset 5, -20
 193              		.cfi_offset 6, -16
 194              		.cfi_offset 7, -12
 195              		.cfi_offset 8, -8
 196              		.cfi_offset 14, -4
 197              		.loc 1 185 0
 198 0004 D0F85464 		ldr	r6, [r0, #1108]
 199              	.LVL7:
 200              		.loc 1 186 0
 201 0008 F768     		ldr	r7, [r6, #12]
 202              	.LVL8:
 203              		.loc 1 187 0
 204 000a 3368     		ldr	r3, [r6]
 205              		.loc 1 190 0
 206 000c DA05     		lsls	r2, r3, #23
 207              		.loc 1 184 0
 208 000e 0546     		mov	r5, r0
 209              		.loc 1 187 0
 210 0010 9CB2     		uxth	r4, r3
 211              	.LVL9:
 212              		.loc 1 190 0
 213 0012 11D5     		bpl	.L20
 214              	.LVL10:
 215              	.LBB128:
 216              	.LBB129:
 217              	.LBB130:
 218              	.LBB131:
 219              	.LBB132:
 220              	.LBB133:
 221              	.LBB134:
 222              		.file 2 "../../modules/ChibiOS/os/common/ext/ARM/CMSIS/Core/Include/cmsis_gcc.h"
 223              		.loc 2 493 0
 224 0014 2023     		movs	r3, #32
 225              	@ 493 "../../modules/ChibiOS/os/common/ext/ARM/CMSIS/Core/Include/cmsis_gcc.h" 1
 226 0016 83F31188 		MSR basepri, r3
 227              	@ 0 "" 2
 228              		.thumb
ARM GAS  /tmp/cc6Zu3YJ.s 			page 5


 229              	.LBE134:
 230              	.LBE133:
 231              	.LBE132:
 232              	.LBE131:
 233              		.file 3 "../../modules/ChibiOS/os/rt/include/chsys.h"
 234              		.loc 3 396 0
 235 001a FFF7FEFF 		bl	_stats_start_measure_crit_isr
 236              	.LVL11:
 237              	.LBE130:
 238              	.LBE129:
 239              	.LBE128:
 240              	.LBB135:
 241              	.LBB136:
 242              		.file 4 "../../modules/ChibiOS/os/hal/osal/rt/osal.h"
 243              		.loc 4 895 0
 244 001e 281D     		adds	r0, r5, #4
 245              	.LVL12:
 246 0020 4FF40071 		mov	r1, #512
 247 0024 FFF7FEFF 		bl	chEvtBroadcastFlagsI
 248              	.LVL13:
 249              	.LBE136:
 250              	.LBE135:
 251              		.loc 1 193 0
 252 0028 6FF48073 		mvn	r3, #256
 253 002c 3360     		str	r3, [r6]
 254              	.LBB137:
 255              	.LBB138:
 256              	.LBB139:
 257              		.loc 3 416 0
 258 002e FFF7FEFF 		bl	_stats_stop_measure_crit_isr
 259              	.LVL14:
 260              	.LBB140:
 261              	.LBB141:
 262              	.LBB142:
 263              	.LBB143:
 264              		.loc 2 493 0
 265 0032 0023     		movs	r3, #0
 266              	@ 493 "../../modules/ChibiOS/os/common/ext/ARM/CMSIS/Core/Include/cmsis_gcc.h" 1
 267 0034 83F31188 		MSR basepri, r3
 268              	@ 0 "" 2
 269              	.LVL15:
 270              		.thumb
 271              	.L20:
 272              	.LBE143:
 273              	.LBE142:
 274              	.LBE141:
 275              	.LBE140:
 276              	.LBE139:
 277              	.LBE138:
 278              	.LBE137:
 279              	.LBB144:
 280              	.LBB145:
 281              	.LBB146:
 282              	.LBB147:
 283              	.LBB148:
 284              	.LBB149:
 285              	.LBB150:
ARM GAS  /tmp/cc6Zu3YJ.s 			page 6


 286 0038 2023     		movs	r3, #32
 287              	@ 493 "../../modules/ChibiOS/os/common/ext/ARM/CMSIS/Core/Include/cmsis_gcc.h" 1
 288 003a 83F31188 		MSR basepri, r3
 289              	@ 0 "" 2
 290              		.thumb
 291              	.LBE150:
 292              	.LBE149:
 293              	.LBE148:
 294              	.LBE147:
 295              		.loc 3 396 0
 296 003e FFF7FEFF 		bl	_stats_start_measure_crit_isr
 297              	.LVL16:
 298              	.L21:
 299              	.LBE146:
 300              	.LBE145:
 301              	.LBE144:
 302              		.loc 1 199 0
 303 0042 14F02F08 		ands	r8, r4, #47
 304 0046 21D0     		beq	.L68
 305              	.LBB151:
 306              		.loc 1 204 0
 307 0048 2307     		lsls	r3, r4, #28
 308 004a 13D0     		beq	.L22
 309              	.LVL17:
 310              	.LBB152:
 311              	.LBB153:
 312              		.loc 1 169 0
 313 004c 14F0080F 		tst	r4, #8
 314 0050 0CBF     		ite	eq
 315 0052 0021     		moveq	r1, #0
 316 0054 8021     		movne	r1, #128
 317              	.LVL18:
 318              		.loc 1 170 0
 319 0056 E007     		lsls	r0, r4, #31
 320              		.loc 1 171 0
 321 0058 48BF     		it	mi
 322 005a 41F02001 		orrmi	r1, r1, #32
 323              	.LVL19:
 324              		.loc 1 172 0
 325 005e A207     		lsls	r2, r4, #30
 326              		.loc 1 173 0
 327 0060 48BF     		it	mi
 328 0062 41F04001 		orrmi	r1, r1, #64
 329              	.LVL20:
 330              		.loc 1 174 0
 331 0066 6307     		lsls	r3, r4, #29
 332              		.loc 1 175 0
 333 0068 48BF     		it	mi
 334 006a 41F48071 		orrmi	r1, r1, #256
 335              	.LVL21:
 336              	.LBB154:
 337              	.LBB155:
 338              		.loc 4 895 0
 339 006e 281D     		adds	r0, r5, #4
 340              	.LVL22:
 341 0070 FFF7FEFF 		bl	chEvtBroadcastFlagsI
 342              	.LVL23:
ARM GAS  /tmp/cc6Zu3YJ.s 			page 7


 343              	.L22:
 344              	.LBE155:
 345              	.LBE154:
 346              	.LBE153:
 347              	.LBE152:
 348              		.loc 1 207 0
 349 0074 A406     		lsls	r4, r4, #26
 350              	.LVL24:
 351              		.loc 1 206 0
 352 0076 7368     		ldr	r3, [r6, #4]
 353 0078 95F85814 		ldrb	r1, [r5, #1112]	@ zero_extendqisi2
 354              	.LVL25:
 355              		.loc 1 207 0
 356 007c 03D5     		bpl	.L27
 357              		.loc 1 208 0
 358 007e 2846     		mov	r0, r5
 359 0080 1940     		ands	r1, r1, r3
 360              	.LVL26:
 361 0082 FFF7FEFF 		bl	sdIncomingDataI
 362              	.LVL27:
 363              	.L27:
 364              		.loc 1 209 0
 365 0086 3468     		ldr	r4, [r6]
 366 0088 A4B2     		uxth	r4, r4
 367              	.LVL28:
 368 008a DAE7     		b	.L21
 369              	.L68:
 370              	.LBE151:
 371              	.LBB156:
 372              	.LBB157:
 373              	.LBB158:
 374              		.loc 3 416 0
 375 008c FFF7FEFF 		bl	_stats_stop_measure_crit_isr
 376              	.LVL29:
 377              	.LBB159:
 378              	.LBB160:
 379              	.LBB161:
 380              	.LBB162:
 381              		.loc 2 493 0
 382              	@ 493 "../../modules/ChibiOS/os/common/ext/ARM/CMSIS/Core/Include/cmsis_gcc.h" 1
 383 0090 88F31188 		MSR basepri, r8
 384              	@ 0 "" 2
 385              		.thumb
 386              	.LBE162:
 387              	.LBE161:
 388              	.LBE160:
 389              	.LBE159:
 390              	.LBE158:
 391              	.LBE157:
 392              	.LBE156:
 393              		.loc 1 214 0
 394 0094 3806     		lsls	r0, r7, #24
 395 0096 1BD5     		bpl	.L29
 396              		.loc 1 214 0 is_stmt 0 discriminator 1
 397 0098 2106     		lsls	r1, r4, #24
 398 009a 19D5     		bpl	.L29
 399              	.LVL30:
ARM GAS  /tmp/cc6Zu3YJ.s 			page 8


 400              	.LBB163:
 401              	.LBB164:
 402              	.LBB165:
 403              	.LBB166:
 404              	.LBB167:
 405              	.LBB168:
 406              	.LBB169:
 407              	.LBB170:
 408              		.loc 2 493 0 is_stmt 1
 409 009c 2023     		movs	r3, #32
 410              	@ 493 "../../modules/ChibiOS/os/common/ext/ARM/CMSIS/Core/Include/cmsis_gcc.h" 1
 411 009e 83F31188 		MSR basepri, r3
 412              	@ 0 "" 2
 413              		.thumb
 414              	.LBE170:
 415              	.LBE169:
 416              	.LBE168:
 417              	.LBE167:
 418              		.loc 3 396 0
 419 00a2 FFF7FEFF 		bl	_stats_start_measure_crit_isr
 420              	.LVL31:
 421              	.LBE166:
 422              	.LBE165:
 423              	.LBE164:
 424              		.loc 1 217 0
 425 00a6 05F13000 		add	r0, r5, #48
 426 00aa FFF7FEFF 		bl	oqGetI
 427              	.LVL32:
 428              		.loc 1 218 0
 429 00ae 0028     		cmp	r0, #0
 430 00b0 08DA     		bge	.L30
 431              	.LVL33:
 432              	.LBB171:
 433              	.LBB172:
 434              		.loc 4 895 0
 435 00b2 281D     		adds	r0, r5, #4
 436              	.LVL34:
 437 00b4 0821     		movs	r1, #8
 438 00b6 FFF7FEFF 		bl	chEvtBroadcastFlagsI
 439              	.LVL35:
 440              	.LBE172:
 441              	.LBE171:
 442              		.loc 1 220 0
 443 00ba 4FF67F73 		movw	r3, #65407
 444 00be 3B40     		ands	r3, r3, r7
 445 00c0 F360     		str	r3, [r6, #12]
 446 00c2 00E0     		b	.L31
 447              	.LVL36:
 448              	.L30:
 449              		.loc 1 223 0
 450 00c4 7060     		str	r0, [r6, #4]
 451              	.LVL37:
 452              	.L31:
 453              	.LBB173:
 454              	.LBB174:
 455              	.LBB175:
 456              		.loc 3 416 0
ARM GAS  /tmp/cc6Zu3YJ.s 			page 9


 457 00c6 FFF7FEFF 		bl	_stats_stop_measure_crit_isr
 458              	.LVL38:
 459              	.LBB176:
 460              	.LBB177:
 461              	.LBB178:
 462              	.LBB179:
 463              		.loc 2 493 0
 464 00ca 0023     		movs	r3, #0
 465              	@ 493 "../../modules/ChibiOS/os/common/ext/ARM/CMSIS/Core/Include/cmsis_gcc.h" 1
 466 00cc 83F31188 		MSR basepri, r3
 467              	@ 0 "" 2
 468              	.LVL39:
 469              		.thumb
 470              	.L29:
 471              	.LBE179:
 472              	.LBE178:
 473              	.LBE177:
 474              	.LBE176:
 475              	.LBE175:
 476              	.LBE174:
 477              	.LBE173:
 478              	.LBE163:
 479              		.loc 1 228 0
 480 00d0 7A06     		lsls	r2, r7, #25
 481 00d2 11D5     		bpl	.L32
 482              		.loc 1 228 0 is_stmt 0 discriminator 1
 483 00d4 6306     		lsls	r3, r4, #25
 484 00d6 0FD5     		bpl	.L32
 485              	.LVL40:
 486              	.LBB180:
 487              	.LBB181:
 488              	.LBB182:
 489              	.LBB183:
 490              	.LBB184:
 491              	.LBB185:
 492              	.LBB186:
 493              		.loc 2 493 0 is_stmt 1
 494 00d8 2023     		movs	r3, #32
 495              	@ 493 "../../modules/ChibiOS/os/common/ext/ARM/CMSIS/Core/Include/cmsis_gcc.h" 1
 496 00da 83F31188 		MSR basepri, r3
 497              	@ 0 "" 2
 498              		.thumb
 499              	.LBE186:
 500              	.LBE185:
 501              	.LBE184:
 502              	.LBE183:
 503              		.loc 3 396 0
 504 00de FFF7FEFF 		bl	_stats_start_measure_crit_isr
 505              	.LVL41:
 506              	.LBE182:
 507              	.LBE181:
 508              	.LBE180:
 509              		.loc 1 230 0
 510 00e2 6A6C     		ldr	r2, [r5, #68]
 511 00e4 AB6C     		ldr	r3, [r5, #72]
 512 00e6 9A42     		cmp	r2, r3
 513 00e8 01D1     		bne	.L33
ARM GAS  /tmp/cc6Zu3YJ.s 			page 10


 514              		.loc 1 230 0 is_stmt 0 discriminator 1
 515 00ea AB6B     		ldr	r3, [r5, #56]
 516 00ec 63B9     		cbnz	r3, .L34
 517              	.L33:
 518              	.LBB187:
 519              	.LBB188:
 520              	.LBB189:
 521              		.loc 3 416 0 is_stmt 1
 522 00ee FFF7FEFF 		bl	_stats_stop_measure_crit_isr
 523              	.LVL42:
 524              	.LBB190:
 525              	.LBB191:
 526              	.LBB192:
 527              	.LBB193:
 528              		.loc 2 493 0
 529 00f2 0023     		movs	r3, #0
 530              	@ 493 "../../modules/ChibiOS/os/common/ext/ARM/CMSIS/Core/Include/cmsis_gcc.h" 1
 531 00f4 83F31188 		MSR basepri, r3
 532              	@ 0 "" 2
 533              	.LVL43:
 534              		.thumb
 535              	.L32:
 536              	.LBE193:
 537              	.LBE192:
 538              	.LBE191:
 539              	.LBE190:
 540              	.LBE189:
 541              	.LBE188:
 542              	.LBE187:
 543              		.loc 1 236 0
 544 00f8 D5F85C24 		ldr	r2, [r5, #1116]
 545 00fc D368     		ldr	r3, [r2, #12]
 546 00fe 63B1     		cbz	r3, .L19
 547              		.loc 1 236 0 is_stmt 0 discriminator 1
 548 0100 1069     		ldr	r0, [r2, #16]
 549              		.loc 1 237 0 is_stmt 1 discriminator 1
 550 0102 BDE8F041 		pop	{r4, r5, r6, r7, r8, lr}
 551              		.cfi_remember_state
 552              		.cfi_restore 14
 553              		.cfi_restore 8
 554              		.cfi_restore 7
 555              		.cfi_restore 6
 556              		.cfi_restore 5
 557              		.cfi_restore 4
 558              		.cfi_def_cfa_offset 0
 559              	.LVL44:
 560              		.loc 1 236 0 discriminator 1
 561 0106 1847     		bx	r3	@ indirect register sibling call
 562              	.LVL45:
 563              	.L34:
 564              		.cfi_restore_state
 565              	.LBB194:
 566              	.LBB195:
 567              		.loc 4 895 0
 568 0108 281D     		adds	r0, r5, #4
 569              	.LVL46:
 570 010a 1021     		movs	r1, #16
ARM GAS  /tmp/cc6Zu3YJ.s 			page 11


 571 010c FFF7FEFF 		bl	chEvtBroadcastFlagsI
 572              	.LVL47:
 573              	.LBE195:
 574              	.LBE194:
 575              		.loc 1 232 0
 576 0110 4FF6BF73 		movw	r3, #65471
 577 0114 3B40     		ands	r3, r3, r7
 578 0116 F360     		str	r3, [r6, #12]
 579 0118 E9E7     		b	.L33
 580              	.LVL48:
 581              	.L19:
 582 011a BDE8F081 		pop	{r4, r5, r6, r7, r8, pc}
 583              		.cfi_endproc
 584              	.LFE326:
 585              		.size	serve_interrupt, .-serve_interrupt
 586              		.section	.text.VectorD8,"ax",%progbits
 587              		.align	1
 588              		.global	VectorD8
 589              		.thumb
 590              		.thumb_func
 591              		.type	VectorD8, %function
 592              	VectorD8:
 593              	.LFB333:
 594              		.loc 1 335 0
 595              		.cfi_startproc
 596              		@ args = 0, pretend = 0, frame = 0
 597              		@ frame_needed = 0, uses_anonymous_args = 0
 598 0000 08B5     		push	{r3, lr}
 599              		.cfi_def_cfa_offset 8
 600              		.cfi_offset 3, -8
 601              		.cfi_offset 14, -4
 602              		.loc 1 337 0
 603 0002 FFF7FEFF 		bl	_stats_increase_irq
 604              	.LVL49:
 605              		.loc 1 339 0
 606 0006 0348     		ldr	r0, .L70
 607 0008 FFF7FEFF 		bl	serve_interrupt
 608              	.LVL50:
 609              		.loc 1 342 0
 610 000c BDE80840 		pop	{r3, lr}
 611              		.cfi_restore 14
 612              		.cfi_restore 3
 613              		.cfi_def_cfa_offset 0
 614              		.loc 1 341 0
 615 0010 FFF7FEBF 		b	_port_irq_epilogue
 616              	.LVL51:
 617              	.L71:
 618              		.align	2
 619              	.L70:
 620 0014 00000000 		.word	.LANCHOR0
 621              		.cfi_endproc
 622              	.LFE333:
 623              		.size	VectorD8, .-VectorD8
 624              		.section	.text.VectorDC,"ax",%progbits
 625              		.align	1
 626              		.global	VectorDC
 627              		.thumb
ARM GAS  /tmp/cc6Zu3YJ.s 			page 12


 628              		.thumb_func
 629              		.type	VectorDC, %function
 630              	VectorDC:
 631              	.LFB334:
 632              		.loc 1 354 0
 633              		.cfi_startproc
 634              		@ args = 0, pretend = 0, frame = 0
 635              		@ frame_needed = 0, uses_anonymous_args = 0
 636 0000 08B5     		push	{r3, lr}
 637              		.cfi_def_cfa_offset 8
 638              		.cfi_offset 3, -8
 639              		.cfi_offset 14, -4
 640              		.loc 1 356 0
 641 0002 FFF7FEFF 		bl	_stats_increase_irq
 642              	.LVL52:
 643              		.loc 1 358 0
 644 0006 0348     		ldr	r0, .L73
 645 0008 FFF7FEFF 		bl	serve_interrupt
 646              	.LVL53:
 647              		.loc 1 361 0
 648 000c BDE80840 		pop	{r3, lr}
 649              		.cfi_restore 14
 650              		.cfi_restore 3
 651              		.cfi_def_cfa_offset 0
 652              		.loc 1 360 0
 653 0010 FFF7FEBF 		b	_port_irq_epilogue
 654              	.LVL54:
 655              	.L74:
 656              		.align	2
 657              	.L73:
 658 0014 00000000 		.word	.LANCHOR1
 659              		.cfi_endproc
 660              	.LFE334:
 661              		.size	VectorDC, .-VectorDC
 662              		.section	.text.Vector110,"ax",%progbits
 663              		.align	1
 664              		.global	Vector110
 665              		.thumb
 666              		.thumb_func
 667              		.type	Vector110, %function
 668              	Vector110:
 669              	.LFB335:
 670              		.loc 1 373 0
 671              		.cfi_startproc
 672              		@ args = 0, pretend = 0, frame = 0
 673              		@ frame_needed = 0, uses_anonymous_args = 0
 674 0000 08B5     		push	{r3, lr}
 675              		.cfi_def_cfa_offset 8
 676              		.cfi_offset 3, -8
 677              		.cfi_offset 14, -4
 678              		.loc 1 375 0
 679 0002 FFF7FEFF 		bl	_stats_increase_irq
 680              	.LVL55:
 681              		.loc 1 377 0
 682 0006 0348     		ldr	r0, .L76
 683 0008 FFF7FEFF 		bl	serve_interrupt
 684              	.LVL56:
ARM GAS  /tmp/cc6Zu3YJ.s 			page 13


 685              		.loc 1 380 0
 686 000c BDE80840 		pop	{r3, lr}
 687              		.cfi_restore 14
 688              		.cfi_restore 3
 689              		.cfi_def_cfa_offset 0
 690              		.loc 1 379 0
 691 0010 FFF7FEBF 		b	_port_irq_epilogue
 692              	.LVL57:
 693              	.L77:
 694              		.align	2
 695              	.L76:
 696 0014 00000000 		.word	.LANCHOR2
 697              		.cfi_endproc
 698              	.LFE335:
 699              		.size	Vector110, .-Vector110
 700              		.section	.text.Vector15C,"ax",%progbits
 701              		.align	1
 702              		.global	Vector15C
 703              		.thumb
 704              		.thumb_func
 705              		.type	Vector15C, %function
 706              	Vector15C:
 707              	.LFB336:
 708              		.loc 1 411 0
 709              		.cfi_startproc
 710              		@ args = 0, pretend = 0, frame = 0
 711              		@ frame_needed = 0, uses_anonymous_args = 0
 712 0000 08B5     		push	{r3, lr}
 713              		.cfi_def_cfa_offset 8
 714              		.cfi_offset 3, -8
 715              		.cfi_offset 14, -4
 716              		.loc 1 413 0
 717 0002 FFF7FEFF 		bl	_stats_increase_irq
 718              	.LVL58:
 719              		.loc 1 415 0
 720 0006 0348     		ldr	r0, .L79
 721 0008 FFF7FEFF 		bl	serve_interrupt
 722              	.LVL59:
 723              		.loc 1 418 0
 724 000c BDE80840 		pop	{r3, lr}
 725              		.cfi_restore 14
 726              		.cfi_restore 3
 727              		.cfi_def_cfa_offset 0
 728              		.loc 1 417 0
 729 0010 FFF7FEBF 		b	_port_irq_epilogue
 730              	.LVL60:
 731              	.L80:
 732              		.align	2
 733              	.L79:
 734 0014 00000000 		.word	.LANCHOR3
 735              		.cfi_endproc
 736              	.LFE336:
 737              		.size	Vector15C, .-Vector15C
 738              		.section	.text.Vector188,"ax",%progbits
 739              		.align	1
 740              		.global	Vector188
 741              		.thumb
ARM GAS  /tmp/cc6Zu3YJ.s 			page 14


 742              		.thumb_func
 743              		.type	Vector188, %function
 744              	Vector188:
 745              	.LFB337:
 746              		.loc 1 430 0
 747              		.cfi_startproc
 748              		@ args = 0, pretend = 0, frame = 0
 749              		@ frame_needed = 0, uses_anonymous_args = 0
 750 0000 08B5     		push	{r3, lr}
 751              		.cfi_def_cfa_offset 8
 752              		.cfi_offset 3, -8
 753              		.cfi_offset 14, -4
 754              		.loc 1 432 0
 755 0002 FFF7FEFF 		bl	_stats_increase_irq
 756              	.LVL61:
 757              		.loc 1 434 0
 758 0006 0348     		ldr	r0, .L82
 759 0008 FFF7FEFF 		bl	serve_interrupt
 760              	.LVL62:
 761              		.loc 1 437 0
 762 000c BDE80840 		pop	{r3, lr}
 763              		.cfi_restore 14
 764              		.cfi_restore 3
 765              		.cfi_def_cfa_offset 0
 766              		.loc 1 436 0
 767 0010 FFF7FEBF 		b	_port_irq_epilogue
 768              	.LVL63:
 769              	.L83:
 770              		.align	2
 771              	.L82:
 772 0014 00000000 		.word	.LANCHOR4
 773              		.cfi_endproc
 774              	.LFE337:
 775              		.size	Vector188, .-Vector188
 776              		.section	.text.Vector18C,"ax",%progbits
 777              		.align	1
 778              		.global	Vector18C
 779              		.thumb
 780              		.thumb_func
 781              		.type	Vector18C, %function
 782              	Vector18C:
 783              	.LFB338:
 784              		.loc 1 449 0
 785              		.cfi_startproc
 786              		@ args = 0, pretend = 0, frame = 0
 787              		@ frame_needed = 0, uses_anonymous_args = 0
 788 0000 08B5     		push	{r3, lr}
 789              		.cfi_def_cfa_offset 8
 790              		.cfi_offset 3, -8
 791              		.cfi_offset 14, -4
 792              		.loc 1 451 0
 793 0002 FFF7FEFF 		bl	_stats_increase_irq
 794              	.LVL64:
 795              		.loc 1 453 0
 796 0006 0348     		ldr	r0, .L85
 797 0008 FFF7FEFF 		bl	serve_interrupt
 798              	.LVL65:
ARM GAS  /tmp/cc6Zu3YJ.s 			page 15


 799              		.loc 1 456 0
 800 000c BDE80840 		pop	{r3, lr}
 801              		.cfi_restore 14
 802              		.cfi_restore 3
 803              		.cfi_def_cfa_offset 0
 804              		.loc 1 455 0
 805 0010 FFF7FEBF 		b	_port_irq_epilogue
 806              	.LVL66:
 807              	.L86:
 808              		.align	2
 809              	.L85:
 810 0014 00000000 		.word	.LANCHOR5
 811              		.cfi_endproc
 812              	.LFE338:
 813              		.size	Vector18C, .-Vector18C
 814              		.section	.text.sd_lld_init,"ax",%progbits
 815              		.align	1
 816              		.global	sd_lld_init
 817              		.thumb
 818              		.thumb_func
 819              		.type	sd_lld_init, %function
 820              	sd_lld_init:
 821              	.LFB339:
 822              		.loc 1 468 0
 823              		.cfi_startproc
 824              		@ args = 0, pretend = 0, frame = 0
 825              		@ frame_needed = 0, uses_anonymous_args = 0
 826 0000 10B5     		push	{r4, lr}
 827              		.cfi_def_cfa_offset 8
 828              		.cfi_offset 4, -8
 829              		.cfi_offset 14, -4
 830              		.loc 1 476 0
 831 0002 1B4C     		ldr	r4, .L88
 832 0004 1B4A     		ldr	r2, .L88+4
 833 0006 2046     		mov	r0, r4
 834 0008 0021     		movs	r1, #0
 835 000a FFF7FEFF 		bl	sdObjectInit
 836              	.LVL67:
 837              		.loc 1 477 0
 838 000e 1A4B     		ldr	r3, .L88+8
 839 0010 C4F85434 		str	r3, [r4, #1108]
 840              		.loc 1 481 0
 841 0014 194C     		ldr	r4, .L88+12
 842 0016 1A4A     		ldr	r2, .L88+16
 843 0018 2046     		mov	r0, r4
 844 001a 0021     		movs	r1, #0
 845 001c FFF7FEFF 		bl	sdObjectInit
 846              	.LVL68:
 847              		.loc 1 482 0
 848 0020 184B     		ldr	r3, .L88+20
 849 0022 C4F85434 		str	r3, [r4, #1108]
 850              		.loc 1 486 0
 851 0026 184C     		ldr	r4, .L88+24
 852 0028 184A     		ldr	r2, .L88+28
 853 002a 2046     		mov	r0, r4
 854 002c 0021     		movs	r1, #0
 855 002e FFF7FEFF 		bl	sdObjectInit
ARM GAS  /tmp/cc6Zu3YJ.s 			page 16


 856              	.LVL69:
 857              		.loc 1 487 0
 858 0032 174B     		ldr	r3, .L88+32
 859 0034 C4F85434 		str	r3, [r4, #1108]
 860              		.loc 1 496 0
 861 0038 164C     		ldr	r4, .L88+36
 862 003a 174A     		ldr	r2, .L88+40
 863 003c 2046     		mov	r0, r4
 864 003e 0021     		movs	r1, #0
 865 0040 FFF7FEFF 		bl	sdObjectInit
 866              	.LVL70:
 867              		.loc 1 497 0
 868 0044 154B     		ldr	r3, .L88+44
 869 0046 C4F85434 		str	r3, [r4, #1108]
 870              		.loc 1 501 0
 871 004a 154C     		ldr	r4, .L88+48
 872 004c 154A     		ldr	r2, .L88+52
 873 004e 2046     		mov	r0, r4
 874 0050 0021     		movs	r1, #0
 875 0052 FFF7FEFF 		bl	sdObjectInit
 876              	.LVL71:
 877              		.loc 1 502 0
 878 0056 144B     		ldr	r3, .L88+56
 879 0058 C4F85434 		str	r3, [r4, #1108]
 880              		.loc 1 506 0
 881 005c 134C     		ldr	r4, .L88+60
 882 005e 144A     		ldr	r2, .L88+64
 883 0060 2046     		mov	r0, r4
 884 0062 0021     		movs	r1, #0
 885 0064 FFF7FEFF 		bl	sdObjectInit
 886              	.LVL72:
 887              		.loc 1 507 0
 888 0068 124B     		ldr	r3, .L88+68
 889 006a C4F85434 		str	r3, [r4, #1108]
 890 006e 10BD     		pop	{r4, pc}
 891              	.L89:
 892              		.align	2
 893              	.L88:
 894 0070 00000000 		.word	.LANCHOR0
 895 0074 00000000 		.word	notify2
 896 0078 00440040 		.word	1073759232
 897 007c 00000000 		.word	.LANCHOR1
 898 0080 00000000 		.word	notify3
 899 0084 00480040 		.word	1073760256
 900 0088 00000000 		.word	.LANCHOR2
 901 008c 00000000 		.word	notify4
 902 0090 004C0040 		.word	1073761280
 903 0094 00000000 		.word	.LANCHOR3
 904 0098 00000000 		.word	notify6
 905 009c 00140140 		.word	1073812480
 906 00a0 00000000 		.word	.LANCHOR4
 907 00a4 00000000 		.word	notify7
 908 00a8 00780040 		.word	1073772544
 909 00ac 00000000 		.word	.LANCHOR5
 910 00b0 00000000 		.word	notify8
 911 00b4 007C0040 		.word	1073773568
 912              		.cfi_endproc
ARM GAS  /tmp/cc6Zu3YJ.s 			page 17


 913              	.LFE339:
 914              		.size	sd_lld_init, .-sd_lld_init
 915              		.section	.text.sd_lld_start,"ax",%progbits
 916              		.align	1
 917              		.global	sd_lld_start
 918              		.thumb
 919              		.thumb_func
 920              		.type	sd_lld_start, %function
 921              	sd_lld_start:
 922              	.LFB340:
 923              		.loc 1 521 0
 924              		.cfi_startproc
 925              		@ args = 0, pretend = 0, frame = 0
 926              		@ frame_needed = 0, uses_anonymous_args = 0
 927              	.LVL73:
 928 0000 38B5     		push	{r3, r4, r5, lr}
 929              		.cfi_def_cfa_offset 16
 930              		.cfi_offset 3, -16
 931              		.cfi_offset 4, -12
 932              		.cfi_offset 5, -8
 933              		.cfi_offset 14, -4
 934              		.loc 1 524 0
 935 0002 504D     		ldr	r5, .L110
 936              		.loc 1 528 0
 937 0004 037A     		ldrb	r3, [r0, #8]	@ zero_extendqisi2
 938              		.loc 1 524 0
 939 0006 0029     		cmp	r1, #0
 940 0008 18BF     		it	ne
 941 000a 0D46     		movne	r5, r1
 942              	.LVL74:
 943              		.loc 1 528 0
 944 000c 012B     		cmp	r3, #1
 945              		.loc 1 521 0
 946 000e 0446     		mov	r4, r0
 947              		.loc 1 526 0
 948 0010 C0F85C54 		str	r5, [r0, #1116]
 949              		.loc 1 528 0
 950 0014 5ED1     		bne	.L93
 951              		.loc 1 536 0
 952 0016 4C4B     		ldr	r3, .L110+4
 953 0018 9842     		cmp	r0, r3
 954 001a 0BD1     		bne	.L94
 955              		.loc 1 537 0
 956 001c 4B4B     		ldr	r3, .L110+8
 957 001e 1A6C     		ldr	r2, [r3, #64]
 958 0020 42F40032 		orr	r2, r2, #131072
 959 0024 1A64     		str	r2, [r3, #64]
 960 0026 1A6E     		ldr	r2, [r3, #96]
 961 0028 42F40032 		orr	r2, r2, #131072
 962 002c 1A66     		str	r2, [r3, #96]
 963 002e 1B6E     		ldr	r3, [r3, #96]
 964              		.loc 1 538 0
 965 0030 2620     		movs	r0, #38
 966              	.LVL75:
 967 0032 0DE0     		b	.L106
 968              	.LVL76:
 969              	.L94:
ARM GAS  /tmp/cc6Zu3YJ.s 			page 18


 970              		.loc 1 542 0
 971 0034 464B     		ldr	r3, .L110+12
 972 0036 9842     		cmp	r0, r3
 973 0038 0ED1     		bne	.L96
 974              		.loc 1 543 0
 975 003a 444B     		ldr	r3, .L110+8
 976 003c 1A6C     		ldr	r2, [r3, #64]
 977 003e 42F48022 		orr	r2, r2, #262144
 978 0042 1A64     		str	r2, [r3, #64]
 979 0044 1A6E     		ldr	r2, [r3, #96]
 980 0046 42F48022 		orr	r2, r2, #262144
 981 004a 1A66     		str	r2, [r3, #96]
 982 004c 1B6E     		ldr	r3, [r3, #96]
 983              		.loc 1 544 0
 984 004e 2720     		movs	r0, #39
 985              	.LVL77:
 986              	.L106:
 987 0050 0B21     		movs	r1, #11
 988 0052 FFF7FEFF 		bl	nvicEnableVector
 989              	.LVL78:
 990 0056 2CE0     		b	.L95
 991              	.LVL79:
 992              	.L96:
 993              		.loc 1 548 0
 994 0058 3E4B     		ldr	r3, .L110+16
 995 005a 9842     		cmp	r0, r3
 996 005c 0BD1     		bne	.L97
 997              		.loc 1 549 0
 998 005e 3B4B     		ldr	r3, .L110+8
 999 0060 1A6C     		ldr	r2, [r3, #64]
 1000 0062 42F40022 		orr	r2, r2, #524288
 1001 0066 1A64     		str	r2, [r3, #64]
 1002 0068 1A6E     		ldr	r2, [r3, #96]
 1003 006a 42F40022 		orr	r2, r2, #524288
 1004 006e 1A66     		str	r2, [r3, #96]
 1005 0070 1B6E     		ldr	r3, [r3, #96]
 1006              		.loc 1 550 0
 1007 0072 3420     		movs	r0, #52
 1008              	.LVL80:
 1009 0074 2BE0     		b	.L107
 1010              	.LVL81:
 1011              	.L97:
 1012              		.loc 1 560 0
 1013 0076 384B     		ldr	r3, .L110+20
 1014 0078 9842     		cmp	r0, r3
 1015 007a 0BD1     		bne	.L99
 1016              		.loc 1 561 0
 1017 007c 334B     		ldr	r3, .L110+8
 1018 007e 5A6C     		ldr	r2, [r3, #68]
 1019 0080 42F02002 		orr	r2, r2, #32
 1020 0084 5A64     		str	r2, [r3, #68]
 1021 0086 5A6E     		ldr	r2, [r3, #100]
 1022 0088 42F02002 		orr	r2, r2, #32
 1023 008c 5A66     		str	r2, [r3, #100]
 1024 008e 5B6E     		ldr	r3, [r3, #100]
 1025              		.loc 1 562 0
 1026 0090 4720     		movs	r0, #71
ARM GAS  /tmp/cc6Zu3YJ.s 			page 19


 1027              	.LVL82:
 1028 0092 1CE0     		b	.L107
 1029              	.LVL83:
 1030              	.L99:
 1031              		.loc 1 566 0
 1032 0094 314B     		ldr	r3, .L110+24
 1033 0096 9842     		cmp	r0, r3
 1034 0098 0BD1     		bne	.L95
 1035              		.loc 1 567 0
 1036 009a 2C4B     		ldr	r3, .L110+8
 1037 009c 1A6C     		ldr	r2, [r3, #64]
 1038 009e 42F08042 		orr	r2, r2, #1073741824
 1039 00a2 1A64     		str	r2, [r3, #64]
 1040 00a4 1A6E     		ldr	r2, [r3, #96]
 1041 00a6 42F08042 		orr	r2, r2, #1073741824
 1042 00aa 1A66     		str	r2, [r3, #96]
 1043 00ac 1B6E     		ldr	r3, [r3, #96]
 1044              		.loc 1 568 0
 1045 00ae 5220     		movs	r0, #82
 1046              	.LVL84:
 1047 00b0 0DE0     		b	.L107
 1048              	.L95:
 1049              		.loc 1 572 0
 1050 00b2 2B4B     		ldr	r3, .L110+28
 1051 00b4 9C42     		cmp	r4, r3
 1052 00b6 0DD1     		bne	.L93
 1053              		.loc 1 573 0
 1054 00b8 244B     		ldr	r3, .L110+8
 1055 00ba 1A6C     		ldr	r2, [r3, #64]
 1056 00bc 42F00042 		orr	r2, r2, #-2147483648
 1057 00c0 1A64     		str	r2, [r3, #64]
 1058 00c2 1A6E     		ldr	r2, [r3, #96]
 1059 00c4 42F00042 		orr	r2, r2, #-2147483648
 1060 00c8 1A66     		str	r2, [r3, #96]
 1061 00ca 1B6E     		ldr	r3, [r3, #96]
 1062              		.loc 1 574 0
 1063 00cc 5320     		movs	r0, #83
 1064              	.L107:
 1065 00ce 0B21     		movs	r1, #11
 1066 00d0 FFF7FEFF 		bl	nvicEnableVector
 1067              	.LVL85:
 1068              	.L93:
 1069              	.LBB198:
 1070              	.LBB199:
 1071              		.loc 1 109 0
 1072 00d4 234B     		ldr	r3, .L110+32
 1073              		.loc 1 105 0
 1074 00d6 D4F85424 		ldr	r2, [r4, #1108]
 1075              	.LVL86:
 1076              		.loc 1 109 0
 1077 00da 9A42     		cmp	r2, r3
 1078 00dc 2B68     		ldr	r3, [r5]
 1079              		.loc 1 113 0
 1080 00de 4FEA5300 		lsr	r0, r3, #1
 1081              		.loc 1 109 0
 1082 00e2 02D0     		beq	.L100
 1083 00e4 2049     		ldr	r1, .L110+36
ARM GAS  /tmp/cc6Zu3YJ.s 			page 20


 1084 00e6 8A42     		cmp	r2, r1
 1085 00e8 01D1     		bne	.L101
 1086              	.L100:
 1087              		.loc 1 113 0
 1088 00ea 2049     		ldr	r1, .L110+40
 1089 00ec 00E0     		b	.L108
 1090              	.L101:
 1091              		.loc 1 115 0
 1092 00ee 2049     		ldr	r1, .L110+44
 1093              	.L108:
 1094 00f0 0144     		add	r1, r1, r0
 1095 00f2 B1FBF3F3 		udiv	r3, r1, r3
 1096              	.LVL87:
 1097              		.loc 1 121 0
 1098 00f6 A988     		ldrh	r1, [r5, #4]
 1099 00f8 0804     		lsls	r0, r1, #16
 1100              		.loc 1 122 0
 1101 00fa 42BF     		ittt	mi
 1102 00fc 23F00700 		bicmi	r0, r3, #7
 1103 0100 03F00703 		andmi	r3, r3, #7
 1104              	.LVL88:
 1105 0104 43EA4003 		orrmi	r3, r3, r0, lsl #1
 1106              	.LVL89:
 1107              		.loc 1 124 0
 1108 0108 9360     		str	r3, [r2, #8]
 1109              		.loc 1 127 0
 1110 010a EB88     		ldrh	r3, [r5, #6]
 1111              	.LVL90:
 1112 010c 43F04003 		orr	r3, r3, #64
 1113 0110 9BB2     		uxth	r3, r3
 1114 0112 1361     		str	r3, [r2, #16]
 1115              	.LVL91:
 1116              		.loc 1 128 0
 1117 0114 2B89     		ldrh	r3, [r5, #8]
 1118 0116 43F00103 		orr	r3, r3, #1
 1119 011a 9BB2     		uxth	r3, r3
 1120 011c 5361     		str	r3, [r2, #20]
 1121              		.loc 1 129 0
 1122 011e 41F40453 		orr	r3, r1, #8448
 1123 0122 43F02C03 		orr	r3, r3, #44
 1124 0126 D360     		str	r3, [r2, #12]
 1125              		.loc 1 138 0
 1126 0128 01F4A051 		and	r1, r1, #5120
 1127              		.loc 1 132 0
 1128 012c 0023     		movs	r3, #0
 1129 012e 1360     		str	r3, [r2]
 1130              		.loc 1 138 0
 1131 0130 B1F5806F 		cmp	r1, #1024
 1132              		.loc 1 133 0
 1133 0134 1368     		ldr	r3, [r2]
 1134              		.loc 1 134 0
 1135 0136 5368     		ldr	r3, [r2, #4]
 1136              		.loc 1 139 0
 1137 0138 0CBF     		ite	eq
 1138 013a 7F23     		moveq	r3, #127
 1139              		.loc 1 142 0
 1140 013c FF23     		movne	r3, #255
ARM GAS  /tmp/cc6Zu3YJ.s 			page 21


 1141 013e 84F85834 		strb	r3, [r4, #1112]
 1142 0142 38BD     		pop	{r3, r4, r5, pc}
 1143              	.LVL92:
 1144              	.L111:
 1145              		.align	2
 1146              	.L110:
 1147 0144 00000000 		.word	.LANCHOR6
 1148 0148 00000000 		.word	.LANCHOR0
 1149 014c 00380240 		.word	1073887232
 1150 0150 00000000 		.word	.LANCHOR1
 1151 0154 00000000 		.word	.LANCHOR2
 1152 0158 00000000 		.word	.LANCHOR3
 1153 015c 00000000 		.word	.LANCHOR4
 1154 0160 00000000 		.word	.LANCHOR5
 1155 0164 00100140 		.word	1073811456
 1156 0168 00140140 		.word	1073812480
 1157 016c 00BD0105 		.word	84000000
 1158 0170 80DE8002 		.word	42000000
 1159              	.LBE199:
 1160              	.LBE198:
 1161              		.cfi_endproc
 1162              	.LFE340:
 1163              		.size	sd_lld_start, .-sd_lld_start
 1164              		.section	.text.sd_lld_stop,"ax",%progbits
 1165              		.align	1
 1166              		.global	sd_lld_stop
 1167              		.thumb
 1168              		.thumb_func
 1169              		.type	sd_lld_stop, %function
 1170              	sd_lld_stop:
 1171              	.LFB341:
 1172              		.loc 1 590 0
 1173              		.cfi_startproc
 1174              		@ args = 0, pretend = 0, frame = 0
 1175              		@ frame_needed = 0, uses_anonymous_args = 0
 1176              		@ link register save eliminated.
 1177              	.LVL93:
 1178              		.loc 1 592 0
 1179 0000 037A     		ldrb	r3, [r0, #8]	@ zero_extendqisi2
 1180 0002 022B     		cmp	r3, #2
 1181 0004 60D1     		bne	.L112
 1182              		.loc 1 593 0
 1183 0006 D0F85434 		ldr	r3, [r0, #1108]
 1184              	.LVL94:
 1185              	.LBB200:
 1186              	.LBB201:
 1187              		.loc 1 154 0
 1188 000a 0022     		movs	r2, #0
 1189 000c DA60     		str	r2, [r3, #12]
 1190              		.loc 1 155 0
 1191 000e 1A61     		str	r2, [r3, #16]
 1192              		.loc 1 156 0
 1193 0010 5A61     		str	r2, [r3, #20]
 1194              	.LBE201:
 1195              	.LBE200:
 1196              		.loc 1 602 0
 1197 0012 2E4B     		ldr	r3, .L122
ARM GAS  /tmp/cc6Zu3YJ.s 			page 22


 1198              	.LVL95:
 1199 0014 9842     		cmp	r0, r3
 1200 0016 0BD1     		bne	.L115
 1201              		.loc 1 603 0
 1202 0018 2D4B     		ldr	r3, .L122+4
 1203 001a 1A6C     		ldr	r2, [r3, #64]
 1204 001c 22F40032 		bic	r2, r2, #131072
 1205 0020 1A64     		str	r2, [r3, #64]
 1206 0022 1A6E     		ldr	r2, [r3, #96]
 1207 0024 22F40032 		bic	r2, r2, #131072
 1208 0028 1A66     		str	r2, [r3, #96]
 1209 002a 1B6E     		ldr	r3, [r3, #96]
 1210              		.loc 1 604 0
 1211 002c 2620     		movs	r0, #38
 1212              	.LVL96:
 1213 002e 49E0     		b	.L121
 1214              	.LVL97:
 1215              	.L115:
 1216              		.loc 1 609 0
 1217 0030 284B     		ldr	r3, .L122+8
 1218 0032 9842     		cmp	r0, r3
 1219 0034 0BD1     		bne	.L116
 1220              		.loc 1 610 0
 1221 0036 264B     		ldr	r3, .L122+4
 1222 0038 1A6C     		ldr	r2, [r3, #64]
 1223 003a 22F48022 		bic	r2, r2, #262144
 1224 003e 1A64     		str	r2, [r3, #64]
 1225 0040 1A6E     		ldr	r2, [r3, #96]
 1226 0042 22F48022 		bic	r2, r2, #262144
 1227 0046 1A66     		str	r2, [r3, #96]
 1228 0048 1B6E     		ldr	r3, [r3, #96]
 1229              		.loc 1 611 0
 1230 004a 2720     		movs	r0, #39
 1231              	.LVL98:
 1232 004c 3AE0     		b	.L121
 1233              	.LVL99:
 1234              	.L116:
 1235              		.loc 1 616 0
 1236 004e 224B     		ldr	r3, .L122+12
 1237 0050 9842     		cmp	r0, r3
 1238 0052 0BD1     		bne	.L117
 1239              		.loc 1 617 0
 1240 0054 1E4B     		ldr	r3, .L122+4
 1241 0056 1A6C     		ldr	r2, [r3, #64]
 1242 0058 22F40022 		bic	r2, r2, #524288
 1243 005c 1A64     		str	r2, [r3, #64]
 1244 005e 1A6E     		ldr	r2, [r3, #96]
 1245 0060 22F40022 		bic	r2, r2, #524288
 1246 0064 1A66     		str	r2, [r3, #96]
 1247 0066 1B6E     		ldr	r3, [r3, #96]
 1248              		.loc 1 618 0
 1249 0068 3420     		movs	r0, #52
 1250              	.LVL100:
 1251 006a 2BE0     		b	.L121
 1252              	.LVL101:
 1253              	.L117:
 1254              		.loc 1 630 0
ARM GAS  /tmp/cc6Zu3YJ.s 			page 23


 1255 006c 1B4B     		ldr	r3, .L122+16
 1256 006e 9842     		cmp	r0, r3
 1257 0070 0BD1     		bne	.L118
 1258              		.loc 1 631 0
 1259 0072 174B     		ldr	r3, .L122+4
 1260 0074 5A6C     		ldr	r2, [r3, #68]
 1261 0076 22F02002 		bic	r2, r2, #32
 1262 007a 5A64     		str	r2, [r3, #68]
 1263 007c 5A6E     		ldr	r2, [r3, #100]
 1264 007e 22F02002 		bic	r2, r2, #32
 1265 0082 5A66     		str	r2, [r3, #100]
 1266 0084 5B6E     		ldr	r3, [r3, #100]
 1267              		.loc 1 632 0
 1268 0086 4720     		movs	r0, #71
 1269              	.LVL102:
 1270 0088 1CE0     		b	.L121
 1271              	.LVL103:
 1272              	.L118:
 1273              		.loc 1 637 0
 1274 008a 154B     		ldr	r3, .L122+20
 1275 008c 9842     		cmp	r0, r3
 1276 008e 0BD1     		bne	.L119
 1277              		.loc 1 638 0
 1278 0090 0F4B     		ldr	r3, .L122+4
 1279 0092 1A6C     		ldr	r2, [r3, #64]
 1280 0094 22F08042 		bic	r2, r2, #1073741824
 1281 0098 1A64     		str	r2, [r3, #64]
 1282 009a 1A6E     		ldr	r2, [r3, #96]
 1283 009c 22F08042 		bic	r2, r2, #1073741824
 1284 00a0 1A66     		str	r2, [r3, #96]
 1285 00a2 1B6E     		ldr	r3, [r3, #96]
 1286              		.loc 1 639 0
 1287 00a4 5220     		movs	r0, #82
 1288              	.LVL104:
 1289 00a6 0DE0     		b	.L121
 1290              	.LVL105:
 1291              	.L119:
 1292              		.loc 1 644 0
 1293 00a8 0E4B     		ldr	r3, .L122+24
 1294 00aa 9842     		cmp	r0, r3
 1295 00ac 0CD1     		bne	.L112
 1296              		.loc 1 645 0
 1297 00ae 084B     		ldr	r3, .L122+4
 1298 00b0 1A6C     		ldr	r2, [r3, #64]
 1299 00b2 22F00042 		bic	r2, r2, #-2147483648
 1300 00b6 1A64     		str	r2, [r3, #64]
 1301 00b8 1A6E     		ldr	r2, [r3, #96]
 1302 00ba 22F00042 		bic	r2, r2, #-2147483648
 1303 00be 1A66     		str	r2, [r3, #96]
 1304 00c0 1B6E     		ldr	r3, [r3, #96]
 1305              		.loc 1 646 0
 1306 00c2 5320     		movs	r0, #83
 1307              	.LVL106:
 1308              	.L121:
 1309 00c4 FFF7FEBF 		b	nvicDisableVector
 1310              	.LVL107:
 1311              	.L112:
ARM GAS  /tmp/cc6Zu3YJ.s 			page 24


 1312 00c8 7047     		bx	lr
 1313              	.L123:
 1314 00ca 00BF     		.align	2
 1315              	.L122:
 1316 00cc 00000000 		.word	.LANCHOR0
 1317 00d0 00380240 		.word	1073887232
 1318 00d4 00000000 		.word	.LANCHOR1
 1319 00d8 00000000 		.word	.LANCHOR2
 1320 00dc 00000000 		.word	.LANCHOR3
 1321 00e0 00000000 		.word	.LANCHOR4
 1322 00e4 00000000 		.word	.LANCHOR5
 1323              		.cfi_endproc
 1324              	.LFE341:
 1325              		.size	sd_lld_stop, .-sd_lld_stop
 1326              		.global	SD8
 1327              		.global	SD7
 1328              		.global	SD6
 1329              		.global	SD4
 1330              		.global	SD3
 1331              		.global	SD2
 1332              		.section	.rodata.default_config,"a",%progbits
 1333              		.align	2
 1334              		.set	.LANCHOR6,. + 0
 1335              		.type	default_config, %object
 1336              		.size	default_config, 20
 1337              	default_config:
 1338 0000 00960000 		.word	38400
 1339 0004 0000     		.short	0
 1340 0006 0000     		.short	0
 1341 0008 0000     		.short	0
 1342 000a 0000     		.space	2
 1343 000c 00000000 		.word	0
 1344 0010 00000000 		.word	0
 1345              		.section	.bss.SD2,"aw",%nobits
 1346              		.align	2
 1347              		.set	.LANCHOR0,. + 0
 1348              		.type	SD2, %object
 1349              		.size	SD2, 1120
 1350              	SD2:
 1351 0000 00000000 		.space	1120
 1351      00000000 
 1351      00000000 
 1351      00000000 
 1351      00000000 
 1352              		.section	.bss.SD3,"aw",%nobits
 1353              		.align	2
 1354              		.set	.LANCHOR1,. + 0
 1355              		.type	SD3, %object
 1356              		.size	SD3, 1120
 1357              	SD3:
 1358 0000 00000000 		.space	1120
 1358      00000000 
 1358      00000000 
 1358      00000000 
 1358      00000000 
 1359              		.section	.bss.SD4,"aw",%nobits
 1360              		.align	2
ARM GAS  /tmp/cc6Zu3YJ.s 			page 25


 1361              		.set	.LANCHOR2,. + 0
 1362              		.type	SD4, %object
 1363              		.size	SD4, 1120
 1364              	SD4:
 1365 0000 00000000 		.space	1120
 1365      00000000 
 1365      00000000 
 1365      00000000 
 1365      00000000 
 1366              		.section	.bss.SD6,"aw",%nobits
 1367              		.align	2
 1368              		.set	.LANCHOR3,. + 0
 1369              		.type	SD6, %object
 1370              		.size	SD6, 1120
 1371              	SD6:
 1372 0000 00000000 		.space	1120
 1372      00000000 
 1372      00000000 
 1372      00000000 
 1372      00000000 
 1373              		.section	.bss.SD7,"aw",%nobits
 1374              		.align	2
 1375              		.set	.LANCHOR4,. + 0
 1376              		.type	SD7, %object
 1377              		.size	SD7, 1120
 1378              	SD7:
 1379 0000 00000000 		.space	1120
 1379      00000000 
 1379      00000000 
 1379      00000000 
 1379      00000000 
 1380              		.section	.bss.SD8,"aw",%nobits
 1381              		.align	2
 1382              		.set	.LANCHOR5,. + 0
 1383              		.type	SD8, %object
 1384              		.size	SD8, 1120
 1385              	SD8:
 1386 0000 00000000 		.space	1120
 1386      00000000 
 1386      00000000 
 1386      00000000 
 1386      00000000 
 1387              		.text
 1388              	.Letext0:
 1389              		.file 5 "/opt/gcc-arm-none-eabi-4_9-2015q3/lib/gcc/arm-none-eabi/4.9.3/include/stddef.h"
 1390              		.file 6 "/opt/gcc-arm-none-eabi-4_9-2015q3/arm-none-eabi/include/machine/_default_types.h"
 1391              		.file 7 "/opt/gcc-arm-none-eabi-4_9-2015q3/arm-none-eabi/include/sys/_stdint.h"
 1392              		.file 8 "../../modules/ChibiOS/os/common/ports/ARMCMx/compilers/GCC/chtypes.h"
 1393              		.file 9 "../../modules/ChibiOS/os/rt/include/chsystypes.h"
 1394              		.file 10 "../../modules/ChibiOS/os/rt/include/chschd.h"
 1395              		.file 11 "../../modules/ChibiOS/os/rt/include/chtime.h"
 1396              		.file 12 "../../modules/ChibiOS/os/common/ext/ST/STM32F4xx/stm32f427xx.h"
 1397              		.file 13 "../../modules/ChibiOS/os/common/ports/ARMCMx/chcore.h"
 1398              		.file 14 "../../modules/ChibiOS/os/common/ports/ARMCMx/chcore_v7m.h"
 1399              		.file 15 "../../modules/ChibiOS/os/rt/include/chtm.h"
 1400              		.file 16 "../../modules/ChibiOS/os/rt/include/chstats.h"
 1401              		.file 17 "../../modules/ChibiOS/os/rt/include/chsem.h"
ARM GAS  /tmp/cc6Zu3YJ.s 			page 26


 1402              		.file 18 "../../modules/ChibiOS/os/rt/include/chmtx.h"
 1403              		.file 19 "../../modules/ChibiOS/os/rt/include/chevents.h"
 1404              		.file 20 "../../modules/ChibiOS/os/hal/include/hal_queues.h"
 1405              		.file 21 "../../modules/ChibiOS/os/hal/include/hal_serial.h"
 1406              		.file 22 "../../modules/ChibiOS/os/hal/ports/STM32/LLD/USARTv1/hal_serial_lld.h"
 1407              		.file 23 "../../modules/ChibiOS/os/hal/ports/common/ARMCMx/nvic.h"
 1408              		.file 24 "../../modules/ChibiOS/os/common/ext/ARM/CMSIS/Core/Include/core_cm4.h"