ARM GAS  /tmp/ccstZhCX.s 			page 1


   1              		.syntax unified
   2              		.cpu cortex-m4
   3              		.eabi_attribute 27, 1
   4              		.eabi_attribute 28, 1
   5              		.fpu fpv4-sp-d16
   6              		.eabi_attribute 20, 1
   7              		.eabi_attribute 21, 1
   8              		.eabi_attribute 23, 3
   9              		.eabi_attribute 24, 1
  10              		.eabi_attribute 25, 1
  11              		.eabi_attribute 26, 1
  12              		.eabi_attribute 30, 4
  13              		.eabi_attribute 34, 1
  14              		.eabi_attribute 18, 4
  15              		.thumb
  16              		.file	"hal_lld.c"
  17              		.text
  18              	.Ltext0:
  19              		.cfi_sections	.debug_frame
  20              		.section	.text.hal_lld_init,"ax",%progbits
  21              		.align	1
  22              		.global	hal_lld_init
  23              		.thumb
  24              		.thumb_func
  25              		.type	hal_lld_init, %function
  26              	hal_lld_init:
  27              	.LFB324:
  28              		.file 1 "../../modules/ChibiOS/os/hal/ports/STM32/STM32F4xx/hal_lld.c"
  29              		.loc 1 114 0
  30              		.cfi_startproc
  31              		@ args = 0, pretend = 0, frame = 0
  32              		@ frame_needed = 0, uses_anonymous_args = 0
  33 0000 08B5     		push	{r3, lr}
  34              		.cfi_def_cfa_offset 8
  35              		.cfi_offset 3, -8
  36              		.cfi_offset 14, -4
  37              		.loc 1 120 0
  38 0002 224B     		ldr	r3, .L6
  39 0004 1A69     		ldr	r2, [r3, #16]
  40 0006 6FEAC252 		mvn	r2, r2, lsl #23
  41 000a 6FEAD252 		mvn	r2, r2, lsr #23
  42 000e 1A61     		str	r2, [r3, #16]
  43 0010 1A69     		ldr	r2, [r3, #16]
  44 0012 C2F30802 		ubfx	r2, r2, #0, #9
  45 0016 1A61     		str	r2, [r3, #16]
  46              		.loc 1 122 0
  47 0018 4FF0FF30 		mov	r0, #-1
  48              		.loc 1 120 0
  49 001c 1A69     		ldr	r2, [r3, #16]
  50              		.loc 1 122 0
  51 001e 5A69     		ldr	r2, [r3, #20]
  52 0020 5861     		str	r0, [r3, #20]
  53 0022 0021     		movs	r1, #0
  54 0024 5A69     		ldr	r2, [r3, #20]
  55 0026 5961     		str	r1, [r3, #20]
  56 0028 5A69     		ldr	r2, [r3, #20]
  57              		.loc 1 124 0
ARM GAS  /tmp/ccstZhCX.s 			page 2


  58 002a 1A6A     		ldr	r2, [r3, #32]
  59 002c 62F08052 		orn	r2, r2, #268435456
  60 0030 1A62     		str	r2, [r3, #32]
  61 0032 1A6A     		ldr	r2, [r3, #32]
  62 0034 02F08052 		and	r2, r2, #268435456
  63 0038 1A62     		str	r2, [r3, #32]
  64 003a 1A6A     		ldr	r2, [r3, #32]
  65              		.loc 1 125 0
  66 003c 5A6A     		ldr	r2, [r3, #36]
  67 003e 5862     		str	r0, [r3, #36]
  68 0040 5A6A     		ldr	r2, [r3, #36]
  69 0042 5962     		str	r1, [r3, #36]
  70 0044 5A6A     		ldr	r2, [r3, #36]
  71              		.loc 1 128 0
  72 0046 1A6C     		ldr	r2, [r3, #64]
  73 0048 42F08052 		orr	r2, r2, #268435456
  74 004c 1A64     		str	r2, [r3, #64]
  75 004e 1A6E     		ldr	r2, [r3, #96]
  76 0050 42F08052 		orr	r2, r2, #268435456
  77 0054 1A66     		str	r2, [r3, #96]
  78 0056 1A6E     		ldr	r2, [r3, #96]
  79              	.LBB4:
  80              	.LBB5:
  81              		.loc 1 57 0
  82 0058 0D4A     		ldr	r2, .L6+4
  83 005a 1068     		ldr	r0, [r2]
  84 005c 40F48070 		orr	r0, r0, #256
  85 0060 1060     		str	r0, [r2]
  86              		.loc 1 60 0
  87 0062 186F     		ldr	r0, [r3, #112]
  88 0064 00F44070 		and	r0, r0, #768
  89 0068 B0F5007F 		cmp	r0, #512
  90              		.loc 1 62 0
  91 006c 1EBF     		ittt	ne
  92 006e 4FF48030 		movne	r0, #65536
  93 0072 1867     		strne	r0, [r3, #112]
  94              		.loc 1 63 0
  95 0074 1967     		strne	r1, [r3, #112]
  96              		.loc 1 97 0
  97 0076 5368     		ldr	r3, [r2, #4]
  98 0078 23F40073 		bic	r3, r3, #512
  99 007c 5360     		str	r3, [r2, #4]
 100              	.LBE5:
 101              	.LBE4:
 102              		.loc 1 135 0
 103 007e FFF7FEFF 		bl	dmaInit
 104              	.LVL0:
 105              		.loc 1 145 0
 106 0082 BDE80840 		pop	{r3, lr}
 107              		.cfi_restore 14
 108              		.cfi_restore 3
 109              		.cfi_def_cfa_offset 0
 110              		.loc 1 139 0
 111 0086 FFF7FEBF 		b	irqInit
 112              	.LVL1:
 113              	.L7:
 114 008a 00BF     		.align	2
ARM GAS  /tmp/ccstZhCX.s 			page 3


 115              	.L6:
 116 008c 00380240 		.word	1073887232
 117 0090 00700040 		.word	1073770496
 118              		.cfi_endproc
 119              	.LFE324:
 120              		.size	hal_lld_init, .-hal_lld_init
 121              		.section	.text.stm32_clock_init,"ax",%progbits
 122              		.align	1
 123              		.global	stm32_clock_init
 124              		.thumb
 125              		.thumb_func
 126              		.type	stm32_clock_init, %function
 127              	stm32_clock_init:
 128              	.LFB325:
 129              		.loc 1 154 0
 130              		.cfi_startproc
 131              		@ args = 0, pretend = 0, frame = 0
 132              		@ frame_needed = 0, uses_anonymous_args = 0
 133              		@ link register save eliminated.
 134              		.loc 1 161 0
 135 0000 334B     		ldr	r3, .L33
 136 0002 4FF08052 		mov	r2, #268435456
 137 0006 1A64     		str	r2, [r3, #64]
 138              		.loc 1 166 0
 139 0008 324A     		ldr	r2, .L33+4
 140 000a 4FF44041 		mov	r1, #49152
 141 000e 1160     		str	r1, [r2]
 142              		.loc 1 173 0
 143 0010 1A68     		ldr	r2, [r3]
 144 0012 42F00102 		orr	r2, r2, #1
 145 0016 1A60     		str	r2, [r3]
 146              	.L9:
 147              		.loc 1 174 0 discriminator 1
 148 0018 1968     		ldr	r1, [r3]
 149 001a 2D4A     		ldr	r2, .L33
 150 001c 8807     		lsls	r0, r1, #30
 151 001e FBD5     		bpl	.L9
 152              		.loc 1 180 0
 153 0020 9368     		ldr	r3, [r2, #8]
 154 0022 23F00303 		bic	r3, r3, #3
 155 0026 9360     		str	r3, [r2, #8]
 156              	.L10:
 157              		.loc 1 181 0 discriminator 1
 158 0028 294B     		ldr	r3, .L33
 159 002a 9A68     		ldr	r2, [r3, #8]
 160 002c 12F00C02 		ands	r2, r2, #12
 161 0030 FAD1     		bne	.L10
 162              		.loc 1 185 0
 163 0032 1968     		ldr	r1, [r3]
 164 0034 01F0F901 		and	r1, r1, #249
 165 0038 1960     		str	r1, [r3]
 166              		.loc 1 186 0
 167 003a 9A60     		str	r2, [r3, #8]
 168              		.loc 1 195 0
 169 003c 1A68     		ldr	r2, [r3]
 170 003e 42F48032 		orr	r2, r2, #65536
 171 0042 1A60     		str	r2, [r3]
ARM GAS  /tmp/ccstZhCX.s 			page 4


 172              	.L11:
 173              		.loc 1 197 0 discriminator 1
 174 0044 1968     		ldr	r1, [r3]
 175 0046 224A     		ldr	r2, .L33
 176 0048 8903     		lsls	r1, r1, #14
 177 004a FBD5     		bpl	.L11
 178              		.loc 1 203 0
 179 004c 536F     		ldr	r3, [r2, #116]
 180 004e 43F00103 		orr	r3, r3, #1
 181 0052 5367     		str	r3, [r2, #116]
 182              	.L12:
 183              		.loc 1 204 0 discriminator 1
 184 0054 1E4B     		ldr	r3, .L33
 185 0056 5A6F     		ldr	r2, [r3, #116]
 186 0058 9007     		lsls	r0, r2, #30
 187 005a FBD5     		bpl	.L12
 188              		.loc 1 210 0
 189 005c 1E4A     		ldr	r2, .L33+8
 190 005e 5A60     		str	r2, [r3, #4]
 191              		.loc 1 212 0
 192 0060 1A68     		ldr	r2, [r3]
 193 0062 42F08072 		orr	r2, r2, #16777216
 194 0066 1A60     		str	r2, [r3]
 195              	.L13:
 196              		.loc 1 216 0 discriminator 1
 197 0068 1A4B     		ldr	r3, .L33+4
 198 006a 5B68     		ldr	r3, [r3, #4]
 199 006c 5904     		lsls	r1, r3, #17
 200 006e FBD5     		bpl	.L13
 201              	.L25:
 202              		.loc 1 232 0 discriminator 1
 203 0070 174B     		ldr	r3, .L33
 204 0072 1A68     		ldr	r2, [r3]
 205 0074 9201     		lsls	r2, r2, #6
 206 0076 FBD5     		bpl	.L25
 207              		.loc 1 260 0
 208 0078 184A     		ldr	r2, .L33+12
 209 007a 9A60     		str	r2, [r3, #8]
 210              	.LVL2:
 211              	.LBB6:
 212              		.loc 1 290 0
 213 007c 0322     		movs	r2, #3
 214 007e C3F88C20 		str	r2, [r3, #140]
 215              	.LBE6:
 216              		.loc 1 308 0
 217 0082 174B     		ldr	r3, .L33+16
 218 0084 1A68     		ldr	r2, [r3]
 219 0086 174B     		ldr	r3, .L33+20
 220 0088 9A42     		cmp	r2, r3
 221 008a 174B     		ldr	r3, .L33+24
 222 008c 07D1     		bne	.L15
 223              		.loc 1 308 0 is_stmt 0 discriminator 1
 224 008e 174A     		ldr	r2, .L33+28
 225 0090 1168     		ldr	r1, [r2]
 226 0092 174A     		ldr	r2, .L33+32
 227 0094 9142     		cmp	r1, r2
 228 0096 02D1     		bne	.L15
ARM GAS  /tmp/ccstZhCX.s 			page 5


 229              		.loc 1 309 0 is_stmt 1
 230 0098 40F20512 		movw	r2, #261
 231 009c 01E0     		b	.L31
 232              	.L15:
 233              		.loc 1 311 0
 234 009e 40F20572 		movw	r2, #1797
 235              	.L31:
 236 00a2 1A60     		str	r2, [r3]
 237              		.loc 1 320 0
 238 00a4 0A4B     		ldr	r3, .L33
 239 00a6 9A68     		ldr	r2, [r3, #8]
 240 00a8 42F00202 		orr	r2, r2, #2
 241 00ac 9A60     		str	r2, [r3, #8]
 242 00ae 1A46     		mov	r2, r3
 243              	.L17:
 244              		.loc 1 321 0 discriminator 1
 245 00b0 9168     		ldr	r1, [r2, #8]
 246 00b2 074B     		ldr	r3, .L33
 247 00b4 01F00C01 		and	r1, r1, #12
 248 00b8 0829     		cmp	r1, #8
 249 00ba F9D1     		bne	.L17
 250              		.loc 1 328 0
 251 00bc 5A6C     		ldr	r2, [r3, #68]
 252 00be 42F48042 		orr	r2, r2, #16384
 253 00c2 5A64     		str	r2, [r3, #68]
 254 00c4 5A6E     		ldr	r2, [r3, #100]
 255 00c6 42F48042 		orr	r2, r2, #16384
 256 00ca 5A66     		str	r2, [r3, #100]
 257 00cc 5B6E     		ldr	r3, [r3, #100]
 258 00ce 7047     		bx	lr
 259              	.L34:
 260              		.align	2
 261              	.L33:
 262 00d0 00380240 		.word	1073887232
 263 00d4 00700040 		.word	1073770496
 264 00d8 18544007 		.word	121656344
 265 00dc 00948838 		.word	948474880
 266 00e0 002004E0 		.word	-536600576
 267 00e4 11640020 		.word	536896529
 268 00e8 003C0240 		.word	1073888256
 269 00ec 00ED00E0 		.word	-536810240
 270 00f0 41C20F41 		.word	1091551809
 271              		.cfi_endproc
 272              	.LFE325:
 273              		.size	stm32_clock_init, .-stm32_clock_init
 274              		.global	SystemCoreClock
 275              		.section	.data.SystemCoreClock,"aw",%progbits
 276              		.align	2
 277              		.type	SystemCoreClock, %object
 278              		.size	SystemCoreClock, 4
 279              	SystemCoreClock:
 280 0000 007A030A 		.word	168000000
 281              		.text
 282              	.Letext0:
 283              		.file 2 "/opt/gcc-arm-none-eabi-4_9-2015q3/lib/gcc/arm-none-eabi/4.9.3/include/stddef.h"
 284              		.file 3 "/opt/gcc-arm-none-eabi-4_9-2015q3/arm-none-eabi/include/machine/_default_types.h"
 285              		.file 4 "/opt/gcc-arm-none-eabi-4_9-2015q3/arm-none-eabi/include/sys/_stdint.h"
ARM GAS  /tmp/ccstZhCX.s 			page 6


 286              		.file 5 "../../modules/ChibiOS/os/common/ports/ARMCMx/compilers/GCC/chtypes.h"
 287              		.file 6 "../../modules/ChibiOS/os/rt/include/chsystypes.h"
 288              		.file 7 "../../modules/ChibiOS/os/rt/include/chschd.h"
 289              		.file 8 "../../modules/ChibiOS/os/rt/include/chtime.h"
 290              		.file 9 "../../modules/ChibiOS/os/common/ext/ARM/CMSIS/Core/Include/core_cm4.h"
 291              		.file 10 "../../modules/ChibiOS/os/common/ext/ST/STM32F4xx/stm32f427xx.h"
 292              		.file 11 "../../modules/ChibiOS/os/common/ports/ARMCMx/chcore.h"
 293              		.file 12 "../../modules/ChibiOS/os/common/ports/ARMCMx/chcore_v7m.h"
 294              		.file 13 "../../modules/ChibiOS/os/rt/include/chtm.h"
 295              		.file 14 "../../modules/ChibiOS/os/rt/include/chstats.h"
 296              		.file 15 "../../modules/ChibiOS/os/rt/include/chsem.h"
 297              		.file 16 "../../modules/ChibiOS/os/rt/include/chmtx.h"
 298              		.file 17 "../../modules/ChibiOS/os/hal/ports/STM32/LLD/DMAv2/stm32_dma.h"
 299              		.file 18 "../../modules/ChibiOS/os/hal/ports/STM32/STM32F4xx/stm32_isr.h"
 300              		.section	.debug_info,"",%progbits
 301              	.Ldebug_info0:
 302 0000 790C0000 		.4byte	0xc79
 303 0004 0400     		.2byte	0x4
 304 0006 00000000 		.4byte	.Ldebug_abbrev0
 305 000a 04       		.byte	0x4
 306 000b 01       		.uleb128 0x1
 307 000c D9040000 		.4byte	.LASF167
 308 0010 01       		.byte	0x1
 309 0011 80070000 		.4byte	.LASF168
 310 0015 63020000 		.4byte	.LASF169
 311 0019 00000000 		.4byte	.Ldebug_ranges0+0
 312 001d 00000000 		.4byte	0
 313 0021 00000000 		.4byte	.Ldebug_line0
 314 0025 02       		.uleb128 0x2
 315 0026 04       		.byte	0x4
 316 0027 05       		.byte	0x5
 317 0028 696E7400 		.ascii	"int\000"
 318 002c 03       		.uleb128 0x3
 319 002d 1C000000 		.4byte	.LASF2
 320 0031 02       		.byte	0x2
 321 0032 D4       		.byte	0xd4
 322 0033 37000000 		.4byte	0x37
 323 0037 04       		.uleb128 0x4
 324 0038 04       		.byte	0x4
 325 0039 07       		.byte	0x7
 326 003a 3F020000 		.4byte	.LASF0
 327 003e 04       		.uleb128 0x4
 328 003f 01       		.byte	0x1
 329 0040 06       		.byte	0x6
 330 0041 30010000 		.4byte	.LASF1
 331 0045 03       		.uleb128 0x3
 332 0046 46000000 		.4byte	.LASF3
 333 004a 03       		.byte	0x3
 334 004b 1D       		.byte	0x1d
 335 004c 50000000 		.4byte	0x50
 336 0050 04       		.uleb128 0x4
 337 0051 01       		.byte	0x1
 338 0052 08       		.byte	0x8
 339 0053 CB040000 		.4byte	.LASF4
 340 0057 04       		.uleb128 0x4
 341 0058 02       		.byte	0x2
 342 0059 05       		.byte	0x5
ARM GAS  /tmp/ccstZhCX.s 			page 7


 343 005a 02060000 		.4byte	.LASF5
 344 005e 04       		.uleb128 0x4
 345 005f 02       		.byte	0x2
 346 0060 07       		.byte	0x7
 347 0061 14070000 		.4byte	.LASF6
 348 0065 03       		.uleb128 0x3
 349 0066 75030000 		.4byte	.LASF7
 350 006a 03       		.byte	0x3
 351 006b 3F       		.byte	0x3f
 352 006c 70000000 		.4byte	0x70
 353 0070 04       		.uleb128 0x4
 354 0071 04       		.byte	0x4
 355 0072 05       		.byte	0x5
 356 0073 84010000 		.4byte	.LASF8
 357 0077 03       		.uleb128 0x3
 358 0078 D0010000 		.4byte	.LASF9
 359 007c 03       		.byte	0x3
 360 007d 41       		.byte	0x41
 361 007e 82000000 		.4byte	0x82
 362 0082 04       		.uleb128 0x4
 363 0083 04       		.byte	0x4
 364 0084 07       		.byte	0x7
 365 0085 92060000 		.4byte	.LASF10
 366 0089 04       		.uleb128 0x4
 367 008a 08       		.byte	0x8
 368 008b 05       		.byte	0x5
 369 008c 22010000 		.4byte	.LASF11
 370 0090 03       		.uleb128 0x3
 371 0091 39040000 		.4byte	.LASF12
 372 0095 03       		.byte	0x3
 373 0096 5B       		.byte	0x5b
 374 0097 9B000000 		.4byte	0x9b
 375 009b 04       		.uleb128 0x4
 376 009c 08       		.byte	0x8
 377 009d 07       		.byte	0x7
 378 009e AE000000 		.4byte	.LASF13
 379 00a2 03       		.uleb128 0x3
 380 00a3 6B070000 		.4byte	.LASF14
 381 00a7 04       		.byte	0x4
 382 00a8 14       		.byte	0x14
 383 00a9 45000000 		.4byte	0x45
 384 00ad 03       		.uleb128 0x3
 385 00ae C3040000 		.4byte	.LASF15
 386 00b2 04       		.byte	0x4
 387 00b3 1F       		.byte	0x1f
 388 00b4 65000000 		.4byte	0x65
 389 00b8 03       		.uleb128 0x3
 390 00b9 64060000 		.4byte	.LASF16
 391 00bd 04       		.byte	0x4
 392 00be 20       		.byte	0x20
 393 00bf 77000000 		.4byte	0x77
 394 00c3 03       		.uleb128 0x3
 395 00c4 30000000 		.4byte	.LASF17
 396 00c8 04       		.byte	0x4
 397 00c9 26       		.byte	0x26
 398 00ca 90000000 		.4byte	0x90
 399 00ce 03       		.uleb128 0x3
ARM GAS  /tmp/ccstZhCX.s 			page 8


 400 00cf 34070000 		.4byte	.LASF18
 401 00d3 05       		.byte	0x5
 402 00d4 27       		.byte	0x27
 403 00d5 B8000000 		.4byte	0xb8
 404 00d9 03       		.uleb128 0x3
 405 00da 02010000 		.4byte	.LASF19
 406 00de 05       		.byte	0x5
 407 00df 28       		.byte	0x28
 408 00e0 C3000000 		.4byte	0xc3
 409 00e4 03       		.uleb128 0x3
 410 00e5 3E030000 		.4byte	.LASF20
 411 00e9 05       		.byte	0x5
 412 00ea 2A       		.byte	0x2a
 413 00eb A2000000 		.4byte	0xa2
 414 00ef 03       		.uleb128 0x3
 415 00f0 A7010000 		.4byte	.LASF21
 416 00f4 05       		.byte	0x5
 417 00f5 2B       		.byte	0x2b
 418 00f6 A2000000 		.4byte	0xa2
 419 00fa 03       		.uleb128 0x3
 420 00fb 5E040000 		.4byte	.LASF22
 421 00ff 05       		.byte	0x5
 422 0100 2C       		.byte	0x2c
 423 0101 A2000000 		.4byte	0xa2
 424 0105 03       		.uleb128 0x3
 425 0106 AC040000 		.4byte	.LASF23
 426 010a 05       		.byte	0x5
 427 010b 2E       		.byte	0x2e
 428 010c B8000000 		.4byte	0xb8
 429 0110 03       		.uleb128 0x3
 430 0111 F8020000 		.4byte	.LASF24
 431 0115 05       		.byte	0x5
 432 0116 2F       		.byte	0x2f
 433 0117 AD000000 		.4byte	0xad
 434 011b 03       		.uleb128 0x3
 435 011c 69030000 		.4byte	.LASF25
 436 0120 05       		.byte	0x5
 437 0121 31       		.byte	0x31
 438 0122 B8000000 		.4byte	0xb8
 439 0126 03       		.uleb128 0x3
 440 0127 39020000 		.4byte	.LASF26
 441 012b 05       		.byte	0x5
 442 012c 33       		.byte	0x33
 443 012d AD000000 		.4byte	0xad
 444 0131 03       		.uleb128 0x3
 445 0132 09030000 		.4byte	.LASF27
 446 0136 05       		.byte	0x5
 447 0137 34       		.byte	0x34
 448 0138 B8000000 		.4byte	0xb8
 449 013c 03       		.uleb128 0x3
 450 013d C4060000 		.4byte	.LASF28
 451 0141 06       		.byte	0x6
 452 0142 34       		.byte	0x34
 453 0143 47010000 		.4byte	0x147
 454 0147 05       		.uleb128 0x5
 455 0148 DE020000 		.4byte	.LASF47
 456 014c 60       		.byte	0x60
ARM GAS  /tmp/ccstZhCX.s 			page 9


 457 014d 07       		.byte	0x7
 458 014e 8E       		.byte	0x8e
 459 014f 32020000 		.4byte	0x232
 460 0153 06       		.uleb128 0x6
 461 0154 E7030000 		.4byte	.LASF29
 462 0158 07       		.byte	0x7
 463 0159 8F       		.byte	0x8f
 464 015a 67020000 		.4byte	0x267
 465 015e 00       		.byte	0
 466 015f 06       		.uleb128 0x6
 467 0160 23040000 		.4byte	.LASF30
 468 0164 07       		.byte	0x7
 469 0165 90       		.byte	0x90
 470 0166 05010000 		.4byte	0x105
 471 016a 08       		.byte	0x8
 472 016b 07       		.uleb128 0x7
 473 016c 63747800 		.ascii	"ctx\000"
 474 0170 07       		.byte	0x7
 475 0171 91       		.byte	0x91
 476 0172 B2080000 		.4byte	0x8b2
 477 0176 0C       		.byte	0xc
 478 0177 06       		.uleb128 0x6
 479 0178 95030000 		.4byte	.LASF31
 480 017c 07       		.byte	0x7
 481 017d 93       		.byte	0x93
 482 017e 3D020000 		.4byte	0x23d
 483 0182 10       		.byte	0x10
 484 0183 06       		.uleb128 0x6
 485 0184 B0060000 		.4byte	.LASF32
 486 0188 07       		.byte	0x7
 487 0189 94       		.byte	0x94
 488 018a 3D020000 		.4byte	0x23d
 489 018e 14       		.byte	0x14
 490 018f 06       		.uleb128 0x6
 491 0190 D9020000 		.4byte	.LASF33
 492 0194 07       		.byte	0x7
 493 0195 9B       		.byte	0x9b
 494 0196 980B0000 		.4byte	0xb98
 495 019a 18       		.byte	0x18
 496 019b 06       		.uleb128 0x6
 497 019c A4060000 		.4byte	.LASF34
 498 01a0 07       		.byte	0x7
 499 01a1 A4       		.byte	0xa4
 500 01a2 AA0B0000 		.4byte	0xbaa
 501 01a6 1C       		.byte	0x1c
 502 01a7 06       		.uleb128 0x6
 503 01a8 74010000 		.4byte	.LASF35
 504 01ac 07       		.byte	0x7
 505 01ad A9       		.byte	0xa9
 506 01ae EF000000 		.4byte	0xef
 507 01b2 20       		.byte	0x20
 508 01b3 06       		.uleb128 0x6
 509 01b4 73070000 		.4byte	.LASF36
 510 01b8 07       		.byte	0x7
 511 01b9 AD       		.byte	0xad
 512 01ba E4000000 		.4byte	0xe4
 513 01be 21       		.byte	0x21
ARM GAS  /tmp/ccstZhCX.s 			page 10


 514 01bf 06       		.uleb128 0x6
 515 01c0 15010000 		.4byte	.LASF37
 516 01c4 07       		.byte	0x7
 517 01c5 B2       		.byte	0xb2
 518 01c6 FA000000 		.4byte	0xfa
 519 01ca 22       		.byte	0x22
 520 01cb 08       		.uleb128 0x8
 521 01cc 7500     		.ascii	"u\000"
 522 01ce 07       		.byte	0x7
 523 01cf 0301     		.2byte	0x103
 524 01d1 CE0A0000 		.4byte	0xace
 525 01d5 24       		.byte	0x24
 526 01d6 09       		.uleb128 0x9
 527 01d7 02020000 		.4byte	.LASF38
 528 01db 07       		.byte	0x7
 529 01dc 0801     		.2byte	0x108
 530 01de 43020000 		.4byte	0x243
 531 01e2 28       		.byte	0x28
 532 01e3 09       		.uleb128 0x9
 533 01e4 6B010000 		.4byte	.LASF39
 534 01e8 07       		.byte	0x7
 535 01e9 0E01     		.2byte	0x10e
 536 01eb 67020000 		.4byte	0x267
 537 01ef 2C       		.byte	0x2c
 538 01f0 09       		.uleb128 0x9
 539 01f1 52070000 		.4byte	.LASF40
 540 01f5 07       		.byte	0x7
 541 01f6 1401     		.2byte	0x114
 542 01f8 1B010000 		.4byte	0x11b
 543 01fc 34       		.byte	0x34
 544 01fd 09       		.uleb128 0x9
 545 01fe CD070000 		.4byte	.LASF41
 546 0202 07       		.byte	0x7
 547 0203 1B01     		.2byte	0x11b
 548 0205 920B0000 		.4byte	0xb92
 549 0209 38       		.byte	0x38
 550 020a 09       		.uleb128 0x9
 551 020b AB030000 		.4byte	.LASF42
 552 020f 07       		.byte	0x7
 553 0210 1F01     		.2byte	0x11f
 554 0212 05010000 		.4byte	0x105
 555 0216 3C       		.byte	0x3c
 556 0217 09       		.uleb128 0x9
 557 0218 C4020000 		.4byte	.LASF43
 558 021c 07       		.byte	0x7
 559 021d 2601     		.2byte	0x126
 560 021f 1A030000 		.4byte	0x31a
 561 0223 40       		.byte	0x40
 562 0224 09       		.uleb128 0x9
 563 0225 B5010000 		.4byte	.LASF44
 564 0229 07       		.byte	0x7
 565 022a 2C01     		.2byte	0x12c
 566 022c 7F0A0000 		.4byte	0xa7f
 567 0230 48       		.byte	0x48
 568 0231 00       		.byte	0
 569 0232 03       		.uleb128 0x3
 570 0233 BD030000 		.4byte	.LASF45
ARM GAS  /tmp/ccstZhCX.s 			page 11


 571 0237 06       		.byte	0x6
 572 0238 39       		.byte	0x39
 573 0239 3D020000 		.4byte	0x23d
 574 023d 0A       		.uleb128 0xa
 575 023e 04       		.byte	0x4
 576 023f 3C010000 		.4byte	0x13c
 577 0243 03       		.uleb128 0x3
 578 0244 00000000 		.4byte	.LASF46
 579 0248 06       		.byte	0x6
 580 0249 3E       		.byte	0x3e
 581 024a 4E020000 		.4byte	0x24e
 582 024e 05       		.uleb128 0x5
 583 024f 74060000 		.4byte	.LASF48
 584 0253 04       		.byte	0x4
 585 0254 07       		.byte	0x7
 586 0255 7C       		.byte	0x7c
 587 0256 67020000 		.4byte	0x267
 588 025a 06       		.uleb128 0x6
 589 025b FD000000 		.4byte	.LASF49
 590 025f 07       		.byte	0x7
 591 0260 7D       		.byte	0x7d
 592 0261 3D020000 		.4byte	0x23d
 593 0265 00       		.byte	0
 594 0266 00       		.byte	0
 595 0267 03       		.uleb128 0x3
 596 0268 42070000 		.4byte	.LASF50
 597 026c 06       		.byte	0x6
 598 026d 45       		.byte	0x45
 599 026e 72020000 		.4byte	0x272
 600 0272 05       		.uleb128 0x5
 601 0273 61000000 		.4byte	.LASF51
 602 0277 08       		.byte	0x8
 603 0278 07       		.byte	0x7
 604 0279 83       		.byte	0x83
 605 027a 97020000 		.4byte	0x297
 606 027e 06       		.uleb128 0x6
 607 027f FD000000 		.4byte	.LASF49
 608 0283 07       		.byte	0x7
 609 0284 84       		.byte	0x84
 610 0285 3D020000 		.4byte	0x23d
 611 0289 00       		.byte	0
 612 028a 06       		.uleb128 0x6
 613 028b 50000000 		.4byte	.LASF52
 614 028f 07       		.byte	0x7
 615 0290 85       		.byte	0x85
 616 0291 3D020000 		.4byte	0x23d
 617 0295 04       		.byte	0x4
 618 0296 00       		.byte	0
 619 0297 03       		.uleb128 0x3
 620 0298 0F000000 		.4byte	.LASF53
 621 029c 06       		.byte	0x6
 622 029d 4C       		.byte	0x4c
 623 029e A2020000 		.4byte	0x2a2
 624 02a2 0B       		.uleb128 0xb
 625 02a3 5B030000 		.4byte	.LASF54
 626 02a7 1C       		.byte	0x1c
 627 02a8 07       		.byte	0x7
ARM GAS  /tmp/ccstZhCX.s 			page 12


 628 02a9 5E01     		.2byte	0x15e
 629 02ab FE020000 		.4byte	0x2fe
 630 02af 09       		.uleb128 0x9
 631 02b0 E7030000 		.4byte	.LASF29
 632 02b4 07       		.byte	0x7
 633 02b5 5F01     		.2byte	0x15f
 634 02b7 67020000 		.4byte	0x267
 635 02bb 00       		.byte	0
 636 02bc 09       		.uleb128 0x9
 637 02bd 23040000 		.4byte	.LASF30
 638 02c1 07       		.byte	0x7
 639 02c2 6001     		.2byte	0x160
 640 02c4 05010000 		.4byte	0x105
 641 02c8 08       		.byte	0x8
 642 02c9 08       		.uleb128 0x8
 643 02ca 63747800 		.ascii	"ctx\000"
 644 02ce 07       		.byte	0x7
 645 02cf 6201     		.2byte	0x162
 646 02d1 B2080000 		.4byte	0x8b2
 647 02d5 0C       		.byte	0xc
 648 02d6 09       		.uleb128 0x9
 649 02d7 95030000 		.4byte	.LASF31
 650 02db 07       		.byte	0x7
 651 02dc 6501     		.2byte	0x165
 652 02de 3D020000 		.4byte	0x23d
 653 02e2 10       		.byte	0x10
 654 02e3 09       		.uleb128 0x9
 655 02e4 B0060000 		.4byte	.LASF32
 656 02e8 07       		.byte	0x7
 657 02e9 6601     		.2byte	0x166
 658 02eb 3D020000 		.4byte	0x23d
 659 02ef 14       		.byte	0x14
 660 02f0 09       		.uleb128 0x9
 661 02f1 31040000 		.4byte	.LASF55
 662 02f5 07       		.byte	0x7
 663 02f6 6901     		.2byte	0x169
 664 02f8 3D020000 		.4byte	0x23d
 665 02fc 18       		.byte	0x18
 666 02fd 00       		.byte	0
 667 02fe 03       		.uleb128 0x3
 668 02ff DC060000 		.4byte	.LASF56
 669 0303 06       		.byte	0x6
 670 0304 51       		.byte	0x51
 671 0305 09030000 		.4byte	0x309
 672 0309 0A       		.uleb128 0xa
 673 030a 04       		.byte	0x4
 674 030b 0F030000 		.4byte	0x30f
 675 030f 0C       		.uleb128 0xc
 676 0310 1A030000 		.4byte	0x31a
 677 0314 0D       		.uleb128 0xd
 678 0315 1A030000 		.4byte	0x31a
 679 0319 00       		.byte	0
 680 031a 0E       		.uleb128 0xe
 681 031b 04       		.byte	0x4
 682 031c 03       		.uleb128 0x3
 683 031d 9B030000 		.4byte	.LASF57
 684 0321 06       		.byte	0x6
ARM GAS  /tmp/ccstZhCX.s 			page 13


 685 0322 56       		.byte	0x56
 686 0323 27030000 		.4byte	0x327
 687 0327 0B       		.uleb128 0xb
 688 0328 37060000 		.4byte	.LASF58
 689 032c 14       		.byte	0x14
 690 032d 07       		.byte	0x7
 691 032e 3901     		.2byte	0x139
 692 0330 76030000 		.4byte	0x376
 693 0334 09       		.uleb128 0x9
 694 0335 FD000000 		.4byte	.LASF49
 695 0339 07       		.byte	0x7
 696 033a 3A01     		.2byte	0x13a
 697 033c B00B0000 		.4byte	0xbb0
 698 0340 00       		.byte	0
 699 0341 09       		.uleb128 0x9
 700 0342 50000000 		.4byte	.LASF52
 701 0346 07       		.byte	0x7
 702 0347 3B01     		.2byte	0x13b
 703 0349 B00B0000 		.4byte	0xbb0
 704 034d 04       		.byte	0x4
 705 034e 09       		.uleb128 0x9
 706 034f 23000000 		.4byte	.LASF59
 707 0353 07       		.byte	0x7
 708 0354 3C01     		.2byte	0x13c
 709 0356 5A040000 		.4byte	0x45a
 710 035a 08       		.byte	0x8
 711 035b 09       		.uleb128 0x9
 712 035c B0010000 		.4byte	.LASF60
 713 0360 07       		.byte	0x7
 714 0361 3D01     		.2byte	0x13d
 715 0363 FE020000 		.4byte	0x2fe
 716 0367 0C       		.byte	0xc
 717 0368 08       		.uleb128 0x8
 718 0369 70617200 		.ascii	"par\000"
 719 036d 07       		.byte	0x7
 720 036e 3F01     		.2byte	0x13f
 721 0370 1A030000 		.4byte	0x31a
 722 0374 10       		.byte	0x10
 723 0375 00       		.byte	0
 724 0376 03       		.uleb128 0x3
 725 0377 E1000000 		.4byte	.LASF61
 726 037b 06       		.byte	0x6
 727 037c 5B       		.byte	0x5b
 728 037d 81030000 		.4byte	0x381
 729 0381 0B       		.uleb128 0xb
 730 0382 D0030000 		.4byte	.LASF62
 731 0386 10       		.byte	0x10
 732 0387 07       		.byte	0x7
 733 0388 4901     		.2byte	0x149
 734 038a C3030000 		.4byte	0x3c3
 735 038e 09       		.uleb128 0x9
 736 038f FD000000 		.4byte	.LASF49
 737 0393 07       		.byte	0x7
 738 0394 4A01     		.2byte	0x14a
 739 0396 B00B0000 		.4byte	0xbb0
 740 039a 00       		.byte	0
 741 039b 09       		.uleb128 0x9
ARM GAS  /tmp/ccstZhCX.s 			page 14


 742 039c 50000000 		.4byte	.LASF52
 743 03a0 07       		.byte	0x7
 744 03a1 4C01     		.2byte	0x14c
 745 03a3 B00B0000 		.4byte	0xbb0
 746 03a7 04       		.byte	0x4
 747 03a8 09       		.uleb128 0x9
 748 03a9 23000000 		.4byte	.LASF59
 749 03ad 07       		.byte	0x7
 750 03ae 4E01     		.2byte	0x14e
 751 03b0 5A040000 		.4byte	0x45a
 752 03b4 08       		.byte	0x8
 753 03b5 09       		.uleb128 0x9
 754 03b6 0C060000 		.4byte	.LASF63
 755 03ba 07       		.byte	0x7
 756 03bb 5601     		.2byte	0x156
 757 03bd 4F040000 		.4byte	0x44f
 758 03c1 0C       		.byte	0xc
 759 03c2 00       		.byte	0
 760 03c3 03       		.uleb128 0x3
 761 03c4 72000000 		.4byte	.LASF64
 762 03c8 06       		.byte	0x6
 763 03c9 60       		.byte	0x60
 764 03ca CE030000 		.4byte	0x3ce
 765 03ce 0B       		.uleb128 0xb
 766 03cf F2010000 		.4byte	.LASF65
 767 03d3 04       		.byte	0x4
 768 03d4 07       		.byte	0x7
 769 03d5 7001     		.2byte	0x170
 770 03d7 E9030000 		.4byte	0x3e9
 771 03db 09       		.uleb128 0x9
 772 03dc EA060000 		.4byte	.LASF66
 773 03e0 07       		.byte	0x7
 774 03e1 7801     		.2byte	0x178
 775 03e3 B60B0000 		.4byte	0xbb6
 776 03e7 00       		.byte	0
 777 03e8 00       		.byte	0
 778 03e9 03       		.uleb128 0x3
 779 03ea 32030000 		.4byte	.LASF67
 780 03ee 06       		.byte	0x6
 781 03ef 65       		.byte	0x65
 782 03f0 F4030000 		.4byte	0x3f4
 783 03f4 0B       		.uleb128 0xb
 784 03f5 7A010000 		.4byte	.LASF68
 785 03f9 D0       		.byte	0xd0
 786 03fa 07       		.byte	0x7
 787 03fb 9001     		.2byte	0x190
 788 03fd 4F040000 		.4byte	0x44f
 789 0401 09       		.uleb128 0x9
 790 0402 65070000 		.4byte	.LASF69
 791 0406 07       		.byte	0x7
 792 0407 9401     		.2byte	0x194
 793 0409 97020000 		.4byte	0x297
 794 040d 00       		.byte	0
 795 040e 09       		.uleb128 0x9
 796 040f 58010000 		.4byte	.LASF70
 797 0413 07       		.byte	0x7
 798 0414 9801     		.2byte	0x198
ARM GAS  /tmp/ccstZhCX.s 			page 15


 799 0416 76030000 		.4byte	0x376
 800 041a 1C       		.byte	0x1c
 801 041b 08       		.uleb128 0x8
 802 041c 64626700 		.ascii	"dbg\000"
 803 0420 07       		.byte	0x7
 804 0421 9C01     		.2byte	0x19c
 805 0423 C3030000 		.4byte	0x3c3
 806 0427 2C       		.byte	0x2c
 807 0428 09       		.uleb128 0x9
 808 0429 CE000000 		.4byte	.LASF71
 809 042d 07       		.byte	0x7
 810 042e A001     		.2byte	0x1a0
 811 0430 3C010000 		.4byte	0x13c
 812 0434 30       		.byte	0x30
 813 0435 08       		.uleb128 0x8
 814 0436 746D00   		.ascii	"tm\000"
 815 0439 07       		.byte	0x7
 816 043a A501     		.2byte	0x1a5
 817 043c 310A0000 		.4byte	0xa31
 818 0440 90       		.byte	0x90
 819 0441 09       		.uleb128 0x9
 820 0442 39000000 		.4byte	.LASF72
 821 0446 07       		.byte	0x7
 822 0447 AB01     		.2byte	0x1ab
 823 0449 C30A0000 		.4byte	0xac3
 824 044d 98       		.byte	0x98
 825 044e 00       		.byte	0
 826 044f 03       		.uleb128 0x3
 827 0450 D2060000 		.4byte	.LASF73
 828 0454 08       		.byte	0x8
 829 0455 6D       		.byte	0x6d
 830 0456 B8000000 		.4byte	0xb8
 831 045a 03       		.uleb128 0x3
 832 045b 2B020000 		.4byte	.LASF74
 833 045f 08       		.byte	0x8
 834 0460 79       		.byte	0x79
 835 0461 B8000000 		.4byte	0xb8
 836 0465 04       		.uleb128 0x4
 837 0466 04       		.byte	0x4
 838 0467 07       		.byte	0x7
 839 0468 B4030000 		.4byte	.LASF75
 840 046c 0F       		.uleb128 0xf
 841 046d B8000000 		.4byte	0xb8
 842 0471 10       		.uleb128 0x10
 843 0472 8C       		.byte	0x8c
 844 0473 09       		.byte	0x9
 845 0474 B801     		.2byte	0x1b8
 846 0476 8C050000 		.4byte	0x58c
 847 047a 09       		.uleb128 0x9
 848 047b F7000000 		.4byte	.LASF76
 849 047f 09       		.byte	0x9
 850 0480 BA01     		.2byte	0x1ba
 851 0482 8C050000 		.4byte	0x58c
 852 0486 00       		.byte	0
 853 0487 09       		.uleb128 0x9
 854 0488 F3020000 		.4byte	.LASF77
 855 048c 09       		.byte	0x9
ARM GAS  /tmp/ccstZhCX.s 			page 16


 856 048d BB01     		.2byte	0x1bb
 857 048f 6C040000 		.4byte	0x46c
 858 0493 04       		.byte	0x4
 859 0494 09       		.uleb128 0x9
 860 0495 B9020000 		.4byte	.LASF78
 861 0499 09       		.byte	0x9
 862 049a BC01     		.2byte	0x1bc
 863 049c 6C040000 		.4byte	0x46c
 864 04a0 08       		.byte	0x8
 865 04a1 09       		.uleb128 0x9
 866 04a2 FE020000 		.4byte	.LASF79
 867 04a6 09       		.byte	0x9
 868 04a7 BD01     		.2byte	0x1bd
 869 04a9 6C040000 		.4byte	0x46c
 870 04ad 0C       		.byte	0xc
 871 04ae 08       		.uleb128 0x8
 872 04af 53435200 		.ascii	"SCR\000"
 873 04b3 09       		.byte	0x9
 874 04b4 BE01     		.2byte	0x1be
 875 04b6 6C040000 		.4byte	0x46c
 876 04ba 10       		.byte	0x10
 877 04bb 08       		.uleb128 0x8
 878 04bc 43435200 		.ascii	"CCR\000"
 879 04c0 09       		.byte	0x9
 880 04c1 BF01     		.2byte	0x1bf
 881 04c3 6C040000 		.4byte	0x46c
 882 04c7 14       		.byte	0x14
 883 04c8 08       		.uleb128 0x8
 884 04c9 53485000 		.ascii	"SHP\000"
 885 04cd 09       		.byte	0x9
 886 04ce C001     		.2byte	0x1c0
 887 04d0 A1050000 		.4byte	0x5a1
 888 04d4 18       		.byte	0x18
 889 04d5 09       		.uleb128 0x9
 890 04d6 EF050000 		.4byte	.LASF80
 891 04da 09       		.byte	0x9
 892 04db C101     		.2byte	0x1c1
 893 04dd 6C040000 		.4byte	0x46c
 894 04e1 24       		.byte	0x24
 895 04e2 09       		.uleb128 0x9
 896 04e3 ED030000 		.4byte	.LASF81
 897 04e7 09       		.byte	0x9
 898 04e8 C201     		.2byte	0x1c2
 899 04ea 6C040000 		.4byte	0x46c
 900 04ee 28       		.byte	0x28
 901 04ef 09       		.uleb128 0x9
 902 04f0 C8070000 		.4byte	.LASF82
 903 04f4 09       		.byte	0x9
 904 04f5 C301     		.2byte	0x1c3
 905 04f7 6C040000 		.4byte	0x46c
 906 04fb 2C       		.byte	0x2c
 907 04fc 09       		.uleb128 0x9
 908 04fd 04030000 		.4byte	.LASF83
 909 0501 09       		.byte	0x9
 910 0502 C401     		.2byte	0x1c4
 911 0504 6C040000 		.4byte	0x46c
 912 0508 30       		.byte	0x30
ARM GAS  /tmp/ccstZhCX.s 			page 17


 913 0509 09       		.uleb128 0x9
 914 050a BE020000 		.4byte	.LASF84
 915 050e 09       		.byte	0x9
 916 050f C501     		.2byte	0x1c5
 917 0511 6C040000 		.4byte	0x46c
 918 0515 34       		.byte	0x34
 919 0516 09       		.uleb128 0x9
 920 0517 B6060000 		.4byte	.LASF85
 921 051b 09       		.byte	0x9
 922 051c C601     		.2byte	0x1c6
 923 051e 6C040000 		.4byte	0x46c
 924 0522 38       		.byte	0x38
 925 0523 09       		.uleb128 0x9
 926 0524 CB010000 		.4byte	.LASF86
 927 0528 09       		.byte	0x9
 928 0529 C701     		.2byte	0x1c7
 929 052b 6C040000 		.4byte	0x46c
 930 052f 3C       		.byte	0x3c
 931 0530 08       		.uleb128 0x8
 932 0531 50465200 		.ascii	"PFR\000"
 933 0535 09       		.byte	0x9
 934 0536 C801     		.2byte	0x1c8
 935 0538 B6050000 		.4byte	0x5b6
 936 053c 40       		.byte	0x40
 937 053d 08       		.uleb128 0x8
 938 053e 44465200 		.ascii	"DFR\000"
 939 0542 09       		.byte	0x9
 940 0543 C901     		.2byte	0x1c9
 941 0545 8C050000 		.4byte	0x58c
 942 0549 48       		.byte	0x48
 943 054a 08       		.uleb128 0x8
 944 054b 41445200 		.ascii	"ADR\000"
 945 054f 09       		.byte	0x9
 946 0550 CA01     		.2byte	0x1ca
 947 0552 8C050000 		.4byte	0x58c
 948 0556 4C       		.byte	0x4c
 949 0557 09       		.uleb128 0x9
 950 0558 60070000 		.4byte	.LASF87
 951 055c 09       		.byte	0x9
 952 055d CB01     		.2byte	0x1cb
 953 055f D0050000 		.4byte	0x5d0
 954 0563 50       		.byte	0x50
 955 0564 09       		.uleb128 0x9
 956 0565 53010000 		.4byte	.LASF88
 957 0569 09       		.byte	0x9
 958 056a CC01     		.2byte	0x1cc
 959 056c EA050000 		.4byte	0x5ea
 960 0570 60       		.byte	0x60
 961 0571 09       		.uleb128 0x9
 962 0572 66040000 		.4byte	.LASF89
 963 0576 09       		.byte	0x9
 964 0577 CD01     		.2byte	0x1cd
 965 0579 DA050000 		.4byte	0x5da
 966 057d 74       		.byte	0x74
 967 057e 09       		.uleb128 0x9
 968 057f C2070000 		.4byte	.LASF90
 969 0583 09       		.byte	0x9
ARM GAS  /tmp/ccstZhCX.s 			page 18


 970 0584 CE01     		.2byte	0x1ce
 971 0586 6C040000 		.4byte	0x46c
 972 058a 88       		.byte	0x88
 973 058b 00       		.byte	0
 974 058c 11       		.uleb128 0x11
 975 058d 6C040000 		.4byte	0x46c
 976 0591 12       		.uleb128 0x12
 977 0592 A2000000 		.4byte	0xa2
 978 0596 A1050000 		.4byte	0x5a1
 979 059a 13       		.uleb128 0x13
 980 059b 65040000 		.4byte	0x465
 981 059f 0B       		.byte	0xb
 982 05a0 00       		.byte	0
 983 05a1 0F       		.uleb128 0xf
 984 05a2 91050000 		.4byte	0x591
 985 05a6 12       		.uleb128 0x12
 986 05a7 B8000000 		.4byte	0xb8
 987 05ab B6050000 		.4byte	0x5b6
 988 05af 13       		.uleb128 0x13
 989 05b0 65040000 		.4byte	0x465
 990 05b4 01       		.byte	0x1
 991 05b5 00       		.byte	0
 992 05b6 11       		.uleb128 0x11
 993 05b7 BB050000 		.4byte	0x5bb
 994 05bb 0F       		.uleb128 0xf
 995 05bc A6050000 		.4byte	0x5a6
 996 05c0 12       		.uleb128 0x12
 997 05c1 B8000000 		.4byte	0xb8
 998 05c5 D0050000 		.4byte	0x5d0
 999 05c9 13       		.uleb128 0x13
 1000 05ca 65040000 		.4byte	0x465
 1001 05ce 03       		.byte	0x3
 1002 05cf 00       		.byte	0
 1003 05d0 11       		.uleb128 0x11
 1004 05d1 D5050000 		.4byte	0x5d5
 1005 05d5 0F       		.uleb128 0xf
 1006 05d6 C0050000 		.4byte	0x5c0
 1007 05da 12       		.uleb128 0x12
 1008 05db B8000000 		.4byte	0xb8
 1009 05df EA050000 		.4byte	0x5ea
 1010 05e3 13       		.uleb128 0x13
 1011 05e4 65040000 		.4byte	0x465
 1012 05e8 04       		.byte	0x4
 1013 05e9 00       		.byte	0
 1014 05ea 11       		.uleb128 0x11
 1015 05eb EF050000 		.4byte	0x5ef
 1016 05ef 0F       		.uleb128 0xf
 1017 05f0 DA050000 		.4byte	0x5da
 1018 05f4 14       		.uleb128 0x14
 1019 05f5 E4010000 		.4byte	.LASF91
 1020 05f9 09       		.byte	0x9
 1021 05fa CF01     		.2byte	0x1cf
 1022 05fc 71040000 		.4byte	0x471
 1023 0600 10       		.uleb128 0x10
 1024 0601 10       		.byte	0x10
 1025 0602 0A       		.byte	0xa
 1026 0603 5201     		.2byte	0x152
ARM GAS  /tmp/ccstZhCX.s 			page 19


 1027 0605 3D060000 		.4byte	0x63d
 1028 0609 09       		.uleb128 0x9
 1029 060a 8D010000 		.4byte	.LASF92
 1030 060e 0A       		.byte	0xa
 1031 060f 5401     		.2byte	0x154
 1032 0611 6C040000 		.4byte	0x46c
 1033 0615 00       		.byte	0
 1034 0616 08       		.uleb128 0x8
 1035 0617 435200   		.ascii	"CR\000"
 1036 061a 0A       		.byte	0xa
 1037 061b 5501     		.2byte	0x155
 1038 061d 6C040000 		.4byte	0x46c
 1039 0621 04       		.byte	0x4
 1040 0622 09       		.uleb128 0x9
 1041 0623 57040000 		.4byte	.LASF93
 1042 0627 0A       		.byte	0xa
 1043 0628 5601     		.2byte	0x156
 1044 062a 6C040000 		.4byte	0x46c
 1045 062e 08       		.byte	0x8
 1046 062f 09       		.uleb128 0x9
 1047 0630 2B030000 		.4byte	.LASF94
 1048 0634 0A       		.byte	0xa
 1049 0635 5701     		.2byte	0x157
 1050 0637 6C040000 		.4byte	0x46c
 1051 063b 0C       		.byte	0xc
 1052 063c 00       		.byte	0
 1053 063d 14       		.uleb128 0x14
 1054 063e 55060000 		.4byte	.LASF95
 1055 0642 0A       		.byte	0xa
 1056 0643 5801     		.2byte	0x158
 1057 0645 00060000 		.4byte	0x600
 1058 0649 10       		.uleb128 0x10
 1059 064a 1C       		.byte	0x1c
 1060 064b 0A       		.byte	0xa
 1061 064c FF01     		.2byte	0x1ff
 1062 064e AC060000 		.4byte	0x6ac
 1063 0652 08       		.uleb128 0x8
 1064 0653 41435200 		.ascii	"ACR\000"
 1065 0657 0A       		.byte	0xa
 1066 0658 0102     		.2byte	0x201
 1067 065a 6C040000 		.4byte	0x46c
 1068 065e 00       		.byte	0
 1069 065f 09       		.uleb128 0x9
 1070 0660 ED010000 		.4byte	.LASF96
 1071 0664 0A       		.byte	0xa
 1072 0665 0202     		.2byte	0x202
 1073 0667 6C040000 		.4byte	0x46c
 1074 066b 04       		.byte	0x4
 1075 066c 09       		.uleb128 0x9
 1076 066d C3010000 		.4byte	.LASF97
 1077 0671 0A       		.byte	0xa
 1078 0672 0302     		.2byte	0x203
 1079 0674 6C040000 		.4byte	0x46c
 1080 0678 08       		.byte	0x8
 1081 0679 08       		.uleb128 0x8
 1082 067a 535200   		.ascii	"SR\000"
 1083 067d 0A       		.byte	0xa
ARM GAS  /tmp/ccstZhCX.s 			page 20


 1084 067e 0402     		.2byte	0x204
 1085 0680 6C040000 		.4byte	0x46c
 1086 0684 0C       		.byte	0xc
 1087 0685 08       		.uleb128 0x8
 1088 0686 435200   		.ascii	"CR\000"
 1089 0689 0A       		.byte	0xa
 1090 068a 0502     		.2byte	0x205
 1091 068c 6C040000 		.4byte	0x46c
 1092 0690 10       		.byte	0x10
 1093 0691 09       		.uleb128 0x9
 1094 0692 FA030000 		.4byte	.LASF98
 1095 0696 0A       		.byte	0xa
 1096 0697 0602     		.2byte	0x206
 1097 0699 6C040000 		.4byte	0x46c
 1098 069d 14       		.byte	0x14
 1099 069e 09       		.uleb128 0x9
 1100 069f 94000000 		.4byte	.LASF99
 1101 06a3 0A       		.byte	0xa
 1102 06a4 0702     		.2byte	0x207
 1103 06a6 6C040000 		.4byte	0x46c
 1104 06aa 18       		.byte	0x18
 1105 06ab 00       		.byte	0
 1106 06ac 14       		.uleb128 0x14
 1107 06ad 45010000 		.4byte	.LASF100
 1108 06b1 0A       		.byte	0xa
 1109 06b2 0802     		.2byte	0x208
 1110 06b4 49060000 		.4byte	0x649
 1111 06b8 10       		.uleb128 0x10
 1112 06b9 08       		.byte	0x8
 1113 06ba 0A       		.byte	0xa
 1114 06bb 8C02     		.2byte	0x28c
 1115 06bd DB060000 		.4byte	0x6db
 1116 06c1 08       		.uleb128 0x8
 1117 06c2 435200   		.ascii	"CR\000"
 1118 06c5 0A       		.byte	0xa
 1119 06c6 8E02     		.2byte	0x28e
 1120 06c8 6C040000 		.4byte	0x46c
 1121 06cc 00       		.byte	0
 1122 06cd 08       		.uleb128 0x8
 1123 06ce 43535200 		.ascii	"CSR\000"
 1124 06d2 0A       		.byte	0xa
 1125 06d3 8F02     		.2byte	0x28f
 1126 06d5 6C040000 		.4byte	0x46c
 1127 06d9 04       		.byte	0x4
 1128 06da 00       		.byte	0
 1129 06db 14       		.uleb128 0x14
 1130 06dc 5F010000 		.4byte	.LASF101
 1131 06e0 0A       		.byte	0xa
 1132 06e1 9002     		.2byte	0x290
 1133 06e3 B8060000 		.4byte	0x6b8
 1134 06e7 10       		.uleb128 0x10
 1135 06e8 90       		.byte	0x90
 1136 06e9 0A       		.byte	0xa
 1137 06ea 9602     		.2byte	0x296
 1138 06ec 90080000 		.4byte	0x890
 1139 06f0 08       		.uleb128 0x8
 1140 06f1 435200   		.ascii	"CR\000"
ARM GAS  /tmp/ccstZhCX.s 			page 21


 1141 06f4 0A       		.byte	0xa
 1142 06f5 9802     		.2byte	0x298
 1143 06f7 6C040000 		.4byte	0x46c
 1144 06fb 00       		.byte	0
 1145 06fc 09       		.uleb128 0x9
 1146 06fd 1B040000 		.4byte	.LASF102
 1147 0701 0A       		.byte	0xa
 1148 0702 9902     		.2byte	0x299
 1149 0704 6C040000 		.4byte	0x46c
 1150 0708 04       		.byte	0x4
 1151 0709 09       		.uleb128 0x9
 1152 070a BD070000 		.4byte	.LASF103
 1153 070e 0A       		.byte	0xa
 1154 070f 9A02     		.2byte	0x29a
 1155 0711 6C040000 		.4byte	0x46c
 1156 0715 08       		.byte	0x8
 1157 0716 08       		.uleb128 0x8
 1158 0717 43495200 		.ascii	"CIR\000"
 1159 071b 0A       		.byte	0xa
 1160 071c 9B02     		.2byte	0x29b
 1161 071e 6C040000 		.4byte	0x46c
 1162 0722 0C       		.byte	0xc
 1163 0723 09       		.uleb128 0x9
 1164 0724 3C010000 		.4byte	.LASF104
 1165 0728 0A       		.byte	0xa
 1166 0729 9C02     		.2byte	0x29c
 1167 072b 6C040000 		.4byte	0x46c
 1168 072f 10       		.byte	0x10
 1169 0730 09       		.uleb128 0x9
 1170 0731 BB060000 		.4byte	.LASF105
 1171 0735 0A       		.byte	0xa
 1172 0736 9D02     		.2byte	0x29d
 1173 0738 6C040000 		.4byte	0x46c
 1174 073c 14       		.byte	0x14
 1175 073d 09       		.uleb128 0x9
 1176 073e 2E060000 		.4byte	.LASF106
 1177 0742 0A       		.byte	0xa
 1178 0743 9E02     		.2byte	0x29e
 1179 0745 6C040000 		.4byte	0x46c
 1180 0749 18       		.byte	0x18
 1181 074a 09       		.uleb128 0x9
 1182 074b 66040000 		.4byte	.LASF89
 1183 074f 0A       		.byte	0xa
 1184 0750 9F02     		.2byte	0x29f
 1185 0752 B8000000 		.4byte	0xb8
 1186 0756 1C       		.byte	0x1c
 1187 0757 09       		.uleb128 0x9
 1188 0758 28040000 		.4byte	.LASF107
 1189 075c 0A       		.byte	0xa
 1190 075d A002     		.2byte	0x2a0
 1191 075f 6C040000 		.4byte	0x46c
 1192 0763 20       		.byte	0x20
 1193 0764 09       		.uleb128 0x9
 1194 0765 94010000 		.4byte	.LASF108
 1195 0769 0A       		.byte	0xa
 1196 076a A102     		.2byte	0x2a1
 1197 076c 6C040000 		.4byte	0x46c
ARM GAS  /tmp/ccstZhCX.s 			page 22


 1198 0770 24       		.byte	0x24
 1199 0771 09       		.uleb128 0x9
 1200 0772 70040000 		.4byte	.LASF109
 1201 0776 0A       		.byte	0xa
 1202 0777 A202     		.2byte	0x2a2
 1203 0779 A6050000 		.4byte	0x5a6
 1204 077d 28       		.byte	0x28
 1205 077e 09       		.uleb128 0x9
 1206 077f 23020000 		.4byte	.LASF110
 1207 0783 0A       		.byte	0xa
 1208 0784 A302     		.2byte	0x2a3
 1209 0786 6C040000 		.4byte	0x46c
 1210 078a 30       		.byte	0x30
 1211 078b 09       		.uleb128 0x9
 1212 078c 0C070000 		.4byte	.LASF111
 1213 0790 0A       		.byte	0xa
 1214 0791 A402     		.2byte	0x2a4
 1215 0793 6C040000 		.4byte	0x46c
 1216 0797 34       		.byte	0x34
 1217 0798 09       		.uleb128 0x9
 1218 0799 F2030000 		.4byte	.LASF112
 1219 079d 0A       		.byte	0xa
 1220 079e A502     		.2byte	0x2a5
 1221 07a0 6C040000 		.4byte	0x46c
 1222 07a4 38       		.byte	0x38
 1223 07a5 09       		.uleb128 0x9
 1224 07a6 7A040000 		.4byte	.LASF113
 1225 07aa 0A       		.byte	0xa
 1226 07ab A602     		.2byte	0x2a6
 1227 07ad B8000000 		.4byte	0xb8
 1228 07b1 3C       		.byte	0x3c
 1229 07b2 09       		.uleb128 0x9
 1230 07b3 FB060000 		.4byte	.LASF114
 1231 07b7 0A       		.byte	0xa
 1232 07b8 A702     		.2byte	0x2a7
 1233 07ba 6C040000 		.4byte	0x46c
 1234 07be 40       		.byte	0x40
 1235 07bf 09       		.uleb128 0x9
 1236 07c0 26060000 		.4byte	.LASF115
 1237 07c4 0A       		.byte	0xa
 1238 07c5 A802     		.2byte	0x2a8
 1239 07c7 6C040000 		.4byte	0x46c
 1240 07cb 44       		.byte	0x44
 1241 07cc 09       		.uleb128 0x9
 1242 07cd 84040000 		.4byte	.LASF116
 1243 07d1 0A       		.byte	0xa
 1244 07d2 A902     		.2byte	0x2a9
 1245 07d4 A6050000 		.4byte	0x5a6
 1246 07d8 48       		.byte	0x48
 1247 07d9 09       		.uleb128 0x9
 1248 07da 0B010000 		.4byte	.LASF117
 1249 07de 0A       		.byte	0xa
 1250 07df AA02     		.2byte	0x2aa
 1251 07e1 6C040000 		.4byte	0x46c
 1252 07e5 50       		.byte	0x50
 1253 07e6 09       		.uleb128 0x9
 1254 07e7 00040000 		.4byte	.LASF118
ARM GAS  /tmp/ccstZhCX.s 			page 23


 1255 07eb 0A       		.byte	0xa
 1256 07ec AB02     		.2byte	0x2ab
 1257 07ee 6C040000 		.4byte	0x46c
 1258 07f2 54       		.byte	0x54
 1259 07f3 09       		.uleb128 0x9
 1260 07f4 15060000 		.4byte	.LASF119
 1261 07f8 0A       		.byte	0xa
 1262 07f9 AC02     		.2byte	0x2ac
 1263 07fb 6C040000 		.4byte	0x46c
 1264 07ff 58       		.byte	0x58
 1265 0800 09       		.uleb128 0x9
 1266 0801 8E040000 		.4byte	.LASF120
 1267 0805 0A       		.byte	0xa
 1268 0806 AD02     		.2byte	0x2ad
 1269 0808 B8000000 		.4byte	0xb8
 1270 080c 5C       		.byte	0x5c
 1271 080d 09       		.uleb128 0x9
 1272 080e 9D010000 		.4byte	.LASF121
 1273 0812 0A       		.byte	0xa
 1274 0813 AE02     		.2byte	0x2ae
 1275 0815 6C040000 		.4byte	0x46c
 1276 0819 60       		.byte	0x60
 1277 081a 09       		.uleb128 0x9
 1278 081b 46030000 		.4byte	.LASF122
 1279 081f 0A       		.byte	0xa
 1280 0820 AF02     		.2byte	0x2af
 1281 0822 6C040000 		.4byte	0x46c
 1282 0826 64       		.byte	0x64
 1283 0827 09       		.uleb128 0x9
 1284 0828 98040000 		.4byte	.LASF123
 1285 082c 0A       		.byte	0xa
 1286 082d B002     		.2byte	0x2b0
 1287 082f A6050000 		.4byte	0x5a6
 1288 0833 68       		.byte	0x68
 1289 0834 09       		.uleb128 0x9
 1290 0835 5B070000 		.4byte	.LASF124
 1291 0839 0A       		.byte	0xa
 1292 083a B102     		.2byte	0x2b1
 1293 083c 6C040000 		.4byte	0x46c
 1294 0840 70       		.byte	0x70
 1295 0841 08       		.uleb128 0x8
 1296 0842 43535200 		.ascii	"CSR\000"
 1297 0846 0A       		.byte	0xa
 1298 0847 B202     		.2byte	0x2b2
 1299 0849 6C040000 		.4byte	0x46c
 1300 084d 74       		.byte	0x74
 1301 084e 09       		.uleb128 0x9
 1302 084f A2040000 		.4byte	.LASF125
 1303 0853 0A       		.byte	0xa
 1304 0854 B302     		.2byte	0x2b3
 1305 0856 A6050000 		.4byte	0x5a6
 1306 085a 78       		.byte	0x78
 1307 085b 09       		.uleb128 0x9
 1308 085c 3C070000 		.4byte	.LASF126
 1309 0860 0A       		.byte	0xa
 1310 0861 B402     		.2byte	0x2b4
 1311 0863 6C040000 		.4byte	0x46c
ARM GAS  /tmp/ccstZhCX.s 			page 24


 1312 0867 80       		.byte	0x80
 1313 0868 09       		.uleb128 0x9
 1314 0869 E8020000 		.4byte	.LASF127
 1315 086d 0A       		.byte	0xa
 1316 086e B502     		.2byte	0x2b5
 1317 0870 6C040000 		.4byte	0x46c
 1318 0874 84       		.byte	0x84
 1319 0875 09       		.uleb128 0x9
 1320 0876 7F030000 		.4byte	.LASF128
 1321 087a 0A       		.byte	0xa
 1322 087b B602     		.2byte	0x2b6
 1323 087d 6C040000 		.4byte	0x46c
 1324 0881 88       		.byte	0x88
 1325 0882 09       		.uleb128 0x9
 1326 0883 1A010000 		.4byte	.LASF129
 1327 0887 0A       		.byte	0xa
 1328 0888 B702     		.2byte	0x2b7
 1329 088a 6C040000 		.4byte	0x46c
 1330 088e 8C       		.byte	0x8c
 1331 088f 00       		.byte	0
 1332 0890 14       		.uleb128 0x14
 1333 0891 A7020000 		.4byte	.LASF130
 1334 0895 0A       		.byte	0xa
 1335 0896 B802     		.2byte	0x2b8
 1336 0898 E7060000 		.4byte	0x6e7
 1337 089c 03       		.uleb128 0x3
 1338 089d DB010000 		.4byte	.LASF131
 1339 08a1 0B       		.byte	0xb
 1340 08a2 65       		.byte	0x65
 1341 08a3 1A030000 		.4byte	0x31a
 1342 08a7 03       		.uleb128 0x3
 1343 08a8 8A030000 		.4byte	.LASF132
 1344 08ac 0B       		.byte	0xb
 1345 08ad 6D       		.byte	0x6d
 1346 08ae C3000000 		.4byte	0xc3
 1347 08b2 05       		.uleb128 0x5
 1348 08b3 81000000 		.4byte	.LASF133
 1349 08b7 04       		.byte	0x4
 1350 08b8 0B       		.byte	0xb
 1351 08b9 89       		.byte	0x89
 1352 08ba CA080000 		.4byte	0x8ca
 1353 08be 07       		.uleb128 0x7
 1354 08bf 737000   		.ascii	"sp\000"
 1355 08c2 0B       		.byte	0xb
 1356 08c3 8A       		.byte	0x8a
 1357 08c4 160A0000 		.4byte	0xa16
 1358 08c8 00       		.byte	0
 1359 08c9 00       		.byte	0
 1360 08ca 0B       		.uleb128 0xb
 1361 08cb 55000000 		.4byte	.LASF134
 1362 08cf 64       		.byte	0x64
 1363 08d0 0C       		.byte	0xc
 1364 08d1 5901     		.2byte	0x159
 1365 08d3 160A0000 		.4byte	0xa16
 1366 08d7 08       		.uleb128 0x8
 1367 08d8 73313600 		.ascii	"s16\000"
 1368 08dc 0C       		.byte	0xc
ARM GAS  /tmp/ccstZhCX.s 			page 25


 1369 08dd 5B01     		.2byte	0x15b
 1370 08df 9C080000 		.4byte	0x89c
 1371 08e3 00       		.byte	0
 1372 08e4 08       		.uleb128 0x8
 1373 08e5 73313700 		.ascii	"s17\000"
 1374 08e9 0C       		.byte	0xc
 1375 08ea 5C01     		.2byte	0x15c
 1376 08ec 9C080000 		.4byte	0x89c
 1377 08f0 04       		.byte	0x4
 1378 08f1 08       		.uleb128 0x8
 1379 08f2 73313800 		.ascii	"s18\000"
 1380 08f6 0C       		.byte	0xc
 1381 08f7 5D01     		.2byte	0x15d
 1382 08f9 9C080000 		.4byte	0x89c
 1383 08fd 08       		.byte	0x8
 1384 08fe 08       		.uleb128 0x8
 1385 08ff 73313900 		.ascii	"s19\000"
 1386 0903 0C       		.byte	0xc
 1387 0904 5E01     		.2byte	0x15e
 1388 0906 9C080000 		.4byte	0x89c
 1389 090a 0C       		.byte	0xc
 1390 090b 08       		.uleb128 0x8
 1391 090c 73323000 		.ascii	"s20\000"
 1392 0910 0C       		.byte	0xc
 1393 0911 5F01     		.2byte	0x15f
 1394 0913 9C080000 		.4byte	0x89c
 1395 0917 10       		.byte	0x10
 1396 0918 08       		.uleb128 0x8
 1397 0919 73323100 		.ascii	"s21\000"
 1398 091d 0C       		.byte	0xc
 1399 091e 6001     		.2byte	0x160
 1400 0920 9C080000 		.4byte	0x89c
 1401 0924 14       		.byte	0x14
 1402 0925 08       		.uleb128 0x8
 1403 0926 73323200 		.ascii	"s22\000"
 1404 092a 0C       		.byte	0xc
 1405 092b 6101     		.2byte	0x161
 1406 092d 9C080000 		.4byte	0x89c
 1407 0931 18       		.byte	0x18
 1408 0932 08       		.uleb128 0x8
 1409 0933 73323300 		.ascii	"s23\000"
 1410 0937 0C       		.byte	0xc
 1411 0938 6201     		.2byte	0x162
 1412 093a 9C080000 		.4byte	0x89c
 1413 093e 1C       		.byte	0x1c
 1414 093f 08       		.uleb128 0x8
 1415 0940 73323400 		.ascii	"s24\000"
 1416 0944 0C       		.byte	0xc
 1417 0945 6301     		.2byte	0x163
 1418 0947 9C080000 		.4byte	0x89c
 1419 094b 20       		.byte	0x20
 1420 094c 08       		.uleb128 0x8
 1421 094d 73323500 		.ascii	"s25\000"
 1422 0951 0C       		.byte	0xc
 1423 0952 6401     		.2byte	0x164
 1424 0954 9C080000 		.4byte	0x89c
 1425 0958 24       		.byte	0x24
ARM GAS  /tmp/ccstZhCX.s 			page 26


 1426 0959 08       		.uleb128 0x8
 1427 095a 73323600 		.ascii	"s26\000"
 1428 095e 0C       		.byte	0xc
 1429 095f 6501     		.2byte	0x165
 1430 0961 9C080000 		.4byte	0x89c
 1431 0965 28       		.byte	0x28
 1432 0966 08       		.uleb128 0x8
 1433 0967 73323700 		.ascii	"s27\000"
 1434 096b 0C       		.byte	0xc
 1435 096c 6601     		.2byte	0x166
 1436 096e 9C080000 		.4byte	0x89c
 1437 0972 2C       		.byte	0x2c
 1438 0973 08       		.uleb128 0x8
 1439 0974 73323800 		.ascii	"s28\000"
 1440 0978 0C       		.byte	0xc
 1441 0979 6701     		.2byte	0x167
 1442 097b 9C080000 		.4byte	0x89c
 1443 097f 30       		.byte	0x30
 1444 0980 08       		.uleb128 0x8
 1445 0981 73323900 		.ascii	"s29\000"
 1446 0985 0C       		.byte	0xc
 1447 0986 6801     		.2byte	0x168
 1448 0988 9C080000 		.4byte	0x89c
 1449 098c 34       		.byte	0x34
 1450 098d 08       		.uleb128 0x8
 1451 098e 73333000 		.ascii	"s30\000"
 1452 0992 0C       		.byte	0xc
 1453 0993 6901     		.2byte	0x169
 1454 0995 9C080000 		.4byte	0x89c
 1455 0999 38       		.byte	0x38
 1456 099a 08       		.uleb128 0x8
 1457 099b 73333100 		.ascii	"s31\000"
 1458 099f 0C       		.byte	0xc
 1459 09a0 6A01     		.2byte	0x16a
 1460 09a2 9C080000 		.4byte	0x89c
 1461 09a6 3C       		.byte	0x3c
 1462 09a7 08       		.uleb128 0x8
 1463 09a8 723400   		.ascii	"r4\000"
 1464 09ab 0C       		.byte	0xc
 1465 09ac 6C01     		.2byte	0x16c
 1466 09ae 9C080000 		.4byte	0x89c
 1467 09b2 40       		.byte	0x40
 1468 09b3 08       		.uleb128 0x8
 1469 09b4 723500   		.ascii	"r5\000"
 1470 09b7 0C       		.byte	0xc
 1471 09b8 6D01     		.2byte	0x16d
 1472 09ba 9C080000 		.4byte	0x89c
 1473 09be 44       		.byte	0x44
 1474 09bf 08       		.uleb128 0x8
 1475 09c0 723600   		.ascii	"r6\000"
 1476 09c3 0C       		.byte	0xc
 1477 09c4 6E01     		.2byte	0x16e
 1478 09c6 9C080000 		.4byte	0x89c
 1479 09ca 48       		.byte	0x48
 1480 09cb 08       		.uleb128 0x8
 1481 09cc 723700   		.ascii	"r7\000"
 1482 09cf 0C       		.byte	0xc
ARM GAS  /tmp/ccstZhCX.s 			page 27


 1483 09d0 6F01     		.2byte	0x16f
 1484 09d2 9C080000 		.4byte	0x89c
 1485 09d6 4C       		.byte	0x4c
 1486 09d7 08       		.uleb128 0x8
 1487 09d8 723800   		.ascii	"r8\000"
 1488 09db 0C       		.byte	0xc
 1489 09dc 7001     		.2byte	0x170
 1490 09de 9C080000 		.4byte	0x89c
 1491 09e2 50       		.byte	0x50
 1492 09e3 08       		.uleb128 0x8
 1493 09e4 723900   		.ascii	"r9\000"
 1494 09e7 0C       		.byte	0xc
 1495 09e8 7101     		.2byte	0x171
 1496 09ea 9C080000 		.4byte	0x89c
 1497 09ee 54       		.byte	0x54
 1498 09ef 08       		.uleb128 0x8
 1499 09f0 72313000 		.ascii	"r10\000"
 1500 09f4 0C       		.byte	0xc
 1501 09f5 7201     		.2byte	0x172
 1502 09f7 9C080000 		.4byte	0x89c
 1503 09fb 58       		.byte	0x58
 1504 09fc 08       		.uleb128 0x8
 1505 09fd 72313100 		.ascii	"r11\000"
 1506 0a01 0C       		.byte	0xc
 1507 0a02 7301     		.2byte	0x173
 1508 0a04 9C080000 		.4byte	0x89c
 1509 0a08 5C       		.byte	0x5c
 1510 0a09 08       		.uleb128 0x8
 1511 0a0a 6C7200   		.ascii	"lr\000"
 1512 0a0d 0C       		.byte	0xc
 1513 0a0e 7401     		.2byte	0x174
 1514 0a10 9C080000 		.4byte	0x89c
 1515 0a14 60       		.byte	0x60
 1516 0a15 00       		.byte	0
 1517 0a16 0A       		.uleb128 0xa
 1518 0a17 04       		.byte	0x4
 1519 0a18 CA080000 		.4byte	0x8ca
 1520 0a1c 15       		.uleb128 0x15
 1521 0a1d 04       		.byte	0x4
 1522 0a1e 0D       		.byte	0xd
 1523 0a1f 38       		.byte	0x38
 1524 0a20 310A0000 		.4byte	0xa31
 1525 0a24 06       		.uleb128 0x6
 1526 0a25 F4060000 		.4byte	.LASF135
 1527 0a29 0D       		.byte	0xd
 1528 0a2a 3C       		.byte	0x3c
 1529 0a2b CE000000 		.4byte	0xce
 1530 0a2f 00       		.byte	0
 1531 0a30 00       		.byte	0
 1532 0a31 03       		.uleb128 0x3
 1533 0a32 0A040000 		.4byte	.LASF136
 1534 0a36 0D       		.byte	0xd
 1535 0a37 3D       		.byte	0x3d
 1536 0a38 1C0A0000 		.4byte	0xa1c
 1537 0a3c 15       		.uleb128 0x15
 1538 0a3d 18       		.byte	0x18
 1539 0a3e 0D       		.byte	0xd
ARM GAS  /tmp/ccstZhCX.s 			page 28


 1540 0a3f 48       		.byte	0x48
 1541 0a40 7F0A0000 		.4byte	0xa7f
 1542 0a44 06       		.uleb128 0x6
 1543 0a45 CD060000 		.4byte	.LASF137
 1544 0a49 0D       		.byte	0xd
 1545 0a4a 49       		.byte	0x49
 1546 0a4b CE000000 		.4byte	0xce
 1547 0a4f 00       		.byte	0
 1548 0a50 06       		.uleb128 0x6
 1549 0a51 8E000000 		.4byte	.LASF138
 1550 0a55 0D       		.byte	0xd
 1551 0a56 4A       		.byte	0x4a
 1552 0a57 CE000000 		.4byte	0xce
 1553 0a5b 04       		.byte	0x4
 1554 0a5c 06       		.uleb128 0x6
 1555 0a5d E5060000 		.4byte	.LASF139
 1556 0a61 0D       		.byte	0xd
 1557 0a62 4B       		.byte	0x4b
 1558 0a63 CE000000 		.4byte	0xce
 1559 0a67 08       		.byte	0x8
 1560 0a68 07       		.uleb128 0x7
 1561 0a69 6E00     		.ascii	"n\000"
 1562 0a6b 0D       		.byte	0xd
 1563 0a6c 4C       		.byte	0x4c
 1564 0a6d 31010000 		.4byte	0x131
 1565 0a71 0C       		.byte	0xc
 1566 0a72 06       		.uleb128 0x6
 1567 0a73 44040000 		.4byte	.LASF140
 1568 0a77 0D       		.byte	0xd
 1569 0a78 4D       		.byte	0x4d
 1570 0a79 D9000000 		.4byte	0xd9
 1571 0a7d 10       		.byte	0x10
 1572 0a7e 00       		.byte	0
 1573 0a7f 03       		.uleb128 0x3
 1574 0a80 9B000000 		.4byte	.LASF141
 1575 0a84 0D       		.byte	0xd
 1576 0a85 4E       		.byte	0x4e
 1577 0a86 3C0A0000 		.4byte	0xa3c
 1578 0a8a 15       		.uleb128 0x15
 1579 0a8b 38       		.byte	0x38
 1580 0a8c 0E       		.byte	0xe
 1581 0a8d 38       		.byte	0x38
 1582 0a8e C30A0000 		.4byte	0xac3
 1583 0a92 06       		.uleb128 0x6
 1584 0a93 B3020000 		.4byte	.LASF142
 1585 0a97 0E       		.byte	0xe
 1586 0a98 39       		.byte	0x39
 1587 0a99 31010000 		.4byte	0x131
 1588 0a9d 00       		.byte	0
 1589 0a9e 06       		.uleb128 0x6
 1590 0a9f B4040000 		.4byte	.LASF143
 1591 0aa3 0E       		.byte	0xe
 1592 0aa4 3A       		.byte	0x3a
 1593 0aa5 31010000 		.4byte	0x131
 1594 0aa9 04       		.byte	0x4
 1595 0aaa 06       		.uleb128 0x6
 1596 0aab D5070000 		.4byte	.LASF144
ARM GAS  /tmp/ccstZhCX.s 			page 29


 1597 0aaf 0E       		.byte	0xe
 1598 0ab0 3B       		.byte	0x3b
 1599 0ab1 7F0A0000 		.4byte	0xa7f
 1600 0ab5 08       		.byte	0x8
 1601 0ab6 06       		.uleb128 0x6
 1602 0ab7 50030000 		.4byte	.LASF145
 1603 0abb 0E       		.byte	0xe
 1604 0abc 3D       		.byte	0x3d
 1605 0abd 7F0A0000 		.4byte	0xa7f
 1606 0ac1 20       		.byte	0x20
 1607 0ac2 00       		.byte	0
 1608 0ac3 03       		.uleb128 0x3
 1609 0ac4 CA020000 		.4byte	.LASF146
 1610 0ac8 0E       		.byte	0xe
 1611 0ac9 3F       		.byte	0x3f
 1612 0aca 8A0A0000 		.4byte	0xa8a
 1613 0ace 16       		.uleb128 0x16
 1614 0acf 04       		.byte	0x4
 1615 0ad0 07       		.byte	0x7
 1616 0ad1 C6       		.byte	0xc6
 1617 0ad2 300B0000 		.4byte	0xb30
 1618 0ad6 17       		.uleb128 0x17
 1619 0ad7 29000000 		.4byte	.LASF147
 1620 0adb 07       		.byte	0x7
 1621 0adc CD       		.byte	0xcd
 1622 0add 10010000 		.4byte	0x110
 1623 0ae1 17       		.uleb128 0x17
 1624 0ae2 C5000000 		.4byte	.LASF148
 1625 0ae6 07       		.byte	0x7
 1626 0ae7 D4       		.byte	0xd4
 1627 0ae8 10010000 		.4byte	0x110
 1628 0aec 17       		.uleb128 0x17
 1629 0aed 79070000 		.4byte	.LASF149
 1630 0af1 07       		.byte	0x7
 1631 0af2 DB       		.byte	0xdb
 1632 0af3 1A030000 		.4byte	0x31a
 1633 0af7 17       		.uleb128 0x17
 1634 0af8 A1020000 		.4byte	.LASF150
 1635 0afc 07       		.byte	0x7
 1636 0afd E2       		.byte	0xe2
 1637 0afe 300B0000 		.4byte	0xb30
 1638 0b02 17       		.uleb128 0x17
 1639 0b03 D9000000 		.4byte	.LASF151
 1640 0b07 07       		.byte	0x7
 1641 0b08 E7       		.byte	0xe7
 1642 0b09 10010000 		.4byte	0x110
 1643 0b0d 17       		.uleb128 0x17
 1644 0b0e 5C020000 		.4byte	.LASF152
 1645 0b12 07       		.byte	0x7
 1646 0b13 F0       		.byte	0xf0
 1647 0b14 5B0B0000 		.4byte	0xb5b
 1648 0b18 17       		.uleb128 0x17
 1649 0b19 6D060000 		.4byte	.LASF153
 1650 0b1d 07       		.byte	0x7
 1651 0b1e F9       		.byte	0xf9
 1652 0b1f 920B0000 		.4byte	0xb92
 1653 0b23 18       		.uleb128 0x18
ARM GAS  /tmp/ccstZhCX.s 			page 30


 1654 0b24 1F060000 		.4byte	.LASF154
 1655 0b28 07       		.byte	0x7
 1656 0b29 0101     		.2byte	0x101
 1657 0b2b 1B010000 		.4byte	0x11b
 1658 0b2f 00       		.byte	0
 1659 0b30 0A       		.uleb128 0xa
 1660 0b31 04       		.byte	0x4
 1661 0b32 32020000 		.4byte	0x232
 1662 0b36 05       		.uleb128 0x5
 1663 0b37 48060000 		.4byte	.LASF155
 1664 0b3b 0C       		.byte	0xc
 1665 0b3c 0F       		.byte	0xf
 1666 0b3d 34       		.byte	0x34
 1667 0b3e 5B0B0000 		.4byte	0xb5b
 1668 0b42 06       		.uleb128 0x6
 1669 0b43 E7030000 		.4byte	.LASF29
 1670 0b47 0F       		.byte	0xf
 1671 0b48 35       		.byte	0x35
 1672 0b49 67020000 		.4byte	0x267
 1673 0b4d 00       		.byte	0
 1674 0b4e 07       		.uleb128 0x7
 1675 0b4f 636E7400 		.ascii	"cnt\000"
 1676 0b53 0F       		.byte	0xf
 1677 0b54 37       		.byte	0x37
 1678 0b55 26010000 		.4byte	0x126
 1679 0b59 08       		.byte	0x8
 1680 0b5a 00       		.byte	0
 1681 0b5b 0A       		.uleb128 0xa
 1682 0b5c 04       		.byte	0x4
 1683 0b5d 360B0000 		.4byte	0xb36
 1684 0b61 05       		.uleb128 0x5
 1685 0b62 03070000 		.4byte	.LASF156
 1686 0b66 10       		.byte	0x10
 1687 0b67 10       		.byte	0x10
 1688 0b68 39       		.byte	0x39
 1689 0b69 920B0000 		.4byte	0xb92
 1690 0b6d 06       		.uleb128 0x6
 1691 0b6e E7030000 		.4byte	.LASF29
 1692 0b72 10       		.byte	0x10
 1693 0b73 3A       		.byte	0x3a
 1694 0b74 67020000 		.4byte	0x267
 1695 0b78 00       		.byte	0
 1696 0b79 06       		.uleb128 0x6
 1697 0b7a 84060000 		.4byte	.LASF157
 1698 0b7e 10       		.byte	0x10
 1699 0b7f 3C       		.byte	0x3c
 1700 0b80 3D020000 		.4byte	0x23d
 1701 0b84 08       		.byte	0x8
 1702 0b85 06       		.uleb128 0x6
 1703 0b86 FD000000 		.4byte	.LASF49
 1704 0b8a 10       		.byte	0x10
 1705 0b8b 3E       		.byte	0x3e
 1706 0b8c C60B0000 		.4byte	0xbc6
 1707 0b90 0C       		.byte	0xc
 1708 0b91 00       		.byte	0
 1709 0b92 0A       		.uleb128 0xa
 1710 0b93 04       		.byte	0x4
ARM GAS  /tmp/ccstZhCX.s 			page 31


 1711 0b94 610B0000 		.4byte	0xb61
 1712 0b98 0A       		.uleb128 0xa
 1713 0b99 04       		.byte	0x4
 1714 0b9a 9E0B0000 		.4byte	0xb9e
 1715 0b9e 11       		.uleb128 0x11
 1716 0b9f A30B0000 		.4byte	0xba3
 1717 0ba3 04       		.uleb128 0x4
 1718 0ba4 01       		.byte	0x1
 1719 0ba5 08       		.byte	0x8
 1720 0ba6 AB060000 		.4byte	.LASF158
 1721 0baa 0A       		.uleb128 0xa
 1722 0bab 04       		.byte	0x4
 1723 0bac A7080000 		.4byte	0x8a7
 1724 0bb0 0A       		.uleb128 0xa
 1725 0bb1 04       		.byte	0x4
 1726 0bb2 1C030000 		.4byte	0x31c
 1727 0bb6 0F       		.uleb128 0xf
 1728 0bb7 980B0000 		.4byte	0xb98
 1729 0bbb 03       		.uleb128 0x3
 1730 0bbc 1B020000 		.4byte	.LASF159
 1731 0bc0 10       		.byte	0x10
 1732 0bc1 34       		.byte	0x34
 1733 0bc2 610B0000 		.4byte	0xb61
 1734 0bc6 0A       		.uleb128 0xa
 1735 0bc7 04       		.byte	0x4
 1736 0bc8 BB0B0000 		.4byte	0xbbb
 1737 0bcc 04       		.uleb128 0x4
 1738 0bcd 01       		.byte	0x1
 1739 0bce 02       		.byte	0x2
 1740 0bcf BD040000 		.4byte	.LASF160
 1741 0bd3 19       		.uleb128 0x19
 1742 0bd4 10030000 		.4byte	.LASF170
 1743 0bd8 01       		.byte	0x1
 1744 0bd9 36       		.byte	0x36
 1745 0bda 01       		.byte	0x1
 1746 0bdb 1A       		.uleb128 0x1a
 1747 0bdc 27070000 		.4byte	.LASF161
 1748 0be0 01       		.byte	0x1
 1749 0be1 72       		.byte	0x72
 1750 0be2 00000000 		.4byte	.LFB324
 1751 0be6 94000000 		.4byte	.LFE324-.LFB324
 1752 0bea 01       		.uleb128 0x1
 1753 0beb 9C       		.byte	0x9c
 1754 0bec 120C0000 		.4byte	0xc12
 1755 0bf0 1B       		.uleb128 0x1b
 1756 0bf1 D30B0000 		.4byte	0xbd3
 1757 0bf5 58000000 		.4byte	.LBB4
 1758 0bf9 26000000 		.4byte	.LBE4-.LBB4
 1759 0bfd 01       		.byte	0x1
 1760 0bfe 83       		.byte	0x83
 1761 0bff 1C       		.uleb128 0x1c
 1762 0c00 82000000 		.4byte	.LVL0
 1763 0c04 6C0C0000 		.4byte	0xc6c
 1764 0c08 1D       		.uleb128 0x1d
 1765 0c09 8A000000 		.4byte	.LVL1
 1766 0c0d 740C0000 		.4byte	0xc74
 1767 0c11 00       		.byte	0
ARM GAS  /tmp/ccstZhCX.s 			page 32


 1768 0c12 1A       		.uleb128 0x1a
 1769 0c13 0A020000 		.4byte	.LASF162
 1770 0c17 01       		.byte	0x1
 1771 0c18 9A       		.byte	0x9a
 1772 0c19 00000000 		.4byte	.LFB325
 1773 0c1d F4000000 		.4byte	.LFE325-.LFB325
 1774 0c21 01       		.uleb128 0x1
 1775 0c22 9C       		.byte	0x9c
 1776 0c23 3F0C0000 		.4byte	0xc3f
 1777 0c27 1E       		.uleb128 0x1e
 1778 0c28 7C000000 		.4byte	.LBB6
 1779 0c2c 06000000 		.4byte	.LBE6-.LBB6
 1780 0c30 1F       		.uleb128 0x1f
 1781 0c31 BB010000 		.4byte	.LASF171
 1782 0c35 01       		.byte	0x1
 1783 0c36 1101     		.2byte	0x111
 1784 0c38 B8000000 		.4byte	0xb8
 1785 0c3c 00       		.byte	0
 1786 0c3d 00       		.byte	0
 1787 0c3e 00       		.byte	0
 1788 0c3f 20       		.uleb128 0x20
 1789 0c40 F5050000 		.4byte	.LASF163
 1790 0c44 09       		.byte	0x9
 1791 0c45 0408     		.2byte	0x804
 1792 0c47 4B0C0000 		.4byte	0xc4b
 1793 0c4b 0F       		.uleb128 0xf
 1794 0c4c AD000000 		.4byte	0xad
 1795 0c50 21       		.uleb128 0x21
 1796 0c51 4C020000 		.4byte	.LASF164
 1797 0c55 01       		.byte	0x1
 1798 0c56 27       		.byte	0x27
 1799 0c57 B8000000 		.4byte	0xb8
 1800 0c5b 05       		.uleb128 0x5
 1801 0c5c 03       		.byte	0x3
 1802 0c5d 00000000 		.4byte	SystemCoreClock
 1803 0c61 22       		.uleb128 0x22
 1804 0c62 636800   		.ascii	"ch\000"
 1805 0c65 07       		.byte	0x7
 1806 0c66 C701     		.2byte	0x1c7
 1807 0c68 E9030000 		.4byte	0x3e9
 1808 0c6c 23       		.uleb128 0x23
 1809 0c6d 8A060000 		.4byte	.LASF165
 1810 0c71 11       		.byte	0x11
 1811 0c72 9602     		.2byte	0x296
 1812 0c74 23       		.uleb128 0x23
 1813 0c75 4F040000 		.4byte	.LASF166
 1814 0c79 12       		.byte	0x12
 1815 0c7a 0A01     		.2byte	0x10a
 1816 0c7c 00       		.byte	0
 1817              		.section	.debug_abbrev,"",%progbits
 1818              	.Ldebug_abbrev0:
 1819 0000 01       		.uleb128 0x1
 1820 0001 11       		.uleb128 0x11
 1821 0002 01       		.byte	0x1
 1822 0003 25       		.uleb128 0x25
 1823 0004 0E       		.uleb128 0xe
 1824 0005 13       		.uleb128 0x13
ARM GAS  /tmp/ccstZhCX.s 			page 33


 1825 0006 0B       		.uleb128 0xb
 1826 0007 03       		.uleb128 0x3
 1827 0008 0E       		.uleb128 0xe
 1828 0009 1B       		.uleb128 0x1b
 1829 000a 0E       		.uleb128 0xe
 1830 000b 55       		.uleb128 0x55
 1831 000c 17       		.uleb128 0x17
 1832 000d 11       		.uleb128 0x11
 1833 000e 01       		.uleb128 0x1
 1834 000f 10       		.uleb128 0x10
 1835 0010 17       		.uleb128 0x17
 1836 0011 00       		.byte	0
 1837 0012 00       		.byte	0
 1838 0013 02       		.uleb128 0x2
 1839 0014 24       		.uleb128 0x24
 1840 0015 00       		.byte	0
 1841 0016 0B       		.uleb128 0xb
 1842 0017 0B       		.uleb128 0xb
 1843 0018 3E       		.uleb128 0x3e
 1844 0019 0B       		.uleb128 0xb
 1845 001a 03       		.uleb128 0x3
 1846 001b 08       		.uleb128 0x8
 1847 001c 00       		.byte	0
 1848 001d 00       		.byte	0
 1849 001e 03       		.uleb128 0x3
 1850 001f 16       		.uleb128 0x16
 1851 0020 00       		.byte	0
 1852 0021 03       		.uleb128 0x3
 1853 0022 0E       		.uleb128 0xe
 1854 0023 3A       		.uleb128 0x3a
 1855 0024 0B       		.uleb128 0xb
 1856 0025 3B       		.uleb128 0x3b
 1857 0026 0B       		.uleb128 0xb
 1858 0027 49       		.uleb128 0x49
 1859 0028 13       		.uleb128 0x13
 1860 0029 00       		.byte	0
 1861 002a 00       		.byte	0
 1862 002b 04       		.uleb128 0x4
 1863 002c 24       		.uleb128 0x24
 1864 002d 00       		.byte	0
 1865 002e 0B       		.uleb128 0xb
 1866 002f 0B       		.uleb128 0xb
 1867 0030 3E       		.uleb128 0x3e
 1868 0031 0B       		.uleb128 0xb
 1869 0032 03       		.uleb128 0x3
 1870 0033 0E       		.uleb128 0xe
 1871 0034 00       		.byte	0
 1872 0035 00       		.byte	0
 1873 0036 05       		.uleb128 0x5
 1874 0037 13       		.uleb128 0x13
 1875 0038 01       		.byte	0x1
 1876 0039 03       		.uleb128 0x3
 1877 003a 0E       		.uleb128 0xe
 1878 003b 0B       		.uleb128 0xb
 1879 003c 0B       		.uleb128 0xb
 1880 003d 3A       		.uleb128 0x3a
 1881 003e 0B       		.uleb128 0xb
ARM GAS  /tmp/ccstZhCX.s 			page 34


 1882 003f 3B       		.uleb128 0x3b
 1883 0040 0B       		.uleb128 0xb
 1884 0041 01       		.uleb128 0x1
 1885 0042 13       		.uleb128 0x13
 1886 0043 00       		.byte	0
 1887 0044 00       		.byte	0
 1888 0045 06       		.uleb128 0x6
 1889 0046 0D       		.uleb128 0xd
 1890 0047 00       		.byte	0
 1891 0048 03       		.uleb128 0x3
 1892 0049 0E       		.uleb128 0xe
 1893 004a 3A       		.uleb128 0x3a
 1894 004b 0B       		.uleb128 0xb
 1895 004c 3B       		.uleb128 0x3b
 1896 004d 0B       		.uleb128 0xb
 1897 004e 49       		.uleb128 0x49
 1898 004f 13       		.uleb128 0x13
 1899 0050 38       		.uleb128 0x38
 1900 0051 0B       		.uleb128 0xb
 1901 0052 00       		.byte	0
 1902 0053 00       		.byte	0
 1903 0054 07       		.uleb128 0x7
 1904 0055 0D       		.uleb128 0xd
 1905 0056 00       		.byte	0
 1906 0057 03       		.uleb128 0x3
 1907 0058 08       		.uleb128 0x8
 1908 0059 3A       		.uleb128 0x3a
 1909 005a 0B       		.uleb128 0xb
 1910 005b 3B       		.uleb128 0x3b
 1911 005c 0B       		.uleb128 0xb
 1912 005d 49       		.uleb128 0x49
 1913 005e 13       		.uleb128 0x13
 1914 005f 38       		.uleb128 0x38
 1915 0060 0B       		.uleb128 0xb
 1916 0061 00       		.byte	0
 1917 0062 00       		.byte	0
 1918 0063 08       		.uleb128 0x8
 1919 0064 0D       		.uleb128 0xd
 1920 0065 00       		.byte	0
 1921 0066 03       		.uleb128 0x3
 1922 0067 08       		.uleb128 0x8
 1923 0068 3A       		.uleb128 0x3a
 1924 0069 0B       		.uleb128 0xb
 1925 006a 3B       		.uleb128 0x3b
 1926 006b 05       		.uleb128 0x5
 1927 006c 49       		.uleb128 0x49
 1928 006d 13       		.uleb128 0x13
 1929 006e 38       		.uleb128 0x38
 1930 006f 0B       		.uleb128 0xb
 1931 0070 00       		.byte	0
 1932 0071 00       		.byte	0
 1933 0072 09       		.uleb128 0x9
 1934 0073 0D       		.uleb128 0xd
 1935 0074 00       		.byte	0
 1936 0075 03       		.uleb128 0x3
 1937 0076 0E       		.uleb128 0xe
 1938 0077 3A       		.uleb128 0x3a
ARM GAS  /tmp/ccstZhCX.s 			page 35


 1939 0078 0B       		.uleb128 0xb
 1940 0079 3B       		.uleb128 0x3b
 1941 007a 05       		.uleb128 0x5
 1942 007b 49       		.uleb128 0x49
 1943 007c 13       		.uleb128 0x13
 1944 007d 38       		.uleb128 0x38
 1945 007e 0B       		.uleb128 0xb
 1946 007f 00       		.byte	0
 1947 0080 00       		.byte	0
 1948 0081 0A       		.uleb128 0xa
 1949 0082 0F       		.uleb128 0xf
 1950 0083 00       		.byte	0
 1951 0084 0B       		.uleb128 0xb
 1952 0085 0B       		.uleb128 0xb
 1953 0086 49       		.uleb128 0x49
 1954 0087 13       		.uleb128 0x13
 1955 0088 00       		.byte	0
 1956 0089 00       		.byte	0
 1957 008a 0B       		.uleb128 0xb
 1958 008b 13       		.uleb128 0x13
 1959 008c 01       		.byte	0x1
 1960 008d 03       		.uleb128 0x3
 1961 008e 0E       		.uleb128 0xe
 1962 008f 0B       		.uleb128 0xb
 1963 0090 0B       		.uleb128 0xb
 1964 0091 3A       		.uleb128 0x3a
 1965 0092 0B       		.uleb128 0xb
 1966 0093 3B       		.uleb128 0x3b
 1967 0094 05       		.uleb128 0x5
 1968 0095 01       		.uleb128 0x1
 1969 0096 13       		.uleb128 0x13
 1970 0097 00       		.byte	0
 1971 0098 00       		.byte	0
 1972 0099 0C       		.uleb128 0xc
 1973 009a 15       		.uleb128 0x15
 1974 009b 01       		.byte	0x1
 1975 009c 27       		.uleb128 0x27
 1976 009d 19       		.uleb128 0x19
 1977 009e 01       		.uleb128 0x1
 1978 009f 13       		.uleb128 0x13
 1979 00a0 00       		.byte	0
 1980 00a1 00       		.byte	0
 1981 00a2 0D       		.uleb128 0xd
 1982 00a3 05       		.uleb128 0x5
 1983 00a4 00       		.byte	0
 1984 00a5 49       		.uleb128 0x49
 1985 00a6 13       		.uleb128 0x13
 1986 00a7 00       		.byte	0
 1987 00a8 00       		.byte	0
 1988 00a9 0E       		.uleb128 0xe
 1989 00aa 0F       		.uleb128 0xf
 1990 00ab 00       		.byte	0
 1991 00ac 0B       		.uleb128 0xb
 1992 00ad 0B       		.uleb128 0xb
 1993 00ae 00       		.byte	0
 1994 00af 00       		.byte	0
 1995 00b0 0F       		.uleb128 0xf
ARM GAS  /tmp/ccstZhCX.s 			page 36


 1996 00b1 35       		.uleb128 0x35
 1997 00b2 00       		.byte	0
 1998 00b3 49       		.uleb128 0x49
 1999 00b4 13       		.uleb128 0x13
 2000 00b5 00       		.byte	0
 2001 00b6 00       		.byte	0
 2002 00b7 10       		.uleb128 0x10
 2003 00b8 13       		.uleb128 0x13
 2004 00b9 01       		.byte	0x1
 2005 00ba 0B       		.uleb128 0xb
 2006 00bb 0B       		.uleb128 0xb
 2007 00bc 3A       		.uleb128 0x3a
 2008 00bd 0B       		.uleb128 0xb
 2009 00be 3B       		.uleb128 0x3b
 2010 00bf 05       		.uleb128 0x5
 2011 00c0 01       		.uleb128 0x1
 2012 00c1 13       		.uleb128 0x13
 2013 00c2 00       		.byte	0
 2014 00c3 00       		.byte	0
 2015 00c4 11       		.uleb128 0x11
 2016 00c5 26       		.uleb128 0x26
 2017 00c6 00       		.byte	0
 2018 00c7 49       		.uleb128 0x49
 2019 00c8 13       		.uleb128 0x13
 2020 00c9 00       		.byte	0
 2021 00ca 00       		.byte	0
 2022 00cb 12       		.uleb128 0x12
 2023 00cc 01       		.uleb128 0x1
 2024 00cd 01       		.byte	0x1
 2025 00ce 49       		.uleb128 0x49
 2026 00cf 13       		.uleb128 0x13
 2027 00d0 01       		.uleb128 0x1
 2028 00d1 13       		.uleb128 0x13
 2029 00d2 00       		.byte	0
 2030 00d3 00       		.byte	0
 2031 00d4 13       		.uleb128 0x13
 2032 00d5 21       		.uleb128 0x21
 2033 00d6 00       		.byte	0
 2034 00d7 49       		.uleb128 0x49
 2035 00d8 13       		.uleb128 0x13
 2036 00d9 2F       		.uleb128 0x2f
 2037 00da 0B       		.uleb128 0xb
 2038 00db 00       		.byte	0
 2039 00dc 00       		.byte	0
 2040 00dd 14       		.uleb128 0x14
 2041 00de 16       		.uleb128 0x16
 2042 00df 00       		.byte	0
 2043 00e0 03       		.uleb128 0x3
 2044 00e1 0E       		.uleb128 0xe
 2045 00e2 3A       		.uleb128 0x3a
 2046 00e3 0B       		.uleb128 0xb
 2047 00e4 3B       		.uleb128 0x3b
 2048 00e5 05       		.uleb128 0x5
 2049 00e6 49       		.uleb128 0x49
 2050 00e7 13       		.uleb128 0x13
 2051 00e8 00       		.byte	0
 2052 00e9 00       		.byte	0
ARM GAS  /tmp/ccstZhCX.s 			page 37


 2053 00ea 15       		.uleb128 0x15
 2054 00eb 13       		.uleb128 0x13
 2055 00ec 01       		.byte	0x1
 2056 00ed 0B       		.uleb128 0xb
 2057 00ee 0B       		.uleb128 0xb
 2058 00ef 3A       		.uleb128 0x3a
 2059 00f0 0B       		.uleb128 0xb
 2060 00f1 3B       		.uleb128 0x3b
 2061 00f2 0B       		.uleb128 0xb
 2062 00f3 01       		.uleb128 0x1
 2063 00f4 13       		.uleb128 0x13
 2064 00f5 00       		.byte	0
 2065 00f6 00       		.byte	0
 2066 00f7 16       		.uleb128 0x16
 2067 00f8 17       		.uleb128 0x17
 2068 00f9 01       		.byte	0x1
 2069 00fa 0B       		.uleb128 0xb
 2070 00fb 0B       		.uleb128 0xb
 2071 00fc 3A       		.uleb128 0x3a
 2072 00fd 0B       		.uleb128 0xb
 2073 00fe 3B       		.uleb128 0x3b
 2074 00ff 0B       		.uleb128 0xb
 2075 0100 01       		.uleb128 0x1
 2076 0101 13       		.uleb128 0x13
 2077 0102 00       		.byte	0
 2078 0103 00       		.byte	0
 2079 0104 17       		.uleb128 0x17
 2080 0105 0D       		.uleb128 0xd
 2081 0106 00       		.byte	0
 2082 0107 03       		.uleb128 0x3
 2083 0108 0E       		.uleb128 0xe
 2084 0109 3A       		.uleb128 0x3a
 2085 010a 0B       		.uleb128 0xb
 2086 010b 3B       		.uleb128 0x3b
 2087 010c 0B       		.uleb128 0xb
 2088 010d 49       		.uleb128 0x49
 2089 010e 13       		.uleb128 0x13
 2090 010f 00       		.byte	0
 2091 0110 00       		.byte	0
 2092 0111 18       		.uleb128 0x18
 2093 0112 0D       		.uleb128 0xd
 2094 0113 00       		.byte	0
 2095 0114 03       		.uleb128 0x3
 2096 0115 0E       		.uleb128 0xe
 2097 0116 3A       		.uleb128 0x3a
 2098 0117 0B       		.uleb128 0xb
 2099 0118 3B       		.uleb128 0x3b
 2100 0119 05       		.uleb128 0x5
 2101 011a 49       		.uleb128 0x49
 2102 011b 13       		.uleb128 0x13
 2103 011c 00       		.byte	0
 2104 011d 00       		.byte	0
 2105 011e 19       		.uleb128 0x19
 2106 011f 2E       		.uleb128 0x2e
 2107 0120 00       		.byte	0
 2108 0121 03       		.uleb128 0x3
 2109 0122 0E       		.uleb128 0xe
ARM GAS  /tmp/ccstZhCX.s 			page 38


 2110 0123 3A       		.uleb128 0x3a
 2111 0124 0B       		.uleb128 0xb
 2112 0125 3B       		.uleb128 0x3b
 2113 0126 0B       		.uleb128 0xb
 2114 0127 27       		.uleb128 0x27
 2115 0128 19       		.uleb128 0x19
 2116 0129 20       		.uleb128 0x20
 2117 012a 0B       		.uleb128 0xb
 2118 012b 00       		.byte	0
 2119 012c 00       		.byte	0
 2120 012d 1A       		.uleb128 0x1a
 2121 012e 2E       		.uleb128 0x2e
 2122 012f 01       		.byte	0x1
 2123 0130 3F       		.uleb128 0x3f
 2124 0131 19       		.uleb128 0x19
 2125 0132 03       		.uleb128 0x3
 2126 0133 0E       		.uleb128 0xe
 2127 0134 3A       		.uleb128 0x3a
 2128 0135 0B       		.uleb128 0xb
 2129 0136 3B       		.uleb128 0x3b
 2130 0137 0B       		.uleb128 0xb
 2131 0138 27       		.uleb128 0x27
 2132 0139 19       		.uleb128 0x19
 2133 013a 11       		.uleb128 0x11
 2134 013b 01       		.uleb128 0x1
 2135 013c 12       		.uleb128 0x12
 2136 013d 06       		.uleb128 0x6
 2137 013e 40       		.uleb128 0x40
 2138 013f 18       		.uleb128 0x18
 2139 0140 9742     		.uleb128 0x2117
 2140 0142 19       		.uleb128 0x19
 2141 0143 01       		.uleb128 0x1
 2142 0144 13       		.uleb128 0x13
 2143 0145 00       		.byte	0
 2144 0146 00       		.byte	0
 2145 0147 1B       		.uleb128 0x1b
 2146 0148 1D       		.uleb128 0x1d
 2147 0149 00       		.byte	0
 2148 014a 31       		.uleb128 0x31
 2149 014b 13       		.uleb128 0x13
 2150 014c 11       		.uleb128 0x11
 2151 014d 01       		.uleb128 0x1
 2152 014e 12       		.uleb128 0x12
 2153 014f 06       		.uleb128 0x6
 2154 0150 58       		.uleb128 0x58
 2155 0151 0B       		.uleb128 0xb
 2156 0152 59       		.uleb128 0x59
 2157 0153 0B       		.uleb128 0xb
 2158 0154 00       		.byte	0
 2159 0155 00       		.byte	0
 2160 0156 1C       		.uleb128 0x1c
 2161 0157 898201   		.uleb128 0x4109
 2162 015a 00       		.byte	0
 2163 015b 11       		.uleb128 0x11
 2164 015c 01       		.uleb128 0x1
 2165 015d 31       		.uleb128 0x31
 2166 015e 13       		.uleb128 0x13
ARM GAS  /tmp/ccstZhCX.s 			page 39


 2167 015f 00       		.byte	0
 2168 0160 00       		.byte	0
 2169 0161 1D       		.uleb128 0x1d
 2170 0162 898201   		.uleb128 0x4109
 2171 0165 00       		.byte	0
 2172 0166 11       		.uleb128 0x11
 2173 0167 01       		.uleb128 0x1
 2174 0168 9542     		.uleb128 0x2115
 2175 016a 19       		.uleb128 0x19
 2176 016b 31       		.uleb128 0x31
 2177 016c 13       		.uleb128 0x13
 2178 016d 00       		.byte	0
 2179 016e 00       		.byte	0
 2180 016f 1E       		.uleb128 0x1e
 2181 0170 0B       		.uleb128 0xb
 2182 0171 01       		.byte	0x1
 2183 0172 11       		.uleb128 0x11
 2184 0173 01       		.uleb128 0x1
 2185 0174 12       		.uleb128 0x12
 2186 0175 06       		.uleb128 0x6
 2187 0176 00       		.byte	0
 2188 0177 00       		.byte	0
 2189 0178 1F       		.uleb128 0x1f
 2190 0179 34       		.uleb128 0x34
 2191 017a 00       		.byte	0
 2192 017b 03       		.uleb128 0x3
 2193 017c 0E       		.uleb128 0xe
 2194 017d 3A       		.uleb128 0x3a
 2195 017e 0B       		.uleb128 0xb
 2196 017f 3B       		.uleb128 0x3b
 2197 0180 05       		.uleb128 0x5
 2198 0181 49       		.uleb128 0x49
 2199 0182 13       		.uleb128 0x13
 2200 0183 1C       		.uleb128 0x1c
 2201 0184 0B       		.uleb128 0xb
 2202 0185 00       		.byte	0
 2203 0186 00       		.byte	0
 2204 0187 20       		.uleb128 0x20
 2205 0188 34       		.uleb128 0x34
 2206 0189 00       		.byte	0
 2207 018a 03       		.uleb128 0x3
 2208 018b 0E       		.uleb128 0xe
 2209 018c 3A       		.uleb128 0x3a
 2210 018d 0B       		.uleb128 0xb
 2211 018e 3B       		.uleb128 0x3b
 2212 018f 05       		.uleb128 0x5
 2213 0190 49       		.uleb128 0x49
 2214 0191 13       		.uleb128 0x13
 2215 0192 3F       		.uleb128 0x3f
 2216 0193 19       		.uleb128 0x19
 2217 0194 3C       		.uleb128 0x3c
 2218 0195 19       		.uleb128 0x19
 2219 0196 00       		.byte	0
 2220 0197 00       		.byte	0
 2221 0198 21       		.uleb128 0x21
 2222 0199 34       		.uleb128 0x34
 2223 019a 00       		.byte	0
ARM GAS  /tmp/ccstZhCX.s 			page 40


 2224 019b 03       		.uleb128 0x3
 2225 019c 0E       		.uleb128 0xe
 2226 019d 3A       		.uleb128 0x3a
 2227 019e 0B       		.uleb128 0xb
 2228 019f 3B       		.uleb128 0x3b
 2229 01a0 0B       		.uleb128 0xb
 2230 01a1 49       		.uleb128 0x49
 2231 01a2 13       		.uleb128 0x13
 2232 01a3 3F       		.uleb128 0x3f
 2233 01a4 19       		.uleb128 0x19
 2234 01a5 02       		.uleb128 0x2
 2235 01a6 18       		.uleb128 0x18
 2236 01a7 00       		.byte	0
 2237 01a8 00       		.byte	0
 2238 01a9 22       		.uleb128 0x22
 2239 01aa 34       		.uleb128 0x34
 2240 01ab 00       		.byte	0
 2241 01ac 03       		.uleb128 0x3
 2242 01ad 08       		.uleb128 0x8
 2243 01ae 3A       		.uleb128 0x3a
 2244 01af 0B       		.uleb128 0xb
 2245 01b0 3B       		.uleb128 0x3b
 2246 01b1 05       		.uleb128 0x5
 2247 01b2 49       		.uleb128 0x49
 2248 01b3 13       		.uleb128 0x13
 2249 01b4 3F       		.uleb128 0x3f
 2250 01b5 19       		.uleb128 0x19
 2251 01b6 3C       		.uleb128 0x3c
 2252 01b7 19       		.uleb128 0x19
 2253 01b8 00       		.byte	0
 2254 01b9 00       		.byte	0
 2255 01ba 23       		.uleb128 0x23
 2256 01bb 2E       		.uleb128 0x2e
 2257 01bc 00       		.byte	0
 2258 01bd 3F       		.uleb128 0x3f
 2259 01be 19       		.uleb128 0x19
 2260 01bf 03       		.uleb128 0x3
 2261 01c0 0E       		.uleb128 0xe
 2262 01c1 3A       		.uleb128 0x3a
 2263 01c2 0B       		.uleb128 0xb
 2264 01c3 3B       		.uleb128 0x3b
 2265 01c4 05       		.uleb128 0x5
 2266 01c5 27       		.uleb128 0x27
 2267 01c6 19       		.uleb128 0x19
 2268 01c7 3C       		.uleb128 0x3c
 2269 01c8 19       		.uleb128 0x19
 2270 01c9 00       		.byte	0
 2271 01ca 00       		.byte	0
 2272 01cb 00       		.byte	0
 2273              		.section	.debug_aranges,"",%progbits
 2274 0000 24000000 		.4byte	0x24
 2275 0004 0200     		.2byte	0x2
 2276 0006 00000000 		.4byte	.Ldebug_info0
 2277 000a 04       		.byte	0x4
 2278 000b 00       		.byte	0
 2279 000c 0000     		.2byte	0
 2280 000e 0000     		.2byte	0
ARM GAS  /tmp/ccstZhCX.s 			page 41


 2281 0010 00000000 		.4byte	.LFB324
 2282 0014 94000000 		.4byte	.LFE324-.LFB324
 2283 0018 00000000 		.4byte	.LFB325
 2284 001c F4000000 		.4byte	.LFE325-.LFB325
 2285 0020 00000000 		.4byte	0
 2286 0024 00000000 		.4byte	0
 2287              		.section	.debug_ranges,"",%progbits
 2288              	.Ldebug_ranges0:
 2289 0000 00000000 		.4byte	.LFB324
 2290 0004 94000000 		.4byte	.LFE324
 2291 0008 00000000 		.4byte	.LFB325
 2292 000c F4000000 		.4byte	.LFE325
 2293 0010 00000000 		.4byte	0
 2294 0014 00000000 		.4byte	0
 2295              		.section	.debug_line,"",%progbits
 2296              	.Ldebug_line0:
 2297 0000 AF030000 		.section	.debug_str,"MS",%progbits,1
 2297      02002803 
 2297      00000201 
 2297      FB0E0D00 
 2297      01010101 
 2298              	.LASF46:
 2299 0000 74687265 		.ascii	"threads_list_t\000"
 2299      6164735F 
 2299      6C697374 
 2299      5F7400
 2300              	.LASF53:
 2301 000f 72656164 		.ascii	"ready_list_t\000"
 2301      795F6C69 
 2301      73745F74 
 2301      00
 2302              	.LASF2:
 2303 001c 73697A65 		.ascii	"size_t\000"
 2303      5F7400
 2304              	.LASF59:
 2305 0023 64656C74 		.ascii	"delta\000"
 2305      6100
 2306              	.LASF147:
 2307 0029 7264796D 		.ascii	"rdymsg\000"
 2307      736700
 2308              	.LASF17:
 2309 0030 75696E74 		.ascii	"uint64_t\000"
 2309      36345F74 
 2309      00
 2310              	.LASF72:
 2311 0039 6B65726E 		.ascii	"kernel_stats\000"
 2311      656C5F73 
 2311      74617473 
 2311      00
 2312              	.LASF3:
 2313 0046 5F5F7569 		.ascii	"__uint8_t\000"
 2313      6E74385F 
 2313      7400
 2314              	.LASF52:
 2315 0050 70726576 		.ascii	"prev\000"
 2315      00
 2316              	.LASF134:
ARM GAS  /tmp/ccstZhCX.s 			page 42


 2317 0055 706F7274 		.ascii	"port_intctx\000"
 2317      5F696E74 
 2317      63747800 
 2318              	.LASF51:
 2319 0061 63685F74 		.ascii	"ch_threads_queue\000"
 2319      68726561 
 2319      64735F71 
 2319      75657565 
 2319      00
 2320              	.LASF64:
 2321 0072 73797374 		.ascii	"system_debug_t\000"
 2321      656D5F64 
 2321      65627567 
 2321      5F7400
 2322              	.LASF133:
 2323 0081 706F7274 		.ascii	"port_context\000"
 2323      5F636F6E 
 2323      74657874 
 2323      00
 2324              	.LASF138:
 2325 008e 776F7273 		.ascii	"worst\000"
 2325      7400
 2326              	.LASF99:
 2327 0094 4F505443 		.ascii	"OPTCR1\000"
 2327      523100
 2328              	.LASF141:
 2329 009b 74696D65 		.ascii	"time_measurement_t\000"
 2329      5F6D6561 
 2329      73757265 
 2329      6D656E74 
 2329      5F7400
 2330              	.LASF13:
 2331 00ae 6C6F6E67 		.ascii	"long long unsigned int\000"
 2331      206C6F6E 
 2331      6720756E 
 2331      7369676E 
 2331      65642069 
 2332              	.LASF148:
 2333 00c5 65786974 		.ascii	"exitcode\000"
 2333      636F6465 
 2333      00
 2334              	.LASF71:
 2335 00ce 6D61696E 		.ascii	"mainthread\000"
 2335      74687265 
 2335      616400
 2336              	.LASF151:
 2337 00d9 73656E74 		.ascii	"sentmsg\000"
 2337      6D736700 
 2338              	.LASF61:
 2339 00e1 76697274 		.ascii	"virtual_timers_list_t\000"
 2339      75616C5F 
 2339      74696D65 
 2339      72735F6C 
 2339      6973745F 
 2340              	.LASF76:
 2341 00f7 43505549 		.ascii	"CPUID\000"
 2341      4400
ARM GAS  /tmp/ccstZhCX.s 			page 43


 2342              	.LASF49:
 2343 00fd 6E657874 		.ascii	"next\000"
 2343      00
 2344              	.LASF19:
 2345 0102 72747469 		.ascii	"rttime_t\000"
 2345      6D655F74 
 2345      00
 2346              	.LASF117:
 2347 010b 41484231 		.ascii	"AHB1LPENR\000"
 2347      4C50454E 
 2347      5200
 2348              	.LASF37:
 2349 0115 72656673 		.ascii	"refs\000"
 2349      00
 2350              	.LASF129:
 2351 011a 44434B43 		.ascii	"DCKCFGR\000"
 2351      46475200 
 2352              	.LASF11:
 2353 0122 6C6F6E67 		.ascii	"long long int\000"
 2353      206C6F6E 
 2353      6720696E 
 2353      7400
 2354              	.LASF1:
 2355 0130 7369676E 		.ascii	"signed char\000"
 2355      65642063 
 2355      68617200 
 2356              	.LASF104:
 2357 013c 41484231 		.ascii	"AHB1RSTR\000"
 2357      52535452 
 2357      00
 2358              	.LASF100:
 2359 0145 464C4153 		.ascii	"FLASH_TypeDef\000"
 2359      485F5479 
 2359      70654465 
 2359      6600
 2360              	.LASF88:
 2361 0153 49534152 		.ascii	"ISAR\000"
 2361      00
 2362              	.LASF70:
 2363 0158 76746C69 		.ascii	"vtlist\000"
 2363      737400
 2364              	.LASF101:
 2365 015f 5057525F 		.ascii	"PWR_TypeDef\000"
 2365      54797065 
 2365      44656600 
 2366              	.LASF39:
 2367 016b 6D736771 		.ascii	"msgqueue\000"
 2367      75657565 
 2367      00
 2368              	.LASF35:
 2369 0174 73746174 		.ascii	"state\000"
 2369      6500
 2370              	.LASF68:
 2371 017a 63685F73 		.ascii	"ch_system\000"
 2371      79737465 
 2371      6D00
 2372              	.LASF8:
ARM GAS  /tmp/ccstZhCX.s 			page 44


 2373 0184 6C6F6E67 		.ascii	"long int\000"
 2373      20696E74 
 2373      00
 2374              	.LASF92:
 2375 018d 4944434F 		.ascii	"IDCODE\000"
 2375      444500
 2376              	.LASF108:
 2377 0194 41504232 		.ascii	"APB2RSTR\000"
 2377      52535452 
 2377      00
 2378              	.LASF121:
 2379 019d 41504231 		.ascii	"APB1LPENR\000"
 2379      4C50454E 
 2379      5200
 2380              	.LASF21:
 2381 01a7 74737461 		.ascii	"tstate_t\000"
 2381      74655F74 
 2381      00
 2382              	.LASF60:
 2383 01b0 66756E63 		.ascii	"func\000"
 2383      00
 2384              	.LASF44:
 2385 01b5 73746174 		.ascii	"stats\000"
 2385      7300
 2386              	.LASF171:
 2387 01bb 64636B63 		.ascii	"dckcfgr\000"
 2387      66677200 
 2388              	.LASF97:
 2389 01c3 4F50544B 		.ascii	"OPTKEYR\000"
 2389      45595200 
 2390              	.LASF86:
 2391 01cb 41465352 		.ascii	"AFSR\000"
 2391      00
 2392              	.LASF9:
 2393 01d0 5F5F7569 		.ascii	"__uint32_t\000"
 2393      6E743332 
 2393      5F7400
 2394              	.LASF131:
 2395 01db 72656761 		.ascii	"regarm_t\000"
 2395      726D5F74 
 2395      00
 2396              	.LASF91:
 2397 01e4 5343425F 		.ascii	"SCB_Type\000"
 2397      54797065 
 2397      00
 2398              	.LASF96:
 2399 01ed 4B455952 		.ascii	"KEYR\000"
 2399      00
 2400              	.LASF65:
 2401 01f2 63685F73 		.ascii	"ch_system_debug\000"
 2401      79737465 
 2401      6D5F6465 
 2401      62756700 
 2402              	.LASF38:
 2403 0202 77616974 		.ascii	"waiting\000"
 2403      696E6700 
 2404              	.LASF162:
ARM GAS  /tmp/ccstZhCX.s 			page 45


 2405 020a 73746D33 		.ascii	"stm32_clock_init\000"
 2405      325F636C 
 2405      6F636B5F 
 2405      696E6974 
 2405      00
 2406              	.LASF159:
 2407 021b 6D757465 		.ascii	"mutex_t\000"
 2407      785F7400 
 2408              	.LASF110:
 2409 0223 41484231 		.ascii	"AHB1ENR\000"
 2409      454E5200 
 2410              	.LASF74:
 2411 022b 73797369 		.ascii	"sysinterval_t\000"
 2411      6E746572 
 2411      76616C5F 
 2411      7400
 2412              	.LASF26:
 2413 0239 636E745F 		.ascii	"cnt_t\000"
 2413      7400
 2414              	.LASF0:
 2415 023f 756E7369 		.ascii	"unsigned int\000"
 2415      676E6564 
 2415      20696E74 
 2415      00
 2416              	.LASF164:
 2417 024c 53797374 		.ascii	"SystemCoreClock\000"
 2417      656D436F 
 2417      7265436C 
 2417      6F636B00 
 2418              	.LASF152:
 2419 025c 77747365 		.ascii	"wtsemp\000"
 2419      6D7000
 2420              	.LASF169:
 2421 0263 2F686F6D 		.ascii	"/home/mike/Documents/haggis-aero-2019/pixhawk/build"
 2421      652F6D69 
 2421      6B652F44 
 2421      6F63756D 
 2421      656E7473 
 2422 0296 2F437562 		.ascii	"/CubeBlack\000"
 2422      65426C61 
 2422      636B00
 2423              	.LASF150:
 2424 02a1 77747472 		.ascii	"wttrp\000"
 2424      7000
 2425              	.LASF130:
 2426 02a7 5243435F 		.ascii	"RCC_TypeDef\000"
 2426      54797065 
 2426      44656600 
 2427              	.LASF142:
 2428 02b3 6E5F6972 		.ascii	"n_irq\000"
 2428      7100
 2429              	.LASF78:
 2430 02b9 56544F52 		.ascii	"VTOR\000"
 2430      00
 2431              	.LASF84:
 2432 02be 4D4D4641 		.ascii	"MMFAR\000"
 2432      5200
ARM GAS  /tmp/ccstZhCX.s 			page 46


 2433              	.LASF43:
 2434 02c4 6D706F6F 		.ascii	"mpool\000"
 2434      6C00
 2435              	.LASF146:
 2436 02ca 6B65726E 		.ascii	"kernel_stats_t\000"
 2436      656C5F73 
 2436      74617473 
 2436      5F7400
 2437              	.LASF33:
 2438 02d9 6E616D65 		.ascii	"name\000"
 2438      00
 2439              	.LASF47:
 2440 02de 63685F74 		.ascii	"ch_thread\000"
 2440      68726561 
 2440      6400
 2441              	.LASF127:
 2442 02e8 504C4C49 		.ascii	"PLLI2SCFGR\000"
 2442      32534346 
 2442      475200
 2443              	.LASF77:
 2444 02f3 49435352 		.ascii	"ICSR\000"
 2444      00
 2445              	.LASF24:
 2446 02f8 6D73675F 		.ascii	"msg_t\000"
 2446      7400
 2447              	.LASF79:
 2448 02fe 41495243 		.ascii	"AIRCR\000"
 2448      5200
 2449              	.LASF83:
 2450 0304 44465352 		.ascii	"DFSR\000"
 2450      00
 2451              	.LASF27:
 2452 0309 75636E74 		.ascii	"ucnt_t\000"
 2452      5F7400
 2453              	.LASF170:
 2454 0310 68616C5F 		.ascii	"hal_lld_backup_domain_init\000"
 2454      6C6C645F 
 2454      6261636B 
 2454      75705F64 
 2454      6F6D6169 
 2455              	.LASF94:
 2456 032b 41504232 		.ascii	"APB2FZ\000"
 2456      465A00
 2457              	.LASF67:
 2458 0332 63685F73 		.ascii	"ch_system_t\000"
 2458      79737465 
 2458      6D5F7400 
 2459              	.LASF20:
 2460 033e 746D6F64 		.ascii	"tmode_t\000"
 2460      655F7400 
 2461              	.LASF122:
 2462 0346 41504232 		.ascii	"APB2LPENR\000"
 2462      4C50454E 
 2462      5200
 2463              	.LASF145:
 2464 0350 6D5F6372 		.ascii	"m_crit_isr\000"
 2464      69745F69 
ARM GAS  /tmp/ccstZhCX.s 			page 47


 2464      737200
 2465              	.LASF54:
 2466 035b 63685F72 		.ascii	"ch_ready_list\000"
 2466      65616479 
 2466      5F6C6973 
 2466      7400
 2467              	.LASF25:
 2468 0369 6576656E 		.ascii	"eventmask_t\000"
 2468      746D6173 
 2468      6B5F7400 
 2469              	.LASF7:
 2470 0375 5F5F696E 		.ascii	"__int32_t\000"
 2470      7433325F 
 2470      7400
 2471              	.LASF128:
 2472 037f 504C4C53 		.ascii	"PLLSAICFGR\000"
 2472      41494346 
 2472      475200
 2473              	.LASF132:
 2474 038a 73746B61 		.ascii	"stkalign_t\000"
 2474      6C69676E 
 2474      5F7400
 2475              	.LASF31:
 2476 0395 6E657765 		.ascii	"newer\000"
 2476      7200
 2477              	.LASF57:
 2478 039b 76697274 		.ascii	"virtual_timer_t\000"
 2478      75616C5F 
 2478      74696D65 
 2478      725F7400 
 2479              	.LASF42:
 2480 03ab 7265616C 		.ascii	"realprio\000"
 2480      7072696F 
 2480      00
 2481              	.LASF75:
 2482 03b4 73697A65 		.ascii	"sizetype\000"
 2482      74797065 
 2482      00
 2483              	.LASF45:
 2484 03bd 74687265 		.ascii	"thread_reference_t\000"
 2484      61645F72 
 2484      65666572 
 2484      656E6365 
 2484      5F7400
 2485              	.LASF62:
 2486 03d0 63685F76 		.ascii	"ch_virtual_timers_list\000"
 2486      69727475 
 2486      616C5F74 
 2486      696D6572 
 2486      735F6C69 
 2487              	.LASF29:
 2488 03e7 71756575 		.ascii	"queue\000"
 2488      6500
 2489              	.LASF81:
 2490 03ed 43465352 		.ascii	"CFSR\000"
 2490      00
 2491              	.LASF112:
ARM GAS  /tmp/ccstZhCX.s 			page 48


 2492 03f2 41484233 		.ascii	"AHB3ENR\000"
 2492      454E5200 
 2493              	.LASF98:
 2494 03fa 4F505443 		.ascii	"OPTCR\000"
 2494      5200
 2495              	.LASF118:
 2496 0400 41484232 		.ascii	"AHB2LPENR\000"
 2496      4C50454E 
 2496      5200
 2497              	.LASF136:
 2498 040a 746D5F63 		.ascii	"tm_calibration_t\000"
 2498      616C6962 
 2498      72617469 
 2498      6F6E5F74 
 2498      00
 2499              	.LASF102:
 2500 041b 504C4C43 		.ascii	"PLLCFGR\000"
 2500      46475200 
 2501              	.LASF30:
 2502 0423 7072696F 		.ascii	"prio\000"
 2502      00
 2503              	.LASF107:
 2504 0428 41504231 		.ascii	"APB1RSTR\000"
 2504      52535452 
 2504      00
 2505              	.LASF55:
 2506 0431 63757272 		.ascii	"current\000"
 2506      656E7400 
 2507              	.LASF12:
 2508 0439 5F5F7569 		.ascii	"__uint64_t\000"
 2508      6E743634 
 2508      5F7400
 2509              	.LASF140:
 2510 0444 63756D75 		.ascii	"cumulative\000"
 2510      6C617469 
 2510      766500
 2511              	.LASF166:
 2512 044f 69727149 		.ascii	"irqInit\000"
 2512      6E697400 
 2513              	.LASF93:
 2514 0457 41504231 		.ascii	"APB1FZ\000"
 2514      465A00
 2515              	.LASF22:
 2516 045e 74726566 		.ascii	"trefs_t\000"
 2516      735F7400 
 2517              	.LASF89:
 2518 0466 52455345 		.ascii	"RESERVED0\000"
 2518      52564544 
 2518      3000
 2519              	.LASF109:
 2520 0470 52455345 		.ascii	"RESERVED1\000"
 2520      52564544 
 2520      3100
 2521              	.LASF113:
 2522 047a 52455345 		.ascii	"RESERVED2\000"
 2522      52564544 
 2522      3200
ARM GAS  /tmp/ccstZhCX.s 			page 49


 2523              	.LASF116:
 2524 0484 52455345 		.ascii	"RESERVED3\000"
 2524      52564544 
 2524      3300
 2525              	.LASF120:
 2526 048e 52455345 		.ascii	"RESERVED4\000"
 2526      52564544 
 2526      3400
 2527              	.LASF123:
 2528 0498 52455345 		.ascii	"RESERVED5\000"
 2528      52564544 
 2528      3500
 2529              	.LASF125:
 2530 04a2 52455345 		.ascii	"RESERVED6\000"
 2530      52564544 
 2530      3600
 2531              	.LASF23:
 2532 04ac 74707269 		.ascii	"tprio_t\000"
 2532      6F5F7400 
 2533              	.LASF143:
 2534 04b4 6E5F6374 		.ascii	"n_ctxswc\000"
 2534      78737763 
 2534      00
 2535              	.LASF160:
 2536 04bd 5F426F6F 		.ascii	"_Bool\000"
 2536      6C00
 2537              	.LASF15:
 2538 04c3 696E7433 		.ascii	"int32_t\000"
 2538      325F7400 
 2539              	.LASF4:
 2540 04cb 756E7369 		.ascii	"unsigned char\000"
 2540      676E6564 
 2540      20636861 
 2540      7200
 2541              	.LASF167:
 2542 04d9 474E5520 		.ascii	"GNU C 4.9.3 20150529 (release) [ARM/embedded-4_9-br"
 2542      4320342E 
 2542      392E3320 
 2542      32303135 
 2542      30353239 
 2543 050c 616E6368 		.ascii	"anch revision 227977] -mcpu=cortex-m4 -mfloat-abi=h"
 2543      20726576 
 2543      6973696F 
 2543      6E203232 
 2543      37393737 
 2544 053f 61726420 		.ascii	"ard -mfpu=fpv4-sp-d16 -mno-thumb-interwork -mthumb "
 2544      2D6D6670 
 2544      753D6670 
 2544      76342D73 
 2544      702D6431 
 2545 0572 2D67202D 		.ascii	"-g -Os -fomit-frame-pointer -falign-functions=16 -f"
 2545      4F73202D 
 2545      666F6D69 
 2545      742D6672 
 2545      616D652D 
 2546 05a5 66756E63 		.ascii	"function-sections -fdata-sections -fno-common -fsin"
 2546      74696F6E 
ARM GAS  /tmp/ccstZhCX.s 			page 50


 2546      2D736563 
 2546      74696F6E 
 2546      73202D66 
 2547 05d8 676C652D 		.ascii	"gle-precision-constant\000"
 2547      70726563 
 2547      6973696F 
 2547      6E2D636F 
 2547      6E737461 
 2548              	.LASF80:
 2549 05ef 53484353 		.ascii	"SHCSR\000"
 2549      5200
 2550              	.LASF163:
 2551 05f5 49544D5F 		.ascii	"ITM_RxBuffer\000"
 2551      52784275 
 2551      66666572 
 2551      00
 2552              	.LASF5:
 2553 0602 73686F72 		.ascii	"short int\000"
 2553      7420696E 
 2553      7400
 2554              	.LASF63:
 2555 060c 6C617374 		.ascii	"lasttime\000"
 2555      74696D65 
 2555      00
 2556              	.LASF119:
 2557 0615 41484233 		.ascii	"AHB3LPENR\000"
 2557      4C50454E 
 2557      5200
 2558              	.LASF154:
 2559 061f 65776D61 		.ascii	"ewmask\000"
 2559      736B00
 2560              	.LASF115:
 2561 0626 41504232 		.ascii	"APB2ENR\000"
 2561      454E5200 
 2562              	.LASF106:
 2563 062e 41484233 		.ascii	"AHB3RSTR\000"
 2563      52535452 
 2563      00
 2564              	.LASF58:
 2565 0637 63685F76 		.ascii	"ch_virtual_timer\000"
 2565      69727475 
 2565      616C5F74 
 2565      696D6572 
 2565      00
 2566              	.LASF155:
 2567 0648 63685F73 		.ascii	"ch_semaphore\000"
 2567      656D6170 
 2567      686F7265 
 2567      00
 2568              	.LASF95:
 2569 0655 4442474D 		.ascii	"DBGMCU_TypeDef\000"
 2569      43555F54 
 2569      79706544 
 2569      656600
 2570              	.LASF16:
 2571 0664 75696E74 		.ascii	"uint32_t\000"
 2571      33325F74 
ARM GAS  /tmp/ccstZhCX.s 			page 51


 2571      00
 2572              	.LASF153:
 2573 066d 77746D74 		.ascii	"wtmtxp\000"
 2573      787000
 2574              	.LASF48:
 2575 0674 63685F74 		.ascii	"ch_threads_list\000"
 2575      68726561 
 2575      64735F6C 
 2575      69737400 
 2576              	.LASF157:
 2577 0684 6F776E65 		.ascii	"owner\000"
 2577      7200
 2578              	.LASF165:
 2579 068a 646D6149 		.ascii	"dmaInit\000"
 2579      6E697400 
 2580              	.LASF10:
 2581 0692 6C6F6E67 		.ascii	"long unsigned int\000"
 2581      20756E73 
 2581      69676E65 
 2581      6420696E 
 2581      7400
 2582              	.LASF34:
 2583 06a4 77616261 		.ascii	"wabase\000"
 2583      736500
 2584              	.LASF158:
 2585 06ab 63686172 		.ascii	"char\000"
 2585      00
 2586              	.LASF32:
 2587 06b0 6F6C6465 		.ascii	"older\000"
 2587      7200
 2588              	.LASF85:
 2589 06b6 42464152 		.ascii	"BFAR\000"
 2589      00
 2590              	.LASF105:
 2591 06bb 41484232 		.ascii	"AHB2RSTR\000"
 2591      52535452 
 2591      00
 2592              	.LASF28:
 2593 06c4 74687265 		.ascii	"thread_t\000"
 2593      61645F74 
 2593      00
 2594              	.LASF137:
 2595 06cd 62657374 		.ascii	"best\000"
 2595      00
 2596              	.LASF73:
 2597 06d2 73797374 		.ascii	"systime_t\000"
 2597      696D655F 
 2597      7400
 2598              	.LASF56:
 2599 06dc 76746675 		.ascii	"vtfunc_t\000"
 2599      6E635F74 
 2599      00
 2600              	.LASF139:
 2601 06e5 6C617374 		.ascii	"last\000"
 2601      00
 2602              	.LASF66:
 2603 06ea 70616E69 		.ascii	"panic_msg\000"
ARM GAS  /tmp/ccstZhCX.s 			page 52


 2603      635F6D73 
 2603      6700
 2604              	.LASF135:
 2605 06f4 6F666673 		.ascii	"offset\000"
 2605      657400
 2606              	.LASF114:
 2607 06fb 41504231 		.ascii	"APB1ENR\000"
 2607      454E5200 
 2608              	.LASF156:
 2609 0703 63685F6D 		.ascii	"ch_mutex\000"
 2609      75746578 
 2609      00
 2610              	.LASF111:
 2611 070c 41484232 		.ascii	"AHB2ENR\000"
 2611      454E5200 
 2612              	.LASF6:
 2613 0714 73686F72 		.ascii	"short unsigned int\000"
 2613      7420756E 
 2613      7369676E 
 2613      65642069 
 2613      6E7400
 2614              	.LASF161:
 2615 0727 68616C5F 		.ascii	"hal_lld_init\000"
 2615      6C6C645F 
 2615      696E6974 
 2615      00
 2616              	.LASF18:
 2617 0734 7274636E 		.ascii	"rtcnt_t\000"
 2617      745F7400 
 2618              	.LASF126:
 2619 073c 53534347 		.ascii	"SSCGR\000"
 2619      5200
 2620              	.LASF50:
 2621 0742 74687265 		.ascii	"threads_queue_t\000"
 2621      6164735F 
 2621      71756575 
 2621      655F7400 
 2622              	.LASF40:
 2623 0752 6570656E 		.ascii	"epending\000"
 2623      64696E67 
 2623      00
 2624              	.LASF124:
 2625 075b 42444352 		.ascii	"BDCR\000"
 2625      00
 2626              	.LASF87:
 2627 0760 4D4D4652 		.ascii	"MMFR\000"
 2627      00
 2628              	.LASF69:
 2629 0765 726C6973 		.ascii	"rlist\000"
 2629      7400
 2630              	.LASF14:
 2631 076b 75696E74 		.ascii	"uint8_t\000"
 2631      385F7400 
 2632              	.LASF36:
 2633 0773 666C6167 		.ascii	"flags\000"
 2633      7300
 2634              	.LASF149:
ARM GAS  /tmp/ccstZhCX.s 			page 53


 2635 0779 77746F62 		.ascii	"wtobjp\000"
 2635      6A7000
 2636              	.LASF168:
 2637 0780 2E2E2F2E 		.ascii	"../../modules/ChibiOS/os/hal/ports/STM32/STM32F4xx/"
 2637      2E2F6D6F 
 2637      64756C65 
 2637      732F4368 
 2637      6962694F 
 2638 07b3 68616C5F 		.ascii	"hal_lld.c\000"
 2638      6C6C642E 
 2638      6300
 2639              	.LASF103:
 2640 07bd 43464752 		.ascii	"CFGR\000"
 2640      00
 2641              	.LASF90:
 2642 07c2 43504143 		.ascii	"CPACR\000"
 2642      5200
 2643              	.LASF82:
 2644 07c8 48465352 		.ascii	"HFSR\000"
 2644      00
 2645              	.LASF41:
 2646 07cd 6D74786C 		.ascii	"mtxlist\000"
 2646      69737400 
 2647              	.LASF144:
 2648 07d5 6D5F6372 		.ascii	"m_crit_thd\000"
 2648      69745F74 
 2648      686400
 2649              		.ident	"GCC: (GNU Tools for ARM Embedded Processors) 4.9.3 20150529 (release) [ARM/embedded-4_9-br
ARM GAS  /tmp/ccstZhCX.s 			page 54


DEFINED SYMBOLS
                            *ABS*:00000000 hal_lld.c
     /tmp/ccstZhCX.s:21     .text.hal_lld_init:00000000 $t
     /tmp/ccstZhCX.s:26     .text.hal_lld_init:00000000 hal_lld_init
     /tmp/ccstZhCX.s:116    .text.hal_lld_init:0000008c $d
     /tmp/ccstZhCX.s:122    .text.stm32_clock_init:00000000 $t
     /tmp/ccstZhCX.s:127    .text.stm32_clock_init:00000000 stm32_clock_init
     /tmp/ccstZhCX.s:262    .text.stm32_clock_init:000000d0 $d
     /tmp/ccstZhCX.s:279    .data.SystemCoreClock:00000000 SystemCoreClock
     /tmp/ccstZhCX.s:276    .data.SystemCoreClock:00000000 $d
                     .debug_frame:00000010 $d

UNDEFINED SYMBOLS
dmaInit
irqInit
