ARM GAS  /tmp/cce62CiK.s 			page 1


   1              		.cpu cortex-m4
   2              		.eabi_attribute 27, 1
   3              		.eabi_attribute 28, 1
   4              		.eabi_attribute 20, 1
   5              		.eabi_attribute 21, 1
   6              		.eabi_attribute 23, 3
   7              		.eabi_attribute 24, 1
   8              		.eabi_attribute 25, 1
   9              		.eabi_attribute 26, 1
  10              		.eabi_attribute 30, 4
  11              		.eabi_attribute 34, 1
  12              		.eabi_attribute 18, 4
  13              		.file	"hal_pal_lld.c"
  14              		.text
  15              	.Ltext0:
  16              		.cfi_sections	.debug_frame
  17              		.section	.text._pal_lld_init,"ax",%progbits
  18              		.align	1
  19              		.global	_pal_lld_init
  20              		.syntax unified
  21              		.thumb
  22              		.thumb_func
  23              		.fpu fpv4-sp-d16
  24              		.type	_pal_lld_init, %function
  25              	_pal_lld_init:
  26              	.LFB323:
  27              		.file 1 "../../modules/ChibiOS/os/hal/ports/STM32/LLD/GPIOv2/hal_pal_lld.c"
  28              		.loc 1 65 0
  29              		.cfi_startproc
  30              		@ args = 0, pretend = 0, frame = 0
  31              		@ frame_needed = 0, uses_anonymous_args = 0
  32              		@ link register save eliminated.
  33              	.LVL0:
  34              		.loc 1 65 0
  35 0000 0023     		movs	r3, #0
  36              		.loc 1 71 0
  37 0002 0449     		ldr	r1, .L4
  38 0004 1A46     		mov	r2, r3
  39              	.LVL1:
  40              	.L2:
  41              		.loc 1 71 0 is_stmt 0 discriminator 3
  42 0006 5A50     		str	r2, [r3, r1]
  43 0008 C818     		adds	r0, r1, r3
  44 000a 0833     		adds	r3, r3, #8
  45              		.loc 1 70 0 is_stmt 1 discriminator 3
  46 000c 802B     		cmp	r3, #128
  47              		.loc 1 71 0 discriminator 3
  48 000e 4260     		str	r2, [r0, #4]
  49              		.loc 1 70 0 discriminator 3
  50 0010 F9D1     		bne	.L2
  51              		.loc 1 74 0
  52 0012 7047     		bx	lr
  53              	.L5:
  54              		.align	2
  55              	.L4:
  56 0014 00000000 		.word	.LANCHOR0
  57              		.cfi_endproc
ARM GAS  /tmp/cce62CiK.s 			page 2


  58              	.LFE323:
  59              		.size	_pal_lld_init, .-_pal_lld_init
  60              		.section	.text._pal_lld_setgroupmode,"ax",%progbits
  61              		.align	1
  62              		.global	_pal_lld_setgroupmode
  63              		.syntax unified
  64              		.thumb
  65              		.thumb_func
  66              		.fpu fpv4-sp-d16
  67              		.type	_pal_lld_setgroupmode, %function
  68              	_pal_lld_setgroupmode:
  69              	.LFB324:
  70              		.loc 1 91 0
  71              		.cfi_startproc
  72              		@ args = 0, pretend = 0, frame = 8
  73              		@ frame_needed = 0, uses_anonymous_args = 0
  74              	.LVL2:
  75 0000 2DE9F74F 		push	{r0, r1, r2, r4, r5, r6, r7, r8, r9, r10, fp, lr}
  76              		.cfi_def_cfa_offset 48
  77              		.cfi_offset 4, -36
  78              		.cfi_offset 5, -32
  79              		.cfi_offset 6, -28
  80              		.cfi_offset 7, -24
  81              		.cfi_offset 8, -20
  82              		.cfi_offset 9, -16
  83              		.cfi_offset 10, -12
  84              		.cfi_offset 11, -8
  85              		.cfi_offset 14, -4
  86              		.loc 1 97 0
  87 0004 C2F3C313 		ubfx	r3, r2, #7, #4
  88              		.loc 1 93 0
  89 0008 02F00308 		and	r8, r2, #3
  90              	.LVL3:
  91              		.loc 1 94 0
  92 000c C2F3800C 		ubfx	ip, r2, #2, #1
  93              	.LVL4:
  94              		.loc 1 95 0
  95 0010 C2F3C10E 		ubfx	lr, r2, #3, #2
  96              	.LVL5:
  97              		.loc 1 96 0
  98 0014 C2F34117 		ubfx	r7, r2, #5, #2
  99              	.LVL6:
 100              		.loc 1 97 0
 101 0018 0193     		str	r3, [sp, #4]
 102              	.LVL7:
 103              		.loc 1 93 0
 104 001a 4546     		mov	r5, r8
 105              		.loc 1 98 0
 106 001c 0024     		movs	r4, #0
 107              	.LBB2:
 108              		.loc 1 104 0
 109 001e 4FF00109 		mov	r9, #1
 110              		.loc 1 105 0
 111 0022 4FF0030A 		mov	r10, #3
 112              	.LVL8:
 113              	.L13:
 114              	.LBE2:
ARM GAS  /tmp/cce62CiK.s 			page 3


 115              		.loc 1 100 0
 116 0026 CB07     		lsls	r3, r1, #31
 117 0028 3CD5     		bpl	.L7
 118              	.LBB3:
 119              		.loc 1 103 0
 120 002a 019A     		ldr	r2, [sp, #4]
 121 002c 04F00703 		and	r3, r4, #7
 122 0030 9B00     		lsls	r3, r3, #2
 123 0032 02FA03F6 		lsl	r6, r2, r3
 124              	.LVL9:
 125              		.loc 1 106 0
 126 0036 0F22     		movs	r2, #15
 127 0038 02FA03F3 		lsl	r3, r2, r3
 128              	.LVL10:
 129              		.loc 1 107 0
 130 003c 4268     		ldr	r2, [r0, #4]
 131              		.loc 1 104 0
 132 003e 09FA04FB 		lsl	fp, r9, r4
 133              		.loc 1 107 0
 134 0042 22EA0B02 		bic	r2, r2, fp
 135 0046 42EA0C02 		orr	r2, r2, ip
 136 004a 4260     		str	r2, [r0, #4]
 137              		.loc 1 105 0
 138 004c 6200     		lsls	r2, r4, #1
 139              		.loc 1 108 0
 140 004e D0F808B0 		ldr	fp, [r0, #8]
 141              		.loc 1 105 0
 142 0052 0AFA02F2 		lsl	r2, r10, r2
 143              		.loc 1 108 0
 144 0056 D243     		mvns	r2, r2
 145 0058 0BEA020B 		and	fp, fp, r2
 146 005c 4BEA0E0B 		orr	fp, fp, lr
 147 0060 C0F808B0 		str	fp, [r0, #8]
 148              		.loc 1 109 0
 149 0064 D0F80CB0 		ldr	fp, [r0, #12]
 150 0068 02EA0B0B 		and	fp, r2, fp
 151 006c 4BEA070B 		orr	fp, fp, r7
 152              		.loc 1 110 0
 153 0070 B8F1020F 		cmp	r8, #2
 154              		.loc 1 109 0
 155 0074 C0F80CB0 		str	fp, [r0, #12]
 156 0078 6FEA0303 		mvn	r3, r3
 157              	.LVL11:
 158              		.loc 1 110 0
 159 007c 1CD1     		bne	.L8
 160              		.loc 1 113 0
 161 007e 072C     		cmp	r4, #7
 162              		.loc 1 114 0
 163 0080 95BF     		itete	ls
 164 0082 D0F820B0 		ldrls	fp, [r0, #32]
 165              		.loc 1 116 0
 166 0086 D0F824B0 		ldrhi	fp, [r0, #36]
 167              		.loc 1 114 0
 168 008a 03EA0B03 		andls	r3, r3, fp
 169              	.LVL12:
 170              		.loc 1 116 0
 171 008e 03EA0B03 		andhi	r3, r3, fp
ARM GAS  /tmp/cce62CiK.s 			page 4


 172              		.loc 1 114 0
 173 0092 95BF     		itete	ls
 174 0094 3343     		orrls	r3, r3, r6
 175              		.loc 1 116 0
 176 0096 3343     		orrhi	r3, r3, r6
 177              		.loc 1 114 0
 178 0098 0362     		strls	r3, [r0, #32]
 179              		.loc 1 116 0
 180 009a 4362     		strhi	r3, [r0, #36]
 181              		.loc 1 117 0
 182 009c 0368     		ldr	r3, [r0]
 183 009e 1A40     		ands	r2, r2, r3
 184 00a0 2A43     		orrs	r2, r2, r5
 185 00a2 0260     		str	r2, [r0]
 186              	.LVL13:
 187              	.L7:
 188              	.LBE3:
 189              		.loc 1 130 0
 190 00a4 4908     		lsrs	r1, r1, #1
 191              	.LVL14:
 192 00a6 19D0     		beq	.L6
 193              		.loc 1 132 0
 194 00a8 4FEA4C0C 		lsl	ip, ip, #1
 195              	.LVL15:
 196              		.loc 1 133 0
 197 00ac 4FEA8E0E 		lsl	lr, lr, #2
 198              	.LVL16:
 199              		.loc 1 134 0
 200 00b0 BF00     		lsls	r7, r7, #2
 201              	.LVL17:
 202              		.loc 1 135 0
 203 00b2 AD00     		lsls	r5, r5, #2
 204              	.LVL18:
 205              		.loc 1 136 0
 206 00b4 0134     		adds	r4, r4, #1
 207              	.LVL19:
 208              		.loc 1 100 0
 209 00b6 B6E7     		b	.L13
 210              	.LVL20:
 211              	.L8:
 212              	.LBB4:
 213              		.loc 1 122 0
 214 00b8 D0F800B0 		ldr	fp, [r0]
 215 00bc 02EA0B02 		and	r2, r2, fp
 216 00c0 2A43     		orrs	r2, r2, r5
 217              		.loc 1 123 0
 218 00c2 072C     		cmp	r4, #7
 219              		.loc 1 122 0
 220 00c4 0260     		str	r2, [r0]
 221              		.loc 1 124 0
 222 00c6 95BF     		itete	ls
 223 00c8 026A     		ldrls	r2, [r0, #32]
 224              		.loc 1 126 0
 225 00ca 426A     		ldrhi	r2, [r0, #36]
 226              		.loc 1 124 0
 227 00cc 1340     		andls	r3, r3, r2
 228              	.LVL21:
ARM GAS  /tmp/cce62CiK.s 			page 5


 229              		.loc 1 126 0
 230 00ce 1340     		andhi	r3, r3, r2
 231              		.loc 1 124 0
 232 00d0 95BF     		itete	ls
 233 00d2 1E43     		orrls	r6, r6, r3
 234              	.LVL22:
 235              		.loc 1 126 0
 236 00d4 1E43     		orrhi	r6, r6, r3
 237              		.loc 1 124 0
 238 00d6 0662     		strls	r6, [r0, #32]
 239              		.loc 1 126 0
 240 00d8 4662     		strhi	r6, [r0, #36]
 241 00da E3E7     		b	.L7
 242              	.LVL23:
 243              	.L6:
 244              	.LBE4:
 245              		.loc 1 138 0
 246 00dc 03B0     		add	sp, sp, #12
 247              		.cfi_def_cfa_offset 36
 248              		@ sp needed
 249 00de BDE8F08F 		pop	{r4, r5, r6, r7, r8, r9, r10, fp, pc}
 250              		.cfi_endproc
 251              	.LFE324:
 252              		.size	_pal_lld_setgroupmode, .-_pal_lld_setgroupmode
 253              		.section	.text._pal_lld_enablepadevent,"ax",%progbits
 254              		.align	1
 255              		.global	_pal_lld_enablepadevent
 256              		.syntax unified
 257              		.thumb
 258              		.thumb_func
 259              		.fpu fpv4-sp-d16
 260              		.type	_pal_lld_enablepadevent, %function
 261              	_pal_lld_enablepadevent:
 262              	.LFB325:
 263              		.loc 1 153 0
 264              		.cfi_startproc
 265              		@ args = 0, pretend = 0, frame = 0
 266              		@ frame_needed = 0, uses_anonymous_args = 0
 267              	.LVL24:
 268 0000 70B5     		push	{r4, r5, r6, lr}
 269              		.cfi_def_cfa_offset 16
 270              		.cfi_offset 4, -16
 271              		.cfi_offset 5, -12
 272              		.cfi_offset 6, -8
 273              		.cfi_offset 14, -4
 274              		.loc 1 158 0
 275 0002 0124     		movs	r4, #1
 276 0004 8C40     		lsls	r4, r4, r1
 277              	.LVL25:
 278              		.loc 1 173 0
 279 0006 01F00303 		and	r3, r1, #3
 280 000a 21F00301 		bic	r1, r1, #3
 281              	.LVL26:
 282 000e 01F18041 		add	r1, r1, #1073741824
 283 0012 01F59C31 		add	r1, r1, #79872
 284 0016 9B00     		lsls	r3, r3, #2
 285              	.LVL27:
ARM GAS  /tmp/cce62CiK.s 			page 6


 286              		.loc 1 181 0
 287 0018 8D68     		ldr	r5, [r1, #8]
 288              		.loc 1 178 0
 289 001a C0F38320 		ubfx	r0, r0, #10, #4
 290              	.LVL28:
 291              		.loc 1 174 0
 292 001e 0F26     		movs	r6, #15
 293              		.loc 1 181 0
 294 0020 9840     		lsls	r0, r0, r3
 295              		.loc 1 174 0
 296 0022 06FA03F3 		lsl	r3, r6, r3
 297              	.LVL29:
 298              		.loc 1 181 0
 299 0026 25EA0305 		bic	r5, r5, r3
 300 002a 2843     		orrs	r0, r0, r5
 301 002c 0C4B     		ldr	r3, .L24
 302 002e 8860     		str	r0, [r1, #8]
 303              		.loc 1 199 0
 304 0030 9868     		ldr	r0, [r3, #8]
 305              		.loc 1 198 0
 306 0032 12F0010F 		tst	r2, #1
 307 0036 6FEA0401 		mvn	r1, r4
 308              		.loc 1 199 0
 309 003a 14BF     		ite	ne
 310 003c 2043     		orrne	r0, r0, r4
 311              		.loc 1 201 0
 312 003e 0840     		andeq	r0, r0, r1
 313 0040 9860     		str	r0, [r3, #8]
 314 0042 074B     		ldr	r3, .L24
 315              		.loc 1 202 0
 316 0044 12F0020F 		tst	r2, #2
 317              		.loc 1 203 0
 318 0048 DA68     		ldr	r2, [r3, #12]
 319              	.LVL30:
 320 004a 14BF     		ite	ne
 321 004c 2243     		orrne	r2, r2, r4
 322              		.loc 1 205 0
 323 004e 0A40     		andeq	r2, r2, r1
 324 0050 DA60     		str	r2, [r3, #12]
 325              		.loc 1 208 0
 326 0052 1A68     		ldr	r2, [r3]
 327 0054 1443     		orrs	r4, r4, r2
 328              	.LVL31:
 329 0056 1C60     		str	r4, [r3]
 330              		.loc 1 209 0
 331 0058 5A68     		ldr	r2, [r3, #4]
 332 005a 1140     		ands	r1, r1, r2
 333              	.LVL32:
 334 005c 5960     		str	r1, [r3, #4]
 335 005e 70BD     		pop	{r4, r5, r6, pc}
 336              	.L25:
 337              		.align	2
 338              	.L24:
 339 0060 003C0140 		.word	1073822720
 340              		.cfi_endproc
 341              	.LFE325:
 342              		.size	_pal_lld_enablepadevent, .-_pal_lld_enablepadevent
ARM GAS  /tmp/cce62CiK.s 			page 7


 343              		.section	.text._pal_lld_disablepadevent,"ax",%progbits
 344              		.align	1
 345              		.global	_pal_lld_disablepadevent
 346              		.syntax unified
 347              		.thumb
 348              		.thumb_func
 349              		.fpu fpv4-sp-d16
 350              		.type	_pal_lld_disablepadevent, %function
 351              	_pal_lld_disablepadevent:
 352              	.LFB326:
 353              		.loc 1 222 0
 354              		.cfi_startproc
 355              		@ args = 0, pretend = 0, frame = 0
 356              		@ frame_needed = 0, uses_anonymous_args = 0
 357              	.LVL33:
 358              		.loc 1 229 0
 359 0000 114B     		ldr	r3, .L31
 360              		.loc 1 222 0
 361 0002 70B5     		push	{r4, r5, r6, lr}
 362              		.cfi_def_cfa_offset 16
 363              		.cfi_offset 4, -16
 364              		.cfi_offset 5, -12
 365              		.cfi_offset 6, -8
 366              		.cfi_offset 14, -4
 367              		.loc 1 229 0
 368 0004 9D68     		ldr	r5, [r3, #8]
 369              	.LVL34:
 370              		.loc 1 230 0
 371 0006 D868     		ldr	r0, [r3, #12]
 372              	.LVL35:
 373              		.loc 1 234 0
 374 0008 0122     		movs	r2, #1
 375 000a 8A40     		lsls	r2, r2, r1
 376              	.LVL36:
 377              		.loc 1 237 0
 378 000c 45EA0004 		orr	r4, r5, r0
 379 0010 1442     		tst	r4, r2
 380 0012 17D0     		beq	.L26
 381              	.LBB5:
 382              		.loc 1 241 0
 383 0014 8C08     		lsrs	r4, r1, #2
 384              	.LVL37:
 385              		.loc 1 248 0
 386 0016 0D4E     		ldr	r6, .L31+4
 387 0018 0234     		adds	r4, r4, #2
 388              	.LVL38:
 389 001a 56F82440 		ldr	r4, [r6, r4, lsl #2]
 390              	.LVL39:
 391              		.loc 1 261 0
 392 001e 1E68     		ldr	r6, [r3]
 393 0020 D443     		mvns	r4, r2
 394 0022 2640     		ands	r6, r6, r4
 395 0024 1E60     		str	r6, [r3]
 396              		.loc 1 262 0
 397 0026 5E68     		ldr	r6, [r3, #4]
 398              		.loc 1 263 0
 399 0028 2540     		ands	r5, r5, r4
ARM GAS  /tmp/cce62CiK.s 			page 8


 400              	.LVL40:
 401              		.loc 1 262 0
 402 002a 2640     		ands	r6, r6, r4
 403              		.loc 1 264 0
 404 002c 2040     		ands	r0, r0, r4
 405              	.LVL41:
 406              		.loc 1 262 0
 407 002e 5E60     		str	r6, [r3, #4]
 408              		.loc 1 263 0
 409 0030 9D60     		str	r5, [r3, #8]
 410              		.loc 1 264 0
 411 0032 D860     		str	r0, [r3, #12]
 412              		.loc 1 265 0
 413 0034 5A61     		str	r2, [r3, #20]
 414              		.loc 1 270 0
 415 0036 064B     		ldr	r3, .L31+8
 416 0038 0022     		movs	r2, #0
 417              	.LVL42:
 418 003a 43F83120 		str	r2, [r3, r1, lsl #3]
 419 003e 03EBC103 		add	r3, r3, r1, lsl #3
 420 0042 5A60     		str	r2, [r3, #4]
 421              	.LVL43:
 422              	.L26:
 423 0044 70BD     		pop	{r4, r5, r6, pc}
 424              	.L32:
 425 0046 00BF     		.align	2
 426              	.L31:
 427 0048 003C0140 		.word	1073822720
 428 004c 00380140 		.word	1073821696
 429 0050 00000000 		.word	.LANCHOR0
 430              	.LBE5:
 431              		.cfi_endproc
 432              	.LFE326:
 433              		.size	_pal_lld_disablepadevent, .-_pal_lld_disablepadevent
 434              		.global	_pal_events
 435              		.section	.bss._pal_events,"aw",%nobits
 436              		.align	2
 437              		.set	.LANCHOR0,. + 0
 438              		.type	_pal_events, %object
 439              		.size	_pal_events, 128
 440              	_pal_events:
 441 0000 00000000 		.space	128
 441      00000000 
 441      00000000 
 441      00000000 
 441      00000000 
 442              		.text
 443              	.Letext0:
 444              		.file 2 "/opt/gcc-arm-none-eabi-6-2017-q2-update/lib/gcc/arm-none-eabi/6.3.1/include/stddef.h"
 445              		.file 3 "/opt/gcc-arm-none-eabi-6-2017-q2-update/arm-none-eabi/include/machine/_default_types.h"
 446              		.file 4 "/opt/gcc-arm-none-eabi-6-2017-q2-update/arm-none-eabi/include/sys/_stdint.h"
 447              		.file 5 "/opt/gcc-arm-none-eabi-6-2017-q2-update/arm-none-eabi/include/stdint.h"
 448              		.file 6 "../../modules/ChibiOS/os/common/ports/ARMCMx/compilers/GCC/chtypes.h"
 449              		.file 7 "../../modules/ChibiOS/os/rt/include/chsystypes.h"
 450              		.file 8 "../../modules/ChibiOS/os/rt/include/chschd.h"
 451              		.file 9 "../../modules/ChibiOS/os/rt/include/chtime.h"
 452              		.file 10 "../../modules/ChibiOS/os/common/ext/ARM/CMSIS/Core/Include/core_cm4.h"
ARM GAS  /tmp/cce62CiK.s 			page 9


 453              		.file 11 "../../modules/ChibiOS/os/common/ext/ST/STM32F4xx/system_stm32f4xx.h"
 454              		.file 12 "../../modules/ChibiOS/os/common/ext/ST/STM32F4xx/stm32f427xx.h"
 455              		.file 13 "../../modules/ChibiOS/os/common/ports/ARMCMx/chcore.h"
 456              		.file 14 "../../modules/ChibiOS/os/common/ports/ARMCMx/chcore_v7m.h"
 457              		.file 15 "../../modules/ChibiOS/os/hal/ports/STM32/LLD/TIMv1/stm32_tim.h"
 458              		.file 16 "../../modules/ChibiOS/os/rt/include/chtm.h"
 459              		.file 17 "../../modules/ChibiOS/os/rt/include/chstats.h"
 460              		.file 18 "../../modules/ChibiOS/os/rt/include/chsem.h"
 461              		.file 19 "../../modules/ChibiOS/os/rt/include/chmtx.h"
 462              		.file 20 "../../modules/ChibiOS/os/rt/include/chsys.h"
 463              		.file 21 "../../modules/ChibiOS/os/rt/include/chregistry.h"
 464              		.file 22 "../../modules/ChibiOS/os/rt/include/chevents.h"
 465              		.file 23 "../../modules/ChibiOS/os/oslib/include/chmemcore.h"
 466              		.file 24 "../../modules/ChibiOS/os/oslib/include/chmempools.h"
 467              		.file 25 "../../modules/ChibiOS/os/oslib/include/chfactory.h"
 468              		.file 26 "../../modules/ChibiOS/os/hal/ports/STM32/LLD/DMAv2/stm32_dma.h"
 469              		.file 27 "../../modules/ChibiOS/os/hal/include/hal_ioblock.h"
 470              		.file 28 "../../modules/ChibiOS/os/hal/include/hal_queues.h"
 471              		.file 29 "../../modules/ChibiOS/os/hal/include/hal_pal.h"
 472              		.file 30 "../../modules/ChibiOS/os/hal/ports/STM32/LLD/GPIOv2/stm32_gpio.h"
 473              		.file 31 "../../modules/ChibiOS/os/hal/ports/STM32/LLD/GPIOv2/hal_pal_lld.h"
 474              		.file 32 "../../modules/ChibiOS/os/hal/include/hal_adc.h"
 475              		.file 33 "../../modules/ChibiOS/os/hal/ports/STM32/LLD/ADCv2/hal_adc_lld.h"
 476              		.file 34 "../../modules/ChibiOS/os/hal/include/hal_i2c.h"
 477              		.file 35 "../../modules/ChibiOS/os/hal/ports/STM32/LLD/I2Cv1/hal_i2c_lld.h"
 478              		.file 36 "../../modules/ChibiOS/os/hal/include/hal_pwm.h"
 479              		.file 37 "../../modules/ChibiOS/os/hal/ports/STM32/LLD/TIMv1/hal_pwm_lld.h"
 480              		.file 38 "../../modules/ChibiOS/os/hal/include/hal_serial.h"
 481              		.file 39 "../../modules/ChibiOS/os/hal/ports/STM32/LLD/USARTv1/hal_serial_lld.h"
 482              		.file 40 "../../modules/ChibiOS/os/hal/include/hal_sdc.h"
 483              		.file 41 "../../modules/ChibiOS/os/hal/ports/STM32/LLD/SDIOv1/hal_sdc_lld.h"
 484              		.file 42 "../../modules/ChibiOS/os/hal/include/hal_spi.h"
 485              		.file 43 "../../modules/ChibiOS/os/hal/ports/STM32/LLD/SPIv1/hal_spi_lld.h"
 486              		.file 44 "../../modules/ChibiOS/os/hal/include/hal_usb.h"
 487              		.file 45 "../../modules/ChibiOS/os/hal/ports/STM32/LLD/OTGv1/hal_usb_lld.h"
 488              		.file 46 "../../modules/ChibiOS/os/hal/ports/STM32/LLD/OTGv1/stm32_otg.h"