ARM GAS  /tmp/cc2iGxT4.s 			page 1


   1              		.cpu cortex-m4
   2              		.eabi_attribute 27, 1
   3              		.eabi_attribute 28, 1
   4              		.eabi_attribute 20, 1
   5              		.eabi_attribute 21, 1
   6              		.eabi_attribute 23, 3
   7              		.eabi_attribute 24, 1
   8              		.eabi_attribute 25, 1
   9              		.eabi_attribute 26, 1
  10              		.eabi_attribute 30, 4
  11              		.eabi_attribute 34, 1
  12              		.eabi_attribute 18, 4
  13              		.file	"hal_i2c.c"
  14              		.text
  15              	.Ltext0:
  16              		.cfi_sections	.debug_frame
  17              		.section	.text.i2cInit,"ax",%progbits
  18              		.align	1
  19              		.global	i2cInit
  20              		.syntax unified
  21              		.thumb
  22              		.thumb_func
  23              		.fpu fpv4-sp-d16
  24              		.type	i2cInit, %function
  25              	i2cInit:
  26              	.LFB323:
  27              		.file 1 "../../modules/ChibiOS/os/hal/src/hal_i2c.c"
  28              		.loc 1 59 0
  29              		.cfi_startproc
  30              		@ args = 0, pretend = 0, frame = 0
  31              		@ frame_needed = 0, uses_anonymous_args = 0
  32              		@ link register save eliminated.
  33              		.loc 1 61 0
  34 0000 FFF7FEBF 		b	i2c_lld_init
  35              	.LVL0:
  36              		.cfi_endproc
  37              	.LFE323:
  38              		.size	i2cInit, .-i2cInit
  39              		.section	.text.i2cObjectInit,"ax",%progbits
  40              		.align	1
  41              		.global	i2cObjectInit
  42              		.syntax unified
  43              		.thumb
  44              		.thumb_func
  45              		.fpu fpv4-sp-d16
  46              		.type	i2cObjectInit, %function
  47              	i2cObjectInit:
  48              	.LFB324:
  49              		.loc 1 71 0
  50              		.cfi_startproc
  51              		@ args = 0, pretend = 0, frame = 0
  52              		@ frame_needed = 0, uses_anonymous_args = 0
  53              		@ link register save eliminated.
  54              	.LVL1:
  55              		.loc 1 73 0
  56 0000 0123     		movs	r3, #1
  57 0002 0370     		strb	r3, [r0]
ARM GAS  /tmp/cc2iGxT4.s 			page 2


  58              		.loc 1 74 0
  59 0004 0023     		movs	r3, #0
  60 0006 4360     		str	r3, [r0, #4]
  61              	.LVL2:
  62              	.LBB36:
  63              	.LBB37:
  64              		.file 2 "../../modules/ChibiOS/os/hal/osal/rt/osal.h"
  65              		.loc 2 974 0
  66 0008 0C30     		adds	r0, r0, #12
  67              	.LVL3:
  68 000a FFF7FEBF 		b	chMtxObjectInit
  69              	.LVL4:
  70              	.LBE37:
  71              	.LBE36:
  72              		.cfi_endproc
  73              	.LFE324:
  74              		.size	i2cObjectInit, .-i2cObjectInit
  75              		.section	.text.i2cStart,"ax",%progbits
  76              		.align	1
  77              		.global	i2cStart
  78              		.syntax unified
  79              		.thumb
  80              		.thumb_func
  81              		.fpu fpv4-sp-d16
  82              		.type	i2cStart, %function
  83              	i2cStart:
  84              	.LFB325:
  85              		.loc 1 93 0
  86              		.cfi_startproc
  87              		@ args = 0, pretend = 0, frame = 0
  88              		@ frame_needed = 0, uses_anonymous_args = 0
  89              	.LVL5:
  90 0000 38B5     		push	{r3, r4, r5, lr}
  91              		.cfi_def_cfa_offset 16
  92              		.cfi_offset 3, -16
  93              		.cfi_offset 4, -12
  94              		.cfi_offset 5, -8
  95              		.cfi_offset 14, -4
  96              		.loc 1 93 0
  97 0002 0446     		mov	r4, r0
  98 0004 0D46     		mov	r5, r1
  99              	.LBB52:
 100              	.LBB53:
 101              	.LBB54:
 102              	.LBB55:
 103              	.LBB56:
 104              	.LBB57:
 105              		.file 3 "../../modules/ChibiOS/os/common/ext/ARM/CMSIS/Core/Include/cmsis_gcc.h"
 106              		.loc 3 493 0
 107 0006 2023     		movs	r3, #32
 108              		.syntax unified
 109              	@ 493 "../../modules/ChibiOS/os/common/ext/ARM/CMSIS/Core/Include/cmsis_gcc.h" 1
 110 0008 83F31188 		MSR basepri, r3
 111              	@ 0 "" 2
 112              	.LVL6:
 113              		.thumb
 114              		.syntax unified
ARM GAS  /tmp/cc2iGxT4.s 			page 3


 115              	.LBE57:
 116              	.LBE56:
 117              	.LBE55:
 118              		.file 4 "../../modules/ChibiOS/os/rt/include/chsys.h"
 119              		.loc 4 356 0
 120 000c FFF7FEFF 		bl	_stats_start_measure_crit_thd
 121              	.LVL7:
 122              	.LBE54:
 123              	.LBE53:
 124              	.LBE52:
 125              		.loc 1 101 0
 126 0010 2046     		mov	r0, r4
 127              		.loc 1 100 0
 128 0012 6560     		str	r5, [r4, #4]
 129              		.loc 1 101 0
 130 0014 FFF7FEFF 		bl	i2c_lld_start
 131              	.LVL8:
 132              		.loc 1 102 0
 133 0018 0223     		movs	r3, #2
 134 001a 2370     		strb	r3, [r4]
 135              	.LBB58:
 136              	.LBB59:
 137              	.LBB60:
 138              		.loc 4 368 0
 139 001c FFF7FEFF 		bl	_stats_stop_measure_crit_thd
 140              	.LVL9:
 141              	.LBB61:
 142              	.LBB62:
 143              	.LBB63:
 144              		.loc 3 493 0
 145 0020 0023     		movs	r3, #0
 146              		.syntax unified
 147              	@ 493 "../../modules/ChibiOS/os/common/ext/ARM/CMSIS/Core/Include/cmsis_gcc.h" 1
 148 0022 83F31188 		MSR basepri, r3
 149              	@ 0 "" 2
 150              	.LVL10:
 151              		.thumb
 152              		.syntax unified
 153 0026 38BD     		pop	{r3, r4, r5, pc}
 154              	.LBE63:
 155              	.LBE62:
 156              	.LBE61:
 157              	.LBE60:
 158              	.LBE59:
 159              	.LBE58:
 160              		.cfi_endproc
 161              	.LFE325:
 162              		.size	i2cStart, .-i2cStart
 163              		.section	.text.i2cStop,"ax",%progbits
 164              		.align	1
 165              		.global	i2cStop
 166              		.syntax unified
 167              		.thumb
 168              		.thumb_func
 169              		.fpu fpv4-sp-d16
 170              		.type	i2cStop, %function
 171              	i2cStop:
ARM GAS  /tmp/cc2iGxT4.s 			page 4


 172              	.LFB326:
 173              		.loc 1 113 0
 174              		.cfi_startproc
 175              		@ args = 0, pretend = 0, frame = 0
 176              		@ frame_needed = 0, uses_anonymous_args = 0
 177              	.LVL11:
 178 0000 38B5     		push	{r3, r4, r5, lr}
 179              		.cfi_def_cfa_offset 16
 180              		.cfi_offset 3, -16
 181              		.cfi_offset 4, -12
 182              		.cfi_offset 5, -8
 183              		.cfi_offset 14, -4
 184              		.loc 1 113 0
 185 0002 0446     		mov	r4, r0
 186              	.LBB78:
 187              	.LBB79:
 188              	.LBB80:
 189              	.LBB81:
 190              	.LBB82:
 191              	.LBB83:
 192              		.loc 3 493 0
 193 0004 2023     		movs	r3, #32
 194              		.syntax unified
 195              	@ 493 "../../modules/ChibiOS/os/common/ext/ARM/CMSIS/Core/Include/cmsis_gcc.h" 1
 196 0006 83F31188 		MSR basepri, r3
 197              	@ 0 "" 2
 198              	.LVL12:
 199              		.thumb
 200              		.syntax unified
 201              	.LBE83:
 202              	.LBE82:
 203              	.LBE81:
 204              		.loc 4 356 0
 205 000a FFF7FEFF 		bl	_stats_start_measure_crit_thd
 206              	.LVL13:
 207              	.LBE80:
 208              	.LBE79:
 209              	.LBE78:
 210              		.loc 1 122 0
 211 000e 2046     		mov	r0, r4
 212 0010 FFF7FEFF 		bl	i2c_lld_stop
 213              	.LVL14:
 214              		.loc 1 123 0
 215 0014 0025     		movs	r5, #0
 216              		.loc 1 124 0
 217 0016 0123     		movs	r3, #1
 218              		.loc 1 123 0
 219 0018 6560     		str	r5, [r4, #4]
 220              		.loc 1 124 0
 221 001a 2370     		strb	r3, [r4]
 222              	.LBB84:
 223              	.LBB85:
 224              	.LBB86:
 225              		.loc 4 368 0
 226 001c FFF7FEFF 		bl	_stats_stop_measure_crit_thd
 227              	.LVL15:
 228              	.LBB87:
ARM GAS  /tmp/cc2iGxT4.s 			page 5


 229              	.LBB88:
 230              	.LBB89:
 231              		.loc 3 493 0
 232              		.syntax unified
 233              	@ 493 "../../modules/ChibiOS/os/common/ext/ARM/CMSIS/Core/Include/cmsis_gcc.h" 1
 234 0020 85F31188 		MSR basepri, r5
 235              	@ 0 "" 2
 236              	.LVL16:
 237              		.thumb
 238              		.syntax unified
 239 0024 38BD     		pop	{r3, r4, r5, pc}
 240              	.LBE89:
 241              	.LBE88:
 242              	.LBE87:
 243              	.LBE86:
 244              	.LBE85:
 245              	.LBE84:
 246              		.cfi_endproc
 247              	.LFE326:
 248              		.size	i2cStop, .-i2cStop
 249              		.section	.text.i2cGetErrors,"ax",%progbits
 250              		.align	1
 251              		.global	i2cGetErrors
 252              		.syntax unified
 253              		.thumb
 254              		.thumb_func
 255              		.fpu fpv4-sp-d16
 256              		.type	i2cGetErrors, %function
 257              	i2cGetErrors:
 258              	.LFB327:
 259              		.loc 1 137 0
 260              		.cfi_startproc
 261              		@ args = 0, pretend = 0, frame = 0
 262              		@ frame_needed = 0, uses_anonymous_args = 0
 263              		@ link register save eliminated.
 264              	.LVL17:
 265              		.loc 1 142 0
 266 0000 8068     		ldr	r0, [r0, #8]
 267              	.LVL18:
 268 0002 7047     		bx	lr
 269              		.cfi_endproc
 270              	.LFE327:
 271              		.size	i2cGetErrors, .-i2cGetErrors
 272              		.section	.text.i2cMasterTransmitTimeout,"ax",%progbits
 273              		.align	1
 274              		.global	i2cMasterTransmitTimeout
 275              		.syntax unified
 276              		.thumb
 277              		.thumb_func
 278              		.fpu fpv4-sp-d16
 279              		.type	i2cMasterTransmitTimeout, %function
 280              	i2cMasterTransmitTimeout:
 281              	.LFB328:
 282              		.loc 1 176 0
 283              		.cfi_startproc
 284              		@ args = 12, pretend = 0, frame = 0
 285              		@ frame_needed = 0, uses_anonymous_args = 0
ARM GAS  /tmp/cc2iGxT4.s 			page 6


 286              	.LVL19:
 287 0000 2DE9FF41 		push	{r0, r1, r2, r3, r4, r5, r6, r7, r8, lr}
 288              		.cfi_def_cfa_offset 40
 289              		.cfi_offset 4, -24
 290              		.cfi_offset 5, -20
 291              		.cfi_offset 6, -16
 292              		.cfi_offset 7, -12
 293              		.cfi_offset 8, -8
 294              		.cfi_offset 14, -4
 295              		.loc 1 176 0
 296 0004 9846     		mov	r8, r3
 297 0006 0446     		mov	r4, r0
 298 0008 0E46     		mov	r6, r1
 299 000a 1746     		mov	r7, r2
 300              	.LBB104:
 301              	.LBB105:
 302              	.LBB106:
 303              	.LBB107:
 304              	.LBB108:
 305              	.LBB109:
 306              		.loc 3 493 0
 307 000c 2023     		movs	r3, #32
 308              	.LVL20:
 309              		.syntax unified
 310              	@ 493 "../../modules/ChibiOS/os/common/ext/ARM/CMSIS/Core/Include/cmsis_gcc.h" 1
 311 000e 83F31188 		MSR basepri, r3
 312              	@ 0 "" 2
 313              	.LVL21:
 314              		.thumb
 315              		.syntax unified
 316              	.LBE109:
 317              	.LBE108:
 318              	.LBE107:
 319              		.loc 4 356 0
 320 0012 FFF7FEFF 		bl	_stats_start_measure_crit_thd
 321              	.LVL22:
 322              	.LBE106:
 323              	.LBE105:
 324              	.LBE104:
 325              		.loc 1 188 0
 326 0016 0323     		movs	r3, #3
 327 0018 2370     		strb	r3, [r4]
 328              		.loc 1 189 0
 329 001a 0C9B     		ldr	r3, [sp, #48]
 330 001c 0293     		str	r3, [sp, #8]
 331 001e 0B9B     		ldr	r3, [sp, #44]
 332 0020 0193     		str	r3, [sp, #4]
 333              		.loc 1 187 0
 334 0022 0025     		movs	r5, #0
 335              		.loc 1 189 0
 336 0024 0A9B     		ldr	r3, [sp, #40]
 337 0026 0093     		str	r3, [sp]
 338 0028 3146     		mov	r1, r6
 339 002a 4346     		mov	r3, r8
 340 002c 3A46     		mov	r2, r7
 341              		.loc 1 187 0
 342 002e A560     		str	r5, [r4, #8]
ARM GAS  /tmp/cc2iGxT4.s 			page 7


 343              		.loc 1 189 0
 344 0030 2046     		mov	r0, r4
 345 0032 FFF7FEFF 		bl	i2c_lld_master_transmit_timeout
 346              	.LVL23:
 347              		.loc 1 191 0
 348 0036 431C     		adds	r3, r0, #1
 349              		.loc 1 192 0
 350 0038 0CBF     		ite	eq
 351 003a 0523     		moveq	r3, #5
 352              		.loc 1 195 0
 353 003c 0223     		movne	r3, #2
 354 003e 2370     		strb	r3, [r4]
 355              		.loc 1 189 0
 356 0040 0646     		mov	r6, r0
 357              	.LVL24:
 358              	.LBB110:
 359              	.LBB111:
 360              	.LBB112:
 361              		.loc 4 368 0
 362 0042 FFF7FEFF 		bl	_stats_stop_measure_crit_thd
 363              	.LVL25:
 364              	.LBB113:
 365              	.LBB114:
 366              	.LBB115:
 367              		.loc 3 493 0
 368              		.syntax unified
 369              	@ 493 "../../modules/ChibiOS/os/common/ext/ARM/CMSIS/Core/Include/cmsis_gcc.h" 1
 370 0046 85F31188 		MSR basepri, r5
 371              	@ 0 "" 2
 372              	.LVL26:
 373              		.thumb
 374              		.syntax unified
 375              	.LBE115:
 376              	.LBE114:
 377              	.LBE113:
 378              	.LBE112:
 379              	.LBE111:
 380              	.LBE110:
 381              		.loc 1 199 0
 382 004a 3046     		mov	r0, r6
 383 004c 04B0     		add	sp, sp, #16
 384              		.cfi_def_cfa_offset 24
 385              		@ sp needed
 386 004e BDE8F081 		pop	{r4, r5, r6, r7, r8, pc}
 387              		.cfi_endproc
 388              	.LFE328:
 389              		.size	i2cMasterTransmitTimeout, .-i2cMasterTransmitTimeout
 390              		.section	.text.i2cMasterReceiveTimeout,"ax",%progbits
 391              		.align	1
 392              		.global	i2cMasterReceiveTimeout
 393              		.syntax unified
 394              		.thumb
 395              		.thumb_func
 396              		.fpu fpv4-sp-d16
 397              		.type	i2cMasterReceiveTimeout, %function
 398              	i2cMasterReceiveTimeout:
 399              	.LFB329:
ARM GAS  /tmp/cc2iGxT4.s 			page 8


 400              		.loc 1 225 0
 401              		.cfi_startproc
 402              		@ args = 4, pretend = 0, frame = 0
 403              		@ frame_needed = 0, uses_anonymous_args = 0
 404              	.LVL27:
 405 0000 2DE9F341 		push	{r0, r1, r4, r5, r6, r7, r8, lr}
 406              		.cfi_def_cfa_offset 32
 407              		.cfi_offset 4, -24
 408              		.cfi_offset 5, -20
 409              		.cfi_offset 6, -16
 410              		.cfi_offset 7, -12
 411              		.cfi_offset 8, -8
 412              		.cfi_offset 14, -4
 413              		.loc 1 225 0
 414 0004 9846     		mov	r8, r3
 415 0006 0446     		mov	r4, r0
 416 0008 0E46     		mov	r6, r1
 417 000a 1746     		mov	r7, r2
 418              	.LBB130:
 419              	.LBB131:
 420              	.LBB132:
 421              	.LBB133:
 422              	.LBB134:
 423              	.LBB135:
 424              		.loc 3 493 0
 425 000c 2023     		movs	r3, #32
 426              	.LVL28:
 427              		.syntax unified
 428              	@ 493 "../../modules/ChibiOS/os/common/ext/ARM/CMSIS/Core/Include/cmsis_gcc.h" 1
 429 000e 83F31188 		MSR basepri, r3
 430              	@ 0 "" 2
 431              	.LVL29:
 432              		.thumb
 433              		.syntax unified
 434              	.LBE135:
 435              	.LBE134:
 436              	.LBE133:
 437              		.loc 4 356 0
 438 0012 FFF7FEFF 		bl	_stats_start_measure_crit_thd
 439              	.LVL30:
 440              	.LBE132:
 441              	.LBE131:
 442              	.LBE130:
 443              		.loc 1 237 0
 444 0016 0423     		movs	r3, #4
 445 0018 2370     		strb	r3, [r4]
 446              		.loc 1 236 0
 447 001a 0025     		movs	r5, #0
 448              		.loc 1 238 0
 449 001c 089B     		ldr	r3, [sp, #32]
 450 001e 0093     		str	r3, [sp]
 451 0020 3146     		mov	r1, r6
 452 0022 4346     		mov	r3, r8
 453 0024 3A46     		mov	r2, r7
 454              		.loc 1 236 0
 455 0026 A560     		str	r5, [r4, #8]
 456              		.loc 1 238 0
ARM GAS  /tmp/cc2iGxT4.s 			page 9


 457 0028 2046     		mov	r0, r4
 458 002a FFF7FEFF 		bl	i2c_lld_master_receive_timeout
 459              	.LVL31:
 460              		.loc 1 239 0
 461 002e 431C     		adds	r3, r0, #1
 462              		.loc 1 240 0
 463 0030 0CBF     		ite	eq
 464 0032 0523     		moveq	r3, #5
 465              		.loc 1 243 0
 466 0034 0223     		movne	r3, #2
 467 0036 2370     		strb	r3, [r4]
 468              		.loc 1 238 0
 469 0038 0646     		mov	r6, r0
 470              	.LVL32:
 471              	.LBB136:
 472              	.LBB137:
 473              	.LBB138:
 474              		.loc 4 368 0
 475 003a FFF7FEFF 		bl	_stats_stop_measure_crit_thd
 476              	.LVL33:
 477              	.LBB139:
 478              	.LBB140:
 479              	.LBB141:
 480              		.loc 3 493 0
 481              		.syntax unified
 482              	@ 493 "../../modules/ChibiOS/os/common/ext/ARM/CMSIS/Core/Include/cmsis_gcc.h" 1
 483 003e 85F31188 		MSR basepri, r5
 484              	@ 0 "" 2
 485              	.LVL34:
 486              		.thumb
 487              		.syntax unified
 488              	.LBE141:
 489              	.LBE140:
 490              	.LBE139:
 491              	.LBE138:
 492              	.LBE137:
 493              	.LBE136:
 494              		.loc 1 247 0
 495 0042 3046     		mov	r0, r6
 496 0044 02B0     		add	sp, sp, #8
 497              		.cfi_def_cfa_offset 24
 498              		@ sp needed
 499 0046 BDE8F081 		pop	{r4, r5, r6, r7, r8, pc}
 500              		.cfi_endproc
 501              	.LFE329:
 502              		.size	i2cMasterReceiveTimeout, .-i2cMasterReceiveTimeout
 503              		.section	.text.i2cAcquireBus,"ax",%progbits
 504              		.align	1
 505              		.global	i2cAcquireBus
 506              		.syntax unified
 507              		.thumb
 508              		.thumb_func
 509              		.fpu fpv4-sp-d16
 510              		.type	i2cAcquireBus, %function
 511              	i2cAcquireBus:
 512              	.LFB330:
 513              		.loc 1 261 0
ARM GAS  /tmp/cc2iGxT4.s 			page 10


 514              		.cfi_startproc
 515              		@ args = 0, pretend = 0, frame = 0
 516              		@ frame_needed = 0, uses_anonymous_args = 0
 517              		@ link register save eliminated.
 518              	.LVL35:
 519              	.LBB142:
 520              	.LBB143:
 521              		.loc 2 994 0
 522 0000 0C30     		adds	r0, r0, #12
 523              	.LVL36:
 524 0002 FFF7FEBF 		b	chMtxLock
 525              	.LVL37:
 526              	.LBE143:
 527              	.LBE142:
 528              		.cfi_endproc
 529              	.LFE330:
 530              		.size	i2cAcquireBus, .-i2cAcquireBus
 531              		.section	.text.i2cReleaseBus,"ax",%progbits
 532              		.align	1
 533              		.global	i2cReleaseBus
 534              		.syntax unified
 535              		.thumb
 536              		.thumb_func
 537              		.fpu fpv4-sp-d16
 538              		.type	i2cReleaseBus, %function
 539              	i2cReleaseBus:
 540              	.LFB331:
 541              		.loc 1 277 0
 542              		.cfi_startproc
 543              		@ args = 0, pretend = 0, frame = 0
 544              		@ frame_needed = 0, uses_anonymous_args = 0
 545              		@ link register save eliminated.
 546              	.LVL38:
 547              	.LBB144:
 548              	.LBB145:
 549              		.loc 2 1018 0
 550 0000 0C30     		adds	r0, r0, #12
 551              	.LVL39:
 552 0002 FFF7FEBF 		b	chMtxUnlock
 553              	.LVL40:
 554              	.LBE145:
 555              	.LBE144:
 556              		.cfi_endproc
 557              	.LFE331:
 558              		.size	i2cReleaseBus, .-i2cReleaseBus
 559              		.text
 560              	.Letext0:
 561              		.file 5 "/opt/gcc-arm-none-eabi-6-2017-q2-update/lib/gcc/arm-none-eabi/6.3.1/include/stddef.h"
 562              		.file 6 "/opt/gcc-arm-none-eabi-6-2017-q2-update/arm-none-eabi/include/machine/_default_types.h"
 563              		.file 7 "/opt/gcc-arm-none-eabi-6-2017-q2-update/arm-none-eabi/include/sys/_stdint.h"
 564              		.file 8 "/opt/gcc-arm-none-eabi-6-2017-q2-update/arm-none-eabi/include/stdint.h"
 565              		.file 9 "../../modules/ChibiOS/os/common/ports/ARMCMx/compilers/GCC/chtypes.h"
 566              		.file 10 "../../modules/ChibiOS/os/rt/include/chsystypes.h"
 567              		.file 11 "../../modules/ChibiOS/os/rt/include/chschd.h"
 568              		.file 12 "../../modules/ChibiOS/os/rt/include/chtime.h"
 569              		.file 13 "../../modules/ChibiOS/os/common/ext/ARM/CMSIS/Core/Include/core_cm4.h"
 570              		.file 14 "../../modules/ChibiOS/os/common/ext/ST/STM32F4xx/system_stm32f4xx.h"
ARM GAS  /tmp/cc2iGxT4.s 			page 11


 571              		.file 15 "../../modules/ChibiOS/os/common/ext/ST/STM32F4xx/stm32f427xx.h"
 572              		.file 16 "../../modules/ChibiOS/os/common/ports/ARMCMx/chcore.h"
 573              		.file 17 "../../modules/ChibiOS/os/common/ports/ARMCMx/chcore_v7m.h"
 574              		.file 18 "../../modules/ChibiOS/os/hal/ports/STM32/LLD/TIMv1/stm32_tim.h"
 575              		.file 19 "../../modules/ChibiOS/os/rt/include/chtm.h"
 576              		.file 20 "../../modules/ChibiOS/os/rt/include/chstats.h"
 577              		.file 21 "../../modules/ChibiOS/os/rt/include/chsem.h"
 578              		.file 22 "../../modules/ChibiOS/os/rt/include/chmtx.h"
 579              		.file 23 "../../modules/ChibiOS/os/rt/include/chregistry.h"
 580              		.file 24 "../../modules/ChibiOS/os/rt/include/chevents.h"
 581              		.file 25 "../../modules/ChibiOS/os/oslib/include/chmemcore.h"
 582              		.file 26 "../../modules/ChibiOS/os/oslib/include/chmempools.h"
 583              		.file 27 "../../modules/ChibiOS/os/oslib/include/chfactory.h"
 584              		.file 28 "../../modules/ChibiOS/os/hal/ports/STM32/LLD/DMAv2/stm32_dma.h"
 585              		.file 29 "../../modules/ChibiOS/os/hal/include/hal_ioblock.h"
 586              		.file 30 "../../modules/ChibiOS/os/hal/include/hal_queues.h"
 587              		.file 31 "../../modules/ChibiOS/os/hal/include/hal_pal.h"
 588              		.file 32 "../../modules/ChibiOS/os/hal/ports/STM32/LLD/GPIOv2/stm32_gpio.h"
 589              		.file 33 "../../modules/ChibiOS/os/hal/ports/STM32/LLD/GPIOv2/hal_pal_lld.h"
 590              		.file 34 "../../modules/ChibiOS/os/hal/include/hal_adc.h"
 591              		.file 35 "../../modules/ChibiOS/os/hal/ports/STM32/LLD/ADCv2/hal_adc_lld.h"
 592              		.file 36 "../../modules/ChibiOS/os/hal/include/hal_i2c.h"
 593              		.file 37 "../../modules/ChibiOS/os/hal/ports/STM32/LLD/I2Cv1/hal_i2c_lld.h"
 594              		.file 38 "../../modules/ChibiOS/os/hal/include/hal_pwm.h"
 595              		.file 39 "../../modules/ChibiOS/os/hal/ports/STM32/LLD/TIMv1/hal_pwm_lld.h"
 596              		.file 40 "../../modules/ChibiOS/os/hal/include/hal_serial.h"
 597              		.file 41 "../../modules/ChibiOS/os/hal/ports/STM32/LLD/USARTv1/hal_serial_lld.h"
 598              		.file 42 "../../modules/ChibiOS/os/hal/include/hal_sdc.h"
 599              		.file 43 "../../modules/ChibiOS/os/hal/ports/STM32/LLD/SDIOv1/hal_sdc_lld.h"
 600              		.file 44 "../../modules/ChibiOS/os/hal/include/hal_spi.h"
 601              		.file 45 "../../modules/ChibiOS/os/hal/ports/STM32/LLD/SPIv1/hal_spi_lld.h"
 602              		.file 46 "../../modules/ChibiOS/os/hal/include/hal_usb.h"
 603              		.file 47 "../../modules/ChibiOS/os/hal/ports/STM32/LLD/OTGv1/hal_usb_lld.h"
 604              		.file 48 "../../modules/ChibiOS/os/hal/ports/STM32/LLD/OTGv1/stm32_otg.h"