ARM GAS  /tmp/ccbpjEjg.s 			page 1


   1              		.cpu cortex-m4
   2              		.eabi_attribute 27, 1
   3              		.eabi_attribute 28, 1
   4              		.eabi_attribute 20, 1
   5              		.eabi_attribute 21, 1
   6              		.eabi_attribute 23, 3
   7              		.eabi_attribute 24, 1
   8              		.eabi_attribute 25, 1
   9              		.eabi_attribute 26, 1
  10              		.eabi_attribute 30, 4
  11              		.eabi_attribute 34, 1
  12              		.eabi_attribute 18, 4
  13              		.file	"hal_spi.c"
  14              		.text
  15              	.Ltext0:
  16              		.cfi_sections	.debug_frame
  17              		.section	.text.chSysLock,"ax",%progbits
  18              		.align	1
  19              		.syntax unified
  20              		.thumb
  21              		.thumb_func
  22              		.fpu fpv4-sp-d16
  23              		.type	chSysLock, %function
  24              	chSysLock:
  25              	.LFB184:
  26              		.file 1 "../../modules/ChibiOS/os/rt/include/chsys.h"
  27              		.loc 1 353 0
  28              		.cfi_startproc
  29              		@ args = 0, pretend = 0, frame = 0
  30              		@ frame_needed = 0, uses_anonymous_args = 0
  31              		@ link register save eliminated.
  32              	.LVL0:
  33              	.LBB76:
  34              	.LBB77:
  35              	.LBB78:
  36              		.file 2 "../../modules/ChibiOS/os/common/ext/ARM/CMSIS/Core/Include/cmsis_gcc.h"
  37              		.loc 2 493 0
  38 0000 2023     		movs	r3, #32
  39              		.syntax unified
  40              	@ 493 "../../modules/ChibiOS/os/common/ext/ARM/CMSIS/Core/Include/cmsis_gcc.h" 1
  41 0002 83F31188 		MSR basepri, r3
  42              	@ 0 "" 2
  43              	.LVL1:
  44              		.thumb
  45              		.syntax unified
  46              	.LBE78:
  47              	.LBE77:
  48              	.LBE76:
  49              		.loc 1 356 0
  50 0006 FFF7FEBF 		b	_stats_start_measure_crit_thd
  51              	.LVL2:
  52              		.cfi_endproc
  53              	.LFE184:
  54              		.size	chSysLock, .-chSysLock
  55              		.section	.text.chSysUnlock,"ax",%progbits
  56              		.align	1
  57              		.syntax unified
ARM GAS  /tmp/ccbpjEjg.s 			page 2


  58              		.thumb
  59              		.thumb_func
  60              		.fpu fpv4-sp-d16
  61              		.type	chSysUnlock, %function
  62              	chSysUnlock:
  63              	.LFB185:
  64              		.loc 1 365 0
  65              		.cfi_startproc
  66              		@ args = 0, pretend = 0, frame = 0
  67              		@ frame_needed = 0, uses_anonymous_args = 0
  68 0000 08B5     		push	{r3, lr}
  69              		.cfi_def_cfa_offset 8
  70              		.cfi_offset 3, -8
  71              		.cfi_offset 14, -4
  72              		.loc 1 368 0
  73 0002 FFF7FEFF 		bl	_stats_stop_measure_crit_thd
  74              	.LVL3:
  75              	.LBB79:
  76              	.LBB80:
  77              	.LBB81:
  78              		.loc 2 493 0
  79 0006 0023     		movs	r3, #0
  80              		.syntax unified
  81              	@ 493 "../../modules/ChibiOS/os/common/ext/ARM/CMSIS/Core/Include/cmsis_gcc.h" 1
  82 0008 83F31188 		MSR basepri, r3
  83              	@ 0 "" 2
  84              	.LVL4:
  85              		.thumb
  86              		.syntax unified
  87 000c 08BD     		pop	{r3, pc}
  88              	.LBE81:
  89              	.LBE80:
  90              	.LBE79:
  91              		.cfi_endproc
  92              	.LFE185:
  93              		.size	chSysUnlock, .-chSysUnlock
  94              		.section	.text.osalThreadSuspendS,"ax",%progbits
  95              		.align	1
  96              		.syntax unified
  97              		.thumb
  98              		.thumb_func
  99              		.fpu fpv4-sp-d16
 100              		.type	osalThreadSuspendS, %function
 101              	osalThreadSuspendS:
 102              	.LFB309:
 103              		.file 3 "../../modules/ChibiOS/os/hal/osal/rt/osal.h"
 104              		.loc 3 733 0
 105              		.cfi_startproc
 106              		@ args = 0, pretend = 0, frame = 0
 107              		@ frame_needed = 0, uses_anonymous_args = 0
 108              		@ link register save eliminated.
 109              	.LVL5:
 110              		.loc 3 735 0
 111 0000 4FF0FF31 		mov	r1, #-1
 112 0004 FFF7FEBF 		b	chThdSuspendTimeoutS
 113              	.LVL6:
 114              		.cfi_endproc
ARM GAS  /tmp/ccbpjEjg.s 			page 3


 115              	.LFE309:
 116              		.size	osalThreadSuspendS, .-osalThreadSuspendS
 117              		.section	.text.spiInit,"ax",%progbits
 118              		.align	1
 119              		.global	spiInit
 120              		.syntax unified
 121              		.thumb
 122              		.thumb_func
 123              		.fpu fpv4-sp-d16
 124              		.type	spiInit, %function
 125              	spiInit:
 126              	.LFB323:
 127              		.file 4 "../../modules/ChibiOS/os/hal/src/hal_spi.c"
 128              		.loc 4 56 0
 129              		.cfi_startproc
 130              		@ args = 0, pretend = 0, frame = 0
 131              		@ frame_needed = 0, uses_anonymous_args = 0
 132              		@ link register save eliminated.
 133              		.loc 4 58 0
 134 0000 FFF7FEBF 		b	spi_lld_init
 135              	.LVL7:
 136              		.cfi_endproc
 137              	.LFE323:
 138              		.size	spiInit, .-spiInit
 139              		.section	.text.spiObjectInit,"ax",%progbits
 140              		.align	1
 141              		.global	spiObjectInit
 142              		.syntax unified
 143              		.thumb
 144              		.thumb_func
 145              		.fpu fpv4-sp-d16
 146              		.type	spiObjectInit, %function
 147              	spiObjectInit:
 148              	.LFB324:
 149              		.loc 4 68 0
 150              		.cfi_startproc
 151              		@ args = 0, pretend = 0, frame = 0
 152              		@ frame_needed = 0, uses_anonymous_args = 0
 153              		@ link register save eliminated.
 154              	.LVL8:
 155              		.loc 4 70 0
 156 0000 0123     		movs	r3, #1
 157 0002 0370     		strb	r3, [r0]
 158              		.loc 4 71 0
 159 0004 0023     		movs	r3, #0
 160 0006 4360     		str	r3, [r0, #4]
 161              		.loc 4 73 0
 162 0008 8360     		str	r3, [r0, #8]
 163              	.LVL9:
 164              	.LBB82:
 165              	.LBB83:
 166              		.loc 3 974 0
 167 000a 0C30     		adds	r0, r0, #12
 168              	.LVL10:
 169 000c FFF7FEBF 		b	chMtxObjectInit
 170              	.LVL11:
 171              	.LBE83:
ARM GAS  /tmp/ccbpjEjg.s 			page 4


 172              	.LBE82:
 173              		.cfi_endproc
 174              	.LFE324:
 175              		.size	spiObjectInit, .-spiObjectInit
 176              		.section	.text.spiStart,"ax",%progbits
 177              		.align	1
 178              		.global	spiStart
 179              		.syntax unified
 180              		.thumb
 181              		.thumb_func
 182              		.fpu fpv4-sp-d16
 183              		.type	spiStart, %function
 184              	spiStart:
 185              	.LFB325:
 186              		.loc 4 91 0
 187              		.cfi_startproc
 188              		@ args = 0, pretend = 0, frame = 0
 189              		@ frame_needed = 0, uses_anonymous_args = 0
 190              	.LVL12:
 191 0000 38B5     		push	{r3, r4, r5, lr}
 192              		.cfi_def_cfa_offset 16
 193              		.cfi_offset 3, -16
 194              		.cfi_offset 4, -12
 195              		.cfi_offset 5, -8
 196              		.cfi_offset 14, -4
 197              		.loc 4 91 0
 198 0002 0446     		mov	r4, r0
 199 0004 0D46     		mov	r5, r1
 200              	.LBB84:
 201              	.LBB85:
 202              		.loc 3 511 0
 203 0006 FFF7FEFF 		bl	chSysLock
 204              	.LVL13:
 205              	.LBE85:
 206              	.LBE84:
 207              		.loc 4 98 0
 208 000a 6560     		str	r5, [r4, #4]
 209              		.loc 4 99 0
 210 000c 2046     		mov	r0, r4
 211 000e FFF7FEFF 		bl	spi_lld_start
 212              	.LVL14:
 213              		.loc 4 100 0
 214 0012 0223     		movs	r3, #2
 215 0014 2370     		strb	r3, [r4]
 216              		.loc 4 102 0
 217 0016 BDE83840 		pop	{r3, r4, r5, lr}
 218              		.cfi_restore 14
 219              		.cfi_restore 5
 220              		.cfi_restore 4
 221              		.cfi_restore 3
 222              		.cfi_def_cfa_offset 0
 223              	.LVL15:
 224              	.LBB86:
 225              	.LBB87:
 226              		.loc 3 522 0
 227 001a FFF7FEBF 		b	chSysUnlock
 228              	.LVL16:
ARM GAS  /tmp/ccbpjEjg.s 			page 5


 229              	.LBE87:
 230              	.LBE86:
 231              		.cfi_endproc
 232              	.LFE325:
 233              		.size	spiStart, .-spiStart
 234              		.section	.text.spiStop,"ax",%progbits
 235              		.align	1
 236              		.global	spiStop
 237              		.syntax unified
 238              		.thumb
 239              		.thumb_func
 240              		.fpu fpv4-sp-d16
 241              		.type	spiStop, %function
 242              	spiStop:
 243              	.LFB326:
 244              		.loc 4 111 0
 245              		.cfi_startproc
 246              		@ args = 0, pretend = 0, frame = 0
 247              		@ frame_needed = 0, uses_anonymous_args = 0
 248              	.LVL17:
 249 0000 10B5     		push	{r4, lr}
 250              		.cfi_def_cfa_offset 8
 251              		.cfi_offset 4, -8
 252              		.cfi_offset 14, -4
 253              		.loc 4 111 0
 254 0002 0446     		mov	r4, r0
 255              	.LBB88:
 256              	.LBB89:
 257              		.loc 3 511 0
 258 0004 FFF7FEFF 		bl	chSysLock
 259              	.LVL18:
 260              	.LBE89:
 261              	.LBE88:
 262              		.loc 4 120 0
 263 0008 2046     		mov	r0, r4
 264 000a FFF7FEFF 		bl	spi_lld_stop
 265              	.LVL19:
 266              		.loc 4 121 0
 267 000e 0023     		movs	r3, #0
 268 0010 6360     		str	r3, [r4, #4]
 269              		.loc 4 122 0
 270 0012 0123     		movs	r3, #1
 271 0014 2370     		strb	r3, [r4]
 272              		.loc 4 125 0
 273 0016 BDE81040 		pop	{r4, lr}
 274              		.cfi_restore 14
 275              		.cfi_restore 4
 276              		.cfi_def_cfa_offset 0
 277              	.LVL20:
 278              	.LBB90:
 279              	.LBB91:
 280              		.loc 3 522 0
 281 001a FFF7FEBF 		b	chSysUnlock
 282              	.LVL21:
 283              	.LBE91:
 284              	.LBE90:
 285              		.cfi_endproc
ARM GAS  /tmp/ccbpjEjg.s 			page 6


 286              	.LFE326:
 287              		.size	spiStop, .-spiStop
 288              		.section	.text.spiSelect,"ax",%progbits
 289              		.align	1
 290              		.global	spiSelect
 291              		.syntax unified
 292              		.thumb
 293              		.thumb_func
 294              		.fpu fpv4-sp-d16
 295              		.type	spiSelect, %function
 296              	spiSelect:
 297              	.LFB327:
 298              		.loc 4 134 0
 299              		.cfi_startproc
 300              		@ args = 0, pretend = 0, frame = 0
 301              		@ frame_needed = 0, uses_anonymous_args = 0
 302              	.LVL22:
 303 0000 10B5     		push	{r4, lr}
 304              		.cfi_def_cfa_offset 8
 305              		.cfi_offset 4, -8
 306              		.cfi_offset 14, -4
 307              		.loc 4 134 0
 308 0002 0446     		mov	r4, r0
 309              	.LBB92:
 310              	.LBB93:
 311              		.loc 3 511 0
 312 0004 FFF7FEFF 		bl	chSysLock
 313              	.LVL23:
 314              	.LBE93:
 315              	.LBE92:
 316              		.loc 4 140 0
 317 0008 6368     		ldr	r3, [r4, #4]
 318 000a D968     		ldr	r1, [r3, #12]
 319 000c 9A68     		ldr	r2, [r3, #8]
 320 000e 0123     		movs	r3, #1
 321 0010 8B40     		lsls	r3, r3, r1
 322 0012 9BB2     		uxth	r3, r3
 323 0014 5383     		strh	r3, [r2, #26]	@ movhi
 324              		.loc 4 142 0
 325 0016 BDE81040 		pop	{r4, lr}
 326              		.cfi_restore 14
 327              		.cfi_restore 4
 328              		.cfi_def_cfa_offset 0
 329              	.LVL24:
 330              	.LBB94:
 331              	.LBB95:
 332              		.loc 3 522 0
 333 001a FFF7FEBF 		b	chSysUnlock
 334              	.LVL25:
 335              	.LBE95:
 336              	.LBE94:
 337              		.cfi_endproc
 338              	.LFE327:
 339              		.size	spiSelect, .-spiSelect
 340              		.section	.text.spiUnselect,"ax",%progbits
 341              		.align	1
 342              		.global	spiUnselect
ARM GAS  /tmp/ccbpjEjg.s 			page 7


 343              		.syntax unified
 344              		.thumb
 345              		.thumb_func
 346              		.fpu fpv4-sp-d16
 347              		.type	spiUnselect, %function
 348              	spiUnselect:
 349              	.LFB328:
 350              		.loc 4 152 0
 351              		.cfi_startproc
 352              		@ args = 0, pretend = 0, frame = 0
 353              		@ frame_needed = 0, uses_anonymous_args = 0
 354              	.LVL26:
 355 0000 10B5     		push	{r4, lr}
 356              		.cfi_def_cfa_offset 8
 357              		.cfi_offset 4, -8
 358              		.cfi_offset 14, -4
 359              		.loc 4 152 0
 360 0002 0446     		mov	r4, r0
 361              	.LBB96:
 362              	.LBB97:
 363              		.loc 3 511 0
 364 0004 FFF7FEFF 		bl	chSysLock
 365              	.LVL27:
 366              	.LBE97:
 367              	.LBE96:
 368              		.loc 4 158 0
 369 0008 6368     		ldr	r3, [r4, #4]
 370 000a D968     		ldr	r1, [r3, #12]
 371 000c 9A68     		ldr	r2, [r3, #8]
 372 000e 0123     		movs	r3, #1
 373 0010 8B40     		lsls	r3, r3, r1
 374 0012 9BB2     		uxth	r3, r3
 375 0014 1383     		strh	r3, [r2, #24]	@ movhi
 376              		.loc 4 160 0
 377 0016 BDE81040 		pop	{r4, lr}
 378              		.cfi_restore 14
 379              		.cfi_restore 4
 380              		.cfi_def_cfa_offset 0
 381              	.LVL28:
 382              	.LBB98:
 383              	.LBB99:
 384              		.loc 3 522 0
 385 001a FFF7FEBF 		b	chSysUnlock
 386              	.LVL29:
 387              	.LBE99:
 388              	.LBE98:
 389              		.cfi_endproc
 390              	.LFE328:
 391              		.size	spiUnselect, .-spiUnselect
 392              		.section	.text.spiStartIgnore,"ax",%progbits
 393              		.align	1
 394              		.global	spiStartIgnore
 395              		.syntax unified
 396              		.thumb
 397              		.thumb_func
 398              		.fpu fpv4-sp-d16
 399              		.type	spiStartIgnore, %function
ARM GAS  /tmp/ccbpjEjg.s 			page 8


 400              	spiStartIgnore:
 401              	.LFB329:
 402              		.loc 4 175 0
 403              		.cfi_startproc
 404              		@ args = 0, pretend = 0, frame = 0
 405              		@ frame_needed = 0, uses_anonymous_args = 0
 406              	.LVL30:
 407 0000 38B5     		push	{r3, r4, r5, lr}
 408              		.cfi_def_cfa_offset 16
 409              		.cfi_offset 3, -16
 410              		.cfi_offset 4, -12
 411              		.cfi_offset 5, -8
 412              		.cfi_offset 14, -4
 413              		.loc 4 175 0
 414 0002 0446     		mov	r4, r0
 415 0004 0D46     		mov	r5, r1
 416              	.LBB100:
 417              	.LBB101:
 418              		.loc 3 511 0
 419 0006 FFF7FEFF 		bl	chSysLock
 420              	.LVL31:
 421              	.LBE101:
 422              	.LBE100:
 423              		.loc 4 181 0
 424 000a 0323     		movs	r3, #3
 425 000c 2370     		strb	r3, [r4]
 426 000e 2946     		mov	r1, r5
 427 0010 2046     		mov	r0, r4
 428 0012 FFF7FEFF 		bl	spi_lld_ignore
 429              	.LVL32:
 430              		.loc 4 183 0
 431 0016 BDE83840 		pop	{r3, r4, r5, lr}
 432              		.cfi_restore 14
 433              		.cfi_restore 5
 434              		.cfi_restore 4
 435              		.cfi_restore 3
 436              		.cfi_def_cfa_offset 0
 437              	.LVL33:
 438              	.LBB102:
 439              	.LBB103:
 440              		.loc 3 522 0
 441 001a FFF7FEBF 		b	chSysUnlock
 442              	.LVL34:
 443              	.LBE103:
 444              	.LBE102:
 445              		.cfi_endproc
 446              	.LFE329:
 447              		.size	spiStartIgnore, .-spiStartIgnore
 448              		.section	.text.spiStartExchange,"ax",%progbits
 449              		.align	1
 450              		.global	spiStartExchange
 451              		.syntax unified
 452              		.thumb
 453              		.thumb_func
 454              		.fpu fpv4-sp-d16
 455              		.type	spiStartExchange, %function
 456              	spiStartExchange:
ARM GAS  /tmp/ccbpjEjg.s 			page 9


 457              	.LFB330:
 458              		.loc 4 203 0
 459              		.cfi_startproc
 460              		@ args = 0, pretend = 0, frame = 0
 461              		@ frame_needed = 0, uses_anonymous_args = 0
 462              	.LVL35:
 463 0000 F8B5     		push	{r3, r4, r5, r6, r7, lr}
 464              		.cfi_def_cfa_offset 24
 465              		.cfi_offset 3, -24
 466              		.cfi_offset 4, -20
 467              		.cfi_offset 5, -16
 468              		.cfi_offset 6, -12
 469              		.cfi_offset 7, -8
 470              		.cfi_offset 14, -4
 471              		.loc 4 203 0
 472 0002 0446     		mov	r4, r0
 473 0004 1F46     		mov	r7, r3
 474 0006 0D46     		mov	r5, r1
 475 0008 1646     		mov	r6, r2
 476              	.LBB104:
 477              	.LBB105:
 478              		.loc 3 511 0
 479 000a FFF7FEFF 		bl	chSysLock
 480              	.LVL36:
 481              	.LBE105:
 482              	.LBE104:
 483              		.loc 4 210 0
 484 000e 0323     		movs	r3, #3
 485 0010 2370     		strb	r3, [r4]
 486 0012 3246     		mov	r2, r6
 487 0014 3B46     		mov	r3, r7
 488 0016 2946     		mov	r1, r5
 489 0018 2046     		mov	r0, r4
 490 001a FFF7FEFF 		bl	spi_lld_exchange
 491              	.LVL37:
 492              		.loc 4 212 0
 493 001e BDE8F840 		pop	{r3, r4, r5, r6, r7, lr}
 494              		.cfi_restore 14
 495              		.cfi_restore 7
 496              		.cfi_restore 6
 497              		.cfi_restore 5
 498              		.cfi_restore 4
 499              		.cfi_restore 3
 500              		.cfi_def_cfa_offset 0
 501              	.LVL38:
 502              	.LBB106:
 503              	.LBB107:
 504              		.loc 3 522 0
 505 0022 FFF7FEBF 		b	chSysUnlock
 506              	.LVL39:
 507              	.LBE107:
 508              	.LBE106:
 509              		.cfi_endproc
 510              	.LFE330:
 511              		.size	spiStartExchange, .-spiStartExchange
 512              		.section	.text.spiStartSend,"ax",%progbits
 513              		.align	1
ARM GAS  /tmp/ccbpjEjg.s 			page 10


 514              		.global	spiStartSend
 515              		.syntax unified
 516              		.thumb
 517              		.thumb_func
 518              		.fpu fpv4-sp-d16
 519              		.type	spiStartSend, %function
 520              	spiStartSend:
 521              	.LFB331:
 522              		.loc 4 229 0
 523              		.cfi_startproc
 524              		@ args = 0, pretend = 0, frame = 0
 525              		@ frame_needed = 0, uses_anonymous_args = 0
 526              	.LVL40:
 527 0000 70B5     		push	{r4, r5, r6, lr}
 528              		.cfi_def_cfa_offset 16
 529              		.cfi_offset 4, -16
 530              		.cfi_offset 5, -12
 531              		.cfi_offset 6, -8
 532              		.cfi_offset 14, -4
 533              		.loc 4 229 0
 534 0002 0446     		mov	r4, r0
 535 0004 0D46     		mov	r5, r1
 536 0006 1646     		mov	r6, r2
 537              	.LBB108:
 538              	.LBB109:
 539              		.loc 3 511 0
 540 0008 FFF7FEFF 		bl	chSysLock
 541              	.LVL41:
 542              	.LBE109:
 543              	.LBE108:
 544              		.loc 4 235 0
 545 000c 0323     		movs	r3, #3
 546 000e 2370     		strb	r3, [r4]
 547 0010 3246     		mov	r2, r6
 548 0012 2946     		mov	r1, r5
 549 0014 2046     		mov	r0, r4
 550 0016 FFF7FEFF 		bl	spi_lld_send
 551              	.LVL42:
 552              		.loc 4 237 0
 553 001a BDE87040 		pop	{r4, r5, r6, lr}
 554              		.cfi_restore 14
 555              		.cfi_restore 6
 556              		.cfi_restore 5
 557              		.cfi_restore 4
 558              		.cfi_def_cfa_offset 0
 559              	.LVL43:
 560              	.LBB110:
 561              	.LBB111:
 562              		.loc 3 522 0
 563 001e FFF7FEBF 		b	chSysUnlock
 564              	.LVL44:
 565              	.LBE111:
 566              	.LBE110:
 567              		.cfi_endproc
 568              	.LFE331:
 569              		.size	spiStartSend, .-spiStartSend
 570              		.section	.text.spiStartReceive,"ax",%progbits
ARM GAS  /tmp/ccbpjEjg.s 			page 11


 571              		.align	1
 572              		.global	spiStartReceive
 573              		.syntax unified
 574              		.thumb
 575              		.thumb_func
 576              		.fpu fpv4-sp-d16
 577              		.type	spiStartReceive, %function
 578              	spiStartReceive:
 579              	.LFB332:
 580              		.loc 4 254 0
 581              		.cfi_startproc
 582              		@ args = 0, pretend = 0, frame = 0
 583              		@ frame_needed = 0, uses_anonymous_args = 0
 584              	.LVL45:
 585 0000 70B5     		push	{r4, r5, r6, lr}
 586              		.cfi_def_cfa_offset 16
 587              		.cfi_offset 4, -16
 588              		.cfi_offset 5, -12
 589              		.cfi_offset 6, -8
 590              		.cfi_offset 14, -4
 591              		.loc 4 254 0
 592 0002 0446     		mov	r4, r0
 593 0004 0D46     		mov	r5, r1
 594 0006 1646     		mov	r6, r2
 595              	.LBB112:
 596              	.LBB113:
 597              		.loc 3 511 0
 598 0008 FFF7FEFF 		bl	chSysLock
 599              	.LVL46:
 600              	.LBE113:
 601              	.LBE112:
 602              		.loc 4 260 0
 603 000c 0323     		movs	r3, #3
 604 000e 2370     		strb	r3, [r4]
 605 0010 3246     		mov	r2, r6
 606 0012 2946     		mov	r1, r5
 607 0014 2046     		mov	r0, r4
 608 0016 FFF7FEFF 		bl	spi_lld_receive
 609              	.LVL47:
 610              		.loc 4 262 0
 611 001a BDE87040 		pop	{r4, r5, r6, lr}
 612              		.cfi_restore 14
 613              		.cfi_restore 6
 614              		.cfi_restore 5
 615              		.cfi_restore 4
 616              		.cfi_def_cfa_offset 0
 617              	.LVL48:
 618              	.LBB114:
 619              	.LBB115:
 620              		.loc 3 522 0
 621 001e FFF7FEBF 		b	chSysUnlock
 622              	.LVL49:
 623              	.LBE115:
 624              	.LBE114:
 625              		.cfi_endproc
 626              	.LFE332:
 627              		.size	spiStartReceive, .-spiStartReceive
ARM GAS  /tmp/ccbpjEjg.s 			page 12


 628              		.section	.text.spiAbortI,"ax",%progbits
 629              		.align	1
 630              		.global	spiAbortI
 631              		.syntax unified
 632              		.thumb
 633              		.thumb_func
 634              		.fpu fpv4-sp-d16
 635              		.type	spiAbortI, %function
 636              	spiAbortI:
 637              	.LFB333:
 638              		.loc 4 272 0
 639              		.cfi_startproc
 640              		@ args = 0, pretend = 0, frame = 0
 641              		@ frame_needed = 0, uses_anonymous_args = 0
 642              	.LVL50:
 643 0000 10B5     		push	{r4, lr}
 644              		.cfi_def_cfa_offset 8
 645              		.cfi_offset 4, -8
 646              		.cfi_offset 14, -4
 647              		.loc 4 272 0
 648 0002 0446     		mov	r4, r0
 649              		.loc 4 280 0
 650 0004 FFF7FEFF 		bl	spi_lld_abort
 651              	.LVL51:
 652              		.loc 4 281 0
 653 0008 2046     		mov	r0, r4
 654 000a 0223     		movs	r3, #2
 655 000c 00F8083B 		strb	r3, [r0], #8
 656              	.LVL52:
 657              	.LBB116:
 658              	.LBB117:
 659              		.loc 3 775 0
 660 0010 0021     		movs	r1, #0
 661              	.LBE117:
 662              	.LBE116:
 663              		.loc 4 285 0
 664 0012 BDE81040 		pop	{r4, lr}
 665              		.cfi_restore 14
 666              		.cfi_restore 4
 667              		.cfi_def_cfa_offset 0
 668              	.LVL53:
 669              	.LBB119:
 670              	.LBB118:
 671              		.loc 3 775 0
 672 0016 FFF7FEBF 		b	chThdResumeI
 673              	.LVL54:
 674              	.LBE118:
 675              	.LBE119:
 676              		.cfi_endproc
 677              	.LFE333:
 678              		.size	spiAbortI, .-spiAbortI
 679              		.section	.text.spiAbort,"ax",%progbits
 680              		.align	1
 681              		.global	spiAbort
 682              		.syntax unified
 683              		.thumb
 684              		.thumb_func
ARM GAS  /tmp/ccbpjEjg.s 			page 13


 685              		.fpu fpv4-sp-d16
 686              		.type	spiAbort, %function
 687              	spiAbort:
 688              	.LFB334:
 689              		.loc 4 294 0
 690              		.cfi_startproc
 691              		@ args = 0, pretend = 0, frame = 0
 692              		@ frame_needed = 0, uses_anonymous_args = 0
 693              	.LVL55:
 694 0000 10B5     		push	{r4, lr}
 695              		.cfi_def_cfa_offset 8
 696              		.cfi_offset 4, -8
 697              		.cfi_offset 14, -4
 698              		.loc 4 294 0
 699 0002 0446     		mov	r4, r0
 700              	.LBB120:
 701              	.LBB121:
 702              		.loc 3 511 0
 703 0004 FFF7FEFF 		bl	chSysLock
 704              	.LVL56:
 705              	.LBE121:
 706              	.LBE120:
 707              		.loc 4 299 0
 708 0008 2378     		ldrb	r3, [r4]	@ zero_extendqisi2
 709 000a 032B     		cmp	r3, #3
 710 000c 04D1     		bne	.L16
 711              		.loc 4 300 0
 712 000e 2046     		mov	r0, r4
 713 0010 FFF7FEFF 		bl	spiAbortI
 714              	.LVL57:
 715              	.LBB122:
 716              	.LBB123:
 717              		.loc 3 618 0
 718 0014 FFF7FEFF 		bl	chSchRescheduleS
 719              	.LVL58:
 720              	.L16:
 721              	.LBE123:
 722              	.LBE122:
 723              		.loc 4 304 0
 724 0018 BDE81040 		pop	{r4, lr}
 725              		.cfi_restore 14
 726              		.cfi_restore 4
 727              		.cfi_def_cfa_offset 0
 728              	.LVL59:
 729              	.LBB124:
 730              	.LBB125:
 731              		.loc 3 522 0
 732 001c FFF7FEBF 		b	chSysUnlock
 733              	.LVL60:
 734              	.LBE125:
 735              	.LBE124:
 736              		.cfi_endproc
 737              	.LFE334:
 738              		.size	spiAbort, .-spiAbort
 739              		.section	.text.spiIgnore,"ax",%progbits
 740              		.align	1
 741              		.global	spiIgnore
ARM GAS  /tmp/ccbpjEjg.s 			page 14


 742              		.syntax unified
 743              		.thumb
 744              		.thumb_func
 745              		.fpu fpv4-sp-d16
 746              		.type	spiIgnore, %function
 747              	spiIgnore:
 748              	.LFB335:
 749              		.loc 4 322 0
 750              		.cfi_startproc
 751              		@ args = 0, pretend = 0, frame = 0
 752              		@ frame_needed = 0, uses_anonymous_args = 0
 753              	.LVL61:
 754 0000 38B5     		push	{r3, r4, r5, lr}
 755              		.cfi_def_cfa_offset 16
 756              		.cfi_offset 3, -16
 757              		.cfi_offset 4, -12
 758              		.cfi_offset 5, -8
 759              		.cfi_offset 14, -4
 760              		.loc 4 322 0
 761 0002 0446     		mov	r4, r0
 762 0004 0D46     		mov	r5, r1
 763              	.LBB126:
 764              	.LBB127:
 765              		.loc 3 511 0
 766 0006 FFF7FEFF 		bl	chSysLock
 767              	.LVL62:
 768              	.LBE127:
 769              	.LBE126:
 770              		.loc 4 331 0
 771 000a 0323     		movs	r3, #3
 772 000c 2370     		strb	r3, [r4]
 773 000e 2946     		mov	r1, r5
 774 0010 2046     		mov	r0, r4
 775 0012 FFF7FEFF 		bl	spi_lld_ignore
 776              	.LVL63:
 777              		.loc 4 332 0
 778 0016 04F10800 		add	r0, r4, #8
 779 001a FFF7FEFF 		bl	osalThreadSuspendS
 780              	.LVL64:
 781              		.loc 4 334 0
 782 001e BDE83840 		pop	{r3, r4, r5, lr}
 783              		.cfi_restore 14
 784              		.cfi_restore 5
 785              		.cfi_restore 4
 786              		.cfi_restore 3
 787              		.cfi_def_cfa_offset 0
 788              	.LVL65:
 789              	.LBB128:
 790              	.LBB129:
 791              		.loc 3 522 0
 792 0022 FFF7FEBF 		b	chSysUnlock
 793              	.LVL66:
 794              	.LBE129:
 795              	.LBE128:
 796              		.cfi_endproc
 797              	.LFE335:
 798              		.size	spiIgnore, .-spiIgnore
ARM GAS  /tmp/ccbpjEjg.s 			page 15


 799              		.section	.text.spiExchange,"ax",%progbits
 800              		.align	1
 801              		.global	spiExchange
 802              		.syntax unified
 803              		.thumb
 804              		.thumb_func
 805              		.fpu fpv4-sp-d16
 806              		.type	spiExchange, %function
 807              	spiExchange:
 808              	.LFB336:
 809              		.loc 4 355 0
 810              		.cfi_startproc
 811              		@ args = 0, pretend = 0, frame = 0
 812              		@ frame_needed = 0, uses_anonymous_args = 0
 813              	.LVL67:
 814 0000 F8B5     		push	{r3, r4, r5, r6, r7, lr}
 815              		.cfi_def_cfa_offset 24
 816              		.cfi_offset 3, -24
 817              		.cfi_offset 4, -20
 818              		.cfi_offset 5, -16
 819              		.cfi_offset 6, -12
 820              		.cfi_offset 7, -8
 821              		.cfi_offset 14, -4
 822              		.loc 4 355 0
 823 0002 0446     		mov	r4, r0
 824 0004 1F46     		mov	r7, r3
 825 0006 0D46     		mov	r5, r1
 826 0008 1646     		mov	r6, r2
 827              	.LBB130:
 828              	.LBB131:
 829              		.loc 3 511 0
 830 000a FFF7FEFF 		bl	chSysLock
 831              	.LVL68:
 832              	.LBE131:
 833              	.LBE130:
 834              		.loc 4 365 0
 835 000e 0323     		movs	r3, #3
 836 0010 2370     		strb	r3, [r4]
 837 0012 3246     		mov	r2, r6
 838 0014 3B46     		mov	r3, r7
 839 0016 2946     		mov	r1, r5
 840 0018 2046     		mov	r0, r4
 841 001a FFF7FEFF 		bl	spi_lld_exchange
 842              	.LVL69:
 843              		.loc 4 366 0
 844 001e 04F10800 		add	r0, r4, #8
 845 0022 FFF7FEFF 		bl	osalThreadSuspendS
 846              	.LVL70:
 847              		.loc 4 368 0
 848 0026 BDE8F840 		pop	{r3, r4, r5, r6, r7, lr}
 849              		.cfi_restore 14
 850              		.cfi_restore 7
 851              		.cfi_restore 6
 852              		.cfi_restore 5
 853              		.cfi_restore 4
 854              		.cfi_restore 3
 855              		.cfi_def_cfa_offset 0
ARM GAS  /tmp/ccbpjEjg.s 			page 16


 856              	.LVL71:
 857              	.LBB132:
 858              	.LBB133:
 859              		.loc 3 522 0
 860 002a FFF7FEBF 		b	chSysUnlock
 861              	.LVL72:
 862              	.LBE133:
 863              	.LBE132:
 864              		.cfi_endproc
 865              	.LFE336:
 866              		.size	spiExchange, .-spiExchange
 867              		.section	.text.spiSend,"ax",%progbits
 868              		.align	1
 869              		.global	spiSend
 870              		.syntax unified
 871              		.thumb
 872              		.thumb_func
 873              		.fpu fpv4-sp-d16
 874              		.type	spiSend, %function
 875              	spiSend:
 876              	.LFB337:
 877              		.loc 4 386 0
 878              		.cfi_startproc
 879              		@ args = 0, pretend = 0, frame = 0
 880              		@ frame_needed = 0, uses_anonymous_args = 0
 881              	.LVL73:
 882 0000 70B5     		push	{r4, r5, r6, lr}
 883              		.cfi_def_cfa_offset 16
 884              		.cfi_offset 4, -16
 885              		.cfi_offset 5, -12
 886              		.cfi_offset 6, -8
 887              		.cfi_offset 14, -4
 888              		.loc 4 386 0
 889 0002 0446     		mov	r4, r0
 890 0004 0D46     		mov	r5, r1
 891 0006 1646     		mov	r6, r2
 892              	.LBB134:
 893              	.LBB135:
 894              		.loc 3 511 0
 895 0008 FFF7FEFF 		bl	chSysLock
 896              	.LVL74:
 897              	.LBE135:
 898              	.LBE134:
 899              		.loc 4 395 0
 900 000c 0323     		movs	r3, #3
 901 000e 2370     		strb	r3, [r4]
 902 0010 3246     		mov	r2, r6
 903 0012 2946     		mov	r1, r5
 904 0014 2046     		mov	r0, r4
 905 0016 FFF7FEFF 		bl	spi_lld_send
 906              	.LVL75:
 907              		.loc 4 396 0
 908 001a 04F10800 		add	r0, r4, #8
 909 001e FFF7FEFF 		bl	osalThreadSuspendS
 910              	.LVL76:
 911              		.loc 4 398 0
 912 0022 BDE87040 		pop	{r4, r5, r6, lr}
ARM GAS  /tmp/ccbpjEjg.s 			page 17


 913              		.cfi_restore 14
 914              		.cfi_restore 6
 915              		.cfi_restore 5
 916              		.cfi_restore 4
 917              		.cfi_def_cfa_offset 0
 918              	.LVL77:
 919              	.LBB136:
 920              	.LBB137:
 921              		.loc 3 522 0
 922 0026 FFF7FEBF 		b	chSysUnlock
 923              	.LVL78:
 924              	.LBE137:
 925              	.LBE136:
 926              		.cfi_endproc
 927              	.LFE337:
 928              		.size	spiSend, .-spiSend
 929              		.section	.text.spiReceive,"ax",%progbits
 930              		.align	1
 931              		.global	spiReceive
 932              		.syntax unified
 933              		.thumb
 934              		.thumb_func
 935              		.fpu fpv4-sp-d16
 936              		.type	spiReceive, %function
 937              	spiReceive:
 938              	.LFB338:
 939              		.loc 4 416 0
 940              		.cfi_startproc
 941              		@ args = 0, pretend = 0, frame = 0
 942              		@ frame_needed = 0, uses_anonymous_args = 0
 943              	.LVL79:
 944 0000 70B5     		push	{r4, r5, r6, lr}
 945              		.cfi_def_cfa_offset 16
 946              		.cfi_offset 4, -16
 947              		.cfi_offset 5, -12
 948              		.cfi_offset 6, -8
 949              		.cfi_offset 14, -4
 950              		.loc 4 416 0
 951 0002 0446     		mov	r4, r0
 952 0004 0D46     		mov	r5, r1
 953 0006 1646     		mov	r6, r2
 954              	.LBB138:
 955              	.LBB139:
 956              		.loc 3 511 0
 957 0008 FFF7FEFF 		bl	chSysLock
 958              	.LVL80:
 959              	.LBE139:
 960              	.LBE138:
 961              		.loc 4 425 0
 962 000c 0323     		movs	r3, #3
 963 000e 2370     		strb	r3, [r4]
 964 0010 3246     		mov	r2, r6
 965 0012 2946     		mov	r1, r5
 966 0014 2046     		mov	r0, r4
 967 0016 FFF7FEFF 		bl	spi_lld_receive
 968              	.LVL81:
 969              		.loc 4 426 0
ARM GAS  /tmp/ccbpjEjg.s 			page 18


 970 001a 04F10800 		add	r0, r4, #8
 971 001e FFF7FEFF 		bl	osalThreadSuspendS
 972              	.LVL82:
 973              		.loc 4 428 0
 974 0022 BDE87040 		pop	{r4, r5, r6, lr}
 975              		.cfi_restore 14
 976              		.cfi_restore 6
 977              		.cfi_restore 5
 978              		.cfi_restore 4
 979              		.cfi_def_cfa_offset 0
 980              	.LVL83:
 981              	.LBB140:
 982              	.LBB141:
 983              		.loc 3 522 0
 984 0026 FFF7FEBF 		b	chSysUnlock
 985              	.LVL84:
 986              	.LBE141:
 987              	.LBE140:
 988              		.cfi_endproc
 989              	.LFE338:
 990              		.size	spiReceive, .-spiReceive
 991              		.section	.text.spiAcquireBus,"ax",%progbits
 992              		.align	1
 993              		.global	spiAcquireBus
 994              		.syntax unified
 995              		.thumb
 996              		.thumb_func
 997              		.fpu fpv4-sp-d16
 998              		.type	spiAcquireBus, %function
 999              	spiAcquireBus:
 1000              	.LFB339:
 1001              		.loc 4 443 0
 1002              		.cfi_startproc
 1003              		@ args = 0, pretend = 0, frame = 0
 1004              		@ frame_needed = 0, uses_anonymous_args = 0
 1005              		@ link register save eliminated.
 1006              	.LVL85:
 1007              	.LBB142:
 1008              	.LBB143:
 1009              		.loc 3 994 0
 1010 0000 0C30     		adds	r0, r0, #12
 1011              	.LVL86:
 1012 0002 FFF7FEBF 		b	chMtxLock
 1013              	.LVL87:
 1014              	.LBE143:
 1015              	.LBE142:
 1016              		.cfi_endproc
 1017              	.LFE339:
 1018              		.size	spiAcquireBus, .-spiAcquireBus
 1019              		.section	.text.spiReleaseBus,"ax",%progbits
 1020              		.align	1
 1021              		.global	spiReleaseBus
 1022              		.syntax unified
 1023              		.thumb
 1024              		.thumb_func
 1025              		.fpu fpv4-sp-d16
 1026              		.type	spiReleaseBus, %function
ARM GAS  /tmp/ccbpjEjg.s 			page 19


 1027              	spiReleaseBus:
 1028              	.LFB340:
 1029              		.loc 4 459 0
 1030              		.cfi_startproc
 1031              		@ args = 0, pretend = 0, frame = 0
 1032              		@ frame_needed = 0, uses_anonymous_args = 0
 1033              		@ link register save eliminated.
 1034              	.LVL88:
 1035              	.LBB144:
 1036              	.LBB145:
 1037              		.loc 3 1018 0
 1038 0000 0C30     		adds	r0, r0, #12
 1039              	.LVL89:
 1040 0002 FFF7FEBF 		b	chMtxUnlock
 1041              	.LVL90:
 1042              	.LBE145:
 1043              	.LBE144:
 1044              		.cfi_endproc
 1045              	.LFE340:
 1046              		.size	spiReleaseBus, .-spiReleaseBus
 1047              		.text
 1048              	.Letext0:
 1049              		.file 5 "/opt/gcc-arm-none-eabi-6-2017-q2-update/lib/gcc/arm-none-eabi/6.3.1/include/stddef.h"
 1050              		.file 6 "/opt/gcc-arm-none-eabi-6-2017-q2-update/arm-none-eabi/include/machine/_default_types.h"
 1051              		.file 7 "/opt/gcc-arm-none-eabi-6-2017-q2-update/arm-none-eabi/include/sys/_stdint.h"
 1052              		.file 8 "/opt/gcc-arm-none-eabi-6-2017-q2-update/arm-none-eabi/include/stdint.h"
 1053              		.file 9 "../../modules/ChibiOS/os/common/ports/ARMCMx/compilers/GCC/chtypes.h"
 1054              		.file 10 "../../modules/ChibiOS/os/rt/include/chsystypes.h"
 1055              		.file 11 "../../modules/ChibiOS/os/rt/include/chschd.h"
 1056              		.file 12 "../../modules/ChibiOS/os/rt/include/chtime.h"
 1057              		.file 13 "../../modules/ChibiOS/os/common/ext/ARM/CMSIS/Core/Include/core_cm4.h"
 1058              		.file 14 "../../modules/ChibiOS/os/common/ext/ST/STM32F4xx/system_stm32f4xx.h"
 1059              		.file 15 "../../modules/ChibiOS/os/common/ext/ST/STM32F4xx/stm32f427xx.h"
 1060              		.file 16 "../../modules/ChibiOS/os/common/ports/ARMCMx/chcore.h"
 1061              		.file 17 "../../modules/ChibiOS/os/common/ports/ARMCMx/chcore_v7m.h"
 1062              		.file 18 "../../modules/ChibiOS/os/hal/ports/STM32/LLD/TIMv1/stm32_tim.h"
 1063              		.file 19 "../../modules/ChibiOS/os/rt/include/chtm.h"
 1064              		.file 20 "../../modules/ChibiOS/os/rt/include/chstats.h"
 1065              		.file 21 "../../modules/ChibiOS/os/rt/include/chsem.h"
 1066              		.file 22 "../../modules/ChibiOS/os/rt/include/chmtx.h"
 1067              		.file 23 "../../modules/ChibiOS/os/rt/include/chregistry.h"
 1068              		.file 24 "../../modules/ChibiOS/os/rt/include/chevents.h"
 1069              		.file 25 "../../modules/ChibiOS/os/oslib/include/chmemcore.h"
 1070              		.file 26 "../../modules/ChibiOS/os/oslib/include/chmempools.h"
 1071              		.file 27 "../../modules/ChibiOS/os/oslib/include/chfactory.h"
 1072              		.file 28 "../../modules/ChibiOS/os/hal/ports/STM32/LLD/DMAv2/stm32_dma.h"
 1073              		.file 29 "../../modules/ChibiOS/os/hal/include/hal_ioblock.h"
 1074              		.file 30 "../../modules/ChibiOS/os/hal/include/hal_queues.h"
 1075              		.file 31 "../../modules/ChibiOS/os/hal/include/hal_pal.h"
 1076              		.file 32 "../../modules/ChibiOS/os/hal/ports/STM32/LLD/GPIOv2/stm32_gpio.h"
 1077              		.file 33 "../../modules/ChibiOS/os/hal/ports/STM32/LLD/GPIOv2/hal_pal_lld.h"
 1078              		.file 34 "../../modules/ChibiOS/os/hal/include/hal_adc.h"
 1079              		.file 35 "../../modules/ChibiOS/os/hal/ports/STM32/LLD/ADCv2/hal_adc_lld.h"
 1080              		.file 36 "../../modules/ChibiOS/os/hal/include/hal_i2c.h"
 1081              		.file 37 "../../modules/ChibiOS/os/hal/ports/STM32/LLD/I2Cv1/hal_i2c_lld.h"
 1082              		.file 38 "../../modules/ChibiOS/os/hal/include/hal_pwm.h"
 1083              		.file 39 "../../modules/ChibiOS/os/hal/ports/STM32/LLD/TIMv1/hal_pwm_lld.h"
ARM GAS  /tmp/ccbpjEjg.s 			page 20


 1084              		.file 40 "../../modules/ChibiOS/os/hal/include/hal_serial.h"
 1085              		.file 41 "../../modules/ChibiOS/os/hal/ports/STM32/LLD/USARTv1/hal_serial_lld.h"
 1086              		.file 42 "../../modules/ChibiOS/os/hal/include/hal_sdc.h"
 1087              		.file 43 "../../modules/ChibiOS/os/hal/ports/STM32/LLD/SDIOv1/hal_sdc_lld.h"
 1088              		.file 44 "../../modules/ChibiOS/os/hal/include/hal_spi.h"
 1089              		.file 45 "../../modules/ChibiOS/os/hal/ports/STM32/LLD/SPIv1/hal_spi_lld.h"
 1090              		.file 46 "../../modules/ChibiOS/os/hal/include/hal_usb.h"
 1091              		.file 47 "../../modules/ChibiOS/os/hal/ports/STM32/LLD/OTGv1/hal_usb_lld.h"
 1092              		.file 48 "../../modules/ChibiOS/os/hal/ports/STM32/LLD/OTGv1/stm32_otg.h"
 1093              		.file 49 "../../modules/ChibiOS/os/rt/include/chthreads.h"