ARM GAS  /tmp/ccIaAecO.s 			page 1


   1              		.cpu cortex-m4
   2              		.eabi_attribute 27, 1
   3              		.eabi_attribute 28, 1
   4              		.eabi_attribute 20, 1
   5              		.eabi_attribute 21, 1
   6              		.eabi_attribute 23, 3
   7              		.eabi_attribute 24, 1
   8              		.eabi_attribute 25, 1
   9              		.eabi_attribute 26, 1
  10              		.eabi_attribute 30, 4
  11              		.eabi_attribute 34, 1
  12              		.eabi_attribute 18, 4
  13              		.file	"hrt.c"
  14              		.text
  15              	.Ltext0:
  16              		.cfi_sections	.debug_frame
  17              		.section	.text.get_systime_us32,"ax",%progbits
  18              		.align	1
  19              		.syntax unified
  20              		.thumb
  21              		.thumb_func
  22              		.fpu fpv4-sp-d16
  23              		.type	get_systime_us32, %function
  24              	get_systime_us32:
  25              	.LFB323:
  26              		.file 1 "../../libraries/AP_HAL_ChibiOS/hwdef/common/hrt.c"
  27              		.loc 1 51 0
  28              		.cfi_startproc
  29              		@ args = 0, pretend = 0, frame = 0
  30              		@ frame_needed = 0, uses_anonymous_args = 0
  31              	.LBB13:
  32              	.LBB14:
  33              	.LBB15:
  34              	.LBB16:
  35              		.file 2 "../../modules/ChibiOS/os/hal/ports/STM32/LLD/TIMv1/hal_st_lld.h"
  36              		.loc 2 147 0
  37 0000 0C4B     		ldr	r3, .L3
  38 0002 586A     		ldr	r0, [r3, #36]
  39              	.LBE16:
  40              	.LBE15:
  41              	.LBE14:
  42              	.LBE13:
  43              		.loc 1 56 0
  44 0004 0C4B     		ldr	r3, .L3+4
  45 0006 1A68     		ldr	r2, [r3]
  46 0008 8242     		cmp	r2, r0
  47              		.loc 1 51 0
  48 000a 30B5     		push	{r4, r5, lr}
  49              		.cfi_def_cfa_offset 12
  50              		.cfi_offset 4, -12
  51              		.cfi_offset 5, -8
  52              		.cfi_offset 14, -4
  53 000c 1A46     		mov	r2, r3
  54              		.loc 1 56 0
  55 000e 0FD9     		bls	.L2
  56              		.loc 1 57 0
  57 0010 0A4B     		ldr	r3, .L3+8
ARM GAS  /tmp/ccIaAecO.s 			page 2


  58              		.loc 1 58 0
  59 0012 0B49     		ldr	r1, .L3+12
  60              		.loc 1 57 0
  61 0014 D3E90045 		ldrd	r4, [r3]
  62 0018 14F1FF34 		adds	r4, r4, #-1
  63 001c 45F10005 		adc	r5, r5, #0
  64 0020 C3E90045 		strd	r4, [r3]
  65              		.loc 1 58 0
  66 0024 0B68     		ldr	r3, [r1]
  67 0026 03F58303 		add	r3, r3, #4292608
  68 002a 03F63713 		addw	r3, r3, #2359
  69 002e 0B60     		str	r3, [r1]
  70              	.L2:
  71              		.loc 1 60 0
  72 0030 1060     		str	r0, [r2]
  73              		.loc 1 62 0
  74 0032 30BD     		pop	{r4, r5, pc}
  75              	.L4:
  76              		.align	2
  77              	.L3:
  78 0034 000C0040 		.word	1073744896
  79 0038 00000000 		.word	.LANCHOR0
  80 003c 00000000 		.word	.LANCHOR1
  81 0040 00000000 		.word	.LANCHOR2
  82              		.cfi_endproc
  83              	.LFE323:
  84              		.size	get_systime_us32, .-get_systime_us32
  85              		.section	.text.hrt_micros64,"ax",%progbits
  86              		.align	1
  87              		.global	hrt_micros64
  88              		.syntax unified
  89              		.thumb
  90              		.thumb_func
  91              		.fpu fpv4-sp-d16
  92              		.type	hrt_micros64, %function
  93              	hrt_micros64:
  94              	.LFB324:
  95              		.loc 1 73 0
  96              		.cfi_startproc
  97              		@ args = 0, pretend = 0, frame = 0
  98              		@ frame_needed = 0, uses_anonymous_args = 0
  99 0000 70B5     		push	{r4, r5, r6, lr}
 100              		.cfi_def_cfa_offset 16
 101              		.cfi_offset 4, -16
 102              		.cfi_offset 5, -12
 103              		.cfi_offset 6, -8
 104              		.cfi_offset 14, -4
 105              		.loc 1 74 0
 106 0002 FFF7FEFF 		bl	chSysGetStatusAndLockX
 107              	.LVL0:
 108 0006 0646     		mov	r6, r0
 109              	.LVL1:
 110              		.loc 1 75 0
 111 0008 FFF7FEFF 		bl	get_systime_us32
 112              	.LVL2:
 113              		.loc 1 76 0
 114 000c 054B     		ldr	r3, .L6
ARM GAS  /tmp/ccIaAecO.s 			page 3


 115 000e D3E90045 		ldrd	r4, [r3]
 116 0012 2418     		adds	r4, r4, r0
 117 0014 45F10005 		adc	r5, r5, #0
 118              	.LVL3:
 119              		.loc 1 77 0
 120 0018 3046     		mov	r0, r6
 121              	.LVL4:
 122 001a FFF7FEFF 		bl	chSysRestoreStatusX
 123              	.LVL5:
 124              		.loc 1 79 0
 125 001e 2046     		mov	r0, r4
 126 0020 2946     		mov	r1, r5
 127 0022 70BD     		pop	{r4, r5, r6, pc}
 128              	.LVL6:
 129              	.L7:
 130              		.align	2
 131              	.L6:
 132 0024 00000000 		.word	.LANCHOR1
 133              		.cfi_endproc
 134              	.LFE324:
 135              		.size	hrt_micros64, .-hrt_micros64
 136              		.section	.text.hrt_micros32,"ax",%progbits
 137              		.align	1
 138              		.global	hrt_micros32
 139              		.syntax unified
 140              		.thumb
 141              		.thumb_func
 142              		.fpu fpv4-sp-d16
 143              		.type	hrt_micros32, %function
 144              	hrt_micros32:
 145              	.LFB325:
 146              		.loc 1 82 0
 147              		.cfi_startproc
 148              		@ args = 0, pretend = 0, frame = 0
 149              		@ frame_needed = 0, uses_anonymous_args = 0
 150 0000 38B5     		push	{r3, r4, r5, lr}
 151              		.cfi_def_cfa_offset 16
 152              		.cfi_offset 3, -16
 153              		.cfi_offset 4, -12
 154              		.cfi_offset 5, -8
 155              		.cfi_offset 14, -4
 156              		.loc 1 83 0
 157 0002 FFF7FEFF 		bl	chSysGetStatusAndLockX
 158              	.LVL7:
 159 0006 0546     		mov	r5, r0
 160              	.LVL8:
 161              		.loc 1 84 0
 162 0008 FFF7FEFF 		bl	get_systime_us32
 163              	.LVL9:
 164 000c 0446     		mov	r4, r0
 165              	.LVL10:
 166              		.loc 1 85 0
 167 000e 2846     		mov	r0, r5
 168              	.LVL11:
 169 0010 FFF7FEFF 		bl	chSysRestoreStatusX
 170              	.LVL12:
 171              		.loc 1 87 0
ARM GAS  /tmp/ccIaAecO.s 			page 4


 172 0014 2046     		mov	r0, r4
 173 0016 38BD     		pop	{r3, r4, r5, pc}
 174              		.cfi_endproc
 175              	.LFE325:
 176              		.size	hrt_micros32, .-hrt_micros32
 177              		.section	.text.hrt_millis32,"ax",%progbits
 178              		.align	1
 179              		.global	hrt_millis32
 180              		.syntax unified
 181              		.thumb
 182              		.thumb_func
 183              		.fpu fpv4-sp-d16
 184              		.type	hrt_millis32, %function
 185              	hrt_millis32:
 186              	.LFB326:
 187              		.loc 1 90 0
 188              		.cfi_startproc
 189              		@ args = 0, pretend = 0, frame = 0
 190              		@ frame_needed = 0, uses_anonymous_args = 0
 191 0000 38B5     		push	{r3, r4, r5, lr}
 192              		.cfi_def_cfa_offset 16
 193              		.cfi_offset 3, -16
 194              		.cfi_offset 4, -12
 195              		.cfi_offset 5, -8
 196              		.cfi_offset 14, -4
 197              		.loc 1 91 0
 198 0002 FFF7FEFF 		bl	chSysGetStatusAndLockX
 199              	.LVL13:
 200 0006 0546     		mov	r5, r0
 201              	.LVL14:
 202              		.loc 1 92 0
 203 0008 FFF7FEFF 		bl	get_systime_us32
 204              	.LVL15:
 205              		.loc 1 93 0
 206 000c 054B     		ldr	r3, .L10
 207 000e 4FF47A74 		mov	r4, #1000
 208 0012 B0FBF4F4 		udiv	r4, r0, r4
 209 0016 1868     		ldr	r0, [r3]
 210              	.LVL16:
 211 0018 0444     		add	r4, r4, r0
 212              	.LVL17:
 213              		.loc 1 94 0
 214 001a 2846     		mov	r0, r5
 215 001c FFF7FEFF 		bl	chSysRestoreStatusX
 216              	.LVL18:
 217              		.loc 1 96 0
 218 0020 2046     		mov	r0, r4
 219 0022 38BD     		pop	{r3, r4, r5, pc}
 220              	.LVL19:
 221              	.L11:
 222              		.align	2
 223              	.L10:
 224 0024 00000000 		.word	.LANCHOR2
 225              		.cfi_endproc
 226              	.LFE326:
 227              		.size	hrt_millis32, .-hrt_millis32
 228              		.section	.bss.last_systime,"aw",%nobits
ARM GAS  /tmp/ccIaAecO.s 			page 5


 229              		.align	2
 230              		.set	.LANCHOR0,. + 0
 231              		.type	last_systime, %object
 232              		.size	last_systime, 4
 233              	last_systime:
 234 0000 00000000 		.space	4
 235              		.section	.bss.timer_base_ms,"aw",%nobits
 236              		.align	2
 237              		.set	.LANCHOR2,. + 0
 238              		.type	timer_base_ms, %object
 239              		.size	timer_base_ms, 4
 240              	timer_base_ms:
 241 0000 00000000 		.space	4
 242              		.section	.bss.timer_base_us64,"aw",%nobits
 243              		.align	3
 244              		.set	.LANCHOR1,. + 0
 245              		.type	timer_base_us64, %object
 246              		.size	timer_base_us64, 8
 247              	timer_base_us64:
 248 0000 00000000 		.space	8
 248      00000000 
 249              		.text
 250              	.Letext0:
 251              		.file 3 "/opt/gcc-arm-none-eabi-6-2017-q2-update/lib/gcc/arm-none-eabi/6.3.1/include/stddef.h"
 252              		.file 4 "/opt/gcc-arm-none-eabi-6-2017-q2-update/arm-none-eabi/include/machine/_default_types.h"
 253              		.file 5 "/opt/gcc-arm-none-eabi-6-2017-q2-update/arm-none-eabi/include/sys/_stdint.h"
 254              		.file 6 "/opt/gcc-arm-none-eabi-6-2017-q2-update/arm-none-eabi/include/stdint.h"
 255              		.file 7 "../../modules/ChibiOS/os/common/ports/ARMCMx/compilers/GCC/chtypes.h"
 256              		.file 8 "../../modules/ChibiOS/os/rt/include/chsystypes.h"
 257              		.file 9 "../../modules/ChibiOS/os/rt/include/chschd.h"
 258              		.file 10 "../../modules/ChibiOS/os/rt/include/chtime.h"
 259              		.file 11 "../../modules/ChibiOS/os/common/ext/ARM/CMSIS/Core/Include/core_cm4.h"
 260              		.file 12 "../../modules/ChibiOS/os/common/ext/ST/STM32F4xx/system_stm32f4xx.h"
 261              		.file 13 "../../modules/ChibiOS/os/common/ext/ST/STM32F4xx/stm32f427xx.h"
 262              		.file 14 "../../modules/ChibiOS/os/common/ports/ARMCMx/chcore.h"
 263              		.file 15 "../../modules/ChibiOS/os/common/ports/ARMCMx/chcore_v7m.h"
 264              		.file 16 "../../modules/ChibiOS/os/hal/ports/STM32/LLD/TIMv1/stm32_tim.h"
 265              		.file 17 "../../modules/ChibiOS/os/rt/include/chtm.h"
 266              		.file 18 "../../modules/ChibiOS/os/rt/include/chstats.h"
 267              		.file 19 "../../modules/ChibiOS/os/rt/include/chsem.h"
 268              		.file 20 "../../modules/ChibiOS/os/rt/include/chmtx.h"
 269              		.file 21 "../../modules/ChibiOS/os/rt/include/chsys.h"
 270              		.file 22 "../../modules/ChibiOS/os/rt/include/chregistry.h"
 271              		.file 23 "../../modules/ChibiOS/os/rt/include/chevents.h"
 272              		.file 24 "../../modules/ChibiOS/os/oslib/include/chmemcore.h"
 273              		.file 25 "../../modules/ChibiOS/os/oslib/include/chmempools.h"
 274              		.file 26 "../../modules/ChibiOS/os/oslib/include/chfactory.h"
 275              		.file 27 "../../modules/ChibiOS/os/hal/ports/STM32/LLD/DMAv2/stm32_dma.h"
 276              		.file 28 "../../modules/ChibiOS/os/hal/include/hal_ioblock.h"
 277              		.file 29 "../../modules/ChibiOS/os/hal/include/hal_queues.h"
 278              		.file 30 "../../modules/ChibiOS/os/hal/include/hal_pal.h"
 279              		.file 31 "../../modules/ChibiOS/os/hal/ports/STM32/LLD/GPIOv2/stm32_gpio.h"
 280              		.file 32 "../../modules/ChibiOS/os/hal/ports/STM32/LLD/GPIOv2/hal_pal_lld.h"
 281              		.file 33 "../../modules/ChibiOS/os/hal/include/hal_adc.h"
 282              		.file 34 "../../modules/ChibiOS/os/hal/ports/STM32/LLD/ADCv2/hal_adc_lld.h"
 283              		.file 35 "../../modules/ChibiOS/os/hal/include/hal_i2c.h"
 284              		.file 36 "../../modules/ChibiOS/os/hal/ports/STM32/LLD/I2Cv1/hal_i2c_lld.h"
ARM GAS  /tmp/ccIaAecO.s 			page 6


 285              		.file 37 "../../modules/ChibiOS/os/hal/include/hal_pwm.h"
 286              		.file 38 "../../modules/ChibiOS/os/hal/ports/STM32/LLD/TIMv1/hal_pwm_lld.h"
 287              		.file 39 "../../modules/ChibiOS/os/hal/include/hal_serial.h"
 288              		.file 40 "../../modules/ChibiOS/os/hal/ports/STM32/LLD/USARTv1/hal_serial_lld.h"
 289              		.file 41 "../../modules/ChibiOS/os/hal/include/hal_sdc.h"
 290              		.file 42 "../../modules/ChibiOS/os/hal/ports/STM32/LLD/SDIOv1/hal_sdc_lld.h"
 291              		.file 43 "../../modules/ChibiOS/os/hal/include/hal_spi.h"
 292              		.file 44 "../../modules/ChibiOS/os/hal/ports/STM32/LLD/SPIv1/hal_spi_lld.h"
 293              		.file 45 "../../modules/ChibiOS/os/hal/include/hal_usb.h"
 294              		.file 46 "../../modules/ChibiOS/os/hal/ports/STM32/LLD/OTGv1/hal_usb_lld.h"
 295              		.file 47 "../../modules/ChibiOS/os/hal/ports/STM32/LLD/OTGv1/stm32_otg.h"
 296              		.file 48 "../../modules/ChibiOS/os/rt/include/chvt.h"
 297              		.file 49 "../../modules/ChibiOS/os/common/ports/ARMCMx/chcore_timer.h"