ARM GAS  /tmp/cczjfkZF.s 			page 1


   1              		.cpu cortex-m4
   2              		.eabi_attribute 27, 1
   3              		.eabi_attribute 28, 1
   4              		.eabi_attribute 20, 1
   5              		.eabi_attribute 21, 1
   6              		.eabi_attribute 23, 3
   7              		.eabi_attribute 24, 1
   8              		.eabi_attribute 25, 1
   9              		.eabi_attribute 26, 1
  10              		.eabi_attribute 30, 4
  11              		.eabi_attribute 34, 1
  12              		.eabi_attribute 18, 4
  13              		.file	"malloc.c"
  14              		.text
  15              	.Ltext0:
  16              		.cfi_sections	.debug_frame
  17              		.section	.text.malloc_flags,"ax",%progbits
  18              		.align	1
  19              		.syntax unified
  20              		.thumb
  21              		.thumb_func
  22              		.fpu fpv4-sp-d16
  23              		.type	malloc_flags, %function
  24              	malloc_flags:
  25              	.LFB324:
  26              		.file 1 "../../libraries/AP_HAL_ChibiOS/hwdef/common/malloc.c"
  27              		.loc 1 91 0
  28              		.cfi_startproc
  29              		@ args = 0, pretend = 0, frame = 0
  30              		@ frame_needed = 0, uses_anonymous_args = 0
  31              	.LVL0:
  32 0000 70B5     		push	{r4, r5, r6, lr}
  33              		.cfi_def_cfa_offset 16
  34              		.cfi_offset 4, -16
  35              		.cfi_offset 5, -12
  36              		.cfi_offset 6, -8
  37              		.cfi_offset 14, -4
  38              		.loc 1 92 0
  39 0002 0446     		mov	r4, r0
  40 0004 48B3     		cbz	r0, .L10
  41              	.LVL1:
  42              		.loc 1 100 0
  43 0006 11F00506 		ands	r6, r1, #5
  44 000a 19D0     		beq	.L3
  45              		.loc 1 102 0
  46 000c 0734     		adds	r4, r4, #7
  47              		.loc 1 107 0
  48 000e 0129     		cmp	r1, #1
  49              		.loc 1 102 0
  50 0010 24F00704 		bic	r4, r4, #7
  51              	.LVL2:
  52              		.loc 1 107 0
  53 0014 07D1     		bne	.L5
  54              	.L4:
  55              		.loc 1 109 0
  56 0016 0822     		movs	r2, #8
  57 0018 2146     		mov	r1, r4
ARM GAS  /tmp/cczjfkZF.s 			page 2


  58              	.LVL3:
  59 001a 0020     		movs	r0, #0
  60 001c FFF7FEFF 		bl	chHeapAllocAligned
  61              	.LVL4:
  62              		.loc 1 110 0
  63 0020 0546     		mov	r5, r0
  64 0022 B0B9     		cbnz	r0, .L7
  65              	.LVL5:
  66              		.loc 1 121 0 discriminator 1
  67 0024 76B1     		cbz	r6, .L6
  68              	.LVL6:
  69              	.L5:
  70              		.loc 1 152 0
  71 0026 0822     		movs	r2, #8
  72 0028 2146     		mov	r1, r4
  73 002a 1548     		ldr	r0, .L20
  74 002c FFF7FEFF 		bl	chHeapAllocAligned
  75              	.LVL7:
  76              		.loc 1 153 0
  77 0030 0546     		mov	r5, r0
  78 0032 18B1     		cbz	r0, .L1
  79              		.loc 1 154 0
  80 0034 2246     		mov	r2, r4
  81 0036 0021     		movs	r1, #0
  82              	.LVL8:
  83              	.L19:
  84              		.loc 1 163 0
  85 0038 FFF7FEFF 		bl	memset
  86              	.LVL9:
  87              	.L1:
  88              		.loc 1 165 0
  89 003c 2846     		mov	r0, r5
  90 003e 70BD     		pop	{r4, r5, r6, pc}
  91              	.LVL10:
  92              	.L3:
  93              		.loc 1 107 0
  94 0040 0129     		cmp	r1, #1
  95 0042 E8D9     		bls	.L4
  96              	.LVL11:
  97              	.L6:
  98              		.loc 1 129 0
  99 0044 0822     		movs	r2, #8
 100 0046 2146     		mov	r1, r4
 101 0048 0E48     		ldr	r0, .L20+4
 102 004a FFF7FEFF 		bl	chHeapAllocAligned
 103              	.LVL12:
 104              		.loc 1 130 0
 105 004e 0546     		mov	r5, r0
 106 0050 28B1     		cbz	r0, .L17
 107              	.LVL13:
 108              	.L7:
 109              		.loc 1 163 0
 110 0052 2246     		mov	r2, r4
 111 0054 0021     		movs	r1, #0
 112 0056 2846     		mov	r0, r5
 113 0058 EEE7     		b	.L19
 114              	.LVL14:
ARM GAS  /tmp/cczjfkZF.s 			page 3


 115              	.L10:
 116              		.loc 1 93 0
 117 005a 0546     		mov	r5, r0
 118 005c EEE7     		b	.L1
 119              	.LVL15:
 120              	.L17:
 121              		.loc 1 138 0
 122 005e 0822     		movs	r2, #8
 123 0060 2146     		mov	r1, r4
 124 0062 0848     		ldr	r0, .L20+4
 125              	.LVL16:
 126 0064 FFF7FEFF 		bl	chHeapAllocAligned
 127              	.LVL17:
 128              		.loc 1 139 0
 129 0068 0546     		mov	r5, r0
 130 006a 0028     		cmp	r0, #0
 131 006c F1D1     		bne	.L7
 132              	.LVL18:
 133              		.loc 1 144 0
 134 006e 0822     		movs	r2, #8
 135 0070 2146     		mov	r1, r4
 136 0072 FFF7FEFF 		bl	chHeapAllocAligned
 137              	.LVL19:
 138              		.loc 1 145 0
 139 0076 0546     		mov	r5, r0
 140 0078 0028     		cmp	r0, #0
 141 007a EAD1     		bne	.L7
 142 007c D3E7     		b	.L5
 143              	.L21:
 144 007e 00BF     		.align	2
 145              	.L20:
 146 0080 00000000 		.word	.LANCHOR1
 147 0084 1C000000 		.word	.LANCHOR0+28
 148              		.cfi_endproc
 149              	.LFE324:
 150              		.size	malloc_flags, .-malloc_flags
 151              		.section	.text.malloc,"ax",%progbits
 152              		.align	1
 153              		.global	malloc
 154              		.syntax unified
 155              		.thumb
 156              		.thumb_func
 157              		.fpu fpv4-sp-d16
 158              		.type	malloc, %function
 159              	malloc:
 160              	.LFB325:
 161              		.loc 1 170 0
 162              		.cfi_startproc
 163              		@ args = 0, pretend = 0, frame = 0
 164              		@ frame_needed = 0, uses_anonymous_args = 0
 165              		@ link register save eliminated.
 166              	.LVL20:
 167              		.loc 1 171 0
 168 0000 0021     		movs	r1, #0
 169 0002 FFF7FEBF 		b	malloc_flags
 170              	.LVL21:
 171              		.cfi_endproc
ARM GAS  /tmp/cczjfkZF.s 			page 4


 172              	.LFE325:
 173              		.size	malloc, .-malloc
 174              		.section	.text.malloc_sdcard_dma,"ax",%progbits
 175              		.align	1
 176              		.global	malloc_sdcard_dma
 177              		.syntax unified
 178              		.thumb
 179              		.thumb_func
 180              		.fpu fpv4-sp-d16
 181              		.type	malloc_sdcard_dma, %function
 182              	malloc_sdcard_dma:
 183              	.LFB327:
 184              		.loc 1 187 0
 185              		.cfi_startproc
 186              		@ args = 0, pretend = 0, frame = 0
 187              		@ frame_needed = 0, uses_anonymous_args = 0
 188              		@ link register save eliminated.
 189              	.LVL22:
 190              		.loc 1 191 0
 191 0000 0121     		movs	r1, #1
 192 0002 FFF7FEBF 		b	malloc_flags
 193              	.LVL23:
 194              		.cfi_endproc
 195              	.LFE327:
 196              		.size	malloc_sdcard_dma, .-malloc_sdcard_dma
 197              		.section	.text.malloc_init,"ax",%progbits
 198              		.align	1
 199              		.global	malloc_init
 200              		.syntax unified
 201              		.thumb
 202              		.thumb_func
 203              		.fpu fpv4-sp-d16
 204              		.type	malloc_init, %function
 205              	malloc_init:
 206              	.LFB323:
 207              		.loc 1 73 0
 208              		.cfi_startproc
 209              		@ args = 0, pretend = 0, frame = 0
 210              		@ frame_needed = 0, uses_anonymous_args = 0
 211              	.LVL24:
 212 0000 08B5     		push	{r3, lr}
 213              		.cfi_def_cfa_offset 8
 214              		.cfi_offset 3, -8
 215              		.cfi_offset 14, -4
 216              		.loc 1 76 0
 217 0002 4FF48032 		mov	r2, #65536
 218 0006 4FF08051 		mov	r1, #268435456
 219 000a 0748     		ldr	r0, .L25
 220 000c FFF7FEFF 		bl	chHeapObjectInit
 221              	.LVL25:
 222              		.loc 1 84 0
 223 0010 4FF48050 		mov	r0, #4096
 224 0014 FFF7FEFF 		bl	malloc_sdcard_dma
 225              	.LVL26:
 226              		.loc 1 86 0
 227 0018 4FF48052 		mov	r2, #4096
 228 001c 0146     		mov	r1, r0
ARM GAS  /tmp/cczjfkZF.s 			page 5


 229              		.loc 1 88 0
 230 001e BDE80840 		pop	{r3, lr}
 231              		.cfi_restore 14
 232              		.cfi_restore 3
 233              		.cfi_def_cfa_offset 0
 234              		.loc 1 86 0
 235 0022 0248     		ldr	r0, .L25+4
 236              	.LVL27:
 237 0024 FFF7FEBF 		b	chHeapObjectInit
 238              	.LVL28:
 239              	.L26:
 240              		.align	2
 241              	.L25:
 242 0028 1C000000 		.word	.LANCHOR0+28
 243 002c 00000000 		.word	.LANCHOR1
 244              		.cfi_endproc
 245              	.LFE323:
 246              		.size	malloc_init, .-malloc_init
 247              		.section	.text.malloc_dma,"ax",%progbits
 248              		.align	1
 249              		.global	malloc_dma
 250              		.syntax unified
 251              		.thumb
 252              		.thumb_func
 253              		.fpu fpv4-sp-d16
 254              		.type	malloc_dma, %function
 255              	malloc_dma:
 256              	.LFB335:
 257              		.cfi_startproc
 258              		@ args = 0, pretend = 0, frame = 0
 259              		@ frame_needed = 0, uses_anonymous_args = 0
 260              		@ link register save eliminated.
 261 0000 FFF7FEBF 		b	malloc_sdcard_dma
 262              		.cfi_endproc
 263              	.LFE335:
 264              		.size	malloc_dma, .-malloc_dma
 265              		.section	.text.malloc_fastmem,"ax",%progbits
 266              		.align	1
 267              		.global	malloc_fastmem
 268              		.syntax unified
 269              		.thumb
 270              		.thumb_func
 271              		.fpu fpv4-sp-d16
 272              		.type	malloc_fastmem, %function
 273              	malloc_fastmem:
 274              	.LFB328:
 275              		.loc 1 199 0
 276              		.cfi_startproc
 277              		@ args = 0, pretend = 0, frame = 0
 278              		@ frame_needed = 0, uses_anonymous_args = 0
 279              		@ link register save eliminated.
 280              	.LVL29:
 281              		.loc 1 200 0
 282 0000 0221     		movs	r1, #2
 283 0002 FFF7FEBF 		b	malloc_flags
 284              	.LVL30:
 285              		.cfi_endproc
ARM GAS  /tmp/cczjfkZF.s 			page 6


 286              	.LFE328:
 287              		.size	malloc_fastmem, .-malloc_fastmem
 288              		.section	.text.calloc,"ax",%progbits
 289              		.align	1
 290              		.global	calloc
 291              		.syntax unified
 292              		.thumb
 293              		.thumb_func
 294              		.fpu fpv4-sp-d16
 295              		.type	calloc, %function
 296              	calloc:
 297              	.LFB329:
 298              		.loc 1 204 0
 299              		.cfi_startproc
 300              		@ args = 0, pretend = 0, frame = 0
 301              		@ frame_needed = 0, uses_anonymous_args = 0
 302              		@ link register save eliminated.
 303              	.LVL31:
 304              		.loc 1 205 0
 305 0000 4843     		muls	r0, r1, r0
 306              	.LVL32:
 307 0002 FFF7FEBF 		b	malloc
 308              	.LVL33:
 309              		.cfi_endproc
 310              	.LFE329:
 311              		.size	calloc, .-calloc
 312              		.section	.text.free,"ax",%progbits
 313              		.align	1
 314              		.global	free
 315              		.syntax unified
 316              		.thumb
 317              		.thumb_func
 318              		.fpu fpv4-sp-d16
 319              		.type	free, %function
 320              	free:
 321              	.LFB330:
 322              		.loc 1 209 0
 323              		.cfi_startproc
 324              		@ args = 0, pretend = 0, frame = 0
 325              		@ frame_needed = 0, uses_anonymous_args = 0
 326              		@ link register save eliminated.
 327              	.LVL34:
 328              		.loc 1 210 0
 329 0000 08B1     		cbz	r0, .L30
 330              		.loc 1 211 0
 331 0002 FFF7FEBF 		b	chHeapFree
 332              	.LVL35:
 333              	.L30:
 334 0006 7047     		bx	lr
 335              		.cfi_endproc
 336              	.LFE330:
 337              		.size	free, .-free
 338              		.section	.text.mem_available,"ax",%progbits
 339              		.align	1
 340              		.global	mem_available
 341              		.syntax unified
 342              		.thumb
ARM GAS  /tmp/cczjfkZF.s 			page 7


 343              		.thumb_func
 344              		.fpu fpv4-sp-d16
 345              		.type	mem_available, %function
 346              	mem_available:
 347              	.LFB331:
 348              		.loc 1 219 0
 349              		.cfi_startproc
 350              		@ args = 0, pretend = 0, frame = 8
 351              		@ frame_needed = 0, uses_anonymous_args = 0
 352 0000 37B5     		push	{r0, r1, r2, r4, r5, lr}
 353              		.cfi_def_cfa_offset 24
 354              		.cfi_offset 4, -12
 355              		.cfi_offset 5, -8
 356              		.cfi_offset 14, -4
 357              		.loc 1 220 0
 358 0002 02A9     		add	r1, sp, #8
 359 0004 0024     		movs	r4, #0
 360 0006 41F8084D 		str	r4, [r1, #-8]!
 361              		.loc 1 224 0
 362 000a 2246     		mov	r2, r4
 363 000c 2046     		mov	r0, r4
 364 000e FFF7FEFF 		bl	chHeapStatus
 365              	.LVL36:
 366              	.LBB2:
 367              		.loc 1 231 0
 368 0012 02AD     		add	r5, sp, #8
 369              	.LBE2:
 370              		.loc 1 227 0
 371 0014 FFF7FEFF 		bl	chCoreGetStatusX
 372              	.LVL37:
 373 0018 009B     		ldr	r3, [sp]
 374              	.LBB3:
 375              		.loc 1 231 0
 376 001a 45F8044D 		str	r4, [r5, #-4]!
 377              	.LBE3:
 378              		.loc 1 227 0
 379 001e 1844     		add	r0, r0, r3
 380 0020 0090     		str	r0, [sp]
 381              	.LVL38:
 382              	.LBB4:
 383              		.loc 1 232 0
 384 0022 2246     		mov	r2, r4
 385 0024 2946     		mov	r1, r5
 386 0026 0948     		ldr	r0, .L33
 387 0028 FFF7FEFF 		bl	chHeapStatus
 388              	.LVL39:
 389              		.loc 1 233 0
 390 002c 9DE80C00 		ldm	sp, {r2, r3}
 391              	.LBE4:
 392              		.loc 1 239 0
 393 0030 2946     		mov	r1, r5
 394              	.LBB5:
 395              		.loc 1 233 0
 396 0032 1344     		add	r3, r3, r2
 397              	.LBE5:
 398              		.loc 1 239 0
 399 0034 0648     		ldr	r0, .L33+4
ARM GAS  /tmp/cczjfkZF.s 			page 8


 400 0036 2246     		mov	r2, r4
 401              		.loc 1 238 0
 402 0038 8DE81800 		stm	sp, {r3, r4}
 403              		.loc 1 239 0
 404 003c FFF7FEFF 		bl	chHeapStatus
 405              	.LVL40:
 406              		.loc 1 244 0
 407 0040 9DE80900 		ldm	sp, {r0, r3}
 408 0044 1844     		add	r0, r0, r3
 409 0046 03B0     		add	sp, sp, #12
 410              		.cfi_def_cfa_offset 12
 411              		@ sp needed
 412 0048 30BD     		pop	{r4, r5, pc}
 413              	.L34:
 414 004a 00BF     		.align	2
 415              	.L33:
 416 004c 1C000000 		.word	.LANCHOR0+28
 417 0050 00000000 		.word	.LANCHOR1
 418              		.cfi_endproc
 419              	.LFE331:
 420              		.size	mem_available, .-mem_available
 421              		.section	.text.thread_create_alloc,"ax",%progbits
 422              		.align	1
 423              		.global	thread_create_alloc
 424              		.syntax unified
 425              		.thumb
 426              		.thumb_func
 427              		.fpu fpv4-sp-d16
 428              		.type	thread_create_alloc, %function
 429              	thread_create_alloc:
 430              	.LFB332:
 431              		.loc 1 252 0
 432              		.cfi_startproc
 433              		@ args = 4, pretend = 0, frame = 0
 434              		@ frame_needed = 0, uses_anonymous_args = 0
 435              	.LVL41:
 436 0000 2DE9F341 		push	{r0, r1, r4, r5, r6, r7, r8, lr}
 437              		.cfi_def_cfa_offset 32
 438              		.cfi_offset 4, -24
 439              		.cfi_offset 5, -20
 440              		.cfi_offset 6, -16
 441              		.cfi_offset 7, -12
 442              		.cfi_offset 8, -8
 443              		.cfi_offset 14, -4
 444              		.loc 1 252 0
 445 0004 DDF82080 		ldr	r8, [sp, #32]
 446 0008 1F46     		mov	r7, r3
 447 000a 0446     		mov	r4, r0
 448 000c 0D46     		mov	r5, r1
 449 000e 1646     		mov	r6, r2
 450              		.loc 1 255 0
 451 0010 1346     		mov	r3, r2
 452              	.LVL42:
 453 0012 8DE88001 		stm	sp, {r7, r8}
 454 0016 0A46     		mov	r2, r1
 455              	.LVL43:
 456 0018 0146     		mov	r1, r0
ARM GAS  /tmp/cczjfkZF.s 			page 9


 457              	.LVL44:
 458 001a 0020     		movs	r0, #0
 459              	.LVL45:
 460 001c FFF7FEFF 		bl	chThdCreateFromHeap
 461              	.LVL46:
 462              		.loc 1 256 0
 463 0020 38B9     		cbnz	r0, .L35
 464              	.LVL47:
 465              		.loc 1 263 0 discriminator 1
 466 0022 8DE88001 		stm	sp, {r7, r8}
 467 0026 3346     		mov	r3, r6
 468 0028 2A46     		mov	r2, r5
 469 002a 2146     		mov	r1, r4
 470 002c 0248     		ldr	r0, .L37
 471              	.LVL48:
 472 002e FFF7FEFF 		bl	chThdCreateFromHeap
 473              	.LVL49:
 474              	.L35:
 475              		.loc 1 269 0
 476 0032 02B0     		add	sp, sp, #8
 477              		.cfi_def_cfa_offset 24
 478              		@ sp needed
 479 0034 BDE8F081 		pop	{r4, r5, r6, r7, r8, pc}
 480              	.LVL50:
 481              	.L38:
 482              		.align	2
 483              	.L37:
 484 0038 1C000000 		.word	.LANCHOR0+28
 485              		.cfi_endproc
 486              	.LFE332:
 487              		.size	thread_create_alloc, .-thread_create_alloc
 488              		.section	.text.memory_flush_all,"ax",%progbits
 489              		.align	1
 490              		.global	memory_flush_all
 491              		.syntax unified
 492              		.thumb
 493              		.thumb_func
 494              		.fpu fpv4-sp-d16
 495              		.type	memory_flush_all, %function
 496              	memory_flush_all:
 497              	.LFB333:
 498              		.loc 1 278 0
 499              		.cfi_startproc
 500              		@ args = 0, pretend = 0, frame = 0
 501              		@ frame_needed = 0, uses_anonymous_args = 0
 502              		@ link register save eliminated.
 503              	.LVL51:
 504 0000 7047     		bx	lr
 505              		.cfi_endproc
 506              	.LFE333:
 507              		.size	memory_flush_all, .-memory_flush_all
 508              		.section	.bss.dma_reserve_heap,"aw",%nobits
 509              		.align	2
 510              		.set	.LANCHOR1,. + 0
 511              		.type	dma_reserve_heap, %object
 512              		.size	dma_reserve_heap, 28
 513              	dma_reserve_heap:
ARM GAS  /tmp/cczjfkZF.s 			page 10


 514 0000 00000000 		.space	28
 514      00000000 
 514      00000000 
 514      00000000 
 514      00000000 
 515              		.section	.bss.heaps,"aw",%nobits
 516              		.align	2
 517              		.set	.LANCHOR0,. + 0
 518              		.type	heaps, %object
 519              		.size	heaps, 56
 520              	heaps:
 521 0000 00000000 		.space	56
 521      00000000 
 521      00000000 
 521      00000000 
 521      00000000 
 522              		.text
 523              	.Letext0:
 524              		.file 2 "/opt/gcc-arm-none-eabi-6-2017-q2-update/arm-none-eabi/include/machine/_default_types.h"
 525              		.file 3 "/opt/gcc-arm-none-eabi-6-2017-q2-update/arm-none-eabi/include/sys/_stdint.h"
 526              		.file 4 "/opt/gcc-arm-none-eabi-6-2017-q2-update/arm-none-eabi/include/stdint.h"
 527              		.file 5 "/opt/gcc-arm-none-eabi-6-2017-q2-update/lib/gcc/arm-none-eabi/6.3.1/include/stddef.h"
 528              		.file 6 "../../modules/ChibiOS/os/common/ports/ARMCMx/compilers/GCC/chtypes.h"
 529              		.file 7 "../../modules/ChibiOS/os/rt/include/chsystypes.h"
 530              		.file 8 "../../modules/ChibiOS/os/rt/include/chschd.h"
 531              		.file 9 "../../modules/ChibiOS/os/rt/include/chtime.h"
 532              		.file 10 "../../modules/ChibiOS/os/common/ext/ARM/CMSIS/Core/Include/core_cm4.h"
 533              		.file 11 "../../modules/ChibiOS/os/common/ext/ST/STM32F4xx/system_stm32f4xx.h"
 534              		.file 12 "../../modules/ChibiOS/os/common/ext/ST/STM32F4xx/stm32f427xx.h"
 535              		.file 13 "../../modules/ChibiOS/os/common/ports/ARMCMx/chcore.h"
 536              		.file 14 "../../modules/ChibiOS/os/common/ports/ARMCMx/chcore_v7m.h"
 537              		.file 15 "../../modules/ChibiOS/os/hal/ports/STM32/LLD/TIMv1/stm32_tim.h"
 538              		.file 16 "../../modules/ChibiOS/os/rt/include/chtm.h"
 539              		.file 17 "../../modules/ChibiOS/os/rt/include/chstats.h"
 540              		.file 18 "../../modules/ChibiOS/os/rt/include/chsem.h"
 541              		.file 19 "../../modules/ChibiOS/os/rt/include/chmtx.h"
 542              		.file 20 "../../modules/ChibiOS/os/rt/include/chsys.h"
 543              		.file 21 "../../modules/ChibiOS/os/rt/include/chthreads.h"
 544              		.file 22 "../../modules/ChibiOS/os/rt/include/chregistry.h"
 545              		.file 23 "../../modules/ChibiOS/os/rt/include/chevents.h"
 546              		.file 24 "../../modules/ChibiOS/os/oslib/include/chmemcore.h"
 547              		.file 25 "../../modules/ChibiOS/os/oslib/include/chmemheaps.h"
 548              		.file 26 "../../modules/ChibiOS/os/oslib/include/chmempools.h"
 549              		.file 27 "../../modules/ChibiOS/os/oslib/include/chfactory.h"
 550              		.file 28 "/opt/gcc-arm-none-eabi-6-2017-q2-update/lib/gcc/arm-none-eabi/6.3.1/include/stdarg.h"
 551              		.file 29 "<built-in>"
 552              		.file 30 "/opt/gcc-arm-none-eabi-6-2017-q2-update/arm-none-eabi/include/sys/lock.h"
 553              		.file 31 "/opt/gcc-arm-none-eabi-6-2017-q2-update/arm-none-eabi/include/sys/_types.h"
 554              		.file 32 "/opt/gcc-arm-none-eabi-6-2017-q2-update/arm-none-eabi/include/sys/reent.h"
 555              		.file 33 "/opt/gcc-arm-none-eabi-6-2017-q2-update/arm-none-eabi/include/time.h"
 556              		.file 34 "/opt/gcc-arm-none-eabi-6-2017-q2-update/arm-none-eabi/include/sys/errno.h"
 557              		.file 35 "../../libraries/AP_HAL_ChibiOS/hwdef/common/posix.h"
 558              		.file 36 "../../libraries/AP_HAL_ChibiOS/hwdef/common/stdio.h"
 559              		.file 37 "../../modules/ChibiOS/os/hal/ports/STM32/LLD/DMAv2/stm32_dma.h"
 560              		.file 38 "../../modules/ChibiOS/os/hal/include/hal_ioblock.h"
 561              		.file 39 "../../modules/ChibiOS/os/hal/include/hal_queues.h"
 562              		.file 40 "../../modules/ChibiOS/os/hal/include/hal_pal.h"
ARM GAS  /tmp/cczjfkZF.s 			page 11


 563              		.file 41 "../../modules/ChibiOS/os/hal/ports/STM32/LLD/GPIOv2/stm32_gpio.h"
 564              		.file 42 "../../modules/ChibiOS/os/hal/ports/STM32/LLD/GPIOv2/hal_pal_lld.h"
 565              		.file 43 "../../modules/ChibiOS/os/hal/include/hal_adc.h"
 566              		.file 44 "../../modules/ChibiOS/os/hal/ports/STM32/LLD/ADCv2/hal_adc_lld.h"
 567              		.file 45 "../../modules/ChibiOS/os/hal/include/hal_i2c.h"
 568              		.file 46 "../../modules/ChibiOS/os/hal/ports/STM32/LLD/I2Cv1/hal_i2c_lld.h"
 569              		.file 47 "../../modules/ChibiOS/os/hal/include/hal_pwm.h"
 570              		.file 48 "../../modules/ChibiOS/os/hal/ports/STM32/LLD/TIMv1/hal_pwm_lld.h"
 571              		.file 49 "../../modules/ChibiOS/os/hal/include/hal_serial.h"
 572              		.file 50 "../../modules/ChibiOS/os/hal/ports/STM32/LLD/USARTv1/hal_serial_lld.h"
 573              		.file 51 "../../modules/ChibiOS/os/hal/include/hal_sdc.h"
 574              		.file 52 "../../modules/ChibiOS/os/hal/ports/STM32/LLD/SDIOv1/hal_sdc_lld.h"
 575              		.file 53 "../../modules/ChibiOS/os/hal/include/hal_spi.h"
 576              		.file 54 "../../modules/ChibiOS/os/hal/ports/STM32/LLD/SPIv1/hal_spi_lld.h"
 577              		.file 55 "../../modules/ChibiOS/os/hal/include/hal_usb.h"
 578              		.file 56 "../../modules/ChibiOS/os/hal/ports/STM32/LLD/OTGv1/hal_usb_lld.h"
 579              		.file 57 "../../modules/ChibiOS/os/hal/ports/STM32/LLD/OTGv1/stm32_otg.h"
 580              		.file 58 "../../modules/ChibiOS/os/rt/include/chdynamic.h"