ARM GAS  /tmp/ccSNToGX.s 			page 1


   1              		.cpu cortex-m4
   2              		.eabi_attribute 27, 1
   3              		.eabi_attribute 28, 1
   4              		.eabi_attribute 20, 1
   5              		.eabi_attribute 21, 1
   6              		.eabi_attribute 23, 3
   7              		.eabi_attribute 24, 1
   8              		.eabi_attribute 25, 1
   9              		.eabi_attribute 26, 1
  10              		.eabi_attribute 30, 4
  11              		.eabi_attribute 34, 1
  12              		.eabi_attribute 18, 4
  13              		.file	"posix.c"
  14              		.text
  15              	.Ltext0:
  16              		.cfi_sections	.debug_frame
  17              		.section	.text.fatfs_getc,"ax",%progbits
  18              		.align	1
  19              		.global	fatfs_getc
  20              		.syntax unified
  21              		.thumb
  22              		.thumb_func
  23              		.fpu fpv4-sp-d16
  24              		.type	fatfs_getc, %function
  25              	fatfs_getc:
  26              	.LFB347:
  27              		.file 1 "../../libraries/AP_HAL_ChibiOS/hwdef/common/posix.c"
  28              		.loc 1 1966 0
  29              		.cfi_startproc
  30              		@ args = 0, pretend = 0, frame = 8
  31              		@ frame_needed = 0, uses_anonymous_args = 0
  32              	.LVL0:
  33 0000 73B5     		push	{r0, r1, r4, r5, r6, lr}
  34              		.cfi_def_cfa_offset 24
  35              		.cfi_offset 4, -16
  36              		.cfi_offset 5, -12
  37              		.cfi_offset 6, -8
  38              		.cfi_offset 14, -4
  39              		.loc 1 1966 0
  40 0002 0546     		mov	r5, r0
  41              		.loc 1 1973 0
  42 0004 FFF7FEFF 		bl	__errno
  43              	.LVL1:
  44 0008 0023     		movs	r3, #0
  45 000a 0360     		str	r3, [r0]
  46              		.loc 1 1975 0
  47 000c 3DB9     		cbnz	r5, .L2
  48              	.L15:
  49              		.loc 1 1984 0
  50 000e FFF7FEFF 		bl	__errno
  51              	.LVL2:
  52 0012 0923     		movs	r3, #9
  53 0014 0360     		str	r3, [r0]
  54              	.L16:
  55              		.loc 1 1993 0
  56 0016 4FF0FF30 		mov	r0, #-1
  57              	.LVL3:
ARM GAS  /tmp/ccSNToGX.s 			page 2


  58              	.L1:
  59              		.loc 1 2040 0
  60 001a 02B0     		add	sp, sp, #8
  61              		.cfi_remember_state
  62              		.cfi_def_cfa_offset 16
  63              		@ sp needed
  64 001c 70BD     		pop	{r4, r5, r6, pc}
  65              	.LVL4:
  66              	.L2:
  67              		.cfi_restore_state
  68              		.loc 1 1981 0
  69 001e AC69     		ldr	r4, [r5, #24]
  70              	.LVL5:
  71              		.loc 1 1982 0
  72 0020 002C     		cmp	r4, #0
  73 0022 F4D0     		beq	.L15
  74              		.loc 1 1988 0
  75 0024 01AB     		add	r3, sp, #4
  76 0026 0122     		movs	r2, #1
  77 0028 0DF10301 		add	r1, sp, #3
  78 002c 2046     		mov	r0, r4
  79 002e FFF7FEFF 		bl	f_read
  80              	.LVL6:
  81              		.loc 1 1989 0
  82 0032 0646     		mov	r6, r0
  83 0034 10B9     		cbnz	r0, .L5
  84              		.loc 1 1989 0 is_stmt 0 discriminator 1
  85 0036 019A     		ldr	r2, [sp, #4]
  86 0038 012A     		cmp	r2, #1
  87 003a 0CD0     		beq	.L6
  88              	.L5:
  89              		.loc 1 1991 0 is_stmt 1
  90 003c FFF7FEFF 		bl	__errno
  91              	.LVL7:
  92 0040 132E     		cmp	r6, #19
  93 0042 96BF     		itet	ls
  94 0044 124B     		ldrls	r3, .L17
  95 0046 4D23     		movhi	r3, #77
  96              	.LVL8:
  97 0048 9B57     		ldrsbls	r3, [r3, r6]
  98 004a 0360     		str	r3, [r0]
  99              		.loc 1 1992 0
 100 004c 6B79     		ldrb	r3, [r5, #5]	@ zero_extendqisi2
 101 004e 43F02003 		orr	r3, r3, #32
 102 0052 6B71     		strb	r3, [r5, #5]
 103 0054 DFE7     		b	.L16
 104              	.LVL9:
 105              	.L6:
 106              		.loc 1 2019 0
 107 0056 9DF80330 		ldrb	r3, [sp, #3]	@ zero_extendqisi2
 108 005a 0D2B     		cmp	r3, #13
 109 005c 15D1     		bne	.L8
 110              		.loc 1 2024 0
 111 005e 01AB     		add	r3, sp, #4
 112 0060 0DF10301 		add	r1, sp, #3
 113 0064 2046     		mov	r0, r4
 114              	.LVL10:
ARM GAS  /tmp/ccSNToGX.s 			page 3


 115              		.loc 1 2022 0
 116 0066 A56B     		ldr	r5, [r4, #56]
 117              	.LVL11:
 118              		.loc 1 2024 0
 119 0068 FFF7FEFF 		bl	f_read
 120              	.LVL12:
 121              		.loc 1 2025 0
 122 006c 58B9     		cbnz	r0, .L11
 123              		.loc 1 2025 0 is_stmt 0 discriminator 1
 124 006e 019B     		ldr	r3, [sp, #4]
 125 0070 012B     		cmp	r3, #1
 126 0072 08D1     		bne	.L11
 127              		.loc 1 2031 0 is_stmt 1
 128 0074 9DF80330 		ldrb	r3, [sp, #3]	@ zero_extendqisi2
 129 0078 0A2B     		cmp	r3, #10
 130 007a 06D0     		beq	.L8
 131              		.loc 1 2034 0
 132 007c 2A46     		mov	r2, r5
 133 007e EB17     		asrs	r3, r5, #31
 134 0080 2046     		mov	r0, r4
 135              	.LVL13:
 136 0082 FFF7FEFF 		bl	f_lseek
 137              	.LVL14:
 138              	.L11:
 139              		.loc 1 2028 0
 140 0086 0A20     		movs	r0, #10
 141 0088 C7E7     		b	.L1
 142              	.LVL15:
 143              	.L8:
 144              		.loc 1 2039 0
 145 008a 9DF80300 		ldrb	r0, [sp, #3]	@ zero_extendqisi2
 146 008e C4E7     		b	.L1
 147              	.L18:
 148              		.align	2
 149              	.L17:
 150 0090 00000000 		.word	.LANCHOR0
 151              		.cfi_endproc
 152              	.LFE347:
 153              		.size	fatfs_getc, .-fatfs_getc
 154              		.section	.text.fatfs_putc,"ax",%progbits
 155              		.align	1
 156              		.global	fatfs_putc
 157              		.syntax unified
 158              		.thumb
 159              		.thumb_func
 160              		.fpu fpv4-sp-d16
 161              		.type	fatfs_putc, %function
 162              	fatfs_putc:
 163              	.LFB348:
 164              		.loc 1 2056 0
 165              		.cfi_startproc
 166              		@ args = 0, pretend = 0, frame = 16
 167              		@ frame_needed = 0, uses_anonymous_args = 0
 168              	.LVL16:
 169 0000 30B5     		push	{r4, r5, lr}
 170              		.cfi_def_cfa_offset 12
 171              		.cfi_offset 4, -12
ARM GAS  /tmp/ccSNToGX.s 			page 4


 172              		.cfi_offset 5, -8
 173              		.cfi_offset 14, -4
 174 0002 85B0     		sub	sp, sp, #20
 175              		.cfi_def_cfa_offset 32
 176              		.loc 1 2056 0
 177 0004 0C46     		mov	r4, r1
 178 0006 8DF80700 		strb	r0, [sp, #7]
 179              		.loc 1 2061 0
 180 000a FFF7FEFF 		bl	__errno
 181              	.LVL17:
 182 000e 0023     		movs	r3, #0
 183 0010 0360     		str	r3, [r0]
 184              		.loc 1 2062 0
 185 0012 3CB9     		cbnz	r4, .L20
 186              	.L28:
 187              		.loc 1 2071 0
 188 0014 FFF7FEFF 		bl	__errno
 189              	.LVL18:
 190 0018 0923     		movs	r3, #9
 191 001a 0360     		str	r3, [r0]
 192              	.L27:
 193              		.loc 1 2080 0
 194 001c 4FF0FF30 		mov	r0, #-1
 195              	.L19:
 196              		.loc 1 2083 0
 197 0020 05B0     		add	sp, sp, #20
 198              		.cfi_remember_state
 199              		.cfi_def_cfa_offset 12
 200              		@ sp needed
 201 0022 30BD     		pop	{r4, r5, pc}
 202              	.LVL19:
 203              	.L20:
 204              		.cfi_restore_state
 205              		.loc 1 2068 0
 206 0024 A069     		ldr	r0, [r4, #24]
 207              	.LVL20:
 208              		.loc 1 2069 0
 209 0026 0028     		cmp	r0, #0
 210 0028 F4D0     		beq	.L28
 211              		.loc 1 2075 0
 212 002a 03AB     		add	r3, sp, #12
 213 002c 0122     		movs	r2, #1
 214 002e 0DF10701 		add	r1, sp, #7
 215 0032 FFF7FEFF 		bl	f_write
 216              	.LVL21:
 217              		.loc 1 2076 0
 218 0036 0546     		mov	r5, r0
 219 0038 10B9     		cbnz	r0, .L23
 220              		.loc 1 2076 0 is_stmt 0 discriminator 1
 221 003a 039B     		ldr	r3, [sp, #12]
 222 003c 012B     		cmp	r3, #1
 223 003e 0CD0     		beq	.L24
 224              	.L23:
 225              		.loc 1 2078 0 is_stmt 1
 226 0040 FFF7FEFF 		bl	__errno
 227              	.LVL22:
 228 0044 132D     		cmp	r5, #19
ARM GAS  /tmp/ccSNToGX.s 			page 5


 229 0046 96BF     		itet	ls
 230 0048 054B     		ldrls	r3, .L29
 231 004a 4D23     		movhi	r3, #77
 232              	.LVL23:
 233 004c 5B57     		ldrsbls	r3, [r3, r5]
 234 004e 0360     		str	r3, [r0]
 235              		.loc 1 2079 0
 236 0050 6379     		ldrb	r3, [r4, #5]	@ zero_extendqisi2
 237 0052 43F02003 		orr	r3, r3, #32
 238 0056 6371     		strb	r3, [r4, #5]
 239 0058 E0E7     		b	.L27
 240              	.LVL24:
 241              	.L24:
 242              		.loc 1 2082 0
 243 005a 9DF80700 		ldrb	r0, [sp, #7]	@ zero_extendqisi2
 244              	.LVL25:
 245 005e DFE7     		b	.L19
 246              	.L30:
 247              		.align	2
 248              	.L29:
 249 0060 00000000 		.word	.LANCHOR0
 250              		.cfi_endproc
 251              	.LFE348:
 252              		.size	fatfs_putc, .-fatfs_putc
 253              		.section	.text.isatty,"ax",%progbits
 254              		.align	1
 255              		.global	isatty
 256              		.syntax unified
 257              		.thumb
 258              		.thumb_func
 259              		.fpu fpv4-sp-d16
 260              		.type	isatty, %function
 261              	isatty:
 262              	.LFB290:
 263              		.loc 1 138 0
 264              		.cfi_startproc
 265              		@ args = 0, pretend = 0, frame = 0
 266              		@ frame_needed = 0, uses_anonymous_args = 0
 267              		@ link register save eliminated.
 268              	.LVL26:
 269              		.loc 1 143 0
 270 0000 0228     		cmp	r0, #2
 271 0002 8CBF     		ite	hi
 272 0004 0020     		movhi	r0, #0
 273              	.LVL27:
 274 0006 0120     		movls	r0, #1
 275 0008 7047     		bx	lr
 276              		.cfi_endproc
 277              	.LFE290:
 278              		.size	isatty, .-isatty
 279              		.section	.text.fgetc,"ax",%progbits
 280              		.align	1
 281              		.global	fgetc
 282              		.syntax unified
 283              		.thumb
 284              		.thumb_func
 285              		.fpu fpv4-sp-d16
ARM GAS  /tmp/ccSNToGX.s 			page 6


 286              		.type	fgetc, %function
 287              	fgetc:
 288              	.LFB291:
 289              		.loc 1 158 0
 290              		.cfi_startproc
 291              		@ args = 0, pretend = 0, frame = 0
 292              		@ frame_needed = 0, uses_anonymous_args = 0
 293              	.LVL28:
 294 0000 10B5     		push	{r4, lr}
 295              		.cfi_def_cfa_offset 8
 296              		.cfi_offset 4, -8
 297              		.cfi_offset 14, -4
 298              		.loc 1 161 0
 299 0002 0446     		mov	r4, r0
 300 0004 30B9     		cbnz	r0, .L33
 301              		.loc 1 163 0
 302 0006 FFF7FEFF 		bl	__errno
 303              	.LVL29:
 304 000a 0923     		movs	r3, #9
 305 000c 0360     		str	r3, [r0]
 306              	.L41:
 307              		.loc 1 168 0
 308 000e 4FF0FF30 		mov	r0, #-1
 309              		.loc 1 200 0
 310 0012 10BD     		pop	{r4, pc}
 311              	.LVL30:
 312              	.L33:
 313              		.loc 1 167 0
 314 0014 4379     		ldrb	r3, [r0, #5]	@ zero_extendqisi2
 315 0016 DA07     		lsls	r2, r3, #31
 316 0018 F9D5     		bpl	.L41
 317              		.loc 1 170 0
 318 001a 5906     		lsls	r1, r3, #25
 319 001c 07D5     		bpl	.L35
 320              		.loc 1 171 0
 321 001e 23F04003 		bic	r3, r3, #64
 322 0022 4371     		strb	r3, [r0, #5]
 323              		.loc 1 172 0
 324 0024 C368     		ldr	r3, [r0, #12]
 325 0026 0133     		adds	r3, r3, #1
 326 0028 C360     		str	r3, [r0, #12]
 327              		.loc 1 173 0
 328 002a 0079     		ldrb	r0, [r0, #4]	@ zero_extendqisi2
 329              	.LVL31:
 330 002c 10BD     		pop	{r4, pc}
 331              	.LVL32:
 332              	.L35:
 333              		.loc 1 176 0
 334 002e 5A07     		lsls	r2, r3, #29
 335 0030 0CD5     		bpl	.L36
 336              		.loc 1 177 0
 337 0032 0268     		ldr	r2, [r0]
 338 0034 1078     		ldrb	r0, [r2]	@ zero_extendqisi2
 339              	.LVL33:
 340              		.loc 1 178 0
 341 0036 18B9     		cbnz	r0, .L37
 342              		.loc 1 179 0
ARM GAS  /tmp/ccSNToGX.s 			page 7


 343 0038 43F02003 		orr	r3, r3, #32
 344              	.LVL34:
 345              	.L43:
 346              		.loc 1 193 0
 347 003c 6371     		strb	r3, [r4, #5]
 348 003e E6E7     		b	.L41
 349              	.LVL35:
 350              	.L37:
 351              		.loc 1 182 0
 352 0040 0132     		adds	r2, r2, #1
 353 0042 2260     		str	r2, [r4]
 354              	.L38:
 355              		.loc 1 198 0
 356 0044 E368     		ldr	r3, [r4, #12]
 357 0046 0133     		adds	r3, r3, #1
 358 0048 E360     		str	r3, [r4, #12]
 359              		.loc 1 199 0
 360 004a 10BD     		pop	{r4, pc}
 361              	.LVL36:
 362              	.L36:
 363              		.loc 1 185 0
 364 004c 4369     		ldr	r3, [r0, #20]
 365 004e 002B     		cmp	r3, #0
 366 0050 DDD0     		beq	.L41
 367              		.loc 1 190 0
 368 0052 9847     		blx	r3
 369              	.LVL37:
 370              		.loc 1 191 0
 371 0054 0028     		cmp	r0, #0
 372 0056 F5DA     		bge	.L38
 373              		.loc 1 193 0
 374 0058 0230     		adds	r0, r0, #2
 375              	.LVL38:
 376 005a 94F90520 		ldrsb	r2, [r4, #5]
 377 005e 0CBF     		ite	eq
 378 0060 1023     		moveq	r3, #16
 379 0062 2023     		movne	r3, #32
 380 0064 1343     		orrs	r3, r3, r2
 381 0066 E9E7     		b	.L43
 382              		.cfi_endproc
 383              	.LFE291:
 384              		.size	fgetc, .-fgetc
 385              		.section	.text.getc,"ax",%progbits
 386              		.align	1
 387              		.global	getc
 388              		.syntax unified
 389              		.thumb
 390              		.thumb_func
 391              		.fpu fpv4-sp-d16
 392              		.type	getc, %function
 393              	getc:
 394              	.LFB292:
 395              		.loc 1 202 0
 396              		.cfi_startproc
 397              		@ args = 0, pretend = 0, frame = 0
 398              		@ frame_needed = 0, uses_anonymous_args = 0
 399              		@ link register save eliminated.
ARM GAS  /tmp/ccSNToGX.s 			page 8


 400              	.LVL39:
 401              		.loc 1 203 0
 402 0000 FFF7FEBF 		b	fgetc
 403              	.LVL40:
 404              		.cfi_endproc
 405              	.LFE292:
 406              		.size	getc, .-getc
 407              		.section	.text.fputc,"ax",%progbits
 408              		.align	1
 409              		.global	fputc
 410              		.syntax unified
 411              		.thumb
 412              		.thumb_func
 413              		.fpu fpv4-sp-d16
 414              		.type	fputc, %function
 415              	fputc:
 416              	.LFB293:
 417              		.loc 1 217 0
 418              		.cfi_startproc
 419              		@ args = 0, pretend = 0, frame = 0
 420              		@ frame_needed = 0, uses_anonymous_args = 0
 421              	.LVL41:
 422 0000 38B5     		push	{r3, r4, r5, lr}
 423              		.cfi_def_cfa_offset 16
 424              		.cfi_offset 3, -16
 425              		.cfi_offset 4, -12
 426              		.cfi_offset 5, -8
 427              		.cfi_offset 14, -4
 428              		.loc 1 217 0
 429 0002 0C46     		mov	r4, r1
 430 0004 0546     		mov	r5, r0
 431              		.loc 1 218 0
 432 0006 FFF7FEFF 		bl	__errno
 433              	.LVL42:
 434 000a 0023     		movs	r3, #0
 435 000c 0360     		str	r3, [r0]
 436              		.loc 1 221 0
 437 000e 154B     		ldr	r3, .L56
 438 0010 5A68     		ldr	r2, [r3, #4]
 439 0012 A242     		cmp	r2, r4
 440 0014 08D0     		beq	.L46
 441              		.loc 1 221 0 is_stmt 0 discriminator 1
 442 0016 9B68     		ldr	r3, [r3, #8]
 443 0018 9C42     		cmp	r4, r3
 444 001a 05D0     		beq	.L46
 445              		.loc 1 223 0 is_stmt 1
 446 001c 2146     		mov	r1, r4
 447 001e E8B2     		uxtb	r0, r5
 448              		.loc 1 246 0
 449 0020 BDE83840 		pop	{r3, r4, r5, lr}
 450              		.cfi_remember_state
 451              		.cfi_restore 14
 452              		.cfi_restore 5
 453              		.cfi_restore 4
 454              		.cfi_restore 3
 455              		.cfi_def_cfa_offset 0
 456              	.LVL43:
ARM GAS  /tmp/ccSNToGX.s 			page 9


 457              		.loc 1 223 0
 458 0024 FFF7FEBF 		b	fatfs_putc
 459              	.LVL44:
 460              	.L46:
 461              		.cfi_restore_state
 462              		.loc 1 228 0
 463 0028 6379     		ldrb	r3, [r4, #5]	@ zero_extendqisi2
 464 002a 9907     		lsls	r1, r3, #30
 465 002c 17D5     		bpl	.L51
 466              		.loc 1 231 0
 467 002e 5A07     		lsls	r2, r3, #29
 468 0030 0BD5     		bpl	.L48
 469              		.loc 1 232 0
 470 0032 E268     		ldr	r2, [r4, #12]
 471 0034 A368     		ldr	r3, [r4, #8]
 472 0036 9A42     		cmp	r2, r3
 473 0038 03DA     		bge	.L55
 474              		.loc 1 233 0
 475 003a 2368     		ldr	r3, [r4]
 476 003c 5A1C     		adds	r2, r3, #1
 477 003e 2260     		str	r2, [r4]
 478 0040 1D70     		strb	r5, [r3]
 479              	.LVL45:
 480              	.L55:
 481              	.LBB96:
 482              	.LBB97:
 483              		.loc 1 243 0
 484 0042 E368     		ldr	r3, [r4, #12]
 485 0044 0133     		adds	r3, r3, #1
 486 0046 E360     		str	r3, [r4, #12]
 487 0048 07E0     		b	.L47
 488              	.LVL46:
 489              	.L48:
 490              		.loc 1 237 0
 491 004a 2369     		ldr	r3, [r4, #16]
 492 004c 3BB1     		cbz	r3, .L51
 493              		.loc 1 241 0
 494 004e E8B2     		uxtb	r0, r5
 495 0050 2146     		mov	r1, r4
 496 0052 9847     		blx	r3
 497              	.LVL47:
 498              		.loc 1 242 0
 499 0054 431C     		adds	r3, r0, #1
 500              		.loc 1 241 0
 501 0056 0546     		mov	r5, r0
 502              	.LVL48:
 503              		.loc 1 242 0
 504 0058 F3D1     		bne	.L55
 505              	.LVL49:
 506              	.L47:
 507              	.LBE97:
 508              	.LBE96:
 509              		.loc 1 246 0
 510 005a 2846     		mov	r0, r5
 511 005c 38BD     		pop	{r3, r4, r5, pc}
 512              	.LVL50:
 513              	.L51:
ARM GAS  /tmp/ccSNToGX.s 			page 10


 514              		.loc 1 229 0
 515 005e 4FF0FF35 		mov	r5, #-1
 516              	.LVL51:
 517 0062 FAE7     		b	.L47
 518              	.L57:
 519              		.align	2
 520              	.L56:
 521 0064 00000000 		.word	.LANCHOR1
 522              		.cfi_endproc
 523              	.LFE293:
 524              		.size	fputc, .-fputc
 525              		.section	.text.clearerr,"ax",%progbits
 526              		.align	1
 527              		.global	clearerr
 528              		.syntax unified
 529              		.thumb
 530              		.thumb_func
 531              		.fpu fpv4-sp-d16
 532              		.type	clearerr, %function
 533              	clearerr:
 534              	.LFB294:
 535              		.loc 1 249 0
 536              		.cfi_startproc
 537              		@ args = 0, pretend = 0, frame = 0
 538              		@ frame_needed = 0, uses_anonymous_args = 0
 539              		@ link register save eliminated.
 540              	.LVL52:
 541              		.loc 1 250 0
 542 0000 0023     		movs	r3, #0
 543 0002 4371     		strb	r3, [r0, #5]
 544 0004 7047     		bx	lr
 545              		.cfi_endproc
 546              	.LFE294:
 547              		.size	clearerr, .-clearerr
 548              		.section	.text.getchar,"ax",%progbits
 549              		.align	1
 550              		.global	getchar
 551              		.syntax unified
 552              		.thumb
 553              		.thumb_func
 554              		.fpu fpv4-sp-d16
 555              		.type	getchar, %function
 556              	getchar:
 557              	.LFB295:
 558              		.loc 1 267 0
 559              		.cfi_startproc
 560              		@ args = 0, pretend = 0, frame = 0
 561              		@ frame_needed = 0, uses_anonymous_args = 0
 562              		@ link register save eliminated.
 563              		.loc 1 268 0
 564 0000 014B     		ldr	r3, .L60
 565 0002 1868     		ldr	r0, [r3]
 566 0004 FFF7FEBF 		b	fgetc
 567              	.LVL53:
 568              	.L61:
 569              		.align	2
 570              	.L60:
ARM GAS  /tmp/ccSNToGX.s 			page 11


 571 0008 00000000 		.word	.LANCHOR1
 572              		.cfi_endproc
 573              	.LFE295:
 574              		.size	getchar, .-getchar
 575              		.section	.text.putchar,"ax",%progbits
 576              		.align	1
 577              		.global	putchar
 578              		.syntax unified
 579              		.thumb
 580              		.thumb_func
 581              		.fpu fpv4-sp-d16
 582              		.type	putchar, %function
 583              	putchar:
 584              	.LFB296:
 585              		.loc 1 282 0
 586              		.cfi_startproc
 587              		@ args = 0, pretend = 0, frame = 0
 588              		@ frame_needed = 0, uses_anonymous_args = 0
 589              		@ link register save eliminated.
 590              	.LVL54:
 591              		.loc 1 283 0
 592 0000 014B     		ldr	r3, .L63
 593 0002 5968     		ldr	r1, [r3, #4]
 594 0004 FFF7FEBF 		b	fputc
 595              	.LVL55:
 596              	.L64:
 597              		.align	2
 598              	.L63:
 599 0008 00000000 		.word	.LANCHOR1
 600              		.cfi_endproc
 601              	.LFE296:
 602              		.size	putchar, .-putchar
 603              		.section	.text.putc,"ax",%progbits
 604              		.align	1
 605              		.global	putc
 606              		.syntax unified
 607              		.thumb
 608              		.thumb_func
 609              		.fpu fpv4-sp-d16
 610              		.type	putc, %function
 611              	putc:
 612              	.LFB297:
 613              		.loc 1 332 0
 614              		.cfi_startproc
 615              		@ args = 0, pretend = 0, frame = 0
 616              		@ frame_needed = 0, uses_anonymous_args = 0
 617              		@ link register save eliminated.
 618              	.LVL56:
 619              		.loc 1 333 0
 620 0000 FFF7FEBF 		b	fputc
 621              	.LVL57:
 622              		.cfi_endproc
 623              	.LFE297:
 624              		.size	putc, .-putc
 625              		.section	.text.fgets,"ax",%progbits
 626              		.align	1
 627              		.global	fgets
ARM GAS  /tmp/ccSNToGX.s 			page 12


 628              		.syntax unified
 629              		.thumb
 630              		.thumb_func
 631              		.fpu fpv4-sp-d16
 632              		.type	fgets, %function
 633              	fgets:
 634              	.LFB298:
 635              		.loc 1 351 0
 636              		.cfi_startproc
 637              		@ args = 0, pretend = 0, frame = 0
 638              		@ frame_needed = 0, uses_anonymous_args = 0
 639              	.LVL58:
 640 0000 F8B5     		push	{r3, r4, r5, r6, r7, lr}
 641              		.cfi_def_cfa_offset 24
 642              		.cfi_offset 3, -24
 643              		.cfi_offset 4, -20
 644              		.cfi_offset 5, -16
 645              		.cfi_offset 6, -12
 646              		.cfi_offset 7, -8
 647              		.cfi_offset 14, -4
 648              		.loc 1 351 0
 649 0002 0546     		mov	r5, r0
 650 0004 1746     		mov	r7, r2
 651 0006 0E46     		mov	r6, r1
 652              		.loc 1 353 0
 653 0008 0024     		movs	r4, #0
 654              	.LVL59:
 655              	.L67:
 656              		.loc 1 354 0
 657 000a 2EB1     		cbz	r6, .L70
 658              		.loc 1 356 0
 659 000c 3846     		mov	r0, r7
 660 000e FFF7FEFF 		bl	fgetc
 661              	.LVL60:
 662              		.loc 1 357 0
 663 0012 431C     		adds	r3, r0, #1
 664 0014 04D1     		bne	.L68
 665              		.loc 1 359 0
 666 0016 74B1     		cbz	r4, .L74
 667              	.LVL61:
 668              	.L70:
 669              		.loc 1 373 0
 670 0018 0023     		movs	r3, #0
 671 001a 2B55     		strb	r3, [r5, r4]
 672              	.LVL62:
 673              	.L69:
 674              		.loc 1 375 0
 675 001c 2846     		mov	r0, r5
 676 001e F8BD     		pop	{r3, r4, r5, r6, r7, pc}
 677              	.LVL63:
 678              	.L68:
 679              		.loc 1 363 0
 680 0020 0A28     		cmp	r0, #10
 681 0022 F9D0     		beq	.L70
 682              		.loc 1 365 0
 683 0024 0828     		cmp	r0, #8
 684 0026 03D1     		bne	.L71
ARM GAS  /tmp/ccSNToGX.s 			page 13


 685              		.loc 1 367 0
 686 0028 04B1     		cbz	r4, .L72
 687              		.loc 1 368 0
 688 002a 013C     		subs	r4, r4, #1
 689              	.LVL64:
 690              	.L72:
 691 002c 013E     		subs	r6, r6, #1
 692              	.LVL65:
 693 002e ECE7     		b	.L67
 694              	.LVL66:
 695              	.L71:
 696              		.loc 1 371 0
 697 0030 2855     		strb	r0, [r5, r4]
 698 0032 0134     		adds	r4, r4, #1
 699              	.LVL67:
 700 0034 FAE7     		b	.L72
 701              	.L74:
 702              		.loc 1 360 0
 703 0036 2546     		mov	r5, r4
 704              	.LVL68:
 705 0038 F0E7     		b	.L69
 706              		.cfi_endproc
 707              	.LFE298:
 708              		.size	fgets, .-fgets
 709              		.section	.text.gets,"ax",%progbits
 710              		.align	1
 711              		.global	gets
 712              		.syntax unified
 713              		.thumb
 714              		.thumb_func
 715              		.fpu fpv4-sp-d16
 716              		.type	gets, %function
 717              	gets:
 718              	.LFB299:
 719              		.loc 1 382 0
 720              		.cfi_startproc
 721              		@ args = 0, pretend = 0, frame = 0
 722              		@ frame_needed = 0, uses_anonymous_args = 0
 723              	.LVL69:
 724 0000 38B5     		push	{r3, r4, r5, lr}
 725              		.cfi_def_cfa_offset 16
 726              		.cfi_offset 3, -16
 727              		.cfi_offset 4, -12
 728              		.cfi_offset 5, -8
 729              		.cfi_offset 14, -4
 730              		.loc 1 386 0
 731 0002 0A4B     		ldr	r3, .L89
 732 0004 8021     		movs	r1, #128
 733 0006 1A68     		ldr	r2, [r3]
 734              		.loc 1 382 0
 735 0008 0446     		mov	r4, r0
 736              		.loc 1 386 0
 737 000a FFF7FEFF 		bl	fgets
 738              	.LVL70:
 739              		.loc 1 387 0
 740 000e 0546     		mov	r5, r0
 741 0010 48B1     		cbz	r0, .L81
ARM GAS  /tmp/ccSNToGX.s 			page 14


 742              		.loc 1 389 0
 743 0012 2046     		mov	r0, r4
 744              	.LVL71:
 745 0014 FFF7FEFF 		bl	strlen
 746              	.LVL72:
 747              		.loc 1 390 0
 748 0018 28B1     		cbz	r0, .L81
 749              		.loc 1 390 0 is_stmt 0 discriminator 1
 750 001a 0138     		subs	r0, r0, #1
 751              	.LVL73:
 752 001c 235C     		ldrb	r3, [r4, r0]	@ zero_extendqisi2
 753 001e 0A2B     		cmp	r3, #10
 754              		.loc 1 391 0 is_stmt 1 discriminator 1
 755 0020 04BF     		itt	eq
 756 0022 0023     		moveq	r3, #0
 757 0024 2354     		strbeq	r3, [r4, r0]
 758              	.LVL74:
 759              	.L81:
 760              		.loc 1 393 0
 761 0026 2846     		mov	r0, r5
 762 0028 38BD     		pop	{r3, r4, r5, pc}
 763              	.LVL75:
 764              	.L90:
 765 002a 00BF     		.align	2
 766              	.L89:
 767 002c 00000000 		.word	.LANCHOR1
 768              		.cfi_endproc
 769              	.LFE299:
 770              		.size	gets, .-gets
 771              		.section	.text.fputs,"ax",%progbits
 772              		.align	1
 773              		.global	fputs
 774              		.syntax unified
 775              		.thumb
 776              		.thumb_func
 777              		.fpu fpv4-sp-d16
 778              		.type	fputs, %function
 779              	fputs:
 780              	.LFB300:
 781              		.loc 1 405 0
 782              		.cfi_startproc
 783              		@ args = 0, pretend = 0, frame = 0
 784              		@ frame_needed = 0, uses_anonymous_args = 0
 785              	.LVL76:
 786 0000 38B5     		push	{r3, r4, r5, lr}
 787              		.cfi_def_cfa_offset 16
 788              		.cfi_offset 3, -16
 789              		.cfi_offset 4, -12
 790              		.cfi_offset 5, -8
 791              		.cfi_offset 14, -4
 792              		.loc 1 405 0
 793 0002 0D46     		mov	r5, r1
 794 0004 441E     		subs	r4, r0, #1
 795              	.LVL77:
 796              	.L92:
 797              		.loc 1 406 0
 798 0006 14F8010F 		ldrb	r0, [r4, #1]!	@ zero_extendqisi2
ARM GAS  /tmp/ccSNToGX.s 			page 15


 799              	.LVL78:
 800 000a 20B1     		cbz	r0, .L91
 801              		.loc 1 408 0
 802 000c 2946     		mov	r1, r5
 803 000e FFF7FEFF 		bl	fputc
 804              	.LVL79:
 805 0012 431C     		adds	r3, r0, #1
 806 0014 F7D1     		bne	.L92
 807              	.L91:
 808              		.loc 1 413 0
 809 0016 38BD     		pop	{r3, r4, r5, pc}
 810              		.cfi_endproc
 811              	.LFE300:
 812              		.size	fputs, .-fputs
 813              		.section	.text.puts,"ax",%progbits
 814              		.align	1
 815              		.global	puts
 816              		.syntax unified
 817              		.thumb
 818              		.thumb_func
 819              		.fpu fpv4-sp-d16
 820              		.type	puts, %function
 821              	puts:
 822              	.LFB301:
 823              		.loc 1 428 0
 824              		.cfi_startproc
 825              		@ args = 0, pretend = 0, frame = 0
 826              		@ frame_needed = 0, uses_anonymous_args = 0
 827              	.LVL80:
 828 0000 38B5     		push	{r3, r4, r5, lr}
 829              		.cfi_def_cfa_offset 16
 830              		.cfi_offset 3, -16
 831              		.cfi_offset 4, -12
 832              		.cfi_offset 5, -8
 833              		.cfi_offset 14, -4
 834 0002 084C     		ldr	r4, .L102
 835 0004 451E     		subs	r5, r0, #1
 836              	.LVL81:
 837              	.L99:
 838              		.loc 1 429 0
 839 0006 15F8010F 		ldrb	r0, [r5, #1]!	@ zero_extendqisi2
 840              	.LVL82:
 841              		.loc 1 431 0
 842 000a 6168     		ldr	r1, [r4, #4]
 843              		.loc 1 429 0
 844 000c 20B9     		cbnz	r0, .L101
 845              		.loc 1 435 0
 846 000e 0A20     		movs	r0, #10
 847              		.loc 1 436 0
 848 0010 BDE83840 		pop	{r3, r4, r5, lr}
 849              		.cfi_remember_state
 850              		.cfi_restore 14
 851              		.cfi_restore 5
 852              		.cfi_restore 4
 853              		.cfi_restore 3
 854              		.cfi_def_cfa_offset 0
 855              	.LVL83:
ARM GAS  /tmp/ccSNToGX.s 			page 16


 856              		.loc 1 435 0
 857 0014 FFF7FEBF 		b	fputc
 858              	.LVL84:
 859              	.L101:
 860              		.cfi_restore_state
 861              		.loc 1 431 0
 862 0018 FFF7FEFF 		bl	fputc
 863              	.LVL85:
 864 001c 431C     		adds	r3, r0, #1
 865 001e F2D1     		bne	.L99
 866              		.loc 1 436 0
 867 0020 38BD     		pop	{r3, r4, r5, pc}
 868              	.LVL86:
 869              	.L103:
 870 0022 00BF     		.align	2
 871              	.L102:
 872 0024 00000000 		.word	.LANCHOR1
 873              		.cfi_endproc
 874              	.LFE301:
 875              		.size	puts, .-puts
 876              		.section	.text.feof,"ax",%progbits
 877              		.align	1
 878              		.global	feof
 879              		.syntax unified
 880              		.thumb
 881              		.thumb_func
 882              		.fpu fpv4-sp-d16
 883              		.type	feof, %function
 884              	feof:
 885              	.LFB302:
 886              		.loc 1 453 0
 887              		.cfi_startproc
 888              		@ args = 0, pretend = 0, frame = 0
 889              		@ frame_needed = 0, uses_anonymous_args = 0
 890              		@ link register save eliminated.
 891              	.LVL87:
 892              		.loc 1 454 0
 893 0000 4079     		ldrb	r0, [r0, #5]	@ zero_extendqisi2
 894              	.LVL88:
 895              		.loc 1 457 0
 896 0002 C0F34010 		ubfx	r0, r0, #5, #1
 897 0006 7047     		bx	lr
 898              		.cfi_endproc
 899              	.LFE302:
 900              		.size	feof, .-feof
 901              		.section	.text.fileno,"ax",%progbits
 902              		.align	1
 903              		.global	fileno
 904              		.syntax unified
 905              		.thumb
 906              		.thumb_func
 907              		.fpu fpv4-sp-d16
 908              		.type	fileno, %function
 909              	fileno:
 910              	.LFB310:
 911              		.loc 1 667 0
 912              		.cfi_startproc
ARM GAS  /tmp/ccSNToGX.s 			page 17


 913              		@ args = 0, pretend = 0, frame = 0
 914              		@ frame_needed = 0, uses_anonymous_args = 0
 915              	.LVL89:
 916 0000 08B5     		push	{r3, lr}
 917              		.cfi_def_cfa_offset 8
 918              		.cfi_offset 3, -8
 919              		.cfi_offset 14, -4
 920              		.loc 1 670 0
 921 0002 38B9     		cbnz	r0, .L106
 922              	.LVL90:
 923              	.LBB102:
 924              	.LBB103:
 925              		.loc 1 2341 0
 926 0004 FFF7FEFF 		bl	__errno
 927              	.LVL91:
 928 0008 0923     		movs	r3, #9
 929 000a 0360     		str	r3, [r0]
 930              	.L110:
 931              	.LBE103:
 932              	.LBE102:
 933              		.loc 1 681 0
 934 000c 4FF0FF33 		mov	r3, #-1
 935              	.L105:
 936              		.loc 1 682 0
 937 0010 1846     		mov	r0, r3
 938 0012 08BD     		pop	{r3, pc}
 939              	.LVL92:
 940              	.L106:
 941              		.loc 1 678 0
 942 0014 044A     		ldr	r2, .L111
 943 0016 0023     		movs	r3, #0
 944              	.L108:
 945              	.LVL93:
 946 0018 52F82310 		ldr	r1, [r2, r3, lsl #2]
 947 001c 8842     		cmp	r0, r1
 948 001e F7D0     		beq	.L105
 949              		.loc 1 676 0 discriminator 2
 950 0020 0133     		adds	r3, r3, #1
 951              	.LVL94:
 952 0022 102B     		cmp	r3, #16
 953 0024 F8D1     		bne	.L108
 954 0026 F1E7     		b	.L110
 955              	.L112:
 956              		.align	2
 957              	.L111:
 958 0028 00000000 		.word	.LANCHOR1
 959              		.cfi_endproc
 960              	.LFE310:
 961              		.size	fileno, .-fileno
 962              		.section	.text.fileno_to_stream,"ax",%progbits
 963              		.align	1
 964              		.global	fileno_to_stream
 965              		.syntax unified
 966              		.thumb
 967              		.thumb_func
 968              		.fpu fpv4-sp-d16
 969              		.type	fileno_to_stream, %function
ARM GAS  /tmp/ccSNToGX.s 			page 18


 970              	fileno_to_stream:
 971              	.LFB311:
 972              		.loc 1 697 0
 973              		.cfi_startproc
 974              		@ args = 0, pretend = 0, frame = 0
 975              		@ frame_needed = 0, uses_anonymous_args = 0
 976              	.LVL95:
 977              		.loc 1 699 0
 978 0000 0F28     		cmp	r0, #15
 979              		.loc 1 697 0
 980 0002 10B5     		push	{r4, lr}
 981              		.cfi_def_cfa_offset 8
 982              		.cfi_offset 4, -8
 983              		.cfi_offset 14, -4
 984              		.loc 1 699 0
 985 0004 06D9     		bls	.L114
 986              		.loc 1 701 0
 987 0006 FFF7FEFF 		bl	__errno
 988              	.LVL96:
 989 000a 0923     		movs	r3, #9
 990 000c 0360     		str	r3, [r0]
 991              		.loc 1 702 0
 992 000e 0024     		movs	r4, #0
 993              	.L113:
 994              		.loc 1 712 0
 995 0010 2046     		mov	r0, r4
 996 0012 10BD     		pop	{r4, pc}
 997              	.LVL97:
 998              	.L114:
 999              		.loc 1 705 0
 1000 0014 044B     		ldr	r3, .L116
 1001 0016 53F82040 		ldr	r4, [r3, r0, lsl #2]
 1002              	.LVL98:
 1003              		.loc 1 706 0
 1004 001a 002C     		cmp	r4, #0
 1005 001c F8D1     		bne	.L113
 1006              	.LVL99:
 1007              	.LBB106:
 1008              	.LBB107:
 1009              		.loc 1 708 0
 1010 001e FFF7FEFF 		bl	__errno
 1011              	.LVL100:
 1012 0022 0923     		movs	r3, #9
 1013 0024 0360     		str	r3, [r0]
 1014              	.LVL101:
 1015 0026 F3E7     		b	.L113
 1016              	.L117:
 1017              		.align	2
 1018              	.L116:
 1019 0028 00000000 		.word	.LANCHOR1
 1020              	.LBE107:
 1021              	.LBE106:
 1022              		.cfi_endproc
 1023              	.LFE311:
 1024              		.size	fileno_to_stream, .-fileno_to_stream
 1025              		.section	.text.truncate,"ax",%progbits
 1026              		.align	1
ARM GAS  /tmp/ccSNToGX.s 			page 19


 1027              		.global	truncate
 1028              		.syntax unified
 1029              		.thumb
 1030              		.thumb_func
 1031              		.fpu fpv4-sp-d16
 1032              		.type	truncate, %function
 1033              	truncate:
 1034              	.LFB320:
 1035              		.loc 1 1084 0
 1036              		.cfi_startproc
 1037              		@ args = 0, pretend = 0, frame = 592
 1038              		@ frame_needed = 0, uses_anonymous_args = 0
 1039              	.LVL102:
 1040 0000 30B5     		push	{r4, r5, lr}
 1041              		.cfi_def_cfa_offset 12
 1042              		.cfi_offset 4, -12
 1043              		.cfi_offset 5, -8
 1044              		.cfi_offset 14, -4
 1045 0002 ADF5157D 		sub	sp, sp, #596
 1046              		.cfi_def_cfa_offset 608
 1047              		.loc 1 1084 0
 1048 0006 0446     		mov	r4, r0
 1049 0008 0D46     		mov	r5, r1
 1050              		.loc 1 1085 0
 1051 000a FFF7FEFF 		bl	__errno
 1052              	.LVL103:
 1053 000e 0023     		movs	r3, #0
 1054 0010 0360     		str	r3, [r0]
 1055              		.loc 1 1089 0
 1056 0012 2146     		mov	r1, r4
 1057 0014 0322     		movs	r2, #3
 1058 0016 6846     		mov	r0, sp
 1059 0018 FFF7FEFF 		bl	f_open
 1060              	.LVL104:
 1061              		.loc 1 1090 0
 1062 001c 0446     		mov	r4, r0
 1063              	.LVL105:
 1064 001e 60B1     		cbz	r0, .L119
 1065              	.L131:
 1066              		.loc 1 1104 0
 1067 0020 FFF7FEFF 		bl	__errno
 1068              	.LVL106:
 1069 0024 132C     		cmp	r4, #19
 1070 0026 96BF     		itet	ls
 1071 0028 0B4B     		ldrls	r3, .L133
 1072 002a 4D23     		movhi	r3, #77
 1073              	.LVL107:
 1074 002c 1B57     		ldrsbls	r3, [r3, r4]
 1075 002e 0360     		str	r3, [r0]
 1076              		.loc 1 1105 0
 1077 0030 4FF0FF30 		mov	r0, #-1
 1078              	.L118:
 1079              		.loc 1 1108 0
 1080 0034 0DF5157D 		add	sp, sp, #596
 1081              		.cfi_remember_state
 1082              		.cfi_def_cfa_offset 12
 1083              		@ sp needed
ARM GAS  /tmp/ccSNToGX.s 			page 20


 1084 0038 30BD     		pop	{r4, r5, pc}
 1085              	.LVL108:
 1086              	.L119:
 1087              		.cfi_restore_state
 1088              		.loc 1 1095 0
 1089 003a 2A46     		mov	r2, r5
 1090 003c EB17     		asrs	r3, r5, #31
 1091 003e 6846     		mov	r0, sp
 1092              	.LVL109:
 1093 0040 FFF7FEFF 		bl	f_lseek
 1094              	.LVL110:
 1095              		.loc 1 1096 0
 1096 0044 0446     		mov	r4, r0
 1097 0046 0028     		cmp	r0, #0
 1098 0048 EAD1     		bne	.L131
 1099              		.loc 1 1101 0
 1100 004a 6846     		mov	r0, sp
 1101              	.LVL111:
 1102 004c FFF7FEFF 		bl	f_truncate
 1103              	.LVL112:
 1104              		.loc 1 1102 0
 1105 0050 0446     		mov	r4, r0
 1106 0052 0028     		cmp	r0, #0
 1107 0054 E4D1     		bne	.L131
 1108 0056 EDE7     		b	.L118
 1109              	.L134:
 1110              		.align	2
 1111              	.L133:
 1112 0058 00000000 		.word	.LANCHOR0
 1113              		.cfi_endproc
 1114              	.LFE320:
 1115              		.size	truncate, .-truncate
 1116              		.section	.text.fs_getfree,"ax",%progbits
 1117              		.align	1
 1118              		.global	fs_getfree
 1119              		.syntax unified
 1120              		.thumb
 1121              		.thumb_func
 1122              		.fpu fpv4-sp-d16
 1123              		.type	fs_getfree, %function
 1124              	fs_getfree:
 1125              	.LFB326:
 1126              		.loc 1 1357 0
 1127              		.cfi_startproc
 1128              		@ args = 0, pretend = 0, frame = 8
 1129              		@ frame_needed = 0, uses_anonymous_args = 0
 1130 0000 07B5     		push	{r0, r1, r2, lr}
 1131              		.cfi_def_cfa_offset 16
 1132              		.cfi_offset 14, -4
 1133              		.loc 1 1363 0
 1134 0002 0A48     		ldr	r0, .L138
 1135 0004 6A46     		mov	r2, sp
 1136 0006 01A9     		add	r1, sp, #4
 1137 0008 FFF7FEFF 		bl	f_getfree
 1138              	.LVL113:
 1139              		.loc 1 1364 0
 1140 000c 30B1     		cbz	r0, .L136
ARM GAS  /tmp/ccSNToGX.s 			page 21


 1141              		.loc 1 1364 0 is_stmt 0 discriminator 1
 1142 000e C2B2     		uxtb	r2, r0
 1143 0010 0023     		movs	r3, #0
 1144              	.L135:
 1145              		.loc 1 1369 0 is_stmt 1
 1146 0012 1046     		mov	r0, r2
 1147              	.LVL114:
 1148 0014 1946     		mov	r1, r3
 1149 0016 03B0     		add	sp, sp, #12
 1150              		.cfi_remember_state
 1151              		.cfi_def_cfa_offset 4
 1152              		@ sp needed
 1153 0018 5DF804FB 		ldr	pc, [sp], #4
 1154              	.LVL115:
 1155              	.L136:
 1156              		.cfi_restore_state
 1157              		.loc 1 1367 0
 1158 001c 009B     		ldr	r3, [sp]
 1159 001e 0199     		ldr	r1, [sp, #4]
 1160 0020 5B89     		ldrh	r3, [r3, #10]
 1161 0022 5943     		muls	r1, r3, r1
 1162              		.loc 1 1368 0
 1163 0024 CB0D     		lsrs	r3, r1, #23
 1164 0026 4A02     		lsls	r2, r1, #9
 1165 0028 F3E7     		b	.L135
 1166              	.L139:
 1167 002a 00BF     		.align	2
 1168              	.L138:
 1169 002c 00000000 		.word	.LC1
 1170              		.cfi_endproc
 1171              	.LFE326:
 1172              		.size	fs_getfree, .-fs_getfree
 1173              		.section	.text.fs_gettotal,"ax",%progbits
 1174              		.align	1
 1175              		.global	fs_gettotal
 1176              		.syntax unified
 1177              		.thumb
 1178              		.thumb_func
 1179              		.fpu fpv4-sp-d16
 1180              		.type	fs_gettotal, %function
 1181              	fs_gettotal:
 1182              	.LFB327:
 1183              		.loc 1 1372 0
 1184              		.cfi_startproc
 1185              		@ args = 0, pretend = 0, frame = 8
 1186              		@ frame_needed = 0, uses_anonymous_args = 0
 1187 0000 07B5     		push	{r0, r1, r2, lr}
 1188              		.cfi_def_cfa_offset 16
 1189              		.cfi_offset 14, -4
 1190              		.loc 1 1378 0
 1191 0002 0A48     		ldr	r0, .L143
 1192 0004 6A46     		mov	r2, sp
 1193 0006 01A9     		add	r1, sp, #4
 1194 0008 FFF7FEFF 		bl	f_getfree
 1195              	.LVL116:
 1196              		.loc 1 1379 0
 1197 000c 30B1     		cbz	r0, .L141
ARM GAS  /tmp/ccSNToGX.s 			page 22


 1198              		.loc 1 1379 0 is_stmt 0 discriminator 1
 1199 000e C2B2     		uxtb	r2, r0
 1200 0010 0023     		movs	r3, #0
 1201              	.L140:
 1202              		.loc 1 1384 0 is_stmt 1
 1203 0012 1046     		mov	r0, r2
 1204              	.LVL117:
 1205 0014 1946     		mov	r1, r3
 1206 0016 03B0     		add	sp, sp, #12
 1207              		.cfi_remember_state
 1208              		.cfi_def_cfa_offset 4
 1209              		@ sp needed
 1210 0018 5DF804FB 		ldr	pc, [sp], #4
 1211              	.LVL118:
 1212              	.L141:
 1213              		.cfi_restore_state
 1214              		.loc 1 1382 0
 1215 001c 009A     		ldr	r2, [sp]
 1216              	.LVL119:
 1217 001e 116B     		ldr	r1, [r2, #48]
 1218 0020 8B1E     		subs	r3, r1, #2
 1219 0022 5189     		ldrh	r1, [r2, #10]
 1220 0024 5943     		muls	r1, r3, r1
 1221              	.LVL120:
 1222              		.loc 1 1383 0
 1223 0026 CB0D     		lsrs	r3, r1, #23
 1224 0028 4A02     		lsls	r2, r1, #9
 1225 002a F2E7     		b	.L140
 1226              	.L144:
 1227              		.align	2
 1228              	.L143:
 1229 002c 00000000 		.word	.LC1
 1230              		.cfi_endproc
 1231              	.LFE327:
 1232              		.size	fs_gettotal, .-fs_gettotal
 1233              		.section	.text.basename,"ax",%progbits
 1234              		.align	1
 1235              		.global	basename
 1236              		.syntax unified
 1237              		.thumb
 1238              		.thumb_func
 1239              		.fpu fpv4-sp-d16
 1240              		.type	basename, %function
 1241              	basename:
 1242              	.LFB328:
 1243              		.loc 1 1399 0
 1244              		.cfi_startproc
 1245              		@ args = 0, pretend = 0, frame = 0
 1246              		@ frame_needed = 0, uses_anonymous_args = 0
 1247              		@ link register save eliminated.
 1248              	.LVL121:
 1249              		.loc 1 1401 0
 1250 0000 40B1     		cbz	r0, .L150
 1251 0002 0346     		mov	r3, r0
 1252              	.LVL122:
 1253              	.L147:
 1254              		.loc 1 1403 0
ARM GAS  /tmp/ccSNToGX.s 			page 23


 1255 0004 13F8012B 		ldrb	r2, [r3], #1	@ zero_extendqisi2
 1256              	.LVL123:
 1257 0008 02B9     		cbnz	r2, .L149
 1258 000a 7047     		bx	lr
 1259              	.L149:
 1260              	.LVL124:
 1261              		.loc 1 1406 0
 1262 000c 2F2A     		cmp	r2, #47
 1263 000e 08BF     		it	eq
 1264 0010 1846     		moveq	r0, r3
 1265              	.LVL125:
 1266 0012 F7E7     		b	.L147
 1267              	.LVL126:
 1268              	.L150:
 1269              		.loc 1 1402 0
 1270 0014 0048     		ldr	r0, .L151
 1271              	.LVL127:
 1272              		.loc 1 1410 0
 1273 0016 7047     		bx	lr
 1274              	.L152:
 1275              		.align	2
 1276              	.L151:
 1277 0018 00000000 		.word	.LC2
 1278              		.cfi_endproc
 1279              	.LFE328:
 1280              		.size	basename, .-basename
 1281              		.section	.text.baseext,"ax",%progbits
 1282              		.align	1
 1283              		.global	baseext
 1284              		.syntax unified
 1285              		.thumb
 1286              		.thumb_func
 1287              		.fpu fpv4-sp-d16
 1288              		.type	baseext, %function
 1289              	baseext:
 1290              	.LFB329:
 1291              		.loc 1 1420 0
 1292              		.cfi_startproc
 1293              		@ args = 0, pretend = 0, frame = 0
 1294              		@ frame_needed = 0, uses_anonymous_args = 0
 1295              		@ link register save eliminated.
 1296              	.LVL128:
 1297              		.loc 1 1421 0
 1298 0000 044B     		ldr	r3, .L157
 1299              	.LVL129:
 1300              	.L154:
 1301              		.loc 1 1423 0
 1302 0002 10F8012B 		ldrb	r2, [r0], #1	@ zero_extendqisi2
 1303              	.LVL130:
 1304 0006 0AB9     		cbnz	r2, .L156
 1305              		.loc 1 1429 0
 1306 0008 1846     		mov	r0, r3
 1307              	.LVL131:
 1308 000a 7047     		bx	lr
 1309              	.LVL132:
 1310              	.L156:
 1311              		.loc 1 1426 0
ARM GAS  /tmp/ccSNToGX.s 			page 24


 1312 000c 2E2A     		cmp	r2, #46
 1313 000e 08BF     		it	eq
 1314 0010 0346     		moveq	r3, r0
 1315              	.LVL133:
 1316 0012 F6E7     		b	.L154
 1317              	.L158:
 1318              		.align	2
 1319              	.L157:
 1320 0014 00000000 		.word	.LC2
 1321              		.cfi_endproc
 1322              	.LFE329:
 1323              		.size	baseext, .-baseext
 1324              		.section	.text.chdir,"ax",%progbits
 1325              		.align	1
 1326              		.global	chdir
 1327              		.syntax unified
 1328              		.thumb
 1329              		.thumb_func
 1330              		.fpu fpv4-sp-d16
 1331              		.type	chdir, %function
 1332              	chdir:
 1333              	.LFB330:
 1334              		.loc 1 1442 0
 1335              		.cfi_startproc
 1336              		@ args = 0, pretend = 0, frame = 0
 1337              		@ frame_needed = 0, uses_anonymous_args = 0
 1338              	.LVL134:
 1339 0000 10B5     		push	{r4, lr}
 1340              		.cfi_def_cfa_offset 8
 1341              		.cfi_offset 4, -8
 1342              		.cfi_offset 14, -4
 1343              		.loc 1 1442 0
 1344 0002 0446     		mov	r4, r0
 1345              		.loc 1 1443 0
 1346 0004 FFF7FEFF 		bl	__errno
 1347              	.LVL135:
 1348 0008 0023     		movs	r3, #0
 1349 000a 0360     		str	r3, [r0]
 1350              		.loc 1 1445 0
 1351 000c 2046     		mov	r0, r4
 1352 000e FFF7FEFF 		bl	f_chdir
 1353              	.LVL136:
 1354              		.loc 1 1446 0
 1355 0012 0446     		mov	r4, r0
 1356              	.LVL137:
 1357 0014 50B1     		cbz	r0, .L162
 1358              		.loc 1 1448 0
 1359 0016 FFF7FEFF 		bl	__errno
 1360              	.LVL138:
 1361 001a 132C     		cmp	r4, #19
 1362 001c 96BF     		itet	ls
 1363 001e 044B     		ldrls	r3, .L164
 1364 0020 4D23     		movhi	r3, #77
 1365              	.LVL139:
 1366 0022 1B57     		ldrsbls	r3, [r3, r4]
 1367 0024 0360     		str	r3, [r0]
 1368              		.loc 1 1449 0
ARM GAS  /tmp/ccSNToGX.s 			page 25


 1369 0026 4FF0FF30 		mov	r0, #-1
 1370 002a 10BD     		pop	{r4, pc}
 1371              	.LVL140:
 1372              	.L162:
 1373              		.loc 1 1452 0
 1374 002c 10BD     		pop	{r4, pc}
 1375              	.L165:
 1376 002e 00BF     		.align	2
 1377              	.L164:
 1378 0030 00000000 		.word	.LANCHOR0
 1379              		.cfi_endproc
 1380              	.LFE330:
 1381              		.size	chdir, .-chdir
 1382              		.section	.text.chmod,"ax",%progbits
 1383              		.align	1
 1384              		.global	chmod
 1385              		.syntax unified
 1386              		.thumb
 1387              		.thumb_func
 1388              		.fpu fpv4-sp-d16
 1389              		.type	chmod, %function
 1390              	chmod:
 1391              	.LFB331:
 1392              		.loc 1 1467 0
 1393              		.cfi_startproc
 1394              		@ args = 0, pretend = 0, frame = 0
 1395              		@ frame_needed = 0, uses_anonymous_args = 0
 1396              	.LVL141:
 1397 0000 38B5     		push	{r3, r4, r5, lr}
 1398              		.cfi_def_cfa_offset 16
 1399              		.cfi_offset 3, -16
 1400              		.cfi_offset 4, -12
 1401              		.cfi_offset 5, -8
 1402              		.cfi_offset 14, -4
 1403              		.loc 1 1467 0
 1404 0002 0D46     		mov	r5, r1
 1405 0004 0446     		mov	r4, r0
 1406              		.loc 1 1469 0
 1407 0006 FFF7FEFF 		bl	__errno
 1408              	.LVL142:
 1409 000a 0023     		movs	r3, #0
 1410              		.loc 1 1474 0
 1411 000c 15F0920F 		tst	r5, #146
 1412              		.loc 1 1469 0
 1413 0010 0360     		str	r3, [r0]
 1414              		.loc 1 1474 0
 1415 0012 01D0     		beq	.L167
 1416              	.LVL143:
 1417              	.L169:
 1418              		.loc 1 1485 0
 1419 0014 0020     		movs	r0, #0
 1420 0016 38BD     		pop	{r3, r4, r5, pc}
 1421              	.LVL144:
 1422              	.L167:
 1423              	.LBB111:
 1424              	.LBB112:
 1425              		.loc 1 1477 0
ARM GAS  /tmp/ccSNToGX.s 			page 26


 1426 0018 0122     		movs	r2, #1
 1427 001a 2046     		mov	r0, r4
 1428 001c 1146     		mov	r1, r2
 1429 001e FFF7FEFF 		bl	f_chmod
 1430              	.LVL145:
 1431              		.loc 1 1478 0
 1432 0022 0446     		mov	r4, r0
 1433              	.LVL146:
 1434 0024 0028     		cmp	r0, #0
 1435 0026 F5D0     		beq	.L169
 1436              		.loc 1 1480 0
 1437 0028 FFF7FEFF 		bl	__errno
 1438              	.LVL147:
 1439 002c 132C     		cmp	r4, #19
 1440 002e 96BF     		itet	ls
 1441 0030 034B     		ldrls	r3, .L175
 1442 0032 4D23     		movhi	r3, #77
 1443              	.LVL148:
 1444 0034 1B57     		ldrsbls	r3, [r3, r4]
 1445 0036 0360     		str	r3, [r0]
 1446              		.loc 1 1481 0
 1447 0038 4FF0FF30 		mov	r0, #-1
 1448              	.LBE112:
 1449              	.LBE111:
 1450              		.loc 1 1486 0
 1451 003c 38BD     		pop	{r3, r4, r5, pc}
 1452              	.LVL149:
 1453              	.L176:
 1454 003e 00BF     		.align	2
 1455              	.L175:
 1456 0040 00000000 		.word	.LANCHOR0
 1457              		.cfi_endproc
 1458              	.LFE331:
 1459              		.size	chmod, .-chmod
 1460              		.section	.text.dirname,"ax",%progbits
 1461              		.align	1
 1462              		.global	dirname
 1463              		.syntax unified
 1464              		.thumb
 1465              		.thumb_func
 1466              		.fpu fpv4-sp-d16
 1467              		.type	dirname, %function
 1468              	dirname:
 1469              	.LFB332:
 1470              		.loc 1 1505 0
 1471              		.cfi_startproc
 1472              		@ args = 0, pretend = 0, frame = 0
 1473              		@ frame_needed = 0, uses_anonymous_args = 0
 1474              	.LVL150:
 1475 0000 10B5     		push	{r4, lr}
 1476              		.cfi_def_cfa_offset 8
 1477              		.cfi_offset 4, -8
 1478              		.cfi_offset 14, -4
 1479              		.loc 1 1509 0
 1480 0002 58B1     		cbz	r0, .L182
 1481 0004 0246     		mov	r2, r0
 1482 0006 0023     		movs	r3, #0
ARM GAS  /tmp/ccSNToGX.s 			page 27


 1483              	.LVL151:
 1484              	.L179:
 1485 0008 141A     		subs	r4, r2, r0
 1486              	.LVL152:
 1487              		.loc 1 1512 0
 1488 000a 12F8011B 		ldrb	r1, [r2], #1	@ zero_extendqisi2
 1489              	.LVL153:
 1490 000e 09B9     		cbnz	r1, .L181
 1491              	.LVL154:
 1492              	.L177:
 1493              		.loc 1 1520 0
 1494 0010 1846     		mov	r0, r3
 1495 0012 10BD     		pop	{r4, pc}
 1496              	.LVL155:
 1497              	.L181:
 1498              		.loc 1 1515 0
 1499 0014 2F29     		cmp	r1, #47
 1500 0016 08BF     		it	eq
 1501 0018 2346     		moveq	r3, r4
 1502              	.LVL156:
 1503 001a F5E7     		b	.L179
 1504              	.LVL157:
 1505              	.L182:
 1506              		.loc 1 1510 0
 1507 001c 0346     		mov	r3, r0
 1508 001e F7E7     		b	.L177
 1509              		.cfi_endproc
 1510              	.LFE332:
 1511              		.size	dirname, .-dirname
 1512              		.section	.text.getcwd,"ax",%progbits
 1513              		.align	1
 1514              		.global	getcwd
 1515              		.syntax unified
 1516              		.thumb
 1517              		.thumb_func
 1518              		.fpu fpv4-sp-d16
 1519              		.type	getcwd, %function
 1520              	getcwd:
 1521              	.LFB333:
 1522              		.loc 1 1550 0
 1523              		.cfi_startproc
 1524              		@ args = 0, pretend = 0, frame = 0
 1525              		@ frame_needed = 0, uses_anonymous_args = 0
 1526              	.LVL158:
 1527 0000 38B5     		push	{r3, r4, r5, lr}
 1528              		.cfi_def_cfa_offset 16
 1529              		.cfi_offset 3, -16
 1530              		.cfi_offset 4, -12
 1531              		.cfi_offset 5, -8
 1532              		.cfi_offset 14, -4
 1533              		.loc 1 1550 0
 1534 0002 0D46     		mov	r5, r1
 1535 0004 0446     		mov	r4, r0
 1536              		.loc 1 1552 0
 1537 0006 FFF7FEFF 		bl	__errno
 1538              	.LVL159:
 1539 000a 0023     		movs	r3, #0
ARM GAS  /tmp/ccSNToGX.s 			page 28


 1540 000c 0360     		str	r3, [r0]
 1541              		.loc 1 1554 0
 1542 000e 2946     		mov	r1, r5
 1543 0010 2046     		mov	r0, r4
 1544 0012 FFF7FEFF 		bl	f_getcwd
 1545              	.LVL160:
 1546              		.loc 1 1555 0
 1547 0016 0546     		mov	r5, r0
 1548              	.LVL161:
 1549 0018 40B1     		cbz	r0, .L184
 1550              		.loc 1 1557 0
 1551 001a FFF7FEFF 		bl	__errno
 1552              	.LVL162:
 1553 001e 132D     		cmp	r5, #19
 1554 0020 96BF     		itet	ls
 1555 0022 034B     		ldrls	r3, .L190
 1556 0024 4D23     		movhi	r3, #77
 1557              	.LVL163:
 1558 0026 5B57     		ldrsbls	r3, [r3, r5]
 1559 0028 0360     		str	r3, [r0]
 1560              		.loc 1 1558 0
 1561 002a 0024     		movs	r4, #0
 1562              	.LVL164:
 1563              	.L184:
 1564              		.loc 1 1561 0
 1565 002c 2046     		mov	r0, r4
 1566 002e 38BD     		pop	{r3, r4, r5, pc}
 1567              	.L191:
 1568              		.align	2
 1569              	.L190:
 1570 0030 00000000 		.word	.LANCHOR0
 1571              		.cfi_endproc
 1572              	.LFE333:
 1573              		.size	getcwd, .-getcwd
 1574              		.section	.text.mkdir,"ax",%progbits
 1575              		.align	1
 1576              		.global	mkdir
 1577              		.syntax unified
 1578              		.thumb
 1579              		.thumb_func
 1580              		.fpu fpv4-sp-d16
 1581              		.type	mkdir, %function
 1582              	mkdir:
 1583              	.LFB334:
 1584              		.loc 1 1573 0
 1585              		.cfi_startproc
 1586              		@ args = 0, pretend = 0, frame = 0
 1587              		@ frame_needed = 0, uses_anonymous_args = 0
 1588              	.LVL165:
 1589 0000 70B5     		push	{r4, r5, r6, lr}
 1590              		.cfi_def_cfa_offset 16
 1591              		.cfi_offset 4, -16
 1592              		.cfi_offset 5, -12
 1593              		.cfi_offset 6, -8
 1594              		.cfi_offset 14, -4
 1595              		.loc 1 1573 0
 1596 0002 0646     		mov	r6, r0
ARM GAS  /tmp/ccSNToGX.s 			page 29


 1597 0004 0C46     		mov	r4, r1
 1598              		.loc 1 1574 0
 1599 0006 FFF7FEFF 		bl	__errno
 1600              	.LVL166:
 1601 000a 0023     		movs	r3, #0
 1602 000c 0360     		str	r3, [r0]
 1603              		.loc 1 1576 0
 1604 000e 3046     		mov	r0, r6
 1605 0010 FFF7FEFF 		bl	f_mkdir
 1606              	.LVL167:
 1607              		.loc 1 1577 0
 1608 0014 0546     		mov	r5, r0
 1609 0016 50B1     		cbz	r0, .L193
 1610              		.loc 1 1579 0
 1611 0018 FFF7FEFF 		bl	__errno
 1612              	.LVL168:
 1613 001c 132D     		cmp	r5, #19
 1614 001e 96BF     		itet	ls
 1615 0020 074B     		ldrls	r3, .L198
 1616 0022 4D23     		movhi	r3, #77
 1617              	.LVL169:
 1618 0024 5B57     		ldrsbls	r3, [r3, r5]
 1619 0026 0360     		str	r3, [r0]
 1620              		.loc 1 1580 0
 1621 0028 4FF0FF30 		mov	r0, #-1
 1622 002c 70BD     		pop	{r4, r5, r6, pc}
 1623              	.LVL170:
 1624              	.L193:
 1625              		.loc 1 1583 0
 1626 002e 2CB1     		cbz	r4, .L197
 1627              		.loc 1 1584 0
 1628 0030 2146     		mov	r1, r4
 1629 0032 3046     		mov	r0, r6
 1630              	.LVL171:
 1631 0034 FFF7FEFF 		bl	chmod
 1632              	.LVL172:
 1633              		.loc 1 1587 0
 1634 0038 2846     		mov	r0, r5
 1635 003a 70BD     		pop	{r4, r5, r6, pc}
 1636              	.LVL173:
 1637              	.L197:
 1638 003c 2046     		mov	r0, r4
 1639              	.LVL174:
 1640              		.loc 1 1588 0
 1641 003e 70BD     		pop	{r4, r5, r6, pc}
 1642              	.LVL175:
 1643              	.L199:
 1644              		.align	2
 1645              	.L198:
 1646 0040 00000000 		.word	.LANCHOR0
 1647              		.cfi_endproc
 1648              	.LFE334:
 1649              		.size	mkdir, .-mkdir
 1650              		.section	.text.rename,"ax",%progbits
 1651              		.align	1
 1652              		.global	rename
 1653              		.syntax unified
ARM GAS  /tmp/ccSNToGX.s 			page 30


 1654              		.thumb
 1655              		.thumb_func
 1656              		.fpu fpv4-sp-d16
 1657              		.type	rename, %function
 1658              	rename:
 1659              	.LFB335:
 1660              		.loc 1 1601 0
 1661              		.cfi_startproc
 1662              		@ args = 0, pretend = 0, frame = 0
 1663              		@ frame_needed = 0, uses_anonymous_args = 0
 1664              	.LVL176:
 1665 0000 38B5     		push	{r3, r4, r5, lr}
 1666              		.cfi_def_cfa_offset 16
 1667              		.cfi_offset 3, -16
 1668              		.cfi_offset 4, -12
 1669              		.cfi_offset 5, -8
 1670              		.cfi_offset 14, -4
 1671              		.loc 1 1601 0
 1672 0002 0446     		mov	r4, r0
 1673 0004 0D46     		mov	r5, r1
 1674              		.loc 1 1604 0
 1675 0006 FFF7FEFF 		bl	__errno
 1676              	.LVL177:
 1677 000a 0023     		movs	r3, #0
 1678 000c 0360     		str	r3, [r0]
 1679              		.loc 1 1605 0
 1680 000e 2946     		mov	r1, r5
 1681 0010 2046     		mov	r0, r4
 1682 0012 FFF7FEFF 		bl	f_rename
 1683              	.LVL178:
 1684              		.loc 1 1606 0
 1685 0016 0446     		mov	r4, r0
 1686              	.LVL179:
 1687 0018 50B1     		cbz	r0, .L203
 1688              		.loc 1 1608 0
 1689 001a FFF7FEFF 		bl	__errno
 1690              	.LVL180:
 1691 001e 132C     		cmp	r4, #19
 1692 0020 96BF     		itet	ls
 1693 0022 044B     		ldrls	r3, .L205
 1694 0024 4D23     		movhi	r3, #77
 1695              	.LVL181:
 1696 0026 1B57     		ldrsbls	r3, [r3, r4]
 1697 0028 0360     		str	r3, [r0]
 1698              		.loc 1 1609 0
 1699 002a 4FF0FF30 		mov	r0, #-1
 1700 002e 38BD     		pop	{r3, r4, r5, pc}
 1701              	.LVL182:
 1702              	.L203:
 1703              		.loc 1 1612 0
 1704 0030 38BD     		pop	{r3, r4, r5, pc}
 1705              	.LVL183:
 1706              	.L206:
 1707 0032 00BF     		.align	2
 1708              	.L205:
 1709 0034 00000000 		.word	.LANCHOR0
 1710              		.cfi_endproc
ARM GAS  /tmp/ccSNToGX.s 			page 31


 1711              	.LFE335:
 1712              		.size	rename, .-rename
 1713              		.section	.text.remove,"ax",%progbits
 1714              		.align	1
 1715              		.global	remove
 1716              		.syntax unified
 1717              		.thumb
 1718              		.thumb_func
 1719              		.fpu fpv4-sp-d16
 1720              		.type	remove, %function
 1721              	remove:
 1722              	.LFB338:
 1723              		.loc 1 1659 0
 1724              		.cfi_startproc
 1725              		@ args = 0, pretend = 0, frame = 0
 1726              		@ frame_needed = 0, uses_anonymous_args = 0
 1727              	.LVL184:
 1728 0000 10B5     		push	{r4, lr}
 1729              		.cfi_def_cfa_offset 8
 1730              		.cfi_offset 4, -8
 1731              		.cfi_offset 14, -4
 1732              		.loc 1 1659 0
 1733 0002 0446     		mov	r4, r0
 1734              		.loc 1 1660 0
 1735 0004 FFF7FEFF 		bl	__errno
 1736              	.LVL185:
 1737 0008 0023     		movs	r3, #0
 1738 000a 0360     		str	r3, [r0]
 1739              		.loc 1 1661 0
 1740 000c 2046     		mov	r0, r4
 1741 000e FFF7FEFF 		bl	f_unlink
 1742              	.LVL186:
 1743              		.loc 1 1662 0
 1744 0012 0446     		mov	r4, r0
 1745              	.LVL187:
 1746 0014 50B1     		cbz	r0, .L210
 1747              		.loc 1 1664 0
 1748 0016 FFF7FEFF 		bl	__errno
 1749              	.LVL188:
 1750 001a 132C     		cmp	r4, #19
 1751 001c 96BF     		itet	ls
 1752 001e 044B     		ldrls	r3, .L212
 1753 0020 4D23     		movhi	r3, #77
 1754              	.LVL189:
 1755 0022 1B57     		ldrsbls	r3, [r3, r4]
 1756 0024 0360     		str	r3, [r0]
 1757              		.loc 1 1665 0
 1758 0026 4FF0FF30 		mov	r0, #-1
 1759 002a 10BD     		pop	{r4, pc}
 1760              	.LVL190:
 1761              	.L210:
 1762              		.loc 1 1668 0
 1763 002c 10BD     		pop	{r4, pc}
 1764              	.L213:
 1765 002e 00BF     		.align	2
 1766              	.L212:
 1767 0030 00000000 		.word	.LANCHOR0
ARM GAS  /tmp/ccSNToGX.s 			page 32


 1768              		.cfi_endproc
 1769              	.LFE338:
 1770              		.size	remove, .-remove
 1771              		.section	.text.unlink,"ax",%progbits
 1772              		.align	1
 1773              		.global	unlink
 1774              		.syntax unified
 1775              		.thumb
 1776              		.thumb_func
 1777              		.fpu fpv4-sp-d16
 1778              		.type	unlink, %function
 1779              	unlink:
 1780              	.LFB372:
 1781              		.cfi_startproc
 1782              		@ args = 0, pretend = 0, frame = 0
 1783              		@ frame_needed = 0, uses_anonymous_args = 0
 1784              		@ link register save eliminated.
 1785 0000 FFF7FEBF 		b	remove
 1786              		.cfi_endproc
 1787              	.LFE372:
 1788              		.size	unlink, .-unlink
 1789              		.section	.text.rmdir,"ax",%progbits
 1790              		.align	1
 1791              		.global	rmdir
 1792              		.syntax unified
 1793              		.thumb
 1794              		.thumb_func
 1795              		.fpu fpv4-sp-d16
 1796              		.type	rmdir, %function
 1797              	rmdir:
 1798              	.LFB374:
 1799              		.cfi_startproc
 1800              		@ args = 0, pretend = 0, frame = 0
 1801              		@ frame_needed = 0, uses_anonymous_args = 0
 1802              		@ link register save eliminated.
 1803 0000 FFF7FEBF 		b	remove
 1804              		.cfi_endproc
 1805              	.LFE374:
 1806              		.size	rmdir, .-rmdir
 1807              		.section	.text.closedir,"ax",%progbits
 1808              		.align	1
 1809              		.global	closedir
 1810              		.syntax unified
 1811              		.thumb
 1812              		.thumb_func
 1813              		.fpu fpv4-sp-d16
 1814              		.type	closedir, %function
 1815              	closedir:
 1816              	.LFB339:
 1817              		.loc 1 1683 0
 1818              		.cfi_startproc
 1819              		@ args = 0, pretend = 0, frame = 0
 1820              		@ frame_needed = 0, uses_anonymous_args = 0
 1821              	.LVL191:
 1822              		.loc 1 1683 0
 1823 0000 10B5     		push	{r4, lr}
 1824              		.cfi_def_cfa_offset 8
ARM GAS  /tmp/ccSNToGX.s 			page 33


 1825              		.cfi_offset 4, -8
 1826              		.cfi_offset 14, -4
 1827              		.loc 1 1684 0
 1828 0002 FFF7FEFF 		bl	f_closedir
 1829              	.LVL192:
 1830              		.loc 1 1685 0
 1831 0006 0446     		mov	r4, r0
 1832 0008 50B1     		cbz	r0, .L219
 1833              		.loc 1 1687 0
 1834 000a FFF7FEFF 		bl	__errno
 1835              	.LVL193:
 1836 000e 132C     		cmp	r4, #19
 1837 0010 96BF     		itet	ls
 1838 0012 044B     		ldrls	r3, .L221
 1839 0014 4D23     		movhi	r3, #77
 1840              	.LVL194:
 1841 0016 1B57     		ldrsbls	r3, [r3, r4]
 1842 0018 0360     		str	r3, [r0]
 1843              		.loc 1 1688 0
 1844 001a 4FF0FF30 		mov	r0, #-1
 1845 001e 10BD     		pop	{r4, pc}
 1846              	.LVL195:
 1847              	.L219:
 1848              		.loc 1 1691 0
 1849 0020 10BD     		pop	{r4, pc}
 1850              	.L222:
 1851 0022 00BF     		.align	2
 1852              	.L221:
 1853 0024 00000000 		.word	.LANCHOR0
 1854              		.cfi_endproc
 1855              	.LFE339:
 1856              		.size	closedir, .-closedir
 1857              		.section	.text.opendir,"ax",%progbits
 1858              		.align	1
 1859              		.global	opendir
 1860              		.syntax unified
 1861              		.thumb
 1862              		.thumb_func
 1863              		.fpu fpv4-sp-d16
 1864              		.type	opendir, %function
 1865              	opendir:
 1866              	.LFB340:
 1867              		.loc 1 1702 0
 1868              		.cfi_startproc
 1869              		@ args = 0, pretend = 0, frame = 0
 1870              		@ frame_needed = 0, uses_anonymous_args = 0
 1871              	.LVL196:
 1872 0000 10B5     		push	{r4, lr}
 1873              		.cfi_def_cfa_offset 8
 1874              		.cfi_offset 4, -8
 1875              		.cfi_offset 14, -4
 1876              		.loc 1 1703 0
 1877 0002 0146     		mov	r1, r0
 1878 0004 0848     		ldr	r0, .L228
 1879              	.LVL197:
 1880 0006 FFF7FEFF 		bl	f_opendir
 1881              	.LVL198:
ARM GAS  /tmp/ccSNToGX.s 			page 34


 1882              		.loc 1 1704 0
 1883 000a 0446     		mov	r4, r0
 1884 000c 48B1     		cbz	r0, .L226
 1885              		.loc 1 1706 0
 1886 000e FFF7FEFF 		bl	__errno
 1887              	.LVL199:
 1888 0012 132C     		cmp	r4, #19
 1889 0014 96BF     		itet	ls
 1890 0016 054B     		ldrls	r3, .L228+4
 1891 0018 4D23     		movhi	r3, #77
 1892              	.LVL200:
 1893 001a 1B57     		ldrsbls	r3, [r3, r4]
 1894 001c 0360     		str	r3, [r0]
 1895              		.loc 1 1707 0
 1896 001e 0020     		movs	r0, #0
 1897 0020 10BD     		pop	{r4, pc}
 1898              	.LVL201:
 1899              	.L226:
 1900              		.loc 1 1709 0
 1901 0022 0148     		ldr	r0, .L228
 1902              	.LVL202:
 1903              		.loc 1 1710 0
 1904 0024 10BD     		pop	{r4, pc}
 1905              	.L229:
 1906 0026 00BF     		.align	2
 1907              	.L228:
 1908 0028 00000000 		.word	.LANCHOR2
 1909 002c 00000000 		.word	.LANCHOR0
 1910              		.cfi_endproc
 1911              	.LFE340:
 1912              		.size	opendir, .-opendir
 1913              		.section	.text.readdir,"ax",%progbits
 1914              		.align	1
 1915              		.global	readdir
 1916              		.syntax unified
 1917              		.thumb
 1918              		.thumb_func
 1919              		.fpu fpv4-sp-d16
 1920              		.type	readdir, %function
 1921              	readdir:
 1922              	.LFB341:
 1923              		.loc 1 1721 0
 1924              		.cfi_startproc
 1925              		@ args = 0, pretend = 0, frame = 288
 1926              		@ frame_needed = 0, uses_anonymous_args = 0
 1927              	.LVL203:
 1928 0000 70B5     		push	{r4, r5, r6, lr}
 1929              		.cfi_def_cfa_offset 16
 1930              		.cfi_offset 4, -16
 1931              		.cfi_offset 5, -12
 1932              		.cfi_offset 6, -8
 1933              		.cfi_offset 14, -4
 1934              		.loc 1 1726 0
 1935 0002 124C     		ldr	r4, .L236
 1936              		.loc 1 1721 0
 1937 0004 C8B0     		sub	sp, sp, #288
 1938              		.cfi_def_cfa_offset 304
ARM GAS  /tmp/ccSNToGX.s 			page 35


 1939              		.loc 1 1726 0
 1940 0006 0023     		movs	r3, #0
 1941              		.loc 1 1727 0
 1942 0008 6946     		mov	r1, sp
 1943              		.loc 1 1726 0
 1944 000a 2370     		strb	r3, [r4]
 1945              		.loc 1 1727 0
 1946 000c FFF7FEFF 		bl	f_readdir
 1947              	.LVL204:
 1948              		.loc 1 1728 0
 1949 0010 0546     		mov	r5, r0
 1950 0012 10B9     		cbnz	r0, .L231
 1951              		.loc 1 1728 0 is_stmt 0 discriminator 1
 1952 0014 9DF81A30 		ldrb	r3, [sp, #26]	@ zero_extendqisi2
 1953 0018 53B9     		cbnz	r3, .L232
 1954              	.L231:
 1955              		.loc 1 1730 0 is_stmt 1
 1956 001a FFF7FEFF 		bl	__errno
 1957              	.LVL205:
 1958 001e 132D     		cmp	r5, #19
 1959 0020 96BF     		itet	ls
 1960 0022 0B4B     		ldrls	r3, .L236+4
 1961 0024 4D23     		movhi	r3, #77
 1962              	.LVL206:
 1963 0026 5B57     		ldrsbls	r3, [r3, r5]
 1964 0028 0360     		str	r3, [r0]
 1965              		.loc 1 1731 0
 1966 002a 0020     		movs	r0, #0
 1967              	.L230:
 1968              		.loc 1 1737 0
 1969 002c 48B0     		add	sp, sp, #288
 1970              		.cfi_remember_state
 1971              		.cfi_def_cfa_offset 16
 1972              		@ sp needed
 1973 002e 70BD     		pop	{r4, r5, r6, pc}
 1974              	.LVL207:
 1975              	.L232:
 1976              		.cfi_restore_state
 1977              		.loc 1 1733 0
 1978 0030 0DF11A00 		add	r0, sp, #26
 1979              	.LVL208:
 1980 0034 FFF7FEFF 		bl	strlen
 1981              	.LVL209:
 1982 0038 0646     		mov	r6, r0
 1983              	.LVL210:
 1984              		.loc 1 1734 0
 1985 003a 0246     		mov	r2, r0
 1986 003c 0DF11A01 		add	r1, sp, #26
 1987 0040 2046     		mov	r0, r4
 1988              	.LVL211:
 1989 0042 FFF7FEFF 		bl	strncpy
 1990              	.LVL212:
 1991              		.loc 1 1735 0
 1992 0046 A555     		strb	r5, [r4, r6]
 1993              		.loc 1 1736 0
 1994 0048 2046     		mov	r0, r4
 1995 004a EFE7     		b	.L230
ARM GAS  /tmp/ccSNToGX.s 			page 36


 1996              	.L237:
 1997              		.align	2
 1998              	.L236:
 1999 004c 00000000 		.word	.LANCHOR3
 2000 0050 00000000 		.word	.LANCHOR0
 2001              		.cfi_endproc
 2002              	.LFE341:
 2003              		.size	readdir, .-readdir
 2004              		.section	.text.clrerror,"ax",%progbits
 2005              		.align	1
 2006              		.global	clrerror
 2007              		.syntax unified
 2008              		.thumb
 2009              		.thumb_func
 2010              		.fpu fpv4-sp-d16
 2011              		.type	clrerror, %function
 2012              	clrerror:
 2013              	.LFB342:
 2014              		.loc 1 1752 0
 2015              		.cfi_startproc
 2016              		@ args = 0, pretend = 0, frame = 0
 2017              		@ frame_needed = 0, uses_anonymous_args = 0
 2018              		@ link register save eliminated.
 2019              	.LVL213:
 2020              		.loc 1 1754 0
 2021 0000 4379     		ldrb	r3, [r0, #5]	@ zero_extendqisi2
 2022 0002 23F03003 		bic	r3, r3, #48
 2023 0006 4371     		strb	r3, [r0, #5]
 2024 0008 7047     		bx	lr
 2025              		.cfi_endproc
 2026              	.LFE342:
 2027              		.size	clrerror, .-clrerror
 2028              		.section	.text.ferror,"ax",%progbits
 2029              		.align	1
 2030              		.global	ferror
 2031              		.syntax unified
 2032              		.thumb
 2033              		.thumb_func
 2034              		.fpu fpv4-sp-d16
 2035              		.type	ferror, %function
 2036              	ferror:
 2037              	.LFB343:
 2038              		.loc 1 1764 0
 2039              		.cfi_startproc
 2040              		@ args = 0, pretend = 0, frame = 0
 2041              		@ frame_needed = 0, uses_anonymous_args = 0
 2042              		@ link register save eliminated.
 2043              	.LVL214:
 2044              		.loc 1 1765 0
 2045 0000 4079     		ldrb	r0, [r0, #5]	@ zero_extendqisi2
 2046              	.LVL215:
 2047              		.loc 1 1768 0
 2048 0002 C0F30010 		ubfx	r0, r0, #4, #1
 2049 0006 7047     		bx	lr
 2050              		.cfi_endproc
 2051              	.LFE343:
 2052              		.size	ferror, .-ferror
ARM GAS  /tmp/ccSNToGX.s 			page 37


 2053              		.section	.text.strerror,"ax",%progbits
 2054              		.align	1
 2055              		.global	strerror
 2056              		.syntax unified
 2057              		.thumb
 2058              		.thumb_func
 2059              		.fpu fpv4-sp-d16
 2060              		.type	strerror, %function
 2061              	strerror:
 2062              	.LFB344:
 2063              		.loc 1 1780 0
 2064              		.cfi_startproc
 2065              		@ args = 0, pretend = 0, frame = 0
 2066              		@ frame_needed = 0, uses_anonymous_args = 0
 2067              		@ link register save eliminated.
 2068              	.LVL216:
 2069 0000 0138     		subs	r0, r0, #1
 2070              	.LVL217:
 2071 0002 4C28     		cmp	r0, #76
 2072 0004 9ABF     		itte	ls
 2073 0006 024B     		ldrls	r3, .L243
 2074 0008 53F82000 		ldrls	r0, [r3, r0, lsl #2]
 2075              	.LVL218:
 2076              		.loc 1 1782 0
 2077 000c 0020     		movhi	r0, #0
 2078              		.loc 1 1825 0
 2079 000e 7047     		bx	lr
 2080              	.L244:
 2081              		.align	2
 2082              	.L243:
 2083 0010 00000000 		.word	.LANCHOR4
 2084              		.cfi_endproc
 2085              	.LFE344:
 2086              		.size	strerror, .-strerror
 2087              		.section	.text.__wrap_strerror_r,"ax",%progbits
 2088              		.align	1
 2089              		.global	__wrap_strerror_r
 2090              		.syntax unified
 2091              		.thumb
 2092              		.thumb_func
 2093              		.fpu fpv4-sp-d16
 2094              		.type	__wrap_strerror_r, %function
 2095              	__wrap_strerror_r:
 2096              	.LFB345:
 2097              		.loc 1 1839 0
 2098              		.cfi_startproc
 2099              		@ args = 0, pretend = 0, frame = 0
 2100              		@ frame_needed = 0, uses_anonymous_args = 0
 2101              	.LVL219:
 2102 0000 10B5     		push	{r4, lr}
 2103              		.cfi_def_cfa_offset 8
 2104              		.cfi_offset 4, -8
 2105              		.cfi_offset 14, -4
 2106              		.loc 1 1839 0
 2107 0002 0C46     		mov	r4, r1
 2108              		.loc 1 1840 0
 2109 0004 FFF7FEFF 		bl	strerror
ARM GAS  /tmp/ccSNToGX.s 			page 38


 2110              	.LVL220:
 2111 0008 0146     		mov	r1, r0
 2112              	.LVL221:
 2113 000a 2046     		mov	r0, r4
 2114 000c FFF7FEFF 		bl	strncpy
 2115              	.LVL222:
 2116              		.loc 1 1842 0
 2117 0010 2046     		mov	r0, r4
 2118 0012 10BD     		pop	{r4, pc}
 2119              		.cfi_endproc
 2120              	.LFE345:
 2121              		.size	__wrap_strerror_r, .-__wrap_strerror_r
 2122              		.section	.text.fdevopen,"ax",%progbits
 2123              		.align	1
 2124              		.global	fdevopen
 2125              		.syntax unified
 2126              		.thumb
 2127              		.thumb_func
 2128              		.fpu fpv4-sp-d16
 2129              		.type	fdevopen, %function
 2130              	fdevopen:
 2131              	.LFB346:
 2132              		.loc 1 1857 0
 2133              		.cfi_startproc
 2134              		@ args = 0, pretend = 0, frame = 0
 2135              		@ frame_needed = 0, uses_anonymous_args = 0
 2136              	.LVL223:
 2137 0000 38B5     		push	{r3, r4, r5, lr}
 2138              		.cfi_def_cfa_offset 16
 2139              		.cfi_offset 3, -16
 2140              		.cfi_offset 4, -12
 2141              		.cfi_offset 5, -8
 2142              		.cfi_offset 14, -4
 2143              		.loc 1 1857 0
 2144 0002 0D46     		mov	r5, r1
 2145              		.loc 1 1860 0
 2146 0004 0446     		mov	r4, r0
 2147 0006 10B9     		cbnz	r0, .L247
 2148              		.loc 1 1860 0 is_stmt 0 discriminator 1
 2149 0008 09B9     		cbnz	r1, .L247
 2150              	.LVL224:
 2151              	.L249:
 2152              		.loc 1 1861 0 is_stmt 1
 2153 000a 0020     		movs	r0, #0
 2154 000c 38BD     		pop	{r3, r4, r5, pc}
 2155              	.LVL225:
 2156              	.L247:
 2157              		.loc 1 1863 0
 2158 000e 1C21     		movs	r1, #28
 2159              	.LVL226:
 2160 0010 0120     		movs	r0, #1
 2161              	.LVL227:
 2162 0012 FFF7FEFF 		bl	calloc
 2163              	.LVL228:
 2164 0016 0028     		cmp	r0, #0
 2165 0018 F7D0     		beq	.L249
 2166              		.loc 1 1866 0
ARM GAS  /tmp/ccSNToGX.s 			page 39


 2167 001a 8023     		movs	r3, #128
 2168 001c 4371     		strb	r3, [r0, #5]
 2169              		.loc 1 1868 0
 2170 001e 35B1     		cbz	r5, .L251
 2171              		.loc 1 1870 0
 2172 0020 8123     		movs	r3, #129
 2173 0022 4371     		strb	r3, [r0, #5]
 2174              		.loc 1 1873 0
 2175 0024 094B     		ldr	r3, .L260
 2176              		.loc 1 1869 0
 2177 0026 4561     		str	r5, [r0, #20]
 2178              		.loc 1 1873 0
 2179 0028 1A68     		ldr	r2, [r3]
 2180 002a 02B9     		cbnz	r2, .L251
 2181              		.loc 1 1874 0
 2182 002c 1860     		str	r0, [r3]
 2183              	.L251:
 2184              		.loc 1 1877 0
 2185 002e 5CB1     		cbz	r4, .L246
 2186              		.loc 1 1879 0
 2187 0030 4379     		ldrb	r3, [r0, #5]	@ zero_extendqisi2
 2188              		.loc 1 1878 0
 2189 0032 0461     		str	r4, [r0, #16]
 2190              		.loc 1 1879 0
 2191 0034 43F00203 		orr	r3, r3, #2
 2192 0038 4371     		strb	r3, [r0, #5]
 2193              		.loc 1 1883 0
 2194 003a 044B     		ldr	r3, .L260
 2195 003c 5A68     		ldr	r2, [r3, #4]
 2196 003e 02B9     		cbnz	r2, .L253
 2197              		.loc 1 1884 0
 2198 0040 5860     		str	r0, [r3, #4]
 2199              	.L253:
 2200              		.loc 1 1885 0
 2201 0042 9A68     		ldr	r2, [r3, #8]
 2202 0044 02B9     		cbnz	r2, .L246
 2203              		.loc 1 1886 0
 2204 0046 9860     		str	r0, [r3, #8]
 2205              	.L246:
 2206              		.loc 1 1890 0
 2207 0048 38BD     		pop	{r3, r4, r5, pc}
 2208              	.LVL229:
 2209              	.L261:
 2210 004a 00BF     		.align	2
 2211              	.L260:
 2212 004c 00000000 		.word	.LANCHOR1
 2213              		.cfi_endproc
 2214              	.LFE346:
 2215              		.size	fdevopen, .-fdevopen
 2216              		.section	.text.fatfs_to_errno,"ax",%progbits
 2217              		.align	1
 2218              		.global	fatfs_to_errno
 2219              		.syntax unified
 2220              		.thumb
 2221              		.thumb_func
 2222              		.fpu fpv4-sp-d16
 2223              		.type	fatfs_to_errno, %function
ARM GAS  /tmp/ccSNToGX.s 			page 40


 2224              	fatfs_to_errno:
 2225              	.LFB349:
 2226              		.loc 1 2096 0
 2227              		.cfi_startproc
 2228              		@ args = 0, pretend = 0, frame = 0
 2229              		@ frame_needed = 0, uses_anonymous_args = 0
 2230              		@ link register save eliminated.
 2231              	.LVL230:
 2232 0000 1328     		cmp	r0, #19
 2233 0002 9ABF     		itte	ls
 2234 0004 014B     		ldrls	r3, .L265
 2235 0006 1856     		ldrsbls	r0, [r3, r0]
 2236              	.LVL231:
 2237              		.loc 1 2096 0
 2238 0008 4D20     		movhi	r0, #77
 2239              		.loc 1 2161 0
 2240 000a 7047     		bx	lr
 2241              	.L266:
 2242              		.align	2
 2243              	.L265:
 2244 000c 00000000 		.word	.LANCHOR0
 2245              		.cfi_endproc
 2246              	.LFE349:
 2247              		.size	fatfs_to_errno, .-fatfs_to_errno
 2248              		.section	.text.fatfs_to_fileno,"ax",%progbits
 2249              		.align	1
 2250              		.global	fatfs_to_fileno
 2251              		.syntax unified
 2252              		.thumb
 2253              		.thumb_func
 2254              		.fpu fpv4-sp-d16
 2255              		.type	fatfs_to_fileno, %function
 2256              	fatfs_to_fileno:
 2257              	.LFB350:
 2258              		.loc 1 2173 0
 2259              		.cfi_startproc
 2260              		@ args = 0, pretend = 0, frame = 0
 2261              		@ frame_needed = 0, uses_anonymous_args = 0
 2262              	.LVL232:
 2263 0000 08B5     		push	{r3, lr}
 2264              		.cfi_def_cfa_offset 8
 2265              		.cfi_offset 3, -8
 2266              		.cfi_offset 14, -4
 2267              		.loc 1 2178 0
 2268 0002 38B9     		cbnz	r0, .L268
 2269              	.L276:
 2270              		.loc 1 2193 0
 2271 0004 FFF7FEFF 		bl	__errno
 2272              	.LVL233:
 2273 0008 0923     		movs	r3, #9
 2274 000a 0360     		str	r3, [r0]
 2275              		.loc 1 2194 0
 2276 000c 4FF0FF33 		mov	r3, #-1
 2277              	.L267:
 2278              		.loc 1 2195 0
 2279 0010 1846     		mov	r0, r3
 2280 0012 08BD     		pop	{r3, pc}
ARM GAS  /tmp/ccSNToGX.s 			page 41


 2281              	.LVL234:
 2282              	.L268:
 2283              		.loc 1 2186 0
 2284 0014 0549     		ldr	r1, .L277
 2285 0016 0023     		movs	r3, #0
 2286              	.L271:
 2287              	.LVL235:
 2288 0018 51F82320 		ldr	r2, [r1, r3, lsl #2]
 2289              	.LVL236:
 2290              		.loc 1 2187 0
 2291 001c 12B1     		cbz	r2, .L270
 2292              		.loc 1 2189 0
 2293 001e 9269     		ldr	r2, [r2, #24]
 2294              	.LVL237:
 2295 0020 9042     		cmp	r0, r2
 2296 0022 F5D0     		beq	.L267
 2297              	.L270:
 2298              		.loc 1 2184 0 discriminator 2
 2299 0024 0133     		adds	r3, r3, #1
 2300              	.LVL238:
 2301 0026 102B     		cmp	r3, #16
 2302 0028 F6D1     		bne	.L271
 2303 002a EBE7     		b	.L276
 2304              	.L278:
 2305              		.align	2
 2306              	.L277:
 2307 002c 00000000 		.word	.LANCHOR1
 2308              		.cfi_endproc
 2309              	.LFE350:
 2310              		.size	fatfs_to_fileno, .-fatfs_to_fileno
 2311              		.section	.text.fat_time_to_unix,"ax",%progbits
 2312              		.align	1
 2313              		.global	fat_time_to_unix
 2314              		.syntax unified
 2315              		.thumb
 2316              		.thumb_func
 2317              		.fpu fpv4-sp-d16
 2318              		.type	fat_time_to_unix, %function
 2319              	fat_time_to_unix:
 2320              	.LFB352:
 2321              		.loc 1 2251 0
 2322              		.cfi_startproc
 2323              		@ args = 0, pretend = 0, frame = 48
 2324              		@ frame_needed = 0, uses_anonymous_args = 0
 2325              	.LVL239:
 2326 0000 2DE9F047 		push	{r4, r5, r6, r7, r8, r9, r10, lr}
 2327              		.cfi_def_cfa_offset 32
 2328              		.cfi_offset 4, -32
 2329              		.cfi_offset 5, -28
 2330              		.cfi_offset 6, -24
 2331              		.cfi_offset 7, -20
 2332              		.cfi_offset 8, -16
 2333              		.cfi_offset 9, -12
 2334              		.cfi_offset 10, -8
 2335              		.cfi_offset 14, -4
 2336              	.LBB115:
 2337              	.LBB116:
ARM GAS  /tmp/ccSNToGX.s 			page 42


 2338              		.loc 1 2204 0
 2339 0004 334D     		ldr	r5, .L285
 2340              	.LBE116:
 2341              	.LBE115:
 2342              		.loc 1 2262 0
 2343 0006 460A     		lsrs	r6, r0, #9
 2344              	.LVL240:
 2345              		.loc 1 2257 0
 2346 0008 4FEA410C 		lsl	ip, r1, #1
 2347              		.loc 1 2261 0
 2348 000c C0F34318 		ubfx	r8, r0, #5, #4
 2349 0010 C1F34519 		ubfx	r9, r1, #5, #6
 2350              		.loc 1 2259 0
 2351 0014 CF0A     		lsrs	r7, r1, #11
 2352              		.loc 1 2260 0
 2353 0016 00F01F0E 		and	lr, r0, #31
 2354              	.LBB121:
 2355              	.LBB117:
 2356              		.loc 1 2204 0
 2357 001a 0FCD     		ldmia	r5!, {r0, r1, r2, r3}
 2358              	.LVL241:
 2359              	.LBE117:
 2360              	.LBE121:
 2361              		.loc 1 2251 0
 2362 001c 8CB0     		sub	sp, sp, #48
 2363              		.cfi_def_cfa_offset 80
 2364              	.LBB122:
 2365              	.LBB118:
 2366              		.loc 1 2204 0
 2367 001e 6C46     		mov	r4, sp
 2368 0020 0FC4     		stmia	r4!, {r0, r1, r2, r3}
 2369 0022 0FCD     		ldmia	r5!, {r0, r1, r2, r3}
 2370 0024 0FC4     		stmia	r4!, {r0, r1, r2, r3}
 2371 0026 95E80F00 		ldm	r5, {r0, r1, r2, r3}
 2372 002a 84E80F00 		stm	r4, {r0, r1, r2, r3}
 2373              	.LVL242:
 2374              		.loc 1 2214 0
 2375 002e 06F2BB72 		addw	r2, r6, #1979
 2376              	.LVL243:
 2377              		.loc 1 2216 0
 2378 0032 6FF06303 		mvn	r3, #99
 2379 0036 92FBF3F3 		sdiv	r3, r2, r3
 2380 003a 03EBA203 		add	r3, r3, r2, asr #2
 2381 003e 6FF4EE70 		mvn	r0, #476
 2382 0042 4FF4C874 		mov	r4, #400
 2383 0046 92FBF4F2 		sdiv	r2, r2, r4
 2384              	.LVL244:
 2385 004a 1344     		add	r3, r3, r2
 2386              		.loc 1 2215 0
 2387 004c 224A     		ldr	r2, .L285+4
 2388              		.loc 1 2216 0
 2389 004e 0344     		add	r3, r3, r0
 2390              		.loc 1 2215 0
 2391 0050 06F10A01 		add	r1, r6, #10
 2392              		.loc 1 2216 0
 2393 0054 2148     		ldr	r0, .L285+8
 2394              		.loc 1 2215 0
ARM GAS  /tmp/ccSNToGX.s 			page 43


 2395 0056 4A43     		muls	r2, r1, r2
 2396              		.loc 1 2221 0
 2397 0058 0025     		movs	r5, #0
 2398              		.loc 1 2215 0
 2399 005a 00FB0323 		mla	r3, r0, r3, r2
 2400              	.LVL245:
 2401              	.LBE118:
 2402              	.LBE122:
 2403              		.loc 1 2257 0
 2404 005e 0CF03E0C 		and	ip, ip, #62
 2405              		.loc 1 2261 0
 2406 0062 08F1FF38 		add	r8, r8, #-1
 2407              	.LBB123:
 2408              	.LBB119:
 2409              		.loc 1 2218 0
 2410 0066 06F2BC76 		addw	r6, r6, #1980
 2411              	.LVL246:
 2412              		.loc 1 2219 0
 2413 006a 2A46     		mov	r2, r5
 2414              		.loc 1 2223 0
 2415 006c 4FF0640A 		mov	r10, #100
 2416              	.LVL247:
 2417              	.L280:
 2418              		.loc 1 2221 0
 2419 0070 A845     		cmp	r8, r5
 2420 0072 0FDC     		bgt	.L284
 2421              	.LVL248:
 2422              		.loc 1 2233 0
 2423 0074 3C22     		movs	r2, #60
 2424              		.loc 1 2232 0
 2425 0076 0EF1FF3E 		add	lr, lr, #-1
 2426              		.loc 1 2233 0
 2427 007a 02FB09F9 		mul	r9, r2, r9
 2428 007e 00FB0E90 		mla	r0, r0, lr, r9
 2429 0082 4FF46161 		mov	r1, #3600
 2430 0086 01FB0700 		mla	r0, r1, r7, r0
 2431 008a 6044     		add	r0, r0, ip
 2432              	.LBE119:
 2433              	.LBE123:
 2434              		.loc 1 2265 0
 2435 008c 1844     		add	r0, r0, r3
 2436 008e 0CB0     		add	sp, sp, #48
 2437              		.cfi_remember_state
 2438              		.cfi_def_cfa_offset 32
 2439              		@ sp needed
 2440 0090 BDE8F087 		pop	{r4, r5, r6, r7, r8, r9, r10, pc}
 2441              	.LVL249:
 2442              	.L284:
 2443              		.cfi_restore_state
 2444              	.LBB124:
 2445              	.LBB120:
 2446              		.loc 1 2222 0
 2447 0094 0CA9     		add	r1, sp, #48
 2448 0096 01EB8201 		add	r1, r1, r2, lsl #2
 2449              		.loc 1 2223 0
 2450 009a 012A     		cmp	r2, #1
 2451              		.loc 1 2222 0
ARM GAS  /tmp/ccSNToGX.s 			page 44


 2452 009c 51F8301C 		ldr	r1, [r1, #-48]
 2453 00a0 00FB0133 		mla	r3, r0, r1, r3
 2454              	.LVL250:
 2455              		.loc 1 2223 0
 2456 00a4 0FD1     		bne	.L281
 2457 00a6 B107     		lsls	r1, r6, #30
 2458 00a8 0DD1     		bne	.L281
 2459 00aa 96FBFAF1 		sdiv	r1, r6, r10
 2460 00ae 0AFB1161 		mls	r1, r10, r1, r6
 2461 00b2 21B9     		cbnz	r1, .L282
 2462 00b4 96FBF4F1 		sdiv	r1, r6, r4
 2463 00b8 04FB1161 		mls	r1, r4, r1, r6
 2464 00bc 19B9     		cbnz	r1, .L281
 2465              	.L282:
 2466              		.loc 1 2224 0
 2467 00be 03F5A833 		add	r3, r3, #86016
 2468              	.LVL251:
 2469 00c2 03F5C073 		add	r3, r3, #384
 2470              	.LVL252:
 2471              	.L281:
 2472              		.loc 1 2226 0
 2473 00c6 0132     		adds	r2, r2, #1
 2474              	.LVL253:
 2475 00c8 0B2A     		cmp	r2, #11
 2476              	.LVL254:
 2477              		.loc 1 2228 0
 2478 00ca C4BF     		itt	gt
 2479 00cc 0136     		addgt	r6, r6, #1
 2480              	.LVL255:
 2481              		.loc 1 2227 0
 2482 00ce 0022     		movgt	r2, #0
 2483              	.LVL256:
 2484              		.loc 1 2221 0
 2485 00d0 0135     		adds	r5, r5, #1
 2486              	.LVL257:
 2487 00d2 CDE7     		b	.L280
 2488              	.L286:
 2489              		.align	2
 2490              	.L285:
 2491 00d4 00000000 		.word	.LANCHOR5
 2492 00d8 8033E101 		.word	31536000
 2493 00dc 80510100 		.word	86400
 2494              	.LBE120:
 2495              	.LBE124:
 2496              		.cfi_endproc
 2497              	.LFE352:
 2498              		.size	fat_time_to_unix, .-fat_time_to_unix
 2499              		.section	.text.stat,"ax",%progbits
 2500              		.align	1
 2501              		.global	stat
 2502              		.syntax unified
 2503              		.thumb
 2504              		.thumb_func
 2505              		.fpu fpv4-sp-d16
 2506              		.type	stat, %function
 2507              	stat:
 2508              	.LFB324:
ARM GAS  /tmp/ccSNToGX.s 			page 45


 2509              		.loc 1 1272 0
 2510              		.cfi_startproc
 2511              		@ args = 0, pretend = 0, frame = 288
 2512              		@ frame_needed = 0, uses_anonymous_args = 0
 2513              	.LVL258:
 2514 0000 30B5     		push	{r4, r5, lr}
 2515              		.cfi_def_cfa_offset 12
 2516              		.cfi_offset 4, -12
 2517              		.cfi_offset 5, -8
 2518              		.cfi_offset 14, -4
 2519 0002 C9B0     		sub	sp, sp, #292
 2520              		.cfi_def_cfa_offset 304
 2521              		.loc 1 1272 0
 2522 0004 0546     		mov	r5, r0
 2523 0006 0C46     		mov	r4, r1
 2524              		.loc 1 1277 0
 2525 0008 FFF7FEFF 		bl	__errno
 2526              	.LVL259:
 2527 000c 0023     		movs	r3, #0
 2528 000e 0360     		str	r3, [r0]
 2529              		.loc 1 1280 0
 2530 0010 2449     		ldr	r1, .L301
 2531 0012 2846     		mov	r0, r5
 2532 0014 FFF7FEFF 		bl	strcmp
 2533              	.LVL260:
 2534 0018 20B1     		cbz	r0, .L288
 2535              		.loc 1 1280 0 is_stmt 0 discriminator 1
 2536 001a 2349     		ldr	r1, .L301+4
 2537 001c 2846     		mov	r0, r5
 2538 001e FFF7FEFF 		bl	strcmp
 2539              	.LVL261:
 2540 0022 58B9     		cbnz	r0, .L289
 2541              	.L288:
 2542              		.loc 1 1282 0 is_stmt 1
 2543 0024 0020     		movs	r0, #0
 2544              		.loc 1 1288 0
 2545 0026 4FF48043 		mov	r3, #16384
 2546              		.loc 1 1282 0
 2547 002a E061     		str	r0, [r4, #28]
 2548              		.loc 1 1283 0
 2549 002c 2062     		str	r0, [r4, #32]
 2550              		.loc 1 1284 0
 2551 002e 6062     		str	r0, [r4, #36]
 2552              		.loc 1 1285 0
 2553 0030 6081     		strh	r0, [r4, #10]	@ movhi
 2554              		.loc 1 1286 0
 2555 0032 A081     		strh	r0, [r4, #12]	@ movhi
 2556              		.loc 1 1287 0
 2557 0034 2061     		str	r0, [r4, #16]
 2558              		.loc 1 1288 0
 2559 0036 6360     		str	r3, [r4, #4]
 2560              	.LVL262:
 2561              	.L287:
 2562              		.loc 1 1327 0
 2563 0038 49B0     		add	sp, sp, #292
 2564              		.cfi_remember_state
 2565              		.cfi_def_cfa_offset 12
ARM GAS  /tmp/ccSNToGX.s 			page 46


 2566              		@ sp needed
 2567 003a 30BD     		pop	{r4, r5, pc}
 2568              	.LVL263:
 2569              	.L289:
 2570              		.cfi_restore_state
 2571              		.loc 1 1292 0
 2572 003c 2846     		mov	r0, r5
 2573 003e 6946     		mov	r1, sp
 2574 0040 FFF7FEFF 		bl	f_stat
 2575              	.LVL264:
 2576              		.loc 1 1293 0
 2577 0044 0546     		mov	r5, r0
 2578              	.LVL265:
 2579 0046 50B1     		cbz	r0, .L291
 2580              		.loc 1 1295 0
 2581 0048 FFF7FEFF 		bl	__errno
 2582              	.LVL266:
 2583 004c 132D     		cmp	r5, #19
 2584 004e 96BF     		itet	ls
 2585 0050 164B     		ldrls	r3, .L301+8
 2586 0052 4D23     		movhi	r3, #77
 2587              	.LVL267:
 2588 0054 5B57     		ldrsbls	r3, [r3, r5]
 2589 0056 0360     		str	r3, [r0]
 2590              		.loc 1 1296 0
 2591 0058 4FF0FF30 		mov	r0, #-1
 2592 005c ECE7     		b	.L287
 2593              	.LVL268:
 2594              	.L291:
 2595              		.loc 1 1299 0
 2596 005e 009B     		ldr	r3, [sp]
 2597 0060 2361     		str	r3, [r4, #16]
 2598              		.loc 1 1300 0
 2599 0062 BDF80A10 		ldrh	r1, [sp, #10]
 2600 0066 BDF80800 		ldrh	r0, [sp, #8]
 2601              	.LVL269:
 2602 006a FFF7FEFF 		bl	fat_time_to_unix
 2603              	.LVL270:
 2604              		.loc 1 1307 0
 2605 006e 9DF80C20 		ldrb	r2, [sp, #12]	@ zero_extendqisi2
 2606              		.loc 1 1301 0
 2607 0072 E061     		str	r0, [r4, #28]
 2608              		.loc 1 1308 0
 2609 0074 12F0010F 		tst	r2, #1
 2610 0078 40F2FF11 		movw	r1, #511
 2611 007c 40F26D13 		movw	r3, #365
 2612 0080 08BF     		it	eq
 2613 0082 0B46     		moveq	r3, r1
 2614              		.loc 1 1320 0
 2615 0084 D206     		lsls	r2, r2, #27
 2616              		.loc 1 1316 0
 2617 0086 4FF47A71 		mov	r1, #1000
 2618              		.loc 1 1321 0
 2619 008a 4CBF     		ite	mi
 2620 008c 43F48043 		orrmi	r3, r3, #16384
 2621              		.loc 1 1323 0
 2622 0090 43F40043 		orrpl	r3, r3, #32768
ARM GAS  /tmp/ccSNToGX.s 			page 47


 2623              		.loc 1 1302 0
 2624 0094 2062     		str	r0, [r4, #32]
 2625              		.loc 1 1303 0
 2626 0096 6062     		str	r0, [r4, #36]
 2627              	.LVL271:
 2628              		.loc 1 1316 0
 2629 0098 6181     		strh	r1, [r4, #10]	@ movhi
 2630              		.loc 1 1317 0
 2631 009a A181     		strh	r1, [r4, #12]	@ movhi
 2632              		.loc 1 1324 0
 2633 009c 6360     		str	r3, [r4, #4]
 2634              		.loc 1 1326 0
 2635 009e 0020     		movs	r0, #0
 2636              	.LVL272:
 2637 00a0 CAE7     		b	.L287
 2638              	.L302:
 2639 00a2 00BF     		.align	2
 2640              	.L301:
 2641 00a4 00000000 		.word	.LC1
 2642 00a8 00000000 		.word	.LC3
 2643 00ac 00000000 		.word	.LANCHOR0
 2644              		.cfi_endproc
 2645              	.LFE324:
 2646              		.size	stat, .-stat
 2647              		.section	.text.unix_time_to_fat,"ax",%progbits
 2648              		.align	1
 2649              		.global	unix_time_to_fat
 2650              		.syntax unified
 2651              		.thumb
 2652              		.thumb_func
 2653              		.fpu fpv4-sp-d16
 2654              		.type	unix_time_to_fat, %function
 2655              	unix_time_to_fat:
 2656              	.LFB353:
 2657              		.loc 1 2276 0
 2658              		.cfi_startproc
 2659              		@ args = 0, pretend = 0, frame = 8
 2660              		@ frame_needed = 0, uses_anonymous_args = 0
 2661              	.LVL273:
 2662 0000 73B5     		push	{r0, r1, r4, r5, r6, lr}
 2663              		.cfi_def_cfa_offset 24
 2664              		.cfi_offset 4, -16
 2665              		.cfi_offset 5, -12
 2666              		.cfi_offset 6, -8
 2667              		.cfi_offset 14, -4
 2668              		.loc 1 2276 0
 2669 0002 02AB     		add	r3, sp, #8
 2670 0004 0E46     		mov	r6, r1
 2671 0006 43F8040D 		str	r0, [r3, #-4]!
 2672              		.loc 1 2277 0
 2673 000a 1846     		mov	r0, r3
 2674              	.LVL274:
 2675              		.loc 1 2276 0
 2676 000c 1546     		mov	r5, r2
 2677              		.loc 1 2277 0
 2678 000e FFF7FEFF 		bl	gmtime
 2679              	.LVL275:
ARM GAS  /tmp/ccSNToGX.s 			page 48


 2680              		.loc 1 2281 0
 2681 0012 038A     		ldrh	r3, [r0, #16]
 2682              		.loc 1 2280 0
 2683 0014 4469     		ldr	r4, [r0, #20]
 2684              		.loc 1 2285 0
 2685 0016 4168     		ldr	r1, [r0, #4]
 2686              		.loc 1 2281 0
 2687 0018 5A1C     		adds	r2, r3, #1
 2688              		.loc 1 2282 0
 2689 001a C368     		ldr	r3, [r0, #12]
 2690              		.loc 1 2280 0
 2691 001c 503C     		subs	r4, r4, #80
 2692              		.loc 1 2282 0
 2693 001e 43EA4213 		orr	r3, r3, r2, lsl #5
 2694              		.loc 1 2280 0
 2695 0022 A4B2     		uxth	r4, r4
 2696              		.loc 1 2282 0
 2697 0024 43EA4423 		orr	r3, r3, r4, lsl #9
 2698              		.loc 1 2284 0
 2699 0028 8268     		ldr	r2, [r0, #8]
 2700              		.loc 1 2280 0
 2701 002a 3380     		strh	r3, [r6]	@ movhi
 2702              		.loc 1 2284 0
 2703 002c 064B     		ldr	r3, .L304
 2704 002e 03EAC223 		and	r3, r3, r2, lsl #11
 2705              		.loc 1 2285 0
 2706 0032 064A     		ldr	r2, .L304+4
 2707 0034 02EA4112 		and	r2, r2, r1, lsl #5
 2708 0038 1343     		orrs	r3, r3, r2
 2709              		.loc 1 2286 0
 2710 003a 0288     		ldrh	r2, [r0]
 2711 003c 43EA5203 		orr	r3, r3, r2, lsr #1
 2712              		.loc 1 2284 0
 2713 0040 2B80     		strh	r3, [r5]	@ movhi
 2714              		.loc 1 2287 0
 2715 0042 02B0     		add	sp, sp, #8
 2716              		.cfi_def_cfa_offset 16
 2717              		@ sp needed
 2718 0044 70BD     		pop	{r4, r5, r6, pc}
 2719              	.LVL276:
 2720              	.L305:
 2721 0046 00BF     		.align	2
 2722              	.L304:
 2723 0048 00F8FF07 		.word	134215680
 2724 004c E0FF1F00 		.word	2097120
 2725              		.cfi_endproc
 2726              	.LFE353:
 2727              		.size	unix_time_to_fat, .-unix_time_to_fat
 2728              		.section	.text.utime,"ax",%progbits
 2729              		.align	1
 2730              		.global	utime
 2731              		.syntax unified
 2732              		.thumb
 2733              		.thumb_func
 2734              		.fpu fpv4-sp-d16
 2735              		.type	utime, %function
 2736              	utime:
ARM GAS  /tmp/ccSNToGX.s 			page 49


 2737              	.LFB325:
 2738              		.loc 1 1335 0
 2739              		.cfi_startproc
 2740              		@ args = 0, pretend = 0, frame = 296
 2741              		@ frame_needed = 0, uses_anonymous_args = 0
 2742              	.LVL277:
 2743 0000 10B5     		push	{r4, lr}
 2744              		.cfi_def_cfa_offset 8
 2745              		.cfi_offset 4, -8
 2746              		.cfi_offset 14, -4
 2747 0002 0446     		mov	r4, r0
 2748 0004 CAB0     		sub	sp, sp, #296
 2749              		.cfi_def_cfa_offset 304
 2750              		.loc 1 1342 0
 2751 0006 C1B1     		cbz	r1, .L309
 2752              		.loc 1 1343 0
 2753 0008 4868     		ldr	r0, [r1, #4]
 2754              	.LVL278:
 2755              	.L307:
 2756              		.loc 1 1346 0
 2757 000a 0DF10602 		add	r2, sp, #6
 2758 000e 01A9     		add	r1, sp, #4
 2759              	.LVL279:
 2760 0010 FFF7FEFF 		bl	unix_time_to_fat
 2761              	.LVL280:
 2762              		.loc 1 1349 0
 2763 0014 BDF80430 		ldrh	r3, [sp, #4]
 2764 0018 ADF81030 		strh	r3, [sp, #16]	@ movhi
 2765              		.loc 1 1352 0
 2766 001c 02A9     		add	r1, sp, #8
 2767              		.loc 1 1350 0
 2768 001e BDF80630 		ldrh	r3, [sp, #6]
 2769 0022 ADF81230 		strh	r3, [sp, #18]	@ movhi
 2770              		.loc 1 1352 0
 2771 0026 2046     		mov	r0, r4
 2772 0028 FFF7FEFF 		bl	f_utime
 2773              	.LVL281:
 2774 002c 1328     		cmp	r0, #19
 2775 002e 9ABF     		itte	ls
 2776 0030 034B     		ldrls	r3, .L311
 2777 0032 1856     		ldrsbls	r0, [r3, r0]
 2778              	.LVL282:
 2779 0034 4D20     		movhi	r0, #77
 2780              		.loc 1 1355 0
 2781 0036 4AB0     		add	sp, sp, #296
 2782              		.cfi_remember_state
 2783              		.cfi_def_cfa_offset 8
 2784              		@ sp needed
 2785 0038 10BD     		pop	{r4, pc}
 2786              	.LVL283:
 2787              	.L309:
 2788              		.cfi_restore_state
 2789              		.loc 1 1339 0
 2790 003a 0846     		mov	r0, r1
 2791              	.LVL284:
 2792 003c E5E7     		b	.L307
 2793              	.L312:
ARM GAS  /tmp/ccSNToGX.s 			page 50


 2794 003e 00BF     		.align	2
 2795              	.L311:
 2796 0040 00000000 		.word	.LANCHOR0
 2797              		.cfi_endproc
 2798              	.LFE325:
 2799              		.size	utime, .-utime
 2800              		.section	.text.fileno_to_fatfs,"ax",%progbits
 2801              		.align	1
 2802              		.global	fileno_to_fatfs
 2803              		.syntax unified
 2804              		.thumb
 2805              		.thumb_func
 2806              		.fpu fpv4-sp-d16
 2807              		.type	fileno_to_fatfs, %function
 2808              	fileno_to_fatfs:
 2809              	.LFB354:
 2810              		.loc 1 2300 0
 2811              		.cfi_startproc
 2812              		@ args = 0, pretend = 0, frame = 0
 2813              		@ frame_needed = 0, uses_anonymous_args = 0
 2814              	.LVL285:
 2815              	.LBB131:
 2816              	.LBB132:
 2817              		.loc 1 140 0
 2818 0000 0228     		cmp	r0, #2
 2819              	.LBE132:
 2820              	.LBE131:
 2821              		.loc 1 2300 0
 2822 0002 10B5     		push	{r4, lr}
 2823              		.cfi_def_cfa_offset 8
 2824              		.cfi_offset 4, -8
 2825              		.cfi_offset 14, -4
 2826              	.LBB134:
 2827              	.LBB133:
 2828              		.loc 1 140 0
 2829 0004 0AD9     		bls	.L314
 2830              	.LVL286:
 2831              	.LBE133:
 2832              	.LBE134:
 2833              		.loc 1 2311 0
 2834 0006 FFF7FEFF 		bl	fileno_to_stream
 2835              	.LVL287:
 2836              		.loc 1 2312 0
 2837 000a 58B1     		cbz	r0, .L321
 2838              		.loc 1 2315 0
 2839 000c 8469     		ldr	r4, [r0, #24]
 2840              	.LVL288:
 2841              		.loc 1 2316 0
 2842 000e 1CB9     		cbnz	r4, .L313
 2843              	.LVL289:
 2844              	.LBB135:
 2845              	.LBB136:
 2846              		.loc 1 2318 0
 2847 0010 FFF7FEFF 		bl	__errno
 2848              	.LVL290:
 2849 0014 0923     		movs	r3, #9
 2850 0016 0360     		str	r3, [r0]
ARM GAS  /tmp/ccSNToGX.s 			page 51


 2851              	.LVL291:
 2852              	.L313:
 2853              	.LBE136:
 2854              	.LBE135:
 2855              		.loc 1 2322 0
 2856 0018 2046     		mov	r0, r4
 2857 001a 10BD     		pop	{r4, pc}
 2858              	.LVL292:
 2859              	.L314:
 2860              		.loc 1 2306 0
 2861 001c FFF7FEFF 		bl	__errno
 2862              	.LVL293:
 2863 0020 0923     		movs	r3, #9
 2864 0022 0360     		str	r3, [r0]
 2865              	.L321:
 2866              		.loc 1 2307 0
 2867 0024 0024     		movs	r4, #0
 2868 0026 F7E7     		b	.L313
 2869              		.cfi_endproc
 2870              	.LFE354:
 2871              		.size	fileno_to_fatfs, .-fileno_to_fatfs
 2872              		.section	.text.ftell,"ax",%progbits
 2873              		.align	1
 2874              		.global	ftell
 2875              		.syntax unified
 2876              		.thumb
 2877              		.thumb_func
 2878              		.fpu fpv4-sp-d16
 2879              		.type	ftell, %function
 2880              	ftell:
 2881              	.LFB306:
 2882              		.loc 1 533 0
 2883              		.cfi_startproc
 2884              		@ args = 0, pretend = 0, frame = 0
 2885              		@ frame_needed = 0, uses_anonymous_args = 0
 2886              	.LVL294:
 2887 0000 10B5     		push	{r4, lr}
 2888              		.cfi_def_cfa_offset 8
 2889              		.cfi_offset 4, -8
 2890              		.cfi_offset 14, -4
 2891              		.loc 1 533 0
 2892 0002 0446     		mov	r4, r0
 2893              		.loc 1 534 0
 2894 0004 FFF7FEFF 		bl	__errno
 2895              	.LVL295:
 2896 0008 0023     		movs	r3, #0
 2897 000a 0360     		str	r3, [r0]
 2898              		.loc 1 536 0
 2899 000c 2046     		mov	r0, r4
 2900 000e FFF7FEFF 		bl	fileno
 2901              	.LVL296:
 2902              	.LBB143:
 2903              	.LBB144:
 2904              		.loc 1 140 0
 2905 0012 0228     		cmp	r0, #2
 2906 0014 06D9     		bls	.L327
 2907              	.LVL297:
ARM GAS  /tmp/ccSNToGX.s 			page 52


 2908              	.LBE144:
 2909              	.LBE143:
 2910              		.loc 1 540 0
 2911 0016 FFF7FEFF 		bl	fileno_to_fatfs
 2912              	.LVL298:
 2913              		.loc 1 541 0
 2914 001a 30B9     		cbnz	r0, .L329
 2915              	.LVL299:
 2916              	.LBB145:
 2917              	.LBB146:
 2918              		.loc 1 543 0
 2919 001c FFF7FEFF 		bl	__errno
 2920              	.LVL300:
 2921 0020 0923     		movs	r3, #9
 2922 0022 0360     		str	r3, [r0]
 2923              	.LVL301:
 2924              	.L327:
 2925              	.LBE146:
 2926              	.LBE145:
 2927              		.loc 1 538 0
 2928 0024 4FF0FF30 		mov	r0, #-1
 2929 0028 10BD     		pop	{r4, pc}
 2930              	.LVL302:
 2931              	.L329:
 2932              		.loc 1 547 0
 2933 002a 806B     		ldr	r0, [r0, #56]
 2934              	.LVL303:
 2935 002c 10BD     		pop	{r4, pc}
 2936              		.cfi_endproc
 2937              	.LFE306:
 2938              		.size	ftell, .-ftell
 2939              		.section	.text.fgetpos,"ax",%progbits
 2940              		.align	1
 2941              		.global	fgetpos
 2942              		.syntax unified
 2943              		.thumb
 2944              		.thumb_func
 2945              		.fpu fpv4-sp-d16
 2946              		.type	fgetpos, %function
 2947              	fgetpos:
 2948              	.LFB303:
 2949              		.loc 1 470 0
 2950              		.cfi_startproc
 2951              		@ args = 0, pretend = 0, frame = 0
 2952              		@ frame_needed = 0, uses_anonymous_args = 0
 2953              	.LVL304:
 2954 0000 10B5     		push	{r4, lr}
 2955              		.cfi_def_cfa_offset 8
 2956              		.cfi_offset 4, -8
 2957              		.cfi_offset 14, -4
 2958              		.loc 1 470 0
 2959 0002 0C46     		mov	r4, r1
 2960              		.loc 1 471 0
 2961 0004 FFF7FEFF 		bl	ftell
 2962              	.LVL305:
 2963              		.loc 1 472 0
 2964 0008 2060     		str	r0, [r4]
ARM GAS  /tmp/ccSNToGX.s 			page 53


 2965              		.loc 1 476 0
 2966 000a 0130     		adds	r0, r0, #1
 2967              	.LVL306:
 2968 000c 4FF0FF30 		mov	r0, #-1
 2969 0010 18BF     		it	ne
 2970 0012 0020     		movne	r0, #0
 2971 0014 10BD     		pop	{r4, pc}
 2972              		.cfi_endproc
 2973              	.LFE303:
 2974              		.size	fgetpos, .-fgetpos
 2975              		.section	.text.lseek,"ax",%progbits
 2976              		.align	1
 2977              		.global	lseek
 2978              		.syntax unified
 2979              		.thumb
 2980              		.thumb_func
 2981              		.fpu fpv4-sp-d16
 2982              		.type	lseek, %function
 2983              	lseek:
 2984              	.LFB307:
 2985              		.loc 1 565 0
 2986              		.cfi_startproc
 2987              		@ args = 0, pretend = 0, frame = 0
 2988              		@ frame_needed = 0, uses_anonymous_args = 0
 2989              	.LVL307:
 2990 0000 F8B5     		push	{r3, r4, r5, r6, r7, lr}
 2991              		.cfi_def_cfa_offset 24
 2992              		.cfi_offset 3, -24
 2993              		.cfi_offset 4, -20
 2994              		.cfi_offset 5, -16
 2995              		.cfi_offset 6, -12
 2996              		.cfi_offset 7, -8
 2997              		.cfi_offset 14, -4
 2998              		.loc 1 565 0
 2999 0002 0646     		mov	r6, r0
 3000 0004 0D46     		mov	r5, r1
 3001 0006 1746     		mov	r7, r2
 3002              		.loc 1 568 0
 3003 0008 FFF7FEFF 		bl	__errno
 3004              	.LVL308:
 3005 000c 0023     		movs	r3, #0
 3006 000e 0360     		str	r3, [r0]
 3007              		.loc 1 573 0
 3008 0010 3046     		mov	r0, r6
 3009 0012 FFF7FEFF 		bl	fileno_to_fatfs
 3010              	.LVL309:
 3011              		.loc 1 574 0
 3012 0016 0446     		mov	r4, r0
 3013 0018 30B9     		cbnz	r0, .L332
 3014              		.loc 1 576 0
 3015 001a FFF7FEFF 		bl	__errno
 3016              	.LVL310:
 3017 001e 1823     		movs	r3, #24
 3018              	.LVL311:
 3019              	.L337:
 3020              		.loc 1 594 0
 3021 0020 0360     		str	r3, [r0]
ARM GAS  /tmp/ccSNToGX.s 			page 54


 3022              	.L340:
 3023              		.loc 1 580 0
 3024 0022 4FF0FF30 		mov	r0, #-1
 3025 0026 F8BD     		pop	{r3, r4, r5, r6, r7, pc}
 3026              	.LVL312:
 3027              	.L332:
 3028              	.LBB147:
 3029              	.LBB148:
 3030              		.loc 1 140 0
 3031 0028 022E     		cmp	r6, #2
 3032 002a FAD9     		bls	.L340
 3033              	.LVL313:
 3034              	.LBE148:
 3035              	.LBE147:
 3036              		.loc 1 583 0
 3037 002c 3046     		mov	r0, r6
 3038              	.LVL314:
 3039 002e FFF7FEFF 		bl	fileno_to_stream
 3040              	.LVL315:
 3041              		.loc 1 584 0
 3042 0032 4379     		ldrb	r3, [r0, #5]	@ zero_extendqisi2
 3043              		.loc 1 586 0
 3044 0034 022F     		cmp	r7, #2
 3045              		.loc 1 584 0
 3046 0036 43F04003 		orr	r3, r3, #64
 3047 003a 4371     		strb	r3, [r0, #5]
 3048              		.loc 1 586 0
 3049 003c 10D1     		bne	.L343
 3050              		.loc 1 587 0
 3051 003e 2369     		ldr	r3, [r4, #16]
 3052              	.L344:
 3053              		.loc 1 589 0
 3054 0040 1D44     		add	r5, r5, r3
 3055              	.LVL316:
 3056              	.L335:
 3057              		.loc 1 591 0
 3058 0042 2A46     		mov	r2, r5
 3059 0044 EB17     		asrs	r3, r5, #31
 3060 0046 2046     		mov	r0, r4
 3061              	.LVL317:
 3062 0048 FFF7FEFF 		bl	f_lseek
 3063              	.LVL318:
 3064              		.loc 1 592 0
 3065 004c 0546     		mov	r5, r0
 3066              	.LVL319:
 3067 004e 58B1     		cbz	r0, .L336
 3068              		.loc 1 594 0
 3069 0050 FFF7FEFF 		bl	__errno
 3070              	.LVL320:
 3071 0054 132D     		cmp	r5, #19
 3072 0056 96BF     		itet	ls
 3073 0058 044B     		ldrls	r3, .L345
 3074 005a 4D23     		movhi	r3, #77
 3075 005c 5B57     		ldrsbls	r3, [r3, r5]
 3076 005e DFE7     		b	.L337
 3077              	.LVL321:
 3078              	.L343:
ARM GAS  /tmp/ccSNToGX.s 			page 55


 3079              		.loc 1 588 0
 3080 0060 012F     		cmp	r7, #1
 3081 0062 EED1     		bne	.L335
 3082              		.loc 1 589 0
 3083 0064 A36B     		ldr	r3, [r4, #56]
 3084 0066 EBE7     		b	.L344
 3085              	.LVL322:
 3086              	.L336:
 3087              		.loc 1 597 0
 3088 0068 A06B     		ldr	r0, [r4, #56]
 3089              	.LVL323:
 3090 006a F8BD     		pop	{r3, r4, r5, r6, r7, pc}
 3091              	.LVL324:
 3092              	.L346:
 3093              		.align	2
 3094              	.L345:
 3095 006c 00000000 		.word	.LANCHOR0
 3096              		.cfi_endproc
 3097              	.LFE307:
 3098              		.size	lseek, .-lseek
 3099              		.section	.text.fseek,"ax",%progbits
 3100              		.align	1
 3101              		.global	fseek
 3102              		.syntax unified
 3103              		.thumb
 3104              		.thumb_func
 3105              		.fpu fpv4-sp-d16
 3106              		.type	fseek, %function
 3107              	fseek:
 3108              	.LFB304:
 3109              		.loc 1 493 0
 3110              		.cfi_startproc
 3111              		@ args = 0, pretend = 0, frame = 0
 3112              		@ frame_needed = 0, uses_anonymous_args = 0
 3113              	.LVL325:
 3114 0000 38B5     		push	{r3, r4, r5, lr}
 3115              		.cfi_def_cfa_offset 16
 3116              		.cfi_offset 3, -16
 3117              		.cfi_offset 4, -12
 3118              		.cfi_offset 5, -8
 3119              		.cfi_offset 14, -4
 3120              		.loc 1 493 0
 3121 0002 0C46     		mov	r4, r1
 3122 0004 1546     		mov	r5, r2
 3123              		.loc 1 496 0
 3124 0006 FFF7FEFF 		bl	fileno
 3125              	.LVL326:
 3126              		.loc 1 497 0
 3127 000a 0028     		cmp	r0, #0
 3128 000c 09DB     		blt	.L349
 3129              		.loc 1 500 0
 3130 000e 2A46     		mov	r2, r5
 3131 0010 2146     		mov	r1, r4
 3132 0012 FFF7FEFF 		bl	lseek
 3133              	.LVL327:
 3134              		.loc 1 502 0
 3135 0016 0130     		adds	r0, r0, #1
ARM GAS  /tmp/ccSNToGX.s 			page 56


 3136              	.LVL328:
 3137 0018 4FF0FF30 		mov	r0, #-1
 3138              	.LVL329:
 3139 001c 18BF     		it	ne
 3140 001e 0020     		movne	r0, #0
 3141 0020 38BD     		pop	{r3, r4, r5, pc}
 3142              	.LVL330:
 3143              	.L349:
 3144              		.loc 1 498 0
 3145 0022 4FF0FF30 		mov	r0, #-1
 3146              	.LVL331:
 3147              		.loc 1 506 0
 3148 0026 38BD     		pop	{r3, r4, r5, pc}
 3149              		.cfi_endproc
 3150              	.LFE304:
 3151              		.size	fseek, .-fseek
 3152              		.section	.text.fsetpos,"ax",%progbits
 3153              		.align	1
 3154              		.global	fsetpos
 3155              		.syntax unified
 3156              		.thumb
 3157              		.thumb_func
 3158              		.fpu fpv4-sp-d16
 3159              		.type	fsetpos, %function
 3160              	fsetpos:
 3161              	.LFB305:
 3162              		.loc 1 519 0
 3163              		.cfi_startproc
 3164              		@ args = 0, pretend = 0, frame = 0
 3165              		@ frame_needed = 0, uses_anonymous_args = 0
 3166              		@ link register save eliminated.
 3167              	.LVL332:
 3168              		.loc 1 520 0
 3169 0000 0022     		movs	r2, #0
 3170 0002 0968     		ldr	r1, [r1]
 3171              	.LVL333:
 3172 0004 FFF7FEBF 		b	fseek
 3173              	.LVL334:
 3174              		.cfi_endproc
 3175              	.LFE305:
 3176              		.size	fsetpos, .-fsetpos
 3177              		.section	.text.rewind,"ax",%progbits
 3178              		.align	1
 3179              		.global	rewind
 3180              		.syntax unified
 3181              		.thumb
 3182              		.thumb_func
 3183              		.fpu fpv4-sp-d16
 3184              		.type	rewind, %function
 3185              	rewind:
 3186              	.LFB308:
 3187              		.loc 1 609 0
 3188              		.cfi_startproc
 3189              		@ args = 0, pretend = 0, frame = 0
 3190              		@ frame_needed = 0, uses_anonymous_args = 0
 3191              		@ link register save eliminated.
 3192              	.LVL335:
ARM GAS  /tmp/ccSNToGX.s 			page 57


 3193              		.loc 1 610 0
 3194 0000 0022     		movs	r2, #0
 3195 0002 1146     		mov	r1, r2
 3196 0004 FFF7FEBF 		b	fseek
 3197              	.LVL336:
 3198              		.cfi_endproc
 3199              	.LFE308:
 3200              		.size	rewind, .-rewind
 3201              		.section	.text.ftruncate,"ax",%progbits
 3202              		.align	1
 3203              		.global	ftruncate
 3204              		.syntax unified
 3205              		.thumb
 3206              		.thumb_func
 3207              		.fpu fpv4-sp-d16
 3208              		.type	ftruncate, %function
 3209              	ftruncate:
 3210              	.LFB314:
 3211              		.loc 1 770 0
 3212              		.cfi_startproc
 3213              		@ args = 0, pretend = 0, frame = 0
 3214              		@ frame_needed = 0, uses_anonymous_args = 0
 3215              	.LVL337:
 3216 0000 70B5     		push	{r4, r5, r6, lr}
 3217              		.cfi_def_cfa_offset 16
 3218              		.cfi_offset 4, -16
 3219              		.cfi_offset 5, -12
 3220              		.cfi_offset 6, -8
 3221              		.cfi_offset 14, -4
 3222              		.loc 1 770 0
 3223 0002 0446     		mov	r4, r0
 3224 0004 0E46     		mov	r6, r1
 3225              		.loc 1 771 0
 3226 0006 FFF7FEFF 		bl	__errno
 3227              	.LVL338:
 3228 000a 0023     		movs	r3, #0
 3229              	.LBB149:
 3230              	.LBB150:
 3231              		.loc 1 140 0
 3232 000c 022C     		cmp	r4, #2
 3233              	.LBE150:
 3234              	.LBE149:
 3235              		.loc 1 771 0
 3236 000e 0360     		str	r3, [r0]
 3237              	.LVL339:
 3238              	.LBB152:
 3239              	.LBB151:
 3240              		.loc 1 140 0
 3241 0010 08D8     		bhi	.L353
 3242              	.LVL340:
 3243              	.L367:
 3244              	.LBE151:
 3245              	.LBE152:
 3246              		.loc 1 793 0
 3247 0012 4FF0FF30 		mov	r0, #-1
 3248 0016 70BD     		pop	{r4, r5, r6, pc}
 3249              	.LVL341:
ARM GAS  /tmp/ccSNToGX.s 			page 58


 3250              	.L355:
 3251              		.loc 1 789 0
 3252 0018 2846     		mov	r0, r5
 3253              	.LVL342:
 3254 001a FFF7FEFF 		bl	f_truncate
 3255              	.LVL343:
 3256              		.loc 1 790 0
 3257 001e 0446     		mov	r4, r0
 3258 0020 68B9     		cbnz	r0, .L370
 3259 0022 70BD     		pop	{r4, r5, r6, pc}
 3260              	.LVL344:
 3261              	.L353:
 3262              		.loc 1 778 0
 3263 0024 2046     		mov	r0, r4
 3264 0026 FFF7FEFF 		bl	fileno_to_fatfs
 3265              	.LVL345:
 3266              		.loc 1 779 0
 3267 002a 0546     		mov	r5, r0
 3268 002c 0028     		cmp	r0, #0
 3269 002e F0D0     		beq	.L367
 3270              		.loc 1 783 0
 3271 0030 3246     		mov	r2, r6
 3272 0032 F317     		asrs	r3, r6, #31
 3273 0034 FFF7FEFF 		bl	f_lseek
 3274              	.LVL346:
 3275              		.loc 1 784 0
 3276 0038 0446     		mov	r4, r0
 3277              	.LVL347:
 3278 003a 0028     		cmp	r0, #0
 3279 003c ECD0     		beq	.L355
 3280              	.L370:
 3281              		.loc 1 792 0
 3282 003e FFF7FEFF 		bl	__errno
 3283              	.LVL348:
 3284 0042 132C     		cmp	r4, #19
 3285 0044 96BF     		itet	ls
 3286 0046 024B     		ldrls	r3, .L371
 3287 0048 4D23     		movhi	r3, #77
 3288              	.LVL349:
 3289 004a 1B57     		ldrsbls	r3, [r3, r4]
 3290 004c 0360     		str	r3, [r0]
 3291 004e E0E7     		b	.L367
 3292              	.L372:
 3293              		.align	2
 3294              	.L371:
 3295 0050 00000000 		.word	.LANCHOR0
 3296              		.cfi_endproc
 3297              	.LFE314:
 3298              		.size	ftruncate, .-ftruncate
 3299              		.section	.text.read,"ax",%progbits
 3300              		.align	1
 3301              		.global	read
 3302              		.syntax unified
 3303              		.thumb
 3304              		.thumb_func
 3305              		.fpu fpv4-sp-d16
 3306              		.type	read, %function
ARM GAS  /tmp/ccSNToGX.s 			page 59


 3307              	read:
 3308              	.LFB317:
 3309              		.loc 1 948 0
 3310              		.cfi_startproc
 3311              		@ args = 0, pretend = 0, frame = 8
 3312              		@ frame_needed = 0, uses_anonymous_args = 0
 3313              	.LVL350:
 3314 0000 2DE9F341 		push	{r0, r1, r4, r5, r6, r7, r8, lr}
 3315              		.cfi_def_cfa_offset 32
 3316              		.cfi_offset 4, -24
 3317              		.cfi_offset 5, -20
 3318              		.cfi_offset 6, -16
 3319              		.cfi_offset 7, -12
 3320              		.cfi_offset 8, -8
 3321              		.cfi_offset 14, -4
 3322              		.loc 1 957 0
 3323 0004 0027     		movs	r7, #0
 3324 0006 0F70     		strb	r7, [r1]
 3325              		.loc 1 948 0
 3326 0008 1646     		mov	r6, r2
 3327 000a 8046     		mov	r8, r0
 3328 000c 0C46     		mov	r4, r1
 3329              	.LVL351:
 3330              		.loc 1 959 0
 3331 000e FFF7FEFF 		bl	__errno
 3332              	.LVL352:
 3333 0012 0760     		str	r7, [r0]
 3334              		.loc 1 963 0
 3335 0014 4046     		mov	r0, r8
 3336 0016 FFF7FEFF 		bl	fileno_to_stream
 3337              	.LVL353:
 3338              		.loc 1 964 0
 3339 001a 1E4B     		ldr	r3, .L386
 3340 001c 1A68     		ldr	r2, [r3]
 3341 001e 9042     		cmp	r0, r2
 3342              		.loc 1 963 0
 3343 0020 0546     		mov	r5, r0
 3344              	.LVL354:
 3345              		.loc 1 964 0
 3346 0022 16D1     		bne	.L374
 3347              	.LVL355:
 3348              	.LBB153:
 3349              		.loc 1 968 0
 3350 0024 4379     		ldrb	r3, [r0, #5]	@ zero_extendqisi2
 3351              		.loc 1 969 0
 3352 0026 0197     		str	r7, [sp, #4]
 3353              		.loc 1 968 0
 3354 0028 43F04003 		orr	r3, r3, #64
 3355 002c 4371     		strb	r3, [r0, #5]
 3356 002e 2644     		add	r6, r6, r4
 3357              	.LVL356:
 3358              	.L375:
 3359              		.loc 1 970 0
 3360 0030 B442     		cmp	r4, r6
 3361 0032 04D0     		beq	.L381
 3362              		.loc 1 972 0
 3363 0034 2846     		mov	r0, r5
ARM GAS  /tmp/ccSNToGX.s 			page 60


 3364 0036 FFF7FEFF 		bl	fgetc
 3365              	.LVL357:
 3366              		.loc 1 973 0
 3367 003a 0028     		cmp	r0, #0
 3368 003c 03DA     		bge	.L376
 3369              	.LVL358:
 3370              	.L381:
 3371              	.LBE153:
 3372              		.loc 1 1000 0
 3373 003e 0198     		ldr	r0, [sp, #4]
 3374              	.L373:
 3375              		.loc 1 1001 0
 3376 0040 02B0     		add	sp, sp, #8
 3377              		.cfi_remember_state
 3378              		.cfi_def_cfa_offset 24
 3379              		@ sp needed
 3380 0042 BDE8F081 		pop	{r4, r5, r6, r7, r8, pc}
 3381              	.LVL359:
 3382              	.L376:
 3383              		.cfi_restore_state
 3384              	.LBB154:
 3385              		.loc 1 977 0
 3386 0046 019B     		ldr	r3, [sp, #4]
 3387              		.loc 1 976 0
 3388 0048 04F8010B 		strb	r0, [r4], #1
 3389              	.LVL360:
 3390              		.loc 1 977 0
 3391 004c 0133     		adds	r3, r3, #1
 3392 004e 0193     		str	r3, [sp, #4]
 3393 0050 EEE7     		b	.L375
 3394              	.LVL361:
 3395              	.L374:
 3396              	.LBE154:
 3397              		.loc 1 981 0
 3398 0052 5A68     		ldr	r2, [r3, #4]
 3399 0054 9042     		cmp	r0, r2
 3400 0056 0AD0     		beq	.L384
 3401              		.loc 1 981 0 is_stmt 0 discriminator 1
 3402 0058 9B68     		ldr	r3, [r3, #8]
 3403 005a 9842     		cmp	r0, r3
 3404 005c 07D0     		beq	.L384
 3405              		.loc 1 987 0 is_stmt 1
 3406 005e 4046     		mov	r0, r8
 3407              	.LVL362:
 3408 0060 FFF7FEFF 		bl	fileno_to_fatfs
 3409              	.LVL363:
 3410              		.loc 1 988 0
 3411 0064 30B9     		cbnz	r0, .L380
 3412              		.loc 1 990 0
 3413 0066 FFF7FEFF 		bl	__errno
 3414              	.LVL364:
 3415 006a 0923     		movs	r3, #9
 3416              	.LVL365:
 3417              	.L382:
 3418              		.loc 1 997 0
 3419 006c 0360     		str	r3, [r0]
 3420              	.L384:
ARM GAS  /tmp/ccSNToGX.s 			page 61


 3421              		.loc 1 983 0
 3422 006e 4FF0FF30 		mov	r0, #-1
 3423 0072 E5E7     		b	.L373
 3424              	.LVL366:
 3425              	.L380:
 3426              		.loc 1 994 0
 3427 0074 2146     		mov	r1, r4
 3428 0076 01AB     		add	r3, sp, #4
 3429 0078 3246     		mov	r2, r6
 3430 007a FFF7FEFF 		bl	f_read
 3431              	.LVL367:
 3432              		.loc 1 995 0
 3433 007e 0446     		mov	r4, r0
 3434              	.LVL368:
 3435 0080 0028     		cmp	r0, #0
 3436 0082 DCD0     		beq	.L381
 3437              		.loc 1 997 0
 3438 0084 FFF7FEFF 		bl	__errno
 3439              	.LVL369:
 3440 0088 132C     		cmp	r4, #19
 3441 008a 96BF     		itet	ls
 3442 008c 024B     		ldrls	r3, .L386+4
 3443 008e 4D23     		movhi	r3, #77
 3444 0090 1B57     		ldrsbls	r3, [r3, r4]
 3445 0092 EBE7     		b	.L382
 3446              	.L387:
 3447              		.align	2
 3448              	.L386:
 3449 0094 00000000 		.word	.LANCHOR1
 3450 0098 00000000 		.word	.LANCHOR0
 3451              		.cfi_endproc
 3452              	.LFE317:
 3453              		.size	read, .-read
 3454              		.section	.text.__wrap_fread,"ax",%progbits
 3455              		.align	1
 3456              		.global	__wrap_fread
 3457              		.syntax unified
 3458              		.thumb
 3459              		.thumb_func
 3460              		.fpu fpv4-sp-d16
 3461              		.type	__wrap_fread, %function
 3462              	__wrap_fread:
 3463              	.LFB313:
 3464              		.loc 1 746 0
 3465              		.cfi_startproc
 3466              		@ args = 0, pretend = 0, frame = 0
 3467              		@ frame_needed = 0, uses_anonymous_args = 0
 3468              	.LVL370:
 3469 0000 38B5     		push	{r3, r4, r5, lr}
 3470              		.cfi_def_cfa_offset 16
 3471              		.cfi_offset 3, -16
 3472              		.cfi_offset 4, -12
 3473              		.cfi_offset 5, -8
 3474              		.cfi_offset 14, -4
 3475              		.loc 1 747 0
 3476 0002 02FB01F5 		mul	r5, r2, r1
 3477              	.LVL371:
ARM GAS  /tmp/ccSNToGX.s 			page 62


 3478              		.loc 1 746 0
 3479 0006 0446     		mov	r4, r0
 3480              		.loc 1 748 0
 3481 0008 1846     		mov	r0, r3
 3482              	.LVL372:
 3483 000a FFF7FEFF 		bl	fileno
 3484              	.LVL373:
 3485              		.loc 1 752 0
 3486 000e 2A46     		mov	r2, r5
 3487 0010 2146     		mov	r1, r4
 3488 0012 FFF7FEFF 		bl	read
 3489              	.LVL374:
 3490              		.loc 1 757 0
 3491 0016 20EAE070 		bic	r0, r0, r0, asr #31
 3492              	.LVL375:
 3493 001a 38BD     		pop	{r3, r4, r5, pc}
 3494              		.cfi_endproc
 3495              	.LFE313:
 3496              		.size	__wrap_fread, .-__wrap_fread
 3497              		.section	.text.syncfs,"ax",%progbits
 3498              		.align	1
 3499              		.global	syncfs
 3500              		.syntax unified
 3501              		.thumb
 3502              		.thumb_func
 3503              		.fpu fpv4-sp-d16
 3504              		.type	syncfs, %function
 3505              	syncfs:
 3506              	.LFB319:
 3507              		.loc 1 1038 0
 3508              		.cfi_startproc
 3509              		@ args = 0, pretend = 0, frame = 0
 3510              		@ frame_needed = 0, uses_anonymous_args = 0
 3511              	.LVL376:
 3512 0000 10B5     		push	{r4, lr}
 3513              		.cfi_def_cfa_offset 8
 3514              		.cfi_offset 4, -8
 3515              		.cfi_offset 14, -4
 3516              		.loc 1 1038 0
 3517 0002 0446     		mov	r4, r0
 3518              		.loc 1 1043 0
 3519 0004 FFF7FEFF 		bl	__errno
 3520              	.LVL377:
 3521 0008 0023     		movs	r3, #0
 3522              	.LBB162:
 3523              	.LBB163:
 3524              		.loc 1 140 0
 3525 000a 022C     		cmp	r4, #2
 3526              	.LBE163:
 3527              	.LBE162:
 3528              		.loc 1 1043 0
 3529 000c 0360     		str	r3, [r0]
 3530              	.LVL378:
 3531              	.LBB165:
 3532              	.LBB164:
 3533              		.loc 1 140 0
 3534 000e 0AD9     		bls	.L390
ARM GAS  /tmp/ccSNToGX.s 			page 63


 3535              	.LVL379:
 3536              	.LBE164:
 3537              	.LBE165:
 3538              		.loc 1 1050 0
 3539 0010 2046     		mov	r0, r4
 3540 0012 FFF7FEFF 		bl	fileno_to_stream
 3541              	.LVL380:
 3542              		.loc 1 1052 0
 3543 0016 4379     		ldrb	r3, [r0, #5]	@ zero_extendqisi2
 3544 0018 43F04003 		orr	r3, r3, #64
 3545 001c 4371     		strb	r3, [r0, #5]
 3546              		.loc 1 1055 0
 3547 001e 2046     		mov	r0, r4
 3548              	.LVL381:
 3549 0020 FFF7FEFF 		bl	fileno_to_fatfs
 3550              	.LVL382:
 3551              		.loc 1 1056 0
 3552 0024 18B9     		cbnz	r0, .L399
 3553              	.LVL383:
 3554              	.L390:
 3555              		.loc 1 1047 0
 3556 0026 FFF7FEFF 		bl	__errno
 3557              	.LVL384:
 3558 002a 0923     		movs	r3, #9
 3559 002c 0AE0     		b	.L400
 3560              	.LVL385:
 3561              	.L399:
 3562              		.loc 1 1062 0
 3563 002e FFF7FEFF 		bl	f_sync
 3564              	.LVL386:
 3565              		.loc 1 1063 0
 3566 0032 0446     		mov	r4, r0
 3567              	.LVL387:
 3568 0034 50B1     		cbz	r0, .L396
 3569              		.loc 1 1065 0
 3570 0036 FFF7FEFF 		bl	__errno
 3571              	.LVL388:
 3572 003a 132C     		cmp	r4, #19
 3573 003c 9ABF     		itte	ls
 3574 003e 044B     		ldrls	r3, .L401
 3575 0040 1B57     		ldrsbls	r3, [r3, r4]
 3576 0042 4D23     		movhi	r3, #77
 3577              	.LVL389:
 3578              	.L400:
 3579              		.loc 1 1047 0
 3580 0044 0360     		str	r3, [r0]
 3581              		.loc 1 1048 0
 3582 0046 4FF0FF30 		mov	r0, #-1
 3583 004a 10BD     		pop	{r4, pc}
 3584              	.LVL390:
 3585              	.L396:
 3586 004c 10BD     		pop	{r4, pc}
 3587              	.L402:
 3588 004e 00BF     		.align	2
 3589              	.L401:
 3590 0050 00000000 		.word	.LANCHOR0
 3591              		.cfi_endproc
ARM GAS  /tmp/ccSNToGX.s 			page 64


 3592              	.LFE319:
 3593              		.size	syncfs, .-syncfs
 3594              		.section	.text.sync,"ax",%progbits
 3595              		.align	1
 3596              		.global	sync
 3597              		.syntax unified
 3598              		.thumb
 3599              		.thumb_func
 3600              		.fpu fpv4-sp-d16
 3601              		.type	sync, %function
 3602              	sync:
 3603              	.LFB318:
 3604              		.loc 1 1011 0
 3605              		.cfi_startproc
 3606              		@ args = 0, pretend = 0, frame = 0
 3607              		@ frame_needed = 0, uses_anonymous_args = 0
 3608              	.LVL391:
 3609 0000 10B5     		push	{r4, lr}
 3610              		.cfi_def_cfa_offset 8
 3611              		.cfi_offset 4, -8
 3612              		.cfi_offset 14, -4
 3613              		.loc 1 1015 0
 3614 0002 0024     		movs	r4, #0
 3615              	.LVL392:
 3616              	.L404:
 3617              		.loc 1 1015 0 is_stmt 0 discriminator 2
 3618 0004 0134     		adds	r4, r4, #1
 3619              	.LVL393:
 3620 0006 102C     		cmp	r4, #16
 3621 0008 00D1     		bne	.L407
 3622 000a 10BD     		pop	{r4, pc}
 3623              	.LVL394:
 3624              	.L407:
 3625              	.LBB166:
 3626              	.LBB167:
 3627              		.loc 1 140 0 is_stmt 1
 3628 000c 022C     		cmp	r4, #2
 3629 000e F9DD     		ble	.L404
 3630              	.LVL395:
 3631              	.LBE167:
 3632              	.LBE166:
 3633              		.loc 1 1021 0
 3634 0010 2046     		mov	r0, r4
 3635 0012 FFF7FEFF 		bl	fileno_to_fatfs
 3636              	.LVL396:
 3637              		.loc 1 1022 0
 3638 0016 0028     		cmp	r0, #0
 3639 0018 F4D0     		beq	.L404
 3640              		.loc 1 1025 0
 3641 001a 2046     		mov	r0, r4
 3642              	.LVL397:
 3643 001c FFF7FEFF 		bl	syncfs
 3644              	.LVL398:
 3645 0020 F0E7     		b	.L404
 3646              		.cfi_endproc
 3647              	.LFE318:
 3648              		.size	sync, .-sync
ARM GAS  /tmp/ccSNToGX.s 			page 65


 3649              		.section	.text.write,"ax",%progbits
 3650              		.align	1
 3651              		.global	write
 3652              		.syntax unified
 3653              		.thumb
 3654              		.thumb_func
 3655              		.fpu fpv4-sp-d16
 3656              		.type	write, %function
 3657              	write:
 3658              	.LFB321:
 3659              		.loc 1 1122 0
 3660              		.cfi_startproc
 3661              		@ args = 0, pretend = 0, frame = 8
 3662              		@ frame_needed = 0, uses_anonymous_args = 0
 3663              	.LVL399:
 3664 0000 2DE9F341 		push	{r0, r1, r4, r5, r6, r7, r8, lr}
 3665              		.cfi_def_cfa_offset 32
 3666              		.cfi_offset 4, -24
 3667              		.cfi_offset 5, -20
 3668              		.cfi_offset 6, -16
 3669              		.cfi_offset 7, -12
 3670              		.cfi_offset 8, -8
 3671              		.cfi_offset 14, -4
 3672              		.loc 1 1122 0
 3673 0004 1646     		mov	r6, r2
 3674 0006 8046     		mov	r8, r0
 3675 0008 0C46     		mov	r4, r1
 3676              	.LVL400:
 3677              		.loc 1 1128 0
 3678 000a FFF7FEFF 		bl	__errno
 3679              	.LVL401:
 3680 000e 0025     		movs	r5, #0
 3681 0010 0560     		str	r5, [r0]
 3682              		.loc 1 1131 0
 3683 0012 4046     		mov	r0, r8
 3684 0014 FFF7FEFF 		bl	fileno_to_stream
 3685              	.LVL402:
 3686              		.loc 1 1132 0
 3687 0018 1C4B     		ldr	r3, .L428
 3688 001a 5A68     		ldr	r2, [r3, #4]
 3689 001c 9042     		cmp	r0, r2
 3690              		.loc 1 1131 0
 3691 001e 0746     		mov	r7, r0
 3692              	.LVL403:
 3693              		.loc 1 1132 0
 3694 0020 02D0     		beq	.L416
 3695              		.loc 1 1132 0 is_stmt 0 discriminator 1
 3696 0022 9A68     		ldr	r2, [r3, #8]
 3697 0024 9042     		cmp	r0, r2
 3698 0026 13D1     		bne	.L417
 3699              	.L416:
 3700              	.LVL404:
 3701              	.LBB168:
 3702              		.loc 1 1135 0 is_stmt 1
 3703 0028 0195     		str	r5, [sp, #4]
 3704 002a 2644     		add	r6, r6, r4
 3705              	.LVL405:
ARM GAS  /tmp/ccSNToGX.s 			page 66


 3706              	.L418:
 3707              		.loc 1 1136 0
 3708 002c B442     		cmp	r4, r6
 3709 002e 07D0     		beq	.L424
 3710              	.LBB169:
 3711              		.loc 1 1139 0
 3712 0030 14F8015B 		ldrb	r5, [r4], #1	@ zero_extendqisi2
 3713              	.LVL406:
 3714              		.loc 1 1140 0
 3715 0034 3946     		mov	r1, r7
 3716 0036 2846     		mov	r0, r5
 3717 0038 FFF7FEFF 		bl	fputc
 3718              	.LVL407:
 3719              		.loc 1 1141 0
 3720 003c 8542     		cmp	r5, r0
 3721 003e 03D0     		beq	.L419
 3722              	.LVL408:
 3723              	.L424:
 3724              	.LBE169:
 3725              	.LBE168:
 3726              		.loc 1 1167 0
 3727 0040 0198     		ldr	r0, [sp, #4]
 3728              	.L415:
 3729              		.loc 1 1168 0
 3730 0042 02B0     		add	sp, sp, #8
 3731              		.cfi_remember_state
 3732              		.cfi_def_cfa_offset 24
 3733              		@ sp needed
 3734 0044 BDE8F081 		pop	{r4, r5, r6, r7, r8, pc}
 3735              	.LVL409:
 3736              	.L419:
 3737              		.cfi_restore_state
 3738              	.LBB171:
 3739              	.LBB170:
 3740              		.loc 1 1144 0
 3741 0048 019B     		ldr	r3, [sp, #4]
 3742 004a 0133     		adds	r3, r3, #1
 3743 004c 0193     		str	r3, [sp, #4]
 3744 004e EDE7     		b	.L418
 3745              	.LVL410:
 3746              	.L417:
 3747              	.LBE170:
 3748              	.LBE171:
 3749              		.loc 1 1148 0
 3750 0050 1B68     		ldr	r3, [r3]
 3751 0052 9842     		cmp	r0, r3
 3752 0054 07D0     		beq	.L426
 3753              		.loc 1 1154 0
 3754 0056 4046     		mov	r0, r8
 3755              	.LVL411:
 3756 0058 FFF7FEFF 		bl	fileno_to_fatfs
 3757              	.LVL412:
 3758              		.loc 1 1155 0
 3759 005c 30B9     		cbnz	r0, .L423
 3760              		.loc 1 1157 0
 3761 005e FFF7FEFF 		bl	__errno
 3762              	.LVL413:
ARM GAS  /tmp/ccSNToGX.s 			page 67


 3763 0062 0923     		movs	r3, #9
 3764              	.LVL414:
 3765              	.L425:
 3766              		.loc 1 1164 0
 3767 0064 0360     		str	r3, [r0]
 3768              	.L426:
 3769              		.loc 1 1150 0
 3770 0066 4FF0FF30 		mov	r0, #-1
 3771 006a EAE7     		b	.L415
 3772              	.LVL415:
 3773              	.L423:
 3774              		.loc 1 1161 0
 3775 006c 2146     		mov	r1, r4
 3776 006e 01AB     		add	r3, sp, #4
 3777 0070 3246     		mov	r2, r6
 3778 0072 FFF7FEFF 		bl	f_write
 3779              	.LVL416:
 3780              		.loc 1 1162 0
 3781 0076 0446     		mov	r4, r0
 3782              	.LVL417:
 3783 0078 0028     		cmp	r0, #0
 3784 007a E1D0     		beq	.L424
 3785              		.loc 1 1164 0
 3786 007c FFF7FEFF 		bl	__errno
 3787              	.LVL418:
 3788 0080 132C     		cmp	r4, #19
 3789 0082 96BF     		itet	ls
 3790 0084 024B     		ldrls	r3, .L428+4
 3791 0086 4D23     		movhi	r3, #77
 3792 0088 1B57     		ldrsbls	r3, [r3, r4]
 3793 008a EBE7     		b	.L425
 3794              	.L429:
 3795              		.align	2
 3796              	.L428:
 3797 008c 00000000 		.word	.LANCHOR1
 3798 0090 00000000 		.word	.LANCHOR0
 3799              		.cfi_endproc
 3800              	.LFE321:
 3801              		.size	write, .-write
 3802              		.section	.text.fwrite,"ax",%progbits
 3803              		.align	1
 3804              		.global	fwrite
 3805              		.syntax unified
 3806              		.thumb
 3807              		.thumb_func
 3808              		.fpu fpv4-sp-d16
 3809              		.type	fwrite, %function
 3810              	fwrite:
 3811              	.LFB315:
 3812              		.loc 1 811 0
 3813              		.cfi_startproc
 3814              		@ args = 0, pretend = 0, frame = 0
 3815              		@ frame_needed = 0, uses_anonymous_args = 0
 3816              	.LVL419:
 3817 0000 38B5     		push	{r3, r4, r5, lr}
 3818              		.cfi_def_cfa_offset 16
 3819              		.cfi_offset 3, -16
ARM GAS  /tmp/ccSNToGX.s 			page 68


 3820              		.cfi_offset 4, -12
 3821              		.cfi_offset 5, -8
 3822              		.cfi_offset 14, -4
 3823              		.loc 1 812 0
 3824 0002 02FB01F5 		mul	r5, r2, r1
 3825              	.LVL420:
 3826              		.loc 1 811 0
 3827 0006 0446     		mov	r4, r0
 3828              		.loc 1 813 0
 3829 0008 1846     		mov	r0, r3
 3830              	.LVL421:
 3831 000a FFF7FEFF 		bl	fileno
 3832              	.LVL422:
 3833              		.loc 1 817 0
 3834 000e 2A46     		mov	r2, r5
 3835 0010 2146     		mov	r1, r4
 3836 0012 FFF7FEFF 		bl	write
 3837              	.LVL423:
 3838              		.loc 1 823 0
 3839 0016 20EAE070 		bic	r0, r0, r0, asr #31
 3840              	.LVL424:
 3841 001a 38BD     		pop	{r3, r4, r5, pc}
 3842              		.cfi_endproc
 3843              	.LFE315:
 3844              		.size	fwrite, .-fwrite
 3845              		.section	.text.free_file_descriptor,"ax",%progbits
 3846              		.align	1
 3847              		.global	free_file_descriptor
 3848              		.syntax unified
 3849              		.thumb
 3850              		.thumb_func
 3851              		.fpu fpv4-sp-d16
 3852              		.type	free_file_descriptor, %function
 3853              	free_file_descriptor:
 3854              	.LFB355:
 3855              		.loc 1 2335 0
 3856              		.cfi_startproc
 3857              		@ args = 0, pretend = 0, frame = 0
 3858              		@ frame_needed = 0, uses_anonymous_args = 0
 3859              	.LVL425:
 3860              	.LBB178:
 3861              	.LBB179:
 3862              		.loc 1 140 0
 3863 0000 0228     		cmp	r0, #2
 3864              	.LBE179:
 3865              	.LBE178:
 3866              		.loc 1 2335 0
 3867 0002 38B5     		push	{r3, r4, r5, lr}
 3868              		.cfi_def_cfa_offset 16
 3869              		.cfi_offset 3, -16
 3870              		.cfi_offset 4, -12
 3871              		.cfi_offset 5, -8
 3872              		.cfi_offset 14, -4
 3873              		.loc 1 2335 0
 3874 0004 0446     		mov	r4, r0
 3875              	.LBB181:
 3876              	.LBB180:
ARM GAS  /tmp/ccSNToGX.s 			page 69


 3877              		.loc 1 140 0
 3878 0006 18D9     		bls	.L432
 3879              	.LVL426:
 3880              	.LBE180:
 3881              	.LBE181:
 3882              		.loc 1 2346 0
 3883 0008 FFF7FEFF 		bl	fileno_to_stream
 3884              	.LVL427:
 3885              		.loc 1 2347 0
 3886 000c 0546     		mov	r5, r0
 3887 000e C0B1     		cbz	r0, .L448
 3888              		.loc 1 2352 0
 3889 0010 A869     		ldr	r0, [r5, #24]
 3890              	.LVL428:
 3891              		.loc 1 2354 0
 3892 0012 08B1     		cbz	r0, .L434
 3893              		.loc 1 2356 0
 3894 0014 FFF7FEFF 		bl	free
 3895              	.LVL429:
 3896              	.L434:
 3897              		.loc 1 2359 0
 3898 0018 2868     		ldr	r0, [r5]
 3899 001a 28B1     		cbz	r0, .L435
 3900              		.loc 1 2359 0 is_stmt 0 discriminator 1
 3901 001c 95F90530 		ldrsb	r3, [r5, #5]
 3902 0020 002B     		cmp	r3, #0
 3903 0022 01DA     		bge	.L435
 3904              		.loc 1 2361 0 is_stmt 1
 3905 0024 FFF7FEFF 		bl	free
 3906              	.LVL430:
 3907              	.L435:
 3908              		.loc 1 2364 0
 3909 0028 074B     		ldr	r3, .L449
 3910 002a 0022     		movs	r2, #0
 3911              		.loc 1 2365 0
 3912 002c 2846     		mov	r0, r5
 3913              		.loc 1 2364 0
 3914 002e 43F82420 		str	r2, [r3, r4, lsl #2]
 3915              		.loc 1 2365 0
 3916 0032 FFF7FEFF 		bl	free
 3917              	.LVL431:
 3918              	.L446:
 3919              		.loc 1 2367 0
 3920 0036 2046     		mov	r0, r4
 3921 0038 38BD     		pop	{r3, r4, r5, pc}
 3922              	.LVL432:
 3923              	.L432:
 3924              	.LBB182:
 3925              	.LBB183:
 3926              		.loc 1 2341 0
 3927 003a FFF7FEFF 		bl	__errno
 3928              	.LVL433:
 3929 003e 0923     		movs	r3, #9
 3930 0040 0360     		str	r3, [r0]
 3931              	.LVL434:
 3932              	.L448:
 3933 0042 4FF0FF34 		mov	r4, #-1
ARM GAS  /tmp/ccSNToGX.s 			page 70


 3934              	.LVL435:
 3935 0046 F6E7     		b	.L446
 3936              	.L450:
 3937              		.align	2
 3938              	.L449:
 3939 0048 00000000 		.word	.LANCHOR1
 3940              	.LBE183:
 3941              	.LBE182:
 3942              		.cfi_endproc
 3943              	.LFE355:
 3944              		.size	free_file_descriptor, .-free_file_descriptor
 3945              		.section	.text.close,"ax",%progbits
 3946              		.align	1
 3947              		.global	close
 3948              		.syntax unified
 3949              		.thumb
 3950              		.thumb_func
 3951              		.fpu fpv4-sp-d16
 3952              		.type	close, %function
 3953              	close:
 3954              	.LFB309:
 3955              		.loc 1 628 0
 3956              		.cfi_startproc
 3957              		@ args = 0, pretend = 0, frame = 0
 3958              		@ frame_needed = 0, uses_anonymous_args = 0
 3959              	.LVL436:
 3960 0000 38B5     		push	{r3, r4, r5, lr}
 3961              		.cfi_def_cfa_offset 16
 3962              		.cfi_offset 3, -16
 3963              		.cfi_offset 4, -12
 3964              		.cfi_offset 5, -8
 3965              		.cfi_offset 14, -4
 3966              		.loc 1 628 0
 3967 0002 0546     		mov	r5, r0
 3968              		.loc 1 633 0
 3969 0004 FFF7FEFF 		bl	__errno
 3970              	.LVL437:
 3971 0008 0023     		movs	r3, #0
 3972 000a 0360     		str	r3, [r0]
 3973              		.loc 1 636 0
 3974 000c 2846     		mov	r0, r5
 3975 000e FFF7FEFF 		bl	fileno_to_stream
 3976              	.LVL438:
 3977              		.loc 1 637 0
 3978 0012 10B9     		cbnz	r0, .L452
 3979              	.LVL439:
 3980              	.L461:
 3981              		.loc 1 653 0
 3982 0014 4FF0FF30 		mov	r0, #-1
 3983 0018 38BD     		pop	{r3, r4, r5, pc}
 3984              	.LVL440:
 3985              	.L452:
 3986              		.loc 1 643 0
 3987 001a 2846     		mov	r0, r5
 3988              	.LVL441:
 3989 001c FFF7FEFF 		bl	fileno_to_fatfs
 3990              	.LVL442:
ARM GAS  /tmp/ccSNToGX.s 			page 71


 3991              		.loc 1 644 0
 3992 0020 0028     		cmp	r0, #0
 3993 0022 F7D0     		beq	.L461
 3994              		.loc 1 648 0
 3995 0024 FFF7FEFF 		bl	f_close
 3996              	.LVL443:
 3997 0028 0446     		mov	r4, r0
 3998              	.LVL444:
 3999              		.loc 1 649 0
 4000 002a 2846     		mov	r0, r5
 4001 002c FFF7FEFF 		bl	free_file_descriptor
 4002              	.LVL445:
 4003              		.loc 1 650 0
 4004 0030 44B1     		cbz	r4, .L456
 4005              		.loc 1 652 0
 4006 0032 FFF7FEFF 		bl	__errno
 4007              	.LVL446:
 4008 0036 132C     		cmp	r4, #19
 4009 0038 96BF     		itet	ls
 4010 003a 034B     		ldrls	r3, .L462
 4011 003c 4D23     		movhi	r3, #77
 4012              	.LVL447:
 4013 003e 1B57     		ldrsbls	r3, [r3, r4]
 4014 0040 0360     		str	r3, [r0]
 4015 0042 E7E7     		b	.L461
 4016              	.L456:
 4017              		.loc 1 655 0
 4018 0044 2046     		mov	r0, r4
 4019              		.loc 1 656 0
 4020 0046 38BD     		pop	{r3, r4, r5, pc}
 4021              	.LVL448:
 4022              	.L463:
 4023              		.align	2
 4024              	.L462:
 4025 0048 00000000 		.word	.LANCHOR0
 4026              		.cfi_endproc
 4027              	.LFE309:
 4028              		.size	close, .-close
 4029              		.section	.text.__wrap_fclose,"ax",%progbits
 4030              		.align	1
 4031              		.global	__wrap_fclose
 4032              		.syntax unified
 4033              		.thumb
 4034              		.thumb_func
 4035              		.fpu fpv4-sp-d16
 4036              		.type	__wrap_fclose, %function
 4037              	__wrap_fclose:
 4038              	.LFB323:
 4039              		.loc 1 1189 0
 4040              		.cfi_startproc
 4041              		@ args = 0, pretend = 0, frame = 0
 4042              		@ frame_needed = 0, uses_anonymous_args = 0
 4043              	.LVL449:
 4044 0000 08B5     		push	{r3, lr}
 4045              		.cfi_def_cfa_offset 8
 4046              		.cfi_offset 3, -8
 4047              		.cfi_offset 14, -4
ARM GAS  /tmp/ccSNToGX.s 			page 72


 4048              		.loc 1 1190 0
 4049 0002 FFF7FEFF 		bl	fileno
 4050              	.LVL450:
 4051              		.loc 1 1191 0
 4052 0006 0028     		cmp	r0, #0
 4053 0008 03DB     		blt	.L465
 4054              		.loc 1 1195 0
 4055 000a BDE80840 		pop	{r3, lr}
 4056              		.cfi_remember_state
 4057              		.cfi_restore 14
 4058              		.cfi_restore 3
 4059              		.cfi_def_cfa_offset 0
 4060              		.loc 1 1194 0
 4061 000e FFF7FEBF 		b	close
 4062              	.LVL451:
 4063              	.L465:
 4064              		.cfi_restore_state
 4065              		.loc 1 1195 0
 4066 0012 4FF0FF30 		mov	r0, #-1
 4067              	.LVL452:
 4068 0016 08BD     		pop	{r3, pc}
 4069              		.cfi_endproc
 4070              	.LFE323:
 4071              		.size	__wrap_fclose, .-__wrap_fclose
 4072              		.section	.text.new_file_descriptor,"ax",%progbits
 4073              		.align	1
 4074              		.global	new_file_descriptor
 4075              		.syntax unified
 4076              		.thumb
 4077              		.thumb_func
 4078              		.fpu fpv4-sp-d16
 4079              		.type	new_file_descriptor, %function
 4080              	new_file_descriptor:
 4081              	.LFB356:
 4082              		.loc 1 2379 0
 4083              		.cfi_startproc
 4084              		@ args = 0, pretend = 0, frame = 0
 4085              		@ frame_needed = 0, uses_anonymous_args = 0
 4086              	.LVL453:
 4087 0000 70B5     		push	{r4, r5, r6, lr}
 4088              		.cfi_def_cfa_offset 16
 4089              		.cfi_offset 4, -16
 4090              		.cfi_offset 5, -12
 4091              		.cfi_offset 6, -8
 4092              		.cfi_offset 14, -4
 4093              		.loc 1 2388 0
 4094 0002 154E     		ldr	r6, .L478
 4095              		.loc 1 2384 0
 4096 0004 0024     		movs	r4, #0
 4097              	.LVL454:
 4098              	.L467:
 4099              		.loc 1 2384 0 is_stmt 0 discriminator 2
 4100 0006 0134     		adds	r4, r4, #1
 4101              	.LVL455:
 4102 0008 102C     		cmp	r4, #16
 4103 000a 03D1     		bne	.L473
 4104              		.loc 1 2409 0 is_stmt 1
ARM GAS  /tmp/ccSNToGX.s 			page 73


 4105 000c FFF7FEFF 		bl	__errno
 4106              	.LVL456:
 4107 0010 1723     		movs	r3, #23
 4108 0012 0EE0     		b	.L476
 4109              	.L473:
 4110              	.LVL457:
 4111              	.LBB190:
 4112              	.LBB191:
 4113              		.loc 1 140 0
 4114 0014 022C     		cmp	r4, #2
 4115 0016 F6DD     		ble	.L467
 4116              	.LVL458:
 4117              	.LBE191:
 4118              	.LBE190:
 4119              		.loc 1 2388 0
 4120 0018 56F82430 		ldr	r3, [r6, r4, lsl #2]
 4121 001c 002B     		cmp	r3, #0
 4122 001e F2D1     		bne	.L467
 4123              		.loc 1 2390 0
 4124 0020 0121     		movs	r1, #1
 4125 0022 1C20     		movs	r0, #28
 4126 0024 FFF7FEFF 		bl	calloc
 4127              	.LVL459:
 4128              		.loc 1 2391 0
 4129 0028 0546     		mov	r5, r0
 4130 002a 30B9     		cbnz	r0, .L470
 4131              	.LVL460:
 4132              	.L477:
 4133              		.loc 1 2400 0
 4134 002c FFF7FEFF 		bl	__errno
 4135              	.LVL461:
 4136 0030 0C23     		movs	r3, #12
 4137              	.LVL462:
 4138              	.L476:
 4139              		.loc 1 2409 0
 4140 0032 0360     		str	r3, [r0]
 4141              		.loc 1 2410 0
 4142 0034 4FF0FF34 		mov	r4, #-1
 4143              	.LVL463:
 4144 0038 0CE0     		b	.L466
 4145              	.LVL464:
 4146              	.L470:
 4147              		.loc 1 2396 0
 4148 003a 0121     		movs	r1, #1
 4149 003c 4FF41470 		mov	r0, #592
 4150              	.LVL465:
 4151 0040 FFF7FEFF 		bl	calloc
 4152              	.LVL466:
 4153              		.loc 1 2397 0
 4154 0044 18B9     		cbnz	r0, .L472
 4155              		.loc 1 2399 0
 4156 0046 2846     		mov	r0, r5
 4157              	.LVL467:
 4158 0048 FFF7FEFF 		bl	free
 4159              	.LVL468:
 4160 004c EEE7     		b	.L477
 4161              	.LVL469:
ARM GAS  /tmp/ccSNToGX.s 			page 74


 4162              	.L472:
 4163              		.loc 1 2404 0
 4164 004e 46F82450 		str	r5, [r6, r4, lsl #2]
 4165              		.loc 1 2405 0
 4166 0052 A861     		str	r0, [r5, #24]
 4167              	.LVL470:
 4168              	.L466:
 4169              		.loc 1 2411 0
 4170 0054 2046     		mov	r0, r4
 4171 0056 70BD     		pop	{r4, r5, r6, pc}
 4172              	.L479:
 4173              		.align	2
 4174              	.L478:
 4175 0058 00000000 		.word	.LANCHOR1
 4176              		.cfi_endproc
 4177              	.LFE356:
 4178              		.size	new_file_descriptor, .-new_file_descriptor
 4179              		.section	.text.open,"ax",%progbits
 4180              		.align	1
 4181              		.global	open
 4182              		.syntax unified
 4183              		.thumb
 4184              		.thumb_func
 4185              		.fpu fpv4-sp-d16
 4186              		.type	open, %function
 4187              	open:
 4188              	.LFB316:
 4189              		.loc 1 838 0
 4190              		.cfi_startproc
 4191              		@ args = 0, pretend = 0, frame = 0
 4192              		@ frame_needed = 0, uses_anonymous_args = 0
 4193              	.LVL471:
 4194 0000 2DE9F047 		push	{r4, r5, r6, r7, r8, r9, r10, lr}
 4195              		.cfi_def_cfa_offset 32
 4196              		.cfi_offset 4, -32
 4197              		.cfi_offset 5, -28
 4198              		.cfi_offset 6, -24
 4199              		.cfi_offset 7, -20
 4200              		.cfi_offset 8, -16
 4201              		.cfi_offset 9, -12
 4202              		.cfi_offset 10, -8
 4203              		.cfi_offset 14, -4
 4204              		.loc 1 838 0
 4205 0004 8846     		mov	r8, r1
 4206 0006 8246     		mov	r10, r0
 4207              		.loc 1 845 0
 4208 0008 FFF7FEFF 		bl	__errno
 4209              	.LVL472:
 4210              		.loc 1 858 0
 4211 000c 08F00307 		and	r7, r8, #3
 4212              		.loc 1 845 0
 4213 0010 0023     		movs	r3, #0
 4214              		.loc 1 858 0
 4215 0012 022F     		cmp	r7, #2
 4216              		.loc 1 845 0
 4217 0014 0360     		str	r3, [r0]
 4218              		.loc 1 858 0
ARM GAS  /tmp/ccSNToGX.s 			page 75


 4219 0016 18D0     		beq	.L493
 4220              		.loc 1 863 0
 4221 0018 9F42     		cmp	r7, r3
 4222 001a 0CBF     		ite	eq
 4223 001c 0126     		moveq	r6, #1
 4224 001e 0226     		movne	r6, #2
 4225              	.L481:
 4226              	.LVL473:
 4227              		.loc 1 865 0
 4228 0020 18F0400F 		tst	r8, #64
 4229 0024 06D0     		beq	.L482
 4230              		.loc 1 867 0
 4231 0026 18F4007F 		tst	r8, #512
 4232              		.loc 1 868 0
 4233 002a 14BF     		ite	ne
 4234 002c 46F00806 		orrne	r6, r6, #8
 4235              	.LVL474:
 4236              		.loc 1 870 0
 4237 0030 46F01006 		orreq	r6, r6, #16
 4238              	.LVL475:
 4239              	.L482:
 4240              		.loc 1 873 0
 4241 0034 FFF7FEFF 		bl	new_file_descriptor
 4242              	.LVL476:
 4243 0038 0446     		mov	r4, r0
 4244              	.LVL477:
 4245              		.loc 1 876 0
 4246 003a FFF7FEFF 		bl	fileno_to_stream
 4247              	.LVL478:
 4248              		.loc 1 877 0
 4249 003e 0546     		mov	r5, r0
 4250              		.loc 1 879 0
 4251 0040 2046     		mov	r0, r4
 4252              	.LVL479:
 4253              		.loc 1 877 0
 4254 0042 25B9     		cbnz	r5, .L484
 4255              	.LVL480:
 4256              	.L507:
 4257              		.loc 1 906 0
 4258 0044 FFF7FEFF 		bl	free_file_descriptor
 4259              	.LVL481:
 4260 0048 0CE0     		b	.L509
 4261              	.LVL482:
 4262              	.L493:
 4263              		.loc 1 859 0
 4264 004a 0326     		movs	r6, #3
 4265 004c E8E7     		b	.L481
 4266              	.LVL483:
 4267              	.L484:
 4268              		.loc 1 884 0
 4269 004e FFF7FEFF 		bl	fileno_to_fatfs
 4270              	.LVL484:
 4271              		.loc 1 885 0
 4272 0052 8146     		mov	r9, r0
 4273 0054 58B9     		cbnz	r0, .L486
 4274              		.loc 1 887 0
 4275 0056 2046     		mov	r0, r4
ARM GAS  /tmp/ccSNToGX.s 			page 76


 4276              	.LVL485:
 4277 0058 FFF7FEFF 		bl	free_file_descriptor
 4278              	.LVL486:
 4279              		.loc 1 888 0
 4280 005c FFF7FEFF 		bl	__errno
 4281              	.LVL487:
 4282 0060 0923     		movs	r3, #9
 4283 0062 0360     		str	r3, [r0]
 4284              	.LVL488:
 4285              	.L509:
 4286              		.loc 1 907 0
 4287 0064 4FF0FF34 		mov	r4, #-1
 4288              	.LVL489:
 4289              	.L480:
 4290              		.loc 1 934 0
 4291 0068 2046     		mov	r0, r4
 4292 006a BDE8F087 		pop	{r4, r5, r6, r7, r8, r9, r10, pc}
 4293              	.LVL490:
 4294              	.L486:
 4295              		.loc 1 891 0
 4296 006e F2B2     		uxtb	r2, r6
 4297 0070 5146     		mov	r1, r10
 4298 0072 FFF7FEFF 		bl	f_open
 4299              	.LVL491:
 4300              		.loc 1 892 0
 4301 0076 0646     		mov	r6, r0
 4302              	.LVL492:
 4303 0078 48B1     		cbz	r0, .L487
 4304              		.loc 1 894 0
 4305 007a FFF7FEFF 		bl	__errno
 4306              	.LVL493:
 4307 007e 132E     		cmp	r6, #19
 4308 0080 96BF     		itet	ls
 4309 0082 184B     		ldrls	r3, .L510
 4310 0084 4D23     		movhi	r3, #77
 4311              	.LVL494:
 4312 0086 9B57     		ldrsbls	r3, [r3, r6]
 4313 0088 0360     		str	r3, [r0]
 4314              	.L508:
 4315              		.loc 1 906 0
 4316 008a 2046     		mov	r0, r4
 4317 008c DAE7     		b	.L507
 4318              	.LVL495:
 4319              	.L487:
 4320              		.loc 1 898 0
 4321 008e 18F4806F 		tst	r8, #1024
 4322 0092 12D0     		beq	.L489
 4323              		.loc 1 901 0
 4324 0094 D9E90423 		ldrd	r2, [r9, #16]
 4325 0098 4846     		mov	r0, r9
 4326              	.LVL496:
 4327 009a FFF7FEFF 		bl	f_lseek
 4328              	.LVL497:
 4329              		.loc 1 902 0
 4330 009e 0646     		mov	r6, r0
 4331 00a0 58B1     		cbz	r0, .L489
 4332              		.loc 1 904 0
ARM GAS  /tmp/ccSNToGX.s 			page 77


 4333 00a2 FFF7FEFF 		bl	__errno
 4334              	.LVL498:
 4335 00a6 132E     		cmp	r6, #19
 4336 00a8 96BF     		itet	ls
 4337 00aa 0E4B     		ldrls	r3, .L510
 4338 00ac 4D23     		movhi	r3, #77
 4339              	.LVL499:
 4340 00ae 9B57     		ldrsbls	r3, [r3, r6]
 4341 00b0 0360     		str	r3, [r0]
 4342              		.loc 1 905 0
 4343 00b2 4846     		mov	r0, r9
 4344 00b4 FFF7FEFF 		bl	f_close
 4345              	.LVL500:
 4346 00b8 E7E7     		b	.L508
 4347              	.L489:
 4348              		.loc 1 911 0
 4349 00ba 022F     		cmp	r7, #2
 4350 00bc 06D1     		bne	.L491
 4351              		.loc 1 914 0
 4352 00be 0A4B     		ldr	r3, .L510+4
 4353 00c0 2B61     		str	r3, [r5, #16]
 4354              		.loc 1 915 0
 4355 00c2 0A4B     		ldr	r3, .L510+8
 4356 00c4 6B61     		str	r3, [r5, #20]
 4357              		.loc 1 916 0
 4358 00c6 0323     		movs	r3, #3
 4359              	.L506:
 4360              		.loc 1 930 0
 4361 00c8 6B71     		strb	r3, [r5, #5]
 4362 00ca CDE7     		b	.L480
 4363              	.L491:
 4364              		.loc 1 918 0
 4365 00cc 27B9     		cbnz	r7, .L492
 4366              		.loc 1 922 0
 4367 00ce 074B     		ldr	r3, .L510+8
 4368 00d0 6B61     		str	r3, [r5, #20]
 4369              		.loc 1 921 0
 4370 00d2 2F61     		str	r7, [r5, #16]
 4371              		.loc 1 923 0
 4372 00d4 0123     		movs	r3, #1
 4373 00d6 F7E7     		b	.L506
 4374              	.L492:
 4375              		.loc 1 928 0
 4376 00d8 034B     		ldr	r3, .L510+4
 4377 00da 2B61     		str	r3, [r5, #16]
 4378              		.loc 1 929 0
 4379 00dc 0023     		movs	r3, #0
 4380 00de 6B61     		str	r3, [r5, #20]
 4381              		.loc 1 930 0
 4382 00e0 0223     		movs	r3, #2
 4383 00e2 F1E7     		b	.L506
 4384              	.L511:
 4385              		.align	2
 4386              	.L510:
 4387 00e4 00000000 		.word	.LANCHOR0
 4388 00e8 00000000 		.word	fatfs_putc
 4389 00ec 00000000 		.word	fatfs_getc
ARM GAS  /tmp/ccSNToGX.s 			page 78


 4390              		.cfi_endproc
 4391              	.LFE316:
 4392              		.size	open, .-open
 4393              		.section	.text.posix_fopen_modes_to_open,"ax",%progbits
 4394              		.align	1
 4395              		.global	posix_fopen_modes_to_open
 4396              		.syntax unified
 4397              		.thumb
 4398              		.thumb_func
 4399              		.fpu fpv4-sp-d16
 4400              		.type	posix_fopen_modes_to_open, %function
 4401              	posix_fopen_modes_to_open:
 4402              	.LFB357:
 4403              		.loc 1 2442 0
 4404              		.cfi_startproc
 4405              		@ args = 0, pretend = 0, frame = 0
 4406              		@ frame_needed = 0, uses_anonymous_args = 0
 4407              	.LVL501:
 4408 0000 10B5     		push	{r4, lr}
 4409              		.cfi_def_cfa_offset 8
 4410              		.cfi_offset 4, -8
 4411              		.cfi_offset 14, -4
 4412              		.loc 1 2445 0
 4413 0002 2849     		ldr	r1, .L530
 4414              		.loc 1 2442 0
 4415 0004 0446     		mov	r4, r0
 4416              		.loc 1 2445 0
 4417 0006 FFF7FEFF 		bl	strcmp
 4418              	.LVL502:
 4419 000a 0028     		cmp	r0, #0
 4420 000c 48D0     		beq	.L512
 4421              		.loc 1 2445 0 is_stmt 0 discriminator 1
 4422 000e 2649     		ldr	r1, .L530+4
 4423 0010 2046     		mov	r0, r4
 4424 0012 FFF7FEFF 		bl	strcmp
 4425              	.LVL503:
 4426 0016 0028     		cmp	r0, #0
 4427 0018 42D0     		beq	.L512
 4428              		.loc 1 2450 0 is_stmt 1
 4429 001a 2449     		ldr	r1, .L530+8
 4430 001c 2046     		mov	r0, r4
 4431 001e FFF7FEFF 		bl	strcmp
 4432              	.LVL504:
 4433 0022 90B3     		cbz	r0, .L516
 4434              		.loc 1 2450 0 is_stmt 0 discriminator 1
 4435 0024 2249     		ldr	r1, .L530+12
 4436 0026 2046     		mov	r0, r4
 4437 0028 FFF7FEFF 		bl	strcmp
 4438              	.LVL505:
 4439 002c 68B3     		cbz	r0, .L516
 4440              		.loc 1 2450 0 discriminator 2
 4441 002e 2149     		ldr	r1, .L530+16
 4442 0030 2046     		mov	r0, r4
 4443 0032 FFF7FEFF 		bl	strcmp
 4444              	.LVL506:
 4445 0036 40B3     		cbz	r0, .L516
 4446              	.LVL507:
ARM GAS  /tmp/ccSNToGX.s 			page 79


 4447              	.LBB194:
 4448              	.LBB195:
 4449              		.loc 1 2455 0 is_stmt 1
 4450 0038 1F49     		ldr	r1, .L530+20
 4451 003a 2046     		mov	r0, r4
 4452 003c FFF7FEFF 		bl	strcmp
 4453              	.LVL508:
 4454 0040 30B3     		cbz	r0, .L518
 4455 0042 1E49     		ldr	r1, .L530+24
 4456 0044 2046     		mov	r0, r4
 4457 0046 FFF7FEFF 		bl	strcmp
 4458              	.LVL509:
 4459 004a 08B3     		cbz	r0, .L518
 4460              		.loc 1 2460 0
 4461 004c 1C49     		ldr	r1, .L530+28
 4462 004e 2046     		mov	r0, r4
 4463 0050 FFF7FEFF 		bl	strcmp
 4464              	.LVL510:
 4465 0054 F8B1     		cbz	r0, .L521
 4466 0056 1B49     		ldr	r1, .L530+32
 4467 0058 2046     		mov	r0, r4
 4468 005a FFF7FEFF 		bl	strcmp
 4469              	.LVL511:
 4470 005e D0B1     		cbz	r0, .L521
 4471 0060 1949     		ldr	r1, .L530+36
 4472 0062 2046     		mov	r0, r4
 4473 0064 FFF7FEFF 		bl	strcmp
 4474              	.LVL512:
 4475 0068 A8B1     		cbz	r0, .L521
 4476              		.loc 1 2465 0
 4477 006a 1849     		ldr	r1, .L530+40
 4478 006c 2046     		mov	r0, r4
 4479 006e FFF7FEFF 		bl	strcmp
 4480              	.LVL513:
 4481 0072 98B1     		cbz	r0, .L522
 4482 0074 1649     		ldr	r1, .L530+44
 4483 0076 2046     		mov	r0, r4
 4484 0078 FFF7FEFF 		bl	strcmp
 4485              	.LVL514:
 4486              		.loc 1 2473 0
 4487 007c 0028     		cmp	r0, #0
 4488 007e 40F24140 		movw	r0, #1089
 4489 0082 18BF     		it	ne
 4490 0084 4FF0FF30 		movne	r0, #-1
 4491 0088 10BD     		pop	{r4, pc}
 4492              	.LVL515:
 4493              	.L516:
 4494              	.LBE195:
 4495              	.LBE194:
 4496              		.loc 1 2453 0
 4497 008a 40F20220 		movw	r0, #514
 4498 008e 10BD     		pop	{r4, pc}
 4499              	.LVL516:
 4500              	.L518:
 4501              	.LBB197:
 4502              	.LBB196:
 4503              		.loc 1 2458 0
ARM GAS  /tmp/ccSNToGX.s 			page 80


 4504 0090 40F24120 		movw	r0, #577
 4505 0094 10BD     		pop	{r4, pc}
 4506              	.LVL517:
 4507              	.L521:
 4508              		.loc 1 2463 0
 4509 0096 40F24220 		movw	r0, #578
 4510 009a 10BD     		pop	{r4, pc}
 4511              	.LVL518:
 4512              	.L522:
 4513              		.loc 1 2468 0
 4514 009c 40F24140 		movw	r0, #1089
 4515              	.LVL519:
 4516              	.L512:
 4517              	.LBE196:
 4518              	.LBE197:
 4519              		.loc 1 2476 0
 4520 00a0 10BD     		pop	{r4, pc}
 4521              	.LVL520:
 4522              	.L531:
 4523 00a2 00BF     		.align	2
 4524              	.L530:
 4525 00a4 00000000 		.word	.LC4
 4526 00a8 02000000 		.word	.LC5
 4527 00ac 05000000 		.word	.LC6
 4528 00b0 08000000 		.word	.LC7
 4529 00b4 0C000000 		.word	.LC8
 4530 00b8 10000000 		.word	.LC9
 4531 00bc 12000000 		.word	.LC10
 4532 00c0 15000000 		.word	.LC11
 4533 00c4 18000000 		.word	.LC12
 4534 00c8 1C000000 		.word	.LC13
 4535 00cc 20000000 		.word	.LC14
 4536 00d0 22000000 		.word	.LC15
 4537              		.cfi_endproc
 4538              	.LFE357:
 4539              		.size	posix_fopen_modes_to_open, .-posix_fopen_modes_to_open
 4540              		.section	.text.fopen,"ax",%progbits
 4541              		.align	1
 4542              		.global	fopen
 4543              		.syntax unified
 4544              		.thumb
 4545              		.thumb_func
 4546              		.fpu fpv4-sp-d16
 4547              		.type	fopen, %function
 4548              	fopen:
 4549              	.LFB312:
 4550              		.loc 1 725 0
 4551              		.cfi_startproc
 4552              		@ args = 0, pretend = 0, frame = 0
 4553              		@ frame_needed = 0, uses_anonymous_args = 0
 4554              	.LVL521:
 4555 0000 10B5     		push	{r4, lr}
 4556              		.cfi_def_cfa_offset 8
 4557              		.cfi_offset 4, -8
 4558              		.cfi_offset 14, -4
 4559              		.loc 1 725 0
 4560 0002 0446     		mov	r4, r0
ARM GAS  /tmp/ccSNToGX.s 			page 81


 4561              		.loc 1 726 0
 4562 0004 0846     		mov	r0, r1
 4563              	.LVL522:
 4564 0006 FFF7FEFF 		bl	posix_fopen_modes_to_open
 4565              	.LVL523:
 4566              		.loc 1 727 0
 4567 000a 0146     		mov	r1, r0
 4568 000c 2046     		mov	r0, r4
 4569              	.LVL524:
 4570 000e FFF7FEFF 		bl	open
 4571              	.LVL525:
 4572              		.loc 1 731 0
 4573 0012 BDE81040 		pop	{r4, lr}
 4574              		.cfi_restore 14
 4575              		.cfi_restore 4
 4576              		.cfi_def_cfa_offset 0
 4577              	.LVL526:
 4578              		.loc 1 730 0
 4579 0016 FFF7FEBF 		b	fileno_to_stream
 4580              	.LVL527:
 4581              		.cfi_endproc
 4582              	.LFE312:
 4583              		.size	fopen, .-fopen
 4584              		.section	.text.__wrap_freopen,"ax",%progbits
 4585              		.align	1
 4586              		.global	__wrap_freopen
 4587              		.syntax unified
 4588              		.thumb
 4589              		.thumb_func
 4590              		.fpu fpv4-sp-d16
 4591              		.type	__wrap_freopen, %function
 4592              	__wrap_freopen:
 4593              	.LFB322:
 4594              		.loc 1 1171 0
 4595              		.cfi_startproc
 4596              		@ args = 0, pretend = 0, frame = 0
 4597              		@ frame_needed = 0, uses_anonymous_args = 0
 4598              	.LVL528:
 4599 0000 38B5     		push	{r3, r4, r5, lr}
 4600              		.cfi_def_cfa_offset 16
 4601              		.cfi_offset 3, -16
 4602              		.cfi_offset 4, -12
 4603              		.cfi_offset 5, -8
 4604              		.cfi_offset 14, -4
 4605              		.loc 1 1171 0
 4606 0002 0446     		mov	r4, r0
 4607              		.loc 1 1172 0
 4608 0004 1046     		mov	r0, r2
 4609              	.LVL529:
 4610              		.loc 1 1171 0
 4611 0006 0D46     		mov	r5, r1
 4612              		.loc 1 1172 0
 4613 0008 FFF7FEFF 		bl	fileno
 4614              	.LVL530:
 4615              		.loc 1 1173 0
 4616 000c FFF7FEFF 		bl	close
 4617              	.LVL531:
ARM GAS  /tmp/ccSNToGX.s 			page 82


 4618              		.loc 1 1174 0
 4619 0010 0028     		cmp	r0, #0
 4620 0012 05DB     		blt	.L534
 4621              		.loc 1 1177 0
 4622 0014 2946     		mov	r1, r5
 4623 0016 2046     		mov	r0, r4
 4624              	.LVL532:
 4625              		.loc 1 1178 0
 4626 0018 BDE83840 		pop	{r3, r4, r5, lr}
 4627              		.cfi_remember_state
 4628              		.cfi_restore 14
 4629              		.cfi_restore 5
 4630              		.cfi_restore 4
 4631              		.cfi_restore 3
 4632              		.cfi_def_cfa_offset 0
 4633              	.LVL533:
 4634              		.loc 1 1177 0
 4635 001c FFF7FEBF 		b	fopen
 4636              	.LVL534:
 4637              	.L534:
 4638              		.cfi_restore_state
 4639              		.loc 1 1178 0
 4640 0020 0020     		movs	r0, #0
 4641              	.LVL535:
 4642 0022 38BD     		pop	{r3, r4, r5, pc}
 4643              		.cfi_endproc
 4644              	.LFE322:
 4645              		.size	__wrap_freopen, .-__wrap_freopen
 4646              		.section	.text.__wrap_fprintf,"ax",%progbits
 4647              		.align	1
 4648              		.global	__wrap_fprintf
 4649              		.syntax unified
 4650              		.thumb
 4651              		.thumb_func
 4652              		.fpu fpv4-sp-d16
 4653              		.type	__wrap_fprintf, %function
 4654              	__wrap_fprintf:
 4655              	.LFB358:
 4656              		.loc 1 2508 0
 4657              		.cfi_startproc
 4658              		@ args = 4, pretend = 12, frame = 8
 4659              		@ frame_needed = 0, uses_anonymous_args = 1
 4660              	.LVL536:
 4661 0000 0EB4     		push	{r1, r2, r3}
 4662              		.cfi_def_cfa_offset 12
 4663              		.cfi_offset 1, -12
 4664              		.cfi_offset 2, -8
 4665              		.cfi_offset 3, -4
 4666 0002 77B5     		push	{r0, r1, r2, r4, r5, r6, lr}
 4667              		.cfi_def_cfa_offset 40
 4668              		.cfi_offset 4, -28
 4669              		.cfi_offset 5, -24
 4670              		.cfi_offset 6, -20
 4671              		.cfi_offset 14, -16
 4672              		.loc 1 2508 0
 4673 0004 07AA     		add	r2, sp, #28
 4674 0006 0646     		mov	r6, r0
ARM GAS  /tmp/ccSNToGX.s 			page 83


 4675 0008 52F8041B 		ldr	r1, [r2], #4
 4676              		.loc 1 2512 0
 4677 000c 0092     		str	r2, [sp]
 4678              		.loc 1 2513 0
 4679 000e 01A8     		add	r0, sp, #4
 4680              	.LVL537:
 4681 0010 FFF7FEFF 		bl	vasprintf
 4682              	.LVL538:
 4683 0014 04B2     		sxth	r4, r0
 4684              	.LVL539:
 4685              		.loc 1 2514 0
 4686 0016 002C     		cmp	r4, #0
 4687 0018 0FDD     		ble	.L538
 4688 001a 0025     		movs	r5, #0
 4689              	.L537:
 4690              	.LVL540:
 4691              		.loc 1 2516 0 discriminator 3
 4692 001c 019B     		ldr	r3, [sp, #4]
 4693 001e 3146     		mov	r1, r6
 4694 0020 585D     		ldrb	r0, [r3, r5]	@ zero_extendqisi2
 4695 0022 0135     		adds	r5, r5, #1
 4696              	.LVL541:
 4697 0024 FFF7FEFF 		bl	fputc
 4698              	.LVL542:
 4699              		.loc 1 2515 0 discriminator 3
 4700 0028 2BB2     		sxth	r3, r5
 4701 002a 9C42     		cmp	r4, r3
 4702 002c F6DC     		bgt	.L537
 4703              		.loc 1 2524 0
 4704 002e 2046     		mov	r0, r4
 4705              	.L535:
 4706              		.loc 1 2525 0
 4707 0030 03B0     		add	sp, sp, #12
 4708              		.cfi_remember_state
 4709              		.cfi_def_cfa_offset 28
 4710              		@ sp needed
 4711 0032 BDE87040 		pop	{r4, r5, r6, lr}
 4712              		.cfi_restore 14
 4713              		.cfi_restore 6
 4714              		.cfi_restore 5
 4715              		.cfi_restore 4
 4716              		.cfi_def_cfa_offset 12
 4717              	.LVL543:
 4718 0036 03B0     		add	sp, sp, #12
 4719              		.cfi_restore 3
 4720              		.cfi_restore 2
 4721              		.cfi_restore 1
 4722              		.cfi_def_cfa_offset 0
 4723 0038 7047     		bx	lr
 4724              	.LVL544:
 4725              	.L538:
 4726              		.cfi_restore_state
 4727              		.loc 1 2520 0
 4728 003a 4FF0FF30 		mov	r0, #-1
 4729 003e F7E7     		b	.L535
 4730              		.cfi_endproc
 4731              	.LFE358:
ARM GAS  /tmp/ccSNToGX.s 			page 84


 4732              		.size	__wrap_fprintf, .-__wrap_fprintf
 4733              		.section	.text.fsync,"ax",%progbits
 4734              		.align	1
 4735              		.global	fsync
 4736              		.syntax unified
 4737              		.thumb
 4738              		.thumb_func
 4739              		.fpu fpv4-sp-d16
 4740              		.type	fsync, %function
 4741              	fsync:
 4742              	.LFB359:
 4743              		.loc 1 2532 0
 4744              		.cfi_startproc
 4745              		@ args = 0, pretend = 0, frame = 0
 4746              		@ frame_needed = 0, uses_anonymous_args = 0
 4747              	.LVL545:
 4748 0000 10B5     		push	{r4, lr}
 4749              		.cfi_def_cfa_offset 8
 4750              		.cfi_offset 4, -8
 4751              		.cfi_offset 14, -4
 4752              		.loc 1 2532 0
 4753 0002 0446     		mov	r4, r0
 4754              		.loc 1 2537 0
 4755 0004 FFF7FEFF 		bl	__errno
 4756              	.LVL546:
 4757 0008 0023     		movs	r3, #0
 4758 000a 0360     		str	r3, [r0]
 4759              		.loc 1 2540 0
 4760 000c 2046     		mov	r0, r4
 4761 000e FFF7FEFF 		bl	fileno_to_stream
 4762              	.LVL547:
 4763              		.loc 1 2541 0
 4764 0012 10B9     		cbnz	r0, .L541
 4765              	.LVL548:
 4766              	.L550:
 4767              		.loc 1 2556 0
 4768 0014 4FF0FF30 		mov	r0, #-1
 4769 0018 10BD     		pop	{r4, pc}
 4770              	.LVL549:
 4771              	.L541:
 4772              		.loc 1 2547 0
 4773 001a 2046     		mov	r0, r4
 4774              	.LVL550:
 4775 001c FFF7FEFF 		bl	fileno_to_fatfs
 4776              	.LVL551:
 4777              		.loc 1 2548 0
 4778 0020 0028     		cmp	r0, #0
 4779 0022 F7D0     		beq	.L550
 4780              		.loc 1 2552 0
 4781 0024 FFF7FEFF 		bl	f_sync
 4782              	.LVL552:
 4783              		.loc 1 2553 0
 4784 0028 0446     		mov	r4, r0
 4785              	.LVL553:
 4786 002a 40B1     		cbz	r0, .L545
 4787              		.loc 1 2555 0
 4788 002c FFF7FEFF 		bl	__errno
ARM GAS  /tmp/ccSNToGX.s 			page 85


 4789              	.LVL554:
 4790 0030 132C     		cmp	r4, #19
 4791 0032 96BF     		itet	ls
 4792 0034 024B     		ldrls	r3, .L551
 4793 0036 4D23     		movhi	r3, #77
 4794              	.LVL555:
 4795 0038 1B57     		ldrsbls	r3, [r3, r4]
 4796 003a 0360     		str	r3, [r0]
 4797 003c EAE7     		b	.L550
 4798              	.LVL556:
 4799              	.L545:
 4800              		.loc 1 2559 0
 4801 003e 10BD     		pop	{r4, pc}
 4802              	.L552:
 4803              		.align	2
 4804              	.L551:
 4805 0040 00000000 		.word	.LANCHOR0
 4806              		.cfi_endproc
 4807              	.LFE359:
 4808              		.size	fsync, .-fsync
 4809              		.global	__iob
 4810              		.section	.rodata
 4811              		.align	2
 4812              		.set	.LANCHOR5,. + 0
 4813              	.LC0:
 4814 0000 1F000000 		.word	31
 4815 0004 1C000000 		.word	28
 4816 0008 1F000000 		.word	31
 4817 000c 1E000000 		.word	30
 4818 0010 1F000000 		.word	31
 4819 0014 1E000000 		.word	30
 4820 0018 1F000000 		.word	31
 4821 001c 1F000000 		.word	31
 4822 0020 1E000000 		.word	30
 4823 0024 1F000000 		.word	31
 4824 0028 1E000000 		.word	30
 4825 002c 1F000000 		.word	31
 4826              		.section	.bss.__iob,"aw",%nobits
 4827              		.align	2
 4828              		.set	.LANCHOR1,. + 0
 4829              		.type	__iob, %object
 4830              		.size	__iob, 64
 4831              	__iob:
 4832 0000 00000000 		.space	64
 4832      00000000 
 4832      00000000 
 4832      00000000 
 4832      00000000 
 4833              		.section	.bss._de,"aw",%nobits
 4834              		.set	.LANCHOR3,. + 0
 4835              		.type	_de, %object
 4836              		.size	_de, 255
 4837              	_de:
 4838 0000 00000000 		.space	255
 4838      00000000 
 4838      00000000 
 4838      00000000 
ARM GAS  /tmp/ccSNToGX.s 			page 86


 4838      00000000 
 4839              		.section	.bss._dp,"aw",%nobits
 4840              		.align	3
 4841              		.set	.LANCHOR2,. + 0
 4842              		.type	_dp, %object
 4843              		.size	_dp, 80
 4844              	_dp:
 4845 0000 00000000 		.space	80
 4845      00000000 
 4845      00000000 
 4845      00000000 
 4845      00000000 
 4846              		.section	.rodata.CSWTCH.54,"a",%progbits
 4847              		.align	2
 4848              		.set	.LANCHOR4,. + 0
 4849              		.type	CSWTCH.54, %object
 4850              		.size	CSWTCH.54, 308
 4851              	CSWTCH.54:
 4852 0000 00000000 		.word	.LC16
 4853 0004 06000000 		.word	.LC17
 4854 0008 0D000000 		.word	.LC18
 4855 000c 13000000 		.word	.LC19
 4856 0010 19000000 		.word	.LC20
 4857 0014 1D000000 		.word	.LC21
 4858 0018 23000000 		.word	.LC22
 4859 001c 29000000 		.word	.LC23
 4860 0020 31000000 		.word	.LC24
 4861 0024 37000000 		.word	.LC25
 4862 0028 3E000000 		.word	.LC26
 4863 002c 45000000 		.word	.LC27
 4864 0030 4C000000 		.word	.LC28
 4865 0034 53000000 		.word	.LC29
 4866 0038 00000000 		.word	0
 4867 003c 5A000000 		.word	.LC30
 4868 0040 60000000 		.word	.LC31
 4869 0044 67000000 		.word	.LC32
 4870 0048 6D000000 		.word	.LC33
 4871 004c 74000000 		.word	.LC34
 4872 0050 7C000000 		.word	.LC35
 4873 0054 83000000 		.word	.LC36
 4874 0058 8A000000 		.word	.LC37
 4875 005c 91000000 		.word	.LC38
 4876 0060 98000000 		.word	.LC39
 4877 0064 9F000000 		.word	.LC40
 4878 0068 A7000000 		.word	.LC41
 4879 006c AD000000 		.word	.LC42
 4880 0070 B4000000 		.word	.LC43
 4881 0074 BB000000 		.word	.LC44
 4882 0078 C1000000 		.word	.LC45
 4883 007c C8000000 		.word	.LC46
 4884 0080 CE000000 		.word	.LC47
 4885 0084 D3000000 		.word	.LC48
 4886 0088 00000000 		.word	0
 4887 008c 00000000 		.word	0
 4888 0090 00000000 		.word	0
 4889 0094 00000000 		.word	0
 4890 0098 00000000 		.word	0
ARM GAS  /tmp/ccSNToGX.s 			page 87


 4891 009c 00000000 		.word	0
 4892 00a0 00000000 		.word	0
 4893 00a4 00000000 		.word	0
 4894 00a8 00000000 		.word	0
 4895 00ac 00000000 		.word	0
 4896 00b0 00000000 		.word	0
 4897 00b4 00000000 		.word	0
 4898 00b8 00000000 		.word	0
 4899 00bc 00000000 		.word	0
 4900 00c0 00000000 		.word	0
 4901 00c4 00000000 		.word	0
 4902 00c8 00000000 		.word	0
 4903 00cc 00000000 		.word	0
 4904 00d0 00000000 		.word	0
 4905 00d4 00000000 		.word	0
 4906 00d8 00000000 		.word	0
 4907 00dc 00000000 		.word	0
 4908 00e0 00000000 		.word	0
 4909 00e4 00000000 		.word	0
 4910 00e8 00000000 		.word	0
 4911 00ec 00000000 		.word	0
 4912 00f0 00000000 		.word	0
 4913 00f4 00000000 		.word	0
 4914 00f8 00000000 		.word	0
 4915 00fc 00000000 		.word	0
 4916 0100 00000000 		.word	0
 4917 0104 00000000 		.word	0
 4918 0108 00000000 		.word	0
 4919 010c 00000000 		.word	0
 4920 0110 00000000 		.word	0
 4921 0114 00000000 		.word	0
 4922 0118 00000000 		.word	0
 4923 011c 00000000 		.word	0
 4924 0120 00000000 		.word	0
 4925 0124 00000000 		.word	0
 4926 0128 00000000 		.word	0
 4927 012c 00000000 		.word	0
 4928 0130 DA000000 		.word	.LC49
 4929              		.section	.rodata.CSWTCH.58,"a",%progbits
 4930              		.set	.LANCHOR0,. + 0
 4931              		.type	CSWTCH.58, %object
 4932              		.size	CSWTCH.58, 20
 4933              	CSWTCH.58:
 4934 0000 00       		.byte	0
 4935 0001 05       		.byte	5
 4936 0002 01       		.byte	1
 4937 0003 10       		.byte	16
 4938 0004 02       		.byte	2
 4939 0005 02       		.byte	2
 4940 0006 16       		.byte	22
 4941 0007 0D       		.byte	13
 4942 0008 11       		.byte	17
 4943 0009 16       		.byte	22
 4944 000a 1E       		.byte	30
 4945 000b 06       		.byte	6
 4946 000c 1C       		.byte	28
 4947 000d 06       		.byte	6
ARM GAS  /tmp/ccSNToGX.s 			page 88


 4948 000e 16       		.byte	22
 4949 000f 10       		.byte	16
 4950 0010 10       		.byte	16
 4951 0011 0C       		.byte	12
 4952 0012 18       		.byte	24
 4953 0013 16       		.byte	22
 4954              		.section	.rodata.basename.str1.1,"aMS",%progbits,1
 4955              	.LC2:
 4956 0000 00       		.ascii	"\000"
 4957              		.section	.rodata.fs_getfree.str1.1,"aMS",%progbits,1
 4958              	.LC1:
 4959 0000 2F00     		.ascii	"/\000"
 4960              		.section	.rodata.posix_fopen_modes_to_open.str1.1,"aMS",%progbits,1
 4961              	.LC4:
 4962 0000 7200     		.ascii	"r\000"
 4963              	.LC5:
 4964 0002 726200   		.ascii	"rb\000"
 4965              	.LC6:
 4966 0005 722B00   		.ascii	"r+\000"
 4967              	.LC7:
 4968 0008 722B6200 		.ascii	"r+b\000"
 4969              	.LC8:
 4970 000c 72622B00 		.ascii	"rb+\000"
 4971              	.LC9:
 4972 0010 7700     		.ascii	"w\000"
 4973              	.LC10:
 4974 0012 776200   		.ascii	"wb\000"
 4975              	.LC11:
 4976 0015 772B00   		.ascii	"w+\000"
 4977              	.LC12:
 4978 0018 772B6200 		.ascii	"w+b\000"
 4979              	.LC13:
 4980 001c 77622B00 		.ascii	"wb+\000"
 4981              	.LC14:
 4982 0020 6100     		.ascii	"a\000"
 4983              	.LC15:
 4984 0022 616200   		.ascii	"ab\000"
 4985              		.section	.rodata.stat.str1.1,"aMS",%progbits,1
 4986              	.LC3:
 4987 0000 2E00     		.ascii	".\000"
 4988              		.section	.rodata.str1.1,"aMS",%progbits,1
 4989              	.LC16:
 4990 0000 45504552 		.ascii	"EPERM\000"
 4990      4D00
 4991              	.LC17:
 4992 0006 454E4F45 		.ascii	"ENOENT\000"
 4992      4E5400
 4993              	.LC18:
 4994 000d 45535243 		.ascii	"ESRCH\000"
 4994      4800
 4995              	.LC19:
 4996 0013 45494E54 		.ascii	"EINTR\000"
 4996      5200
 4997              	.LC20:
 4998 0019 45494F00 		.ascii	"EIO\000"
 4999              	.LC21:
 5000 001d 454E5849 		.ascii	"ENXIO\000"
ARM GAS  /tmp/ccSNToGX.s 			page 89


 5000      4F00
 5001              	.LC22:
 5002 0023 45324249 		.ascii	"E2BIG\000"
 5002      4700
 5003              	.LC23:
 5004 0029 454E4F45 		.ascii	"ENOEXEC\000"
 5004      58454300 
 5005              	.LC24:
 5006 0031 45424144 		.ascii	"EBADF\000"
 5006      4600
 5007              	.LC25:
 5008 0037 45434849 		.ascii	"ECHILD\000"
 5008      4C4400
 5009              	.LC26:
 5010 003e 45414741 		.ascii	"EAGAIN\000"
 5010      494E00
 5011              	.LC27:
 5012 0045 454E4F4D 		.ascii	"ENOMEM\000"
 5012      454D00
 5013              	.LC28:
 5014 004c 45414343 		.ascii	"EACCES\000"
 5014      455300
 5015              	.LC29:
 5016 0053 45464155 		.ascii	"EFAULT\000"
 5016      4C5400
 5017              	.LC30:
 5018 005a 45425553 		.ascii	"EBUSY\000"
 5018      5900
 5019              	.LC31:
 5020 0060 45455849 		.ascii	"EEXIST\000"
 5020      535400
 5021              	.LC32:
 5022 0067 45584445 		.ascii	"EXDEV\000"
 5022      5600
 5023              	.LC33:
 5024 006d 454E4F44 		.ascii	"ENODEV\000"
 5024      455600
 5025              	.LC34:
 5026 0074 454E4F54 		.ascii	"ENOTDIR\000"
 5026      44495200 
 5027              	.LC35:
 5028 007c 45495344 		.ascii	"EISDIR\000"
 5028      495200
 5029              	.LC36:
 5030 0083 45494E56 		.ascii	"EINVAL\000"
 5030      414C00
 5031              	.LC37:
 5032 008a 454E4649 		.ascii	"ENFILE\000"
 5032      4C4500
 5033              	.LC38:
 5034 0091 454D4649 		.ascii	"EMFILE\000"
 5034      4C4500
 5035              	.LC39:
 5036 0098 454E4F54 		.ascii	"ENOTTY\000"
 5036      545900
 5037              	.LC40:
 5038 009f 45545854 		.ascii	"ETXTBSY\000"
ARM GAS  /tmp/ccSNToGX.s 			page 90


 5038      42535900 
 5039              	.LC41:
 5040 00a7 45464249 		.ascii	"EFBIG\000"
 5040      4700
 5041              	.LC42:
 5042 00ad 454E4F53 		.ascii	"ENOSPC\000"
 5042      504300
 5043              	.LC43:
 5044 00b4 45535049 		.ascii	"ESPIPE\000"
 5044      504500
 5045              	.LC44:
 5046 00bb 45524F46 		.ascii	"EROFS\000"
 5046      5300
 5047              	.LC45:
 5048 00c1 454D4C49 		.ascii	"EMLINK\000"
 5048      4E4B00
 5049              	.LC46:
 5050 00c8 45504950 		.ascii	"EPIPE\000"
 5050      4500
 5051              	.LC47:
 5052 00ce 45444F4D 		.ascii	"EDOM\000"
 5052      00
 5053              	.LC48:
 5054 00d3 4552414E 		.ascii	"ERANGE\000"
 5054      474500
 5055              	.LC49:
 5056 00da 45424144 		.ascii	"EBADMSG\000"
 5056      4D534700 
 5057              		.text
 5058              	.Letext0:
 5059              		.file 2 "/opt/gcc-arm-none-eabi-6-2017-q2-update/lib/gcc/arm-none-eabi/6.3.1/include/stddef.h"
 5060              		.file 3 "/opt/gcc-arm-none-eabi-6-2017-q2-update/arm-none-eabi/include/machine/_default_types.h"
 5061              		.file 4 "/opt/gcc-arm-none-eabi-6-2017-q2-update/arm-none-eabi/include/sys/lock.h"
 5062              		.file 5 "/opt/gcc-arm-none-eabi-6-2017-q2-update/arm-none-eabi/include/sys/_types.h"
 5063              		.file 6 "/opt/gcc-arm-none-eabi-6-2017-q2-update/arm-none-eabi/include/sys/reent.h"
 5064              		.file 7 "/opt/gcc-arm-none-eabi-6-2017-q2-update/arm-none-eabi/include/sys/_stdint.h"
 5065              		.file 8 "../../modules/ChibiOS/ext/fatfs/src/integer.h"
 5066              		.file 9 "../../modules/ChibiOS/os/common/ports/ARMCMx/compilers/GCC/chtypes.h"
 5067              		.file 10 "../../modules/ChibiOS/os/rt/include/chsystypes.h"
 5068              		.file 11 "../../modules/ChibiOS/os/rt/include/chschd.h"
 5069              		.file 12 "../../modules/ChibiOS/os/rt/include/chtime.h"
 5070              		.file 13 "../../modules/ChibiOS/os/common/ext/ARM/CMSIS/Core/Include/core_cm4.h"
 5071              		.file 14 "../../modules/ChibiOS/os/common/ext/ST/STM32F4xx/system_stm32f4xx.h"
 5072              		.file 15 "../../modules/ChibiOS/os/common/ports/ARMCMx/chcore.h"
 5073              		.file 16 "../../modules/ChibiOS/os/common/ports/ARMCMx/chcore_v7m.h"
 5074              		.file 17 "../../modules/ChibiOS/os/rt/include/chtm.h"
 5075              		.file 18 "../../modules/ChibiOS/os/rt/include/chstats.h"
 5076              		.file 19 "../../modules/ChibiOS/os/rt/include/chsem.h"
 5077              		.file 20 "../../modules/ChibiOS/os/rt/include/chmtx.h"
 5078              		.file 21 "../../modules/ChibiOS/os/rt/include/chsys.h"
 5079              		.file 22 "../../modules/ChibiOS/os/rt/include/chregistry.h"
 5080              		.file 23 "../../modules/ChibiOS/os/oslib/include/chmemcore.h"
 5081              		.file 24 "../../modules/ChibiOS/os/oslib/include/chmempools.h"
 5082              		.file 25 "../../modules/ChibiOS/os/oslib/include/chfactory.h"
 5083              		.file 26 "../../modules/ChibiOS/ext/fatfs/src/ff.h"
 5084              		.file 27 "/opt/gcc-arm-none-eabi-6-2017-q2-update/lib/gcc/arm-none-eabi/6.3.1/include/stdarg.h"
 5085              		.file 28 "<built-in>"
ARM GAS  /tmp/ccSNToGX.s 			page 91


 5086              		.file 29 "/opt/gcc-arm-none-eabi-6-2017-q2-update/arm-none-eabi/include/sys/_timeval.h"
 5087              		.file 30 "/opt/gcc-arm-none-eabi-6-2017-q2-update/arm-none-eabi/include/sys/types.h"
 5088              		.file 31 "/opt/gcc-arm-none-eabi-6-2017-q2-update/arm-none-eabi/include/time.h"
 5089              		.file 32 "/opt/gcc-arm-none-eabi-6-2017-q2-update/arm-none-eabi/include/sys/errno.h"
 5090              		.file 33 "../../libraries/AP_HAL_ChibiOS/hwdef/common/posix.h"
 5091              		.file 34 "../../libraries/AP_HAL_ChibiOS/hwdef/common/stdio.h"
 5092              		.file 35 "/opt/gcc-arm-none-eabi-6-2017-q2-update/arm-none-eabi/include/string.h"