ARM GAS  /tmp/ccSNToGX.s 			page 1


   1              		.cpu cortex-m4
   2              		.eabi_attribute 27, 1
   3              		.eabi_attribute 28, 1
   4              		.eabi_attribute 20, 1
   5              		.eabi_attribute 21, 1
   6              		.eabi_attribute 23, 3
   7              		.eabi_attribute 24, 1
   8              		.eabi_attribute 25, 1
   9              		.eabi_attribute 26, 1
  10              		.eabi_attribute 30, 4
  11              		.eabi_attribute 34, 1
  12              		.eabi_attribute 18, 4
  13              		.file	"posix.c"
  14              		.text
  15              	.Ltext0:
  16              		.cfi_sections	.debug_frame
  17              		.section	.text.fatfs_getc,"ax",%progbits
  18              		.align	1
  19              		.global	fatfs_getc
  20              		.syntax unified
  21              		.thumb
  22              		.thumb_func
  23              		.fpu fpv4-sp-d16
  24              		.type	fatfs_getc, %function
  25              	fatfs_getc:
  26              	.LFB347:
  27              		.file 1 "../../libraries/AP_HAL_ChibiOS/hwdef/common/posix.c"
  28              		.loc 1 1966 0
  29              		.cfi_startproc
  30              		@ args = 0, pretend = 0, frame = 8
  31              		@ frame_needed = 0, uses_anonymous_args = 0
  32              	.LVL0:
  33 0000 73B5     		push	{r0, r1, r4, r5, r6, lr}
  34              		.cfi_def_cfa_offset 24
  35              		.cfi_offset 4, -16
  36              		.cfi_offset 5, -12
  37              		.cfi_offset 6, -8
  38              		.cfi_offset 14, -4
  39              		.loc 1 1966 0
  40 0002 0546     		mov	r5, r0
  41              		.loc 1 1973 0
  42 0004 FFF7FEFF 		bl	__errno
  43              	.LVL1:
  44 0008 0023     		movs	r3, #0
  45 000a 0360     		str	r3, [r0]
  46              		.loc 1 1975 0
  47 000c 3DB9     		cbnz	r5, .L2
  48              	.L15:
  49              		.loc 1 1984 0
  50 000e FFF7FEFF 		bl	__errno
  51              	.LVL2:
  52 0012 0923     		movs	r3, #9
  53 0014 0360     		str	r3, [r0]
  54              	.L16:
  55              		.loc 1 1993 0
  56 0016 4FF0FF30 		mov	r0, #-1
  57              	.LVL3:
ARM GAS  /tmp/ccSNToGX.s 			page 2


  58              	.L1:
  59              		.loc 1 2040 0
  60 001a 02B0     		add	sp, sp, #8
  61              		.cfi_remember_state
  62              		.cfi_def_cfa_offset 16
  63              		@ sp needed
  64 001c 70BD     		pop	{r4, r5, r6, pc}
  65              	.LVL4:
  66              	.L2:
  67              		.cfi_restore_state
  68              		.loc 1 1981 0
  69 001e AC69     		ldr	r4, [r5, #24]
  70              	.LVL5:
  71              		.loc 1 1982 0
  72 0020 002C     		cmp	r4, #0
  73 0022 F4D0     		beq	.L15
  74              		.loc 1 1988 0
  75 0024 01AB     		add	r3, sp, #4
  76 0026 0122     		movs	r2, #1
  77 0028 0DF10301 		add	r1, sp, #3
  78 002c 2046     		mov	r0, r4
  79 002e FFF7FEFF 		bl	f_read
  80              	.LVL6:
  81              		.loc 1 1989 0
  82 0032 0646     		mov	r6, r0
  83 0034 10B9     		cbnz	r0, .L5
  84              		.loc 1 1989 0 is_stmt 0 discriminator 1
  85 0036 019A     		ldr	r2, [sp, #4]
  86 0038 012A     		cmp	r2, #1
  87 003a 0CD0     		beq	.L6
  88              	.L5:
  89              		.loc 1 1991 0 is_stmt 1
  90 003c FFF7FEFF 		bl	__errno
  91              	.LVL7:
  92 0040 132E     		cmp	r6, #19
  93 0042 96BF     		itet	ls
  94 0044 124B     		ldrls	r3, .L17
  95 0046 4D23     		movhi	r3, #77
  96              	.LVL8:
  97 0048 9B57     		ldrsbls	r3, [r3, r6]
  98 004a 0360     		str	r3, [r0]
  99              		.loc 1 1992 0
 100 004c 6B79     		ldrb	r3, [r5, #5]	@ zero_extendqisi2
 101 004e 43F02003 		orr	r3, r3, #32
 102 0052 6B71     		strb	r3, [r5, #5]
 103 0054 DFE7     		b	.L16
 104              	.LVL9:
 105              	.L6:
 106              		.loc 1 2019 0
 107 0056 9DF80330 		ldrb	r3, [sp, #3]	@ zero_extendqisi2
 108 005a 0D2B     		cmp	r3, #13
 109 005c 15D1     		bne	.L8
 110              		.loc 1 2024 0
 111 005e 01AB     		add	r3, sp, #4
 112 0060 0DF10301 		add	r1, sp, #3
 113 0064 2046     		mov	r0, r4
 114              	.LVL10:
ARM GAS  /tmp/ccSNToGX.s 			page 3


 115              		.loc 1 2022 0
 116 0066 A56B     		ldr	r5, [r4, #56]
 117              	.LVL11:
 118              		.loc 1 2024 0
 119 0068 FFF7FEFF 		bl	f_read
 120              	.LVL12:
 121              		.loc 1 2025 0
 122 006c 58B9     		cbnz	r0, .L11
 123              		.loc 1 2025 0 is_stmt 0 discriminator 1
 124 006e 019B     		ldr	r3, [sp, #4]
 125 0070 012B     		cmp	r3, #1
 126 0072 08D1     		bne	.L11
 127              		.loc 1 2031 0 is_stmt 1
 128 0074 9DF80330 		ldrb	r3, [sp, #3]	@ zero_extendqisi2
 129 0078 0A2B     		cmp	r3, #10
 130 007a 06D0     		beq	.L8
 131              		.loc 1 2034 0
 132 007c 2A46     		mov	r2, r5
 133 007e EB17     		asrs	r3, r5, #31
 134 0080 2046     		mov	r0, r4
 135              	.LVL13:
 136 0082 FFF7FEFF 		bl	f_lseek
 137              	.LVL14:
 138              	.L11:
 139              		.loc 1 2028 0
 140 0086 0A20     		movs	r0, #10
 141 0088 C7E7     		b	.L1
 142              	.LVL15:
 143              	.L8:
 144              		.loc 1 2039 0
 145 008a 9DF80300 		ldrb	r0, [sp, #3]	@ zero_extendqisi2
 146 008e C4E7     		b	.L1
 147              	.L18:
 148              		.align	2
 149              	.L17:
 150 0090 00000000 		.word	.LANCHOR0
 151              		.cfi_endproc
 152              	.LFE347:
 153              		.size	fatfs_getc, .-fatfs_getc
 154              		.section	.text.fatfs_putc,"ax",%progbits
 155              		.align	1
 156              		.global	fatfs_putc
 157              		.syntax unified
 158              		.thumb
 159              		.thumb_func
 160              		.fpu fpv4-sp-d16
 161              		.type	fatfs_putc, %function
 162              	fatfs_putc:
 163              	.LFB348:
 164              		.loc 1 2056 0
 165              		.cfi_startproc
 166              		@ args = 0, pretend = 0, frame = 16
 167              		@ frame_needed = 0, uses_anonymous_args = 0
 168              	.LVL16:
 169 0000 30B5     		push	{r4, r5, lr}
 170              		.cfi_def_cfa_offset 12
 171              		.cfi_offset 4, -12
ARM GAS  /tmp/ccSNToGX.s 			page 4


 172              		.cfi_offset 5, -8
 173              		.cfi_offset 14, -4
 174 0002 85B0     		sub	sp, sp, #20
 175              		.cfi_def_cfa_offset 32
 176              		.loc 1 2056 0
 177 0004 0C46     		mov	r4, r1
 178 0006 8DF80700 		strb	r0, [sp, #7]
 179              		.loc 1 2061 0
 180 000a FFF7FEFF 		bl	__errno
 181              	.LVL17:
 182 000e 0023     		movs	r3, #0
 183 0010 0360     		str	r3, [r0]
 184              		.loc 1 2062 0
 185 0012 3CB9     		cbnz	r4, .L20
 186              	.L28:
 187              		.loc 1 2071 0
 188 0014 FFF7FEFF 		bl	__errno
 189              	.LVL18:
 190 0018 0923     		movs	r3, #9
 191 001a 0360     		str	r3, [r0]
 192              	.L27:
 193              		.loc 1 2080 0
 194 001c 4FF0FF30 		mov	r0, #-1
 195              	.L19:
 196              		.loc 1 2083 0
 197 0020 05B0     		add	sp, sp, #20
 198              		.cfi_remember_state
 199              		.cfi_def_cfa_offset 12
 200              		@ sp needed
 201 0022 30BD     		pop	{r4, r5, pc}
 202              	.LVL19:
 203              	.L20:
 204              		.cfi_restore_state
 205              		.loc 1 2068 0
 206 0024 A069     		ldr	r0, [r4, #24]
 207              	.LVL20:
 208              		.loc 1 2069 0
 209 0026 0028     		cmp	r0, #0
 210 0028 F4D0     		beq	.L28
 211              		.loc 1 2075 0
 212 002a 03AB     		add	r3, sp, #12
 213 002c 0122     		movs	r2, #1
 214 002e 0DF10701 		add	r1, sp, #7
 215 0032 FFF7FEFF 		bl	f_write
 216              	.LVL21:
 217              		.loc 1 2076 0
 218 0036 0546     		mov	r5, r0
 219 0038 10B9     		cbnz	r0, .L23
 220              		.loc 1 2076 0 is_stmt 0 discriminator 1
 221 003a 039B     		ldr	r3, [sp, #12]
 222 003c 012B     		cmp	r3, #1
 223 003e 0CD0     		beq	.L24
 224              	.L23:
 225              		.loc 1 2078 0 is_stmt 1
 226 0040 FFF7FEFF 		bl	__errno
 227              	.LVL22:
 228 0044 132D     		cmp	r5, #19
ARM GAS  /tmp/ccSNToGX.s 			page 5


 229 0046 96BF     		itet	ls
 230 0048 054B     		ldrls	r3, .L29
 231 004a 4D23     		movhi	r3, #77
 232              	.LVL23:
 233 004c 5B57     		ldrsbls	r3, [r3, r5]
 234 004e 0360     		str	r3, [r0]
 235              		.loc 1 2079 0
 236 0050 6379     		ldrb	r3, [r4, #5]	@ zero_extendqisi2
 237 0052 43F02003 		orr	r3, r3, #32
 238 0056 6371     		strb	r3, [r4, #5]
 239 0058 E0E7     		b	.L27
 240              	.LVL24:
 241              	.L24:
 242              		.loc 1 2082 0
 243 005a 9DF80700 		ldrb	r0, [sp, #7]	@ zero_extendqisi2
 244              	.LVL25:
 245 005e DFE7     		b	.L19
 246              	.L30:
 247              		.align	2
 248              	.L29:
 249 0060 00000000 		.word	.LANCHOR0
 250              		.cfi_endproc
 251              	.LFE348:
 252              		.size	fatfs_putc, .-fatfs_putc
 253              		.section	.text.isatty,"ax",%progbits
 254              		.align	1
 255              		.global	isatty
 256              		.syntax unified
 257              		.thumb
 258              		.thumb_func
 259              		.fpu fpv4-sp-d16
 260              		.type	isatty, %function
 261              	isatty:
 262              	.LFB290:
 263              		.loc 1 138 0
 264              		.cfi_startproc
 265              		@ args = 0, pretend = 0, frame = 0
 266              		@ frame_needed = 0, uses_anonymous_args = 0
 267              		@ link register save eliminated.
 268              	.LVL26:
 269              		.loc 1 143 0
 270 0000 0228     		cmp	r0, #2
 271 0002 8CBF     		ite	hi
 272 0004 0020     		movhi	r0, #0
 273              	.LVL27:
 274 0006 0120     		movls	r0, #1
 275 0008 7047     		bx	lr
 276              		.cfi_endproc
 277              	.LFE290:
 278              		.size	isatty, .-isatty
 279              		.section	.text.fgetc,"ax",%progbits
 280              		.align	1
 281              		.global	fgetc
 282              		.syntax unified
 283              		.thumb
 284              		.thumb_func
 285              		.fpu fpv4-sp-d16
ARM GAS  /tmp/ccSNToGX.s 			page 6


 286              		.type	fgetc, %function
 287              	fgetc:
 288              	.LFB291:
 289              		.loc 1 158 0
 290              		.cfi_startproc
 291              		@ args = 0, pretend = 0, frame = 0
 292              		@ frame_needed = 0, uses_anonymous_args = 0
 293              	.LVL28:
 294 0000 10B5     		push	{r4, lr}
 295              		.cfi_def_cfa_offset 8
 296              		.cfi_offset 4, -8
 297              		.cfi_offset 14, -4
 298              		.loc 1 161 0
 299 0002 0446     		mov	r4, r0
 300 0004 30B9     		cbnz	r0, .L33
 301              		.loc 1 163 0
 302 0006 FFF7FEFF 		bl	__errno
 303              	.LVL29:
 304 000a 0923     		movs	r3, #9
 305 000c 0360     		str	r3, [r0]
 306              	.L41:
 307              		.loc 1 168 0
 308 000e 4FF0FF30 		mov	r0, #-1
 309              		.loc 1 200 0
 310 0012 10BD     		pop	{r4, pc}
 311              	.LVL30:
 312              	.L33:
 313              		.loc 1 167 0
 314 0014 4379     		ldrb	r3, [r0, #5]	@ zero_extendqisi2
 315 0016 DA07     		lsls	r2, r3, #31
 316 0018 F9D5     		bpl	.L41
 317              		.loc 1 170 0
 318 001a 5906     		lsls	r1, r3, #25
 319 001c 07D5     		bpl	.L35
 320              		.loc 1 171 0
 321 001e 23F04003 		bic	r3, r3, #64
 322 0022 4371     		strb	r3, [r0, #5]
 323              		.loc 1 172 0
 324 0024 C368     		ldr	r3, [r0, #12]
 325 0026 0133     		adds	r3, r3, #1
 326 0028 C360     		str	r3, [r0, #12]
 327              		.loc 1 173 0
 328 002a 0079     		ldrb	r0, [r0, #4]	@ zero_extendqisi2
 329              	.LVL31:
 330 002c 10BD     		pop	{r4, pc}
 331              	.LVL32:
 332              	.L35:
 333              		.loc 1 176 0
 334 002e 5A07     		lsls	r2, r3, #29
 335 0030 0CD5     		bpl	.L36
 336              		.loc 1 177 0
 337 0032 0268     		ldr	r2, [r0]
 338 0034 1078     		ldrb	r0, [r2]	@ zero_extendqisi2
 339              	.LVL33:
 340              		.loc 1 178 0
 341 0036 18B9     		cbnz	r0, .L37
 342              		.loc 1 179 0
ARM GAS  /tmp/ccSNToGX.s 			page 7


 343 0038 43F02003 		orr	r3, r3, #32
 344              	.LVL34:
 345              	.L43:
 346              		.loc 1 193 0
 347 003c 6371     		strb	r3, [r4, #5]
 348 003e E6E7     		b	.L41
 349              	.LVL35:
 350              	.L37:
 351              		.loc 1 182 0
 352 0040 0132     		adds	r2, r2, #1
 353 0042 2260     		str	r2, [r4]
 354              	.L38:
 355              		.loc 1 198 0
 356 0044 E368     		ldr	r3, [r4, #12]
 357 0046 0133     		adds	r3, r3, #1
 358 0048 E360     		str	r3, [r4, #12]
 359              		.loc 1 199 0
 360 004a 10BD     		pop	{r4, pc}
 361              	.LVL36:
 362              	.L36:
 363              		.loc 1 185 0
 364 004c 4369     		ldr	r3, [r0, #20]
 365 004e 002B     		cmp	r3, #0
 366 0050 DDD0     		beq	.L41
 367              		.loc 1 190 0
 368 0052 9847     		blx	r3
 369              	.LVL37:
 370              		.loc 1 191 0
 371 0054 0028     		cmp	r0, #0
 372 0056 F5DA     		bge	.L38
 373              		.loc 1 193 0
 374 0058 0230     		adds	r0, r0, #2
 375              	.LVL38:
 376 005a 94F90520 		ldrsb	r2, [r4, #5]
 377 005e 0CBF     		ite	eq
 378 0060 1023     		moveq	r3, #16
 379 0062 2023     		movne	r3, #32
 380 0064 1343     		orrs	r3, r3, r2
 381 0066 E9E7     		b	.L43
 382              		.cfi_endproc
 383              	.LFE291:
 384              		.size	fgetc, .-fgetc
 385              		.section	.text.getc,"ax",%progbits
 386              		.align	1
 387              		.global	getc
 388              		.syntax unified
 389              		.thumb
 390              		.thumb_func
 391              		.fpu fpv4-sp-d16
 392              		.type	getc, %function
 393              	getc:
 394              	.LFB292:
 395              		.loc 1 202 0
 396              		.cfi_startproc
 397              		@ args = 0, pretend = 0, frame = 0
 398              		@ frame_needed = 0, uses_anonymous_args = 0
 399              		@ link register save eliminated.
ARM GAS  /tmp/ccSNToGX.s 			page 8


 400              	.LVL39:
 401              		.loc 1 203 0
 402 0000 FFF7FEBF 		b	fgetc
 403              	.LVL40:
 404              		.cfi_endproc
 405              	.LFE292:
 406              		.size	getc, .-getc
 407              		.section	.text.fputc,"ax",%progbits
 408              		.align	1
 409              		.global	fputc
 410              		.syntax unified
 411              		.thumb
 412              		.thumb_func
 413              		.fpu fpv4-sp-d16
 414              		.type	fputc, %function
 415              	fputc:
 416              	.LFB293:
 417              		.loc 1 217 0
 418              		.cfi_startproc
 419              		@ args = 0, pretend = 0, frame = 0
 420              		@ frame_needed = 0, uses_anonymous_args = 0
 421              	.LVL41:
 422 0000 38B5     		push	{r3, r4, r5, lr}
 423              		.cfi_def_cfa_offset 16
 424              		.cfi_offset 3, -16
 425              		.cfi_offset 4, -12
 426              		.cfi_offset 5, -8
 427              		.cfi_offset 14, -4
 428              		.loc 1 217 0
 429 0002 0C46     		mov	r4, r1
 430 0004 0546     		mov	r5, r0
 431              		.loc 1 218 0
 432 0006 FFF7FEFF 		bl	__errno
 433              	.LVL42:
 434 000a 0023     		movs	r3, #0
 435 000c 0360     		str	r3, [r0]
 436              		.loc 1 221 0
 437 000e 154B     		ldr	r3, .L56
 438 0010 5A68     		ldr	r2, [r3, #4]
 439 0012 A242     		cmp	r2, r4
 440 0014 08D0     		beq	.L46
 441              		.loc 1 221 0 is_stmt 0 discriminator 1
 442 0016 9B68     		ldr	r3, [r3, #8]
 443 0018 9C42     		cmp	r4, r3
 444 001a 05D0     		beq	.L46
 445              		.loc 1 223 0 is_stmt 1
 446 001c 2146     		mov	r1, r4
 447 001e E8B2     		uxtb	r0, r5
 448              		.loc 1 246 0
 449 0020 BDE83840 		pop	{r3, r4, r5, lr}
 450              		.cfi_remember_state
 451              		.cfi_restore 14
 452              		.cfi_restore 5
 453              		.cfi_restore 4
 454              		.cfi_restore 3
 455              		.cfi_def_cfa_offset 0
 456              	.LVL43:
ARM GAS  /tmp/ccSNToGX.s 			page 9


 457              		.loc 1 223 0
 458 0024 FFF7FEBF 		b	fatfs_putc
 459              	.LVL44:
 460              	.L46:
 461              		.cfi_restore_state
 462              		.loc 1 228 0
 463 0028 6379     		ldrb	r3, [r4, #5]	@ zero_extendqisi2
 464 002a 9907     		lsls	r1, r3, #30
 465 002c 17D5     		bpl	.L51
 466              		.loc 1 231 0
 467 002e 5A07     		lsls	r2, r3, #29
 468 0030 0BD5     		bpl	.L48
 469              		.loc 1 232 0
 470 0032 E268     		ldr	r2, [r4, #12]
 471 0034 A368     		ldr	r3, [r4, #8]
 472 0036 9A42     		cmp	r2, r3
 473 0038 03DA     		bge	.L55
 474              		.loc 1 233 0
 475 003a 2368     		ldr	r3, [r4]
 476 003c 5A1C     		adds	r2, r3, #1
 477 003e 2260     		str	r2, [r4]
 478 0040 1D70     		strb	r5, [r3]
 479              	.LVL45:
 480              	.L55:
 481              	.LBB96:
 482              	.LBB97:
 483              		.loc 1 243 0
 484 0042 E368     		ldr	r3, [r4, #12]
 485 0044 0133     		adds	r3, r3, #1
 486 0046 E360     		str	r3, [r4, #12]
 487 0048 07E0     		b	.L47
 488              	.LVL46:
 489              	.L48:
 490              		.loc 1 237 0
 491 004a 2369     		ldr	r3, [r4, #16]
 492 004c 3BB1     		cbz	r3, .L51
 493              		.loc 1 241 0
 494 004e E8B2     		uxtb	r0, r5
 495 0050 2146     		mov	r1, r4
 496 0052 9847     		blx	r3
 497              	.LVL47:
 498              		.loc 1 242 0
 499 0054 431C     		adds	r3, r0, #1
 500              		.loc 1 241 0
 501 0056 0546     		mov	r5, r0
 502              	.LVL48:
 503              		.loc 1 242 0
 504 0058 F3D1     		bne	.L55
 505              	.LVL49:
 506              	.L47:
 507              	.LBE97:
 508              	.LBE96:
 509              		.loc 1 246 0
 510 005a 2846     		mov	r0, r5
 511 005c 38BD     		pop	{r3, r4, r5, pc}
 512              	.LVL50:
 513              	.L51:
ARM GAS  /tmp/ccSNToGX.s 			page 10


 514              		.loc 1 229 0
 515 005e 4FF0FF35 		mov	r5, #-1
 516              	.LVL51:
 517 0062 FAE7     		b	.L47
 518              	.L57:
 519              		.align	2
 520              	.L56:
 521 0064 00000000 		.word	.LANCHOR1
 522              		.cfi_endproc
 523              	.LFE293:
 524              		.size	fputc, .-fputc
 525              		.section	.text.clearerr,"ax",%progbits
 526              		.align	1
 527              		.global	clearerr
 528              		.syntax unified
 529              		.thumb
 530              		.thumb_func
 531              		.fpu fpv4-sp-d16
 532              		.type	clearerr, %function
 533              	clearerr:
 534              	.LFB294:
 535              		.loc 1 249 0
 536              		.cfi_startproc
 537              		@ args = 0, pretend = 0, frame = 0
 538              		@ frame_needed = 0, uses_anonymous_args = 0
 539              		@ link register save eliminated.
 540              	.LVL52:
 541              		.loc 1 250 0
 542 0000 0023     		movs	r3, #0
 543 0002 4371     		strb	r3, [r0, #5]
 544 0004 7047     		bx	lr
 545              		.cfi_endproc
 546              	.LFE294:
 547              		.size	clearerr, .-clearerr
 548              		.section	.text.getchar,"ax",%progbits
 549              		.align	1
 550              		.global	getchar
 551              		.syntax unified
 552              		.thumb
 553              		.thumb_func
 554              		.fpu fpv4-sp-d16
 555              		.type	getchar, %function
 556              	getchar:
 557              	.LFB295:
 558              		.loc 1 267 0
 559              		.cfi_startproc
 560              		@ args = 0, pretend = 0, frame = 0
 561              		@ frame_needed = 0, uses_anonymous_args = 0
 562              		@ link register save eliminated.
 563              		.loc 1 268 0
 564 0000 014B     		ldr	r3, .L60
 565 0002 1868     		ldr	r0, [r3]
 566 0004 FFF7FEBF 		b	fgetc
 567              	.LVL53:
 568              	.L61:
 569              		.align	2
 570              	.L60:
ARM GAS  /tmp/ccSNToGX.s 			page 11


 571 0008 00000000 		.word	.LANCHOR1
 572              		.cfi_endproc
 573              	.LFE295:
 574              		.size	getchar, .-getchar
 575              		.section	.text.putchar,"ax",%progbits
 576              		.align	1
 577              		.global	putchar
 578              		.syntax unified
 579              		.thumb
 580              		.thumb_func
 581              		.fpu fpv4-sp-d16
 582              		.type	putchar, %function
 583              	putchar:
 584              	.LFB296:
 585              		.loc 1 282 0
 586              		.cfi_startproc
 587              		@ args = 0, pretend = 0, frame = 0
 588              		@ frame_needed = 0, uses_anonymous_args = 0
 589              		@ link register save eliminated.
 590              	.LVL54:
 591              		.loc 1 283 0
 592 0000 014B     		ldr	r3, .L63
 593 0002 5968     		ldr	r1, [r3, #4]
 594 0004 FFF7FEBF 		b	fputc
 595              	.LVL55:
 596              	.L64:
 597              		.align	2
 598              	.L63:
 599 0008 00000000 		.word	.LANCHOR1
 600              		.cfi_endproc
 601              	.LFE296:
 602              		.size	putchar, .-putchar
 603              		.section	.text.putc,"ax",%progbits
 604              		.align	1
 605              		.global	putc
 606              		.syntax unified
 607              		.thumb
 608              		.thumb_func
 609              		.fpu fpv4-sp-d16
 610              		.type	putc, %function
 611              	putc:
 612              	.LFB297:
 613              		.loc 1 332 0
 614              		.cfi_startproc
 615              		@ args = 0, pretend = 0, frame = 0
 616              		@ frame_needed = 0, uses_anonymous_args = 0
 617              		@ link register save eliminated.
 618              	.LVL56:
 619              		.loc 1 333 0
 620 0000 FFF7FEBF 		b	fputc
 621              	.LVL57:
 622              		.cfi_endproc
 623              	.LFE297:
 624              		.size	putc, .-putc
 625              		.section	.text.fgets,"ax",%progbits
 626              		.align	1
 627              		.global	fgets
ARM GAS  /tmp/ccSNToGX.s 			page 12


 628              		.syntax unified
 629              		.thumb
 630              		.thumb_func
 631              		.fpu fpv4-sp-d16
 632              		.type	fgets, %function
 633              	fgets:
 634              	.LFB298:
 635              		.loc 1 351 0
 636              		.cfi_startproc
 637              		@ args = 0, pretend = 0, frame = 0
 638              		@ frame_needed = 0, uses_anonymous_args = 0
 639              	.LVL58:
 640 0000 F8B5     		push	{r3, r4, r5, r6, r7, lr}
 641              		.cfi_def_cfa_offset 24
 642              		.cfi_offset 3, -24
 643              		.cfi_offset 4, -20
 644              		.cfi_offset 5, -16
 645              		.cfi_offset 6, -12
 646              		.cfi_offset 7, -8
 647              		.cfi_offset 14, -4
 648              		.loc 1 351 0
 649 0002 0546     		mov	r5, r0
 650 0004 1746     		mov	r7, r2
 651 0006 0E46     		mov	r6, r1
 652              		.loc 1 353 0
 653 0008 0024     		movs	r4, #0
 654              	.LVL59:
 655              	.L67:
 656              		.loc 1 354 0
 657 000a 2EB1     		cbz	r6, .L70
 658              		.loc 1 356 0
 659 000c 3846     		mov	r0, r7
 660 000e FFF7FEFF 		bl	fgetc
 661              	.LVL60:
 662              		.loc 1 357 0
 663 0012 431C     		adds	r3, r0, #1
 664 0014 04D1     		bne	.L68
 665              		.loc 1 359 0
 666 0016 74B1     		cbz	r4, .L74
 667              	.LVL61:
 668              	.L70:
 669              		.loc 1 373 0
 670 0018 0023     		movs	r3, #0
 671 001a 2B55     		strb	r3, [r5, r4]
 672              	.LVL62:
 673              	.L69:
 674              		.loc 1 375 0
 675 001c 2846     		mov	r0, r5
 676 001e F8BD     		pop	{r3, r4, r5, r6, r7, pc}
 677              	.LVL63:
 678              	.L68:
 679              		.loc 1 363 0
 680 0020 0A28     		cmp	r0, #10
 681 0022 F9D0     		beq	.L70
 682              		.loc 1 365 0
 683 0024 0828     		cmp	r0, #8
 684 0026 03D1     		bne	.L71
ARM GAS  /tmp/ccSNToGX.s 			page 13


 685              		.loc 1 367 0
 686 0028 04B1     		cbz	r4, .L72
 687              		.loc 1 368 0
 688 002a 013C     		subs	r4, r4, #1
 689              	.LVL64:
 690              	.L72:
 691 002c 013E     		subs	r6, r6, #1
 692              	.LVL65:
 693 002e ECE7     		b	.L67
 694              	.LVL66:
 695              	.L71:
 696              		.loc 1 371 0
 697 0030 2855     		strb	r0, [r5, r4]
 698 0032 0134     		adds	r4, r4, #1
 699              	.LVL67:
 700 0034 FAE7     		b	.L72
 701              	.L74:
 702              		.loc 1 360 0
 703 0036 2546     		mov	r5, r4
 704              	.LVL68:
 705 0038 F0E7     		b	.L69
 706              		.cfi_endproc
 707              	.LFE298:
 708              		.size	fgets, .-fgets
 709              		.section	.text.gets,"ax",%progbits
 710              		.align	1
 711              		.global	gets
 712              		.syntax unified
 713              		.thumb
 714              		.thumb_func
 715              		.fpu fpv4-sp-d16
 716              		.type	gets, %function
 717              	gets:
 718              	.LFB299:
 719              		.loc 1 382 0
 720              		.cfi_startproc
 721              		@ args = 0, pretend = 0, frame = 0
 722              		@ frame_needed = 0, uses_anonymous_args = 0
 723              	.LVL69:
 724 0000 38B5     		push	{r3, r4, r5, lr}
 725              		.cfi_def_cfa_offset 16
 726              		.cfi_offset 3, -16
 727              		.cfi_offset 4, -12
 728              		.cfi_offset 5, -8
 729              		.cfi_offset 14, -4
 730              		.loc 1 386 0
 731 0002 0A4B     		ldr	r3, .L89
 732 0004 8021     		movs	r1, #128
 733 0006 1A68     		ldr	r2, [r3]
 734              		.loc 1 382 0
 735 0008 0446     		mov	r4, r0
 736              		.loc 1 386 0
 737 000a FFF7FEFF 		bl	fgets
 738              	.LVL70:
 739              		.loc 1 387 0
 740 000e 0546     		mov	r5, r0
 741 0010 48B1     		cbz	r0, .L81
ARM GAS  /tmp/ccSNToGX.s 			page 14


 742              		.loc 1 389 0
 743 0012 2046     		mov	r0, r4
 744              	.LVL71:
 745 0014 FFF7FEFF 		bl	strlen
 746              	.LVL72:
 747              		.loc 1 390 0
 748 0018 28B1     		cbz	r0, .L81
 749              		.loc 1 390 0 is_stmt 0 discriminator 1
 750 001a 0138     		subs	r0, r0, #1
 751              	.LVL73:
 752 001c 235C     		ldrb	r3, [r4, r0]	@ zero_extendqisi2
 753 001e 0A2B     		cmp	r3, #10
 754              		.loc 1 391 0 is_stmt 1 discriminator 1
 755 0020 04BF     		itt	eq
 756 0022 0023     		moveq	r3, #0
 757 0024 2354     		strbeq	r3, [r4, r0]
 758              	.LVL74:
 759              	.L81:
 760              		.loc 1 393 0
 761 0026 2846     		mov	r0, r5
 762 0028 38BD     		pop	{r3, r4, r5, pc}
 763              	.LVL75:
 764              	.L90:
 765 002a 00BF     		.align	2
 766              	.L89:
 767 002c 00000000 		.word	.LANCHOR1
 768              		.cfi_endproc
 769              	.LFE299:
 770              		.size	gets, .-gets
 771              		.section	.text.fputs,"ax",%progbits
 772              		.align	1
 773              		.global	fputs
 774              		.syntax unified
 775              		.thumb
 776              		.thumb_func
 777              		.fpu fpv4-sp-d16
 778              		.type	fputs, %function
 779              	fputs:
 780              	.LFB300:
 781              		.loc 1 405 0
 782              		.cfi_startproc
 783              		@ args = 0, pretend = 0, frame = 0
 784              		@ frame_needed = 0, uses_anonymous_args = 0
 785              	.LVL76:
 786 0000 38B5     		push	{r3, r4, r5, lr}
 787              		.cfi_def_cfa_offset 16
 788              		.cfi_offset 3, -16
 789              		.cfi_offset 4, -12
 790              		.cfi_offset 5, -8
 791              		.cfi_offset 14, -4
 792              		.loc 1 405 0
 793 0002 0D46     		mov	r5, r1
 794 0004 441E     		subs	r4, r0, #1
 795              	.LVL77:
 796              	.L92:
 797              		.loc 1 406 0
 798 0006 14F8010F 		ldrb	r0, [r4, #1]!	@ zero_extendqisi2
ARM GAS  /tmp/ccSNToGX.s 			page 15


 799              	.LVL78:
 800 000a 20B1     		cbz	r0, .L91
 801              		.loc 1 408 0
 802 000c 2946     		mov	r1, r5
 803 000e FFF7FEFF 		bl	fputc
 804              	.LVL79:
 805 0012 431C     		adds	r3, r0, #1
 806 0014 F7D1     		bne	.L92
 807              	.L91:
 808              		.loc 1 413 0
 809 0016 38BD     		pop	{r3, r4, r5, pc}
 810              		.cfi_endproc
 811              	.LFE300:
 812              		.size	fputs, .-fputs
 813              		.section	.text.puts,"ax",%progbits
 814              		.align	1
 815              		.global	puts
 816              		.syntax unified
 817              		.thumb
 818              		.thumb_func
 819              		.fpu fpv4-sp-d16
 820              		.type	puts, %function
 821              	puts:
 822              	.LFB301:
 823              		.loc 1 428 0
 824              		.cfi_startproc
 825              		@ args = 0, pretend = 0, frame = 0
 826              		@ frame_needed = 0, uses_anonymous_args = 0
 827              	.LVL80:
 828 0000 38B5     		push	{r3, r4, r5, lr}
 829              		.cfi_def_cfa_offset 16
 830              		.cfi_offset 3, -16
 831              		.cfi_offset 4, -12
 832              		.cfi_offset 5, -8
 833              		.cfi_offset 14, -4
 834 0002 084C     		ldr	r4, .L102
 835 0004 451E     		subs	r5, r0, #1
 836              	.LVL81:
 837              	.L99:
 838              		.loc 1 429 0
 839 0006 15F8010F 		ldrb	r0, [r5, #1]!	@ zero_extendqisi2
 840              	.LVL82:
 841              		.loc 1 431 0
 842 000a 6168     		ldr	r1, [r4, #4]
 843              		.loc 1 429 0
 844 000c 20B9     		cbnz	r0, .L101
 845              		.loc 1 435 0
 846 000e 0A20     		movs	r0, #10
 847              		.loc 1 436 0
 848 0010 BDE83840 		pop	{r3, r4, r5, lr}
 849              		.cfi_remember_state
 850              		.cfi_restore 14
 851              		.cfi_restore 5
 852              		.cfi_restore 4
 853              		.cfi_restore 3
 854              		.cfi_def_cfa_offset 0
 855              	.LVL83:
ARM GAS  /tmp/ccSNToGX.s 			page 16


 856              		.loc 1 435 0
 857 0014 FFF7FEBF 		b	fputc
 858              	.LVL84:
 859              	.L101:
 860              		.cfi_restore_state
 861              		.loc 1 431 0
 862 0018 FFF7FEFF 		bl	fputc
 863              	.LVL85:
 864 001c 431C     		adds	r3, r0, #1
 865 001e F2D1     		bne	.L99
 866              		.loc 1 436 0
 867 0020 38BD     		pop	{r3, r4, r5, pc}
 868              	.LVL86:
 869              	.L103:
 870 0022 00BF     		.align	2
 871              	.L102:
 872 0024 00000000 		.word	.LANCHOR1
 873              		.cfi_endproc
 874              	.LFE301:
 875              		.size	puts, .-puts
 876              		.section	.text.feof,"ax",%progbits
 877              		.align	1
 878              		.global	feof
 879              		.syntax unified
 880              		.thumb
 881              		.thumb_func
 882              		.fpu fpv4-sp-d16
 883              		.type	feof, %function
 884              	feof:
 885              	.LFB302:
 886              		.loc 1 453 0
 887              		.cfi_startproc
 888              		@ args = 0, pretend = 0, frame = 0
 889              		@ frame_needed = 0, uses_anonymous_args = 0
 890              		@ link register save eliminated.
 891              	.LVL87:
 892              		.loc 1 454 0
 893 0000 4079     		ldrb	r0, [r0, #5]	@ zero_extendqisi2
 894              	.LVL88:
 895              		.loc 1 457 0
 896 0002 C0F34010 		ubfx	r0, r0, #5, #1
 897 0006 7047     		bx	lr
 898              		.cfi_endproc
 899              	.LFE302:
 900              		.size	feof, .-feof
 901              		.section	.text.fileno,"ax",%progbits
 902              		.align	1
 903              		.global	fileno
 904              		.syntax unified
 905              		.thumb
 906              		.thumb_func
 907              		.fpu fpv4-sp-d16
 908              		.type	fileno, %function
 909              	fileno:
 910              	.LFB310:
 911              		.loc 1 667 0
 912              		.cfi_startproc
ARM GAS  /tmp/ccSNToGX.s 			page 17


 913              		@ args = 0, pretend = 0, frame = 0
 914              		@ frame_needed = 0, uses_anonymous_args = 0
 915              	.LVL89:
 916 0000 08B5     		push	{r3, lr}
 917              		.cfi_def_cfa_offset 8
 918              		.cfi_offset 3, -8
 919              		.cfi_offset 14, -4
 920              		.loc 1 670 0
 921 0002 38B9     		cbnz	r0, .L106
 922              	.LVL90:
 923              	.LBB102:
 924              	.LBB103:
 925              		.loc 1 2341 0
 926 0004 FFF7FEFF 		bl	__errno
 927              	.LVL91:
 928 0008 0923     		movs	r3, #9
 929 000a 0360     		str	r3, [r0]
 930              	.L110:
 931              	.LBE103:
 932              	.LBE102:
 933              		.loc 1 681 0
 934 000c 4FF0FF33 		mov	r3, #-1
 935              	.L105:
 936              		.loc 1 682 0
 937 0010 1846     		mov	r0, r3
 938 0012 08BD     		pop	{r3, pc}
 939              	.LVL92:
 940              	.L106:
 941              		.loc 1 678 0
 942 0014 044A     		ldr	r2, .L111
 943 0016 0023     		movs	r3, #0
 944              	.L108:
 945              	.LVL93:
 946 0018 52F82310 		ldr	r1, [r2, r3, lsl #2]
 947 001c 8842     		cmp	r0, r1
 948 001e F7D0     		beq	.L105
 949              		.loc 1 676 0 discriminator 2
 950 0020 0133     		adds	r3, r3, #1
 951              	.LVL94:
 952 0022 102B     		cmp	r3, #16
 953 0024 F8D1     		bne	.L108
 954 0026 F1E7     		b	.L110
 955              	.L112:
 956              		.align	2
 957              	.L111:
 958 0028 00000000 		.word	.LANCHOR1
 959              		.cfi_endproc
 960              	.LFE310:
 961              		.size	fileno, .-fileno
 962              		.section	.text.fileno_to_stream,"ax",%progbits
 963              		.align	1
 964              		.global	fileno_to_stream
 965              		.syntax unified
 966              		.thumb
 967              		.thumb_func
 968              		.fpu fpv4-sp-d16
 969              		.type	fileno_to_stream, %function
ARM GAS  /tmp/ccSNToGX.s 			page 18


 970              	fileno_to_stream:
 971              	.LFB311:
 972              		.loc 1 697 0
 973              		.cfi_startproc
 974              		@ args = 0, pretend = 0, frame = 0
 975              		@ frame_needed = 0, uses_anonymous_args = 0
 976              	.LVL95:
 977              		.loc 1 699 0
 978 0000 0F28     		cmp	r0, #15
 979              		.loc 1 697 0
 980 0002 10B5     		push	{r4, lr}
 981              		.cfi_def_cfa_offset 8
 982              		.cfi_offset 4, -8
 983              		.cfi_offset 14, -4
 984              		.loc 1 699 0
 985 0004 06D9     		bls	.L114
 986              		.loc 1 701 0
 987 0006 FFF7FEFF 		bl	__errno
 988              	.LVL96:
 989 000a 0923     		movs	r3, #9
 990 000c 0360     		str	r3, [r0]
 991              		.loc 1 702 0
 992 000e 0024     		movs	r4, #0
 993              	.L113:
 994              		.loc 1 712 0
 995 0010 2046     		mov	r0, r4
 996 0012 10BD     		pop	{r4, pc}
 997              	.LVL97:
 998              	.L114:
 999              		.loc 1 705 0
 1000 0014 044B     		ldr	r3, .L116
 1001 0016 53F82040 		ldr	r4, [r3, r0, lsl #2]
 1002              	.LVL98:
 1003              		.loc 1 706 0
 1004 001a 002C     		cmp	r4, #0
 1005 001c F8D1     		bne	.L113
 1006              	.LVL99:
 1007              	.LBB106:
 1008              	.LBB107:
 1009              		.loc 1 708 0
 1010 001e FFF7FEFF 		bl	__errno
 1011              	.LVL100:
 1012 0022 0923     		movs	r3, #9
 1013 0024 0360     		str	r3, [r0]
 1014              	.LVL101:
 1015 0026 F3E7     		b	.L113
 1016              	.L117:
 1017              		.align	2
 1018              	.L116:
 1019 0028 00000000 		.word	.LANCHOR1
 1020              	.LBE107:
 1021              	.LBE106:
 1022              		.cfi_endproc
 1023              	.LFE311:
 1024              		.size	fileno_to_stream, .-fileno_to_stream
 1025              		.section	.text.truncate,"ax",%progbits
 1026              		.align	1
ARM GAS  /tmp/ccSNToGX.s 			page 19


 1027              		.global	truncate
 1028              		.syntax unified
 1029              		.thumb
 1030              		.thumb_func
 1031              		.fpu fpv4-sp-d16
 1032              		.type	truncate, %function
 1033              	truncate:
 1034              	.LFB320:
 1035              		.loc 1 1084 0
 1036              		.cfi_startproc
 1037              		@ args = 0, pretend = 0, frame = 592
 1038              		@ frame_needed = 0, uses_anonymous_args = 0
 1039              	.LVL102:
 1040 0000 30B5     		push	{r4, r5, lr}
 1041              		.cfi_def_cfa_offset 12
 1042              		.cfi_offset 4, -12
 1043              		.cfi_offset 5, -8
 1044              		.cfi_offset 14, -4
 1045 0002 ADF5157D 		sub	sp, sp, #596
 1046              		.cfi_def_cfa_offset 608
 1047              		.loc 1 1084 0
 1048 0006 0446     		mov	r4, r0
 1049 0008 0D46     		mov	r5, r1
 1050              		.loc 1 1085 0
 1051 000a FFF7FEFF 		bl	__errno
 1052              	.LVL103:
 1053 000e 0023     		movs	r3, #0
 1054 0010 0360     		str	r3, [r0]
 1055              		.loc 1 1089 0
 1056 0012 2146     		mov	r1, r4
 1057 0014 0322     		movs	r2, #3
 1058 0016 6846     		mov	r0, sp
 1059 0018 FFF7FEFF 		bl	f_open
 1060              	.LVL104:
 1061              		.loc 1 1090 0
 1062 001c 0446     		mov	r4, r0
 1063              	.LVL105:
 1064 001e 60B1     		cbz	r0, .L119
 1065              	.L131:
 1066              		.loc 1 1104 0
 1067 0020 FFF7FEFF 		bl	__errno
 1068              	.LVL106:
 1069 0024 132C     		cmp	r4, #19
 1070 0026 96BF     		itet	ls
 1071 0028 0B4B     		ldrls	r3, .L133
 1072 002a 4D23     		movhi	r3, #77
 1073              	.LVL107:
 1074 002c 1B57     		ldrsbls	r3, [r3, r4]
 1075 002e 0360     		str	r3, [r0]
 1076              		.loc 1 1105 0
 1077 0030 4FF0FF30 		mov	r0, #-1
 1078              	.L118:
 1079              		.loc 1 1108 0
 1080 0034 0DF5157D 		add	sp, sp, #596
 1081              		.cfi_remember_state
 1082              		.cfi_def_cfa_offset 12
 1083              		@ sp needed
ARM GAS  /tmp/ccSNToGX.s 			page 20


 1084 0038 30BD     		pop	{r4, r5, pc}
 1085              	.LVL108:
 1086              	.L119:
 1087              		.cfi_restore_state
 1088              		.loc 1 1095 0
 1089 003a 2A46     		mov	r2, r5
 1090 003c EB17     		asrs	r3, r5, #31
 1091 003e 6846     		mov	r0, sp
 1092              	.LVL109:
 1093 0040 FFF7FEFF 		bl	f_lseek
 1094              	.LVL110:
 1095              		.loc 1 1096 0
 1096 0044 0446     		mov	r4, r0
 1097 0046 0028     		cmp	r0, #0
 1098 0048 EAD1     		bne	.L131
 1099              		.loc 1 1101 0
 1100 004a 6846     		mov	r0, sp
 1101              	.LVL111:
 1102 004c FFF7FEFF 		bl	f_truncate
 1103              	.LVL112:
 1104              		.loc 1 1102 0
 1105 0050 0446     		mov	r4, r0
 1106 0052 0028     		cmp	r0, #0
 1107 0054 E4D1     		bne	.L131
 1108 0056 EDE7     		b	.L118
 1109              	.L134:
 1110              		.align	2
 1111              	.L133:
 1112 0058 00000000 		.word	.LANCHOR0
 1113              		.cfi_endproc
 1114              	.LFE320:
 1115              		.size	truncate, .-truncate
 1116              		.section	.text.fs_getfree,"ax",%progbits
 1117              		.align	1
 1118              		.global	fs_getfree
 1119              		.syntax unified
 1120              		.thumb
 1121              		.thumb_func
 1122              		.fpu fpv4-sp-d16
 1123              		.type	fs_getfree, %function
 1124              	fs_getfree:
 1125              	.LFB326:
 1126              		.loc 1 1357 0
 1127              		.cfi_startproc
 1128              		@ args = 0, pretend = 0, frame = 8
 1129              		@ frame_needed = 0, uses_anonymous_args = 0
 1130 0000 07B5     		push	{r0, r1, r2, lr}
 1131              		.cfi_def_cfa_offset 16
 1132              		.cfi_offset 14, -4
 1133              		.loc 1 1363 0
 1134 0002 0A48     		ldr	r0, .L138
 1135 0004 6A46     		mov	r2, sp
 1136 0006 01A9     		add	r1, sp, #4
 1137 0008 FFF7FEFF 		bl	f_getfree
 1138              	.LVL113:
 1139              		.loc 1 1364 0
 1140 000c 30B1     		cbz	r0, .L136
ARM GAS  /tmp/ccSNToGX.s 			page 21


 1141              		.loc 1 1364 0 is_stmt 0 discriminator 1
 1142 000e C2B2     		uxtb	r2, r0
 1143 0010 0023     		movs	r3, #0
 1144              	.L135:
 1145              		.loc 1 1369 0 is_stmt 1
 1146 0012 1046     		mov	r0, r2
 1147              	.LVL114:
 1148 0014 1946     		mov	r1, r3
 1149 0016 03B0     		add	sp, sp, #12
 1150              		.cfi_remember_state
 1151              		.cfi_def_cfa_offset 4
 1152              		@ sp needed
 1153 0018 5DF804FB 		ldr	pc, [sp], #4
 1154              	.LVL115:
 1155              	.L136:
 1156              		.cfi_restore_state
 1157              		.loc 1 1367 0
 1158 001c 009B     		ldr	r3, [sp]
 1159 001e 0199     		ldr	r1, [sp, #4]
 1160 0020 5B89     		ldrh	r3, [r3, #10]
 1161 0022 5943     		muls	r1, r3, r1
 1162              		.loc 1 1368 0
 1163 0024 CB0D     		lsrs	r3, r1, #23
 1164 0026 4A02     		lsls	r2, r1, #9
 1165 0028 F3E7     		b	.L135
 1166              	.L139:
 1167 002a 00BF     		.align	2
 1168              	.L138:
 1169 002c 00000000 		.word	.LC1
 1170              		.cfi_endproc
 1171              	.LFE326:
 1172              		.size	fs_getfree, .-fs_getfree
 1173              		.section	.text.fs_gettotal,"ax",%progbits
 1174              		.align	1
 1175              		.global	fs_gettotal
 1176              		.syntax unified
 1177              		.thumb
 1178              		.thumb_func
 1179              		.fpu fpv4-sp-d16
 1180              		.type	fs_gettotal, %function
 1181              	fs_gettotal:
 1182              	.LFB327:
 1183              		.loc 1 1372 0
 1184              		.cfi_startproc
 1185              		@ args = 0, pretend = 0, frame = 8
 1186              		@ frame_needed = 0, uses_anonymous_args = 0
 1187 0000 07B5     		push	{r0, r1, r2, lr}
 1188              		.cfi_def_cfa_offset 16
 1189              		.cfi_offset 14, -4
 1190              		.loc 1 1378 0
 1191 0002 0A48     		ldr	r0, .L143
 1192 0004 6A46     		mov	r2, sp
 1193 0006 01A9     		add	r1, sp, #4
 1194 0008 FFF7FEFF 		bl	f_getfree
 1195              	.LVL116:
 1196              		.loc 1 1379 0
 1197 000c 30B1     		cbz	r0, .L141
ARM GAS  /tmp/ccSNToGX.s 			page 22


 1198              		.loc 1 1379 0 is_stmt 0 discriminator 1
 1199 000e C2B2     		uxtb	r2, r0
 1200 0010 0023     		movs	r3, #0
 1201              	.L140:
 1202              		.loc 1 1384 0 is_stmt 1
 1203 0012 1046     		mov	r0, r2
 1204              	.LVL117:
 1205 0014 1946     		mov	r1, r3
 1206 0016 03B0     		add	sp, sp, #12
 1207              		.cfi_remember_state
 1208              		.cfi_def_cfa_offset 4
 1209              		@ sp needed
 1210 0018 5DF804FB 		ldr	pc, [sp], #4
 1211              	.LVL118:
 1212              	.L141:
 1213              		.cfi_restore_state
 1214              		.loc 1 1382 0
 1215 001c 009A     		ldr	r2, [sp]
 1216              	.LVL119:
 1217 001e 116B     		ldr	r1, [r2, #48]
 1218 0020 8B1E     		subs	r3, r1, #2
 1219 0022 5189     		ldrh	r1, [r2, #10]
 1220 0024 5943     		muls	r1, r3, r1
 1221              	.LVL120:
 1222              		.loc 1 1383 0
 1223 0026 CB0D     		lsrs	r3, r1, #23
 1224 0028 4A02     		lsls	r2, r1, #9
 1225 002a F2E7     		b	.L140
 1226              	.L144:
 1227              		.align	2
 1228              	.L143:
 1229 002c 00000000 		.word	.LC1
 1230              		.cfi_endproc
 1231              	.LFE327:
 1232              		.size	fs_gettotal, .-fs_gettotal
 1233              		.section	.text.basename,"ax",%progbits
 1234              		.align	1
 1235              		.global	basename
 1236              		.syntax unified
 1237              		.thumb
 1238              		.thumb_func
 1239              		.fpu fpv4-sp-d16
 1240              		.type	basename, %function
 1241              	basename:
 1242              	.LFB328:
 1243              		.loc 1 1399 0
 1244              		.cfi_startproc
 1245              		@ args = 0, pretend = 0, frame = 0
 1246              		@ frame_needed = 0, uses_anonymous_args = 0
 1247              		@ link register save eliminated.
 1248              	.LVL121:
 1249              		.loc 1 1401 0
 1250 0000 40B1     		cbz	r0, .L150
 1251 0002 0346     		mov	r3, r0
 1252              	.LVL122:
 1253              	.L147:
 1254              		.loc 1 1403 0
ARM GAS  /tmp/ccSNToGX.s 			page 23


 1255 0004 13F8012B 		ldrb	r2, [r3], #1	@ zero_extendqisi2
 1256              	.LVL123:
 1257 0008 02B9     		cbnz	r2, .L149
 1258 000a 7047     		bx	lr
 1259              	.L149:
 1260              	.LVL124:
 1261              		.loc 1 1406 0
 1262 000c 2F2A     		cmp	r2, #47
 1263 000e 08BF     		it	eq
 1264 0010 1846     		moveq	r0, r3
 1265              	.LVL125:
 1266 0012 F7E7     		b	.L147
 1267              	.LVL126:
 1268              	.L150:
 1269              		.loc 1 1402 0
 1270 0014 0048     		ldr	r0, .L151
 1271              	.LVL127:
 1272              		.loc 1 1410 0
 1273 0016 7047     		bx	lr
 1274              	.L152:
 1275              		.align	2
 1276              	.L151:
 1277 0018 00000000 		.word	.LC2
 1278              		.cfi_endproc
 1279              	.LFE328:
 1280              		.size	basename, .-basename
 1281              		.section	.text.baseext,"ax",%progbits
 1282              		.align	1
 1283              		.global	baseext
 1284              		.syntax unified
 1285              		.thumb
 1286              		.thumb_func
 1287              		.fpu fpv4-sp-d16
 1288              		.type	baseext, %function
 1289              	baseext:
 1290              	.LFB329:
 1291              		.loc 1 1420 0
 1292              		.cfi_startproc
 1293              		@ args = 0, pretend = 0, frame = 0
 1294              		@ frame_needed = 0, uses_anonymous_args = 0
 1295              		@ link register save eliminated.
 1296              	.LVL128:
 1297              		.loc 1 1421 0
 1298 0000 044B     		ldr	r3, .L157
 1299              	.LVL129:
 1300              	.L154:
 1301              		.loc 1 1423 0
 1302 0002 10F8012B 		ldrb	r2, [r0], #1	@ zero_extendqisi2
 1303              	.LVL130:
 1304 0006 0AB9     		cbnz	r2, .L156
 1305              		.loc 1 1429 0
 1306 0008 1846     		mov	r0, r3
 1307              	.LVL131:
 1308 000a 7047     		bx	lr
 1309              	.LVL132:
 1310              	.L156:
 1311              		.loc 1 1426 0
ARM GAS  /tmp/ccSNToGX.s 			page 24


 1312 000c 2E2A     		cmp	r2, #46
 1313 000e 08BF     		it	eq
 1314 0010 0346     		moveq	r3, r0
 1315              	.LVL133:
 1316 0012 F6E7     		b	.L154
 1317              	.L158:
 1318              		.align	2
 1319              	.L157:
 1320 0014 00000000 		.word	.LC2
 1321              		.cfi_endproc
 1322              	.LFE329:
 1323              		.size	baseext, .-baseext
 1324              		.section	.text.chdir,"ax",%progbits
 1325              		.align	1
 1326              		.global	chdir
 1327              		.syntax unified
 1328              		.thumb
 1329              		.thumb_func
 1330              		.fpu fpv4-sp-d16
 1331              		.type	chdir, %function
 1332              	chdir:
 1333              	.LFB330:
 1334              		.loc 1 1442 0
 1335              		.cfi_startproc
 1336              		@ args = 0, pretend = 0, frame = 0
 1337              		@ frame_needed = 0, uses_anonymous_args = 0
 1338              	.LVL134:
 1339 0000 10B5     		push	{r4, lr}
 1340              		.cfi_def_cfa_offset 8
 1341              		.cfi_offset 4, -8
 1342              		.cfi_offset 14, -4
 1343              		.loc 1 1442 0
 1344 0002 0446     		mov	r4, r0
 1345              		.loc 1 1443 0
 1346 0004 FFF7FEFF 		bl	__errno
 1347              	.LVL135:
 1348 0008 0023     		movs	r3, #0
 1349 000a 0360     		str	r3, [r0]
 1350              		.loc 1 1445 0
 1351 000c 2046     		mov	r0, r4
 1352 000e FFF7FEFF 		bl	f_chdir
 1353              	.LVL136:
 1354              		.loc 1 1446 0
 1355 0012 0446     		mov	r4, r0
 1356              	.LVL137:
 1357 0014 50B1     		cbz	r0, .L162
 1358              		.loc 1 1448 0
 1359 0016 FFF7FEFF 		bl	__errno
 1360              	.LVL138:
 1361 001a 132C     		cmp	r4, #19
 1362 001c 96BF     		itet	ls
 1363 001e 044B     		ldrls	r3, .L164
 1364 0020 4D23     		movhi	r3, #77
 1365              	.LVL139:
 1366 0022 1B57     		ldrsbls	r3, [r3, r4]
 1367 0024 0360     		str	r3, [r0]
 1368              		.loc 1 1449 0
ARM GAS  /tmp/ccSNToGX.s 			page 25


 1369 0026 4FF0FF30 		mov	r0, #-1
 1370 002a 10BD     		pop	{r4, pc}
 1371              	.LVL140:
 1372              	.L162:
 1373              		.loc 1 1452 0
 1374 002c 10BD     		pop	{r4, pc}
 1375              	.L165:
 1376 002e 00BF     		.align	2
 1377              	.L164:
 1378 0030 00000000 		.word	.LANCHOR0
 1379              		.cfi_endproc
 1380              	.LFE330:
 1381              		.size	chdir, .-chdir
 1382              		.section	.text.chmod,"ax",%progbits
 1383              		.align	1
 1384              		.global	chmod
 1385              		.syntax unified
 1386              		.thumb
 1387              		.thumb_func
 1388              		.fpu fpv4-sp-d16
 1389              		.type	chmod, %function
 1390              	chmod:
 1391              	.LFB331:
 1392              		.loc 1 1467 0
 1393              		.cfi_startproc
 1394              		@ args = 0, pretend = 0, frame = 0
 1395              		@ frame_needed = 0, uses_anonymous_args = 0
 1396              	.LVL141:
 1397 0000 38B5     		push	{r3, r4, r5, lr}
 1398              		.cfi_def_cfa_offset 16
 1399              		.cfi_offset 3, -16
 1400              		.cfi_offset 4, -12
 1401              		.cfi_offset 5, -8
 1402              		.cfi_offset 14, -4
 1403              		.loc 1 1467 0
 1404 0002 0D46     		mov	r5, r1
 1405 0004 0446     		mov	r4, r0
 1406              		.loc 1 1469 0
 1407 0006 FFF7FEFF 		bl	__errno
 1408              	.LVL142:
 1409 000a 0023     		movs	r3, #0
 1410              		.loc 1 1474 0
 1411 000c 15F0920F 		tst	r5, #146
 1412              		.loc 1 1469 0
 1413 0010 0360     		str	r3, [r0]
 1414              		.loc 1 1474 0
 1415 0012 01D0     		beq	.L167
 1416              	.LVL143:
 1417              	.L169:
 1418              		.loc 1 1485 0
 1419 0014 0020     		movs	r0, #0
 1420 0016 38BD     		pop	{r3, r4, r5, pc}
 1421              	.LVL144:
 1422              	.L167:
 1423              	.LBB111:
 1424              	.LBB112:
 1425              		.loc 1 1477 0
ARM GAS  /tmp/ccSNToGX.s 			page 26


 1426 0018 0122     		movs	r2, #1
 1427 001a 2046     		mov	r0, r4
 1428 001c 1146     		mov	r1, r2
 1429 001e FFF7FEFF 		bl	f_chmod
 1430              	.LVL145:
 1431              		.loc 1 1478 0
 1432 0022 0446     		mov	r4, r0
 1433              	.LVL146:
 1434 0024 0028     		cmp	r0, #0
 1435 0026 F5D0     		beq	.L169
 1436              		.loc 1 1480 0
 1437 0028 FFF7FEFF 		bl	__errno
 1438              	.LVL147:
 1439 002c 132C     		cmp	r4, #19
 1440 002e 96BF     		itet	ls
 1441 0030 034B     		ldrls	r3, .L175
 1442 0032 4D23     		movhi	r3, #77
 1443              	.LVL148:
 1444 0034 1B57     		ldrsbls	r3, [r3, r4]
 1445 0036 0360     		str	r3, [r0]
 1446              		.loc 1 1481 0
 1447 0038 4FF0FF30 		mov	r0, #-1
 1448              	.LBE112:
 1449              	.LBE111:
 1450              		.loc 1 1486 0
 1451 003c 38BD     		pop	{r3, r4, r5, pc}
 1452              	.LVL149:
 1453              	.L176:
 1454 003e 00BF     		.align	2
 1455              	.L175:
 1456 0040 00000000 		.word	.LANCHOR0
 1457              		.cfi_endproc
 1458              	.LFE331:
 1459              		.size	chmod, .-chmod
 1460              		.section	.text.dirname,"ax",%progbits
 1461              		.align	1
 1462              		.global	dirname
 1463              		.syntax unified
 1464              		.thumb
 1465              		.thumb_func
 1466              		.fpu fpv4-sp-d16
 1467              		.type	dirname, %function
 1468              	dirname:
 1469              	.LFB332:
 1470              		.loc 1 1505 0
 1471              		.cfi_startproc
 1472              		@ args = 0, pretend = 0, frame = 0
 1473              		@ frame_needed = 0, uses_anonymous_args = 0
 1474              	.LVL150:
 1475 0000 10B5     		push	{r4, lr}
 1476              		.cfi_def_cfa_offset 8
 1477              		.cfi_offset 4, -8
 1478              		.cfi_offset 14, -4
 1479              		.loc 1 1509 0
 1480 0002 58B1     		cbz	r0, .L182
 1481 0004 0246     		mov	r2, r0
 1482 0006 0023     		movs	r3, #0
ARM GAS  /tmp/ccSNToGX.s 			page 27


 1483              	.LVL151:
 1484              	.L179:
 1485 0008 141A     		subs	r4, r2, r0
 1486              	.LVL152:
 1487              		.loc 1 1512 0
 1488 000a 12F8011B 		ldrb	r1, [r2], #1	@ zero_extendqisi2
 1489              	.LVL153:
 1490 000e 09B9     		cbnz	r1, .L181
 1491              	.LVL154:
 1492              	.L177:
 1493              		.loc 1 1520 0
 1494 0010 1846     		mov	r0, r3
 1495 0012 10BD     		pop	{r4, pc}
 1496              	.LVL155:
 1497              	.L181:
 1498              		.loc 1 1515 0
 1499 0014 2F29     		cmp	r1, #47
 1500 0016 08BF     		it	eq
 1501 0018 2346     		moveq	r3, r4
 1502              	.LVL156:
 1503 001a F5E7     		b	.L179
 1504              	.LVL157:
 1505              	.L182:
 1506              		.loc 1 1510 0
 1507 001c 0346     		mov	r3, r0
 1508 001e F7E7     		b	.L177
 1509              		.cfi_endproc
 1510              	.LFE332:
 1511              		.size	dirname, .-dirname
 1512              		.section	.text.getcwd,"ax",%progbits
 1513              		.align	1
 1514              		.global	getcwd
 1515              		.syntax unified
 1516              		.thumb
 1517              		.thumb_func
 1518              		.fpu fpv4-sp-d16
 1519              		.type	getcwd, %function
 1520              	getcwd:
 1521              	.LFB333:
 1522              		.loc 1 1550 0
 1523              		.cfi_startproc
 1524              		@ args = 0, pretend = 0, frame = 0
 1525              		@ frame_needed = 0, uses_anonymous_args = 0
 1526              	.LVL158:
 1527 0000 38B5     		push	{r3, r4, r5, lr}
 1528              		.cfi_def_cfa_offset 16
 1529              		.cfi_offset 3, -16
 1530              		.cfi_offset 4, -12
 1531              		.cfi_offset 5, -8
 1532              		.cfi_offset 14, -4
 1533              		.loc 1 1550 0
 1534 0002 0D46     		mov	r5, r1
 1535 0004 0446     		mov	r4, r0
 1536              		.loc 1 1552 0
 1537 0006 FFF7FEFF 		bl	__errno
 1538              	.LVL159:
 1539 000a 0023     		movs	r3, #0
ARM GAS  /tmp/ccSNToGX.s 			page 28


 1540 000c 0360     		str	r3, [r0]
 1541              		.loc 1 1554 0
 1542 000e 2946     		mov	r1, r5
 1543 0010 2046     		mov	r0, r4
 1544 0012 FFF7FEFF 		bl	f_getcwd
 1545              	.LVL160:
 1546              		.loc 1 1555 0
 1547 0016 0546     		mov	r5, r0
 1548              	.LVL161:
 1549 0018 40B1     		cbz	r0, .L184
 1550              		.loc 1 1557 0
 1551 001a FFF7FEFF 		bl	__errno
 1552              	.LVL162:
 1553 001e 132D     		cmp	r5, #19
 1554 0020 96BF     		itet	ls
 1555 0022 034B     		ldrls	r3, .L190
 1556 0024 4D23     		movhi	r3, #77
 1557              	.LVL163:
 1558 0026 5B57     		ldrsbls	r3, [r3, r5]
 1559 0028 0360     		str	r3, [r0]
 1560              		.loc 1 1558 0
 1561 002a 0024     		movs	r4, #0
 1562              	.LVL164:
 1563              	.L184:
 1564              		.loc 1 1561 0
 1565 002c 2046     		mov	r0, r4
 1566 002e 38BD     		pop	{r3, r4, r5, pc}
 1567              	.L191:
 1568              		.align	2
 1569              	.L190:
 1570 0030 00000000 		.word	.LANCHOR0
 1571              		.cfi_endproc
 1572              	.LFE333:
 1573              		.size	getcwd, .-getcwd
 1574              		.section	.text.mkdir,"ax",%progbits
 1575              		.align	1
 1576              		.global	mkdir
 1577              		.syntax unified
 1578              		.thumb
 1579              		.thumb_func
 1580              		.fpu fpv4-sp-d16
 1581              		.type	mkdir, %function
 1582              	mkdir:
 1583              	.LFB334:
 1584              		.loc 1 1573 0
 1585              		.cfi_startproc
 1586              		@ args = 0, pretend = 0, frame = 0
 1587              		@ frame_needed = 0, uses_anonymous_args = 0
 1588              	.LVL165:
 1589 0000 70B5     		push	{r4, r5, r6, lr}
 1590              		.cfi_def_cfa_offset 16
 1591              		.cfi_offset 4, -16
 1592              		.cfi_offset 5, -12
 1593              		.cfi_offset 6, -8
 1594              		.cfi_offset 14, -4
 1595              		.loc 1 1573 0
 1596 0002 0646     		mov	r6, r0
ARM GAS  /tmp/ccSNToGX.s 			page 29


 1597 0004 0C46     		mov	r4, r1
 1598              		.loc 1 1574 0
 1599 0006 FFF7FEFF 		bl	__errno
 1600              	.LVL166:
 1601 000a 0023     		movs	r3, #0
 1602 000c 0360     		str	r3, [r0]
 1603              		.loc 1 1576 0
 1604 000e 3046     		mov	r0, r6
 1605 0010 FFF7FEFF 		bl	f_mkdir
 1606              	.LVL167:
 1607              		.loc 1 1577 0
 1608 0014 0546     		mov	r5, r0
 1609 0016 50B1     		cbz	r0, .L193
 1610              		.loc 1 1579 0
 1611 0018 FFF7FEFF 		bl	__errno
 1612              	.LVL168:
 1613 001c 132D     		cmp	r5, #19
 1614 001e 96BF     		itet	ls
 1615 0020 074B     		ldrls	r3, .L198
 1616 0022 4D23     		movhi	r3, #77
 1617              	.LVL169:
 1618 0024 5B57     		ldrsbls	r3, [r3, r5]
 1619 0026 0360     		str	r3, [r0]
 1620              		.loc 1 1580 0
 1621 0028 4FF0FF30 		mov	r0, #-1
 1622 002c 70BD     		pop	{r4, r5, r6, pc}
 1623              	.LVL170:
 1624              	.L193:
 1625              		.loc 1 1583 0
 1626 002e 2CB1     		cbz	r4, .L197
 1627              		.loc 1 1584 0
 1628 0030 2146     		mov	r1, r4
 1629 0032 3046     		mov	r0, r6
 1630              	.LVL171:
 1631 0034 FFF7FEFF 		bl	chmod
 1632              	.LVL172:
 1633              		.loc 1 1587 0
 1634 0038 2846     		mov	r0, r5
 1635 003a 70BD     		pop	{r4, r5, r6, pc}
 1636              	.LVL173:
 1637              	.L197:
 1638 003c 2046     		mov	r0, r4
 1639              	.LVL174:
 1640              		.loc 1 1588 0
 1641 003e 70BD     		pop	{r4, r5, r6, pc}
 1642              	.LVL175:
 1643              	.L199:
 1644              		.align	2
 1645              	.L198:
 1646 0040 00000000 		.word	.LANCHOR0
 1647              		.cfi_endproc
 1648              	.LFE334:
 1649              		.size	mkdir, .-mkdir
 1650              		.section	.text.rename,"ax",%progbits
 1651              		.align	1
 1652              		.global	rename
 1653              		.syntax unified
ARM GAS  /tmp/ccSNToGX.s 			page 30


 1654              		.thumb
 1655              		.thumb_func
 1656              		.fpu fpv4-sp-d16
 1657              		.type	rename, %function
 1658              	rename:
 1659              	.LFB335:
 1660              		.loc 1 1601 0
 1661              		.cfi_startproc
 1662              		@ args = 0, pretend = 0, frame = 0
 1663              		@ frame_needed = 0, uses_anonymous_args = 0
 1664              	.LVL176:
 1665 0000 38B5     		push	{r3, r4, r5, lr}
 1666              		.cfi_def_cfa_offset 16
 1667              		.cfi_offset 3, -16
 1668              		.cfi_offset 4, -12
 1669              		.cfi_offset 5, -8
 1670              		.cfi_offset 14, -4
 1671              		.loc 1 1601 0
 1672 0002 0446     		mov	r4, r0
 1673 0004 0D46     		mov	r5, r1
 1674              		.loc 1 1604 0
 1675 0006 FFF7FEFF 		bl	__errno
 1676              	.LVL177:
 1677 000a 0023     		movs	r3, #0
 1678 000c 0360     		str	r3, [r0]
 1679              		.loc 1 1605 0
 1680 000e 2946     		mov	r1, r5
 1681 0010 2046     		mov	r0, r4
 1682 0012 FFF7FEFF 		bl	f_rename
 1683              	.LVL178:
 1684              		.loc 1 1606 0
 1685 0016 0446     		mov	r4, r0
 1686              	.LVL179:
 1687 0018 50B1     		cbz	r0, .L203
 1688              		.loc 1 1608 0
 1689 001a FFF7FEFF 		bl	__errno
 1690              	.LVL180:
 1691 001e 132C     		cmp	r4, #19
 1692 0020 96BF     		itet	ls
 1693 0022 044B     		ldrls	r3, .L205
 1694 0024 4D23     		movhi	r3, #77
 1695              	.LVL181:
 1696 0026 1B57     		ldrsbls	r3, [r3, r4]
 1697 0028 0360     		str	r3, [r0]
 1698              		.loc 1 1609 0
 1699 002a 4FF0FF30 		mov	r0, #-1
 1700 002e 38BD     		pop	{r3, r4, r5, pc}
 1701              	.LVL182:
 1702              	.L203:
 1703              		.loc 1 1612 0
 1704 0030 38BD     		pop	{r3, r4, r5, pc}
 1705              	.LVL183:
 1706              	.L206:
 1707 0032 00BF     		.align	2
 1708              	.L205:
 1709 0034 00000000 		.word	.LANCHOR0
 1710              		.cfi_endproc
ARM GAS  /tmp/ccSNToGX.s 			page 31


 1711              	.LFE335:
 1712              		.size	rename, .-rename
 1713              		.section	.text.remove,"ax",%progbits
 1714              		.align	1
 1715              		.global	remove
 1716              		.syntax unified
 1717              		.thumb
 1718              		.thumb_func
 1719              		.fpu fpv4-sp-d16
 1720              		.type	remove, %function
 1721              	remove:
 1722              	.LFB338:
 1723              		.loc 1 1659 0
 1724              		.cfi_startproc
 1725              		@ args = 0, pretend = 0, frame = 0
 1726              		@ frame_needed = 0, uses_anonymous_args = 0
 1727              	.LVL184:
 1728 0000 10B5     		push	{r4, lr}
 1729              		.cfi_def_cfa_offset 8
 1730              		.cfi_offset 4, -8
 1731              		.cfi_offset 14, -4
 1732              		.loc 1 1659 0
 1733 0002 0446     		mov	r4, r0
 1734              		.loc 1 1660 0
 1735 0004 FFF7FEFF 		bl	__errno
 1736              	.LVL185:
 1737 0008 0023     		movs	r3, #0
 1738 000a 0360     		str	r3, [r0]
 1739              		.loc 1 1661 0
 1740 000c 2046     		mov	r0, r4
 1741 000e FFF7FEFF 		bl	f_unlink
 1742              	.LVL186:
 1743              		.loc 1 1662 0
 1744 0012 0446     		mov	r4, r0
 1745              	.LVL187:
 1746 0014 50B1     		cbz	r0, .L210
 1747              		.loc 1 1664 0
 1748 0016 FFF7FEFF 		bl	__errno
 1749              	.LVL188:
 1750 001a 132C     		cmp	r4, #19
 1751 001c 96BF     		itet	ls
 1752 001e 044B     		ldrls	r3, .L212
 1753 0020 4D23     		movhi	r3, #77
 1754              	.LVL189:
 1755 0022 1B57     		ldrsbls	r3, [r3, r4]
 1756 0024 0360     		str	r3, [r0]
 1757              		.loc 1 1665 0
 1758 0026 4FF0FF30 		mov	r0, #-1
 1759 002a 10BD     		pop	{r4, pc}
 1760              	.LVL190:
 1761              	.L210:
 1762              		.loc 1 1668 0
 1763 002c 10BD     		pop	{r4, pc}
 1764              	.L213:
 1765 002e 00BF     		.align	2
 1766              	.L212:
 1767 0030 00000000 		.word	.LANCHOR0
ARM GAS  /tmp/ccSNToGX.s 			page 32


 1768              		.cfi_endproc
 1769              	.LFE338:
 1770              		.size	remove, .-remove
 1771              		.section	.text.unlink,"ax",%progbits
 1772              		.align	1
 1773              		.global	unlink
 1774              		.syntax unified
 1775              		.thumb
 1776              		.thumb_func
 1777              		.fpu fpv4-sp-d16
 1778              		.type	unlink, %function
 1779              	unlink:
 1780              	.LFB372:
 1781              		.cfi_startproc
 1782              		@ args = 0, pretend = 0, frame = 0
 1783              		@ frame_needed = 0, uses_anonymous_args = 0
 1784              		@ link register save eliminated.
 1785 0000 FFF7FEBF 		b	remove
 1786              		.cfi_endproc
 1787              	.LFE372:
 1788              		.size	unlink, .-unlink
 1789              		.section	.text.rmdir,"ax",%progbits
 1790              		.align	1
 1791              		.global	rmdir
 1792              		.syntax unified
 1793              		.thumb
 1794              		.thumb_func
 1795              		.fpu fpv4-sp-d16
 1796              		.type	rmdir, %function
 1797              	rmdir:
 1798              	.LFB374:
 1799              		.cfi_startproc
 1800              		@ args = 0, pretend = 0, frame = 0
 1801              		@ frame_needed = 0, uses_anonymous_args = 0
 1802              		@ link register save eliminated.
 1803 0000 FFF7FEBF 		b	remove
 1804              		.cfi_endproc
 1805              	.LFE374:
 1806              		.size	rmdir, .-rmdir
 1807              		.section	.text.closedir,"ax",%progbits
 1808              		.align	1
 1809              		.global	closedir
 1810              		.syntax unified
 1811              		.thumb
 1812              		.thumb_func
 1813              		.fpu fpv4-sp-d16
 1814              		.type	closedir, %function
 1815              	closedir:
 1816              	.LFB339:
 1817              		.loc 1 1683 0
 1818              		.cfi_startproc
 1819              		@ args = 0, pretend = 0, frame = 0
 1820              		@ frame_needed = 0, uses_anonymous_args = 0
 1821              	.LVL191:
 1822              		.loc 1 1683 0
 1823 0000 10B5     		push	{r4, lr}
 1824              		.cfi_def_cfa_offset 8
ARM GAS  /tmp/ccSNToGX.s 			page 33


 1825              		.cfi_offset 4, -8
 1826              		.cfi_offset 14, -4
 1827              		.loc 1 1684 0
 1828 0002 FFF7FEFF 		bl	f_closedir
 1829              	.LVL192:
 1830              		.loc 1 1685 0
 1831 0006 0446     		mov	r4, r0
 1832 0008 50B1     		cbz	r0, .L219
 1833              		.loc 1 1687 0
 1834 000a FFF7FEFF 		bl	__errno
 1835              	.LVL193:
 1836 000e 132C     		cmp	r4, #19
 1837 0010 96BF     		itet	ls
 1838 0012 044B     		ldrls	r3, .L221
 1839 0014 4D23     		movhi	r3, #77
 1840              	.LVL194:
 1841 0016 1B57     		ldrsbls	r3, [r3, r4]
 1842 0018 0360     		str	r3, [r0]
 1843              		.loc 1 1688 0
 1844 001a 4FF0FF30 		mov	r0, #-1
 1845 001e 10BD     		pop	{r4, pc}
 1846              	.LVL195:
 1847              	.L219:
 1848              		.loc 1 1691 0
 1849 0020 10BD     		pop	{r4, pc}
 1850              	.L222:
 1851 0022 00BF     		.align	2
 1852              	.L221:
 1853 0024 00000000 		.word	.LANCHOR0
 1854              		.cfi_endproc
 1855              	.LFE339:
 1856              		.size	closedir, .-closedir
 1857              		.section	.text.opendir,"ax",%progbits
 1858              		.align	1
 1859              		.global	opendir
 1860              		.syntax unified
 1861              		.thumb
 1862              		.thumb_func
 1863              		.fpu fpv4-sp-d16
 1864              		.type	opendir, %function
 1865              	opendir:
 1866              	.LFB340:
 1867              		.loc 1 1702 0
 1868              		.cfi_startproc
 1869              		@ args = 0, pretend = 0, frame = 0
 1870              		@ frame_needed = 0, uses_anonymous_args = 0
 1871              	.LVL196:
 1872 0000 10B5     		push	{r4, lr}
 1873              		.cfi_def_cfa_offset 8
 1874              		.cfi_offset 4, -8
 1875              		.cfi_offset 14, -4
 1876              		.loc 1 1703 0
 1877 0002 0146     		mov	r1, r0
 1878 0004 0848     		ldr	r0, .L228
 1879              	.LVL197:
 1880 0006 FFF7FEFF 		bl	f_opendir
 1881              	.LVL198:
ARM GAS  /tmp/ccSNToGX.s 			page 34


 1882              		.loc 1 1704 0
 1883 000a 0446     		mov	r4, r0
 1884 000c 48B1     		cbz	r0, .L226
 1885              		.loc 1 1706 0
 1886 000e FFF7FEFF 		bl	__errno
 1887              	.LVL199:
 1888 0012 132C     		cmp	r4, #19
 1889 0014 96BF     		itet	ls
 1890 0016 054B     		ldrls	r3, .L228+4
 1891 0018 4D23     		movhi	r3, #77
 1892              	.LVL200:
 1893 001a 1B57     		ldrsbls	r3, [r3, r4]
 1894 001c 0360     		str	r3, [r0]
 1895              		.loc 1 1707 0
 1896 001e 0020     		movs	r0, #0
 1897 0020 10BD     		pop	{r4, pc}
 1898              	.LVL201:
 1899              	.L226:
 1900              		.loc 1 1709 0
 1901 0022 0148     		ldr	r0, .L228
 1902              	.LVL202:
 1903              		.loc 1 1710 0
 1904 0024 10BD     		pop	{r4, pc}
 1905              	.L229:
 1906 0026 00BF     		.align	2
 1907              	.L228:
 1908 0028 00000000 		.word	.LANCHOR2
 1909 002c 00000000 		.word	.LANCHOR0
 1910              		.cfi_endproc
 1911              	.LFE340:
 1912              		.size	opendir, .-opendir
 1913              		.section	.text.readdir,"ax",%progbits
 1914              		.align	1
 1915              		.global	readdir
 1916              		.syntax unified
 1917              		.thumb
 1918              		.thumb_func
 1919              		.fpu fpv4-sp-d16
 1920              		.type	readdir, %function
 1921              	readdir:
 1922              	.LFB341:
 1923              		.loc 1 1721 0
 1924              		.cfi_startproc
 1925              		@ args = 0, pretend = 0, frame = 288
 1926              		@ frame_needed = 0, uses_anonymous_args = 0
 1927              	.LVL203:
 1928 0000 70B5     		push	{r4, r5, r6, lr}
 1929              		.cfi_def_cfa_offset 16
 1930              		.cfi_offset 4, -16
 1931              		.cfi_offset 5, -12
 1932              		.cfi_offset 6, -8
 1933              		.cfi_offset 14, -4
 1934              		.loc 1 1726 0
 1935 0002 124C     		ldr	r4, .L236
 1936              		.loc 1 1721 0
 1937 0004 C8B0     		sub	sp, sp, #288
 1938              		.cfi_def_cfa_offset 304
ARM GAS  /tmp/ccSNToGX.s 			page 35


 1939              		.loc 1 1726 0
 1940 0006 0023     		movs	r3, #0
 1941              		.loc 1 1727 0
 1942 0008 6946     		mov	r1, sp
 1943              		.loc 1 1726 0
 1944 000a 2370     		strb	r3, [r4]
 1945              		.loc 1 1727 0
 1946 000c FFF7FEFF 		bl	f_readdir
 1947              	.LVL204:
 1948              		.loc 1 1728 0
 1949 0010 0546     		mov	r5, r0
 1950 0012 10B9     		cbnz	r0, .L231
 1951              		.loc 1 1728 0 is_stmt 0 discriminator 1
 1952 0014 9DF81A30 		ldrb	r3, [sp, #26]	@ zero_extendqisi2
 1953 0018 53B9     		cbnz	r3, .L232
 1954              	.L231:
 1955              		.loc 1 1730 0 is_stmt 1
 1956 001a FFF7FEFF 		bl	__errno
 1957              	.LVL205:
 1958 001e 132D     		cmp	r5, #19
 1959 0020 96BF     		itet	ls
 1960 0022 0B4B     		ldrls	r3, .L236+4
 1961 0024 4D23     		movhi	r3, #77
 1962              	.LVL206:
 1963 0026 5B57     		ldrsbls	r3, [r3, r5]
 1964 0028 0360     		str	r3, [r0]
 1965              		.loc 1 1731 0
 1966 002a 0020     		movs	r0, #0
 1967              	.L230:
 1968              		.loc 1 1737 0
 1969 002c 48B0     		add	sp, sp, #288
 1970              		.cfi_remember_state
 1971              		.cfi_def_cfa_offset 16
 1972              		@ sp needed
 1973 002e 70BD     		pop	{r4, r5, r6, pc}
 1974              	.LVL207:
 1975              	.L232:
 1976              		.cfi_restore_state
 1977              		.loc 1 1733 0
 1978 0030 0DF11A00 		add	r0, sp, #26
 1979              	.LVL208:
 1980 0034 FFF7FEFF 		bl	strlen
 1981              	.LVL209:
 1982 0038 0646     		mov	r6, r0
 1983              	.LVL210:
 1984              		.loc 1 1734 0
 1985 003a 0246     		mov	r2, r0
 1986 003c 0DF11A01 		add	r1, sp, #26
 1987 0040 2046     		mov	r0, r4
 1988              	.LVL211:
 1989 0042 FFF7FEFF 		bl	strncpy
 1990              	.LVL212:
 1991              		.loc 1 1735 0
 1992 0046 A555     		strb	r5, [r4, r6]
 1993              		.loc 1 1736 0
 1994 0048 2046     		mov	r0, r4
 1995 004a EFE7     		b	.L230
ARM GAS  /tmp/ccSNToGX.s 			page 36


 1996              	.L237:
 1997              		.align	2
 1998              	.L236:
 1999 004c 00000000 		.word	.LANCHOR3
 2000 0050 00000000 		.word	.LANCHOR0
 2001              		.cfi_endproc
 2002              	.LFE341:
 2003              		.size	readdir, .-readdir
 2004              		.section	.text.clrerror,"ax",%progbits
 2005              		.align	1
 2006              		.global	clrerror
 2007              		.syntax unified
 2008              		.thumb
 2009              		.thumb_func
 2010              		.fpu fpv4-sp-d16
 2011              		.type	clrerror, %function
 2012              	clrerror:
 2013              	.LFB342:
 2014              		.loc 1 1752 0
 2015              		.cfi_startproc
 2016              		@ args = 0, pretend = 0, frame = 0
 2017              		@ frame_needed = 0, uses_anonymous_args = 0
 2018              		@ link register save eliminated.
 2019              	.LVL213:
 2020              		.loc 1 1754 0
 2021 0000 4379     		ldrb	r3, [r0, #5]	@ zero_extendqisi2
 2022 0002 23F03003 		bic	r3, r3, #48
 2023 0006 4371     		strb	r3, [r0, #5]
 2024 0008 7047     		bx	lr
 2025              		.cfi_endproc
 2026              	.LFE342:
 2027              		.size	clrerror, .-clrerror
 2028              		.section	.text.ferror,"ax",%progbits
 2029              		.align	1
 2030              		.global	ferror
 2031              		.syntax unified
 2032              		.thumb
 2033              		.thumb_func
 2034              		.fpu fpv4-sp-d16
 2035              		.type	ferror, %function
 2036              	ferror:
 2037              	.LFB343:
 2038              		.loc 1 1764 0
 2039              		.cfi_startproc
 2040              		@ args = 0, pretend = 0, frame = 0
 2041              		@ frame_needed = 0, uses_anonymous_args = 0
 2042              		@ link register save eliminated.
 2043              	.LVL214:
 2044              		.loc 1 1765 0
 2045 0000 4079     		ldrb	r0, [r0, #5]	@ zero_extendqisi2
 2046              	.LVL215:
 2047              		.loc 1 1768 0
 2048 0002 C0F30010 		ubfx	r0, r0, #4, #1
 2049 0006 7047     		bx	lr
 2050              		.cfi_endproc
 2051              	.LFE343:
 2052              		.size	ferror, .-ferror
ARM GAS  /tmp/ccSNToGX.s 			page 37


 2053              		.section	.text.strerror,"ax",%progbits
 2054              		.align	1
 2055              		.global	strerror
 2056              		.syntax unified
 2057              		.thumb
 2058              		.thumb_func
 2059              		.fpu fpv4-sp-d16
 2060              		.type	strerror, %function
 2061              	strerror:
 2062              	.LFB344:
 2063              		.loc 1 1780 0
 2064              		.cfi_startproc
 2065              		@ args = 0, pretend = 0, frame = 0
 2066              		@ frame_needed = 0, uses_anonymous_args = 0
 2067              		@ link register save eliminated.
 2068              	.LVL216:
 2069 0000 0138     		subs	r0, r0, #1
 2070              	.LVL217:
 2071 0002 4C28     		cmp	r0, #76
 2072 0004 9ABF     		itte	ls
 2073 0006 024B     		ldrls	r3, .L243
 2074 0008 53F82000 		ldrls	r0, [r3, r0, lsl #2]
 2075              	.LVL218:
 2076              		.loc 1 1782 0
 2077 000c 0020     		movhi	r0, #0
 2078              		.loc 1 1825 0
 2079 000e 7047     		bx	lr
 2080              	.L244:
 2081              		.align	2
 2082              	.L243:
 2083 0010 00000000 		.word	.LANCHOR4
 2084              		.cfi_endproc
 2085              	.LFE344:
 2086              		.size	strerror, .-strerror
 2087              		.section	.text.__wrap_strerror_r,"ax",%progbits
 2088              		.align	1
 2089              		.global	__wrap_strerror_r
 2090              		.syntax unified
 2091              		.thumb
 2092              		.thumb_func
 2093              		.fpu fpv4-sp-d16
 2094              		.type	__wrap_strerror_r, %function
 2095              	__wrap_strerror_r:
 2096              	.LFB345:
 2097              		.loc 1 1839 0
 2098              		.cfi_startproc
 2099              		@ args = 0, pretend = 0, frame = 0
 2100              		@ frame_needed = 0, uses_anonymous_args = 0
 2101              	.LVL219:
 2102 0000 10B5     		push	{r4, lr}
 2103              		.cfi_def_cfa_offset 8
 2104              		.cfi_offset 4, -8
 2105              		.cfi_offset 14, -4
 2106              		.loc 1 1839 0
 2107 0002 0C46     		mov	r4, r1
 2108              		.loc 1 1840 0
 2109 0004 FFF7FEFF 		bl	strerror
ARM GAS  /tmp/ccSNToGX.s 			page 38


 2110              	.LVL220:
 2111 0008 0146     		mov	r1, r0
 2112              	.LVL221:
 2113 000a 2046     		mov	r0, r4
 2114 000c FFF7FEFF 		bl	strncpy
 2115              	.LVL222:
 2116              		.loc 1 1842 0
 2117 0010 2046     		mov	r0, r4
 2118 0012 10BD     		pop	{r4, pc}
 2119              		.cfi_endproc
 2120              	.LFE345:
 2121              		.size	__wrap_strerror_r, .-__wrap_strerror_r
 2122              		.section	.text.fdevopen,"ax",%progbits
 2123              		.align	1
 2124              		.global	fdevopen
 2125              		.syntax unified
 2126              		.thumb
 2127              		.thumb_func
 2128              		.fpu fpv4-sp-d16
 2129              		.type	fdevopen, %function
 2130              	fdevopen:
 2131              	.LFB346:
 2132              		.loc 1 1857 0
 2133              		.cfi_startproc
 2134              		@ args = 0, pretend = 0, frame = 0
 2135              		@ frame_needed = 0, uses_anonymous_args = 0
 2136              	.LVL223:
 2137 0000 38B5     		push	{r3, r4, r5, lr}
 2138              		.cfi_def_cfa_offset 16
 2139              		.cfi_offset 3, -16
 2140              		.cfi_offset 4, -12
 2141              		.cfi_offset 5, -8
 2142              		.cfi_offset 14, -4
 2143              		.loc 1 1857 0
 2144 0002 0D46     		mov	r5, r1
 2145              		.loc 1 1860 0
 2146 0004 0446     		mov	r4, r0
 2147 0006 10B9     		cbnz	r0, .L247
 2148              		.loc 1 1860 0 is_stmt 0 discriminator 1
 2149 0008 09B9     		cbnz	r1, .L247
 2150              	.LVL224:
 2151              	.L249:
 2152              		.loc 1 1861 0 is_stmt 1
 2153 000a 0020     		movs	r0, #0
 2154 000c 38BD     		pop	{r3, r4, r5, pc}
 2155              	.LVL225:
 2156              	.L247:
 2157              		.loc 1 1863 0
 2158 000e 1C21     		movs	r1, #28
 2159              	.LVL226:
 2160 0010 0120     		movs	r0, #1
 2161              	.LVL227:
 2162 0012 FFF7FEFF 		bl	calloc
 2163              	.LVL228:
 2164 0016 0028     		cmp	r0, #0
 2165 0018 F7D0     		beq	.L249
 2166              		.loc 1 1866 0
ARM GAS  /tmp/ccSNToGX.s 			page 39


 2167 001a 8023     		movs	r3, #128
 2168 001c 4371     		strb	r3, [r0, #5]
 2169              		.loc 1 1868 0
 2170 001e 35B1     		cbz	r5, .L251
 2171              		.loc 1 1870 0
 2172 0020 8123     		movs	r3, #129
 2173 0022 4371     		strb	r3, [r0, #5]
 2174              		.loc 1 1873 0
 2175 0024 094B     		ldr	r3, .L260
 2176              		.loc 1 1869 0
 2177 0026 4561     		str	r5, [r0, #20]
 2178              		.loc 1 1873 0
 2179 0028 1A68     		ldr	r2, [r3]
 2180 002a 02B9     		cbnz	r2, .L251
 2181              		.loc 1 1874 0
 2182 002c 1860     		str	r0, [r3]
 2183              	.L251:
 2184              		.loc 1 1877 0
 2185 002e 5CB1     		cbz	r4, .L246
 2186              		.loc 1 1879 0
 2187 0030 4379     		ldrb	r3, [r0, #5]	@ zero_extendqisi2
 2188              		.loc 1 1878 0
 2189 0032 0461     		str	r4, [r0, #16]
 2190              		.loc 1 1879 0
 2191 0034 43F00203 		orr	r3, r3, #2
 2192 0038 4371     		strb	r3, [r0, #5]
 2193              		.loc 1 1883 0
 2194 003a 044B     		ldr	r3, .L260
 2195 003c 5A68     		ldr	r2, [r3, #4]
 2196 003e 02B9     		cbnz	r2, .L253
 2197              		.loc 1 1884 0
 2198 0040 5860     		str	r0, [r3, #4]
 2199              	.L253:
 2200              		.loc 1 1885 0
 2201 0042 9A68     		ldr	r2, [r3, #8]
 2202 0044 02B9     		cbnz	r2, .L246
 2203              		.loc 1 1886 0
 2204 0046 9860     		str	r0, [r3, #8]
 2205              	.L246:
 2206              		.loc 1 1890 0
 2207 0048 38BD     		pop	{r3, r4, r5, pc}
 2208              	.LVL229:
 2209              	.L261:
 2210 004a 00BF     		.align	2
 2211              	.L260:
 2212 004c 00000000 		.word	.LANCHOR1
 2213              		.cfi_endproc
 2214              	.LFE346:
 2215              		.size	fdevopen, .-fdevopen
 2216              		.section	.text.fatfs_to_errno,"ax",%progbits
 2217              		.align	1
 2218              		.global	fatfs_to_errno
 2219              		.syntax unified
 2220              		.thumb
 2221              		.thumb_func
 2222              		.fpu fpv4-sp-d16
 2223              		.type	fatfs_to_errno, %function
ARM GAS  /tmp/ccSNToGX.s 			page 40


 2224              	fatfs_to_errno:
 2225              	.LFB349:
 2226              		.loc 1 2096 0
 2227              		.cfi_startproc
 2228              		@ args = 0, pretend = 0, frame = 0
 2229              		@ frame_needed = 0, uses_anonymous_args = 0
 2230              		@ link register save eliminated.
 2231              	.LVL230:
 2232 0000 1328     		cmp	r0, #19
 2233 0002 9ABF     		itte	ls
 2234 0004 014B     		ldrls	r3, .L265
 2235 0006 1856     		ldrsbls	r0, [r3, r0]
 2236              	.LVL231:
 2237              		.loc 1 2096 0
 2238 0008 4D20     		movhi	r0, #77
 2239              		.loc 1 2161 0
 2240 000a 7047     		bx	lr
 2241              	.L266:
 2242              		.align	2
 2243              	.L265:
 2244 000c 00000000 		.word	.LANCHOR0
 2245              		.cfi_endproc
 2246              	.LFE349:
 2247              		.size	fatfs_to_errno, .-fatfs_to_errno
 2248              		.section	.text.fatfs_to_fileno,"ax",%progbits
 2249              		.align	1
 2250              		.global	fatfs_to_fileno
 2251              		.syntax unified
 2252              		.thumb
 2253              		.thumb_func
 2254              		.fpu fpv4-sp-d16
 2255              		.type	fatfs_to_fileno, %function
 2256              	fatfs_to_fileno:
 2257              	.LFB350:
 2258              		.loc 1 2173 0
 2259              		.cfi_startproc
 2260              		@ args = 0, pretend = 0, frame = 0
 2261              		@ frame_needed = 0, uses_anonymous_args = 0
 2262              	.LVL232:
 2263 0000 08B5     		push	{r3, lr}
 2264              		.cfi_def_cfa_offset 8
 2265              		.cfi_offset 3, -8
 2266              		.cfi_offset 14, -4
 2267              		.loc 1 2178 0
 2268 0002 38B9     		cbnz	r0, .L268
 2269              	.L276:
 2270              		.loc 1 2193 0
 2271 0004 FFF7FEFF 		bl	__errno
 2272              	.LVL233:
 2273 0008 0923     		movs	r3, #9
 2274 000a 0360     		str	r3, [r0]
 2275              		.loc 1 2194 0
 2276 000c 4FF0FF33 		mov	r3, #-1
 2277              	.L267:
 2278              		.loc 1 2195 0
 2279 0010 1846     		mov	r0, r3
 2280 0012 08BD     		pop	{r3, pc}
ARM GAS  /tmp/ccSNToGX.s 			page 41


 2281              	.LVL234:
 2282              	.L268:
 2283              		.loc 1 2186 0
 2284 0014 0549     		ldr	r1, .L277
 2285 0016 0023     		movs	r3, #0
 2286              	.L271:
 2287              	.LVL235:
 2288 0018 51F82320 		ldr	r2, [r1, r3, lsl #2]
 2289              	.LVL236:
 2290              		.loc 1 2187 0
 2291 001c 12B1     		cbz	r2, .L270
 2292              		.loc 1 2189 0
 2293 001e 9269     		ldr	r2, [r2, #24]
 2294              	.LVL237:
 2295 0020 9042     		cmp	r0, r2
 2296 0022 F5D0     		beq	.L267
 2297              	.L270:
 2298              		.loc 1 2184 0 discriminator 2
 2299 0024 0133     		adds	r3, r3, #1
 2300              	.LVL238:
 2301 0026 102B     		cmp	r3, #16
 2302 0028 F6D1     		bne	.L271
 2303 002a EBE7     		b	.L276
 2304              	.L278:
 2305              		.align	2
 2306              	.L277:
 2307 002c 00000000 		.word	.LANCHOR1
 2308              		.cfi_endproc
 2309              	.LFE350:
 2310              		.size	fatfs_to_fileno, .-fatfs_to_fileno
 2311              		.section	.text.fat_time_to_unix,"ax",%progbits
 2312              		.align	1
 2313              		.global	fat_time_to_unix
 2314              		.syntax unified
 2315              		.thumb
 2316              		.thumb_func
 2317              		.fpu fpv4-sp-d16
 2318              		.type	fat_time_to_unix, %function
 2319              	fat_time_to_unix:
 2320              	.LFB352:
 2321              		.loc 1 2251 0
 2322              		.cfi_startproc
 2323              		@ args = 0, pretend = 0, frame = 48
 2324              		@ frame_needed = 0, uses_anonymous_args = 0
 2325              	.LVL239:
 2326 0000 2DE9F047 		push	{r4, r5, r6, r7, r8, r9, r10, lr}
 2327              		.cfi_def_cfa_offset 32
 2328              		.cfi_offset 4, -32
 2329              		.cfi_offset 5, -28
 2330              		.cfi_offset 6, -24
 2331              		.cfi_offset 7, -20
 2332              		.cfi_offset 8, -16
 2333              		.cfi_offset 9, -12
 2334              		.cfi_offset 10, -8
 2335              		.cfi_offset 14, -4
 2336              	.LBB115:
 2337              	.LBB116:
ARM GAS  /tmp/ccSNToGX.s 			page 42


 2338              		.loc 1 2204 0
 2339 0004 334D     		ldr	r5, .L285
 2340              	.LBE116:
 2341              	.LBE115:
 2342              		.loc 1 2262 0
 2343 0006 460A     		lsrs	r6, r0, #9
 2344              	.LVL240:
 2345              		.loc 1 2257 0
 2346 0008 4FEA410C 		lsl	ip, r1, #1
 2347              		.loc 1 2261 0
 2348 000c C0F34318 		ubfx	r8, r0, #5, #4
 2349 0010 C1F34519 		ubfx	r9, r1, #5, #6
 2350              		.loc 1 2259 0
 2351 0014 CF0A     		lsrs	r7, r1, #11
 2352              		.loc 1 2260 0
 2353 0016 00F01F0E 		and	lr, r0, #31
 2354              	.LBB121:
 2355              	.LBB117:
 2356              		.loc 1 2204 0
 2357 001a 0FCD     		ldmia	r5!, {r0, r1, r2, r3}
 2358              	.LVL241:
 2359              	.LBE117:
 2360              	.LBE121:
 2361              		.loc 1 2251 0
 2362 001c 8CB0     		sub	sp, sp, #48
 2363              		.cfi_def_cfa_offset 80
 2364              	.LBB122:
 2365              	.LBB118:
 2366              		.loc 1 2204 0
 2367 001e 6C46     		mov	r4, sp
 2368 0020 0FC4     		stmia	r4!, {r0, r1, r2, r3}
 2369 0022 0FCD     		ldmia	r5!, {r0, r1, r2, r3}
 2370 0024 0FC4     		stmia	r4!, {r0, r1, r2, r3}
 2371 0026 95E80F00 		ldm	r5, {r0, r1, r2, r3}
 2372 002a 84E80F00 		stm	r4, {r0, r1, r2, r3}
 2373              	.LVL242:
 2374              		.loc 1 2214 0
 2375 002e 06F2BB72 		addw	r2, r6, #1979
 2376              	.LVL243:
 2377              		.loc 1 2216 0
 2378 0032 6FF06303 		mvn	r3, #99
 2379 0036 92FBF3F3 		sdiv	r3, r2, r3
 2380 003a 03EBA203 		add	r3, r3, r2, asr #2
 2381 003e 6FF4EE70 		mvn	r0, #476
 2382 0042 4FF4C874 		mov	r4, #400
 2383 0046 92FBF4F2 		sdiv	r2, r2, r4
 2384              	.LVL244:
 2385 004a 1344     		add	r3, r3, r2
 2386              		.loc 1 2215 0
 2387 004c 224A     		ldr	r2, .L285+4
 2388              		.loc 1 2216 0
 2389 004e 0344     		add	r3, r3, r0
 2390              		.loc 1 2215 0
 2391 0050 06F10A01 		add	r1, r6, #10
 2392              		.loc 1 2216 0
 2393 0054 2148     		ldr	r0, .L285+8
 2394              		.loc 1 2215 0
ARM GAS  /tmp/ccSNToGX.s 			page 43


 2395 0056 4A43     		muls	r2, r1, r2
 2396              		.loc 1 2221 0
 2397 0058 0025     		movs	r5, #0
 2398              		.loc 1 2215 0
 2399 005a 00FB0323 		mla	r3, r0, r3, r2
 2400              	.LVL245:
 2401              	.LBE118:
 2402              	.LBE122:
 2403              		.loc 1 2257 0
 2404 005e 0CF03E0C 		and	ip, ip, #62
 2405              		.loc 1 2261 0
 2406 0062 08F1FF38 		add	r8, r8, #-1
 2407              	.LBB123:
 2408              	.LBB119:
 2409              		.loc 1 2218 0
 2410 0066 06F2BC76 		addw	r6, r6, #1980
 2411              	.LVL246:
 2412              		.loc 1 2219 0
 2413 006a 2A46     		mov	r2, r5
 2414              		.loc 1 2223 0
 2415 006c 4FF0640A 		mov	r10, #100
 2416              	.LVL247:
 2417              	.L280:
 2418              		.loc 1 2221 0
 2419 0070 A845     		cmp	r8, r5
 2420 0072 0FDC     		bgt	.L284
 2421              	.LVL248:
 2422              		.loc 1 2233 0
 2423 0074 3C22     		movs	r2, #60
 2424              		.loc 1 2232 0
 2425 0076 0EF1FF3E 		add	lr, lr, #-1
 2426              		.loc 1 2233 0
 2427 007a 02FB09F9 		mul	r9, r2, r9
 2428 007e 00FB0E90 		mla	r0, r0, lr, r9
 2429 0082 4FF46161 		mov	r1, #3600
 2430 0086 01FB0700 		mla	r0, r1, r7, r0
 2431 008a 6044     		add	r0, r0, ip
 2432              	.LBE119:
 2433              	.LBE123:
 2434              		.loc 1 2265 0
 2435 008c 1844     		add	r0, r0, r3
 2436 008e 0CB0     		add	sp, sp, #48
 2437              		.cfi_remember_state
 2438              		.cfi_def_cfa_offset 32
 2439              		@ sp needed
 2440 0090 BDE8F087 		pop	{r4, r5, r6, r7, r8, r9, r10, pc}
 2441              	.LVL249:
 2442              	.L284:
 2443              		.cfi_restore_state
 2444              	.LBB124:
 2445              	.LBB120:
 2446              		.loc 1 2222 0
 2447 0094 0CA9     		add	r1, sp, #48
 2448 0096 01EB8201 		add	r1, r1, r2, lsl #2
 2449              		.loc 1 2223 0
 2450 009a 012A     		cmp	r2, #1
 2451              		.loc 1 2222 0
ARM GAS  /tmp/ccSNToGX.s 			page 44


 2452 009c 51F8301C 		ldr	r1, [r1, #-48]
 2453 00a0 00FB0133 		mla	r3, r0, r1, r3
 2454              	.LVL250:
 2455              		.loc 1 2223 0
 2456 00a4 0FD1     		bne	.L281
 2457 00a6 B107     		lsls	r1, r6, #30
 2458 00a8 0DD1     		bne	.L281
 2459 00aa 96FBFAF1 		sdiv	r1, r6, r10
 2460 00ae 0AFB1161 		mls	r1, r10, r1, r6
 2461 00b2 21B9     		cbnz	r1, .L282
 2462 00b4 96FBF4F1 		sdiv	r1, r6, r4
 2463 00b8 04FB1161 		mls	r1, r4, r1, r6
 2464 00bc 19B9     		cbnz	r1, .L281
 2465              	.L282:
 2466              		.loc 1 2224 0
 2467 00be 03F5A833 		add	r3, r3, #86016
 2468              	.LVL251:
 2469 00c2 03F5C073 		add	r3, r3, #384
 2470              	.LVL252:
 2471              	.L281:
 2472              		.loc 1 2226 0
 2473 00c6 0132     		adds	r2, r2, #1
 2474              	.LVL253:
 2475 00c8 0B2A     		cmp	r2, #11
 2476              	.LVL254:
 2477              		.loc 1 2228 0
 2478 00ca C4BF     		itt	gt
 2479 00cc 0136     		addgt	r6, r6, #1
 2480              	.LVL255:
 2481              		.loc 1 2227 0
 2482 00ce 0022     		movgt	r2, #0
 2483              	.LVL256:
 2484              		.loc 1 2221 0
 2485 00d0 0135     		adds	r5, r5, #1
 2486              	.LVL257:
 2487 00d2 CDE7     		b	.L280
 2488              	.L286:
 2489              		.align	2
 2490              	.L285:
 2491 00d4 00000000 		.word	.LANCHOR5
 2492 00d8 8033E101 		.word	31536000
 2493 00dc 80510100 		.word	86400
 2494              	.LBE120:
 2495              	.LBE124:
 2496              		.cfi_endproc
 2497              	.LFE352:
 2498              		.size	fat_time_to_unix, .-fat_time_to_unix
 2499              		.section	.text.stat,"ax",%progbits
 2500              		.align	1
 2501              		.global	stat
 2502              		.syntax unified
 2503              		.thumb
 2504              		.thumb_func
 2505              		.fpu fpv4-sp-d16
 2506              		.type	stat, %function
 2507              	stat:
 2508              	.LFB324:
ARM GAS  /tmp/ccSNToGX.s 			page 45


 2509              		.loc 1 1272 0
 2510              		.cfi_startproc
 2511              		@ args = 0, pretend = 0, frame = 288
 2512              		@ frame_needed = 0, uses_anonymous_args = 0
 2513              	.LVL258:
 2514 0000 30B5     		push	{r4, r5, lr}
 2515              		.cfi_def_cfa_offset 12
 2516              		.cfi_offset 4, -12
 2517              		.cfi_offset 5, -8
 2518              		.cfi_offset 14, -4
 2519 0002 C9B0     		sub	sp, sp, #292
 2520              		.cfi_def_cfa_offset 304
 2521              		.loc 1 1272 0
 2522 0004 0546     		mov	r5, r0
 2523 0006 0C46     		mov	r4, r1
 2524              		.loc 1 1277 0
 2525 0008 FFF7FEFF 		bl	__errno
 2526              	.LVL259:
 2527 000c 0023     		movs	r3, #0
 2528 000e 0360     		str	r3, [r0]
 2529              		.loc 1 1280 0
 2530 0010 2449     		ldr	r1, .L301
 2531 0012 2846     		mov	r0, r5
 2532 0014 FFF7FEFF 		bl	strcmp
 2533              	.LVL260:
 2534 0018 20B1     		cbz	r0, .L288
 2535              		.loc 1 1280 0 is_stmt 0 discriminator 1
 2536 001a 2349     		ldr	r1, .L301+4
 2537 001c 2846     		mov	r0, r5
 2538 001e FFF7FEFF 		bl	strcmp
 2539              	.LVL261:
 2540 0022 58B9     		cbnz	r0, .L289
 2541              	.L288:
 2542              		.loc 1 1282 0 is_stmt 1
 2543 0024 0020     		movs	r0, #0
 2544              		.loc 1 1288 0
 2545 0026 4FF48043 		mov	r3, #16384
 2546              		.loc 1 1282 0
 2547 002a E061     		str	r0, [r4, #28]
 2548              		.loc 1 1283 0
 2549 002c 2062     		str	r0, [r4, #32]
 2550              		.loc 1 1284 0
 2551 002e 6062     		str	r0, [r4, #36]
 2552              		.loc 1 1285 0
 2553 0030 6081     		strh	r0, [r4, #10]	@ movhi
 2554              		.loc 1 1286 0
 2555 0032 A081     		strh	r0, [r4, #12]	@ movhi
 2556              		.loc 1 1287 0
 2557 0034 2061     		str	r0, [r4, #16]
 2558              		.loc 1 1288 0
 2559 0036 6360     		str	r3, [r4, #4]
 2560              	.LVL262:
 2561              	.L287:
 2562              		.loc 1 1327 0
 2563 0038 49B0     		add	sp, sp, #292
 2564              		.cfi_remember_state
 2565              		.cfi_def_cfa_offset 12
ARM GAS  /tmp/ccSNToGX.s 			page 46


 2566              		@ sp needed
 2567 003a 30BD     		pop	{r4, r5, pc}
 2568              	.LVL263:
 2569              	.L289:
 2570              		.cfi_restore_state
 2571              		.loc 1 1292 0
 2572 003c 2846     		mov	r0, r5
 2573 003e 6946     		mov	r1, sp
 2574 0040 FFF7FEFF 		bl	f_stat
 2575              	.LVL264:
 2576              		.loc 1 1293 0
 2577 0044 0546     		mov	r5, r0
 2578              	.LVL265:
 2579 0046 50B1     		cbz	r0, .L291
 2580              		.loc 1 1295 0
 2581 0048 FFF7FEFF 		bl	__errno
 2582              	.LVL266:
 2583 004c 132D     		cmp	r5, #19
 2584 004e 96BF     		itet	ls
 2585 0050 164B     		ldrls	r3, .L301+8
 2586 0052 4D23     		movhi	r3, #77
 2587              	.LVL267:
 2588 0054 5B57     		ldrsbls	r3, [r3, r5]
 2589 0056 0360     		str	r3, [r0]
 2590              		.loc 1 1296 0
 2591 0058 4FF0FF30 		mov	r0, #-1
 2592 005c ECE7     		b	.L287
 2593              	.LVL268:
 2594              	.L291:
 2595              		.loc 1 1299 0
 2596 005e 009B     		ldr	r3, [sp]
 2597 0060 2361     		str	r3, [r4, #16]
 2598              		.loc 1 1300 0
 2599 0062 BDF80A10 		ldrh	r1, [sp, #10]
 2600 0066 BDF80800 		ldrh	r0, [sp, #8]
 2601              	.LVL269:
 2602 006a FFF7FEFF 		bl	fat_time_to_unix
 2603              	.LVL270:
 2604              		.loc 1 1307 0
 2605 006e 9DF80C20 		ldrb	r2, [sp, #12]	@ zero_extendqisi2
 2606              		.loc 1 1301 0
 2607 0072 E061     		str	r0, [r4, #28]
 2608              		.loc 1 1308 0
 2609 0074 12F0010F 		tst	r2, #1
 2610 0078 40F2FF11 		movw	r1, #511
 2611 007c 40F26D13 		movw	r3, #365
 2612 0080 08BF     		it	eq
 2613 0082 0B46     		moveq	r3, r1
 2614              		.loc 1 1320 0
 2615 0084 D206     		lsls	r2, r2, #27
 2616              		.loc 1 1316 0
 2617 0086 4FF47A71 		mov	r1, #1000
 2618              		.loc 1 1321 0
 2619 008a 4CBF     		ite	mi
 2620 008c 43F48043 		orrmi	r3, r3, #16384
 2621              		.loc 1 1323 0
 2622 0090 43F40043 		orrpl	r3, r3, #32768
ARM GAS  /tmp/ccSNToGX.s 			page 47


 2623              		.loc 1 1302 0
 2624 0094 2062     		str	r0, [r4, #32]
 2625              		.loc 1 1303 0
 2626 0096 6062     		str	r0, [r4, #36]
 2627              	.LVL271:
 2628              		.loc 1 1316 0
 2629 0098 6181     		strh	r1, [r4, #10]	@ movhi
 2630              		.loc 1 1317 0
 2631 009a A181     		strh	r1, [r4, #12]	@ movhi
 2632              		.loc 1 1324 0
 2633 009c 6360     		str	r3, [r4, #4]
 2634              		.loc 1 1326 0
 2635 009e 0020     		movs	r0, #0
 2636              	.LVL272:
 2637 00a0 CAE7     		b	.L287
 2638              	.L302:
 2639 00a2 00BF     		.align	2
 2640              	.L301:
 2641 00a4 00000000 		.word	.LC1
 2642 00a8 00000000 		.word	.LC3
 2643 00ac 00000000 		.word	.LANCHOR0
 2644              		.cfi_endproc
 2645              	.LFE324:
 2646              		.size	stat, .-stat
 2647              		.section	.text.unix_time_to_fat,"ax",%progbits
 2648              		.align	1
 2649              		.global	unix_time_to_fat
 2650              		.syntax unified
 2651              		.thumb
 2652              		.thumb_func
 2653              		.fpu fpv4-sp-d16
 2654              		.type	unix_time_to_fat, %function
 2655              	unix_time_to_fat:
 2656              	.LFB353:
 2657              		.loc 1 2276 0
 2658              		.cfi_startproc
 2659              		@ args = 0, pretend = 0, frame = 8
 2660              		@ frame_needed = 0, uses_anonymous_args = 0
 2661              	.LVL273:
 2662 0000 73B5     		push	{r0, r1, r4, r5, r6, lr}
 2663              		.cfi_def_cfa_offset 24
 2664              		.cfi_offset 4, -16
 2665              		.cfi_offset 5, -12
 2666              		.cfi_offset 6, -8
 2667              		.cfi_offset 14, -4
 2668              		.loc 1 2276 0
 2669 0002 02AB     		add	r3, sp, #8
 2670 0004 0E46     		mov	r6, r1
 2671 0006 43F8040D 		str	r0, [r3, #-4]!
 2672              		.loc 1 2277 0
 2673 000a 1846     		mov	r0, r3
 2674              	.LVL274:
 2675              		.loc 1 2276 0
 2676 000c 1546     		mov	r5, r2
 2677              		.loc 1 2277 0
 2678 000e FFF7FEFF 		bl	gmtime
 2679              	.LVL275:
ARM GAS  /tmp/ccSNToGX.s 			page 48


 2680              		.loc 1 2281 0
 2681 0012 038A     		ldrh	r3, [r0, #16]
 2682              		.loc 1 2280 0
 2683 0014 4469     		ldr	r4, [r0, #20]
 2684              		.loc 1 2285 0
 2685 0016 4168     		ldr	r1, [r0, #4]
 2686              		.loc 1 2281 0
 2687 0018 5A1C     		adds	r2, r3, #1
 2688              		.loc 1 2282 0
 2689 001a C368     		ldr	r3, [r0, #12]
 2690              		.loc 1 2280 0
 2691 001c 503C     		subs	r4, r4, #80
 2692              		.loc 1 2282 0
 2693 001e 43EA4213 		orr	r3, r3, r2, lsl #5
 2694              		.loc 1 2280 0
 2695 0022 A4B2     		uxth	r4, r4
 2696              		.loc 1 2282 0
 2697 0024 43EA4423 		orr	r3, r3, r4, lsl #9
 2698              		.loc 1 2284 0
 2699 0028 8268     		ldr	r2, [r0, #8]
 2700              		.loc 1 2280 0
 2701 002a 3380     		strh	r3, [r6]	@ movhi
 2702              		.loc 1 2284 0
 2703 002c 064B     		ldr	r3, .L304
 2704 002e 03EAC223 		and	r3, r3, r2, lsl #11
 2705              		.loc 1 2285 0
 2706 0032 064A     		ldr	r2, .L304+4
 2707 0034 02EA4112 		and	r2, r2, r1, lsl #5
 2708 0038 1343     		orrs	r3, r3, r2
 2709              		.loc 1 2286 0
 2710 003a 0288     		ldrh	r2, [r0]
 2711 003c 43EA5203 		orr	r3, r3, r2, lsr #1
 2712              		.loc 1 2284 0
 2713 0040 2B80     		strh	r3, [r5]	@ movhi
 2714              		.loc 1 2287 0
 2715 0042 02B0     		add	sp, sp, #8
 2716              		.cfi_def_cfa_offset 16
 2717              		@ sp needed
 2718 0044 70BD     		pop	{r4, r5, r6, pc}
 2719              	.LVL276:
 2720              	.L305:
 2721 0046 00BF     		.align	2
 2722              	.L304:
 2723 0048 00F8FF07 		.word	134215680
 2724 004c E0FF1F00 		.word	2097120
 2725              		.cfi_endproc
 2726              	.LFE353:
 2727              		.size	unix_time_to_fat, .-unix_time_to_fat
 2728              		.section	.text.utime,"ax",%progbits
 2729              		.align	1
 2730              		.global	utime
 2731              		.syntax unified
 2732              		.thumb
 2733              		.thumb_func
 2734              		.fpu fpv4-sp-d16
 2735              		.type	utime, %function
 2736              	utime:
ARM GAS  /tmp/ccSNToGX.s 			page 49


 2737              	.LFB325:
 2738              		.loc 1 1335 0
 2739              		.cfi_startproc
 2740              		@ args = 0, pretend = 0, frame = 296
 2741              		@ frame_needed = 0, uses_anonymous_args = 0
 2742              	.LVL277:
 2743 0000 10B5     		push	{r4, lr}
 2744              		.cfi_def_cfa_offset 8
 2745              		.cfi_offset 4, -8
 2746              		.cfi_offset 14, -4
 2747 0002 0446     		mov	r4, r0
 2748 0004 CAB0     		sub	sp, sp, #296
 2749              		.cfi_def_cfa_offset 304
 2750              		.loc 1 1342 0
 2751 0006 C1B1     		cbz	r1, .L309
 2752              		.loc 1 1343 0
 2753 0008 4868     		ldr	r0, [r1, #4]
 2754              	.LVL278:
 2755              	.L307:
 2756              		.loc 1 1346 0
 2757 000a 0DF10602 		add	r2, sp, #6
 2758 000e 01A9     		add	r1, sp, #4
 2759              	.LVL279:
 2760 0010 FFF7FEFF 		bl	unix_time_to_fat
 2761              	.LVL280:
 2762              		.loc 1 1349 0
 2763 0014 BDF80430 		ldrh	r3, [sp, #4]
 2764 0018 ADF81030 		strh	r3, [sp, #16]	@ movhi
 2765              		.loc 1 1352 0
 2766 001c 02A9     		add	r1, sp, #8
 2767              		.loc 1 1350 0
 2768 001e BDF80630 		ldrh	r3, [sp, #6]
 2769 0022 ADF81230 		strh	r3, [sp, #18]	@ movhi
 2770              		.loc 1 1352 0
 2771 0026 2046     		mov	r0, r4
 2772 0028 FFF7FEFF 		bl	f_utime
 2773              	.LVL281:
 2774 002c 1328     		cmp	r0, #19
 2775 002e 9ABF     		itte	ls
 2776 0030 034B     		ldrls	r3, .L311
 2777 0032 1856     		ldrsbls	r0, [r3, r0]
 2778              	.LVL282:
 2779 0034 4D20     		movhi	r0, #77
 2780              		.loc 1 1355 0
 2781 0036 4AB0     		add	sp, sp, #296
 2782              		.cfi_remember_state
 2783              		.cfi_def_cfa_offset 8
 2784              		@ sp needed
 2785 0038 10BD     		pop	{r4, pc}
 2786              	.LVL283:
 2787              	.L309:
 2788              		.cfi_restore_state
 2789              		.loc 1 1339 0
 2790 003a 0846     		mov	r0, r1
 2791              	.LVL284:
 2792 003c E5E7     		b	.L307
 2793              	.L312:
ARM GAS  /tmp/ccSNToGX.s 			page 50


 2794 003e 00BF     		.align	2
 2795              	.L311:
 2796 0040 00000000 		.word	.LANCHOR0
 2797              		.cfi_endproc
 2798              	.LFE325:
 2799              		.size	utime, .-utime
 2800              		.section	.text.fileno_to_fatfs,"ax",%progbits
 2801              		.align	1
 2802              		.global	fileno_to_fatfs
 2803              		.syntax unified
 2804              		.thumb
 2805              		.thumb_func
 2806              		.fpu fpv4-sp-d16
 2807              		.type	fileno_to_fatfs, %function
 2808              	fileno_to_fatfs:
 2809              	.LFB354:
 2810              		.loc 1 2300 0
 2811              		.cfi_startproc
 2812              		@ args = 0, pretend = 0, frame = 0
 2813              		@ frame_needed = 0, uses_anonymous_args = 0
 2814              	.LVL285:
 2815              	.LBB131:
 2816              	.LBB132:
 2817              		.loc 1 140 0
 2818 0000 0228     		cmp	r0, #2
 2819              	.LBE132:
 2820              	.LBE131:
 2821              		.loc 1 2300 0
 2822 0002 10B5     		push	{r4, lr}
 2823              		.cfi_def_cfa_offset 8
 2824              		.cfi_offset 4, -8
 2825              		.cfi_offset 14, -4
 2826              	.LBB134:
 2827              	.LBB133:
 2828              		.loc 1 140 0
 2829 0004 0AD9     		bls	.L314
 2830              	.LVL286:
 2831              	.LBE133:
 2832              	.LBE134:
 2833              		.loc 1 2311 0
 2834 0006 FFF7FEFF 		bl	fileno_to_stream
 2835              	.LVL287:
 2836              		.loc 1 2312 0
 2837 000a 58B1     		cbz	r0, .L321
 2838              		.loc 1 2315 0
 2839 000c 8469     		ldr	r4, [r0, #24]
 2840              	.LVL288:
 2841              		.loc 1 2316 0
 2842 000e 1CB9     		cbnz	r4, .L313
 2843              	.LVL289:
 2844              	.LBB135:
 2845              	.LBB136:
 2846              		.loc 1 2318 0
 2847 0010 FFF7FEFF 		bl	__errno
 2848              	.LVL290:
 2849 0014 0923     		movs	r3, #9
 2850 0016 0360     		str	r3, [r0]
ARM GAS  /tmp/ccSNToGX.s 			page 51


 2851              	.LVL291:
 2852              	.L313:
 2853              	.LBE136:
 2854              	.LBE135:
 2855              		.loc 1 2322 0
 2856 0018 2046     		mov	r0, r4
 2857 001a 10BD     		pop	{r4, pc}
 2858              	.LVL292:
 2859              	.L314:
 2860              		.loc 1 2306 0
 2861 001c FFF7FEFF 		bl	__errno
 2862              	.LVL293:
 2863 0020 0923     		movs	r3, #9
 2864 0022 0360     		str	r3, [r0]
 2865              	.L321:
 2866              		.loc 1 2307 0
 2867 0024 0024     		movs	r4, #0
 2868 0026 F7E7     		b	.L313
 2869              		.cfi_endproc
 2870              	.LFE354:
 2871              		.size	fileno_to_fatfs, .-fileno_to_fatfs
 2872              		.section	.text.ftell,"ax",%progbits
 2873              		.align	1
 2874              		.global	ftell
 2875              		.syntax unified
 2876              		.thumb
 2877              		.thumb_func
 2878              		.fpu fpv4-sp-d16
 2879              		.type	ftell, %function
 2880              	ftell:
 2881              	.LFB306:
 2882              		.loc 1 533 0
 2883              		.cfi_startproc
 2884              		@ args = 0, pretend = 0, frame = 0
 2885              		@ frame_needed = 0, uses_anonymous_args = 0
 2886              	.LVL294:
 2887 0000 10B5     		push	{r4, lr}
 2888              		.cfi_def_cfa_offset 8
 2889              		.cfi_offset 4, -8
 2890              		.cfi_offset 14, -4
 2891              		.loc 1 533 0
 2892 0002 0446     		mov	r4, r0
 2893              		.loc 1 534 0
 2894 0004 FFF7FEFF 		bl	__errno
 2895              	.LVL295:
 2896 0008 0023     		movs	r3, #0
 2897 000a 0360     		str	r3, [r0]
 2898              		.loc 1 536 0
 2899 000c 2046     		mov	r0, r4
 2900 000e FFF7FEFF 		bl	fileno
 2901              	.LVL296:
 2902              	.LBB143:
 2903              	.LBB144:
 2904              		.loc 1 140 0
 2905 0012 0228     		cmp	r0, #2
 2906 0014 06D9     		bls	.L327
 2907              	.LVL297:
ARM GAS  /tmp/ccSNToGX.s 			page 52


 2908              	.LBE144:
 2909              	.LBE143:
 2910              		.loc 1 540 0
 2911 0016 FFF7FEFF 		bl	fileno_to_fatfs
 2912              	.LVL298:
 2913              		.loc 1 541 0
 2914 001a 30B9     		cbnz	r0, .L329
 2915              	.LVL299:
 2916              	.LBB145:
 2917              	.LBB146:
 2918              		.loc 1 543 0
 2919 001c FFF7FEFF 		bl	__errno
 2920              	.LVL300:
 2921 0020 0923     		movs	r3, #9
 2922 0022 0360     		str	r3, [r0]
 2923              	.LVL301:
 2924              	.L327:
 2925              	.LBE146:
 2926              	.LBE145:
 2927              		.loc 1 538 0
 2928 0024 4FF0FF30 		mov	r0, #-1
 2929 0028 10BD     		pop	{r4, pc}
 2930              	.LVL302:
 2931              	.L329:
 2932              		.loc 1 547 0
 2933 002a 806B     		ldr	r0, [r0, #56]
 2934              	.LVL303:
 2935 002c 10BD     		pop	{r4, pc}
 2936              		.cfi_endproc
 2937              	.LFE306:
 2938              		.size	ftell, .-ftell
 2939              		.section	.text.fgetpos,"ax",%progbits
 2940              		.align	1
 2941              		.global	fgetpos
 2942              		.syntax unified
 2943              		.thumb
 2944              		.thumb_func
 2945              		.fpu fpv4-sp-d16
 2946              		.type	fgetpos, %function
 2947              	fgetpos:
 2948              	.LFB303:
 2949              		.loc 1 470 0
 2950              		.cfi_startproc
 2951              		@ args = 0, pretend = 0, frame = 0
 2952              		@ frame_needed = 0, uses_anonymous_args = 0
 2953              	.LVL304:
 2954 0000 10B5     		push	{r4, lr}
 2955              		.cfi_def_cfa_offset 8
 2956              		.cfi_offset 4, -8
 2957              		.cfi_offset 14, -4
 2958              		.loc 1 470 0
 2959 0002 0C46     		mov	r4, r1
 2960              		.loc 1 471 0
 2961 0004 FFF7FEFF 		bl	ftell
 2962              	.LVL305:
 2963              		.loc 1 472 0
 2964 0008 2060     		str	r0, [r4]
ARM GAS  /tmp/ccSNToGX.s 			page 53


 2965              		.loc 1 476 0
 2966 000a 0130     		adds	r0, r0, #1
 2967              	.LVL306:
 2968 000c 4FF0FF30 		mov	r0, #-1
 2969 0010 18BF     		it	ne
 2970 0012 0020     		movne	r0, #0
 2971 0014 10BD     		pop	{r4, pc}
 2972              		.cfi_endproc
 2973              	.LFE303:
 2974              		.size	fgetpos, .-fgetpos
 2975              		.section	.text.lseek,"ax",%progbits
 2976              		.align	1
 2977              		.global	lseek
 2978              		.syntax unified
 2979              		.thumb
 2980              		.thumb_func
 2981              		.fpu fpv4-sp-d16
 2982              		.type	lseek, %function
 2983              	lseek:
 2984              	.LFB307:
 2985              		.loc 1 565 0
 2986              		.cfi_startproc
 2987              		@ args = 0, pretend = 0, frame = 0
 2988              		@ frame_needed = 0, uses_anonymous_args = 0
 2989              	.LVL307:
 2990 0000 F8B5     		push	{r3, r4, r5, r6, r7, lr}
 2991              		.cfi_def_cfa_offset 24
 2992              		.cfi_offset 3, -24
 2993              		.cfi_offset 4, -20
 2994              		.cfi_offset 5, -16
 2995              		.cfi_offset 6, -12
 2996              		.cfi_offset 7, -8
 2997              		.cfi_offset 14, -4
 2998              		.loc 1 565 0
 2999 0002 0646     		mov	r6, r0
 3000 0004 0D46     		mov	r5, r1
 3001 0006 1746     		mov	r7, r2
 3002              		.loc 1 568 0
 3003 0008 FFF7FEFF 		bl	__errno
 3004              	.LVL308:
 3005 000c 0023     		movs	r3, #0
 3006 000e 0360     		str	r3, [r0]
 3007              		.loc 1 573 0
 3008 0010 3046     		mov	r0, r6
 3009 0012 FFF7FEFF 		bl	fileno_to_fatfs
 3010              	.LVL309:
 3011              		.loc 1 574 0
 3012 0016 0446     		mov	r4, r0
 3013 0018 30B9     		cbnz	r0, .L332
 3014              		.loc 1 576 0
 3015 001a FFF7FEFF 		bl	__errno
 3016              	.LVL310:
 3017 001e 1823     		movs	r3, #24
 3018              	.LVL311:
 3019              	.L337:
 3020              		.loc 1 594 0
 3021 0020 0360     		str	r3, [r0]
ARM GAS  /tmp/ccSNToGX.s 			page 54


 3022              	.L340:
 3023              		.loc 1 580 0
 3024 0022 4FF0FF30 		mov	r0, #-1
 3025 0026 F8BD     		pop	{r3, r4, r5, r6, r7, pc}
 3026              	.LVL312:
 3027              	.L332:
 3028              	.LBB147:
 3029              	.LBB148:
 3030              		.loc 1 140 0
 3031 0028 022E     		cmp	r6, #2
 3032 002a FAD9     		bls	.L340
 3033              	.LVL313:
 3034              	.LBE148:
 3035              	.LBE147:
 3036              		.loc 1 583 0
 3037 002c 3046     		mov	r0, r6
 3038              	.LVL314:
 3039 002e FFF7FEFF 		bl	fileno_to_stream
 3040              	.LVL315:
 3041              		.loc 1 584 0
 3042 0032 4379     		ldrb	r3, [r0, #5]	@ zero_extendqisi2
 3043              		.loc 1 586 0
 3044 0034 022F     		cmp	r7, #2
 3045              		.loc 1 584 0
 3046 0036 43F04003 		orr	r3, r3, #64
 3047 003a 4371     		strb	r3, [r0, #5]
 3048              		.loc 1 586 0
 3049 003c 10D1     		bne	.L343
 3050              		.loc 1 587 0
 3051 003e 2369     		ldr	r3, [r4, #16]
 3052              	.L344:
 3053              		.loc 1 589 0
 3054 0040 1D44     		add	r5, r5, r3
 3055              	.LVL316:
 3056              	.L335:
 3057              		.loc 1 591 0
 3058 0042 2A46     		mov	r2, r5
 3059 0044 EB17     		asrs	r3, r5, #31
 3060 0046 2046     		mov	r0, r4
 3061              	.LVL317:
 3062 0048 FFF7FEFF 		bl	f_lseek
 3063              	.LVL318:
 3064              		.loc 1 592 0
 3065 004c 0546     		mov	r5, r0
 3066              	.LVL319:
 3067 004e 58B1     		cbz	r0, .L336
 3068              		.loc 1 594 0
 3069 0050 FFF7FEFF 		bl	__errno
 3070              	.LVL320:
 3071 0054 132D     		cmp	r5, #19
 3072 0056 96BF     		itet	ls
 3073 0058 044B     		ldrls	r3, .L345
 3074 005a 4D23     		movhi	r3, #77
 3075 005c 5B57     		ldrsbls	r3, [r3, r5]
 3076 005e DFE7     		b	.L337
 3077              	.LVL321:
 3078              	.L343:
ARM GAS  /tmp/ccSNToGX.s 			page 55


 3079              		.loc 1 588 0
 3080 0060 012F     		cmp	r7, #1
 3081 0062 EED1     		bne	.L335
 3082              		.loc 1 589 0
 3083 0064 A36B     		ldr	r3, [r4, #56]
 3084 0066 EBE7     		b	.L344
 3085              	.LVL322:
 3086              	.L336:
 3087              		.loc 1 597 0
 3088 0068 A06B     		ldr	r0, [r4, #56]
 3089              	.LVL323:
 3090 006a F8BD     		pop	{r3, r4, r5, r6, r7, pc}
 3091              	.LVL324:
 3092              	.L346:
 3093              		.align	2
 3094              	.L345:
 3095 006c 00000000 		.word	.LANCHOR0
 3096              		.cfi_endproc
 3097              	.LFE307:
 3098              		.size	lseek, .-lseek
 3099              		.section	.text.fseek,"ax",%progbits
 3100              		.align	1
 3101              		.global	fseek
 3102              		.syntax unified
 3103              		.thumb
 3104              		.thumb_func
 3105              		.fpu fpv4-sp-d16
 3106              		.type	fseek, %function
 3107              	fseek:
 3108              	.LFB304:
 3109              		.loc 1 493 0
 3110              		.cfi_startproc
 3111              		@ args = 0, pretend = 0, frame = 0
 3112              		@ frame_needed = 0, uses_anonymous_args = 0
 3113              	.LVL325:
 3114 0000 38B5     		push	{r3, r4, r5, lr}
 3115              		.cfi_def_cfa_offset 16
 3116              		.cfi_offset 3, -16
 3117              		.cfi_offset 4, -12
 3118              		.cfi_offset 5, -8
 3119              		.cfi_offset 14, -4
 3120              		.loc 1 493 0
 3121 0002 0C46     		mov	r4, r1
 3122 0004 1546     		mov	r5, r2
 3123              		.loc 1 496 0
 3124 0006 FFF7FEFF 		bl	fileno
 3125              	.LVL326:
 3126              		.loc 1 497 0
 3127 000a 0028     		cmp	r0, #0
 3128 000c 09DB     		blt	.L349
 3129              		.loc 1 500 0
 3130 000e 2A46     		mov	r2, r5
 3131 0010 2146     		mov	r1, r4
 3132 0012 FFF7FEFF 		bl	lseek
 3133              	.LVL327:
 3134              		.loc 1 502 0
 3135 0016 0130     		adds	r0, r0, #1
ARM GAS  /tmp/ccSNToGX.s 			page 56


 3136              	.LVL328:
 3137 0018 4FF0FF30 		mov	r0, #-1
 3138              	.LVL329:
 3139 001c 18BF     		it	ne
 3140 001e 0020     		movne	r0, #0
 3141 0020 38BD     		pop	{r3, r4, r5, pc}
 3142              	.LVL330:
 3143              	.L349:
 3144              		.loc 1 498 0
 3145 0022 4FF0FF30 		mov	r0, #-1
 3146              	.LVL331:
 3147              		.loc 1 506 0
 3148 0026 38BD     		pop	{r3, r4, r5, pc}
 3149              		.cfi_endproc
 3150              	.LFE304:
 3151              		.size	fseek, .-fseek
 3152              		.section	.text.fsetpos,"ax",%progbits
 3153              		.align	1
 3154              		.global	fsetpos
 3155              		.syntax unified
 3156              		.thumb
 3157              		.thumb_func
 3158              		.fpu fpv4-sp-d16
 3159              		.type	fsetpos, %function
 3160              	fsetpos:
 3161              	.LFB305:
 3162              		.loc 1 519 0
 3163              		.cfi_startproc
 3164              		@ args = 0, pretend = 0, frame = 0
 3165              		@ frame_needed = 0, uses_anonymous_args = 0
 3166              		@ link register save eliminated.
 3167              	.LVL332:
 3168              		.loc 1 520 0
 3169 0000 0022     		movs	r2, #0
 3170 0002 0968     		ldr	r1, [r1]
 3171              	.LVL333:
 3172 0004 FFF7FEBF 		b	fseek
 3173              	.LVL334:
 3174              		.cfi_endproc
 3175              	.LFE305:
 3176              		.size	fsetpos, .-fsetpos
 3177              		.section	.text.rewind,"ax",%progbits
 3178              		.align	1
 3179              		.global	rewind
 3180              		.syntax unified
 3181              		.thumb
 3182              		.thumb_func
 3183              		.fpu fpv4-sp-d16
 3184              		.type	rewind, %function
 3185              	rewind:
 3186              	.LFB308:
 3187              		.loc 1 609 0
 3188              		.cfi_startproc
 3189              		@ args = 0, pretend = 0, frame = 0
 3190              		@ frame_needed = 0, uses_anonymous_args = 0
 3191              		@ link register save eliminated.
 3192              	.LVL335:
ARM GAS  /tmp/ccSNToGX.s 			page 57


 3193              		.loc 1 610 0
 3194 0000 0022     		movs	r2, #0
 3195 0002 1146     		mov	r1, r2
 3196 0004 FFF7FEBF 		b	fseek
 3197              	.LVL336:
 3198              		.cfi_endproc
 3199              	.LFE308:
 3200              		.size	rewind, .-rewind
 3201              		.section	.text.ftruncate,"ax",%progbits
 3202              		.align	1
 3203              		.global	ftruncate
 3204              		.syntax unified
 3205              		.thumb
 3206              		.thumb_func
 3207              		.fpu fpv4-sp-d16
 3208              		.type	ftruncate, %function
 3209              	ftruncate:
 3210              	.LFB314:
 3211              		.loc 1 770 0
 3212              		.cfi_startproc
 3213              		@ args = 0, pretend = 0, frame = 0
 3214              		@ frame_needed = 0, uses_anonymous_args = 0
 3215              	.LVL337:
 3216 0000 70B5     		push	{r4, r5, r6, lr}
 3217              		.cfi_def_cfa_offset 16
 3218              		.cfi_offset 4, -16
 3219              		.cfi_offset 5, -12
 3220              		.cfi_offset 6, -8
 3221              		.cfi_offset 14, -4
 3222              		.loc 1 770 0
 3223 0002 0446     		mov	r4, r0
 3224 0004 0E46     		mov	r6, r1
 3225              		.loc 1 771 0
 3226 0006 FFF7FEFF 		bl	__errno
 3227              	.LVL338:
 3228 000a 0023     		movs	r3, #0
 3229              	.LBB149:
 3230              	.LBB150:
 3231              		.loc 1 140 0
 3232 000c 022C     		cmp	r4, #2
 3233              	.LBE150:
 3234              	.LBE149:
 3235              		.loc 1 771 0
 3236 000e 0360     		str	r3, [r0]
 3237              	.LVL339:
 3238              	.LBB152:
 3239              	.LBB151:
 3240              		.loc 1 140 0
 3241 0010 08D8     		bhi	.L353
 3242              	.LVL340:
 3243              	.L367:
 3244              	.LBE151:
 3245              	.LBE152:
 3246              		.loc 1 793 0
 3247 0012 4FF0FF30 		mov	r0, #-1
 3248 0016 70BD     		pop	{r4, r5, r6, pc}
 3249              	.LVL341:
ARM GAS  /tmp/ccSNToGX.s 			page 58


 3250              	.L355:
 3251              		.loc 1 789 0
 3252 0018 2846     		mov	r0, r5
 3253              	.LVL342:
 3254 001a FFF7FEFF 		bl	f_truncate
 3255              	.LVL343:
 3256              		.loc 1 790 0
 3257 001e 0446     		mov	r4, r0
 3258 0020 68B9     		cbnz	r0, .L370
 3259 0022 70BD     		pop	{r4, r5, r6, pc}
 3260              	.LVL344:
 3261              	.L353:
 3262              		.loc 1 778 0
 3263 0024 2046     		mov	r0, r4
 3264 0026 FFF7FEFF 		bl	fileno_to_fatfs
 3265              	.LVL345:
 3266              		.loc 1 779 0
 3267 002a 0546     		mov	r5, r0
 3268 002c 0028     		cmp	r0, #0
 3269 002e F0D0     		beq	.L367
 3270              		.loc 1 783 0
 3271 0030 3246     		mov	r2, r6
 3272 0032 F317     		asrs	r3, r6, #31
 3273 0034 FFF7FEFF 		bl	f_lseek
 3274              	.LVL346:
 3275              		.loc 1 784 0
 3276 0038 0446     		mov	r4, r0
 3277              	.LVL347:
 3278 003a 0028     		cmp	r0, #0
 3279 003c ECD0     		beq	.L355
 3280              	.L370:
 3281              		.loc 1 792 0
 3282 003e FFF7FEFF 		bl	__errno
 3283              	.LVL348:
 3284 0042 132C     		cmp	r4, #19
 3285 0044 96BF     		itet	ls
 3286 0046 024B     		ldrls	r3, .L371
 3287 0048 4D23     		movhi	r3, #77
 3288              	.LVL349:
 3289 004a 1B57     		ldrsbls	r3, [r3, r4]
 3290 004c 0360     		str	r3, [r0]
 3291 004e E0E7     		b	.L367
 3292              	.L372:
 3293              		.align	2
 3294              	.L371:
 3295 0050 00000000 		.word	.LANCHOR0
 3296              		.cfi_endproc
 3297              	.LFE314:
 3298              		.size	ftruncate, .-ftruncate
 3299              		.section	.text.read,"ax",%progbits
 3300              		.align	1
 3301              		.global	read
 3302              		.syntax unified
 3303              		.thumb
 3304              		.thumb_func
 3305              		.fpu fpv4-sp-d16
 3306              		.type	read, %function
ARM GAS  /tmp/ccSNToGX.s 			page 59


 3307              	read:
 3308              	.LFB317:
 3309              		.loc 1 948 0
 3310              		.cfi_startproc
 3311              		@ args = 0, pretend = 0, frame = 8
 3312              		@ frame_needed = 0, uses_anonymous_args = 0
 3313              	.LVL350:
 3314 0000 2DE9F341 		push	{r0, r1, r4, r5, r6, r7, r8, lr}
 3315              		.cfi_def_cfa_offset 32
 3316              		.cfi_offset 4, -24
 3317              		.cfi_offset 5, -20
 3318              		.cfi_offset 6, -16
 3319              		.cfi_offset 7, -12
 3320              		.cfi_offset 8, -8
 3321              		.cfi_offset 14, -4
 3322              		.loc 1 957 0
 3323 0004 0027     		movs	r7, #0
 3324 0006 0F70     		strb	r7, [r1]
 3325              		.loc 1 948 0
 3326 0008 1646     		mov	r6, r2
 3327 000a 8046     		mov	r8, r0
 3328 000c 0C46     		mov	r4, r1
 3329              	.LVL351:
 3330              		.loc 1 959 0
 3331 000e FFF7FEFF 		bl	__errno
 3332              	.LVL352:
 3333 0012 0760     		str	r7, [r0]
 3334              		.loc 1 963 0
 3335 0014 4046     		mov	r0, r8
 3336 0016 FFF7FEFF 		bl	fileno_to_stream
 3337              	.LVL353:
 3338              		.loc 1 964 0
 3339 001a 1E4B     		ldr	r3, .L386
 3340 001c 1A68     		ldr	r2, [r3]
 3341 001e 9042     		cmp	r0, r2
 3342              		.loc 1 963 0
 3343 0020 0546     		mov	r5, r0
 3344              	.LVL354:
 3345              		.loc 1 964 0
 3346 0022 16D1     		bne	.L374
 3347              	.LVL355:
 3348              	.LBB153:
 3349              		.loc 1 968 0
 3350 0024 4379     		ldrb	r3, [r0, #5]	@ zero_extendqisi2
 3351              		.loc 1 969 0
 3352 0026 0197     		str	r7, [sp, #4]
 3353              		.loc 1 968 0
 3354 0028 43F04003 		orr	r3, r3, #64
 3355 002c 4371     		strb	r3, [r0, #5]
 3356 002e 2644     		add	r6, r6, r4
 3357              	.LVL356:
 3358              	.L375:
 3359              		.loc 1 970 0
 3360 0030 B442     		cmp	r4, r6
 3361 0032 04D0     		beq	.L381
 3362              		.loc 1 972 0
 3363 0034 2846     		mov	r0, r5
ARM GAS  /tmp/ccSNToGX.s 			page 60


 3364 0036 FFF7FEFF 		bl	fgetc
 3365              	.LVL357:
 3366              		.loc 1 973 0
 3367 003a 0028     		cmp	r0, #0
 3368 003c 03DA     		bge	.L376
 3369              	.LVL358:
 3370              	.L381:
 3371              	.LBE153:
 3372              		.loc 1 1000 0
 3373 003e 0198     		ldr	r0, [sp, #4]
 3374              	.L373:
 3375              		.loc 1 1001 0
 3376 0040 02B0     		add	sp, sp, #8
 3377              		.cfi_remember_state
 3378              		.cfi_def_cfa_offset 24
 3379              		@ sp needed
 3380 0042 BDE8F081 		pop	{r4, r5, r6, r7, r8, pc}
 3381              	.LVL359:
 3382              	.L376:
 3383              		.cfi_restore_state
 3384              	.LBB154:
 3385              		.loc 1 977 0
 3386 0046 019B     		ldr	r3, [sp, #4]
 3387              		.loc 1 976 0
 3388 0048 04F8010B 		strb	r0, [r4], #1
 3389              	.LVL360:
 3390              		.loc 1 977 0
 3391 004c 0133     		adds	r3, r3, #1
 3392 004e 0193     		str	r3, [sp, #4]
 3393 0050 EEE7     		b	.L375
 3394              	.LVL361:
 3395              	.L374:
 3396              	.LBE154:
 3397              		.loc 1 981 0
 3398 0052 5A68     		ldr	r2, [r3, #4]
 3399 0054 9042     		cmp	r0, r2
 3400 0056 0AD0     		beq	.L384
 3401              		.loc 1 981 0 is_stmt 0 discriminator 1
 3402 0058 9B68     		ldr	r3, [r3, #8]
 3403 005a 9842     		cmp	r0, r3
 3404 005c 07D0     		beq	.L384
 3405              		.loc 1 987 0 is_stmt 1
 3406 005e 4046     		mov	r0, r8
 3407              	.LVL362:
 3408 0060 FFF7FEFF 		bl	fileno_to_fatfs
 3409              	.LVL363:
 3410              		.loc 1 988 0
 3411 0064 30B9     		cbnz	r0, .L380
 3412              		.loc 1 990 0
 3413 0066 FFF7FEFF 		bl	__errno
 3414              	.LVL364:
 3415 006a 0923     		movs	r3, #9
 3416              	.LVL365:
 3417              	.L382:
 3418              		.loc 1 997 0
 3419 006c 0360     		str	r3, [r0]
 3420              	.L384:
ARM GAS  /tmp/ccSNToGX.s 			page 61


 3421              		.loc 1 983 0
 3422 006e 4FF0FF30 		mov	r0, #-1
 3423 0072 E5E7     		b	.L373
 3424              	.LVL366:
 3425              	.L380:
 3426              		.loc 1 994 0
 3427 0074 2146     		mov	r1, r4
 3428 0076 01AB     		add	r3, sp, #4
 3429 0078 3246     		mov	r2, r6
 3430 007a FFF7FEFF 		bl	f_read
 3431              	.LVL367:
 3432              		.loc 1 995 0
 3433 007e 0446     		mov	r4, r0
 3434              	.LVL368:
 3435 0080 0028     		cmp	r0, #0
 3436 0082 DCD0     		beq	.L381
 3437              		.loc 1 997 0
 3438 0084 FFF7FEFF 		bl	__errno
 3439              	.LVL369:
 3440 0088 132C     		cmp	r4, #19
 3441 008a 96BF     		itet	ls
 3442 008c 024B     		ldrls	r3, .L386+4
 3443 008e 4D23     		movhi	r3, #77
 3444 0090 1B57     		ldrsbls	r3, [r3, r4]
 3445 0092 EBE7     		b	.L382
 3446              	.L387:
 3447              		.align	2
 3448              	.L386:
 3449 0094 00000000 		.word	.LANCHOR1
 3450 0098 00000000 		.word	.LANCHOR0
 3451              		.cfi_endproc
 3452              	.LFE317:
 3453              		.size	read, .-read
 3454              		.section	.text.__wrap_fread,"ax",%progbits
 3455              		.align	1
 3456              		.global	__wrap_fread
 3457              		.syntax unified
 3458              		.thumb
 3459              		.thumb_func
 3460              		.fpu fpv4-sp-d16
 3461              		.type	__wrap_fread, %function
 3462              	__wrap_fread:
 3463              	.LFB313:
 3464              		.loc 1 746 0
 3465              		.cfi_startproc
 3466              		@ args = 0, pretend = 0, frame = 0
 3467              		@ frame_needed = 0, uses_anonymous_args = 0
 3468              	.LVL370:
 3469 0000 38B5     		push	{r3, r4, r5, lr}
 3470              		.cfi_def_cfa_offset 16
 3471              		.cfi_offset 3, -16
 3472              		.cfi_offset 4, -12
 3473              		.cfi_offset 5, -8
 3474              		.cfi_offset 14, -4
 3475              		.loc 1 747 0
 3476 0002 02FB01F5 		mul	r5, r2, r1
 3477              	.LVL371:
ARM GAS  /tmp/ccSNToGX.s 			page 62


 3478              		.loc 1 746 0
 3479 0006 0446     		mov	r4, r0
 3480              		.loc 1 748 0
 3481 0008 1846     		mov	r0, r3
 3482              	.LVL372:
 3483 000a FFF7FEFF 		bl	fileno
 3484              	.LVL373:
 3485              		.loc 1 752 0
 3486 000e 2A46     		mov	r2, r5
 3487 0010 2146     		mov	r1, r4
 3488 0012 FFF7FEFF 		bl	read
 3489              	.LVL374:
 3490              		.loc 1 757 0
 3491 0016 20EAE070 		bic	r0, r0, r0, asr #31
 3492              	.LVL375:
 3493 001a 38BD     		pop	{r3, r4, r5, pc}
 3494              		.cfi_endproc
 3495              	.LFE313:
 3496              		.size	__wrap_fread, .-__wrap_fread
 3497              		.section	.text.syncfs,"ax",%progbits
 3498              		.align	1
 3499              		.global	syncfs
 3500              		.syntax unified
 3501              		.thumb
 3502              		.thumb_func
 3503              		.fpu fpv4-sp-d16
 3504              		.type	syncfs, %function
 3505              	syncfs:
 3506              	.LFB319:
 3507              		.loc 1 1038 0
 3508              		.cfi_startproc
 3509              		@ args = 0, pretend = 0, frame = 0
 3510              		@ frame_needed = 0, uses_anonymous_args = 0
 3511              	.LVL376:
 3512 0000 10B5     		push	{r4, lr}
 3513              		.cfi_def_cfa_offset 8
 3514              		.cfi_offset 4, -8
 3515              		.cfi_offset 14, -4
 3516              		.loc 1 1038 0
 3517 0002 0446     		mov	r4, r0
 3518              		.loc 1 1043 0
 3519 0004 FFF7FEFF 		bl	__errno
 3520              	.LVL377:
 3521 0008 0023     		movs	r3, #0
 3522              	.LBB162:
 3523              	.LBB163:
 3524              		.loc 1 140 0
 3525 000a 022C     		cmp	r4, #2
 3526              	.LBE163:
 3527              	.LBE162:
 3528              		.loc 1 1043 0
 3529 000c 0360     		str	r3, [r0]
 3530              	.LVL378:
 3531              	.LBB165:
 3532              	.LBB164:
 3533              		.loc 1 140 0
 3534 000e 0AD9     		bls	.L390
ARM GAS  /tmp/ccSNToGX.s 			page 63


 3535              	.LVL379:
 3536              	.LBE164:
 3537              	.LBE165:
 3538              		.loc 1 1050 0
 3539 0010 2046     		mov	r0, r4
 3540 0012 FFF7FEFF 		bl	fileno_to_stream
 3541              	.LVL380:
 3542              		.loc 1 1052 0
 3543 0016 4379     		ldrb	r3, [r0, #5]	@ zero_extendqisi2
 3544 0018 43F04003 		orr	r3, r3, #64
 3545 001c 4371     		strb	r3, [r0, #5]
 3546              		.loc 1 1055 0
 3547 001e 2046     		mov	r0, r4
 3548              	.LVL381:
 3549 0020 FFF7FEFF 		bl	fileno_to_fatfs
 3550              	.LVL382:
 3551              		.loc 1 1056 0
 3552 0024 18B9     		cbnz	r0, .L399
 3553              	.LVL383:
 3554              	.L390:
 3555              		.loc 1 1047 0
 3556 0026 FFF7FEFF 		bl	__errno
 3557              	.LVL384:
 3558 002a 0923     		movs	r3, #9
 3559 002c 0AE0     		b	.L400
 3560              	.LVL385:
 3561              	.L399:
 3562              		.loc 1 1062 0
 3563 002e FFF7FEFF 		bl	f_sync
 3564              	.LVL386:
 3565              		.loc 1 1063 0
 3566 0032 0446     		mov	r4, r0
 3567              	.LVL387:
 3568 0034 50B1     		cbz	r0, .L396
 3569              		.loc 1 1065 0
 3570 0036 FFF7FEFF 		bl	__errno
 3571              	.LVL388:
 3572 003a 132C     		cmp	r4, #19
 3573 003c 9ABF     		itte	ls
 3574 003e 044B     		ldrls	r3, .L401
 3575 0040 1B57     		ldrsbls	r3, [r3, r4]
 3576 0042 4D23     		movhi	r3, #77
 3577              	.LVL389:
 3578              	.L400:
 3579              		.loc 1 1047 0
 3580 0044 0360     		str	r3, [r0]
 3581              		.loc 1 1048 0
 3582 0046 4FF0FF30 		mov	r0, #-1
 3583 004a 10BD     		pop	{r4, pc}
 3584              	.LVL390:
 3585              	.L396:
 3586 004c 10BD     		pop	{r4, pc}
 3587              	.L402:
 3588 004e 00BF     		.align	2
 3589              	.L401:
 3590 0050 00000000 		.word	.LANCHOR0
 3591              		.cfi_endproc
ARM GAS  /tmp/ccSNToGX.s 			page 64


 3592              	.LFE319:
 3593              		.size	syncfs, .-syncfs
 3594              		.section	.text.sync,"ax",%progbits
 3595              		.align	1
 3596              		.global	sync
 3597              		.syntax unified
 3598              		.thumb
 3599              		.thumb_func
 3600              		.fpu fpv4-sp-d16
 3601              		.type	sync, %function
 3602              	sync:
 3603              	.LFB318:
 3604              		.loc 1 1011 0
 3605              		.cfi_startproc
 3606              		@ args = 0, pretend = 0, frame = 0
 3607              		@ frame_needed = 0, uses_anonymous_args = 0
 3608              	.LVL391:
 3609 0000 10B5     		push	{r4, lr}
 3610              		.cfi_def_cfa_offset 8
 3611              		.cfi_offset 4, -8
 3612              		.cfi_offset 14, -4
 3613              		.loc 1 1015 0
 3614 0002 0024     		movs	r4, #0
 3615              	.LVL392:
 3616              	.L404:
 3617              		.loc 1 1015 0 is_stmt 0 discriminator 2
 3618 0004 0134     		adds	r4, r4, #1
 3619              	.LVL393:
 3620 0006 102C     		cmp	r4, #16
 3621 0008 00D1     		bne	.L407
 3622 000a 10BD     		pop	{r4, pc}
 3623              	.LVL394:
 3624              	.L407:
 3625              	.LBB166:
 3626              	.LBB167:
 3627              		.loc 1 140 0 is_stmt 1
 3628 000c 022C     		cmp	r4, #2
 3629 000e F9DD     		ble	.L404
 3630              	.LVL395:
 3631              	.LBE167:
 3632              	.LBE166:
 3633              		.loc 1 1021 0
 3634 0010 2046     		mov	r0, r4
 3635 0012 FFF7FEFF 		bl	fileno_to_fatfs
 3636              	.LVL396:
 3637              		.loc 1 1022 0
 3638 0016 0028     		cmp	r0, #0
 3639 0018 F4D0     		beq	.L404
 3640              		.loc 1 1025 0
 3641 001a 2046     		mov	r0, r4
 3642              	.LVL397:
 3643 001c FFF7FEFF 		bl	syncfs
 3644              	.LVL398:
 3645 0020 F0E7     		b	.L404
 3646              		.cfi_endproc
 3647              	.LFE318:
 3648              		.size	sync, .-sync
ARM GAS  /tmp/ccSNToGX.s 			page 65


 3649              		.section	.text.write,"ax",%progbits
 3650              		.align	1
 3651              		.global	write
 3652              		.syntax unified
 3653              		.thumb
 3654              		.thumb_func
 3655              		.fpu fpv4-sp-d16
 3656              		.type	write, %function
 3657              	write:
 3658              	.LFB321:
 3659              		.loc 1 1122 0
 3660              		.cfi_startproc
 3661              		@ args = 0, pretend = 0, frame = 8
 3662              		@ frame_needed = 0, uses_anonymous_args = 0
 3663              	.LVL399:
 3664 0000 2DE9F341 		push	{r0, r1, r4, r5, r6, r7, r8, lr}
 3665              		.cfi_def_cfa_offset 32
 3666              		.cfi_offset 4, -24
 3667              		.cfi_offset 5, -20
 3668              		.cfi_offset 6, -16
 3669              		.cfi_offset 7, -12
 3670              		.cfi_offset 8, -8
 3671              		.cfi_offset 14, -4
 3672              		.loc 1 1122 0
 3673 0004 1646     		mov	r6, r2
 3674 0006 8046     		mov	r8, r0
 3675 0008 0C46     		mov	r4, r1
 3676              	.LVL400:
 3677              		.loc 1 1128 0
 3678 000a FFF7FEFF 		bl	__errno
 3679              	.LVL401:
 3680 000e 0025     		movs	r5, #0
 3681 0010 0560     		str	r5, [r0]
 3682              		.loc 1 1131 0
 3683 0012 4046     		mov	r0, r8
 3684 0014 FFF7FEFF 		bl	fileno_to_stream
 3685              	.LVL402:
 3686              		.loc 1 1132 0
 3687 0018 1C4B     		ldr	r3, .L428
 3688 001a 5A68     		ldr	r2, [r3, #4]
 3689 001c 9042     		cmp	r0, r2
 3690              		.loc 1 1131 0
 3691 001e 0746     		mov	r7, r0
 3692              	.LVL403:
 3693              		.loc 1 1132 0
 3694 0020 02D0     		beq	.L416
 3695              		.loc 1 1132 0 is_stmt 0 discriminator 1
 3696 0022 9A68     		ldr	r2, [r3, #8]
 3697 0024 9042     		cmp	r0, r2
 3698 0026 13D1     		bne	.L417
 3699              	.L416:
 3700              	.LVL404:
 3701              	.LBB168:
 3702              		.loc 1 1135 0 is_stmt 1
 3703 0028 0195     		str	r5, [sp, #4]
 3704 002a 2644     		add	r6, r6, r4
 3705              	.LVL405:
ARM GAS  /tmp/ccSNToGX.s 			page 66


 3706              	.L418:
 3707              		.loc 1 1136 0
 3708 002c B442     		cmp	r4, r6
 3709 002e 07D0     		beq	.L424
 3710              	.LBB169:
 3711              		.loc 1 1139 0
 3712 0030 14F8015B 		ldrb	r5, [r4], #1	@ zero_extendqisi2
 3713              	.LVL406:
 3714              		.loc 1 1140 0
 3715 0034 3946     		mov	r1, r7
 3716 0036 2846     		mov	r0, r5
 3717 0038 FFF7FEFF 		bl	fputc
 3718              	.LVL407:
 3719              		.loc 1 1141 0
 3720 003c 8542     		cmp	r5, r0
 3721 003e 03D0     		beq	.L419
 3722              	.LVL408:
 3723              	.L424:
 3724              	.LBE169:
 3725              	.LBE168:
 3726              		.loc 1 1167 0
 3727 0040 0198     		ldr	r0, [sp, #4]
 3728              	.L415:
 3729              		.loc 1 1168 0
 3730 0042 02B0     		add	sp, sp, #8
 3731              		.cfi_remember_state
 3732              		.cfi_def_cfa_offset 24
 3733              		@ sp needed
 3734 0044 BDE8F081 		pop	{r4, r5, r6, r7, r8, pc}
 3735              	.LVL409:
 3736              	.L419:
 3737              		.cfi_restore_state
 3738              	.LBB171:
 3739              	.LBB170:
 3740              		.loc 1 1144 0
 3741 0048 019B     		ldr	r3, [sp, #4]
 3742 004a 0133     		adds	r3, r3, #1
 3743 004c 0193     		str	r3, [sp, #4]
 3744 004e EDE7     		b	.L418
 3745              	.LVL410:
 3746              	.L417:
 3747              	.LBE170:
 3748              	.LBE171:
 3749              		.loc 1 1148 0
 3750 0050 1B68     		ldr	r3, [r3]
 3751 0052 9842     		cmp	r0, r3
 3752 0054 07D0     		beq	.L426
 3753              		.loc 1 1154 0
 3754 0056 4046     		mov	r0, r8
 3755              	.LVL411:
 3756 0058 FFF7FEFF 		bl	fileno_to_fatfs
 3757              	.LVL412:
 3758              		.loc 1 1155 0
 3759 005c 30B9     		cbnz	r0, .L423
 3760              		.loc 1 1157 0
 3761 005e FFF7FEFF 		bl	__errno
 3762              	.LVL413:
ARM GAS  /tmp/ccSNToGX.s 			page 67


 3763 0062 0923     		movs	r3, #9
 3764              	.LVL414:
 3765              	.L425:
 3766              		.loc 1 1164 0
 3767 0064 0360     		str	r3, [r0]
 3768              	.L426:
 3769              		.loc 1 1150 0
 3770 0066 4FF0FF30 		mov	r0, #-1
 3771 006a EAE7     		b	.L415
 3772              	.LVL415:
 3773              	.L423:
 3774              		.loc 1 1161 0
 3775 006c 2146     		mov	r1, r4
 3776 006e 01AB     		add	r3, sp, #4
 3777 0070 3246     		mov	r2, r6
 3778 0072 FFF7FEFF 		bl	f_write
 3779              	.LVL416:
 3780              		.loc 1 1162 0
 3781 0076 0446     		mov	r4, r0
 3782              	.LVL417:
 3783 0078 0028     		cmp	r0, #0
 3784 007a E1D0     		beq	.L424
 3785              		.loc 1 1164 0
 3786 007c FFF7FEFF 		bl	__errno
 3787              	.LVL418:
 3788 0080 132C     		cmp	r4, #19
 3789 0082 96BF     		itet	ls
 3790 0084 024B     		ldrls	r3, .L428+4
 3791 0086 4D23     		movhi	r3, #77
 3792 0088 1B57     		ldrsbls	r3, [r3, r4]
 3793 008a EBE7     		b	.L425
 3794              	.L429:
 3795              		.align	2
 3796              	.L428:
 3797 008c 00000000 		.word	.LANCHOR1
 3798 0090 00000000 		.word	.LANCHOR0
 3799              		.cfi_endproc
 3800              	.LFE321:
 3801              		.size	write, .-write
 3802              		.section	.text.fwrite,"ax",%progbits
 3803              		.align	1
 3804              		.global	fwrite
 3805              		.syntax unified
 3806              		.thumb
 3807              		.thumb_func
 3808              		.fpu fpv4-sp-d16
 3809              		.type	fwrite, %function
 3810              	fwrite:
 3811              	.LFB315:
 3812              		.loc 1 811 0
 3813              		.cfi_startproc
 3814              		@ args = 0, pretend = 0, frame = 0
 3815              		@ frame_needed = 0, uses_anonymous_args = 0
 3816              	.LVL419:
 3817 0000 38B5     		push	{r3, r4, r5, lr}
 3818              		.cfi_def_cfa_offset 16
 3819              		.cfi_offset 3, -16
ARM GAS  /tmp/ccSNToGX.s 			page 68


 3820              		.cfi_offset 4, -12
 3821              		.cfi_offset 5, -8
 3822              		.cfi_offset 14, -4
 3823              		.loc 1 812 0
 3824 0002 02FB01F5 		mul	r5, r2, r1
 3825              	.LVL420:
 3826              		.loc 1 811 0
 3827 0006 0446     		mov	r4, r0
 3828              		.loc 1 813 0
 3829 0008 1846     		mov	r0, r3
 3830              	.LVL421:
 3831 000a FFF7FEFF 		bl	fileno
 3832              	.LVL422:
 3833              		.loc 1 817 0
 3834 000e 2A46     		mov	r2, r5
 3835 0010 2146     		mov	r1, r4
 3836 0012 FFF7FEFF 		bl	write
 3837              	.LVL423:
 3838              		.loc 1 823 0
 3839 0016 20EAE070 		bic	r0, r0, r0, asr #31
 3840              	.LVL424:
 3841 001a 38BD     		pop	{r3, r4, r5, pc}
 3842              		.cfi_endproc
 3843              	.LFE315:
 3844              		.size	fwrite, .-fwrite
 3845              		.section	.text.free_file_descriptor,"ax",%progbits
 3846              		.align	1
 3847              		.global	free_file_descriptor
 3848              		.syntax unified
 3849              		.thumb
 3850              		.thumb_func
 3851              		.fpu fpv4-sp-d16
 3852              		.type	free_file_descriptor, %function
 3853              	free_file_descriptor:
 3854              	.LFB355:
 3855              		.loc 1 2335 0
 3856              		.cfi_startproc
 3857              		@ args = 0, pretend = 0, frame = 0
 3858              		@ frame_needed = 0, uses_anonymous_args = 0
 3859              	.LVL425:
 3860              	.LBB178:
 3861              	.LBB179:
 3862              		.loc 1 140 0
 3863 0000 0228     		cmp	r0, #2
 3864              	.LBE179:
 3865              	.LBE178:
 3866              		.loc 1 2335 0
 3867 0002 38B5     		push	{r3, r4, r5, lr}
 3868              		.cfi_def_cfa_offset 16
 3869              		.cfi_offset 3, -16
 3870              		.cfi_offset 4, -12
 3871              		.cfi_offset 5, -8
 3872              		.cfi_offset 14, -4
 3873              		.loc 1 2335 0
 3874 0004 0446     		mov	r4, r0
 3875              	.LBB181:
 3876              	.LBB180:
ARM GAS  /tmp/ccSNToGX.s 			page 69


 3877              		.loc 1 140 0
 3878 0006 18D9     		bls	.L432
 3879              	.LVL426:
 3880              	.LBE180:
 3881              	.LBE181:
 3882              		.loc 1 2346 0
 3883 0008 FFF7FEFF 		bl	fileno_to_stream
 3884              	.LVL427:
 3885              		.loc 1 2347 0
 3886 000c 0546     		mov	r5, r0
 3887 000e C0B1     		cbz	r0, .L448
 3888              		.loc 1 2352 0
 3889 0010 A869     		ldr	r0, [r5, #24]
 3890              	.LVL428:
 3891              		.loc 1 2354 0
 3892 0012 08B1     		cbz	r0, .L434
 3893              		.loc 1 2356 0
 3894 0014 FFF7FEFF 		bl	free
 3895              	.LVL429:
 3896              	.L434:
 3897              		.loc 1 2359 0
 3898 0018 2868     		ldr	r0, [r5]
 3899 001a 28B1     		cbz	r0, .L435
 3900              		.loc 1 2359 0 is_stmt 0 discriminator 1
 3901 001c 95F90530 		ldrsb	r3, [r5, #5]
 3902 0020 002B     		cmp	r3, #0
 3903 0022 01DA     		bge	.L435
 3904              		.loc 1 2361 0 is_stmt 1
 3905 0024 FFF7FEFF 		bl	free
 3906              	.LVL430:
 3907              	.L435:
 3908              		.loc 1 2364 0
 3909 0028 074B     		ldr	r3, .L449
 3910 002a 0022     		movs	r2, #0
 3911              		.loc 1 2365 0
 3912 002c 2846     		mov	r0, r5
 3913              		.loc 1 2364 0
 3914 002e 43F82420 		str	r2, [r3, r4, lsl #2]
 3915              		.loc 1 2365 0
 3916 0032 FFF7FEFF 		bl	free
 3917              	.LVL431:
 3918              	.L446:
 3919              		.loc 1 2367 0
 3920 0036 2046     		mov	r0, r4
 3921 0038 38BD     		pop	{r3, r4, r5, pc}
 3922              	.LVL432:
 3923              	.L432:
 3924              	.LBB182:
 3925              	.LBB183:
 3926              		.loc 1 2341 0
 3927 003a FFF7FEFF 		bl	__errno
 3928              	.LVL433:
 3929 003e 0923     		movs	r3, #9
 3930 0040 0360     		str	r3, [r0]
 3931              	.LVL434:
 3932              	.L448:
 3933 0042 4FF0FF34 		mov	r4, #-1
ARM GAS  /tmp/ccSNToGX.s 			page 70


 3934              	.LVL435:
 3935 0046 F6E7     		b	.L446
 3936              	.L450:
 3937              		.align	2
 3938              	.L449:
 3939 0048 00000000 		.word	.LANCHOR1
 3940              	.LBE183:
 3941              	.LBE182:
 3942              		.cfi_endproc
 3943              	.LFE355:
 3944              		.size	free_file_descriptor, .-free_file_descriptor
 3945              		.section	.text.close,"ax",%progbits
 3946              		.align	1
 3947              		.global	close
 3948              		.syntax unified
 3949              		.thumb
 3950              		.thumb_func
 3951              		.fpu fpv4-sp-d16
 3952              		.type	close, %function
 3953              	close:
 3954              	.LFB309:
 3955              		.loc 1 628 0
 3956              		.cfi_startproc
 3957              		@ args = 0, pretend = 0, frame = 0
 3958              		@ frame_needed = 0, uses_anonymous_args = 0
 3959              	.LVL436:
 3960 0000 38B5     		push	{r3, r4, r5, lr}
 3961              		.cfi_def_cfa_offset 16
 3962              		.cfi_offset 3, -16
 3963              		.cfi_offset 4, -12
 3964              		.cfi_offset 5, -8
 3965              		.cfi_offset 14, -4
 3966              		.loc 1 628 0
 3967 0002 0546     		mov	r5, r0
 3968              		.loc 1 633 0
 3969 0004 FFF7FEFF 		bl	__errno
 3970              	.LVL437:
 3971 0008 0023     		movs	r3, #0
 3972 000a 0360     		str	r3, [r0]
 3973              		.loc 1 636 0
 3974 000c 2846     		mov	r0, r5
 3975 000e FFF7FEFF 		bl	fileno_to_stream
 3976              	.LVL438:
 3977              		.loc 1 637 0
 3978 0012 10B9     		cbnz	r0, .L452
 3979              	.LVL439:
 3980              	.L461:
 3981              		.loc 1 653 0
 3982 0014 4FF0FF30 		mov	r0, #-1
 3983 0018 38BD     		pop	{r3, r4, r5, pc}
 3984              	.LVL440:
 3985              	.L452:
 3986              		.loc 1 643 0
 3987 001a 2846     		mov	r0, r5
 3988              	.LVL441:
 3989 001c FFF7FEFF 		bl	fileno_to_fatfs
 3990              	.LVL442:
ARM GAS  /tmp/ccSNToGX.s 			page 71


 3991              		.loc 1 644 0
 3992 0020 0028     		cmp	r0, #0
 3993 0022 F7D0     		beq	.L461
 3994              		.loc 1 648 0
 3995 0024 FFF7FEFF 		bl	f_close
 3996              	.LVL443:
 3997 0028 0446     		mov	r4, r0
 3998              	.LVL444:
 3999              		.loc 1 649 0
 4000 002a 2846     		mov	r0, r5
 4001 002c FFF7FEFF 		bl	free_file_descriptor
 4002              	.LVL445:
 4003              		.loc 1 650 0
 4004 0030 44B1     		cbz	r4, .L456
 4005              		.loc 1 652 0
 4006 0032 FFF7FEFF 		bl	__errno
 4007              	.LVL446:
 4008 0036 132C     		cmp	r4, #19
 4009 0038 96BF     		itet	ls
 4010 003a 034B     		ldrls	r3, .L462
 4011 003c 4D23     		movhi	r3, #77
 4012              	.LVL447:
 4013 003e 1B57     		ldrsbls	r3, [r3, r4]
 4014 0040 0360     		str	r3, [r0]
 4015 0042 E7E7     		b	.L461
 4016              	.L456:
 4017              		.loc 1 655 0
 4018 0044 2046     		mov	r0, r4
 4019              		.loc 1 656 0
 4020 0046 38BD     		pop	{r3, r4, r5, pc}
 4021              	.LVL448:
 4022              	.L463:
 4023              		.align	2
 4024              	.L462:
 4025 0048 00000000 		.word	.LANCHOR0
 4026              		.cfi_endproc
 4027              	.LFE309:
 4028              		.size	close, .-close
 4029              		.section	.text.__wrap_fclose,"ax",%progbits
 4030              		.align	1
 4031              		.global	__wrap_fclose
 4032              		.syntax unified
 4033              		.thumb
 4034              		.thumb_func
 4035              		.fpu fpv4-sp-d16
 4036              		.type	__wrap_fclose, %function
 4037              	__wrap_fclose:
 4038              	.LFB323:
 4039              		.loc 1 1189 0
 4040              		.cfi_startproc
 4041              		@ args = 0, pretend = 0, frame = 0
 4042              		@ frame_needed = 0, uses_anonymous_args = 0
 4043              	.LVL449:
 4044 0000 08B5     		push	{r3, lr}
 4045              		.cfi_def_cfa_offset 8
 4046              		.cfi_offset 3, -8
 4047              		.cfi_offset 14, -4
ARM GAS  /tmp/ccSNToGX.s 			page 72


 4048              		.loc 1 1190 0
 4049 0002 FFF7FEFF 		bl	fileno
 4050              	.LVL450:
 4051              		.loc 1 1191 0
 4052 0006 0028     		cmp	r0, #0
 4053 0008 03DB     		blt	.L465
 4054              		.loc 1 1195 0
 4055 000a BDE80840 		pop	{r3, lr}
 4056              		.cfi_remember_state
 4057              		.cfi_restore 14
 4058              		.cfi_restore 3
 4059              		.cfi_def_cfa_offset 0
 4060              		.loc 1 1194 0
 4061 000e FFF7FEBF 		b	close
 4062              	.LVL451:
 4063              	.L465:
 4064              		.cfi_restore_state
 4065              		.loc 1 1195 0
 4066 0012 4FF0FF30 		mov	r0, #-1
 4067              	.LVL452:
 4068 0016 08BD     		pop	{r3, pc}
 4069              		.cfi_endproc
 4070              	.LFE323:
 4071              		.size	__wrap_fclose, .-__wrap_fclose
 4072              		.section	.text.new_file_descriptor,"ax",%progbits
 4073              		.align	1
 4074              		.global	new_file_descriptor
 4075              		.syntax unified
 4076              		.thumb
 4077              		.thumb_func
 4078              		.fpu fpv4-sp-d16
 4079              		.type	new_file_descriptor, %function
 4080              	new_file_descriptor:
 4081              	.LFB356:
 4082              		.loc 1 2379 0
 4083              		.cfi_startproc
 4084              		@ args = 0, pretend = 0, frame = 0
 4085              		@ frame_needed = 0, uses_anonymous_args = 0
 4086              	.LVL453:
 4087 0000 70B5     		push	{r4, r5, r6, lr}
 4088              		.cfi_def_cfa_offset 16
 4089              		.cfi_offset 4, -16
 4090              		.cfi_offset 5, -12
 4091              		.cfi_offset 6, -8
 4092              		.cfi_offset 14, -4
 4093              		.loc 1 2388 0
 4094 0002 154E     		ldr	r6, .L478
 4095              		.loc 1 2384 0
 4096 0004 0024     		movs	r4, #0
 4097              	.LVL454:
 4098              	.L467:
 4099              		.loc 1 2384 0 is_stmt 0 discriminator 2
 4100 0006 0134     		adds	r4, r4, #1
 4101              	.LVL455:
 4102 0008 102C     		cmp	r4, #16
 4103 000a 03D1     		bne	.L473
 4104              		.loc 1 2409 0 is_stmt 1
ARM GAS  /tmp/ccSNToGX.s 			page 73


 4105 000c FFF7FEFF 		bl	__errno
 4106              	.LVL456:
 4107 0010 1723     		movs	r3, #23
 4108 0012 0EE0     		b	.L476
 4109              	.L473:
 4110              	.LVL457:
 4111              	.LBB190:
 4112              	.LBB191:
 4113              		.loc 1 140 0
 4114 0014 022C     		cmp	r4, #2
 4115 0016 F6DD     		ble	.L467
 4116              	.LVL458:
 4117              	.LBE191:
 4118              	.LBE190:
 4119              		.loc 1 2388 0
 4120 0018 56F82430 		ldr	r3, [r6, r4, lsl #2]
 4121 001c 002B     		cmp	r3, #0
 4122 001e F2D1     		bne	.L467
 4123              		.loc 1 2390 0
 4124 0020 0121     		movs	r1, #1
 4125 0022 1C20     		movs	r0, #28
 4126 0024 FFF7FEFF 		bl	calloc
 4127              	.LVL459:
 4128              		.loc 1 2391 0
 4129 0028 0546     		mov	r5, r0
 4130 002a 30B9     		cbnz	r0, .L470
 4131              	.LVL460:
 4132              	.L477:
 4133              		.loc 1 2400 0
 4134 002c FFF7FEFF 		bl	__errno
 4135              	.LVL461:
 4136 0030 0C23     		movs	r3, #12
 4137              	.LVL462:
 4138              	.L476:
 4139              		.loc 1 2409 0
 4140 0032 0360     		str	r3, [r0]
 4141              		.loc 1 2410 0
 4142 0034 4FF0FF34 		mov	r4, #-1
 4143              	.LVL463:
 4144 0038 0CE0     		b	.L466
 4145              	.LVL464:
 4146              	.L470:
 4147              		.loc 1 2396 0
 4148 003a 0121     		movs	r1, #1
 4149 003c 4FF41470 		mov	r0, #592
 4150              	.LVL465:
 4151 0040 FFF7FEFF 		bl	calloc
 4152              	.LVL466:
 4153              		.loc 1 2397 0
 4154 0044 18B9     		cbnz	r0, .L472
 4155              		.loc 1 2399 0
 4156 0046 2846     		mov	r0, r5
 4157              	.LVL467:
 4158 0048 FFF7FEFF 		bl	free
 4159              	.LVL468:
 4160 004c EEE7     		b	.L477
 4161              	.LVL469:
ARM GAS  /tmp/ccSNToGX.s 			page 74


 4162              	.L472:
 4163              		.loc 1 2404 0
 4164 004e 46F82450 		str	r5, [r6, r4, lsl #2]
 4165              		.loc 1 2405 0
 4166 0052 A861     		str	r0, [r5, #24]
 4167              	.LVL470:
 4168              	.L466:
 4169              		.loc 1 2411 0
 4170 0054 2046     		mov	r0, r4
 4171 0056 70BD     		pop	{r4, r5, r6, pc}
 4172              	.L479:
 4173              		.align	2
 4174              	.L478:
 4175 0058 00000000 		.word	.LANCHOR1
 4176              		.cfi_endproc
 4177              	.LFE356:
 4178              		.size	new_file_descriptor, .-new_file_descriptor
 4179              		.section	.text.open,"ax",%progbits
 4180              		.align	1
 4181              		.global	open
 4182              		.syntax unified
 4183              		.thumb
 4184              		.thumb_func
 4185              		.fpu fpv4-sp-d16
 4186              		.type	open, %function
 4187              	open:
 4188              	.LFB316:
 4189              		.loc 1 838 0
 4190              		.cfi_startproc
 4191              		@ args = 0, pretend = 0, frame = 0
 4192              		@ frame_needed = 0, uses_anonymous_args = 0
 4193              	.LVL471:
 4194 0000 2DE9F047 		push	{r4, r5, r6, r7, r8, r9, r10, lr}
 4195              		.cfi_def_cfa_offset 32
 4196              		.cfi_offset 4, -32
 4197              		.cfi_offset 5, -28
 4198              		.cfi_offset 6, -24
 4199              		.cfi_offset 7, -20
 4200              		.cfi_offset 8, -16
 4201              		.cfi_offset 9, -12
 4202              		.cfi_offset 10, -8
 4203              		.cfi_offset 14, -4
 4204              		.loc 1 838 0
 4205 0004 8846     		mov	r8, r1
 4206 0006 8246     		mov	r10, r0
 4207              		.loc 1 845 0
 4208 0008 FFF7FEFF 		bl	__errno
 4209              	.LVL472:
 4210              		.loc 1 858 0
 4211 000c 08F00307 		and	r7, r8, #3
 4212              		.loc 1 845 0
 4213 0010 0023     		movs	r3, #0
 4214              		.loc 1 858 0
 4215 0012 022F     		cmp	r7, #2
 4216              		.loc 1 845 0
 4217 0014 0360     		str	r3, [r0]
 4218              		.loc 1 858 0
ARM GAS  /tmp/ccSNToGX.s 			page 75


 4219 0016 18D0     		beq	.L493
 4220              		.loc 1 863 0
 4221 0018 9F42     		cmp	r7, r3
 4222 001a 0CBF     		ite	eq
 4223 001c 0126     		moveq	r6, #1
 4224 001e 0226     		movne	r6, #2
 4225              	.L481:
 4226              	.LVL473:
 4227              		.loc 1 865 0
 4228 0020 18F0400F 		tst	r8, #64
 4229 0024 06D0     		beq	.L482
 4230              		.loc 1 867 0
 4231 0026 18F4007F 		tst	r8, #512
 4232              		.loc 1 868 0
 4233 002a 14BF     		ite	ne
 4234 002c 46F00806 		orrne	r6, r6, #8
 4235              	.LVL474:
 4236              		.loc 1 870 0
 4237 0030 46F01006 		orreq	r6, r6, #16
 4238              	.LVL475:
 4239              	.L482:
 4240              		.loc 1 873 0
 4241 0034 FFF7FEFF 		bl	new_file_descriptor
 4242              	.LVL476:
 4243 0038 0446     		mov	r4, r0
 4244              	.LVL477:
 4245              		.loc 1 876 0
 4246 003a FFF7FEFF 		bl	fileno_to_stream
 4247              	.LVL478:
 4248              		.loc 1 877 0
 4249 003e 0546     		mov	r5, r0
 4250              		.loc 1 879 0
 4251 0040 2046     		mov	r0, r4
 4252              	.LVL479:
 4253              		.loc 1 877 0
 4254 0042 25B9     		cbnz	r5, .L484
 4255              	.LVL480:
 4256              	.L507:
 4257              		.loc 1 906 0
 4258 0044 FFF7FEFF 		bl	free_file_descriptor
 4259              	.LVL481:
 4260 0048 0CE0     		b	.L509
 4261              	.LVL482:
 4262              	.L493:
 4263              		.loc 1 859 0
 4264 004a 0326     		movs	r6, #3
 4265 004c E8E7     		b	.L481
 4266              	.LVL483:
 4267              	.L484:
 4268              		.loc 1 884 0
 4269 004e FFF7FEFF 		bl	fileno_to_fatfs
 4270              	.LVL484:
 4271              		.loc 1 885 0
 4272 0052 8146     		mov	r9, r0
 4273 0054 58B9     		cbnz	r0, .L486
 4274              		.loc 1 887 0
 4275 0056 2046     		mov	r0, r4
ARM GAS  /tmp/ccSNToGX.s 			page 76


 4276              	.LVL485:
 4277 0058 FFF7FEFF 		bl	free_file_descriptor
 4278              	.LVL486:
 4279              		.loc 1 888 0
 4280 005c FFF7FEFF 		bl	__errno
 4281              	.LVL487:
 4282 0060 0923     		movs	r3, #9
 4283 0062 0360     		str	r3, [r0]
 4284              	.LVL488:
 4285              	.L509:
 4286              		.loc 1 907 0
 4287 0064 4FF0FF34 		mov	r4, #-1
 4288              	.LVL489:
 4289              	.L480:
 4290              		.loc 1 934 0
 4291 0068 2046     		mov	r0, r4
 4292 006a BDE8F087 		pop	{r4, r5, r6, r7, r8, r9, r10, pc}
 4293              	.LVL490:
 4294              	.L486:
 4295              		.loc 1 891 0
 4296 006e F2B2     		uxtb	r2, r6
 4297 0070 5146     		mov	r1, r10
 4298 0072 FFF7FEFF 		bl	f_open
 4299              	.LVL491:
 4300              		.loc 1 892 0
 4301 0076 0646     		mov	r6, r0
 4302              	.LVL492:
 4303 0078 48B1     		cbz	r0, .L487
 4304              		.loc 1 894 0
 4305 007a FFF7FEFF 		bl	__errno
 4306              	.LVL493:
 4307 007e 132E     		cmp	r6, #19
 4308 0080 96BF     		itet	ls
 4309 0082 184B     		ldrls	r3, .L510
 4310 0084 4D23     		movhi	r3, #77
 4311              	.LVL494:
 4312 0086 9B57     		ldrsbls	r3, [r3, r6]
 4313 0088 0360     		str	r3, [r0]
 4314              	.L508:
 4315              		.loc 1 906 0
 4316 008a 2046     		mov	r0, r4
 4317 008c DAE7     		b	.L507
 4318              	.LVL495:
 4319              	.L487:
 4320              		.loc 1 898 0
 4321 008e 18F4806F 		tst	r8, #1024
 4322 0092 12D0     		beq	.L489
 4323              		.loc 1 901 0
 4324 0094 D9E90423 		ldrd	r2, [r9, #16]
 4325 0098 4846     		mov	r0, r9
 4326              	.LVL496:
 4327 009a FFF7FEFF 		bl	f_lseek
 4328              	.LVL497:
 4329              		.loc 1 902 0
 4330 009e 0646     		mov	r6, r0
 4331 00a0 58B1     		cbz	r0, .L489
 4332              		.loc 1 904 0
ARM GAS  /tmp/ccSNToGX.s 			page 77


 4333 00a2 FFF7FEFF 		bl	__errno
 4334              	.LVL498:
 4335 00a6 132E     		cmp	r6, #19
 4336 00a8 96BF     		itet	ls
 4337 00aa 0E4B     		ldrls	r3, .L510
 4338 00ac 4D23     		movhi	r3, #77
 4339              	.LVL499:
 4340 00ae 9B57     		ldrsbls	r3, [r3, r6]
 4341 00b0 0360     		str	r3, [r0]
 4342              		.loc 1 905 0
 4343 00b2 4846     		mov	r0, r9
 4344 00b4 FFF7FEFF 		bl	f_close
 4345              	.LVL500:
 4346 00b8 E7E7     		b	.L508
 4347              	.L489:
 4348              		.loc 1 911 0
 4349 00ba 022F     		cmp	r7, #2
 4350 00bc 06D1     		bne	.L491
 4351              		.loc 1 914 0
 4352 00be 0A4B     		ldr	r3, .L510+4
 4353 00c0 2B61     		str	r3, [r5, #16]
 4354              		.loc 1 915 0
 4355 00c2 0A4B     		ldr	r3, .L510+8
 4356 00c4 6B61     		str	r3, [r5, #20]
 4357              		.loc 1 916 0
 4358 00c6 0323     		movs	r3, #3
 4359              	.L506:
 4360              		.loc 1 930 0
 4361 00c8 6B71     		strb	r3, [r5, #5]
 4362 00ca CDE7     		b	.L480
 4363              	.L491:
 4364              		.loc 1 918 0
 4365 00cc 27B9     		cbnz	r7, .L492
 4366              		.loc 1 922 0
 4367 00ce 074B     		ldr	r3, .L510+8
 4368 00d0 6B61     		str	r3, [r5, #20]
 4369              		.loc 1 921 0
 4370 00d2 2F61     		str	r7, [r5, #16]
 4371              		.loc 1 923 0
 4372 00d4 0123     		movs	r3, #1
 4373 00d6 F7E7     		b	.L506
 4374              	.L492:
 4375              		.loc 1 928 0
 4376 00d8 034B     		ldr	r3, .L510+4
 4377 00da 2B61     		str	r3, [r5, #16]
 4378              		.loc 1 929 0
 4379 00dc 0023     		movs	r3, #0
 4380 00de 6B61     		str	r3, [r5, #20]
 4381              		.loc 1 930 0
 4382 00e0 0223     		movs	r3, #2
 4383 00e2 F1E7     		b	.L506
 4384              	.L511:
 4385              		.align	2
 4386              	.L510:
 4387 00e4 00000000 		.word	.LANCHOR0
 4388 00e8 00000000 		.word	fatfs_putc
 4389 00ec 00000000 		.word	fatfs_getc
ARM GAS  /tmp/ccSNToGX.s 			page 78


 4390              		.cfi_endproc
 4391              	.LFE316:
 4392              		.size	open, .-open
 4393              		.section	.text.posix_fopen_modes_to_open,"ax",%progbits
 4394              		.align	1
 4395              		.global	posix_fopen_modes_to_open
 4396              		.syntax unified
 4397              		.thumb
 4398              		.thumb_func
 4399              		.fpu fpv4-sp-d16
 4400              		.type	posix_fopen_modes_to_open, %function
 4401              	posix_fopen_modes_to_open:
 4402              	.LFB357:
 4403              		.loc 1 2442 0
 4404              		.cfi_startproc
 4405              		@ args = 0, pretend = 0, frame = 0
 4406              		@ frame_needed = 0, uses_anonymous_args = 0
 4407              	.LVL501:
 4408 0000 10B5     		push	{r4, lr}
 4409              		.cfi_def_cfa_offset 8
 4410              		.cfi_offset 4, -8
 4411              		.cfi_offset 14, -4
 4412              		.loc 1 2445 0
 4413 0002 2849     		ldr	r1, .L530
 4414              		.loc 1 2442 0
 4415 0004 0446     		mov	r4, r0
 4416              		.loc 1 2445 0
 4417 0006 FFF7FEFF 		bl	strcmp
 4418              	.LVL502:
 4419 000a 0028     		cmp	r0, #0
 4420 000c 48D0     		beq	.L512
 4421              		.loc 1 2445 0 is_stmt 0 discriminator 1
 4422 000e 2649     		ldr	r1, .L530+4
 4423 0010 2046     		mov	r0, r4
 4424 0012 FFF7FEFF 		bl	strcmp
 4425              	.LVL503:
 4426 0016 0028     		cmp	r0, #0
 4427 0018 42D0     		beq	.L512
 4428              		.loc 1 2450 0 is_stmt 1
 4429 001a 2449     		ldr	r1, .L530+8
 4430 001c 2046     		mov	r0, r4
 4431 001e FFF7FEFF 		bl	strcmp
 4432              	.LVL504:
 4433 0022 90B3     		cbz	r0, .L516
 4434              		.loc 1 2450 0 is_stmt 0 discriminator 1
 4435 0024 2249     		ldr	r1, .L530+12
 4436 0026 2046     		mov	r0, r4
 4437 0028 FFF7FEFF 		bl	strcmp
 4438              	.LVL505:
 4439 002c 68B3     		cbz	r0, .L516
 4440              		.loc 1 2450 0 discriminator 2
 4441 002e 2149     		ldr	r1, .L530+16
 4442 0030 2046     		mov	r0, r4
 4443 0032 FFF7FEFF 		bl	strcmp
 4444              	.LVL506:
 4445 0036 40B3     		cbz	r0, .L516
 4446              	.LVL507:
ARM GAS  /tmp/ccSNToGX.s 			page 79


 4447              	.LBB194:
 4448              	.LBB195:
 4449              		.loc 1 2455 0 is_stmt 1
 4450 0038 1F49     		ldr	r1, .L530+20
 4451 003a 2046     		mov	r0, r4
 4452 003c FFF7FEFF 		bl	strcmp
 4453              	.LVL508:
 4454 0040 30B3     		cbz	r0, .L518
 4455 0042 1E49     		ldr	r1, .L530+24
 4456 0044 2046     		mov	r0, r4
 4457 0046 FFF7FEFF 		bl	strcmp
 4458              	.LVL509:
 4459 004a 08B3     		cbz	r0, .L518
 4460              		.loc 1 2460 0
 4461 004c 1C49     		ldr	r1, .L530+28
 4462 004e 2046     		mov	r0, r4
 4463 0050 FFF7FEFF 		bl	strcmp
 4464              	.LVL510:
 4465 0054 F8B1     		cbz	r0, .L521
 4466 0056 1B49     		ldr	r1, .L530+32
 4467 0058 2046     		mov	r0, r4
 4468 005a FFF7FEFF 		bl	strcmp
 4469              	.LVL511:
 4470 005e D0B1     		cbz	r0, .L521
 4471 0060 1949     		ldr	r1, .L530+36
 4472 0062 2046     		mov	r0, r4
 4473 0064 FFF7FEFF 		bl	strcmp
 4474              	.LVL512:
 4475 0068 A8B1     		cbz	r0, .L521
 4476              		.loc 1 2465 0
 4477 006a 1849     		ldr	r1, .L530+40
 4478 006c 2046     		mov	r0, r4
 4479 006e FFF7FEFF 		bl	strcmp
 4480              	.LVL513:
 4481 0072 98B1     		cbz	r0, .L522
 4482 0074 1649     		ldr	r1, .L530+44
 4483 0076 2046     		mov	r0, r4
 4484 0078 FFF7FEFF 		bl	strcmp
 4485              	.LVL514:
 4486              		.loc 1 2473 0
 4487 007c 0028     		cmp	r0, #0
 4488 007e 40F24140 		movw	r0, #1089
 4489 0082 18BF     		it	ne
 4490 0084 4FF0FF30 		movne	r0, #-1
 4491 0088 10BD     		pop	{r4, pc}
 4492              	.LVL515:
 4493              	.L516:
 4494              	.LBE195:
 4495              	.LBE194:
 4496              		.loc 1 2453 0
 4497 008a 40F20220 		movw	r0, #514
 4498 008e 10BD     		pop	{r4, pc}
 4499              	.LVL516:
 4500              	.L518:
 4501              	.LBB197:
 4502              	.LBB196:
 4503              		.loc 1 2458 0
ARM GAS  /tmp/ccSNToGX.s 			page 80


 4504 0090 40F24120 		movw	r0, #577
 4505 0094 10BD     		pop	{r4, pc}
 4506              	.LVL517:
 4507              	.L521:
 4508              		.loc 1 2463 0
 4509 0096 40F24220 		movw	r0, #578
 4510 009a 10BD     		pop	{r4, pc}
 4511              	.LVL518:
 4512              	.L522:
 4513              		.loc 1 2468 0
 4514 009c 40F24140 		movw	r0, #1089
 4515              	.LVL519:
 4516              	.L512:
 4517              	.LBE196:
 4518              	.LBE197:
 4519              		.loc 1 2476 0
 4520 00a0 10BD     		pop	{r4, pc}
 4521              	.LVL520:
 4522              	.L531:
 4523 00a2 00BF     		.align	2
 4524              	.L530:
 4525 00a4 00000000 		.word	.LC4
 4526 00a8 02000000 		.word	.LC5
 4527 00ac 05000000 		.word	.LC6
 4528 00b0 08000000 		.word	.LC7
 4529 00b4 0C000000 		.word	.LC8
 4530 00b8 10000000 		.word	.LC9
 4531 00bc 12000000 		.word	.LC10
 4532 00c0 15000000 		.word	.LC11
 4533 00c4 18000000 		.word	.LC12
 4534 00c8 1C000000 		.word	.LC13
 4535 00cc 20000000 		.word	.LC14
 4536 00d0 22000000 		.word	.LC15
 4537              		.cfi_endproc
 4538              	.LFE357:
 4539              		.size	posix_fopen_modes_to_open, .-posix_fopen_modes_to_open
 4540              		.section	.text.fopen,"ax",%progbits
 4541              		.align	1
 4542              		.global	fopen
 4543              		.syntax unified
 4544              		.thumb
 4545              		.thumb_func
 4546              		.fpu fpv4-sp-d16
 4547              		.type	fopen, %function
 4548              	fopen:
 4549              	.LFB312:
 4550              		.loc 1 725 0
 4551              		.cfi_startproc
 4552              		@ args = 0, pretend = 0, frame = 0
 4553              		@ frame_needed = 0, uses_anonymous_args = 0
 4554              	.LVL521:
 4555 0000 10B5     		push	{r4, lr}
 4556              		.cfi_def_cfa_offset 8
 4557              		.cfi_offset 4, -8
 4558              		.cfi_offset 14, -4
 4559              		.loc 1 725 0
 4560 0002 0446     		mov	r4, r0
ARM GAS  /tmp/ccSNToGX.s 			page 81


 4561              		.loc 1 726 0
 4562 0004 0846     		mov	r0, r1
 4563              	.LVL522:
 4564 0006 FFF7FEFF 		bl	posix_fopen_modes_to_open
 4565              	.LVL523:
 4566              		.loc 1 727 0
 4567 000a 0146     		mov	r1, r0
 4568 000c 2046     		mov	r0, r4
 4569              	.LVL524:
 4570 000e FFF7FEFF 		bl	open
 4571              	.LVL525:
 4572              		.loc 1 731 0
 4573 0012 BDE81040 		pop	{r4, lr}
 4574              		.cfi_restore 14
 4575              		.cfi_restore 4
 4576              		.cfi_def_cfa_offset 0
 4577              	.LVL526:
 4578              		.loc 1 730 0
 4579 0016 FFF7FEBF 		b	fileno_to_stream
 4580              	.LVL527:
 4581              		.cfi_endproc
 4582              	.LFE312:
 4583              		.size	fopen, .-fopen
 4584              		.section	.text.__wrap_freopen,"ax",%progbits
 4585              		.align	1
 4586              		.global	__wrap_freopen
 4587              		.syntax unified
 4588              		.thumb
 4589              		.thumb_func
 4590              		.fpu fpv4-sp-d16
 4591              		.type	__wrap_freopen, %function
 4592              	__wrap_freopen:
 4593              	.LFB322:
 4594              		.loc 1 1171 0
 4595              		.cfi_startproc
 4596              		@ args = 0, pretend = 0, frame = 0
 4597              		@ frame_needed = 0, uses_anonymous_args = 0
 4598              	.LVL528:
 4599 0000 38B5     		push	{r3, r4, r5, lr}
 4600              		.cfi_def_cfa_offset 16
 4601              		.cfi_offset 3, -16
 4602              		.cfi_offset 4, -12
 4603              		.cfi_offset 5, -8
 4604              		.cfi_offset 14, -4
 4605              		.loc 1 1171 0
 4606 0002 0446     		mov	r4, r0
 4607              		.loc 1 1172 0
 4608 0004 1046     		mov	r0, r2
 4609              	.LVL529:
 4610              		.loc 1 1171 0
 4611 0006 0D46     		mov	r5, r1
 4612              		.loc 1 1172 0
 4613 0008 FFF7FEFF 		bl	fileno
 4614              	.LVL530:
 4615              		.loc 1 1173 0
 4616 000c FFF7FEFF 		bl	close
 4617              	.LVL531:
ARM GAS  /tmp/ccSNToGX.s 			page 82


 4618              		.loc 1 1174 0
 4619 0010 0028     		cmp	r0, #0
 4620 0012 05DB     		blt	.L534
 4621              		.loc 1 1177 0
 4622 0014 2946     		mov	r1, r5
 4623 0016 2046     		mov	r0, r4
 4624              	.LVL532:
 4625              		.loc 1 1178 0
 4626 0018 BDE83840 		pop	{r3, r4, r5, lr}
 4627              		.cfi_remember_state
 4628              		.cfi_restore 14
 4629              		.cfi_restore 5
 4630              		.cfi_restore 4
 4631              		.cfi_restore 3
 4632              		.cfi_def_cfa_offset 0
 4633              	.LVL533:
 4634              		.loc 1 1177 0
 4635 001c FFF7FEBF 		b	fopen
 4636              	.LVL534:
 4637              	.L534:
 4638              		.cfi_restore_state
 4639              		.loc 1 1178 0
 4640 0020 0020     		movs	r0, #0
 4641              	.LVL535:
 4642 0022 38BD     		pop	{r3, r4, r5, pc}
 4643              		.cfi_endproc
 4644              	.LFE322:
 4645              		.size	__wrap_freopen, .-__wrap_freopen
 4646              		.section	.text.__wrap_fprintf,"ax",%progbits
 4647              		.align	1
 4648              		.global	__wrap_fprintf
 4649              		.syntax unified
 4650              		.thumb
 4651              		.thumb_func
 4652              		.fpu fpv4-sp-d16
 4653              		.type	__wrap_fprintf, %function
 4654              	__wrap_fprintf:
 4655              	.LFB358:
 4656              		.loc 1 2508 0
 4657              		.cfi_startproc
 4658              		@ args = 4, pretend = 12, frame = 8
 4659              		@ frame_needed = 0, uses_anonymous_args = 1
 4660              	.LVL536:
 4661 0000 0EB4     		push	{r1, r2, r3}
 4662              		.cfi_def_cfa_offset 12
 4663              		.cfi_offset 1, -12
 4664              		.cfi_offset 2, -8
 4665              		.cfi_offset 3, -4
 4666 0002 77B5     		push	{r0, r1, r2, r4, r5, r6, lr}
 4667              		.cfi_def_cfa_offset 40
 4668              		.cfi_offset 4, -28
 4669              		.cfi_offset 5, -24
 4670              		.cfi_offset 6, -20
 4671              		.cfi_offset 14, -16
 4672              		.loc 1 2508 0
 4673 0004 07AA     		add	r2, sp, #28
 4674 0006 0646     		mov	r6, r0
ARM GAS  /tmp/ccSNToGX.s 			page 83


 4675 0008 52F8041B 		ldr	r1, [r2], #4
 4676              		.loc 1 2512 0
 4677 000c 0092     		str	r2, [sp]
 4678              		.loc 1 2513 0
 4679 000e 01A8     		add	r0, sp, #4
 4680              	.LVL537:
 4681 0010 FFF7FEFF 		bl	vasprintf
 4682              	.LVL538:
 4683 0014 04B2     		sxth	r4, r0
 4684              	.LVL539:
 4685              		.loc 1 2514 0
 4686 0016 002C     		cmp	r4, #0
 4687 0018 0FDD     		ble	.L538
 4688 001a 0025     		movs	r5, #0
 4689              	.L537:
 4690              	.LVL540:
 4691              		.loc 1 2516 0 discriminator 3
 4692 001c 019B     		ldr	r3, [sp, #4]
 4693 001e 3146     		mov	r1, r6
 4694 0020 585D     		ldrb	r0, [r3, r5]	@ zero_extendqisi2
 4695 0022 0135     		adds	r5, r5, #1
 4696              	.LVL541:
 4697 0024 FFF7FEFF 		bl	fputc
 4698              	.LVL542:
 4699              		.loc 1 2515 0 discriminator 3
 4700 0028 2BB2     		sxth	r3, r5
 4701 002a 9C42     		cmp	r4, r3
 4702 002c F6DC     		bgt	.L537
 4703              		.loc 1 2524 0
 4704 002e 2046     		mov	r0, r4
 4705              	.L535:
 4706              		.loc 1 2525 0
 4707 0030 03B0     		add	sp, sp, #12
 4708              		.cfi_remember_state
 4709              		.cfi_def_cfa_offset 28
 4710              		@ sp needed
 4711 0032 BDE87040 		pop	{r4, r5, r6, lr}
 4712              		.cfi_restore 14
 4713              		.cfi_restore 6
 4714              		.cfi_restore 5
 4715              		.cfi_restore 4
 4716              		.cfi_def_cfa_offset 12
 4717              	.LVL543:
 4718 0036 03B0     		add	sp, sp, #12
 4719              		.cfi_restore 3
 4720              		.cfi_restore 2
 4721              		.cfi_restore 1
 4722              		.cfi_def_cfa_offset 0
 4723 0038 7047     		bx	lr
 4724              	.LVL544:
 4725              	.L538:
 4726              		.cfi_restore_state
 4727              		.loc 1 2520 0
 4728 003a 4FF0FF30 		mov	r0, #-1
 4729 003e F7E7     		b	.L535
 4730              		.cfi_endproc
 4731              	.LFE358:
ARM GAS  /tmp/ccSNToGX.s 			page 84


 4732              		.size	__wrap_fprintf, .-__wrap_fprintf
 4733              		.section	.text.fsync,"ax",%progbits
 4734              		.align	1
 4735              		.global	fsync
 4736              		.syntax unified
 4737              		.thumb
 4738              		.thumb_func
 4739              		.fpu fpv4-sp-d16
 4740              		.type	fsync, %function
 4741              	fsync:
 4742              	.LFB359:
 4743              		.loc 1 2532 0
 4744              		.cfi_startproc
 4745              		@ args = 0, pretend = 0, frame = 0
 4746              		@ frame_needed = 0, uses_anonymous_args = 0
 4747              	.LVL545:
 4748 0000 10B5     		push	{r4, lr}
 4749              		.cfi_def_cfa_offset 8
 4750              		.cfi_offset 4, -8
 4751              		.cfi_offset 14, -4
 4752              		.loc 1 2532 0
 4753 0002 0446     		mov	r4, r0
 4754              		.loc 1 2537 0
 4755 0004 FFF7FEFF 		bl	__errno
 4756              	.LVL546:
 4757 0008 0023     		movs	r3, #0
 4758 000a 0360     		str	r3, [r0]
 4759              		.loc 1 2540 0
 4760 000c 2046     		mov	r0, r4
 4761 000e FFF7FEFF 		bl	fileno_to_stream
 4762              	.LVL547:
 4763              		.loc 1 2541 0
 4764 0012 10B9     		cbnz	r0, .L541
 4765              	.LVL548:
 4766              	.L550:
 4767              		.loc 1 2556 0
 4768 0014 4FF0FF30 		mov	r0, #-1
 4769 0018 10BD     		pop	{r4, pc}
 4770              	.LVL549:
 4771              	.L541:
 4772              		.loc 1 2547 0
 4773 001a 2046     		mov	r0, r4
 4774              	.LVL550:
 4775 001c FFF7FEFF 		bl	fileno_to_fatfs
 4776              	.LVL551:
 4777              		.loc 1 2548 0
 4778 0020 0028     		cmp	r0, #0
 4779 0022 F7D0     		beq	.L550
 4780              		.loc 1 2552 0
 4781 0024 FFF7FEFF 		bl	f_sync
 4782              	.LVL552:
 4783              		.loc 1 2553 0
 4784 0028 0446     		mov	r4, r0
 4785              	.LVL553:
 4786 002a 40B1     		cbz	r0, .L545
 4787              		.loc 1 2555 0
 4788 002c FFF7FEFF 		bl	__errno
ARM GAS  /tmp/ccSNToGX.s 			page 85


 4789              	.LVL554:
 4790 0030 132C     		cmp	r4, #19
 4791 0032 96BF     		itet	ls
 4792 0034 024B     		ldrls	r3, .L551
 4793 0036 4D23     		movhi	r3, #77
 4794              	.LVL555:
 4795 0038 1B57     		ldrsbls	r3, [r3, r4]
 4796 003a 0360     		str	r3, [r0]
 4797 003c EAE7     		b	.L550
 4798              	.LVL556:
 4799              	.L545:
 4800              		.loc 1 2559 0
 4801 003e 10BD     		pop	{r4, pc}
 4802              	.L552:
 4803              		.align	2
 4804              	.L551:
 4805 0040 00000000 		.word	.LANCHOR0
 4806              		.cfi_endproc
 4807              	.LFE359:
 4808              		.size	fsync, .-fsync
 4809              		.global	__iob
 4810              		.section	.rodata
 4811              		.align	2
 4812              		.set	.LANCHOR5,. + 0
 4813              	.LC0:
 4814 0000 1F000000 		.word	31
 4815 0004 1C000000 		.word	28
 4816 0008 1F000000 		.word	31
 4817 000c 1E000000 		.word	30
 4818 0010 1F000000 		.word	31
 4819 0014 1E000000 		.word	30
 4820 0018 1F000000 		.word	31
 4821 001c 1F000000 		.word	31
 4822 0020 1E000000 		.word	30
 4823 0024 1F000000 		.word	31
 4824 0028 1E000000 		.word	30
 4825 002c 1F000000 		.word	31
 4826              		.section	.bss.__iob,"aw",%nobits
 4827              		.align	2
 4828              		.set	.LANCHOR1,. + 0
 4829              		.type	__iob, %object
 4830              		.size	__iob, 64
 4831              	__iob:
 4832 0000 00000000 		.space	64
 4832      00000000 
 4832      00000000 
 4832      00000000 
 4832      00000000 
 4833              		.section	.bss._de,"aw",%nobits
 4834              		.set	.LANCHOR3,. + 0
 4835              		.type	_de, %object
 4836              		.size	_de, 255
 4837              	_de:
 4838 0000 00000000 		.space	255
 4838      00000000 
 4838      00000000 
 4838      00000000 
ARM GAS  /tmp/ccSNToGX.s 			page 86


 4838      00000000 
 4839              		.section	.bss._dp,"aw",%nobits
 4840              		.align	3
 4841              		.set	.LANCHOR2,. + 0
 4842              		.type	_dp, %object
 4843              		.size	_dp, 80
 4844              	_dp:
 4845 0000 00000000 		.space	80
 4845      00000000 
 4845      00000000 
 4845      00000000 
 4845      00000000 
 4846              		.section	.rodata.CSWTCH.54,"a",%progbits
 4847              		.align	2
 4848              		.set	.LANCHOR4,. + 0
 4849              		.type	CSWTCH.54, %object
 4850              		.size	CSWTCH.54, 308
 4851              	CSWTCH.54:
 4852 0000 00000000 		.word	.LC16
 4853 0004 06000000 		.word	.LC17
 4854 0008 0D000000 		.word	.LC18
 4855 000c 13000000 		.word	.LC19
 4856 0010 19000000 		.word	.LC20
 4857 0014 1D000000 		.word	.LC21
 4858 0018 23000000 		.word	.LC22
 4859 001c 29000000 		.word	.LC23
 4860 0020 31000000 		.word	.LC24
 4861 0024 37000000 		.word	.LC25
 4862 0028 3E000000 		.word	.LC26
 4863 002c 45000000 		.word	.LC27
 4864 0030 4C000000 		.word	.LC28
 4865 0034 53000000 		.word	.LC29
 4866 0038 00000000 		.word	0
 4867 003c 5A000000 		.word	.LC30
 4868 0040 60000000 		.word	.LC31
 4869 0044 67000000 		.word	.LC32
 4870 0048 6D000000 		.word	.LC33
 4871 004c 74000000 		.word	.LC34
 4872 0050 7C000000 		.word	.LC35
 4873 0054 83000000 		.word	.LC36
 4874 0058 8A000000 		.word	.LC37
 4875 005c 91000000 		.word	.LC38
 4876 0060 98000000 		.word	.LC39
 4877 0064 9F000000 		.word	.LC40
 4878 0068 A7000000 		.word	.LC41
 4879 006c AD000000 		.word	.LC42
 4880 0070 B4000000 		.word	.LC43
 4881 0074 BB000000 		.word	.LC44
 4882 0078 C1000000 		.word	.LC45
 4883 007c C8000000 		.word	.LC46
 4884 0080 CE000000 		.word	.LC47
 4885 0084 D3000000 		.word	.LC48
 4886 0088 00000000 		.word	0
 4887 008c 00000000 		.word	0
 4888 0090 00000000 		.word	0
 4889 0094 00000000 		.word	0
 4890 0098 00000000 		.word	0
ARM GAS  /tmp/ccSNToGX.s 			page 87


 4891 009c 00000000 		.word	0
 4892 00a0 00000000 		.word	0
 4893 00a4 00000000 		.word	0
 4894 00a8 00000000 		.word	0
 4895 00ac 00000000 		.word	0
 4896 00b0 00000000 		.word	0
 4897 00b4 00000000 		.word	0
 4898 00b8 00000000 		.word	0
 4899 00bc 00000000 		.word	0
 4900 00c0 00000000 		.word	0
 4901 00c4 00000000 		.word	0
 4902 00c8 00000000 		.word	0
 4903 00cc 00000000 		.word	0
 4904 00d0 00000000 		.word	0
 4905 00d4 00000000 		.word	0
 4906 00d8 00000000 		.word	0
 4907 00dc 00000000 		.word	0
 4908 00e0 00000000 		.word	0
 4909 00e4 00000000 		.word	0
 4910 00e8 00000000 		.word	0
 4911 00ec 00000000 		.word	0
 4912 00f0 00000000 		.word	0
 4913 00f4 00000000 		.word	0
 4914 00f8 00000000 		.word	0
 4915 00fc 00000000 		.word	0
 4916 0100 00000000 		.word	0
 4917 0104 00000000 		.word	0
 4918 0108 00000000 		.word	0
 4919 010c 00000000 		.word	0
 4920 0110 00000000 		.word	0
 4921 0114 00000000 		.word	0
 4922 0118 00000000 		.word	0
 4923 011c 00000000 		.word	0
 4924 0120 00000000 		.word	0
 4925 0124 00000000 		.word	0
 4926 0128 00000000 		.word	0
 4927 012c 00000000 		.word	0
 4928 0130 DA000000 		.word	.LC49
 4929              		.section	.rodata.CSWTCH.58,"a",%progbits
 4930              		.set	.LANCHOR0,. + 0
 4931              		.type	CSWTCH.58, %object
 4932              		.size	CSWTCH.58, 20
 4933              	CSWTCH.58:
 4934 0000 00       		.byte	0
 4935 0001 05       		.byte	5
 4936 0002 01       		.byte	1
 4937 0003 10       		.byte	16
 4938 0004 02       		.byte	2
 4939 0005 02       		.byte	2
 4940 0006 16       		.byte	22
 4941 0007 0D       		.byte	13
 4942 0008 11       		.byte	17
 4943 0009 16       		.byte	22
 4944 000a 1E       		.byte	30
 4945 000b 06       		.byte	6
 4946 000c 1C       		.byte	28
 4947 000d 06       		.byte	6
ARM GAS  /tmp/ccSNToGX.s 			page 88


 4948 000e 16       		.byte	22
 4949 000f 10       		.byte	16
 4950 0010 10       		.byte	16
 4951 0011 0C       		.byte	12
 4952 0012 18       		.byte	24
 4953 0013 16       		.byte	22
 4954              		.section	.rodata.basename.str1.1,"aMS",%progbits,1
 4955              	.LC2:
 4956 0000 00       		.ascii	"\000"
 4957              		.section	.rodata.fs_getfree.str1.1,"aMS",%progbits,1
 4958              	.LC1:
 4959 0000 2F00     		.ascii	"/\000"
 4960              		.section	.rodata.posix_fopen_modes_to_open.str1.1,"aMS",%progbits,1
 4961              	.LC4:
 4962 0000 7200     		.ascii	"r\000"
 4963              	.LC5:
 4964 0002 726200   		.ascii	"rb\000"
 4965              	.LC6:
 4966 0005 722B00   		.ascii	"r+\000"
 4967              	.LC7:
 4968 0008 722B6200 		.ascii	"r+b\000"
 4969              	.LC8:
 4970 000c 72622B00 		.ascii	"rb+\000"
 4971              	.LC9:
 4972 0010 7700     		.ascii	"w\000"
 4973              	.LC10:
 4974 0012 776200   		.ascii	"wb\000"
 4975              	.LC11:
 4976 0015 772B00   		.ascii	"w+\000"
 4977              	.LC12:
 4978 0018 772B6200 		.ascii	"w+b\000"
 4979              	.LC13:
 4980 001c 77622B00 		.ascii	"wb+\000"
 4981              	.LC14:
 4982 0020 6100     		.ascii	"a\000"
 4983              	.LC15:
 4984 0022 616200   		.ascii	"ab\000"
 4985              		.section	.rodata.stat.str1.1,"aMS",%progbits,1
 4986              	.LC3:
 4987 0000 2E00     		.ascii	".\000"
 4988              		.section	.rodata.str1.1,"aMS",%progbits,1
 4989              	.LC16:
 4990 0000 45504552 		.ascii	"EPERM\000"
 4990      4D00
 4991              	.LC17:
 4992 0006 454E4F45 		.ascii	"ENOENT\000"
 4992      4E5400
 4993              	.LC18:
 4994 000d 45535243 		.ascii	"ESRCH\000"
 4994      4800
 4995              	.LC19:
 4996 0013 45494E54 		.ascii	"EINTR\000"
 4996      5200
 4997              	.LC20:
 4998 0019 45494F00 		.ascii	"EIO\000"
 4999              	.LC21:
 5000 001d 454E5849 		.ascii	"ENXIO\000"
ARM GAS  /tmp/ccSNToGX.s 			page 89


 5000      4F00
 5001              	.LC22:
 5002 0023 45324249 		.ascii	"E2BIG\000"
 5002      4700
 5003              	.LC23:
 5004 0029 454E4F45 		.ascii	"ENOEXEC\000"
 5004      58454300 
 5005              	.LC24:
 5006 0031 45424144 		.ascii	"EBADF\000"
 5006      4600
 5007              	.LC25:
 5008 0037 45434849 		.ascii	"ECHILD\000"
 5008      4C4400
 5009              	.LC26:
 5010 003e 45414741 		.ascii	"EAGAIN\000"
 5010      494E00
 5011              	.LC27:
 5012 0045 454E4F4D 		.ascii	"ENOMEM\000"
 5012      454D00
 5013              	.LC28:
 5014 004c 45414343 		.ascii	"EACCES\000"
 5014      455300
 5015              	.LC29:
 5016 0053 45464155 		.ascii	"EFAULT\000"
 5016      4C5400
 5017              	.LC30:
 5018 005a 45425553 		.ascii	"EBUSY\000"
 5018      5900
 5019              	.LC31:
 5020 0060 45455849 		.ascii	"EEXIST\000"
 5020      535400
 5021              	.LC32:
 5022 0067 45584445 		.ascii	"EXDEV\000"
 5022      5600
 5023              	.LC33:
 5024 006d 454E4F44 		.ascii	"ENODEV\000"
 5024      455600
 5025              	.LC34:
 5026 0074 454E4F54 		.ascii	"ENOTDIR\000"
 5026      44495200 
 5027              	.LC35:
 5028 007c 45495344 		.ascii	"EISDIR\000"
 5028      495200
 5029              	.LC36:
 5030 0083 45494E56 		.ascii	"EINVAL\000"
 5030      414C00
 5031              	.LC37:
 5032 008a 454E4649 		.ascii	"ENFILE\000"
 5032      4C4500
 5033              	.LC38:
 5034 0091 454D4649 		.ascii	"EMFILE\000"
 5034      4C4500
 5035              	.LC39:
 5036 0098 454E4F54 		.ascii	"ENOTTY\000"
 5036      545900
 5037              	.LC40:
 5038 009f 45545854 		.ascii	"ETXTBSY\000"
ARM GAS  /tmp/ccSNToGX.s 			page 90


 5038      42535900 
 5039              	.LC41:
 5040 00a7 45464249 		.ascii	"EFBIG\000"
 5040      4700
 5041              	.LC42:
 5042 00ad 454E4F53 		.ascii	"ENOSPC\000"
 5042      504300
 5043              	.LC43:
 5044 00b4 45535049 		.ascii	"ESPIPE\000"
 5044      504500
 5045              	.LC44:
 5046 00bb 45524F46 		.ascii	"EROFS\000"
 5046      5300
 5047              	.LC45:
 5048 00c1 454D4C49 		.ascii	"EMLINK\000"
 5048      4E4B00
 5049              	.LC46:
 5050 00c8 45504950 		.ascii	"EPIPE\000"
 5050      4500
 5051              	.LC47:
 5052 00ce 45444F4D 		.ascii	"EDOM\000"
 5052      00
 5053              	.LC48:
 5054 00d3 4552414E 		.ascii	"ERANGE\000"
 5054      474500
 5055              	.LC49:
 5056 00da 45424144 		.ascii	"EBADMSG\000"
 5056      4D534700 
 5057              		.text
 5058              	.Letext0:
 5059              		.file 2 "/opt/gcc-arm-none-eabi-6-2017-q2-update/lib/gcc/arm-none-eabi/6.3.1/include/stddef.h"
 5060              		.file 3 "/opt/gcc-arm-none-eabi-6-2017-q2-update/arm-none-eabi/include/machine/_default_types.h"
 5061              		.file 4 "/opt/gcc-arm-none-eabi-6-2017-q2-update/arm-none-eabi/include/sys/lock.h"
 5062              		.file 5 "/opt/gcc-arm-none-eabi-6-2017-q2-update/arm-none-eabi/include/sys/_types.h"
 5063              		.file 6 "/opt/gcc-arm-none-eabi-6-2017-q2-update/arm-none-eabi/include/sys/reent.h"
 5064              		.file 7 "/opt/gcc-arm-none-eabi-6-2017-q2-update/arm-none-eabi/include/sys/_stdint.h"
 5065              		.file 8 "../../modules/ChibiOS/ext/fatfs/src/integer.h"
 5066              		.file 9 "../../modules/ChibiOS/os/common/ports/ARMCMx/compilers/GCC/chtypes.h"
 5067              		.file 10 "../../modules/ChibiOS/os/rt/include/chsystypes.h"
 5068              		.file 11 "../../modules/ChibiOS/os/rt/include/chschd.h"
 5069              		.file 12 "../../modules/ChibiOS/os/rt/include/chtime.h"
 5070              		.file 13 "../../modules/ChibiOS/os/common/ext/ARM/CMSIS/Core/Include/core_cm4.h"
 5071              		.file 14 "../../modules/ChibiOS/os/common/ext/ST/STM32F4xx/system_stm32f4xx.h"
 5072              		.file 15 "../../modules/ChibiOS/os/common/ports/ARMCMx/chcore.h"
 5073              		.file 16 "../../modules/ChibiOS/os/common/ports/ARMCMx/chcore_v7m.h"
 5074              		.file 17 "../../modules/ChibiOS/os/rt/include/chtm.h"
 5075              		.file 18 "../../modules/ChibiOS/os/rt/include/chstats.h"
 5076              		.file 19 "../../modules/ChibiOS/os/rt/include/chsem.h"
 5077              		.file 20 "../../modules/ChibiOS/os/rt/include/chmtx.h"
 5078              		.file 21 "../../modules/ChibiOS/os/rt/include/chsys.h"
 5079              		.file 22 "../../modules/ChibiOS/os/rt/include/chregistry.h"
 5080              		.file 23 "../../modules/ChibiOS/os/oslib/include/chmemcore.h"
 5081              		.file 24 "../../modules/ChibiOS/os/oslib/include/chmempools.h"
 5082              		.file 25 "../../modules/ChibiOS/os/oslib/include/chfactory.h"
 5083              		.file 26 "../../modules/ChibiOS/ext/fatfs/src/ff.h"
 5084              		.file 27 "/opt/gcc-arm-none-eabi-6-2017-q2-update/lib/gcc/arm-none-eabi/6.3.1/include/stdarg.h"
 5085              		.file 28 "<built-in>"
ARM GAS  /tmp/ccSNToGX.s 			page 91


 5086              		.file 29 "/opt/gcc-arm-none-eabi-6-2017-q2-update/arm-none-eabi/include/sys/_timeval.h"
 5087              		.file 30 "/opt/gcc-arm-none-eabi-6-2017-q2-update/arm-none-eabi/include/sys/types.h"
 5088              		.file 31 "/opt/gcc-arm-none-eabi-6-2017-q2-update/arm-none-eabi/include/time.h"
 5089              		.file 32 "/opt/gcc-arm-none-eabi-6-2017-q2-update/arm-none-eabi/include/sys/errno.h"
 5090              		.file 33 "../../libraries/AP_HAL_ChibiOS/hwdef/common/posix.h"
 5091              		.file 34 "../../libraries/AP_HAL_ChibiOS/hwdef/common/stdio.h"
 5092              		.file 35 "/opt/gcc-arm-none-eabi-6-2017-q2-update/arm-none-eabi/include/string.h"
 5093              		.section	.debug_info,"",%progbits
 5094              	.Ldebug_info0:
 5095 0000 81420000 		.4byte	0x4281
 5096 0004 0400     		.2byte	0x4
 5097 0006 00000000 		.4byte	.Ldebug_abbrev0
 5098 000a 04       		.byte	0x4
 5099 000b 01       		.uleb128 0x1
 5100 000c 44010000 		.4byte	.LASF537
 5101 0010 0C       		.byte	0xc
 5102 0011 1B130000 		.4byte	.LASF538
 5103 0015 96130000 		.4byte	.LASF539
 5104 0019 F0000000 		.4byte	.Ldebug_ranges0+0xf0
 5105 001d 00000000 		.4byte	0
 5106 0021 00000000 		.4byte	.Ldebug_line0
 5107 0025 02       		.uleb128 0x2
 5108 0026 04       		.byte	0x4
 5109 0027 05       		.byte	0x5
 5110 0028 696E7400 		.ascii	"int\000"
 5111 002c 03       		.uleb128 0x3
 5112 002d CA070000 		.4byte	.LASF4
 5113 0031 02       		.byte	0x2
 5114 0032 D8       		.byte	0xd8
 5115 0033 37000000 		.4byte	0x37
 5116 0037 04       		.uleb128 0x4
 5117 0038 04       		.byte	0x4
 5118 0039 07       		.byte	0x7
 5119 003a 04140000 		.4byte	.LASF0
 5120 003e 05       		.uleb128 0x5
 5121 003f 37000000 		.4byte	0x37
 5122 0043 04       		.uleb128 0x4
 5123 0044 08       		.byte	0x8
 5124 0045 05       		.byte	0x5
 5125 0046 B8120000 		.4byte	.LASF1
 5126 004a 04       		.uleb128 0x4
 5127 004b 08       		.byte	0x8
 5128 004c 04       		.byte	0x4
 5129 004d AB0D0000 		.4byte	.LASF2
 5130 0051 04       		.uleb128 0x4
 5131 0052 01       		.byte	0x1
 5132 0053 06       		.byte	0x6
 5133 0054 420B0000 		.4byte	.LASF3
 5134 0058 03       		.uleb128 0x3
 5135 0059 72000000 		.4byte	.LASF5
 5136 005d 03       		.byte	0x3
 5137 005e 2B       		.byte	0x2b
 5138 005f 63000000 		.4byte	0x63
 5139 0063 04       		.uleb128 0x4
 5140 0064 01       		.byte	0x1
 5141 0065 08       		.byte	0x8
 5142 0066 B4050000 		.4byte	.LASF6
ARM GAS  /tmp/ccSNToGX.s 			page 92


 5143 006a 03       		.uleb128 0x3
 5144 006b FC040000 		.4byte	.LASF7
 5145 006f 03       		.byte	0x3
 5146 0070 37       		.byte	0x37
 5147 0071 75000000 		.4byte	0x75
 5148 0075 04       		.uleb128 0x4
 5149 0076 02       		.byte	0x2
 5150 0077 05       		.byte	0x5
 5151 0078 35140000 		.4byte	.LASF8
 5152 007c 03       		.uleb128 0x3
 5153 007d 06050000 		.4byte	.LASF9
 5154 0081 03       		.byte	0x3
 5155 0082 39       		.byte	0x39
 5156 0083 87000000 		.4byte	0x87
 5157 0087 04       		.uleb128 0x4
 5158 0088 02       		.byte	0x2
 5159 0089 07       		.byte	0x7
 5160 008a 2F0B0000 		.4byte	.LASF10
 5161 008e 03       		.uleb128 0x3
 5162 008f 53100000 		.4byte	.LASF11
 5163 0093 03       		.byte	0x3
 5164 0094 4D       		.byte	0x4d
 5165 0095 99000000 		.4byte	0x99
 5166 0099 04       		.uleb128 0x4
 5167 009a 04       		.byte	0x4
 5168 009b 05       		.byte	0x5
 5169 009c D10C0000 		.4byte	.LASF12
 5170 00a0 03       		.uleb128 0x3
 5171 00a1 5D100000 		.4byte	.LASF13
 5172 00a5 03       		.byte	0x3
 5173 00a6 4F       		.byte	0x4f
 5174 00a7 AB000000 		.4byte	0xab
 5175 00ab 04       		.uleb128 0x4
 5176 00ac 04       		.byte	0x4
 5177 00ad 07       		.byte	0x7
 5178 00ae EB0D0000 		.4byte	.LASF14
 5179 00b2 03       		.uleb128 0x3
 5180 00b3 1C090000 		.4byte	.LASF15
 5181 00b7 03       		.byte	0x3
 5182 00b8 67       		.byte	0x67
 5183 00b9 43000000 		.4byte	0x43
 5184 00bd 03       		.uleb128 0x3
 5185 00be 2C090000 		.4byte	.LASF16
 5186 00c2 03       		.byte	0x3
 5187 00c3 69       		.byte	0x69
 5188 00c4 C8000000 		.4byte	0xc8
 5189 00c8 04       		.uleb128 0x4
 5190 00c9 08       		.byte	0x8
 5191 00ca 07       		.byte	0x7
 5192 00cb 38110000 		.4byte	.LASF17
 5193 00cf 03       		.uleb128 0x3
 5194 00d0 D4040000 		.4byte	.LASF18
 5195 00d4 04       		.byte	0x4
 5196 00d5 22       		.byte	0x22
 5197 00d6 DA000000 		.4byte	0xda
 5198 00da 06       		.uleb128 0x6
 5199 00db 04       		.byte	0x4
ARM GAS  /tmp/ccSNToGX.s 			page 93


 5200 00dc E0000000 		.4byte	0xe0
 5201 00e0 07       		.uleb128 0x7
 5202 00e1 19040000 		.4byte	.LASF134
 5203 00e5 03       		.uleb128 0x3
 5204 00e6 C3070000 		.4byte	.LASF19
 5205 00ea 05       		.byte	0x5
 5206 00eb 2C       		.byte	0x2c
 5207 00ec 99000000 		.4byte	0x99
 5208 00f0 03       		.uleb128 0x3
 5209 00f1 810E0000 		.4byte	.LASF20
 5210 00f5 05       		.byte	0x5
 5211 00f6 36       		.byte	0x36
 5212 00f7 75000000 		.4byte	0x75
 5213 00fb 03       		.uleb128 0x3
 5214 00fc F4040000 		.4byte	.LASF21
 5215 0100 05       		.byte	0x5
 5216 0101 3A       		.byte	0x3a
 5217 0102 87000000 		.4byte	0x87
 5218 0106 03       		.uleb128 0x3
 5219 0107 D1100000 		.4byte	.LASF22
 5220 010b 05       		.byte	0x5
 5221 010c 3D       		.byte	0x3d
 5222 010d 87000000 		.4byte	0x87
 5223 0111 03       		.uleb128 0x3
 5224 0112 69130000 		.4byte	.LASF23
 5225 0116 05       		.byte	0x5
 5226 0117 49       		.byte	0x49
 5227 0118 87000000 		.4byte	0x87
 5228 011c 03       		.uleb128 0x3
 5229 011d 99060000 		.4byte	.LASF24
 5230 0121 05       		.byte	0x5
 5231 0122 58       		.byte	0x58
 5232 0123 A0000000 		.4byte	0xa0
 5233 0127 03       		.uleb128 0x3
 5234 0128 A9020000 		.4byte	.LASF25
 5235 012c 05       		.byte	0x5
 5236 012d 64       		.byte	0x64
 5237 012e E5000000 		.4byte	0xe5
 5238 0132 03       		.uleb128 0x3
 5239 0133 AD0F0000 		.4byte	.LASF26
 5240 0137 05       		.byte	0x5
 5241 0138 72       		.byte	0x72
 5242 0139 99000000 		.4byte	0x99
 5243 013d 03       		.uleb128 0x3
 5244 013e 690A0000 		.4byte	.LASF27
 5245 0142 05       		.byte	0x5
 5246 0143 91       		.byte	0x91
 5247 0144 25000000 		.4byte	0x25
 5248 0148 08       		.uleb128 0x8
 5249 0149 77080000 		.4byte	.LASF28
 5250 014d 02       		.byte	0x2
 5251 014e 6501     		.2byte	0x165
 5252 0150 37000000 		.4byte	0x37
 5253 0154 09       		.uleb128 0x9
 5254 0155 04       		.byte	0x4
 5255 0156 05       		.byte	0x5
 5256 0157 A6       		.byte	0xa6
ARM GAS  /tmp/ccSNToGX.s 			page 94


 5257 0158 73010000 		.4byte	0x173
 5258 015c 0A       		.uleb128 0xa
 5259 015d 520C0000 		.4byte	.LASF29
 5260 0161 05       		.byte	0x5
 5261 0162 A8       		.byte	0xa8
 5262 0163 48010000 		.4byte	0x148
 5263 0167 0A       		.uleb128 0xa
 5264 0168 4F080000 		.4byte	.LASF30
 5265 016c 05       		.byte	0x5
 5266 016d A9       		.byte	0xa9
 5267 016e 73010000 		.4byte	0x173
 5268 0172 00       		.byte	0
 5269 0173 0B       		.uleb128 0xb
 5270 0174 63000000 		.4byte	0x63
 5271 0178 83010000 		.4byte	0x183
 5272 017c 0C       		.uleb128 0xc
 5273 017d 83010000 		.4byte	0x183
 5274 0181 03       		.byte	0x3
 5275 0182 00       		.byte	0
 5276 0183 04       		.uleb128 0x4
 5277 0184 04       		.byte	0x4
 5278 0185 07       		.byte	0x7
 5279 0186 F50A0000 		.4byte	.LASF31
 5280 018a 0D       		.uleb128 0xd
 5281 018b 08       		.byte	0x8
 5282 018c 05       		.byte	0x5
 5283 018d A3       		.byte	0xa3
 5284 018e AB010000 		.4byte	0x1ab
 5285 0192 0E       		.uleb128 0xe
 5286 0193 E7070000 		.4byte	.LASF32
 5287 0197 05       		.byte	0x5
 5288 0198 A5       		.byte	0xa5
 5289 0199 25000000 		.4byte	0x25
 5290 019d 00       		.byte	0
 5291 019e 0E       		.uleb128 0xe
 5292 019f 86100000 		.4byte	.LASF33
 5293 01a3 05       		.byte	0x5
 5294 01a4 AA       		.byte	0xaa
 5295 01a5 54010000 		.4byte	0x154
 5296 01a9 04       		.byte	0x4
 5297 01aa 00       		.byte	0
 5298 01ab 03       		.uleb128 0x3
 5299 01ac 0C100000 		.4byte	.LASF34
 5300 01b0 05       		.byte	0x5
 5301 01b1 AB       		.byte	0xab
 5302 01b2 8A010000 		.4byte	0x18a
 5303 01b6 03       		.uleb128 0x3
 5304 01b7 6D120000 		.4byte	.LASF35
 5305 01bb 05       		.byte	0x5
 5306 01bc AF       		.byte	0xaf
 5307 01bd CF000000 		.4byte	0xcf
 5308 01c1 0F       		.uleb128 0xf
 5309 01c2 04       		.byte	0x4
 5310 01c3 03       		.uleb128 0x3
 5311 01c4 8A080000 		.4byte	.LASF36
 5312 01c8 05       		.byte	0x5
 5313 01c9 CB       		.byte	0xcb
ARM GAS  /tmp/ccSNToGX.s 			page 95


 5314 01ca 87000000 		.4byte	0x87
 5315 01ce 06       		.uleb128 0x6
 5316 01cf 04       		.byte	0x4
 5317 01d0 D4010000 		.4byte	0x1d4
 5318 01d4 04       		.uleb128 0x4
 5319 01d5 01       		.byte	0x1
 5320 01d6 08       		.byte	0x8
 5321 01d7 320E0000 		.4byte	.LASF37
 5322 01db 05       		.uleb128 0x5
 5323 01dc D4010000 		.4byte	0x1d4
 5324 01e0 03       		.uleb128 0x3
 5325 01e1 8F0A0000 		.4byte	.LASF38
 5326 01e5 06       		.byte	0x6
 5327 01e6 16       		.byte	0x16
 5328 01e7 AB000000 		.4byte	0xab
 5329 01eb 10       		.uleb128 0x10
 5330 01ec 890E0000 		.4byte	.LASF43
 5331 01f0 18       		.byte	0x18
 5332 01f1 06       		.byte	0x6
 5333 01f2 2F       		.byte	0x2f
 5334 01f3 3E020000 		.4byte	0x23e
 5335 01f7 0E       		.uleb128 0xe
 5336 01f8 4B090000 		.4byte	.LASF39
 5337 01fc 06       		.byte	0x6
 5338 01fd 31       		.byte	0x31
 5339 01fe 3E020000 		.4byte	0x23e
 5340 0202 00       		.byte	0
 5341 0203 11       		.uleb128 0x11
 5342 0204 5F6B00   		.ascii	"_k\000"
 5343 0207 06       		.byte	0x6
 5344 0208 32       		.byte	0x32
 5345 0209 25000000 		.4byte	0x25
 5346 020d 04       		.byte	0x4
 5347 020e 0E       		.uleb128 0xe
 5348 020f A30D0000 		.4byte	.LASF40
 5349 0213 06       		.byte	0x6
 5350 0214 32       		.byte	0x32
 5351 0215 25000000 		.4byte	0x25
 5352 0219 08       		.byte	0x8
 5353 021a 0E       		.uleb128 0xe
 5354 021b ED130000 		.4byte	.LASF41
 5355 021f 06       		.byte	0x6
 5356 0220 32       		.byte	0x32
 5357 0221 25000000 		.4byte	0x25
 5358 0225 0C       		.byte	0xc
 5359 0226 0E       		.uleb128 0xe
 5360 0227 0D060000 		.4byte	.LASF42
 5361 022b 06       		.byte	0x6
 5362 022c 32       		.byte	0x32
 5363 022d 25000000 		.4byte	0x25
 5364 0231 10       		.byte	0x10
 5365 0232 11       		.uleb128 0x11
 5366 0233 5F7800   		.ascii	"_x\000"
 5367 0236 06       		.byte	0x6
 5368 0237 33       		.byte	0x33
 5369 0238 44020000 		.4byte	0x244
 5370 023c 14       		.byte	0x14
ARM GAS  /tmp/ccSNToGX.s 			page 96


 5371 023d 00       		.byte	0
 5372 023e 06       		.uleb128 0x6
 5373 023f 04       		.byte	0x4
 5374 0240 EB010000 		.4byte	0x1eb
 5375 0244 0B       		.uleb128 0xb
 5376 0245 E0010000 		.4byte	0x1e0
 5377 0249 54020000 		.4byte	0x254
 5378 024d 0C       		.uleb128 0xc
 5379 024e 83010000 		.4byte	0x183
 5380 0252 00       		.byte	0
 5381 0253 00       		.byte	0
 5382 0254 10       		.uleb128 0x10
 5383 0255 98040000 		.4byte	.LASF44
 5384 0259 24       		.byte	0x24
 5385 025a 06       		.byte	0x6
 5386 025b 37       		.byte	0x37
 5387 025c CD020000 		.4byte	0x2cd
 5388 0260 0E       		.uleb128 0xe
 5389 0261 ED090000 		.4byte	.LASF45
 5390 0265 06       		.byte	0x6
 5391 0266 39       		.byte	0x39
 5392 0267 25000000 		.4byte	0x25
 5393 026b 00       		.byte	0
 5394 026c 0E       		.uleb128 0xe
 5395 026d F3130000 		.4byte	.LASF46
 5396 0271 06       		.byte	0x6
 5397 0272 3A       		.byte	0x3a
 5398 0273 25000000 		.4byte	0x25
 5399 0277 04       		.byte	0x4
 5400 0278 0E       		.uleb128 0xe
 5401 0279 65080000 		.4byte	.LASF47
 5402 027d 06       		.byte	0x6
 5403 027e 3B       		.byte	0x3b
 5404 027f 25000000 		.4byte	0x25
 5405 0283 08       		.byte	0x8
 5406 0284 0E       		.uleb128 0xe
 5407 0285 C9080000 		.4byte	.LASF48
 5408 0289 06       		.byte	0x6
 5409 028a 3C       		.byte	0x3c
 5410 028b 25000000 		.4byte	0x25
 5411 028f 0C       		.byte	0xc
 5412 0290 0E       		.uleb128 0xe
 5413 0291 08010000 		.4byte	.LASF49
 5414 0295 06       		.byte	0x6
 5415 0296 3D       		.byte	0x3d
 5416 0297 25000000 		.4byte	0x25
 5417 029b 10       		.byte	0x10
 5418 029c 0E       		.uleb128 0xe
 5419 029d CE060000 		.4byte	.LASF50
 5420 02a1 06       		.byte	0x6
 5421 02a2 3E       		.byte	0x3e
 5422 02a3 25000000 		.4byte	0x25
 5423 02a7 14       		.byte	0x14
 5424 02a8 0E       		.uleb128 0xe
 5425 02a9 84050000 		.4byte	.LASF51
 5426 02ad 06       		.byte	0x6
 5427 02ae 3F       		.byte	0x3f
ARM GAS  /tmp/ccSNToGX.s 			page 97


 5428 02af 25000000 		.4byte	0x25
 5429 02b3 18       		.byte	0x18
 5430 02b4 0E       		.uleb128 0xe
 5431 02b5 BF040000 		.4byte	.LASF52
 5432 02b9 06       		.byte	0x6
 5433 02ba 40       		.byte	0x40
 5434 02bb 25000000 		.4byte	0x25
 5435 02bf 1C       		.byte	0x1c
 5436 02c0 0E       		.uleb128 0xe
 5437 02c1 9E050000 		.4byte	.LASF53
 5438 02c5 06       		.byte	0x6
 5439 02c6 41       		.byte	0x41
 5440 02c7 25000000 		.4byte	0x25
 5441 02cb 20       		.byte	0x20
 5442 02cc 00       		.byte	0
 5443 02cd 12       		.uleb128 0x12
 5444 02ce FF090000 		.4byte	.LASF54
 5445 02d2 0801     		.2byte	0x108
 5446 02d4 06       		.byte	0x6
 5447 02d5 4A       		.byte	0x4a
 5448 02d6 0D030000 		.4byte	0x30d
 5449 02da 0E       		.uleb128 0xe
 5450 02db F4080000 		.4byte	.LASF55
 5451 02df 06       		.byte	0x6
 5452 02e0 4B       		.byte	0x4b
 5453 02e1 0D030000 		.4byte	0x30d
 5454 02e5 00       		.byte	0
 5455 02e6 0E       		.uleb128 0xe
 5456 02e7 69050000 		.4byte	.LASF56
 5457 02eb 06       		.byte	0x6
 5458 02ec 4C       		.byte	0x4c
 5459 02ed 0D030000 		.4byte	0x30d
 5460 02f1 80       		.byte	0x80
 5461 02f2 13       		.uleb128 0x13
 5462 02f3 11010000 		.4byte	.LASF57
 5463 02f7 06       		.byte	0x6
 5464 02f8 4E       		.byte	0x4e
 5465 02f9 E0010000 		.4byte	0x1e0
 5466 02fd 0001     		.2byte	0x100
 5467 02ff 13       		.uleb128 0x13
 5468 0300 8E100000 		.4byte	.LASF58
 5469 0304 06       		.byte	0x6
 5470 0305 51       		.byte	0x51
 5471 0306 E0010000 		.4byte	0x1e0
 5472 030a 0401     		.2byte	0x104
 5473 030c 00       		.byte	0
 5474 030d 0B       		.uleb128 0xb
 5475 030e C1010000 		.4byte	0x1c1
 5476 0312 1D030000 		.4byte	0x31d
 5477 0316 0C       		.uleb128 0xc
 5478 0317 83010000 		.4byte	0x183
 5479 031b 1F       		.byte	0x1f
 5480 031c 00       		.byte	0
 5481 031d 12       		.uleb128 0x12
 5482 031e BE000000 		.4byte	.LASF59
 5483 0322 9001     		.2byte	0x190
 5484 0324 06       		.byte	0x6
ARM GAS  /tmp/ccSNToGX.s 			page 98


 5485 0325 5D       		.byte	0x5d
 5486 0326 5B030000 		.4byte	0x35b
 5487 032a 0E       		.uleb128 0xe
 5488 032b 4B090000 		.4byte	.LASF39
 5489 032f 06       		.byte	0x6
 5490 0330 5E       		.byte	0x5e
 5491 0331 5B030000 		.4byte	0x35b
 5492 0335 00       		.byte	0
 5493 0336 0E       		.uleb128 0xe
 5494 0337 25010000 		.4byte	.LASF60
 5495 033b 06       		.byte	0x6
 5496 033c 5F       		.byte	0x5f
 5497 033d 25000000 		.4byte	0x25
 5498 0341 04       		.byte	0x4
 5499 0342 0E       		.uleb128 0xe
 5500 0343 E50F0000 		.4byte	.LASF61
 5501 0347 06       		.byte	0x6
 5502 0348 61       		.byte	0x61
 5503 0349 61030000 		.4byte	0x361
 5504 034d 08       		.byte	0x8
 5505 034e 0E       		.uleb128 0xe
 5506 034f FF090000 		.4byte	.LASF54
 5507 0353 06       		.byte	0x6
 5508 0354 62       		.byte	0x62
 5509 0355 CD020000 		.4byte	0x2cd
 5510 0359 88       		.byte	0x88
 5511 035a 00       		.byte	0
 5512 035b 06       		.uleb128 0x6
 5513 035c 04       		.byte	0x4
 5514 035d 1D030000 		.4byte	0x31d
 5515 0361 0B       		.uleb128 0xb
 5516 0362 71030000 		.4byte	0x371
 5517 0366 71030000 		.4byte	0x371
 5518 036a 0C       		.uleb128 0xc
 5519 036b 83010000 		.4byte	0x183
 5520 036f 1F       		.byte	0x1f
 5521 0370 00       		.byte	0
 5522 0371 06       		.uleb128 0x6
 5523 0372 04       		.byte	0x4
 5524 0373 77030000 		.4byte	0x377
 5525 0377 14       		.uleb128 0x14
 5526 0378 10       		.uleb128 0x10
 5527 0379 EC0B0000 		.4byte	.LASF62
 5528 037d 08       		.byte	0x8
 5529 037e 06       		.byte	0x6
 5530 037f 75       		.byte	0x75
 5531 0380 9D030000 		.4byte	0x39d
 5532 0384 0E       		.uleb128 0xe
 5533 0385 56040000 		.4byte	.LASF63
 5534 0389 06       		.byte	0x6
 5535 038a 76       		.byte	0x76
 5536 038b 9D030000 		.4byte	0x39d
 5537 038f 00       		.byte	0
 5538 0390 0E       		.uleb128 0xe
 5539 0391 29060000 		.4byte	.LASF64
 5540 0395 06       		.byte	0x6
 5541 0396 77       		.byte	0x77
ARM GAS  /tmp/ccSNToGX.s 			page 99


 5542 0397 25000000 		.4byte	0x25
 5543 039b 04       		.byte	0x4
 5544 039c 00       		.byte	0
 5545 039d 06       		.uleb128 0x6
 5546 039e 04       		.byte	0x4
 5547 039f 63000000 		.4byte	0x63
 5548 03a3 10       		.uleb128 0x10
 5549 03a4 DD0F0000 		.4byte	.LASF65
 5550 03a8 68       		.byte	0x68
 5551 03a9 06       		.byte	0x6
 5552 03aa B5       		.byte	0xb5
 5553 03ab CD040000 		.4byte	0x4cd
 5554 03af 11       		.uleb128 0x11
 5555 03b0 5F7000   		.ascii	"_p\000"
 5556 03b3 06       		.byte	0x6
 5557 03b4 B6       		.byte	0xb6
 5558 03b5 9D030000 		.4byte	0x39d
 5559 03b9 00       		.byte	0
 5560 03ba 11       		.uleb128 0x11
 5561 03bb 5F7200   		.ascii	"_r\000"
 5562 03be 06       		.byte	0x6
 5563 03bf B7       		.byte	0xb7
 5564 03c0 25000000 		.4byte	0x25
 5565 03c4 04       		.byte	0x4
 5566 03c5 11       		.uleb128 0x11
 5567 03c6 5F7700   		.ascii	"_w\000"
 5568 03c9 06       		.byte	0x6
 5569 03ca B8       		.byte	0xb8
 5570 03cb 25000000 		.4byte	0x25
 5571 03cf 08       		.byte	0x8
 5572 03d0 0E       		.uleb128 0xe
 5573 03d1 7A020000 		.4byte	.LASF66
 5574 03d5 06       		.byte	0x6
 5575 03d6 B9       		.byte	0xb9
 5576 03d7 75000000 		.4byte	0x75
 5577 03db 0C       		.byte	0xc
 5578 03dc 0E       		.uleb128 0xe
 5579 03dd B50F0000 		.4byte	.LASF67
 5580 03e1 06       		.byte	0x6
 5581 03e2 BA       		.byte	0xba
 5582 03e3 75000000 		.4byte	0x75
 5583 03e7 0E       		.byte	0xe
 5584 03e8 11       		.uleb128 0x11
 5585 03e9 5F626600 		.ascii	"_bf\000"
 5586 03ed 06       		.byte	0x6
 5587 03ee BB       		.byte	0xbb
 5588 03ef 78030000 		.4byte	0x378
 5589 03f3 10       		.byte	0x10
 5590 03f4 0E       		.uleb128 0xe
 5591 03f5 A1030000 		.4byte	.LASF68
 5592 03f9 06       		.byte	0x6
 5593 03fa BC       		.byte	0xbc
 5594 03fb 25000000 		.4byte	0x25
 5595 03ff 18       		.byte	0x18
 5596 0400 0E       		.uleb128 0xe
 5597 0401 72090000 		.4byte	.LASF69
 5598 0405 06       		.byte	0x6
ARM GAS  /tmp/ccSNToGX.s 			page 100


 5599 0406 C3       		.byte	0xc3
 5600 0407 C1010000 		.4byte	0x1c1
 5601 040b 1C       		.byte	0x1c
 5602 040c 0E       		.uleb128 0xe
 5603 040d 4D140000 		.4byte	.LASF70
 5604 0411 06       		.byte	0x6
 5605 0412 C5       		.byte	0xc5
 5606 0413 28060000 		.4byte	0x628
 5607 0417 20       		.byte	0x20
 5608 0418 0E       		.uleb128 0xe
 5609 0419 5A060000 		.4byte	.LASF71
 5610 041d 06       		.byte	0x6
 5611 041e C7       		.byte	0xc7
 5612 041f 5C060000 		.4byte	0x65c
 5613 0423 24       		.byte	0x24
 5614 0424 0E       		.uleb128 0xe
 5615 0425 040B0000 		.4byte	.LASF72
 5616 0429 06       		.byte	0x6
 5617 042a CA       		.byte	0xca
 5618 042b 80060000 		.4byte	0x680
 5619 042f 28       		.byte	0x28
 5620 0430 0E       		.uleb128 0xe
 5621 0431 2B0E0000 		.4byte	.LASF73
 5622 0435 06       		.byte	0x6
 5623 0436 CB       		.byte	0xcb
 5624 0437 9A060000 		.4byte	0x69a
 5625 043b 2C       		.byte	0x2c
 5626 043c 11       		.uleb128 0x11
 5627 043d 5F756200 		.ascii	"_ub\000"
 5628 0441 06       		.byte	0x6
 5629 0442 CE       		.byte	0xce
 5630 0443 78030000 		.4byte	0x378
 5631 0447 30       		.byte	0x30
 5632 0448 11       		.uleb128 0x11
 5633 0449 5F757000 		.ascii	"_up\000"
 5634 044d 06       		.byte	0x6
 5635 044e CF       		.byte	0xcf
 5636 044f 9D030000 		.4byte	0x39d
 5637 0453 38       		.byte	0x38
 5638 0454 11       		.uleb128 0x11
 5639 0455 5F757200 		.ascii	"_ur\000"
 5640 0459 06       		.byte	0x6
 5641 045a D0       		.byte	0xd0
 5642 045b 25000000 		.4byte	0x25
 5643 045f 3C       		.byte	0x3c
 5644 0460 0E       		.uleb128 0xe
 5645 0461 4C0F0000 		.4byte	.LASF74
 5646 0465 06       		.byte	0x6
 5647 0466 D3       		.byte	0xd3
 5648 0467 A0060000 		.4byte	0x6a0
 5649 046b 40       		.byte	0x40
 5650 046c 0E       		.uleb128 0xe
 5651 046d 18030000 		.4byte	.LASF75
 5652 0471 06       		.byte	0x6
 5653 0472 D4       		.byte	0xd4
 5654 0473 B0060000 		.4byte	0x6b0
 5655 0477 43       		.byte	0x43
ARM GAS  /tmp/ccSNToGX.s 			page 101


 5656 0478 11       		.uleb128 0x11
 5657 0479 5F6C6200 		.ascii	"_lb\000"
 5658 047d 06       		.byte	0x6
 5659 047e D7       		.byte	0xd7
 5660 047f 78030000 		.4byte	0x378
 5661 0483 44       		.byte	0x44
 5662 0484 0E       		.uleb128 0xe
 5663 0485 3B0F0000 		.4byte	.LASF76
 5664 0489 06       		.byte	0x6
 5665 048a DA       		.byte	0xda
 5666 048b 25000000 		.4byte	0x25
 5667 048f 4C       		.byte	0x4c
 5668 0490 0E       		.uleb128 0xe
 5669 0491 AA0B0000 		.4byte	.LASF77
 5670 0495 06       		.byte	0x6
 5671 0496 DB       		.byte	0xdb
 5672 0497 E5000000 		.4byte	0xe5
 5673 049b 50       		.byte	0x50
 5674 049c 0E       		.uleb128 0xe
 5675 049d C8030000 		.4byte	.LASF78
 5676 04a1 06       		.byte	0x6
 5677 04a2 DE       		.byte	0xde
 5678 04a3 EB040000 		.4byte	0x4eb
 5679 04a7 54       		.byte	0x54
 5680 04a8 0E       		.uleb128 0xe
 5681 04a9 12030000 		.4byte	.LASF79
 5682 04ad 06       		.byte	0x6
 5683 04ae E2       		.byte	0xe2
 5684 04af B6010000 		.4byte	0x1b6
 5685 04b3 58       		.byte	0x58
 5686 04b4 0E       		.uleb128 0xe
 5687 04b5 A5000000 		.4byte	.LASF80
 5688 04b9 06       		.byte	0x6
 5689 04ba E4       		.byte	0xe4
 5690 04bb AB010000 		.4byte	0x1ab
 5691 04bf 5C       		.byte	0x5c
 5692 04c0 0E       		.uleb128 0xe
 5693 04c1 D7120000 		.4byte	.LASF81
 5694 04c5 06       		.byte	0x6
 5695 04c6 E5       		.byte	0xe5
 5696 04c7 25000000 		.4byte	0x25
 5697 04cb 64       		.byte	0x64
 5698 04cc 00       		.byte	0
 5699 04cd 15       		.uleb128 0x15
 5700 04ce 25000000 		.4byte	0x25
 5701 04d2 EB040000 		.4byte	0x4eb
 5702 04d6 16       		.uleb128 0x16
 5703 04d7 EB040000 		.4byte	0x4eb
 5704 04db 16       		.uleb128 0x16
 5705 04dc C1010000 		.4byte	0x1c1
 5706 04e0 16       		.uleb128 0x16
 5707 04e1 CE010000 		.4byte	0x1ce
 5708 04e5 16       		.uleb128 0x16
 5709 04e6 25000000 		.4byte	0x25
 5710 04ea 00       		.byte	0
 5711 04eb 06       		.uleb128 0x6
 5712 04ec 04       		.byte	0x4
ARM GAS  /tmp/ccSNToGX.s 			page 102


 5713 04ed F6040000 		.4byte	0x4f6
 5714 04f1 05       		.uleb128 0x5
 5715 04f2 EB040000 		.4byte	0x4eb
 5716 04f6 17       		.uleb128 0x17
 5717 04f7 27040000 		.4byte	.LASF82
 5718 04fb 2804     		.2byte	0x428
 5719 04fd 06       		.byte	0x6
 5720 04fe 3902     		.2byte	0x239
 5721 0500 28060000 		.4byte	0x628
 5722 0504 18       		.uleb128 0x18
 5723 0505 B8080000 		.4byte	.LASF83
 5724 0509 06       		.byte	0x6
 5725 050a 3B02     		.2byte	0x23b
 5726 050c 25000000 		.4byte	0x25
 5727 0510 00       		.byte	0
 5728 0511 18       		.uleb128 0x18
 5729 0512 51070000 		.4byte	.LASF84
 5730 0516 06       		.byte	0x6
 5731 0517 4002     		.2byte	0x240
 5732 0519 07070000 		.4byte	0x707
 5733 051d 04       		.byte	0x4
 5734 051e 18       		.uleb128 0x18
 5735 051f C2050000 		.4byte	.LASF85
 5736 0523 06       		.byte	0x6
 5737 0524 4002     		.2byte	0x240
 5738 0526 07070000 		.4byte	0x707
 5739 052a 08       		.byte	0x8
 5740 052b 18       		.uleb128 0x18
 5741 052c 51050000 		.4byte	.LASF86
 5742 0530 06       		.byte	0x6
 5743 0531 4002     		.2byte	0x240
 5744 0533 07070000 		.4byte	0x707
 5745 0537 0C       		.byte	0xc
 5746 0538 18       		.uleb128 0x18
 5747 0539 20010000 		.4byte	.LASF87
 5748 053d 06       		.byte	0x6
 5749 053e 4202     		.2byte	0x242
 5750 0540 25000000 		.4byte	0x25
 5751 0544 10       		.byte	0x10
 5752 0545 18       		.uleb128 0x18
 5753 0546 3B0D0000 		.4byte	.LASF88
 5754 054a 06       		.byte	0x6
 5755 054b 4302     		.2byte	0x243
 5756 054d E9080000 		.4byte	0x8e9
 5757 0551 14       		.byte	0x14
 5758 0552 18       		.uleb128 0x18
 5759 0553 06120000 		.4byte	.LASF89
 5760 0557 06       		.byte	0x6
 5761 0558 4602     		.2byte	0x246
 5762 055a 25000000 		.4byte	0x25
 5763 055e 30       		.byte	0x30
 5764 055f 18       		.uleb128 0x18
 5765 0560 0C130000 		.4byte	.LASF90
 5766 0564 06       		.byte	0x6
 5767 0565 4702     		.2byte	0x247
 5768 0567 FE080000 		.4byte	0x8fe
 5769 056b 34       		.byte	0x34
ARM GAS  /tmp/ccSNToGX.s 			page 103


 5770 056c 18       		.uleb128 0x18
 5771 056d 3B120000 		.4byte	.LASF91
 5772 0571 06       		.byte	0x6
 5773 0572 4902     		.2byte	0x249
 5774 0574 25000000 		.4byte	0x25
 5775 0578 38       		.byte	0x38
 5776 0579 18       		.uleb128 0x18
 5777 057a 7A0F0000 		.4byte	.LASF92
 5778 057e 06       		.byte	0x6
 5779 057f 4B02     		.2byte	0x24b
 5780 0581 0F090000 		.4byte	0x90f
 5781 0585 3C       		.byte	0x3c
 5782 0586 18       		.uleb128 0x18
 5783 0587 59050000 		.4byte	.LASF93
 5784 058b 06       		.byte	0x6
 5785 058c 4E02     		.2byte	0x24e
 5786 058e 3E020000 		.4byte	0x23e
 5787 0592 40       		.byte	0x40
 5788 0593 18       		.uleb128 0x18
 5789 0594 42050000 		.4byte	.LASF94
 5790 0598 06       		.byte	0x6
 5791 0599 4F02     		.2byte	0x24f
 5792 059b 25000000 		.4byte	0x25
 5793 059f 44       		.byte	0x44
 5794 05a0 18       		.uleb128 0x18
 5795 05a1 A7100000 		.4byte	.LASF95
 5796 05a5 06       		.byte	0x6
 5797 05a6 5002     		.2byte	0x250
 5798 05a8 3E020000 		.4byte	0x23e
 5799 05ac 48       		.byte	0x48
 5800 05ad 18       		.uleb128 0x18
 5801 05ae 8F0B0000 		.4byte	.LASF96
 5802 05b2 06       		.byte	0x6
 5803 05b3 5102     		.2byte	0x251
 5804 05b5 15090000 		.4byte	0x915
 5805 05b9 4C       		.byte	0x4c
 5806 05ba 18       		.uleb128 0x18
 5807 05bb B1020000 		.4byte	.LASF97
 5808 05bf 06       		.byte	0x6
 5809 05c0 5402     		.2byte	0x254
 5810 05c2 25000000 		.4byte	0x25
 5811 05c6 50       		.byte	0x50
 5812 05c7 18       		.uleb128 0x18
 5813 05c8 17080000 		.4byte	.LASF98
 5814 05cc 06       		.byte	0x6
 5815 05cd 5502     		.2byte	0x255
 5816 05cf CE010000 		.4byte	0x1ce
 5817 05d3 54       		.byte	0x54
 5818 05d4 18       		.uleb128 0x18
 5819 05d5 7E080000 		.4byte	.LASF99
 5820 05d9 06       		.byte	0x6
 5821 05da 7802     		.2byte	0x278
 5822 05dc C7080000 		.4byte	0x8c7
 5823 05e0 58       		.byte	0x58
 5824 05e1 19       		.uleb128 0x19
 5825 05e2 BE000000 		.4byte	.LASF59
 5826 05e6 06       		.byte	0x6
ARM GAS  /tmp/ccSNToGX.s 			page 104


 5827 05e7 7C02     		.2byte	0x27c
 5828 05e9 5B030000 		.4byte	0x35b
 5829 05ed 4801     		.2byte	0x148
 5830 05ef 19       		.uleb128 0x19
 5831 05f0 A10E0000 		.4byte	.LASF100
 5832 05f4 06       		.byte	0x6
 5833 05f5 7D02     		.2byte	0x27d
 5834 05f7 1D030000 		.4byte	0x31d
 5835 05fb 4C01     		.2byte	0x14c
 5836 05fd 19       		.uleb128 0x19
 5837 05fe DF020000 		.4byte	.LASF101
 5838 0602 06       		.byte	0x6
 5839 0603 8102     		.2byte	0x281
 5840 0605 26090000 		.4byte	0x926
 5841 0609 DC02     		.2byte	0x2dc
 5842 060b 19       		.uleb128 0x19
 5843 060c 5F0F0000 		.4byte	.LASF102
 5844 0610 06       		.byte	0x6
 5845 0611 8602     		.2byte	0x286
 5846 0613 CC060000 		.4byte	0x6cc
 5847 0617 E002     		.2byte	0x2e0
 5848 0619 19       		.uleb128 0x19
 5849 061a 51040000 		.4byte	.LASF103
 5850 061e 06       		.byte	0x6
 5851 061f 8702     		.2byte	0x287
 5852 0621 32090000 		.4byte	0x932
 5853 0625 EC02     		.2byte	0x2ec
 5854 0627 00       		.byte	0
 5855 0628 06       		.uleb128 0x6
 5856 0629 04       		.byte	0x4
 5857 062a CD040000 		.4byte	0x4cd
 5858 062e 15       		.uleb128 0x15
 5859 062f 25000000 		.4byte	0x25
 5860 0633 4C060000 		.4byte	0x64c
 5861 0637 16       		.uleb128 0x16
 5862 0638 EB040000 		.4byte	0x4eb
 5863 063c 16       		.uleb128 0x16
 5864 063d C1010000 		.4byte	0x1c1
 5865 0641 16       		.uleb128 0x16
 5866 0642 4C060000 		.4byte	0x64c
 5867 0646 16       		.uleb128 0x16
 5868 0647 25000000 		.4byte	0x25
 5869 064b 00       		.byte	0
 5870 064c 06       		.uleb128 0x6
 5871 064d 04       		.byte	0x4
 5872 064e DB010000 		.4byte	0x1db
 5873 0652 1A       		.uleb128 0x1a
 5874 0653 4C060000 		.4byte	0x64c
 5875 0657 05       		.uleb128 0x5
 5876 0658 4C060000 		.4byte	0x64c
 5877 065c 06       		.uleb128 0x6
 5878 065d 04       		.byte	0x4
 5879 065e 2E060000 		.4byte	0x62e
 5880 0662 15       		.uleb128 0x15
 5881 0663 32010000 		.4byte	0x132
 5882 0667 80060000 		.4byte	0x680
 5883 066b 16       		.uleb128 0x16
ARM GAS  /tmp/ccSNToGX.s 			page 105


 5884 066c EB040000 		.4byte	0x4eb
 5885 0670 16       		.uleb128 0x16
 5886 0671 C1010000 		.4byte	0x1c1
 5887 0675 16       		.uleb128 0x16
 5888 0676 32010000 		.4byte	0x132
 5889 067a 16       		.uleb128 0x16
 5890 067b 25000000 		.4byte	0x25
 5891 067f 00       		.byte	0
 5892 0680 06       		.uleb128 0x6
 5893 0681 04       		.byte	0x4
 5894 0682 62060000 		.4byte	0x662
 5895 0686 15       		.uleb128 0x15
 5896 0687 25000000 		.4byte	0x25
 5897 068b 9A060000 		.4byte	0x69a
 5898 068f 16       		.uleb128 0x16
 5899 0690 EB040000 		.4byte	0x4eb
 5900 0694 16       		.uleb128 0x16
 5901 0695 C1010000 		.4byte	0x1c1
 5902 0699 00       		.byte	0
 5903 069a 06       		.uleb128 0x6
 5904 069b 04       		.byte	0x4
 5905 069c 86060000 		.4byte	0x686
 5906 06a0 0B       		.uleb128 0xb
 5907 06a1 63000000 		.4byte	0x63
 5908 06a5 B0060000 		.4byte	0x6b0
 5909 06a9 0C       		.uleb128 0xc
 5910 06aa 83010000 		.4byte	0x183
 5911 06ae 02       		.byte	0x2
 5912 06af 00       		.byte	0
 5913 06b0 0B       		.uleb128 0xb
 5914 06b1 63000000 		.4byte	0x63
 5915 06b5 C0060000 		.4byte	0x6c0
 5916 06b9 0C       		.uleb128 0xc
 5917 06ba 83010000 		.4byte	0x183
 5918 06be 00       		.byte	0
 5919 06bf 00       		.byte	0
 5920 06c0 08       		.uleb128 0x8
 5921 06c1 8F130000 		.4byte	.LASF104
 5922 06c5 06       		.byte	0x6
 5923 06c6 1F01     		.2byte	0x11f
 5924 06c8 A3030000 		.4byte	0x3a3
 5925 06cc 1B       		.uleb128 0x1b
 5926 06cd 370E0000 		.4byte	.LASF105
 5927 06d1 0C       		.byte	0xc
 5928 06d2 06       		.byte	0x6
 5929 06d3 2301     		.2byte	0x123
 5930 06d5 01070000 		.4byte	0x701
 5931 06d9 18       		.uleb128 0x18
 5932 06da 4B090000 		.4byte	.LASF39
 5933 06de 06       		.byte	0x6
 5934 06df 2501     		.2byte	0x125
 5935 06e1 01070000 		.4byte	0x701
 5936 06e5 00       		.byte	0
 5937 06e6 18       		.uleb128 0x18
 5938 06e7 83080000 		.4byte	.LASF106
 5939 06eb 06       		.byte	0x6
 5940 06ec 2601     		.2byte	0x126
ARM GAS  /tmp/ccSNToGX.s 			page 106


 5941 06ee 25000000 		.4byte	0x25
 5942 06f2 04       		.byte	0x4
 5943 06f3 18       		.uleb128 0x18
 5944 06f4 350D0000 		.4byte	.LASF107
 5945 06f8 06       		.byte	0x6
 5946 06f9 2701     		.2byte	0x127
 5947 06fb 07070000 		.4byte	0x707
 5948 06ff 08       		.byte	0x8
 5949 0700 00       		.byte	0
 5950 0701 06       		.uleb128 0x6
 5951 0702 04       		.byte	0x4
 5952 0703 CC060000 		.4byte	0x6cc
 5953 0707 06       		.uleb128 0x6
 5954 0708 04       		.byte	0x4
 5955 0709 C0060000 		.4byte	0x6c0
 5956 070d 1B       		.uleb128 0x1b
 5957 070e 58140000 		.4byte	.LASF108
 5958 0712 0E       		.byte	0xe
 5959 0713 06       		.byte	0x6
 5960 0714 3F01     		.2byte	0x13f
 5961 0716 42070000 		.4byte	0x742
 5962 071a 18       		.uleb128 0x18
 5963 071b FE0A0000 		.4byte	.LASF109
 5964 071f 06       		.byte	0x6
 5965 0720 4001     		.2byte	0x140
 5966 0722 42070000 		.4byte	0x742
 5967 0726 00       		.byte	0
 5968 0727 18       		.uleb128 0x18
 5969 0728 F6060000 		.4byte	.LASF110
 5970 072c 06       		.byte	0x6
 5971 072d 4101     		.2byte	0x141
 5972 072f 42070000 		.4byte	0x742
 5973 0733 06       		.byte	0x6
 5974 0734 18       		.uleb128 0x18
 5975 0735 78030000 		.4byte	.LASF111
 5976 0739 06       		.byte	0x6
 5977 073a 4201     		.2byte	0x142
 5978 073c 87000000 		.4byte	0x87
 5979 0740 0C       		.byte	0xc
 5980 0741 00       		.byte	0
 5981 0742 0B       		.uleb128 0xb
 5982 0743 87000000 		.4byte	0x87
 5983 0747 52070000 		.4byte	0x752
 5984 074b 0C       		.uleb128 0xc
 5985 074c 83010000 		.4byte	0x183
 5986 0750 02       		.byte	0x2
 5987 0751 00       		.byte	0
 5988 0752 1C       		.uleb128 0x1c
 5989 0753 D0       		.byte	0xd0
 5990 0754 06       		.byte	0x6
 5991 0755 5902     		.2byte	0x259
 5992 0757 53080000 		.4byte	0x853
 5993 075b 18       		.uleb128 0x18
 5994 075c 11050000 		.4byte	.LASF112
 5995 0760 06       		.byte	0x6
 5996 0761 5B02     		.2byte	0x25b
 5997 0763 37000000 		.4byte	0x37
ARM GAS  /tmp/ccSNToGX.s 			page 107


 5998 0767 00       		.byte	0
 5999 0768 18       		.uleb128 0x18
 6000 0769 CC0A0000 		.4byte	.LASF113
 6001 076d 06       		.byte	0x6
 6002 076e 5C02     		.2byte	0x25c
 6003 0770 CE010000 		.4byte	0x1ce
 6004 0774 04       		.byte	0x4
 6005 0775 18       		.uleb128 0x18
 6006 0776 2B0C0000 		.4byte	.LASF114
 6007 077a 06       		.byte	0x6
 6008 077b 5D02     		.2byte	0x25d
 6009 077d 53080000 		.4byte	0x853
 6010 0781 08       		.byte	0x8
 6011 0782 18       		.uleb128 0x18
 6012 0783 D1070000 		.4byte	.LASF115
 6013 0787 06       		.byte	0x6
 6014 0788 5E02     		.2byte	0x25e
 6015 078a 54020000 		.4byte	0x254
 6016 078e 24       		.byte	0x24
 6017 078f 18       		.uleb128 0x18
 6018 0790 7E110000 		.4byte	.LASF116
 6019 0794 06       		.byte	0x6
 6020 0795 5F02     		.2byte	0x25f
 6021 0797 25000000 		.4byte	0x25
 6022 079b 48       		.byte	0x48
 6023 079c 18       		.uleb128 0x18
 6024 079d 680D0000 		.4byte	.LASF117
 6025 07a1 06       		.byte	0x6
 6026 07a2 6002     		.2byte	0x260
 6027 07a4 C8000000 		.4byte	0xc8
 6028 07a8 50       		.byte	0x50
 6029 07a9 18       		.uleb128 0x18
 6030 07aa 11140000 		.4byte	.LASF118
 6031 07ae 06       		.byte	0x6
 6032 07af 6102     		.2byte	0x261
 6033 07b1 0D070000 		.4byte	0x70d
 6034 07b5 58       		.byte	0x58
 6035 07b6 18       		.uleb128 0x18
 6036 07b7 520F0000 		.4byte	.LASF119
 6037 07bb 06       		.byte	0x6
 6038 07bc 6202     		.2byte	0x262
 6039 07be AB010000 		.4byte	0x1ab
 6040 07c2 68       		.byte	0x68
 6041 07c3 18       		.uleb128 0x18
 6042 07c4 5C040000 		.4byte	.LASF120
 6043 07c8 06       		.byte	0x6
 6044 07c9 6302     		.2byte	0x263
 6045 07cb AB010000 		.4byte	0x1ab
 6046 07cf 70       		.byte	0x70
 6047 07d0 18       		.uleb128 0x18
 6048 07d1 060D0000 		.4byte	.LASF121
 6049 07d5 06       		.byte	0x6
 6050 07d6 6402     		.2byte	0x264
 6051 07d8 AB010000 		.4byte	0x1ab
 6052 07dc 78       		.byte	0x78
 6053 07dd 18       		.uleb128 0x18
 6054 07de F30B0000 		.4byte	.LASF122
ARM GAS  /tmp/ccSNToGX.s 			page 108


 6055 07e2 06       		.byte	0x6
 6056 07e3 6502     		.2byte	0x265
 6057 07e5 63080000 		.4byte	0x863
 6058 07e9 80       		.byte	0x80
 6059 07ea 18       		.uleb128 0x18
 6060 07eb 57090000 		.4byte	.LASF123
 6061 07ef 06       		.byte	0x6
 6062 07f0 6602     		.2byte	0x266
 6063 07f2 73080000 		.4byte	0x873
 6064 07f6 88       		.byte	0x88
 6065 07f7 18       		.uleb128 0x18
 6066 07f8 D80E0000 		.4byte	.LASF124
 6067 07fc 06       		.byte	0x6
 6068 07fd 6702     		.2byte	0x267
 6069 07ff 25000000 		.4byte	0x25
 6070 0803 A0       		.byte	0xa0
 6071 0804 18       		.uleb128 0x18
 6072 0805 1C070000 		.4byte	.LASF125
 6073 0809 06       		.byte	0x6
 6074 080a 6802     		.2byte	0x268
 6075 080c AB010000 		.4byte	0x1ab
 6076 0810 A4       		.byte	0xa4
 6077 0811 18       		.uleb128 0x18
 6078 0812 56080000 		.4byte	.LASF126
 6079 0816 06       		.byte	0x6
 6080 0817 6902     		.2byte	0x269
 6081 0819 AB010000 		.4byte	0x1ab
 6082 081d AC       		.byte	0xac
 6083 081e 18       		.uleb128 0x18
 6084 081f F2050000 		.4byte	.LASF127
 6085 0823 06       		.byte	0x6
 6086 0824 6A02     		.2byte	0x26a
 6087 0826 AB010000 		.4byte	0x1ab
 6088 082a B4       		.byte	0xb4
 6089 082b 18       		.uleb128 0x18
 6090 082c 360A0000 		.4byte	.LASF128
 6091 0830 06       		.byte	0x6
 6092 0831 6B02     		.2byte	0x26b
 6093 0833 AB010000 		.4byte	0x1ab
 6094 0837 BC       		.byte	0xbc
 6095 0838 18       		.uleb128 0x18
 6096 0839 6C0C0000 		.4byte	.LASF129
 6097 083d 06       		.byte	0x6
 6098 083e 6C02     		.2byte	0x26c
 6099 0840 AB010000 		.4byte	0x1ab
 6100 0844 C4       		.byte	0xc4
 6101 0845 18       		.uleb128 0x18
 6102 0846 17100000 		.4byte	.LASF130
 6103 084a 06       		.byte	0x6
 6104 084b 6D02     		.2byte	0x26d
 6105 084d 25000000 		.4byte	0x25
 6106 0851 CC       		.byte	0xcc
 6107 0852 00       		.byte	0
 6108 0853 0B       		.uleb128 0xb
 6109 0854 D4010000 		.4byte	0x1d4
 6110 0858 63080000 		.4byte	0x863
 6111 085c 0C       		.uleb128 0xc
ARM GAS  /tmp/ccSNToGX.s 			page 109


 6112 085d 83010000 		.4byte	0x183
 6113 0861 19       		.byte	0x19
 6114 0862 00       		.byte	0
 6115 0863 0B       		.uleb128 0xb
 6116 0864 D4010000 		.4byte	0x1d4
 6117 0868 73080000 		.4byte	0x873
 6118 086c 0C       		.uleb128 0xc
 6119 086d 83010000 		.4byte	0x183
 6120 0871 07       		.byte	0x7
 6121 0872 00       		.byte	0
 6122 0873 0B       		.uleb128 0xb
 6123 0874 D4010000 		.4byte	0x1d4
 6124 0878 83080000 		.4byte	0x883
 6125 087c 0C       		.uleb128 0xc
 6126 087d 83010000 		.4byte	0x183
 6127 0881 17       		.byte	0x17
 6128 0882 00       		.byte	0
 6129 0883 1C       		.uleb128 0x1c
 6130 0884 F0       		.byte	0xf0
 6131 0885 06       		.byte	0x6
 6132 0886 7202     		.2byte	0x272
 6133 0888 A7080000 		.4byte	0x8a7
 6134 088c 18       		.uleb128 0x18
 6135 088d 5B0D0000 		.4byte	.LASF131
 6136 0891 06       		.byte	0x6
 6137 0892 7502     		.2byte	0x275
 6138 0894 A7080000 		.4byte	0x8a7
 6139 0898 00       		.byte	0
 6140 0899 18       		.uleb128 0x18
 6141 089a 69070000 		.4byte	.LASF132
 6142 089e 06       		.byte	0x6
 6143 089f 7602     		.2byte	0x276
 6144 08a1 B7080000 		.4byte	0x8b7
 6145 08a5 78       		.byte	0x78
 6146 08a6 00       		.byte	0
 6147 08a7 0B       		.uleb128 0xb
 6148 08a8 9D030000 		.4byte	0x39d
 6149 08ac B7080000 		.4byte	0x8b7
 6150 08b0 0C       		.uleb128 0xc
 6151 08b1 83010000 		.4byte	0x183
 6152 08b5 1D       		.byte	0x1d
 6153 08b6 00       		.byte	0
 6154 08b7 0B       		.uleb128 0xb
 6155 08b8 37000000 		.4byte	0x37
 6156 08bc C7080000 		.4byte	0x8c7
 6157 08c0 0C       		.uleb128 0xc
 6158 08c1 83010000 		.4byte	0x183
 6159 08c5 1D       		.byte	0x1d
 6160 08c6 00       		.byte	0
 6161 08c7 1D       		.uleb128 0x1d
 6162 08c8 F0       		.byte	0xf0
 6163 08c9 06       		.byte	0x6
 6164 08ca 5702     		.2byte	0x257
 6165 08cc E9080000 		.4byte	0x8e9
 6166 08d0 1E       		.uleb128 0x1e
 6167 08d1 27040000 		.4byte	.LASF82
 6168 08d5 06       		.byte	0x6
ARM GAS  /tmp/ccSNToGX.s 			page 110


 6169 08d6 6E02     		.2byte	0x26e
 6170 08d8 52070000 		.4byte	0x752
 6171 08dc 1E       		.uleb128 0x1e
 6172 08dd 1E030000 		.4byte	.LASF133
 6173 08e1 06       		.byte	0x6
 6174 08e2 7702     		.2byte	0x277
 6175 08e4 83080000 		.4byte	0x883
 6176 08e8 00       		.byte	0
 6177 08e9 0B       		.uleb128 0xb
 6178 08ea D4010000 		.4byte	0x1d4
 6179 08ee F9080000 		.4byte	0x8f9
 6180 08f2 0C       		.uleb128 0xc
 6181 08f3 83010000 		.4byte	0x183
 6182 08f7 18       		.byte	0x18
 6183 08f8 00       		.byte	0
 6184 08f9 07       		.uleb128 0x7
 6185 08fa 670F0000 		.4byte	.LASF135
 6186 08fe 06       		.uleb128 0x6
 6187 08ff 04       		.byte	0x4
 6188 0900 F9080000 		.4byte	0x8f9
 6189 0904 1F       		.uleb128 0x1f
 6190 0905 0F090000 		.4byte	0x90f
 6191 0909 16       		.uleb128 0x16
 6192 090a EB040000 		.4byte	0x4eb
 6193 090e 00       		.byte	0
 6194 090f 06       		.uleb128 0x6
 6195 0910 04       		.byte	0x4
 6196 0911 04090000 		.4byte	0x904
 6197 0915 06       		.uleb128 0x6
 6198 0916 04       		.byte	0x4
 6199 0917 3E020000 		.4byte	0x23e
 6200 091b 1F       		.uleb128 0x1f
 6201 091c 26090000 		.4byte	0x926
 6202 0920 16       		.uleb128 0x16
 6203 0921 25000000 		.4byte	0x25
 6204 0925 00       		.byte	0
 6205 0926 06       		.uleb128 0x6
 6206 0927 04       		.byte	0x4
 6207 0928 2C090000 		.4byte	0x92c
 6208 092c 06       		.uleb128 0x6
 6209 092d 04       		.byte	0x4
 6210 092e 1B090000 		.4byte	0x91b
 6211 0932 0B       		.uleb128 0xb
 6212 0933 C0060000 		.4byte	0x6c0
 6213 0937 42090000 		.4byte	0x942
 6214 093b 0C       		.uleb128 0xc
 6215 093c 83010000 		.4byte	0x183
 6216 0940 02       		.byte	0x2
 6217 0941 00       		.byte	0
 6218 0942 20       		.uleb128 0x20
 6219 0943 2F0F0000 		.4byte	.LASF136
 6220 0947 06       		.byte	0x6
 6221 0948 FE02     		.2byte	0x2fe
 6222 094a EB040000 		.4byte	0x4eb
 6223 094e 20       		.uleb128 0x20
 6224 094f EA110000 		.4byte	.LASF137
 6225 0953 06       		.byte	0x6
ARM GAS  /tmp/ccSNToGX.s 			page 111


 6226 0954 FF02     		.2byte	0x2ff
 6227 0956 F1040000 		.4byte	0x4f1
 6228 095a 03       		.uleb128 0x3
 6229 095b FA070000 		.4byte	.LASF138
 6230 095f 07       		.byte	0x7
 6231 0960 18       		.byte	0x18
 6232 0961 58000000 		.4byte	0x58
 6233 0965 05       		.uleb128 0x5
 6234 0966 5A090000 		.4byte	0x95a
 6235 096a 03       		.uleb128 0x3
 6236 096b 200B0000 		.4byte	.LASF139
 6237 096f 07       		.byte	0x7
 6238 0970 20       		.byte	0x20
 6239 0971 6A000000 		.4byte	0x6a
 6240 0975 03       		.uleb128 0x3
 6241 0976 3B010000 		.4byte	.LASF140
 6242 097a 07       		.byte	0x7
 6243 097b 24       		.byte	0x24
 6244 097c 7C000000 		.4byte	0x7c
 6245 0980 03       		.uleb128 0x3
 6246 0981 66030000 		.4byte	.LASF141
 6247 0985 07       		.byte	0x7
 6248 0986 2C       		.byte	0x2c
 6249 0987 8E000000 		.4byte	0x8e
 6250 098b 1A       		.uleb128 0x1a
 6251 098c 80090000 		.4byte	0x980
 6252 0990 03       		.uleb128 0x3
 6253 0991 870D0000 		.4byte	.LASF142
 6254 0995 07       		.byte	0x7
 6255 0996 30       		.byte	0x30
 6256 0997 A0000000 		.4byte	0xa0
 6257 099b 03       		.uleb128 0x3
 6258 099c 840F0000 		.4byte	.LASF143
 6259 09a0 07       		.byte	0x7
 6260 09a1 38       		.byte	0x38
 6261 09a2 B2000000 		.4byte	0xb2
 6262 09a6 03       		.uleb128 0x3
 6263 09a7 87060000 		.4byte	.LASF144
 6264 09ab 07       		.byte	0x7
 6265 09ac 3C       		.byte	0x3c
 6266 09ad BD000000 		.4byte	0xbd
 6267 09b1 03       		.uleb128 0x3
 6268 09b2 CC0C0000 		.4byte	.LASF145
 6269 09b6 08       		.byte	0x8
 6270 09b7 13       		.byte	0x13
 6271 09b8 37000000 		.4byte	0x37
 6272 09bc 03       		.uleb128 0x3
 6273 09bd 04030000 		.4byte	.LASF146
 6274 09c1 08       		.byte	0x8
 6275 09c2 16       		.byte	0x16
 6276 09c3 63000000 		.4byte	0x63
 6277 09c7 03       		.uleb128 0x3
 6278 09c8 28050000 		.4byte	.LASF147
 6279 09cc 08       		.byte	0x8
 6280 09cd 1A       		.byte	0x1a
 6281 09ce 87000000 		.4byte	0x87
 6282 09d2 03       		.uleb128 0x3
ARM GAS  /tmp/ccSNToGX.s 			page 112


 6283 09d3 1D0A0000 		.4byte	.LASF148
 6284 09d7 08       		.byte	0x8
 6285 09d8 1B       		.byte	0x1b
 6286 09d9 87000000 		.4byte	0x87
 6287 09dd 03       		.uleb128 0x3
 6288 09de 7D030000 		.4byte	.LASF149
 6289 09e2 08       		.byte	0x8
 6290 09e3 1F       		.byte	0x1f
 6291 09e4 AB000000 		.4byte	0xab
 6292 09e8 03       		.uleb128 0x3
 6293 09e9 A9040000 		.4byte	.LASF150
 6294 09ed 08       		.byte	0x8
 6295 09ee 22       		.byte	0x22
 6296 09ef C8000000 		.4byte	0xc8
 6297 09f3 03       		.uleb128 0x3
 6298 09f4 8B070000 		.4byte	.LASF151
 6299 09f8 09       		.byte	0x9
 6300 09f9 27       		.byte	0x27
 6301 09fa 90090000 		.4byte	0x990
 6302 09fe 03       		.uleb128 0x3
 6303 09ff 2E040000 		.4byte	.LASF152
 6304 0a03 09       		.byte	0x9
 6305 0a04 28       		.byte	0x28
 6306 0a05 A6090000 		.4byte	0x9a6
 6307 0a09 03       		.uleb128 0x3
 6308 0a0a 150A0000 		.4byte	.LASF153
 6309 0a0e 09       		.byte	0x9
 6310 0a0f 2A       		.byte	0x2a
 6311 0a10 5A090000 		.4byte	0x95a
 6312 0a14 03       		.uleb128 0x3
 6313 0a15 E1110000 		.4byte	.LASF154
 6314 0a19 09       		.byte	0x9
 6315 0a1a 2B       		.byte	0x2b
 6316 0a1b 5A090000 		.4byte	0x95a
 6317 0a1f 03       		.uleb128 0x3
 6318 0a20 DF090000 		.4byte	.LASF155
 6319 0a24 09       		.byte	0x9
 6320 0a25 2C       		.byte	0x2c
 6321 0a26 5A090000 		.4byte	0x95a
 6322 0a2a 03       		.uleb128 0x3
 6323 0a2b 7F040000 		.4byte	.LASF156
 6324 0a2f 09       		.byte	0x9
 6325 0a30 2E       		.byte	0x2e
 6326 0a31 90090000 		.4byte	0x990
 6327 0a35 03       		.uleb128 0x3
 6328 0a36 2C000000 		.4byte	.LASF157
 6329 0a3a 09       		.byte	0x9
 6330 0a3b 2F       		.byte	0x2f
 6331 0a3c 80090000 		.4byte	0x980
 6332 0a40 03       		.uleb128 0x3
 6333 0a41 CC0D0000 		.4byte	.LASF158
 6334 0a45 09       		.byte	0x9
 6335 0a46 31       		.byte	0x31
 6336 0a47 90090000 		.4byte	0x990
 6337 0a4b 03       		.uleb128 0x3
 6338 0a4c FE0E0000 		.4byte	.LASF159
 6339 0a50 09       		.byte	0x9
ARM GAS  /tmp/ccSNToGX.s 			page 113


 6340 0a51 33       		.byte	0x33
 6341 0a52 80090000 		.4byte	0x980
 6342 0a56 03       		.uleb128 0x3
 6343 0a57 570B0000 		.4byte	.LASF160
 6344 0a5b 09       		.byte	0x9
 6345 0a5c 34       		.byte	0x34
 6346 0a5d 90090000 		.4byte	0x990
 6347 0a61 03       		.uleb128 0x3
 6348 0a62 3B030000 		.4byte	.LASF161
 6349 0a66 0A       		.byte	0xa
 6350 0a67 34       		.byte	0x34
 6351 0a68 6C0A0000 		.4byte	0xa6c
 6352 0a6c 10       		.uleb128 0x10
 6353 0a6d E3050000 		.4byte	.LASF162
 6354 0a71 60       		.byte	0x60
 6355 0a72 0B       		.byte	0xb
 6356 0a73 8E       		.byte	0x8e
 6357 0a74 570B0000 		.4byte	0xb57
 6358 0a78 0E       		.uleb128 0xe
 6359 0a79 07110000 		.4byte	.LASF163
 6360 0a7d 0B       		.byte	0xb
 6361 0a7e 8F       		.byte	0x8f
 6362 0a7f 8C0B0000 		.4byte	0xb8c
 6363 0a83 00       		.byte	0
 6364 0a84 0E       		.uleb128 0xe
 6365 0a85 FB000000 		.4byte	.LASF164
 6366 0a89 0B       		.byte	0xb
 6367 0a8a 90       		.byte	0x90
 6368 0a8b 2A0A0000 		.4byte	0xa2a
 6369 0a8f 08       		.byte	0x8
 6370 0a90 11       		.uleb128 0x11
 6371 0a91 63747800 		.ascii	"ctx\000"
 6372 0a95 0B       		.byte	0xb
 6373 0a96 91       		.byte	0x91
 6374 0a97 F50D0000 		.4byte	0xdf5
 6375 0a9b 0C       		.byte	0xc
 6376 0a9c 0E       		.uleb128 0xe
 6377 0a9d 2D050000 		.4byte	.LASF165
 6378 0aa1 0B       		.byte	0xb
 6379 0aa2 93       		.byte	0x93
 6380 0aa3 620B0000 		.4byte	0xb62
 6381 0aa7 10       		.byte	0x10
 6382 0aa8 0E       		.uleb128 0xe
 6383 0aa9 86020000 		.4byte	.LASF166
 6384 0aad 0B       		.byte	0xb
 6385 0aae 94       		.byte	0x94
 6386 0aaf 620B0000 		.4byte	0xb62
 6387 0ab3 14       		.byte	0x14
 6388 0ab4 0E       		.uleb128 0xe
 6389 0ab5 720A0000 		.4byte	.LASF167
 6390 0ab9 0B       		.byte	0xb
 6391 0aba 9B       		.byte	0x9b
 6392 0abb 4C060000 		.4byte	0x64c
 6393 0abf 18       		.byte	0x18
 6394 0ac0 0E       		.uleb128 0xe
 6395 0ac1 160C0000 		.4byte	.LASF168
 6396 0ac5 0B       		.byte	0xb
ARM GAS  /tmp/ccSNToGX.s 			page 114


 6397 0ac6 A4       		.byte	0xa4
 6398 0ac7 DB100000 		.4byte	0x10db
 6399 0acb 1C       		.byte	0x1c
 6400 0acc 0E       		.uleb128 0xe
 6401 0acd D50B0000 		.4byte	.LASF169
 6402 0ad1 0B       		.byte	0xb
 6403 0ad2 A9       		.byte	0xa9
 6404 0ad3 140A0000 		.4byte	0xa14
 6405 0ad7 20       		.byte	0x20
 6406 0ad8 0E       		.uleb128 0xe
 6407 0ad9 91140000 		.4byte	.LASF170
 6408 0add 0B       		.byte	0xb
 6409 0ade AD       		.byte	0xad
 6410 0adf 090A0000 		.4byte	0xa09
 6411 0ae3 21       		.byte	0x21
 6412 0ae4 0E       		.uleb128 0xe
 6413 0ae5 AA030000 		.4byte	.LASF171
 6414 0ae9 0B       		.byte	0xb
 6415 0aea B2       		.byte	0xb2
 6416 0aeb 1F0A0000 		.4byte	0xa1f
 6417 0aef 22       		.byte	0x22
 6418 0af0 21       		.uleb128 0x21
 6419 0af1 7500     		.ascii	"u\000"
 6420 0af3 0B       		.byte	0xb
 6421 0af4 0301     		.2byte	0x103
 6422 0af6 11100000 		.4byte	0x1011
 6423 0afa 24       		.byte	0x24
 6424 0afb 18       		.uleb128 0x18
 6425 0afc 3D100000 		.4byte	.LASF172
 6426 0b00 0B       		.byte	0xb
 6427 0b01 0801     		.2byte	0x108
 6428 0b03 680B0000 		.4byte	0xb68
 6429 0b07 28       		.byte	0x28
 6430 0b08 18       		.uleb128 0x18
 6431 0b09 A10B0000 		.4byte	.LASF173
 6432 0b0d 0B       		.byte	0xb
 6433 0b0e 0E01     		.2byte	0x10e
 6434 0b10 8C0B0000 		.4byte	0xb8c
 6435 0b14 2C       		.byte	0x2c
 6436 0b15 18       		.uleb128 0x18
 6437 0b16 97000000 		.4byte	.LASF174
 6438 0b1a 0B       		.byte	0xb
 6439 0b1b 1401     		.2byte	0x114
 6440 0b1d 400A0000 		.4byte	0xa40
 6441 0b21 34       		.byte	0x34
 6442 0b22 18       		.uleb128 0x18
 6443 0b23 B7030000 		.4byte	.LASF175
 6444 0b27 0B       		.byte	0xb
 6445 0b28 1B01     		.2byte	0x11b
 6446 0b2a D5100000 		.4byte	0x10d5
 6447 0b2e 38       		.byte	0x38
 6448 0b2f 18       		.uleb128 0x18
 6449 0b30 60140000 		.4byte	.LASF176
 6450 0b34 0B       		.byte	0xb
 6451 0b35 1F01     		.2byte	0x11f
 6452 0b37 2A0A0000 		.4byte	0xa2a
 6453 0b3b 3C       		.byte	0x3c
ARM GAS  /tmp/ccSNToGX.s 			page 115


 6454 0b3c 18       		.uleb128 0x18
 6455 0b3d 950C0000 		.4byte	.LASF177
 6456 0b41 0B       		.byte	0xb
 6457 0b42 2601     		.2byte	0x126
 6458 0b44 C1010000 		.4byte	0x1c1
 6459 0b48 40       		.byte	0x40
 6460 0b49 18       		.uleb128 0x18
 6461 0b4a E60B0000 		.4byte	.LASF178
 6462 0b4e 0B       		.byte	0xb
 6463 0b4f 2C01     		.2byte	0x12c
 6464 0b51 C20F0000 		.4byte	0xfc2
 6465 0b55 48       		.byte	0x48
 6466 0b56 00       		.byte	0
 6467 0b57 03       		.uleb128 0x3
 6468 0b58 7C130000 		.4byte	.LASF179
 6469 0b5c 0A       		.byte	0xa
 6470 0b5d 39       		.byte	0x39
 6471 0b5e 620B0000 		.4byte	0xb62
 6472 0b62 06       		.uleb128 0x6
 6473 0b63 04       		.byte	0x4
 6474 0b64 610A0000 		.4byte	0xa61
 6475 0b68 03       		.uleb128 0x3
 6476 0b69 F9030000 		.4byte	.LASF180
 6477 0b6d 0A       		.byte	0xa
 6478 0b6e 3E       		.byte	0x3e
 6479 0b6f 730B0000 		.4byte	0xb73
 6480 0b73 10       		.uleb128 0x10
 6481 0b74 9D140000 		.4byte	.LASF181
 6482 0b78 04       		.byte	0x4
 6483 0b79 0B       		.byte	0xb
 6484 0b7a 7C       		.byte	0x7c
 6485 0b7b 8C0B0000 		.4byte	0xb8c
 6486 0b7f 0E       		.uleb128 0xe
 6487 0b80 81020000 		.4byte	.LASF182
 6488 0b84 0B       		.byte	0xb
 6489 0b85 7D       		.byte	0x7d
 6490 0b86 620B0000 		.4byte	0xb62
 6491 0b8a 00       		.byte	0
 6492 0b8b 00       		.byte	0
 6493 0b8c 03       		.uleb128 0x3
 6494 0b8d AE0C0000 		.4byte	.LASF183
 6495 0b91 0A       		.byte	0xa
 6496 0b92 45       		.byte	0x45
 6497 0b93 970B0000 		.4byte	0xb97
 6498 0b97 10       		.uleb128 0x10
 6499 0b98 CE020000 		.4byte	.LASF184
 6500 0b9c 08       		.byte	0x8
 6501 0b9d 0B       		.byte	0xb
 6502 0b9e 83       		.byte	0x83
 6503 0b9f BC0B0000 		.4byte	0xbbc
 6504 0ba3 0E       		.uleb128 0xe
 6505 0ba4 81020000 		.4byte	.LASF182
 6506 0ba8 0B       		.byte	0xb
 6507 0ba9 84       		.byte	0x84
 6508 0baa 620B0000 		.4byte	0xb62
 6509 0bae 00       		.byte	0
 6510 0baf 0E       		.uleb128 0xe
ARM GAS  /tmp/ccSNToGX.s 			page 116


 6511 0bb0 53140000 		.4byte	.LASF185
 6512 0bb4 0B       		.byte	0xb
 6513 0bb5 85       		.byte	0x85
 6514 0bb6 620B0000 		.4byte	0xb62
 6515 0bba 04       		.byte	0x4
 6516 0bbb 00       		.byte	0
 6517 0bbc 03       		.uleb128 0x3
 6518 0bbd D6050000 		.4byte	.LASF186
 6519 0bc1 0A       		.byte	0xa
 6520 0bc2 4C       		.byte	0x4c
 6521 0bc3 C70B0000 		.4byte	0xbc7
 6522 0bc7 1B       		.uleb128 0x1b
 6523 0bc8 45100000 		.4byte	.LASF187
 6524 0bcc 1C       		.byte	0x1c
 6525 0bcd 0B       		.byte	0xb
 6526 0bce 5E01     		.2byte	0x15e
 6527 0bd0 230C0000 		.4byte	0xc23
 6528 0bd4 18       		.uleb128 0x18
 6529 0bd5 07110000 		.4byte	.LASF163
 6530 0bd9 0B       		.byte	0xb
 6531 0bda 5F01     		.2byte	0x15f
 6532 0bdc 8C0B0000 		.4byte	0xb8c
 6533 0be0 00       		.byte	0
 6534 0be1 18       		.uleb128 0x18
 6535 0be2 FB000000 		.4byte	.LASF164
 6536 0be6 0B       		.byte	0xb
 6537 0be7 6001     		.2byte	0x160
 6538 0be9 2A0A0000 		.4byte	0xa2a
 6539 0bed 08       		.byte	0x8
 6540 0bee 21       		.uleb128 0x21
 6541 0bef 63747800 		.ascii	"ctx\000"
 6542 0bf3 0B       		.byte	0xb
 6543 0bf4 6201     		.2byte	0x162
 6544 0bf6 F50D0000 		.4byte	0xdf5
 6545 0bfa 0C       		.byte	0xc
 6546 0bfb 18       		.uleb128 0x18
 6547 0bfc 2D050000 		.4byte	.LASF165
 6548 0c00 0B       		.byte	0xb
 6549 0c01 6501     		.2byte	0x165
 6550 0c03 620B0000 		.4byte	0xb62
 6551 0c07 10       		.byte	0x10
 6552 0c08 18       		.uleb128 0x18
 6553 0c09 86020000 		.4byte	.LASF166
 6554 0c0d 0B       		.byte	0xb
 6555 0c0e 6601     		.2byte	0x166
 6556 0c10 620B0000 		.4byte	0xb62
 6557 0c14 14       		.byte	0x14
 6558 0c15 18       		.uleb128 0x18
 6559 0c16 5E0B0000 		.4byte	.LASF188
 6560 0c1a 0B       		.byte	0xb
 6561 0c1b 6901     		.2byte	0x169
 6562 0c1d 620B0000 		.4byte	0xb62
 6563 0c21 18       		.byte	0x18
 6564 0c22 00       		.byte	0
 6565 0c23 03       		.uleb128 0x3
 6566 0c24 9D0F0000 		.4byte	.LASF189
 6567 0c28 0A       		.byte	0xa
ARM GAS  /tmp/ccSNToGX.s 			page 117


 6568 0c29 51       		.byte	0x51
 6569 0c2a 2E0C0000 		.4byte	0xc2e
 6570 0c2e 06       		.uleb128 0x6
 6571 0c2f 04       		.byte	0x4
 6572 0c30 340C0000 		.4byte	0xc34
 6573 0c34 1F       		.uleb128 0x1f
 6574 0c35 3F0C0000 		.4byte	0xc3f
 6575 0c39 16       		.uleb128 0x16
 6576 0c3a C1010000 		.4byte	0x1c1
 6577 0c3e 00       		.byte	0
 6578 0c3f 03       		.uleb128 0x3
 6579 0c40 7B070000 		.4byte	.LASF190
 6580 0c44 0A       		.byte	0xa
 6581 0c45 56       		.byte	0x56
 6582 0c46 4A0C0000 		.4byte	0xc4a
 6583 0c4a 1B       		.uleb128 0x1b
 6584 0c4b B8110000 		.4byte	.LASF191
 6585 0c4f 14       		.byte	0x14
 6586 0c50 0B       		.byte	0xb
 6587 0c51 3901     		.2byte	0x139
 6588 0c53 990C0000 		.4byte	0xc99
 6589 0c57 18       		.uleb128 0x18
 6590 0c58 81020000 		.4byte	.LASF182
 6591 0c5c 0B       		.byte	0xb
 6592 0c5d 3A01     		.2byte	0x13a
 6593 0c5f E1100000 		.4byte	0x10e1
 6594 0c63 00       		.byte	0
 6595 0c64 18       		.uleb128 0x18
 6596 0c65 53140000 		.4byte	.LASF185
 6597 0c69 0B       		.byte	0xb
 6598 0c6a 3B01     		.2byte	0x13b
 6599 0c6c E1100000 		.4byte	0x10e1
 6600 0c70 04       		.byte	0x4
 6601 0c71 18       		.uleb128 0x18
 6602 0c72 54060000 		.4byte	.LASF192
 6603 0c76 0B       		.byte	0xb
 6604 0c77 3C01     		.2byte	0x13c
 6605 0c79 7D0D0000 		.4byte	0xd7d
 6606 0c7d 08       		.byte	0x8
 6607 0c7e 18       		.uleb128 0x18
 6608 0c7f 380C0000 		.4byte	.LASF193
 6609 0c83 0B       		.byte	0xb
 6610 0c84 3D01     		.2byte	0x13d
 6611 0c86 230C0000 		.4byte	0xc23
 6612 0c8a 0C       		.byte	0xc
 6613 0c8b 21       		.uleb128 0x21
 6614 0c8c 70617200 		.ascii	"par\000"
 6615 0c90 0B       		.byte	0xb
 6616 0c91 3F01     		.2byte	0x13f
 6617 0c93 C1010000 		.4byte	0x1c1
 6618 0c97 10       		.byte	0x10
 6619 0c98 00       		.byte	0
 6620 0c99 03       		.uleb128 0x3
 6621 0c9a 76120000 		.4byte	.LASF194
 6622 0c9e 0A       		.byte	0xa
 6623 0c9f 5B       		.byte	0x5b
 6624 0ca0 A40C0000 		.4byte	0xca4
ARM GAS  /tmp/ccSNToGX.s 			page 118


 6625 0ca4 1B       		.uleb128 0x1b
 6626 0ca5 4F030000 		.4byte	.LASF195
 6627 0ca9 10       		.byte	0x10
 6628 0caa 0B       		.byte	0xb
 6629 0cab 4901     		.2byte	0x149
 6630 0cad E60C0000 		.4byte	0xce6
 6631 0cb1 18       		.uleb128 0x18
 6632 0cb2 81020000 		.4byte	.LASF182
 6633 0cb6 0B       		.byte	0xb
 6634 0cb7 4A01     		.2byte	0x14a
 6635 0cb9 E1100000 		.4byte	0x10e1
 6636 0cbd 00       		.byte	0
 6637 0cbe 18       		.uleb128 0x18
 6638 0cbf 53140000 		.4byte	.LASF185
 6639 0cc3 0B       		.byte	0xb
 6640 0cc4 4C01     		.2byte	0x14c
 6641 0cc6 E1100000 		.4byte	0x10e1
 6642 0cca 04       		.byte	0x4
 6643 0ccb 18       		.uleb128 0x18
 6644 0ccc 54060000 		.4byte	.LASF192
 6645 0cd0 0B       		.byte	0xb
 6646 0cd1 4E01     		.2byte	0x14e
 6647 0cd3 7D0D0000 		.4byte	0xd7d
 6648 0cd7 08       		.byte	0x8
 6649 0cd8 18       		.uleb128 0x18
 6650 0cd9 860B0000 		.4byte	.LASF196
 6651 0cdd 0B       		.byte	0xb
 6652 0cde 5601     		.2byte	0x156
 6653 0ce0 720D0000 		.4byte	0xd72
 6654 0ce4 0C       		.byte	0xc
 6655 0ce5 00       		.byte	0
 6656 0ce6 03       		.uleb128 0x3
 6657 0ce7 45060000 		.4byte	.LASF197
 6658 0ceb 0A       		.byte	0xa
 6659 0cec 60       		.byte	0x60
 6660 0ced F10C0000 		.4byte	0xcf1
 6661 0cf1 1B       		.uleb128 0x1b
 6662 0cf2 71100000 		.4byte	.LASF198
 6663 0cf6 04       		.byte	0x4
 6664 0cf7 0B       		.byte	0xb
 6665 0cf8 7001     		.2byte	0x170
 6666 0cfa 0C0D0000 		.4byte	0xd0c
 6667 0cfe 18       		.uleb128 0x18
 6668 0cff 970A0000 		.4byte	.LASF199
 6669 0d03 0B       		.byte	0xb
 6670 0d04 7801     		.2byte	0x178
 6671 0d06 52060000 		.4byte	0x652
 6672 0d0a 00       		.byte	0
 6673 0d0b 00       		.byte	0
 6674 0d0c 03       		.uleb128 0x3
 6675 0d0d 66000000 		.4byte	.LASF200
 6676 0d11 0A       		.byte	0xa
 6677 0d12 65       		.byte	0x65
 6678 0d13 170D0000 		.4byte	0xd17
 6679 0d17 1B       		.uleb128 0x1b
 6680 0d18 0C0C0000 		.4byte	.LASF201
 6681 0d1c D0       		.byte	0xd0
ARM GAS  /tmp/ccSNToGX.s 			page 119


 6682 0d1d 0B       		.byte	0xb
 6683 0d1e 9001     		.2byte	0x190
 6684 0d20 720D0000 		.4byte	0xd72
 6685 0d24 18       		.uleb128 0x18
 6686 0d25 F3030000 		.4byte	.LASF202
 6687 0d29 0B       		.byte	0xb
 6688 0d2a 9401     		.2byte	0x194
 6689 0d2c BC0B0000 		.4byte	0xbbc
 6690 0d30 00       		.byte	0
 6691 0d31 18       		.uleb128 0x18
 6692 0d32 CE030000 		.4byte	.LASF203
 6693 0d36 0B       		.byte	0xb
 6694 0d37 9801     		.2byte	0x198
 6695 0d39 990C0000 		.4byte	0xc99
 6696 0d3d 1C       		.byte	0x1c
 6697 0d3e 21       		.uleb128 0x21
 6698 0d3f 64626700 		.ascii	"dbg\000"
 6699 0d43 0B       		.byte	0xb
 6700 0d44 9C01     		.2byte	0x19c
 6701 0d46 E60C0000 		.4byte	0xce6
 6702 0d4a 2C       		.byte	0x2c
 6703 0d4b 18       		.uleb128 0x18
 6704 0d4c E20C0000 		.4byte	.LASF204
 6705 0d50 0B       		.byte	0xb
 6706 0d51 A001     		.2byte	0x1a0
 6707 0d53 610A0000 		.4byte	0xa61
 6708 0d57 30       		.byte	0x30
 6709 0d58 21       		.uleb128 0x21
 6710 0d59 746D00   		.ascii	"tm\000"
 6711 0d5c 0B       		.byte	0xb
 6712 0d5d A501     		.2byte	0x1a5
 6713 0d5f 740F0000 		.4byte	0xf74
 6714 0d63 90       		.byte	0x90
 6715 0d64 18       		.uleb128 0x18
 6716 0d65 F10E0000 		.4byte	.LASF205
 6717 0d69 0B       		.byte	0xb
 6718 0d6a AB01     		.2byte	0x1ab
 6719 0d6c 06100000 		.4byte	0x1006
 6720 0d70 98       		.byte	0x98
 6721 0d71 00       		.byte	0
 6722 0d72 03       		.uleb128 0x3
 6723 0d73 6E030000 		.4byte	.LASF206
 6724 0d77 0C       		.byte	0xc
 6725 0d78 6D       		.byte	0x6d
 6726 0d79 90090000 		.4byte	0x990
 6727 0d7d 03       		.uleb128 0x3
 6728 0d7e 2F100000 		.4byte	.LASF207
 6729 0d82 0C       		.byte	0xc
 6730 0d83 79       		.byte	0x79
 6731 0d84 90090000 		.4byte	0x990
 6732 0d88 20       		.uleb128 0x20
 6733 0d89 25110000 		.4byte	.LASF208
 6734 0d8d 0D       		.byte	0xd
 6735 0d8e 0408     		.2byte	0x804
 6736 0d90 8B090000 		.4byte	0x98b
 6737 0d94 22       		.uleb128 0x22
 6738 0d95 B20B0000 		.4byte	.LASF209
ARM GAS  /tmp/ccSNToGX.s 			page 120


 6739 0d99 0E       		.byte	0xe
 6740 0d9a 4C       		.byte	0x4c
 6741 0d9b 90090000 		.4byte	0x990
 6742 0d9f 0B       		.uleb128 0xb
 6743 0da0 65090000 		.4byte	0x965
 6744 0da4 AF0D0000 		.4byte	0xdaf
 6745 0da8 0C       		.uleb128 0xc
 6746 0da9 83010000 		.4byte	0x183
 6747 0dad 0F       		.byte	0xf
 6748 0dae 00       		.byte	0
 6749 0daf 05       		.uleb128 0x5
 6750 0db0 9F0D0000 		.4byte	0xd9f
 6751 0db4 22       		.uleb128 0x22
 6752 0db5 5B130000 		.4byte	.LASF210
 6753 0db9 0E       		.byte	0xe
 6754 0dba 4E       		.byte	0x4e
 6755 0dbb AF0D0000 		.4byte	0xdaf
 6756 0dbf 0B       		.uleb128 0xb
 6757 0dc0 65090000 		.4byte	0x965
 6758 0dc4 CF0D0000 		.4byte	0xdcf
 6759 0dc8 0C       		.uleb128 0xc
 6760 0dc9 83010000 		.4byte	0x183
 6761 0dcd 07       		.byte	0x7
 6762 0dce 00       		.byte	0
 6763 0dcf 05       		.uleb128 0x5
 6764 0dd0 BF0D0000 		.4byte	0xdbf
 6765 0dd4 22       		.uleb128 0x22
 6766 0dd5 540E0000 		.4byte	.LASF211
 6767 0dd9 0E       		.byte	0xe
 6768 0dda 4F       		.byte	0x4f
 6769 0ddb CF0D0000 		.4byte	0xdcf
 6770 0ddf 03       		.uleb128 0x3
 6771 0de0 C30D0000 		.4byte	.LASF212
 6772 0de4 0F       		.byte	0xf
 6773 0de5 65       		.byte	0x65
 6774 0de6 C1010000 		.4byte	0x1c1
 6775 0dea 03       		.uleb128 0x3
 6776 0deb A9050000 		.4byte	.LASF213
 6777 0def 0F       		.byte	0xf
 6778 0df0 6D       		.byte	0x6d
 6779 0df1 A6090000 		.4byte	0x9a6
 6780 0df5 10       		.uleb128 0x10
 6781 0df6 A5090000 		.4byte	.LASF214
 6782 0dfa 04       		.byte	0x4
 6783 0dfb 0F       		.byte	0xf
 6784 0dfc 89       		.byte	0x89
 6785 0dfd 0D0E0000 		.4byte	0xe0d
 6786 0e01 11       		.uleb128 0x11
 6787 0e02 737000   		.ascii	"sp\000"
 6788 0e05 0F       		.byte	0xf
 6789 0e06 8A       		.byte	0x8a
 6790 0e07 590F0000 		.4byte	0xf59
 6791 0e0b 00       		.byte	0
 6792 0e0c 00       		.byte	0
 6793 0e0d 1B       		.uleb128 0x1b
 6794 0e0e 13000000 		.4byte	.LASF215
 6795 0e12 64       		.byte	0x64
ARM GAS  /tmp/ccSNToGX.s 			page 121


 6796 0e13 10       		.byte	0x10
 6797 0e14 5901     		.2byte	0x159
 6798 0e16 590F0000 		.4byte	0xf59
 6799 0e1a 21       		.uleb128 0x21
 6800 0e1b 73313600 		.ascii	"s16\000"
 6801 0e1f 10       		.byte	0x10
 6802 0e20 5B01     		.2byte	0x15b
 6803 0e22 DF0D0000 		.4byte	0xddf
 6804 0e26 00       		.byte	0
 6805 0e27 21       		.uleb128 0x21
 6806 0e28 73313700 		.ascii	"s17\000"
 6807 0e2c 10       		.byte	0x10
 6808 0e2d 5C01     		.2byte	0x15c
 6809 0e2f DF0D0000 		.4byte	0xddf
 6810 0e33 04       		.byte	0x4
 6811 0e34 21       		.uleb128 0x21
 6812 0e35 73313800 		.ascii	"s18\000"
 6813 0e39 10       		.byte	0x10
 6814 0e3a 5D01     		.2byte	0x15d
 6815 0e3c DF0D0000 		.4byte	0xddf
 6816 0e40 08       		.byte	0x8
 6817 0e41 21       		.uleb128 0x21
 6818 0e42 73313900 		.ascii	"s19\000"
 6819 0e46 10       		.byte	0x10
 6820 0e47 5E01     		.2byte	0x15e
 6821 0e49 DF0D0000 		.4byte	0xddf
 6822 0e4d 0C       		.byte	0xc
 6823 0e4e 21       		.uleb128 0x21
 6824 0e4f 73323000 		.ascii	"s20\000"
 6825 0e53 10       		.byte	0x10
 6826 0e54 5F01     		.2byte	0x15f
 6827 0e56 DF0D0000 		.4byte	0xddf
 6828 0e5a 10       		.byte	0x10
 6829 0e5b 21       		.uleb128 0x21
 6830 0e5c 73323100 		.ascii	"s21\000"
 6831 0e60 10       		.byte	0x10
 6832 0e61 6001     		.2byte	0x160
 6833 0e63 DF0D0000 		.4byte	0xddf
 6834 0e67 14       		.byte	0x14
 6835 0e68 21       		.uleb128 0x21
 6836 0e69 73323200 		.ascii	"s22\000"
 6837 0e6d 10       		.byte	0x10
 6838 0e6e 6101     		.2byte	0x161
 6839 0e70 DF0D0000 		.4byte	0xddf
 6840 0e74 18       		.byte	0x18
 6841 0e75 21       		.uleb128 0x21
 6842 0e76 73323300 		.ascii	"s23\000"
 6843 0e7a 10       		.byte	0x10
 6844 0e7b 6201     		.2byte	0x162
 6845 0e7d DF0D0000 		.4byte	0xddf
 6846 0e81 1C       		.byte	0x1c
 6847 0e82 21       		.uleb128 0x21
 6848 0e83 73323400 		.ascii	"s24\000"
 6849 0e87 10       		.byte	0x10
 6850 0e88 6301     		.2byte	0x163
 6851 0e8a DF0D0000 		.4byte	0xddf
 6852 0e8e 20       		.byte	0x20
ARM GAS  /tmp/ccSNToGX.s 			page 122


 6853 0e8f 21       		.uleb128 0x21
 6854 0e90 73323500 		.ascii	"s25\000"
 6855 0e94 10       		.byte	0x10
 6856 0e95 6401     		.2byte	0x164
 6857 0e97 DF0D0000 		.4byte	0xddf
 6858 0e9b 24       		.byte	0x24
 6859 0e9c 21       		.uleb128 0x21
 6860 0e9d 73323600 		.ascii	"s26\000"
 6861 0ea1 10       		.byte	0x10
 6862 0ea2 6501     		.2byte	0x165
 6863 0ea4 DF0D0000 		.4byte	0xddf
 6864 0ea8 28       		.byte	0x28
 6865 0ea9 21       		.uleb128 0x21
 6866 0eaa 73323700 		.ascii	"s27\000"
 6867 0eae 10       		.byte	0x10
 6868 0eaf 6601     		.2byte	0x166
 6869 0eb1 DF0D0000 		.4byte	0xddf
 6870 0eb5 2C       		.byte	0x2c
 6871 0eb6 21       		.uleb128 0x21
 6872 0eb7 73323800 		.ascii	"s28\000"
 6873 0ebb 10       		.byte	0x10
 6874 0ebc 6701     		.2byte	0x167
 6875 0ebe DF0D0000 		.4byte	0xddf
 6876 0ec2 30       		.byte	0x30
 6877 0ec3 21       		.uleb128 0x21
 6878 0ec4 73323900 		.ascii	"s29\000"
 6879 0ec8 10       		.byte	0x10
 6880 0ec9 6801     		.2byte	0x168
 6881 0ecb DF0D0000 		.4byte	0xddf
 6882 0ecf 34       		.byte	0x34
 6883 0ed0 21       		.uleb128 0x21
 6884 0ed1 73333000 		.ascii	"s30\000"
 6885 0ed5 10       		.byte	0x10
 6886 0ed6 6901     		.2byte	0x169
 6887 0ed8 DF0D0000 		.4byte	0xddf
 6888 0edc 38       		.byte	0x38
 6889 0edd 21       		.uleb128 0x21
 6890 0ede 73333100 		.ascii	"s31\000"
 6891 0ee2 10       		.byte	0x10
 6892 0ee3 6A01     		.2byte	0x16a
 6893 0ee5 DF0D0000 		.4byte	0xddf
 6894 0ee9 3C       		.byte	0x3c
 6895 0eea 21       		.uleb128 0x21
 6896 0eeb 723400   		.ascii	"r4\000"
 6897 0eee 10       		.byte	0x10
 6898 0eef 6C01     		.2byte	0x16c
 6899 0ef1 DF0D0000 		.4byte	0xddf
 6900 0ef5 40       		.byte	0x40
 6901 0ef6 21       		.uleb128 0x21
 6902 0ef7 723500   		.ascii	"r5\000"
 6903 0efa 10       		.byte	0x10
 6904 0efb 6D01     		.2byte	0x16d
 6905 0efd DF0D0000 		.4byte	0xddf
 6906 0f01 44       		.byte	0x44
 6907 0f02 21       		.uleb128 0x21
 6908 0f03 723600   		.ascii	"r6\000"
 6909 0f06 10       		.byte	0x10
ARM GAS  /tmp/ccSNToGX.s 			page 123


 6910 0f07 6E01     		.2byte	0x16e
 6911 0f09 DF0D0000 		.4byte	0xddf
 6912 0f0d 48       		.byte	0x48
 6913 0f0e 21       		.uleb128 0x21
 6914 0f0f 723700   		.ascii	"r7\000"
 6915 0f12 10       		.byte	0x10
 6916 0f13 6F01     		.2byte	0x16f
 6917 0f15 DF0D0000 		.4byte	0xddf
 6918 0f19 4C       		.byte	0x4c
 6919 0f1a 21       		.uleb128 0x21
 6920 0f1b 723800   		.ascii	"r8\000"
 6921 0f1e 10       		.byte	0x10
 6922 0f1f 7001     		.2byte	0x170
 6923 0f21 DF0D0000 		.4byte	0xddf
 6924 0f25 50       		.byte	0x50
 6925 0f26 21       		.uleb128 0x21
 6926 0f27 723900   		.ascii	"r9\000"
 6927 0f2a 10       		.byte	0x10
 6928 0f2b 7101     		.2byte	0x171
 6929 0f2d DF0D0000 		.4byte	0xddf
 6930 0f31 54       		.byte	0x54
 6931 0f32 21       		.uleb128 0x21
 6932 0f33 72313000 		.ascii	"r10\000"
 6933 0f37 10       		.byte	0x10
 6934 0f38 7201     		.2byte	0x172
 6935 0f3a DF0D0000 		.4byte	0xddf
 6936 0f3e 58       		.byte	0x58
 6937 0f3f 21       		.uleb128 0x21
 6938 0f40 72313100 		.ascii	"r11\000"
 6939 0f44 10       		.byte	0x10
 6940 0f45 7301     		.2byte	0x173
 6941 0f47 DF0D0000 		.4byte	0xddf
 6942 0f4b 5C       		.byte	0x5c
 6943 0f4c 21       		.uleb128 0x21
 6944 0f4d 6C7200   		.ascii	"lr\000"
 6945 0f50 10       		.byte	0x10
 6946 0f51 7401     		.2byte	0x174
 6947 0f53 DF0D0000 		.4byte	0xddf
 6948 0f57 60       		.byte	0x60
 6949 0f58 00       		.byte	0
 6950 0f59 06       		.uleb128 0x6
 6951 0f5a 04       		.byte	0x4
 6952 0f5b 0D0E0000 		.4byte	0xe0d
 6953 0f5f 0D       		.uleb128 0xd
 6954 0f60 04       		.byte	0x4
 6955 0f61 11       		.byte	0x11
 6956 0f62 38       		.byte	0x38
 6957 0f63 740F0000 		.4byte	0xf74
 6958 0f67 0E       		.uleb128 0xe
 6959 0f68 4F110000 		.4byte	.LASF216
 6960 0f6c 11       		.byte	0x11
 6961 0f6d 3C       		.byte	0x3c
 6962 0f6e F3090000 		.4byte	0x9f3
 6963 0f72 00       		.byte	0
 6964 0f73 00       		.byte	0
 6965 0f74 03       		.uleb128 0x3
 6966 0f75 08040000 		.4byte	.LASF217
ARM GAS  /tmp/ccSNToGX.s 			page 124


 6967 0f79 11       		.byte	0x11
 6968 0f7a 3D       		.byte	0x3d
 6969 0f7b 5F0F0000 		.4byte	0xf5f
 6970 0f7f 0D       		.uleb128 0xd
 6971 0f80 18       		.byte	0x18
 6972 0f81 11       		.byte	0x11
 6973 0f82 48       		.byte	0x48
 6974 0f83 C20F0000 		.4byte	0xfc2
 6975 0f87 0E       		.uleb128 0xe
 6976 0f88 C9040000 		.4byte	.LASF218
 6977 0f8c 11       		.byte	0x11
 6978 0f8d 49       		.byte	0x49
 6979 0f8e F3090000 		.4byte	0x9f3
 6980 0f92 00       		.byte	0
 6981 0f93 0E       		.uleb128 0xe
 6982 0f94 F5000000 		.4byte	.LASF219
 6983 0f98 11       		.byte	0x11
 6984 0f99 4A       		.byte	0x4a
 6985 0f9a F3090000 		.4byte	0x9f3
 6986 0f9e 04       		.byte	0x4
 6987 0f9f 0E       		.uleb128 0xe
 6988 0fa0 790D0000 		.4byte	.LASF220
 6989 0fa4 11       		.byte	0x11
 6990 0fa5 4B       		.byte	0x4b
 6991 0fa6 F3090000 		.4byte	0x9f3
 6992 0faa 08       		.byte	0x8
 6993 0fab 11       		.uleb128 0x11
 6994 0fac 6E00     		.ascii	"n\000"
 6995 0fae 11       		.byte	0x11
 6996 0faf 4C       		.byte	0x4c
 6997 0fb0 560A0000 		.4byte	0xa56
 6998 0fb4 0C       		.byte	0xc
 6999 0fb5 0E       		.uleb128 0xe
 7000 0fb6 2A0D0000 		.4byte	.LASF221
 7001 0fba 11       		.byte	0x11
 7002 0fbb 4D       		.byte	0x4d
 7003 0fbc FE090000 		.4byte	0x9fe
 7004 0fc0 10       		.byte	0x10
 7005 0fc1 00       		.byte	0
 7006 0fc2 03       		.uleb128 0x3
 7007 0fc3 E8120000 		.4byte	.LASF222
 7008 0fc7 11       		.byte	0x11
 7009 0fc8 4E       		.byte	0x4e
 7010 0fc9 7F0F0000 		.4byte	0xf7f
 7011 0fcd 0D       		.uleb128 0xd
 7012 0fce 38       		.byte	0x38
 7013 0fcf 12       		.byte	0x12
 7014 0fd0 38       		.byte	0x38
 7015 0fd1 06100000 		.4byte	0x1006
 7016 0fd5 0E       		.uleb128 0xe
 7017 0fd6 87040000 		.4byte	.LASF223
 7018 0fda 12       		.byte	0x12
 7019 0fdb 39       		.byte	0x39
 7020 0fdc 560A0000 		.4byte	0xa56
 7021 0fe0 00       		.byte	0
 7022 0fe1 0E       		.uleb128 0xe
 7023 0fe2 90060000 		.4byte	.LASF224
ARM GAS  /tmp/ccSNToGX.s 			page 125


 7024 0fe6 12       		.byte	0x12
 7025 0fe7 3A       		.byte	0x3a
 7026 0fe8 560A0000 		.4byte	0xa56
 7027 0fec 04       		.byte	0x4
 7028 0fed 0E       		.uleb128 0xe
 7029 0fee 97120000 		.4byte	.LASF225
 7030 0ff2 12       		.byte	0x12
 7031 0ff3 3B       		.byte	0x3b
 7032 0ff4 C20F0000 		.4byte	0xfc2
 7033 0ff8 08       		.byte	0x8
 7034 0ff9 0E       		.uleb128 0xe
 7035 0ffa 32000000 		.4byte	.LASF226
 7036 0ffe 12       		.byte	0x12
 7037 0fff 3D       		.byte	0x3d
 7038 1000 C20F0000 		.4byte	0xfc2
 7039 1004 20       		.byte	0x20
 7040 1005 00       		.byte	0
 7041 1006 03       		.uleb128 0x3
 7042 1007 DA030000 		.4byte	.LASF227
 7043 100b 12       		.byte	0x12
 7044 100c 3F       		.byte	0x3f
 7045 100d CD0F0000 		.4byte	0xfcd
 7046 1011 09       		.uleb128 0x9
 7047 1012 04       		.byte	0x4
 7048 1013 0B       		.byte	0xb
 7049 1014 C6       		.byte	0xc6
 7050 1015 73100000 		.4byte	0x1073
 7051 1019 0A       		.uleb128 0xa
 7052 101a ED080000 		.4byte	.LASF228
 7053 101e 0B       		.byte	0xb
 7054 101f CD       		.byte	0xcd
 7055 1020 350A0000 		.4byte	0xa35
 7056 1024 0A       		.uleb128 0xa
 7057 1025 0E080000 		.4byte	.LASF229
 7058 1029 0B       		.byte	0xb
 7059 102a D4       		.byte	0xd4
 7060 102b 350A0000 		.4byte	0xa35
 7061 102f 0A       		.uleb128 0xa
 7062 1030 A60F0000 		.4byte	.LASF230
 7063 1034 0B       		.byte	0xb
 7064 1035 DB       		.byte	0xdb
 7065 1036 C1010000 		.4byte	0x1c1
 7066 103a 0A       		.uleb128 0xa
 7067 103b 550D0000 		.4byte	.LASF231
 7068 103f 0B       		.byte	0xb
 7069 1040 E2       		.byte	0xe2
 7070 1041 73100000 		.4byte	0x1073
 7071 1045 0A       		.uleb128 0xa
 7072 1046 0B000000 		.4byte	.LASF232
 7073 104a 0B       		.byte	0xb
 7074 104b E7       		.byte	0xe7
 7075 104c 350A0000 		.4byte	0xa35
 7076 1050 0A       		.uleb128 0xa
 7077 1051 82000000 		.4byte	.LASF233
 7078 1055 0B       		.byte	0xb
 7079 1056 F0       		.byte	0xf0
 7080 1057 9E100000 		.4byte	0x109e
ARM GAS  /tmp/ccSNToGX.s 			page 126


 7081 105b 0A       		.uleb128 0xa
 7082 105c CF0F0000 		.4byte	.LASF234
 7083 1060 0B       		.byte	0xb
 7084 1061 F9       		.byte	0xf9
 7085 1062 D5100000 		.4byte	0x10d5
 7086 1066 1E       		.uleb128 0x1e
 7087 1067 D4110000 		.4byte	.LASF235
 7088 106b 0B       		.byte	0xb
 7089 106c 0101     		.2byte	0x101
 7090 106e 400A0000 		.4byte	0xa40
 7091 1072 00       		.byte	0
 7092 1073 06       		.uleb128 0x6
 7093 1074 04       		.byte	0x4
 7094 1075 570B0000 		.4byte	0xb57
 7095 1079 10       		.uleb128 0x10
 7096 107a 580C0000 		.4byte	.LASF236
 7097 107e 0C       		.byte	0xc
 7098 107f 13       		.byte	0x13
 7099 1080 34       		.byte	0x34
 7100 1081 9E100000 		.4byte	0x109e
 7101 1085 0E       		.uleb128 0xe
 7102 1086 07110000 		.4byte	.LASF163
 7103 108a 13       		.byte	0x13
 7104 108b 35       		.byte	0x35
 7105 108c 8C0B0000 		.4byte	0xb8c
 7106 1090 00       		.byte	0
 7107 1091 11       		.uleb128 0x11
 7108 1092 636E7400 		.ascii	"cnt\000"
 7109 1096 13       		.byte	0x13
 7110 1097 37       		.byte	0x37
 7111 1098 4B0A0000 		.4byte	0xa4b
 7112 109c 08       		.byte	0x8
 7113 109d 00       		.byte	0
 7114 109e 06       		.uleb128 0x6
 7115 109f 04       		.byte	0x4
 7116 10a0 79100000 		.4byte	0x1079
 7117 10a4 10       		.uleb128 0x10
 7118 10a5 FC060000 		.4byte	.LASF237
 7119 10a9 10       		.byte	0x10
 7120 10aa 14       		.byte	0x14
 7121 10ab 39       		.byte	0x39
 7122 10ac D5100000 		.4byte	0x10d5
 7123 10b0 0E       		.uleb128 0xe
 7124 10b1 07110000 		.4byte	.LASF163
 7125 10b5 14       		.byte	0x14
 7126 10b6 3A       		.byte	0x3a
 7127 10b7 8C0B0000 		.4byte	0xb8c
 7128 10bb 00       		.byte	0
 7129 10bc 0E       		.uleb128 0xe
 7130 10bd B7070000 		.4byte	.LASF238
 7131 10c1 14       		.byte	0x14
 7132 10c2 3C       		.byte	0x3c
 7133 10c3 620B0000 		.4byte	0xb62
 7134 10c7 08       		.byte	0x8
 7135 10c8 0E       		.uleb128 0xe
 7136 10c9 81020000 		.4byte	.LASF182
 7137 10cd 14       		.byte	0x14
ARM GAS  /tmp/ccSNToGX.s 			page 127


 7138 10ce 3E       		.byte	0x3e
 7139 10cf 2B120000 		.4byte	0x122b
 7140 10d3 0C       		.byte	0xc
 7141 10d4 00       		.byte	0
 7142 10d5 06       		.uleb128 0x6
 7143 10d6 04       		.byte	0x4
 7144 10d7 A4100000 		.4byte	0x10a4
 7145 10db 06       		.uleb128 0x6
 7146 10dc 04       		.byte	0x4
 7147 10dd EA0D0000 		.4byte	0xdea
 7148 10e1 06       		.uleb128 0x6
 7149 10e2 04       		.byte	0x4
 7150 10e3 3F0C0000 		.4byte	0xc3f
 7151 10e7 23       		.uleb128 0x23
 7152 10e8 636800   		.ascii	"ch\000"
 7153 10eb 0B       		.byte	0xb
 7154 10ec C701     		.2byte	0x1c7
 7155 10ee 0C0D0000 		.4byte	0xd0c
 7156 10f2 0B       		.uleb128 0xb
 7157 10f3 EA0D0000 		.4byte	0xdea
 7158 10f7 FD100000 		.4byte	0x10fd
 7159 10fb 24       		.uleb128 0x24
 7160 10fc 00       		.byte	0
 7161 10fd 20       		.uleb128 0x20
 7162 10fe A5070000 		.4byte	.LASF239
 7163 1102 15       		.byte	0x15
 7164 1103 1701     		.2byte	0x117
 7165 1105 F2100000 		.4byte	0x10f2
 7166 1109 0D       		.uleb128 0xd
 7167 110a 16       		.byte	0x16
 7168 110b 16       		.byte	0x16
 7169 110c 34       		.byte	0x34
 7170 110d EA110000 		.4byte	0x11ea
 7171 1111 0E       		.uleb128 0xe
 7172 1112 EF070000 		.4byte	.LASF240
 7173 1116 16       		.byte	0x16
 7174 1117 35       		.byte	0x35
 7175 1118 EA110000 		.4byte	0x11ea
 7176 111c 00       		.byte	0
 7177 111d 0E       		.uleb128 0xe
 7178 111e AF040000 		.4byte	.LASF241
 7179 1122 16       		.byte	0x16
 7180 1123 36       		.byte	0x36
 7181 1124 5A090000 		.4byte	0x95a
 7182 1128 04       		.byte	0x4
 7183 1129 0E       		.uleb128 0xe
 7184 112a 93070000 		.4byte	.LASF242
 7185 112e 16       		.byte	0x16
 7186 112f 37       		.byte	0x37
 7187 1130 5A090000 		.4byte	0x95a
 7188 1134 05       		.byte	0x5
 7189 1135 0E       		.uleb128 0xe
 7190 1136 FC130000 		.4byte	.LASF243
 7191 113a 16       		.byte	0x16
 7192 113b 38       		.byte	0x38
 7193 113c 75090000 		.4byte	0x975
 7194 1140 06       		.byte	0x6
ARM GAS  /tmp/ccSNToGX.s 			page 128


 7195 1141 0E       		.uleb128 0xe
 7196 1142 6F080000 		.4byte	.LASF244
 7197 1146 16       		.byte	0x16
 7198 1147 39       		.byte	0x39
 7199 1148 5A090000 		.4byte	0x95a
 7200 114c 08       		.byte	0x8
 7201 114d 0E       		.uleb128 0xe
 7202 114e 83030000 		.4byte	.LASF245
 7203 1152 16       		.byte	0x16
 7204 1153 3A       		.byte	0x3a
 7205 1154 5A090000 		.4byte	0x95a
 7206 1158 09       		.byte	0x9
 7207 1159 0E       		.uleb128 0xe
 7208 115a A4110000 		.4byte	.LASF246
 7209 115e 16       		.byte	0x16
 7210 115f 3B       		.byte	0x3b
 7211 1160 5A090000 		.4byte	0x95a
 7212 1164 0A       		.byte	0xa
 7213 1165 0E       		.uleb128 0xe
 7214 1166 37090000 		.4byte	.LASF247
 7215 116a 16       		.byte	0x16
 7216 116b 3C       		.byte	0x3c
 7217 116c 5A090000 		.4byte	0x95a
 7218 1170 0B       		.byte	0xb
 7219 1171 0E       		.uleb128 0xe
 7220 1172 7E0B0000 		.4byte	.LASF248
 7221 1176 16       		.byte	0x16
 7222 1177 3D       		.byte	0x3d
 7223 1178 5A090000 		.4byte	0x95a
 7224 117c 0C       		.byte	0xc
 7225 117d 0E       		.uleb128 0xe
 7226 117e E2100000 		.4byte	.LASF249
 7227 1182 16       		.byte	0x16
 7228 1183 3E       		.byte	0x3e
 7229 1184 5A090000 		.4byte	0x95a
 7230 1188 0D       		.byte	0xd
 7231 1189 0E       		.uleb128 0xe
 7232 118a 140E0000 		.4byte	.LASF250
 7233 118e 16       		.byte	0x16
 7234 118f 3F       		.byte	0x3f
 7235 1190 5A090000 		.4byte	0x95a
 7236 1194 0E       		.byte	0xe
 7237 1195 0E       		.uleb128 0xe
 7238 1196 64120000 		.4byte	.LASF251
 7239 119a 16       		.byte	0x16
 7240 119b 40       		.byte	0x40
 7241 119c 5A090000 		.4byte	0x95a
 7242 11a0 0F       		.byte	0xf
 7243 11a1 0E       		.uleb128 0xe
 7244 11a2 960D0000 		.4byte	.LASF252
 7245 11a6 16       		.byte	0x16
 7246 11a7 41       		.byte	0x41
 7247 11a8 5A090000 		.4byte	0x95a
 7248 11ac 10       		.byte	0x10
 7249 11ad 0E       		.uleb128 0xe
 7250 11ae 250F0000 		.4byte	.LASF253
 7251 11b2 16       		.byte	0x16
ARM GAS  /tmp/ccSNToGX.s 			page 129


 7252 11b3 42       		.byte	0x42
 7253 11b4 5A090000 		.4byte	0x95a
 7254 11b8 11       		.byte	0x11
 7255 11b9 0E       		.uleb128 0xe
 7256 11ba 7D0C0000 		.4byte	.LASF254
 7257 11be 16       		.byte	0x16
 7258 11bf 43       		.byte	0x43
 7259 11c0 5A090000 		.4byte	0x95a
 7260 11c4 12       		.byte	0x12
 7261 11c5 0E       		.uleb128 0xe
 7262 11c6 09030000 		.4byte	.LASF255
 7263 11ca 16       		.byte	0x16
 7264 11cb 44       		.byte	0x44
 7265 11cc 5A090000 		.4byte	0x95a
 7266 11d0 13       		.byte	0x13
 7267 11d1 0E       		.uleb128 0xe
 7268 11d2 B70D0000 		.4byte	.LASF256
 7269 11d6 16       		.byte	0x16
 7270 11d7 45       		.byte	0x45
 7271 11d8 5A090000 		.4byte	0x95a
 7272 11dc 14       		.byte	0x14
 7273 11dd 0E       		.uleb128 0xe
 7274 11de 6F0B0000 		.4byte	.LASF257
 7275 11e2 16       		.byte	0x16
 7276 11e3 46       		.byte	0x46
 7277 11e4 5A090000 		.4byte	0x95a
 7278 11e8 15       		.byte	0x15
 7279 11e9 00       		.byte	0
 7280 11ea 0B       		.uleb128 0xb
 7281 11eb D4010000 		.4byte	0x1d4
 7282 11ef FA110000 		.4byte	0x11fa
 7283 11f3 0C       		.uleb128 0xc
 7284 11f4 83010000 		.4byte	0x183
 7285 11f8 03       		.byte	0x3
 7286 11f9 00       		.byte	0
 7287 11fa 03       		.uleb128 0x3
 7288 11fb A60A0000 		.4byte	.LASF258
 7289 11ff 16       		.byte	0x16
 7290 1200 47       		.byte	0x47
 7291 1201 09110000 		.4byte	0x1109
 7292 1205 05       		.uleb128 0x5
 7293 1206 FA110000 		.4byte	0x11fa
 7294 120a 22       		.uleb128 0x22
 7295 120b BA060000 		.4byte	.LASF259
 7296 120f 16       		.byte	0x16
 7297 1210 6C       		.byte	0x6c
 7298 1211 05120000 		.4byte	0x1205
 7299 1215 03       		.uleb128 0x3
 7300 1216 4F130000 		.4byte	.LASF260
 7301 121a 13       		.byte	0x13
 7302 121b 38       		.byte	0x38
 7303 121c 79100000 		.4byte	0x1079
 7304 1220 03       		.uleb128 0x3
 7305 1221 9F100000 		.4byte	.LASF261
 7306 1225 14       		.byte	0x14
 7307 1226 34       		.byte	0x34
 7308 1227 A4100000 		.4byte	0x10a4
ARM GAS  /tmp/ccSNToGX.s 			page 130


 7309 122b 06       		.uleb128 0x6
 7310 122c 04       		.byte	0x4
 7311 122d 20120000 		.4byte	0x1220
 7312 1231 04       		.uleb128 0x4
 7313 1232 01       		.byte	0x1
 7314 1233 02       		.byte	0x2
 7315 1234 89000000 		.4byte	.LASF262
 7316 1238 03       		.uleb128 0x3
 7317 1239 E1000000 		.4byte	.LASF263
 7318 123d 17       		.byte	0x17
 7319 123e 47       		.byte	0x47
 7320 123f 43120000 		.4byte	0x1243
 7321 1243 06       		.uleb128 0x6
 7322 1244 04       		.byte	0x4
 7323 1245 49120000 		.4byte	0x1249
 7324 1249 15       		.uleb128 0x15
 7325 124a C1010000 		.4byte	0x1c1
 7326 124e 5D120000 		.4byte	0x125d
 7327 1252 16       		.uleb128 0x16
 7328 1253 2C000000 		.4byte	0x2c
 7329 1257 16       		.uleb128 0x16
 7330 1258 37000000 		.4byte	0x37
 7331 125c 00       		.byte	0
 7332 125d 0D       		.uleb128 0xd
 7333 125e 08       		.byte	0x8
 7334 125f 17       		.byte	0x17
 7335 1260 51       		.byte	0x51
 7336 1261 7E120000 		.4byte	0x127e
 7337 1265 0E       		.uleb128 0xe
 7338 1266 56110000 		.4byte	.LASF264
 7339 126a 17       		.byte	0x17
 7340 126b 55       		.byte	0x55
 7341 126c 7E120000 		.4byte	0x127e
 7342 1270 00       		.byte	0
 7343 1271 0E       		.uleb128 0xe
 7344 1272 460D0000 		.4byte	.LASF265
 7345 1276 17       		.byte	0x17
 7346 1277 59       		.byte	0x59
 7347 1278 7E120000 		.4byte	0x127e
 7348 127c 04       		.byte	0x4
 7349 127d 00       		.byte	0
 7350 127e 06       		.uleb128 0x6
 7351 127f 04       		.byte	0x4
 7352 1280 5A090000 		.4byte	0x95a
 7353 1284 03       		.uleb128 0x3
 7354 1285 BF080000 		.4byte	.LASF266
 7355 1289 17       		.byte	0x17
 7356 128a 5A       		.byte	0x5a
 7357 128b 5D120000 		.4byte	0x125d
 7358 128f 22       		.uleb128 0x22
 7359 1290 00000000 		.4byte	.LASF267
 7360 1294 17       		.byte	0x17
 7361 1295 65       		.byte	0x65
 7362 1296 84120000 		.4byte	0x1284
 7363 129a 10       		.uleb128 0x10
 7364 129b 39060000 		.4byte	.LASF268
 7365 129f 04       		.byte	0x4
ARM GAS  /tmp/ccSNToGX.s 			page 131


 7366 12a0 18       		.byte	0x18
 7367 12a1 38       		.byte	0x38
 7368 12a2 B3120000 		.4byte	0x12b3
 7369 12a6 0E       		.uleb128 0xe
 7370 12a7 81020000 		.4byte	.LASF182
 7371 12ab 18       		.byte	0x18
 7372 12ac 39       		.byte	0x39
 7373 12ad B3120000 		.4byte	0x12b3
 7374 12b1 00       		.byte	0
 7375 12b2 00       		.byte	0
 7376 12b3 06       		.uleb128 0x6
 7377 12b4 04       		.byte	0x4
 7378 12b5 9A120000 		.4byte	0x129a
 7379 12b9 0D       		.uleb128 0xd
 7380 12ba 10       		.byte	0x10
 7381 12bb 18       		.byte	0x18
 7382 12bc 40       		.byte	0x40
 7383 12bd F2120000 		.4byte	0x12f2
 7384 12c1 0E       		.uleb128 0xe
 7385 12c2 81020000 		.4byte	.LASF182
 7386 12c6 18       		.byte	0x18
 7387 12c7 41       		.byte	0x41
 7388 12c8 B3120000 		.4byte	0x12b3
 7389 12cc 00       		.byte	0
 7390 12cd 0E       		.uleb128 0xe
 7391 12ce 02080000 		.4byte	.LASF269
 7392 12d2 18       		.byte	0x18
 7393 12d3 42       		.byte	0x42
 7394 12d4 2C000000 		.4byte	0x2c
 7395 12d8 04       		.byte	0x4
 7396 12d9 0E       		.uleb128 0xe
 7397 12da CE040000 		.4byte	.LASF270
 7398 12de 18       		.byte	0x18
 7399 12df 44       		.byte	0x44
 7400 12e0 37000000 		.4byte	0x37
 7401 12e4 08       		.byte	0x8
 7402 12e5 0E       		.uleb128 0xe
 7403 12e6 C6000000 		.4byte	.LASF271
 7404 12ea 18       		.byte	0x18
 7405 12eb 45       		.byte	0x45
 7406 12ec 38120000 		.4byte	0x1238
 7407 12f0 0C       		.byte	0xc
 7408 12f1 00       		.byte	0
 7409 12f2 03       		.uleb128 0x3
 7410 12f3 3F140000 		.4byte	.LASF272
 7411 12f7 18       		.byte	0x18
 7412 12f8 47       		.byte	0x47
 7413 12f9 B9120000 		.4byte	0x12b9
 7414 12fd 10       		.uleb128 0x10
 7415 12fe 93020000 		.4byte	.LASF273
 7416 1302 10       		.byte	0x10
 7417 1303 19       		.byte	0x19
 7418 1304 A9       		.byte	0xa9
 7419 1305 2E130000 		.4byte	0x132e
 7420 1309 0E       		.uleb128 0xe
 7421 130a 81020000 		.4byte	.LASF182
 7422 130e 19       		.byte	0x19
ARM GAS  /tmp/ccSNToGX.s 			page 132


 7423 130f AD       		.byte	0xad
 7424 1310 2E130000 		.4byte	0x132e
 7425 1314 00       		.byte	0
 7426 1315 0E       		.uleb128 0xe
 7427 1316 AA030000 		.4byte	.LASF171
 7428 131a 19       		.byte	0x19
 7429 131b B1       		.byte	0xb1
 7430 131c 560A0000 		.4byte	0xa56
 7431 1320 04       		.byte	0x4
 7432 1321 0E       		.uleb128 0xe
 7433 1322 720A0000 		.4byte	.LASF167
 7434 1326 19       		.byte	0x19
 7435 1327 B3       		.byte	0xb3
 7436 1328 63080000 		.4byte	0x863
 7437 132c 08       		.byte	0x8
 7438 132d 00       		.byte	0
 7439 132e 06       		.uleb128 0x6
 7440 132f 04       		.byte	0x4
 7441 1330 FD120000 		.4byte	0x12fd
 7442 1334 03       		.uleb128 0x3
 7443 1335 870C0000 		.4byte	.LASF274
 7444 1339 19       		.byte	0x19
 7445 133a B7       		.byte	0xb7
 7446 133b FD120000 		.4byte	0x12fd
 7447 133f 10       		.uleb128 0x10
 7448 1340 9D040000 		.4byte	.LASF275
 7449 1344 04       		.byte	0x4
 7450 1345 19       		.byte	0x19
 7451 1346 BC       		.byte	0xbc
 7452 1347 58130000 		.4byte	0x1358
 7453 134b 0E       		.uleb128 0xe
 7454 134c 81020000 		.4byte	.LASF182
 7455 1350 19       		.byte	0x19
 7456 1351 BD       		.byte	0xbd
 7457 1352 58130000 		.4byte	0x1358
 7458 1356 00       		.byte	0
 7459 1357 00       		.byte	0
 7460 1358 06       		.uleb128 0x6
 7461 1359 04       		.byte	0x4
 7462 135a 34130000 		.4byte	0x1334
 7463 135e 03       		.uleb128 0x3
 7464 135f 40090000 		.4byte	.LASF276
 7465 1363 19       		.byte	0x19
 7466 1364 BE       		.byte	0xbe
 7467 1365 3F130000 		.4byte	0x133f
 7468 1369 1B       		.uleb128 0x1b
 7469 136a 5A020000 		.4byte	.LASF277
 7470 136e 44       		.byte	0x44
 7471 136f 19       		.byte	0x19
 7472 1370 3E01     		.2byte	0x13e
 7473 1372 DF130000 		.4byte	0x13df
 7474 1376 21       		.uleb128 0x21
 7475 1377 6D747800 		.ascii	"mtx\000"
 7476 137b 19       		.byte	0x19
 7477 137c 4301     		.2byte	0x143
 7478 137e 20120000 		.4byte	0x1220
 7479 1382 00       		.byte	0
ARM GAS  /tmp/ccSNToGX.s 			page 133


 7480 1383 18       		.uleb128 0x18
 7481 1384 60070000 		.4byte	.LASF278
 7482 1388 19       		.byte	0x19
 7483 1389 4A01     		.2byte	0x14a
 7484 138b 5E130000 		.4byte	0x135e
 7485 138f 10       		.byte	0x10
 7486 1390 18       		.uleb128 0x18
 7487 1391 BB0F0000 		.4byte	.LASF279
 7488 1395 19       		.byte	0x19
 7489 1396 4E01     		.2byte	0x14e
 7490 1398 F2120000 		.4byte	0x12f2
 7491 139c 14       		.byte	0x14
 7492 139d 18       		.uleb128 0x18
 7493 139e 7E0D0000 		.4byte	.LASF280
 7494 13a2 19       		.byte	0x19
 7495 13a3 5301     		.2byte	0x153
 7496 13a5 5E130000 		.4byte	0x135e
 7497 13a9 24       		.byte	0x24
 7498 13aa 18       		.uleb128 0x18
 7499 13ab 55120000 		.4byte	.LASF281
 7500 13af 19       		.byte	0x19
 7501 13b0 5901     		.2byte	0x159
 7502 13b2 5E130000 		.4byte	0x135e
 7503 13b6 28       		.byte	0x28
 7504 13b7 18       		.uleb128 0x18
 7505 13b8 72070000 		.4byte	.LASF282
 7506 13bc 19       		.byte	0x19
 7507 13bd 5D01     		.2byte	0x15d
 7508 13bf F2120000 		.4byte	0x12f2
 7509 13c3 2C       		.byte	0x2c
 7510 13c4 18       		.uleb128 0x18
 7511 13c5 D9100000 		.4byte	.LASF283
 7512 13c9 19       		.byte	0x19
 7513 13ca 6301     		.2byte	0x163
 7514 13cc 5E130000 		.4byte	0x135e
 7515 13d0 3C       		.byte	0x3c
 7516 13d1 18       		.uleb128 0x18
 7517 13d2 35080000 		.4byte	.LASF284
 7518 13d6 19       		.byte	0x19
 7519 13d7 6901     		.2byte	0x169
 7520 13d9 5E130000 		.4byte	0x135e
 7521 13dd 40       		.byte	0x40
 7522 13de 00       		.byte	0
 7523 13df 08       		.uleb128 0x8
 7524 13e0 CF000000 		.4byte	.LASF285
 7525 13e4 19       		.byte	0x19
 7526 13e5 7101     		.2byte	0x171
 7527 13e7 69130000 		.4byte	0x1369
 7528 13eb 20       		.uleb128 0x20
 7529 13ec C40F0000 		.4byte	.LASF286
 7530 13f0 19       		.byte	0x19
 7531 13f1 7C01     		.2byte	0x17c
 7532 13f3 DF130000 		.4byte	0x13df
 7533 13f7 03       		.uleb128 0x3
 7534 13f8 150B0000 		.4byte	.LASF287
 7535 13fc 1A       		.byte	0x1a
 7536 13fd 3D       		.byte	0x3d
ARM GAS  /tmp/ccSNToGX.s 			page 134


 7537 13fe D4010000 		.4byte	0x1d4
 7538 1402 03       		.uleb128 0x3
 7539 1403 FC080000 		.4byte	.LASF288
 7540 1407 1A       		.byte	0x1a
 7541 1408 4C       		.byte	0x4c
 7542 1409 E8090000 		.4byte	0x9e8
 7543 140d 25       		.uleb128 0x25
 7544 140e 4C02     		.2byte	0x24c
 7545 1410 1A       		.byte	0x1a
 7546 1411 55       		.byte	0x55
 7547 1412 42150000 		.4byte	0x1542
 7548 1416 0E       		.uleb128 0xe
 7549 1417 8C0F0000 		.4byte	.LASF289
 7550 141b 1A       		.byte	0x1a
 7551 141c 56       		.byte	0x56
 7552 141d BC090000 		.4byte	0x9bc
 7553 1421 00       		.byte	0
 7554 1422 0E       		.uleb128 0xe
 7555 1423 6D090000 		.4byte	.LASF290
 7556 1427 1A       		.byte	0x1a
 7557 1428 57       		.byte	0x57
 7558 1429 BC090000 		.4byte	0x9bc
 7559 142d 01       		.byte	0x1
 7560 142e 0E       		.uleb128 0xe
 7561 142f 040F0000 		.4byte	.LASF291
 7562 1433 1A       		.byte	0x1a
 7563 1434 58       		.byte	0x58
 7564 1435 BC090000 		.4byte	0x9bc
 7565 1439 02       		.byte	0x2
 7566 143a 0E       		.uleb128 0xe
 7567 143b F3100000 		.4byte	.LASF292
 7568 143f 1A       		.byte	0x1a
 7569 1440 59       		.byte	0x59
 7570 1441 BC090000 		.4byte	0x9bc
 7571 1445 03       		.byte	0x3
 7572 1446 0E       		.uleb128 0xe
 7573 1447 AF110000 		.4byte	.LASF293
 7574 144b 1A       		.byte	0x1a
 7575 144c 5A       		.byte	0x5a
 7576 144d BC090000 		.4byte	0x9bc
 7577 1451 04       		.byte	0x4
 7578 1452 11       		.uleb128 0x11
 7579 1453 696400   		.ascii	"id\000"
 7580 1456 1A       		.byte	0x1a
 7581 1457 5B       		.byte	0x5b
 7582 1458 C7090000 		.4byte	0x9c7
 7583 145c 06       		.byte	0x6
 7584 145d 0E       		.uleb128 0xe
 7585 145e E3130000 		.4byte	.LASF294
 7586 1462 1A       		.byte	0x1a
 7587 1463 5C       		.byte	0x5c
 7588 1464 C7090000 		.4byte	0x9c7
 7589 1468 08       		.byte	0x8
 7590 1469 0E       		.uleb128 0xe
 7591 146a B00A0000 		.4byte	.LASF295
 7592 146e 1A       		.byte	0x1a
 7593 146f 5D       		.byte	0x5d
ARM GAS  /tmp/ccSNToGX.s 			page 135


 7594 1470 C7090000 		.4byte	0x9c7
 7595 1474 0A       		.byte	0xa
 7596 1475 0E       		.uleb128 0xe
 7597 1476 14130000 		.4byte	.LASF296
 7598 147a 1A       		.byte	0x1a
 7599 147b 62       		.byte	0x62
 7600 147c 42150000 		.4byte	0x1542
 7601 1480 0C       		.byte	0xc
 7602 1481 0E       		.uleb128 0xe
 7603 1482 240C0000 		.4byte	.LASF297
 7604 1486 1A       		.byte	0x1a
 7605 1487 65       		.byte	0x65
 7606 1488 48150000 		.4byte	0x1548
 7607 148c 10       		.byte	0x10
 7608 148d 0E       		.uleb128 0xe
 7609 148e E20A0000 		.4byte	.LASF298
 7610 1492 1A       		.byte	0x1a
 7611 1493 68       		.byte	0x68
 7612 1494 4E150000 		.4byte	0x154e
 7613 1498 14       		.byte	0x14
 7614 1499 0E       		.uleb128 0xe
 7615 149a 130F0000 		.4byte	.LASF299
 7616 149e 1A       		.byte	0x1a
 7617 149f 6B       		.byte	0x6b
 7618 14a0 DD090000 		.4byte	0x9dd
 7619 14a4 18       		.byte	0x18
 7620 14a5 0E       		.uleb128 0xe
 7621 14a6 020C0000 		.4byte	.LASF300
 7622 14aa 1A       		.byte	0x1a
 7623 14ab 6C       		.byte	0x6c
 7624 14ac DD090000 		.4byte	0x9dd
 7625 14b0 1C       		.byte	0x1c
 7626 14b1 0E       		.uleb128 0xe
 7627 14b2 0F090000 		.4byte	.LASF301
 7628 14b6 1A       		.byte	0x1a
 7629 14b7 6F       		.byte	0x6f
 7630 14b8 DD090000 		.4byte	0x9dd
 7631 14bc 20       		.byte	0x20
 7632 14bd 0E       		.uleb128 0xe
 7633 14be 280A0000 		.4byte	.LASF302
 7634 14c2 1A       		.byte	0x1a
 7635 14c3 71       		.byte	0x71
 7636 14c4 DD090000 		.4byte	0x9dd
 7637 14c8 24       		.byte	0x24
 7638 14c9 0E       		.uleb128 0xe
 7639 14ca 940F0000 		.4byte	.LASF303
 7640 14ce 1A       		.byte	0x1a
 7641 14cf 72       		.byte	0x72
 7642 14d0 DD090000 		.4byte	0x9dd
 7643 14d4 28       		.byte	0x28
 7644 14d5 0E       		.uleb128 0xe
 7645 14d6 AF030000 		.4byte	.LASF304
 7646 14da 1A       		.byte	0x1a
 7647 14db 73       		.byte	0x73
 7648 14dc DD090000 		.4byte	0x9dd
 7649 14e0 2C       		.byte	0x2c
 7650 14e1 0E       		.uleb128 0xe
ARM GAS  /tmp/ccSNToGX.s 			page 136


 7651 14e2 DF060000 		.4byte	.LASF305
 7652 14e6 1A       		.byte	0x1a
 7653 14e7 76       		.byte	0x76
 7654 14e8 DD090000 		.4byte	0x9dd
 7655 14ec 30       		.byte	0x30
 7656 14ed 0E       		.uleb128 0xe
 7657 14ee BA090000 		.4byte	.LASF306
 7658 14f2 1A       		.byte	0x1a
 7659 14f3 77       		.byte	0x77
 7660 14f4 DD090000 		.4byte	0x9dd
 7661 14f8 34       		.byte	0x34
 7662 14f9 0E       		.uleb128 0xe
 7663 14fa 9D070000 		.4byte	.LASF307
 7664 14fe 1A       		.byte	0x1a
 7665 14ff 78       		.byte	0x78
 7666 1500 DD090000 		.4byte	0x9dd
 7667 1504 38       		.byte	0x38
 7668 1505 0E       		.uleb128 0xe
 7669 1506 B2090000 		.4byte	.LASF308
 7670 150a 1A       		.byte	0x1a
 7671 150b 79       		.byte	0x79
 7672 150c DD090000 		.4byte	0x9dd
 7673 1510 3C       		.byte	0x3c
 7674 1511 0E       		.uleb128 0xe
 7675 1512 00010000 		.4byte	.LASF309
 7676 1516 1A       		.byte	0x1a
 7677 1517 7A       		.byte	0x7a
 7678 1518 DD090000 		.4byte	0x9dd
 7679 151c 40       		.byte	0x40
 7680 151d 0E       		.uleb128 0xe
 7681 151e 140D0000 		.4byte	.LASF310
 7682 1522 1A       		.byte	0x1a
 7683 1523 7B       		.byte	0x7b
 7684 1524 DD090000 		.4byte	0x9dd
 7685 1528 44       		.byte	0x44
 7686 1529 0E       		.uleb128 0xe
 7687 152a D00E0000 		.4byte	.LASF311
 7688 152e 1A       		.byte	0x1a
 7689 152f 7C       		.byte	0x7c
 7690 1530 DD090000 		.4byte	0x9dd
 7691 1534 48       		.byte	0x48
 7692 1535 11       		.uleb128 0x11
 7693 1536 77696E00 		.ascii	"win\000"
 7694 153a 1A       		.byte	0x1a
 7695 153b 7D       		.byte	0x7d
 7696 153c 54150000 		.4byte	0x1554
 7697 1540 4C       		.byte	0x4c
 7698 1541 00       		.byte	0
 7699 1542 06       		.uleb128 0x6
 7700 1543 04       		.byte	0x4
 7701 1544 D2090000 		.4byte	0x9d2
 7702 1548 06       		.uleb128 0x6
 7703 1549 04       		.byte	0x4
 7704 154a BC090000 		.4byte	0x9bc
 7705 154e 06       		.uleb128 0x6
 7706 154f 04       		.byte	0x4
 7707 1550 15120000 		.4byte	0x1215
ARM GAS  /tmp/ccSNToGX.s 			page 137


 7708 1554 0B       		.uleb128 0xb
 7709 1555 BC090000 		.4byte	0x9bc
 7710 1559 65150000 		.4byte	0x1565
 7711 155d 26       		.uleb128 0x26
 7712 155e 83010000 		.4byte	0x183
 7713 1562 FF01     		.2byte	0x1ff
 7714 1564 00       		.byte	0
 7715 1565 03       		.uleb128 0x3
 7716 1566 26090000 		.4byte	.LASF312
 7717 156a 1A       		.byte	0x1a
 7718 156b 7E       		.byte	0x7e
 7719 156c 0D140000 		.4byte	0x140d
 7720 1570 0D       		.uleb128 0xd
 7721 1571 30       		.byte	0x30
 7722 1572 1A       		.byte	0x1a
 7723 1573 84       		.byte	0x84
 7724 1574 FB150000 		.4byte	0x15fb
 7725 1578 11       		.uleb128 0x11
 7726 1579 667300   		.ascii	"fs\000"
 7727 157c 1A       		.byte	0x1a
 7728 157d 85       		.byte	0x85
 7729 157e FB150000 		.4byte	0x15fb
 7730 1582 00       		.byte	0
 7731 1583 11       		.uleb128 0x11
 7732 1584 696400   		.ascii	"id\000"
 7733 1587 1A       		.byte	0x1a
 7734 1588 86       		.byte	0x86
 7735 1589 C7090000 		.4byte	0x9c7
 7736 158d 04       		.byte	0x4
 7737 158e 0E       		.uleb128 0xe
 7738 158f 8D040000 		.4byte	.LASF313
 7739 1593 1A       		.byte	0x1a
 7740 1594 87       		.byte	0x87
 7741 1595 BC090000 		.4byte	0x9bc
 7742 1599 06       		.byte	0x6
 7743 159a 0E       		.uleb128 0xe
 7744 159b 7B140000 		.4byte	.LASF314
 7745 159f 1A       		.byte	0x1a
 7746 15a0 88       		.byte	0x88
 7747 15a1 BC090000 		.4byte	0x9bc
 7748 15a5 07       		.byte	0x7
 7749 15a6 0E       		.uleb128 0xe
 7750 15a7 650C0000 		.4byte	.LASF315
 7751 15ab 1A       		.byte	0x1a
 7752 15ac 89       		.byte	0x89
 7753 15ad DD090000 		.4byte	0x9dd
 7754 15b1 08       		.byte	0x8
 7755 15b2 0E       		.uleb128 0xe
 7756 15b3 910E0000 		.4byte	.LASF316
 7757 15b7 1A       		.byte	0x1a
 7758 15b8 8A       		.byte	0x8a
 7759 15b9 02140000 		.4byte	0x1402
 7760 15bd 10       		.byte	0x10
 7761 15be 0E       		.uleb128 0xe
 7762 15bf 280B0000 		.4byte	.LASF317
 7763 15c3 1A       		.byte	0x1a
 7764 15c4 8C       		.byte	0x8c
ARM GAS  /tmp/ccSNToGX.s 			page 138


 7765 15c5 DD090000 		.4byte	0x9dd
 7766 15c9 18       		.byte	0x18
 7767 15ca 0E       		.uleb128 0xe
 7768 15cb 2F010000 		.4byte	.LASF318
 7769 15cf 1A       		.byte	0x1a
 7770 15d0 8D       		.byte	0x8d
 7771 15d1 DD090000 		.4byte	0x9dd
 7772 15d5 1C       		.byte	0x1c
 7773 15d6 0E       		.uleb128 0xe
 7774 15d7 D9090000 		.4byte	.LASF319
 7775 15db 1A       		.byte	0x1a
 7776 15dc 8E       		.byte	0x8e
 7777 15dd DD090000 		.4byte	0x9dd
 7778 15e1 20       		.byte	0x20
 7779 15e2 0E       		.uleb128 0xe
 7780 15e3 B10E0000 		.4byte	.LASF320
 7781 15e7 1A       		.byte	0x1a
 7782 15e8 8F       		.byte	0x8f
 7783 15e9 DD090000 		.4byte	0x9dd
 7784 15ed 24       		.byte	0x24
 7785 15ee 0E       		.uleb128 0xe
 7786 15ef 8C030000 		.4byte	.LASF321
 7787 15f3 1A       		.byte	0x1a
 7788 15f4 90       		.byte	0x90
 7789 15f5 DD090000 		.4byte	0x9dd
 7790 15f9 28       		.byte	0x28
 7791 15fa 00       		.byte	0
 7792 15fb 06       		.uleb128 0x6
 7793 15fc 04       		.byte	0x4
 7794 15fd 65150000 		.4byte	0x1565
 7795 1601 03       		.uleb128 0x3
 7796 1602 69060000 		.4byte	.LASF322
 7797 1606 1A       		.byte	0x1a
 7798 1607 95       		.byte	0x95
 7799 1608 70150000 		.4byte	0x1570
 7800 160c 25       		.uleb128 0x25
 7801 160d 5002     		.2byte	0x250
 7802 160f 1A       		.byte	0x1a
 7803 1610 9B       		.byte	0x9b
 7804 1611 82160000 		.4byte	0x1682
 7805 1615 11       		.uleb128 0x11
 7806 1616 6F626A00 		.ascii	"obj\000"
 7807 161a 1A       		.byte	0x1a
 7808 161b 9C       		.byte	0x9c
 7809 161c 01160000 		.4byte	0x1601
 7810 1620 00       		.byte	0
 7811 1621 0E       		.uleb128 0xe
 7812 1622 A10A0000 		.4byte	.LASF323
 7813 1626 1A       		.byte	0x1a
 7814 1627 9D       		.byte	0x9d
 7815 1628 BC090000 		.4byte	0x9bc
 7816 162c 30       		.byte	0x30
 7817 162d 11       		.uleb128 0x11
 7818 162e 65727200 		.ascii	"err\000"
 7819 1632 1A       		.byte	0x1a
 7820 1633 9E       		.byte	0x9e
 7821 1634 BC090000 		.4byte	0x9bc
ARM GAS  /tmp/ccSNToGX.s 			page 139


 7822 1638 31       		.byte	0x31
 7823 1639 0E       		.uleb128 0xe
 7824 163a 61000000 		.4byte	.LASF324
 7825 163e 1A       		.byte	0x1a
 7826 163f 9F       		.byte	0x9f
 7827 1640 02140000 		.4byte	0x1402
 7828 1644 38       		.byte	0x38
 7829 1645 0E       		.uleb128 0xe
 7830 1646 92040000 		.4byte	.LASF325
 7831 164a 1A       		.byte	0x1a
 7832 164b A0       		.byte	0xa0
 7833 164c DD090000 		.4byte	0x9dd
 7834 1650 40       		.byte	0x40
 7835 1651 0E       		.uleb128 0xe
 7836 1652 C9110000 		.4byte	.LASF326
 7837 1656 1A       		.byte	0x1a
 7838 1657 A1       		.byte	0xa1
 7839 1658 DD090000 		.4byte	0x9dd
 7840 165c 44       		.byte	0x44
 7841 165d 0E       		.uleb128 0xe
 7842 165e C30C0000 		.4byte	.LASF327
 7843 1662 1A       		.byte	0x1a
 7844 1663 A3       		.byte	0xa3
 7845 1664 DD090000 		.4byte	0x9dd
 7846 1668 48       		.byte	0x48
 7847 1669 0E       		.uleb128 0xe
 7848 166a 70040000 		.4byte	.LASF328
 7849 166e 1A       		.byte	0x1a
 7850 166f A4       		.byte	0xa4
 7851 1670 48150000 		.4byte	0x1548
 7852 1674 4C       		.byte	0x4c
 7853 1675 11       		.uleb128 0x11
 7854 1676 62756600 		.ascii	"buf\000"
 7855 167a 1A       		.byte	0x1a
 7856 167b AA       		.byte	0xaa
 7857 167c 54150000 		.4byte	0x1554
 7858 1680 50       		.byte	0x50
 7859 1681 00       		.byte	0
 7860 1682 27       		.uleb128 0x27
 7861 1683 46494C00 		.ascii	"FIL\000"
 7862 1687 1A       		.byte	0x1a
 7863 1688 AC       		.byte	0xac
 7864 1689 0C160000 		.4byte	0x160c
 7865 168d 0D       		.uleb128 0xd
 7866 168e 50       		.byte	0x50
 7867 168f 1A       		.byte	0x1a
 7868 1690 B2       		.byte	0xb2
 7869 1691 E9160000 		.4byte	0x16e9
 7870 1695 11       		.uleb128 0x11
 7871 1696 6F626A00 		.ascii	"obj\000"
 7872 169a 1A       		.byte	0x1a
 7873 169b B3       		.byte	0xb3
 7874 169c 01160000 		.4byte	0x1601
 7875 16a0 00       		.byte	0
 7876 16a1 0E       		.uleb128 0xe
 7877 16a2 ED050000 		.4byte	.LASF329
 7878 16a6 1A       		.byte	0x1a
ARM GAS  /tmp/ccSNToGX.s 			page 140


 7879 16a7 B4       		.byte	0xb4
 7880 16a8 DD090000 		.4byte	0x9dd
 7881 16ac 30       		.byte	0x30
 7882 16ad 0E       		.uleb128 0xe
 7883 16ae 92040000 		.4byte	.LASF325
 7884 16b2 1A       		.byte	0x1a
 7885 16b3 B5       		.byte	0xb5
 7886 16b4 DD090000 		.4byte	0x9dd
 7887 16b8 34       		.byte	0x34
 7888 16b9 0E       		.uleb128 0xe
 7889 16ba C9110000 		.4byte	.LASF326
 7890 16be 1A       		.byte	0x1a
 7891 16bf B6       		.byte	0xb6
 7892 16c0 DD090000 		.4byte	0x9dd
 7893 16c4 38       		.byte	0x38
 7894 16c5 11       		.uleb128 0x11
 7895 16c6 64697200 		.ascii	"dir\000"
 7896 16ca 1A       		.byte	0x1a
 7897 16cb B7       		.byte	0xb7
 7898 16cc 48150000 		.4byte	0x1548
 7899 16d0 3C       		.byte	0x3c
 7900 16d1 11       		.uleb128 0x11
 7901 16d2 666E00   		.ascii	"fn\000"
 7902 16d5 1A       		.byte	0x1a
 7903 16d6 B8       		.byte	0xb8
 7904 16d7 E9160000 		.4byte	0x16e9
 7905 16db 40       		.byte	0x40
 7906 16dc 0E       		.uleb128 0xe
 7907 16dd 4D0D0000 		.4byte	.LASF330
 7908 16e1 1A       		.byte	0x1a
 7909 16e2 BA       		.byte	0xba
 7910 16e3 DD090000 		.4byte	0x9dd
 7911 16e7 4C       		.byte	0x4c
 7912 16e8 00       		.byte	0
 7913 16e9 0B       		.uleb128 0xb
 7914 16ea BC090000 		.4byte	0x9bc
 7915 16ee F9160000 		.4byte	0x16f9
 7916 16f2 0C       		.uleb128 0xc
 7917 16f3 83010000 		.4byte	0x183
 7918 16f7 0B       		.byte	0xb
 7919 16f8 00       		.byte	0
 7920 16f9 27       		.uleb128 0x27
 7921 16fa 44495200 		.ascii	"DIR\000"
 7922 16fe 1A       		.byte	0x1a
 7923 16ff BF       		.byte	0xbf
 7924 1700 8D160000 		.4byte	0x168d
 7925 1704 25       		.uleb128 0x25
 7926 1705 2001     		.2byte	0x120
 7927 1707 1A       		.byte	0x1a
 7928 1708 C5       		.byte	0xc5
 7929 1709 56170000 		.4byte	0x1756
 7930 170d 0E       		.uleb128 0xe
 7931 170e BA090000 		.4byte	.LASF306
 7932 1712 1A       		.byte	0x1a
 7933 1713 C6       		.byte	0xc6
 7934 1714 02140000 		.4byte	0x1402
 7935 1718 00       		.byte	0
ARM GAS  /tmp/ccSNToGX.s 			page 141


 7936 1719 0E       		.uleb128 0xe
 7937 171a BD070000 		.4byte	.LASF331
 7938 171e 1A       		.byte	0x1a
 7939 171f C7       		.byte	0xc7
 7940 1720 C7090000 		.4byte	0x9c7
 7941 1724 08       		.byte	0x8
 7942 1725 0E       		.uleb128 0xe
 7943 1726 E50E0000 		.4byte	.LASF332
 7944 172a 1A       		.byte	0x1a
 7945 172b C8       		.byte	0xc8
 7946 172c C7090000 		.4byte	0x9c7
 7947 1730 0A       		.byte	0xa
 7948 1731 0E       		.uleb128 0xe
 7949 1732 ED0C0000 		.4byte	.LASF333
 7950 1736 1A       		.byte	0x1a
 7951 1737 C9       		.byte	0xc9
 7952 1738 BC090000 		.4byte	0x9bc
 7953 173c 0C       		.byte	0xc
 7954 173d 0E       		.uleb128 0xe
 7955 173e 61050000 		.4byte	.LASF334
 7956 1742 1A       		.byte	0x1a
 7957 1743 CB       		.byte	0xcb
 7958 1744 56170000 		.4byte	0x1756
 7959 1748 0D       		.byte	0xd
 7960 1749 0E       		.uleb128 0xe
 7961 174a 1A010000 		.4byte	.LASF335
 7962 174e 1A       		.byte	0x1a
 7963 174f CC       		.byte	0xcc
 7964 1750 66170000 		.4byte	0x1766
 7965 1754 1A       		.byte	0x1a
 7966 1755 00       		.byte	0
 7967 1756 0B       		.uleb128 0xb
 7968 1757 F7130000 		.4byte	0x13f7
 7969 175b 66170000 		.4byte	0x1766
 7970 175f 0C       		.uleb128 0xc
 7971 1760 83010000 		.4byte	0x183
 7972 1764 0C       		.byte	0xc
 7973 1765 00       		.byte	0
 7974 1766 0B       		.uleb128 0xb
 7975 1767 F7130000 		.4byte	0x13f7
 7976 176b 76170000 		.4byte	0x1776
 7977 176f 0C       		.uleb128 0xc
 7978 1770 83010000 		.4byte	0x183
 7979 1774 FF       		.byte	0xff
 7980 1775 00       		.byte	0
 7981 1776 03       		.uleb128 0x3
 7982 1777 91090000 		.4byte	.LASF336
 7983 177b 1A       		.byte	0x1a
 7984 177c D0       		.byte	0xd0
 7985 177d 04170000 		.4byte	0x1704
 7986 1781 28       		.uleb128 0x28
 7987 1782 01       		.byte	0x1
 7988 1783 63000000 		.4byte	0x63
 7989 1787 1A       		.byte	0x1a
 7990 1788 D6       		.byte	0xd6
 7991 1789 06180000 		.4byte	0x1806
 7992 178d 29       		.uleb128 0x29
ARM GAS  /tmp/ccSNToGX.s 			page 142


 7993 178e 32110000 		.4byte	.LASF337
 7994 1792 00       		.byte	0
 7995 1793 29       		.uleb128 0x29
 7996 1794 CA050000 		.4byte	.LASF338
 7997 1798 01       		.byte	0x1
 7998 1799 29       		.uleb128 0x29
 7999 179a 0A0B0000 		.4byte	.LASF339
 8000 179e 02       		.byte	0x2
 8001 179f 29       		.uleb128 0x29
 8002 17a0 97110000 		.4byte	.LASF340
 8003 17a4 03       		.byte	0x3
 8004 17a5 29       		.uleb128 0x29
 8005 17a6 760E0000 		.4byte	.LASF341
 8006 17aa 04       		.byte	0x4
 8007 17ab 29       		.uleb128 0x29
 8008 17ac 30120000 		.4byte	.LASF342
 8009 17b0 05       		.byte	0x5
 8010 17b1 29       		.uleb128 0x29
 8011 17b2 77060000 		.4byte	.LASF343
 8012 17b6 06       		.byte	0x6
 8013 17b7 29       		.uleb128 0x29
 8014 17b8 AD140000 		.4byte	.LASF344
 8015 17bc 07       		.byte	0x7
 8016 17bd 29       		.uleb128 0x29
 8017 17be 96100000 		.4byte	.LASF345
 8018 17c2 08       		.byte	0x8
 8019 17c3 29       		.uleb128 0x29
 8020 17c4 0A070000 		.4byte	.LASF346
 8021 17c8 09       		.byte	0x9
 8022 17c9 29       		.uleb128 0x29
 8023 17ca C20B0000 		.4byte	.LASF347
 8024 17ce 0A       		.byte	0xa
 8025 17cf 29       		.uleb128 0x29
 8026 17d0 C6120000 		.4byte	.LASF348
 8027 17d4 0B       		.byte	0xb
 8028 17d5 29       		.uleb128 0x29
 8029 17d6 BC100000 		.4byte	.LASF349
 8030 17da 0C       		.byte	0xc
 8031 17db 29       		.uleb128 0x29
 8032 17dc 770A0000 		.4byte	.LASF350
 8033 17e0 0D       		.byte	0xd
 8034 17e1 29       		.uleb128 0x29
 8035 17e2 AE000000 		.4byte	.LASF351
 8036 17e6 0E       		.byte	0xe
 8037 17e7 29       		.uleb128 0x29
 8038 17e8 93050000 		.4byte	.LASF352
 8039 17ec 0F       		.byte	0xf
 8040 17ed 29       		.uleb128 0x29
 8041 17ee 1E050000 		.4byte	.LASF353
 8042 17f2 10       		.byte	0x10
 8043 17f3 29       		.uleb128 0x29
 8044 17f4 D0130000 		.4byte	.LASF354
 8045 17f8 11       		.byte	0x11
 8046 17f9 29       		.uleb128 0x29
 8047 17fa 44000000 		.4byte	.LASF355
 8048 17fe 12       		.byte	0x12
 8049 17ff 29       		.uleb128 0x29
ARM GAS  /tmp/ccSNToGX.s 			page 143


 8050 1800 B9020000 		.4byte	.LASF356
 8051 1804 13       		.byte	0x13
 8052 1805 00       		.byte	0
 8053 1806 03       		.uleb128 0x3
 8054 1807 8F000000 		.4byte	.LASF357
 8055 180b 1A       		.byte	0x1a
 8056 180c EB       		.byte	0xeb
 8057 180d 81170000 		.4byte	0x1781
 8058 1811 03       		.uleb128 0x3
 8059 1812 75050000 		.4byte	.LASF358
 8060 1816 1B       		.byte	0x1b
 8061 1817 28       		.byte	0x28
 8062 1818 1C180000 		.4byte	0x181c
 8063 181c 10       		.uleb128 0x10
 8064 181d 71140000 		.4byte	.LASF359
 8065 1821 04       		.byte	0x4
 8066 1822 1C       		.byte	0x1c
 8067 1823 00       		.byte	0
 8068 1824 33180000 		.4byte	0x1833
 8069 1828 2A       		.uleb128 0x2a
 8070 1829 46120000 		.4byte	.LASF360
 8071 182d C1010000 		.4byte	0x1c1
 8072 1831 00       		.byte	0
 8073 1832 00       		.byte	0
 8074 1833 03       		.uleb128 0x3
 8075 1834 49070000 		.4byte	.LASF361
 8076 1838 1B       		.byte	0x1b
 8077 1839 63       		.byte	0x63
 8078 183a 11180000 		.4byte	0x1811
 8079 183e 03       		.uleb128 0x3
 8080 183f 6D020000 		.4byte	.LASF362
 8081 1843 1D       		.byte	0x1d
 8082 1844 28       		.byte	0x28
 8083 1845 99000000 		.4byte	0x99
 8084 1849 03       		.uleb128 0x3
 8085 184a 5E120000 		.4byte	.LASF363
 8086 184e 1E       		.byte	0x1e
 8087 184f 9B       		.byte	0x9b
 8088 1850 11010000 		.4byte	0x111
 8089 1854 03       		.uleb128 0x3
 8090 1855 71060000 		.4byte	.LASF364
 8091 1859 1E       		.byte	0x1e
 8092 185a AD       		.byte	0xad
 8093 185b 27010000 		.4byte	0x127
 8094 185f 03       		.uleb128 0x3
 8095 1860 91120000 		.4byte	.LASF365
 8096 1864 1E       		.byte	0x1e
 8097 1865 B1       		.byte	0xb1
 8098 1866 F0000000 		.4byte	0xf0
 8099 186a 03       		.uleb128 0x3
 8100 186b 67110000 		.4byte	.LASF366
 8101 186f 1E       		.byte	0x1e
 8102 1870 B5       		.byte	0xb5
 8103 1871 FB000000 		.4byte	0xfb
 8104 1875 03       		.uleb128 0x3
 8105 1876 5B000000 		.4byte	.LASF367
 8106 187a 1E       		.byte	0x1e
ARM GAS  /tmp/ccSNToGX.s 			page 144


 8107 187b B9       		.byte	0xb9
 8108 187c 06010000 		.4byte	0x106
 8109 1880 03       		.uleb128 0x3
 8110 1881 27100000 		.4byte	.LASF368
 8111 1885 1E       		.byte	0x1e
 8112 1886 C8       		.byte	0xc8
 8113 1887 3D010000 		.4byte	0x13d
 8114 188b 03       		.uleb128 0x3
 8115 188c 0D110000 		.4byte	.LASF369
 8116 1890 1E       		.byte	0x1e
 8117 1891 CD       		.byte	0xcd
 8118 1892 1C010000 		.4byte	0x11c
 8119 1896 03       		.uleb128 0x3
 8120 1897 0B0F0000 		.4byte	.LASF370
 8121 189b 1E       		.byte	0x1e
 8122 189c D2       		.byte	0xd2
 8123 189d C3010000 		.4byte	0x1c3
 8124 18a1 2B       		.uleb128 0x2b
 8125 18a2 746D00   		.ascii	"tm\000"
 8126 18a5 24       		.byte	0x24
 8127 18a6 1F       		.byte	0x1f
 8128 18a7 25       		.byte	0x25
 8129 18a8 19190000 		.4byte	0x1919
 8130 18ac 0E       		.uleb128 0xe
 8131 18ad 3D000000 		.4byte	.LASF371
 8132 18b1 1F       		.byte	0x1f
 8133 18b2 27       		.byte	0x27
 8134 18b3 25000000 		.4byte	0x25
 8135 18b7 00       		.byte	0
 8136 18b8 0E       		.uleb128 0xe
 8137 18b9 880A0000 		.4byte	.LASF372
 8138 18bd 1F       		.byte	0x1f
 8139 18be 28       		.byte	0x28
 8140 18bf 25000000 		.4byte	0x25
 8141 18c3 04       		.byte	0x4
 8142 18c4 0E       		.uleb128 0xe
 8143 18c5 C00E0000 		.4byte	.LASF373
 8144 18c9 1F       		.byte	0x1f
 8145 18ca 29       		.byte	0x29
 8146 18cb 25000000 		.4byte	0x25
 8147 18cf 08       		.byte	0x8
 8148 18d0 0E       		.uleb128 0xe
 8149 18d1 1D0F0000 		.4byte	.LASF374
 8150 18d5 1F       		.byte	0x1f
 8151 18d6 2A       		.byte	0x2a
 8152 18d7 25000000 		.4byte	0x25
 8153 18db 0C       		.byte	0xc
 8154 18dc 0E       		.uleb128 0xe
 8155 18dd 9B0C0000 		.4byte	.LASF375
 8156 18e1 1F       		.byte	0x1f
 8157 18e2 2B       		.byte	0x2b
 8158 18e3 25000000 		.4byte	0x25
 8159 18e7 10       		.byte	0x10
 8160 18e8 0E       		.uleb128 0xe
 8161 18e9 1D0D0000 		.4byte	.LASF376
 8162 18ed 1F       		.byte	0x1f
 8163 18ee 2C       		.byte	0x2c
ARM GAS  /tmp/ccSNToGX.s 			page 145


 8164 18ef 25000000 		.4byte	0x25
 8165 18f3 14       		.byte	0x14
 8166 18f4 0E       		.uleb128 0xe
 8167 18f5 990B0000 		.4byte	.LASF377
 8168 18f9 1F       		.byte	0x1f
 8169 18fa 2D       		.byte	0x2d
 8170 18fb 25000000 		.4byte	0x25
 8171 18ff 18       		.byte	0x18
 8172 1900 0E       		.uleb128 0xe
 8173 1901 E70A0000 		.4byte	.LASF378
 8174 1905 1F       		.byte	0x1f
 8175 1906 2E       		.byte	0x2e
 8176 1907 25000000 		.4byte	0x25
 8177 190b 1C       		.byte	0x1c
 8178 190c 0E       		.uleb128 0xe
 8179 190d FB020000 		.4byte	.LASF379
 8180 1911 1F       		.byte	0x1f
 8181 1912 2F       		.byte	0x2f
 8182 1913 25000000 		.4byte	0x25
 8183 1917 20       		.byte	0x20
 8184 1918 00       		.byte	0
 8185 1919 05       		.uleb128 0x5
 8186 191a A1180000 		.4byte	0x18a1
 8187 191e 22       		.uleb128 0x22
 8188 191f 14110000 		.4byte	.LASF380
 8189 1923 1F       		.byte	0x1f
 8190 1924 9A       		.byte	0x9a
 8191 1925 99000000 		.4byte	0x99
 8192 1929 22       		.uleb128 0x22
 8193 192a E9030000 		.4byte	.LASF381
 8194 192e 1F       		.byte	0x1f
 8195 192f 9B       		.byte	0x9b
 8196 1930 25000000 		.4byte	0x25
 8197 1934 0B       		.uleb128 0xb
 8198 1935 CE010000 		.4byte	0x1ce
 8199 1939 44190000 		.4byte	0x1944
 8200 193d 0C       		.uleb128 0xc
 8201 193e 83010000 		.4byte	0x183
 8202 1942 01       		.byte	0x1
 8203 1943 00       		.byte	0
 8204 1944 22       		.uleb128 0x22
 8205 1945 7A090000 		.4byte	.LASF382
 8206 1949 1F       		.byte	0x1f
 8207 194a 9E       		.byte	0x9e
 8208 194b 34190000 		.4byte	0x1934
 8209 194f 0B       		.uleb128 0xb
 8210 1950 57060000 		.4byte	0x657
 8211 1954 5A190000 		.4byte	0x195a
 8212 1958 24       		.uleb128 0x24
 8213 1959 00       		.byte	0
 8214 195a 05       		.uleb128 0x5
 8215 195b 4F190000 		.4byte	0x194f
 8216 195f 22       		.uleb128 0x22
 8217 1960 1F000000 		.4byte	.LASF383
 8218 1964 20       		.byte	0x20
 8219 1965 14       		.byte	0x14
 8220 1966 5A190000 		.4byte	0x195a
ARM GAS  /tmp/ccSNToGX.s 			page 146


 8221 196a 22       		.uleb128 0x22
 8222 196b 4B120000 		.4byte	.LASF384
 8223 196f 20       		.byte	0x20
 8224 1970 15       		.byte	0x15
 8225 1971 25000000 		.4byte	0x25
 8226 1975 10       		.uleb128 0x10
 8227 1976 7B140000 		.4byte	.LASF314
 8228 197a 28       		.byte	0x28
 8229 197b 21       		.byte	0x21
 8230 197c 33       		.byte	0x33
 8231 197d 1E1A0000 		.4byte	0x1a1e
 8232 1981 0E       		.uleb128 0xe
 8233 1982 20100000 		.4byte	.LASF385
 8234 1986 21       		.byte	0x21
 8235 1987 35       		.byte	0x35
 8236 1988 5F180000 		.4byte	0x185f
 8237 198c 00       		.byte	0
 8238 198d 0E       		.uleb128 0xe
 8239 198e A9080000 		.4byte	.LASF386
 8240 1992 21       		.byte	0x21
 8241 1993 36       		.byte	0x36
 8242 1994 49180000 		.4byte	0x1849
 8243 1998 02       		.byte	0x2
 8244 1999 0E       		.uleb128 0xe
 8245 199a B0080000 		.4byte	.LASF387
 8246 199e 21       		.byte	0x21
 8247 199f 37       		.byte	0x37
 8248 19a0 8B180000 		.4byte	0x188b
 8249 19a4 04       		.byte	0x4
 8250 19a5 0E       		.uleb128 0xe
 8251 19a6 BF030000 		.4byte	.LASF388
 8252 19aa 21       		.byte	0x21
 8253 19ab 38       		.byte	0x38
 8254 19ac 96180000 		.4byte	0x1896
 8255 19b0 08       		.byte	0x8
 8256 19b1 0E       		.uleb128 0xe
 8257 19b2 450A0000 		.4byte	.LASF389
 8258 19b6 21       		.byte	0x21
 8259 19b7 39       		.byte	0x39
 8260 19b8 6A180000 		.4byte	0x186a
 8261 19bc 0A       		.byte	0xa
 8262 19bd 0E       		.uleb128 0xe
 8263 19be 92030000 		.4byte	.LASF390
 8264 19c2 21       		.byte	0x21
 8265 19c3 3A       		.byte	0x3a
 8266 19c4 75180000 		.4byte	0x1875
 8267 19c8 0C       		.byte	0xc
 8268 19c9 0E       		.uleb128 0xe
 8269 19ca 0D0A0000 		.4byte	.LASF391
 8270 19ce 21       		.byte	0x21
 8271 19cf 3B       		.byte	0x3b
 8272 19d0 5F180000 		.4byte	0x185f
 8273 19d4 0E       		.byte	0xe
 8274 19d5 0E       		.uleb128 0xe
 8275 19d6 E9020000 		.4byte	.LASF392
 8276 19da 21       		.byte	0x21
 8277 19db 3C       		.byte	0x3c
ARM GAS  /tmp/ccSNToGX.s 			page 147


 8278 19dc 54180000 		.4byte	0x1854
 8279 19e0 10       		.byte	0x10
 8280 19e1 0E       		.uleb128 0xe
 8281 19e2 44030000 		.4byte	.LASF393
 8282 19e6 21       		.byte	0x21
 8283 19e7 3D       		.byte	0x3d
 8284 19e8 90090000 		.4byte	0x990
 8285 19ec 14       		.byte	0x14
 8286 19ed 0E       		.uleb128 0xe
 8287 19ee 8D110000 		.4byte	.LASF394
 8288 19f2 21       		.byte	0x21
 8289 19f3 3E       		.byte	0x3e
 8290 19f4 90090000 		.4byte	0x990
 8291 19f8 18       		.byte	0x18
 8292 19f9 0E       		.uleb128 0xe
 8293 19fa 03130000 		.4byte	.LASF395
 8294 19fe 21       		.byte	0x21
 8295 19ff 3F       		.byte	0x3f
 8296 1a00 3E180000 		.4byte	0x183e
 8297 1a04 1C       		.byte	0x1c
 8298 1a05 0E       		.uleb128 0xe
 8299 1a06 0B0E0000 		.4byte	.LASF396
 8300 1a0a 21       		.byte	0x21
 8301 1a0b 40       		.byte	0x40
 8302 1a0c 3E180000 		.4byte	0x183e
 8303 1a10 20       		.byte	0x20
 8304 1a11 0E       		.uleb128 0xe
 8305 1a12 4E0B0000 		.4byte	.LASF397
 8306 1a16 21       		.byte	0x21
 8307 1a17 41       		.byte	0x41
 8308 1a18 3E180000 		.4byte	0x183e
 8309 1a1c 24       		.byte	0x24
 8310 1a1d 00       		.byte	0
 8311 1a1e 10       		.uleb128 0x10
 8312 1a1f 14090000 		.4byte	.LASF398
 8313 1a23 08       		.byte	0x8
 8314 1a24 21       		.byte	0x21
 8315 1a25 46       		.byte	0x46
 8316 1a26 431A0000 		.4byte	0x1a43
 8317 1a2a 0E       		.uleb128 0xe
 8318 1a2b F9100000 		.4byte	.LASF399
 8319 1a2f 21       		.byte	0x21
 8320 1a30 48       		.byte	0x48
 8321 1a31 3E180000 		.4byte	0x183e
 8322 1a35 00       		.byte	0
 8323 1a36 0E       		.uleb128 0xe
 8324 1a37 61060000 		.4byte	.LASF400
 8325 1a3b 21       		.byte	0x21
 8326 1a3c 49       		.byte	0x49
 8327 1a3d 3E180000 		.4byte	0x183e
 8328 1a41 04       		.byte	0x4
 8329 1a42 00       		.byte	0
 8330 1a43 05       		.uleb128 0x5
 8331 1a44 1E1A0000 		.4byte	0x1a1e
 8332 1a48 10       		.uleb128 0x10
 8333 1a49 EA0F0000 		.4byte	.LASF401
 8334 1a4d FF       		.byte	0xff
ARM GAS  /tmp/ccSNToGX.s 			page 148


 8335 1a4e 21       		.byte	0x21
 8336 1a4f 52       		.byte	0x52
 8337 1a50 611A0000 		.4byte	0x1a61
 8338 1a54 0E       		.uleb128 0xe
 8339 1a55 EF060000 		.4byte	.LASF402
 8340 1a59 21       		.byte	0x21
 8341 1a5a 5A       		.byte	0x5a
 8342 1a5b 611A0000 		.4byte	0x1a61
 8343 1a5f 00       		.byte	0
 8344 1a60 00       		.byte	0
 8345 1a61 0B       		.uleb128 0xb
 8346 1a62 D4010000 		.4byte	0x1d4
 8347 1a66 711A0000 		.4byte	0x1a71
 8348 1a6a 0C       		.uleb128 0xc
 8349 1a6b 83010000 		.4byte	0x183
 8350 1a6f FE       		.byte	0xfe
 8351 1a70 00       		.byte	0
 8352 1a71 03       		.uleb128 0x3
 8353 1a72 DF120000 		.4byte	.LASF403
 8354 1a76 21       		.byte	0x21
 8355 1a77 5D       		.byte	0x5d
 8356 1a78 481A0000 		.4byte	0x1a48
 8357 1a7c 10       		.uleb128 0x10
 8358 1a7d 1E110000 		.4byte	.LASF404
 8359 1a81 1C       		.byte	0x1c
 8360 1a82 21       		.byte	0x21
 8361 1a83 65       		.byte	0x65
 8362 1a84 E91A0000 		.4byte	0x1ae9
 8363 1a88 11       		.uleb128 0x11
 8364 1a89 62756600 		.ascii	"buf\000"
 8365 1a8d 21       		.byte	0x21
 8366 1a8e 66       		.byte	0x66
 8367 1a8f CE010000 		.4byte	0x1ce
 8368 1a93 00       		.byte	0
 8369 1a94 0E       		.uleb128 0xe
 8370 1a95 900D0000 		.4byte	.LASF405
 8371 1a99 21       		.byte	0x21
 8372 1a9a 67       		.byte	0x67
 8373 1a9b 63000000 		.4byte	0x63
 8374 1a9f 04       		.byte	0x4
 8375 1aa0 0E       		.uleb128 0xe
 8376 1aa1 91140000 		.4byte	.LASF170
 8377 1aa5 21       		.byte	0x21
 8378 1aa6 68       		.byte	0x68
 8379 1aa7 5A090000 		.4byte	0x95a
 8380 1aab 05       		.byte	0x5
 8381 1aac 0E       		.uleb128 0xe
 8382 1aad 93070000 		.4byte	.LASF242
 8383 1ab1 21       		.byte	0x21
 8384 1ab2 78       		.byte	0x78
 8385 1ab3 25000000 		.4byte	0x25
 8386 1ab7 08       		.byte	0x8
 8387 1ab8 11       		.uleb128 0x11
 8388 1ab9 6C656E00 		.ascii	"len\000"
 8389 1abd 21       		.byte	0x21
 8390 1abe 79       		.byte	0x79
 8391 1abf 25000000 		.4byte	0x25
ARM GAS  /tmp/ccSNToGX.s 			page 149


 8392 1ac3 0C       		.byte	0xc
 8393 1ac4 11       		.uleb128 0x11
 8394 1ac5 70757400 		.ascii	"put\000"
 8395 1ac9 21       		.byte	0x21
 8396 1aca 7A       		.byte	0x7a
 8397 1acb 031B0000 		.4byte	0x1b03
 8398 1acf 10       		.byte	0x10
 8399 1ad0 11       		.uleb128 0x11
 8400 1ad1 67657400 		.ascii	"get\000"
 8401 1ad5 21       		.byte	0x21
 8402 1ad6 7B       		.byte	0x7b
 8403 1ad7 181B0000 		.4byte	0x1b18
 8404 1adb 14       		.byte	0x14
 8405 1adc 0E       		.uleb128 0xe
 8406 1add 300A0000 		.4byte	.LASF406
 8407 1ae1 21       		.byte	0x21
 8408 1ae2 7D       		.byte	0x7d
 8409 1ae3 C1010000 		.4byte	0x1c1
 8410 1ae7 18       		.byte	0x18
 8411 1ae8 00       		.byte	0
 8412 1ae9 15       		.uleb128 0x15
 8413 1aea 25000000 		.4byte	0x25
 8414 1aee FD1A0000 		.4byte	0x1afd
 8415 1af2 16       		.uleb128 0x16
 8416 1af3 D4010000 		.4byte	0x1d4
 8417 1af7 16       		.uleb128 0x16
 8418 1af8 FD1A0000 		.4byte	0x1afd
 8419 1afc 00       		.byte	0
 8420 1afd 06       		.uleb128 0x6
 8421 1afe 04       		.byte	0x4
 8422 1aff 7C1A0000 		.4byte	0x1a7c
 8423 1b03 06       		.uleb128 0x6
 8424 1b04 04       		.byte	0x4
 8425 1b05 E91A0000 		.4byte	0x1ae9
 8426 1b09 15       		.uleb128 0x15
 8427 1b0a 25000000 		.4byte	0x25
 8428 1b0e 181B0000 		.4byte	0x1b18
 8429 1b12 16       		.uleb128 0x16
 8430 1b13 FD1A0000 		.4byte	0x1afd
 8431 1b17 00       		.byte	0
 8432 1b18 06       		.uleb128 0x6
 8433 1b19 04       		.byte	0x4
 8434 1b1a 091B0000 		.4byte	0x1b09
 8435 1b1e 03       		.uleb128 0x3
 8436 1b1f 98070000 		.4byte	.LASF407
 8437 1b23 21       		.byte	0x21
 8438 1b24 CA       		.byte	0xca
 8439 1b25 7C1A0000 		.4byte	0x1a7c
 8440 1b29 0B       		.uleb128 0xb
 8441 1b2a 391B0000 		.4byte	0x1b39
 8442 1b2e 391B0000 		.4byte	0x1b39
 8443 1b32 0C       		.uleb128 0xc
 8444 1b33 83010000 		.4byte	0x183
 8445 1b37 0F       		.byte	0xf
 8446 1b38 00       		.byte	0
 8447 1b39 06       		.uleb128 0x6
 8448 1b3a 04       		.byte	0x4
ARM GAS  /tmp/ccSNToGX.s 			page 150


 8449 1b3b 1E1B0000 		.4byte	0x1b1e
 8450 1b3f 22       		.uleb128 0x22
 8451 1b40 51090000 		.4byte	.LASF408
 8452 1b44 21       		.byte	0x21
 8453 1b45 CE       		.byte	0xce
 8454 1b46 291B0000 		.4byte	0x1b29
 8455 1b4a 15       		.uleb128 0x15
 8456 1b4b 25000000 		.4byte	0x25
 8457 1b4f 5E1B0000 		.4byte	0x1b5e
 8458 1b53 16       		.uleb128 0x16
 8459 1b54 4C060000 		.4byte	0x64c
 8460 1b58 16       		.uleb128 0x16
 8461 1b59 33180000 		.4byte	0x1833
 8462 1b5d 00       		.byte	0
 8463 1b5e 22       		.uleb128 0x22
 8464 1b5f 3D0C0000 		.4byte	.LASF409
 8465 1b63 22       		.byte	0x22
 8466 1b64 2E       		.byte	0x2e
 8467 1b65 691B0000 		.4byte	0x1b69
 8468 1b69 06       		.uleb128 0x6
 8469 1b6a 04       		.byte	0x4
 8470 1b6b 4A1B0000 		.4byte	0x1b4a
 8471 1b6f 2C       		.uleb128 0x2c
 8472 1b70 3F1B0000 		.4byte	0x1b3f
 8473 1b74 01       		.byte	0x1
 8474 1b75 7C       		.byte	0x7c
 8475 1b76 05       		.uleb128 0x5
 8476 1b77 03       		.byte	0x3
 8477 1b78 00000000 		.4byte	__iob
 8478 1b7c 2D       		.uleb128 0x2d
 8479 1b7d 5F647000 		.ascii	"_dp\000"
 8480 1b81 01       		.byte	0x1
 8481 1b82 A406     		.2byte	0x6a4
 8482 1b84 F9160000 		.4byte	0x16f9
 8483 1b88 05       		.uleb128 0x5
 8484 1b89 03       		.byte	0x3
 8485 1b8a 00000000 		.4byte	_dp
 8486 1b8e 2D       		.uleb128 0x2d
 8487 1b8f 5F646500 		.ascii	"_de\000"
 8488 1b93 01       		.byte	0x1
 8489 1b94 B706     		.2byte	0x6b7
 8490 1b96 711A0000 		.4byte	0x1a71
 8491 1b9a 05       		.uleb128 0x5
 8492 1b9b 03       		.byte	0x3
 8493 1b9c 00000000 		.4byte	_de
 8494 1ba0 2E       		.uleb128 0x2e
 8495 1ba1 AC100000 		.4byte	.LASF411
 8496 1ba5 01       		.byte	0x1
 8497 1ba6 E309     		.2byte	0x9e3
 8498 1ba8 25000000 		.4byte	0x25
 8499 1bac 00000000 		.4byte	.LFB359
 8500 1bb0 44000000 		.4byte	.LFE359-.LFB359
 8501 1bb4 01       		.uleb128 0x1
 8502 1bb5 9C       		.byte	0x9c
 8503 1bb6 3D1C0000 		.4byte	0x1c3d
 8504 1bba 2F       		.uleb128 0x2f
 8505 1bbb B3060000 		.4byte	.LASF413
ARM GAS  /tmp/ccSNToGX.s 			page 151


 8506 1bbf 01       		.byte	0x1
 8507 1bc0 E309     		.2byte	0x9e3
 8508 1bc2 25000000 		.4byte	0x25
 8509 1bc6 00000000 		.4byte	.LLST209
 8510 1bca 30       		.uleb128 0x30
 8511 1bcb 1E140000 		.4byte	.LASF410
 8512 1bcf 01       		.byte	0x1
 8513 1bd0 E509     		.2byte	0x9e5
 8514 1bd2 391B0000 		.4byte	0x1b39
 8515 1bd6 45000000 		.4byte	.LLST210
 8516 1bda 31       		.uleb128 0x31
 8517 1bdb 666800   		.ascii	"fh\000"
 8518 1bde 01       		.byte	0x1
 8519 1bdf E609     		.2byte	0x9e6
 8520 1be1 3D1C0000 		.4byte	0x1c3d
 8521 1be5 63000000 		.4byte	.LLST211
 8522 1be9 31       		.uleb128 0x31
 8523 1bea 72657300 		.ascii	"res\000"
 8524 1bee 01       		.byte	0x1
 8525 1bef E709     		.2byte	0x9e7
 8526 1bf1 25000000 		.4byte	0x25
 8527 1bf5 76000000 		.4byte	.LLST212
 8528 1bf9 32       		.uleb128 0x32
 8529 1bfa 08000000 		.4byte	.LVL546
 8530 1bfe 54410000 		.4byte	0x4154
 8531 1c02 33       		.uleb128 0x33
 8532 1c03 12000000 		.4byte	.LVL547
 8533 1c07 07330000 		.4byte	0x3307
 8534 1c0b 161C0000 		.4byte	0x1c16
 8535 1c0f 34       		.uleb128 0x34
 8536 1c10 01       		.uleb128 0x1
 8537 1c11 50       		.byte	0x50
 8538 1c12 02       		.uleb128 0x2
 8539 1c13 74       		.byte	0x74
 8540 1c14 00       		.sleb128 0
 8541 1c15 00       		.byte	0
 8542 1c16 33       		.uleb128 0x33
 8543 1c17 20000000 		.4byte	.LVL551
 8544 1c1b 7B1D0000 		.4byte	0x1d7b
 8545 1c1f 2A1C0000 		.4byte	0x1c2a
 8546 1c23 34       		.uleb128 0x34
 8547 1c24 01       		.uleb128 0x1
 8548 1c25 50       		.byte	0x50
 8549 1c26 02       		.uleb128 0x2
 8550 1c27 74       		.byte	0x74
 8551 1c28 00       		.sleb128 0
 8552 1c29 00       		.byte	0
 8553 1c2a 32       		.uleb128 0x32
 8554 1c2b 28000000 		.4byte	.LVL552
 8555 1c2f 5F410000 		.4byte	0x415f
 8556 1c33 32       		.uleb128 0x32
 8557 1c34 30000000 		.4byte	.LVL554
 8558 1c38 54410000 		.4byte	0x4154
 8559 1c3c 00       		.byte	0
 8560 1c3d 06       		.uleb128 0x6
 8561 1c3e 04       		.byte	0x4
 8562 1c3f 82160000 		.4byte	0x1682
ARM GAS  /tmp/ccSNToGX.s 			page 152


 8563 1c43 2E       		.uleb128 0x2e
 8564 1c44 B60A0000 		.4byte	.LASF412
 8565 1c48 01       		.byte	0x1
 8566 1c49 CB09     		.2byte	0x9cb
 8567 1c4b 25000000 		.4byte	0x25
 8568 1c4f 00000000 		.4byte	.LFB358
 8569 1c53 40000000 		.4byte	.LFE358-.LFB358
 8570 1c57 01       		.uleb128 0x1
 8571 1c58 9C       		.byte	0x9c
 8572 1c59 E91C0000 		.4byte	0x1ce9
 8573 1c5d 35       		.uleb128 0x35
 8574 1c5e 667000   		.ascii	"fp\000"
 8575 1c61 01       		.byte	0x1
 8576 1c62 CB09     		.2byte	0x9cb
 8577 1c64 391B0000 		.4byte	0x1b39
 8578 1c68 9E000000 		.4byte	.LLST206
 8579 1c6c 36       		.uleb128 0x36
 8580 1c6d 666D7400 		.ascii	"fmt\000"
 8581 1c71 01       		.byte	0x1
 8582 1c72 CB09     		.2byte	0x9cb
 8583 1c74 4C060000 		.4byte	0x64c
 8584 1c78 02       		.uleb128 0x2
 8585 1c79 91       		.byte	0x91
 8586 1c7a 74       		.sleb128 -12
 8587 1c7b 37       		.uleb128 0x37
 8588 1c7c 2D       		.uleb128 0x2d
 8589 1c7d 766100   		.ascii	"va\000"
 8590 1c80 01       		.byte	0x1
 8591 1c81 CD09     		.2byte	0x9cd
 8592 1c83 33180000 		.4byte	0x1833
 8593 1c87 02       		.uleb128 0x2
 8594 1c88 91       		.byte	0x91
 8595 1c89 58       		.sleb128 -40
 8596 1c8a 2D       		.uleb128 0x2d
 8597 1c8b 62756600 		.ascii	"buf\000"
 8598 1c8f 01       		.byte	0x1
 8599 1c90 CE09     		.2byte	0x9ce
 8600 1c92 CE010000 		.4byte	0x1ce
 8601 1c96 02       		.uleb128 0x2
 8602 1c97 91       		.byte	0x91
 8603 1c98 5C       		.sleb128 -36
 8604 1c99 31       		.uleb128 0x31
 8605 1c9a 6C656E00 		.ascii	"len\000"
 8606 1c9e 01       		.byte	0x1
 8607 1c9f CF09     		.2byte	0x9cf
 8608 1ca1 6A090000 		.4byte	0x96a
 8609 1ca5 D5000000 		.4byte	.LLST207
 8610 1ca9 31       		.uleb128 0x31
 8611 1caa 6900     		.ascii	"i\000"
 8612 1cac 01       		.byte	0x1
 8613 1cad CF09     		.2byte	0x9cf
 8614 1caf 6A090000 		.4byte	0x96a
 8615 1cb3 F3000000 		.4byte	.LLST208
 8616 1cb7 33       		.uleb128 0x33
 8617 1cb8 14000000 		.4byte	.LVL538
 8618 1cbc 6A410000 		.4byte	0x416a
 8619 1cc0 D81C0000 		.4byte	0x1cd8
ARM GAS  /tmp/ccSNToGX.s 			page 153


 8620 1cc4 34       		.uleb128 0x34
 8621 1cc5 01       		.uleb128 0x1
 8622 1cc6 50       		.byte	0x50
 8623 1cc7 02       		.uleb128 0x2
 8624 1cc8 91       		.byte	0x91
 8625 1cc9 44       		.sleb128 -60
 8626 1cca 34       		.uleb128 0x34
 8627 1ccb 01       		.uleb128 0x1
 8628 1ccc 51       		.byte	0x51
 8629 1ccd 03       		.uleb128 0x3
 8630 1cce 91       		.byte	0x91
 8631 1ccf 5C       		.sleb128 -36
 8632 1cd0 06       		.byte	0x6
 8633 1cd1 34       		.uleb128 0x34
 8634 1cd2 01       		.uleb128 0x1
 8635 1cd3 52       		.byte	0x52
 8636 1cd4 02       		.uleb128 0x2
 8637 1cd5 91       		.byte	0x91
 8638 1cd6 60       		.sleb128 -32
 8639 1cd7 00       		.byte	0
 8640 1cd8 38       		.uleb128 0x38
 8641 1cd9 28000000 		.4byte	.LVL542
 8642 1cdd 30390000 		.4byte	0x3930
 8643 1ce1 34       		.uleb128 0x34
 8644 1ce2 01       		.uleb128 0x1
 8645 1ce3 51       		.byte	0x51
 8646 1ce4 02       		.uleb128 0x2
 8647 1ce5 76       		.byte	0x76
 8648 1ce6 00       		.sleb128 0
 8649 1ce7 00       		.byte	0
 8650 1ce8 00       		.byte	0
 8651 1ce9 39       		.uleb128 0x39
 8652 1cea 37040000 		.4byte	.LASF414
 8653 1cee 01       		.byte	0x1
 8654 1cef 8909     		.2byte	0x989
 8655 1cf1 25000000 		.4byte	0x25
 8656 1cf5 01       		.byte	0x1
 8657 1cf6 131D0000 		.4byte	0x1d13
 8658 1cfa 3A       		.uleb128 0x3a
 8659 1cfb 4C050000 		.4byte	.LASF417
 8660 1cff 01       		.byte	0x1
 8661 1d00 8909     		.2byte	0x989
 8662 1d02 4C060000 		.4byte	0x64c
 8663 1d06 3B       		.uleb128 0x3b
 8664 1d07 A10A0000 		.4byte	.LASF323
 8665 1d0b 01       		.byte	0x1
 8666 1d0c 8B09     		.2byte	0x98b
 8667 1d0e 25000000 		.4byte	0x25
 8668 1d12 00       		.byte	0
 8669 1d13 39       		.uleb128 0x39
 8670 1d14 D3080000 		.4byte	.LASF415
 8671 1d18 01       		.byte	0x1
 8672 1d19 4A09     		.2byte	0x94a
 8673 1d1b 25000000 		.4byte	0x25
 8674 1d1f 01       		.byte	0x1
 8675 1d20 461D0000 		.4byte	0x1d46
 8676 1d24 3C       		.uleb128 0x3c
ARM GAS  /tmp/ccSNToGX.s 			page 154


 8677 1d25 6900     		.ascii	"i\000"
 8678 1d27 01       		.byte	0x1
 8679 1d28 4C09     		.2byte	0x94c
 8680 1d2a 25000000 		.4byte	0x25
 8681 1d2e 3B       		.uleb128 0x3b
 8682 1d2f 1E140000 		.4byte	.LASF410
 8683 1d33 01       		.byte	0x1
 8684 1d34 4D09     		.2byte	0x94d
 8685 1d36 391B0000 		.4byte	0x1b39
 8686 1d3a 3C       		.uleb128 0x3c
 8687 1d3b 666800   		.ascii	"fh\000"
 8688 1d3e 01       		.byte	0x1
 8689 1d3f 4E09     		.2byte	0x94e
 8690 1d41 3D1C0000 		.4byte	0x1c3d
 8691 1d45 00       		.byte	0
 8692 1d46 39       		.uleb128 0x39
 8693 1d47 94080000 		.4byte	.LASF416
 8694 1d4b 01       		.byte	0x1
 8695 1d4c 1E09     		.2byte	0x91e
 8696 1d4e 25000000 		.4byte	0x25
 8697 1d52 01       		.byte	0x1
 8698 1d53 7B1D0000 		.4byte	0x1d7b
 8699 1d57 3A       		.uleb128 0x3a
 8700 1d58 B3060000 		.4byte	.LASF413
 8701 1d5c 01       		.byte	0x1
 8702 1d5d 1E09     		.2byte	0x91e
 8703 1d5f 25000000 		.4byte	0x25
 8704 1d63 3B       		.uleb128 0x3b
 8705 1d64 1E140000 		.4byte	.LASF410
 8706 1d68 01       		.byte	0x1
 8707 1d69 2009     		.2byte	0x920
 8708 1d6b 391B0000 		.4byte	0x1b39
 8709 1d6f 3C       		.uleb128 0x3c
 8710 1d70 666800   		.ascii	"fh\000"
 8711 1d73 01       		.byte	0x1
 8712 1d74 2109     		.2byte	0x921
 8713 1d76 3D1C0000 		.4byte	0x1c3d
 8714 1d7a 00       		.byte	0
 8715 1d7b 39       		.uleb128 0x39
 8716 1d7c 3F080000 		.4byte	.LASF418
 8717 1d80 01       		.byte	0x1
 8718 1d81 FB08     		.2byte	0x8fb
 8719 1d83 3D1C0000 		.4byte	0x1c3d
 8720 1d87 01       		.byte	0x1
 8721 1d88 B01D0000 		.4byte	0x1db0
 8722 1d8c 3A       		.uleb128 0x3a
 8723 1d8d B3060000 		.4byte	.LASF413
 8724 1d91 01       		.byte	0x1
 8725 1d92 FB08     		.2byte	0x8fb
 8726 1d94 25000000 		.4byte	0x25
 8727 1d98 3B       		.uleb128 0x3b
 8728 1d99 1E140000 		.4byte	.LASF410
 8729 1d9d 01       		.byte	0x1
 8730 1d9e FD08     		.2byte	0x8fd
 8731 1da0 391B0000 		.4byte	0x1b39
 8732 1da4 3C       		.uleb128 0x3c
 8733 1da5 666800   		.ascii	"fh\000"
ARM GAS  /tmp/ccSNToGX.s 			page 155


 8734 1da8 01       		.byte	0x1
 8735 1da9 FE08     		.2byte	0x8fe
 8736 1dab 3D1C0000 		.4byte	0x1c3d
 8737 1daf 00       		.byte	0
 8738 1db0 3D       		.uleb128 0x3d
 8739 1db1 A2060000 		.4byte	.LASF438
 8740 1db5 01       		.byte	0x1
 8741 1db6 E308     		.2byte	0x8e3
 8742 1db8 00000000 		.4byte	.LFB353
 8743 1dbc 50000000 		.4byte	.LFE353-.LFB353
 8744 1dc0 01       		.uleb128 0x1
 8745 1dc1 9C       		.byte	0x9c
 8746 1dc2 131E0000 		.4byte	0x1e13
 8747 1dc6 2F       		.uleb128 0x2f
 8748 1dc7 B2120000 		.4byte	.LASF419
 8749 1dcb 01       		.byte	0x1
 8750 1dcc E308     		.2byte	0x8e3
 8751 1dce 3E180000 		.4byte	0x183e
 8752 1dd2 06010000 		.4byte	.LLST94
 8753 1dd6 2F       		.uleb128 0x2f
 8754 1dd7 81100000 		.4byte	.LASF420
 8755 1ddb 01       		.byte	0x1
 8756 1ddc E308     		.2byte	0x8e3
 8757 1dde 131E0000 		.4byte	0x1e13
 8758 1de2 25010000 		.4byte	.LLST95
 8759 1de6 2F       		.uleb128 0x2f
 8760 1de7 BE0C0000 		.4byte	.LASF421
 8761 1deb 01       		.byte	0x1
 8762 1dec E308     		.2byte	0x8e3
 8763 1dee 131E0000 		.4byte	0x1e13
 8764 1df2 51010000 		.4byte	.LLST96
 8765 1df6 2D       		.uleb128 0x2d
 8766 1df7 7400     		.ascii	"t\000"
 8767 1df9 01       		.byte	0x1
 8768 1dfa E508     		.2byte	0x8e5
 8769 1dfc 191E0000 		.4byte	0x1e19
 8770 1e00 01       		.uleb128 0x1
 8771 1e01 50       		.byte	0x50
 8772 1e02 38       		.uleb128 0x38
 8773 1e03 12000000 		.4byte	.LVL275
 8774 1e07 75410000 		.4byte	0x4175
 8775 1e0b 34       		.uleb128 0x34
 8776 1e0c 01       		.uleb128 0x1
 8777 1e0d 50       		.byte	0x50
 8778 1e0e 02       		.uleb128 0x2
 8779 1e0f 91       		.byte	0x91
 8780 1e10 6C       		.sleb128 -20
 8781 1e11 00       		.byte	0
 8782 1e12 00       		.byte	0
 8783 1e13 06       		.uleb128 0x6
 8784 1e14 04       		.byte	0x4
 8785 1e15 75090000 		.4byte	0x975
 8786 1e19 06       		.uleb128 0x6
 8787 1e1a 04       		.byte	0x4
 8788 1e1b A1180000 		.4byte	0x18a1
 8789 1e1f 2E       		.uleb128 0x2e
 8790 1e20 32070000 		.4byte	.LASF422
ARM GAS  /tmp/ccSNToGX.s 			page 156


 8791 1e24 01       		.byte	0x1
 8792 1e25 CA08     		.2byte	0x8ca
 8793 1e27 3E180000 		.4byte	0x183e
 8794 1e2b 00000000 		.4byte	.LFB352
 8795 1e2f E0000000 		.4byte	.LFE352-.LFB352
 8796 1e33 01       		.uleb128 0x1
 8797 1e34 9C       		.byte	0x9c
 8798 1e35 E61E0000 		.4byte	0x1ee6
 8799 1e39 2F       		.uleb128 0x2f
 8800 1e3a 81100000 		.4byte	.LASF420
 8801 1e3e 01       		.byte	0x1
 8802 1e3f CA08     		.2byte	0x8ca
 8803 1e41 75090000 		.4byte	0x975
 8804 1e45 7D010000 		.4byte	.LLST82
 8805 1e49 2F       		.uleb128 0x2f
 8806 1e4a BE0C0000 		.4byte	.LASF421
 8807 1e4e 01       		.byte	0x1
 8808 1e4f CA08     		.2byte	0x8ca
 8809 1e51 75090000 		.4byte	0x975
 8810 1e55 9E010000 		.4byte	.LLST83
 8811 1e59 3C       		.uleb128 0x3c
 8812 1e5a 747000   		.ascii	"tp\000"
 8813 1e5d 01       		.byte	0x1
 8814 1e5e CC08     		.2byte	0x8cc
 8815 1e60 A1180000 		.4byte	0x18a1
 8816 1e64 3B       		.uleb128 0x3b
 8817 1e65 B7100000 		.4byte	.LASF423
 8818 1e69 01       		.byte	0x1
 8819 1e6a CD08     		.2byte	0x8cd
 8820 1e6c 3E180000 		.4byte	0x183e
 8821 1e70 3E       		.uleb128 0x3e
 8822 1e71 E61E0000 		.4byte	0x1ee6
 8823 1e75 04000000 		.4byte	.LBB115
 8824 1e79 00000000 		.4byte	.Ldebug_ranges0+0
 8825 1e7d 01       		.byte	0x1
 8826 1e7e D708     		.2byte	0x8d7
 8827 1e80 3F       		.uleb128 0x3f
 8828 1e81 F71E0000 		.4byte	0x1ef7
 8829 1e85 BF010000 		.4byte	.LLST84
 8830 1e89 40       		.uleb128 0x40
 8831 1e8a 00000000 		.4byte	.Ldebug_ranges0+0
 8832 1e8e 41       		.uleb128 0x41
 8833 1e8f 011F0000 		.4byte	0x1f01
 8834 1e93 E7010000 		.4byte	.LLST85
 8835 1e97 41       		.uleb128 0x41
 8836 1e98 0D1F0000 		.4byte	0x1f0d
 8837 1e9c 2B020000 		.4byte	.LLST86
 8838 1ea0 42       		.uleb128 0x42
 8839 1ea1 171F0000 		.4byte	0x1f17
 8840 1ea5 03       		.uleb128 0x3
 8841 1ea6 91       		.byte	0x91
 8842 1ea7 B07F     		.sleb128 -80
 8843 1ea9 41       		.uleb128 0x41
 8844 1eaa 231F0000 		.4byte	0x1f23
 8845 1eae 59020000 		.4byte	.LLST87
 8846 1eb2 41       		.uleb128 0x41
 8847 1eb3 2D1F0000 		.4byte	0x1f2d
ARM GAS  /tmp/ccSNToGX.s 			page 157


 8848 1eb7 77020000 		.4byte	.LLST88
 8849 1ebb 41       		.uleb128 0x41
 8850 1ebc 371F0000 		.4byte	0x1f37
 8851 1ec0 B8020000 		.4byte	.LLST89
 8852 1ec4 43       		.uleb128 0x43
 8853 1ec5 411F0000 		.4byte	0x1f41
 8854 1ec9 3C       		.byte	0x3c
 8855 1eca 44       		.uleb128 0x44
 8856 1ecb 4D1F0000 		.4byte	0x1f4d
 8857 1ecf 100E     		.2byte	0xe10
 8858 1ed1 45       		.uleb128 0x45
 8859 1ed2 591F0000 		.4byte	0x1f59
 8860 1ed6 80510100 		.4byte	0x15180
 8861 1eda 45       		.uleb128 0x45
 8862 1edb 651F0000 		.4byte	0x1f65
 8863 1edf 8033E101 		.4byte	0x1e13380
 8864 1ee3 00       		.byte	0
 8865 1ee4 00       		.byte	0
 8866 1ee5 00       		.byte	0
 8867 1ee6 46       		.uleb128 0x46
 8868 1ee7 450E0000 		.4byte	.LASF540
 8869 1eeb 01       		.byte	0x1
 8870 1eec 9808     		.2byte	0x898
 8871 1eee 3E180000 		.4byte	0x183e
 8872 1ef2 01       		.byte	0x1
 8873 1ef3 721F0000 		.4byte	0x1f72
 8874 1ef7 47       		.uleb128 0x47
 8875 1ef8 7400     		.ascii	"t\000"
 8876 1efa 01       		.byte	0x1
 8877 1efb 9808     		.2byte	0x898
 8878 1efd 721F0000 		.4byte	0x1f72
 8879 1f01 3B       		.uleb128 0x3b
 8880 1f02 B2120000 		.4byte	.LASF419
 8881 1f06 01       		.byte	0x1
 8882 1f07 9A08     		.2byte	0x89a
 8883 1f09 3E180000 		.4byte	0x183e
 8884 1f0d 3C       		.uleb128 0x3c
 8885 1f0e 6E00     		.ascii	"n\000"
 8886 1f10 01       		.byte	0x1
 8887 1f11 9B08     		.2byte	0x89b
 8888 1f13 25000000 		.4byte	0x25
 8889 1f17 3C       		.uleb128 0x3c
 8890 1f18 6D6F6E00 		.ascii	"mon\000"
 8891 1f1c 01       		.byte	0x1
 8892 1f1d 9C08     		.2byte	0x89c
 8893 1f1f 781F0000 		.4byte	0x1f78
 8894 1f23 3C       		.uleb128 0x3c
 8895 1f24 7900     		.ascii	"y\000"
 8896 1f26 01       		.byte	0x1
 8897 1f27 9C08     		.2byte	0x89c
 8898 1f29 25000000 		.4byte	0x25
 8899 1f2d 3C       		.uleb128 0x3c
 8900 1f2e 6D00     		.ascii	"m\000"
 8901 1f30 01       		.byte	0x1
 8902 1f31 9C08     		.2byte	0x89c
 8903 1f33 25000000 		.4byte	0x25
 8904 1f37 3C       		.uleb128 0x3c
ARM GAS  /tmp/ccSNToGX.s 			page 158


 8905 1f38 6900     		.ascii	"i\000"
 8906 1f3a 01       		.byte	0x1
 8907 1f3b 9C08     		.2byte	0x89c
 8908 1f3d 25000000 		.4byte	0x25
 8909 1f41 3B       		.uleb128 0x3b
 8910 1f42 FD0D0000 		.4byte	.LASF424
 8911 1f46 01       		.byte	0x1
 8912 1f47 9D08     		.2byte	0x89d
 8913 1f49 3E000000 		.4byte	0x3e
 8914 1f4d 3B       		.uleb128 0x3b
 8915 1f4e A0000000 		.4byte	.LASF425
 8916 1f52 01       		.byte	0x1
 8917 1f53 9E08     		.2byte	0x89e
 8918 1f55 3E000000 		.4byte	0x3e
 8919 1f59 3C       		.uleb128 0x3c
 8920 1f5a 44415900 		.ascii	"DAY\000"
 8921 1f5e 01       		.byte	0x1
 8922 1f5f 9F08     		.2byte	0x89f
 8923 1f61 3E000000 		.4byte	0x3e
 8924 1f65 3B       		.uleb128 0x3b
 8925 1f66 77130000 		.4byte	.LASF426
 8926 1f6a 01       		.byte	0x1
 8927 1f6b A008     		.2byte	0x8a0
 8928 1f6d 3E000000 		.4byte	0x3e
 8929 1f71 00       		.byte	0
 8930 1f72 06       		.uleb128 0x6
 8931 1f73 04       		.byte	0x4
 8932 1f74 19190000 		.4byte	0x1919
 8933 1f78 0B       		.uleb128 0xb
 8934 1f79 25000000 		.4byte	0x25
 8935 1f7d 881F0000 		.4byte	0x1f88
 8936 1f81 0C       		.uleb128 0xc
 8937 1f82 83010000 		.4byte	0x183
 8938 1f86 0B       		.byte	0xb
 8939 1f87 00       		.byte	0
 8940 1f88 2E       		.uleb128 0x2e
 8941 1f89 12060000 		.4byte	.LASF427
 8942 1f8d 01       		.byte	0x1
 8943 1f8e 7C08     		.2byte	0x87c
 8944 1f90 25000000 		.4byte	0x25
 8945 1f94 00000000 		.4byte	.LFB350
 8946 1f98 30000000 		.4byte	.LFE350-.LFB350
 8947 1f9c 01       		.uleb128 0x1
 8948 1f9d 9C       		.byte	0x9c
 8949 1f9e D71F0000 		.4byte	0x1fd7
 8950 1fa2 35       		.uleb128 0x35
 8951 1fa3 666800   		.ascii	"fh\000"
 8952 1fa6 01       		.byte	0x1
 8953 1fa7 7C08     		.2byte	0x87c
 8954 1fa9 3D1C0000 		.4byte	0x1c3d
 8955 1fad E2020000 		.4byte	.LLST80
 8956 1fb1 2D       		.uleb128 0x2d
 8957 1fb2 6900     		.ascii	"i\000"
 8958 1fb4 01       		.byte	0x1
 8959 1fb5 7E08     		.2byte	0x87e
 8960 1fb7 25000000 		.4byte	0x25
 8961 1fbb 01       		.uleb128 0x1
ARM GAS  /tmp/ccSNToGX.s 			page 159


 8962 1fbc 53       		.byte	0x53
 8963 1fbd 30       		.uleb128 0x30
 8964 1fbe 1E140000 		.4byte	.LASF410
 8965 1fc2 01       		.byte	0x1
 8966 1fc3 8008     		.2byte	0x880
 8967 1fc5 391B0000 		.4byte	0x1b39
 8968 1fc9 0E030000 		.4byte	.LLST81
 8969 1fcd 32       		.uleb128 0x32
 8970 1fce 08000000 		.4byte	.LVL233
 8971 1fd2 54410000 		.4byte	0x4154
 8972 1fd6 00       		.byte	0
 8973 1fd7 39       		.uleb128 0x39
 8974 1fd8 82090000 		.4byte	.LASF428
 8975 1fdc 01       		.byte	0x1
 8976 1fdd 2F08     		.2byte	0x82f
 8977 1fdf 25000000 		.4byte	0x25
 8978 1fe3 01       		.byte	0x1
 8979 1fe4 F51F0000 		.4byte	0x1ff5
 8980 1fe8 3A       		.uleb128 0x3a
 8981 1fe9 1D0C0000 		.4byte	.LASF429
 8982 1fed 01       		.byte	0x1
 8983 1fee 2F08     		.2byte	0x82f
 8984 1ff0 06180000 		.4byte	0x1806
 8985 1ff4 00       		.byte	0
 8986 1ff5 39       		.uleb128 0x39
 8987 1ff6 04090000 		.4byte	.LASF430
 8988 1ffa 01       		.byte	0x1
 8989 1ffb 0708     		.2byte	0x807
 8990 1ffd 25000000 		.4byte	0x25
 8991 2001 01       		.byte	0x1
 8992 2002 40200000 		.4byte	0x2040
 8993 2006 47       		.uleb128 0x47
 8994 2007 6300     		.ascii	"c\000"
 8995 2009 01       		.byte	0x1
 8996 200a 0708     		.2byte	0x807
 8997 200c D4010000 		.4byte	0x1d4
 8998 2010 3A       		.uleb128 0x3a
 8999 2011 1E140000 		.4byte	.LASF410
 9000 2015 01       		.byte	0x1
 9001 2016 0708     		.2byte	0x807
 9002 2018 391B0000 		.4byte	0x1b39
 9003 201c 3C       		.uleb128 0x3c
 9004 201d 72657300 		.ascii	"res\000"
 9005 2021 01       		.byte	0x1
 9006 2022 0908     		.2byte	0x809
 9007 2024 25000000 		.4byte	0x25
 9008 2028 3C       		.uleb128 0x3c
 9009 2029 666800   		.ascii	"fh\000"
 9010 202c 01       		.byte	0x1
 9011 202d 0A08     		.2byte	0x80a
 9012 202f 3D1C0000 		.4byte	0x1c3d
 9013 2033 3B       		.uleb128 0x3b
 9014 2034 93070000 		.4byte	.LASF242
 9015 2038 01       		.byte	0x1
 9016 2039 0B08     		.2byte	0x80b
 9017 203b B1090000 		.4byte	0x9b1
 9018 203f 00       		.byte	0
ARM GAS  /tmp/ccSNToGX.s 			page 160


 9019 2040 2E       		.uleb128 0x2e
 9020 2041 C3060000 		.4byte	.LASF431
 9021 2045 01       		.byte	0x1
 9022 2046 AD07     		.2byte	0x7ad
 9023 2048 25000000 		.4byte	0x25
 9024 204c 00000000 		.4byte	.LFB347
 9025 2050 94000000 		.4byte	.LFE347-.LFB347
 9026 2054 01       		.uleb128 0x1
 9027 2055 9C       		.byte	0x9c
 9028 2056 24210000 		.4byte	0x2124
 9029 205a 2F       		.uleb128 0x2f
 9030 205b 1E140000 		.4byte	.LASF410
 9031 205f 01       		.byte	0x1
 9032 2060 AD07     		.2byte	0x7ad
 9033 2062 391B0000 		.4byte	0x1b39
 9034 2066 43030000 		.4byte	.LLST0
 9035 206a 2D       		.uleb128 0x2d
 9036 206b 666800   		.ascii	"fh\000"
 9037 206e 01       		.byte	0x1
 9038 206f AF07     		.2byte	0x7af
 9039 2071 3D1C0000 		.4byte	0x1c3d
 9040 2075 01       		.uleb128 0x1
 9041 2076 54       		.byte	0x54
 9042 2077 48       		.uleb128 0x48
 9043 2078 93070000 		.4byte	.LASF242
 9044 207c 01       		.byte	0x1
 9045 207d B007     		.2byte	0x7b0
 9046 207f B1090000 		.4byte	0x9b1
 9047 2083 02       		.uleb128 0x2
 9048 2084 91       		.byte	0x91
 9049 2085 6C       		.sleb128 -20
 9050 2086 31       		.uleb128 0x31
 9051 2087 72657300 		.ascii	"res\000"
 9052 208b 01       		.byte	0x1
 9053 208c B107     		.2byte	0x7b1
 9054 208e 25000000 		.4byte	0x25
 9055 2092 88030000 		.4byte	.LLST1
 9056 2096 2D       		.uleb128 0x2d
 9057 2097 6300     		.ascii	"c\000"
 9058 2099 01       		.byte	0x1
 9059 209a B207     		.2byte	0x7b2
 9060 209c 5A090000 		.4byte	0x95a
 9061 20a0 02       		.uleb128 0x2
 9062 20a1 91       		.byte	0x91
 9063 20a2 6B       		.sleb128 -21
 9064 20a3 31       		.uleb128 0x31
 9065 20a4 706F7300 		.ascii	"pos\000"
 9066 20a8 01       		.byte	0x1
 9067 20a9 B307     		.2byte	0x7b3
 9068 20ab 99000000 		.4byte	0x99
 9069 20af C0030000 		.4byte	.LLST2
 9070 20b3 32       		.uleb128 0x32
 9071 20b4 08000000 		.4byte	.LVL1
 9072 20b8 54410000 		.4byte	0x4154
 9073 20bc 32       		.uleb128 0x32
 9074 20bd 12000000 		.4byte	.LVL2
 9075 20c1 54410000 		.4byte	0x4154
ARM GAS  /tmp/ccSNToGX.s 			page 161


 9076 20c5 33       		.uleb128 0x33
 9077 20c6 32000000 		.4byte	.LVL6
 9078 20ca 80410000 		.4byte	0x4180
 9079 20ce EA200000 		.4byte	0x20ea
 9080 20d2 34       		.uleb128 0x34
 9081 20d3 01       		.uleb128 0x1
 9082 20d4 50       		.byte	0x50
 9083 20d5 02       		.uleb128 0x2
 9084 20d6 74       		.byte	0x74
 9085 20d7 00       		.sleb128 0
 9086 20d8 34       		.uleb128 0x34
 9087 20d9 01       		.uleb128 0x1
 9088 20da 51       		.byte	0x51
 9089 20db 02       		.uleb128 0x2
 9090 20dc 91       		.byte	0x91
 9091 20dd 6B       		.sleb128 -21
 9092 20de 34       		.uleb128 0x34
 9093 20df 01       		.uleb128 0x1
 9094 20e0 52       		.byte	0x52
 9095 20e1 01       		.uleb128 0x1
 9096 20e2 31       		.byte	0x31
 9097 20e3 34       		.uleb128 0x34
 9098 20e4 01       		.uleb128 0x1
 9099 20e5 53       		.byte	0x53
 9100 20e6 02       		.uleb128 0x2
 9101 20e7 91       		.byte	0x91
 9102 20e8 6C       		.sleb128 -20
 9103 20e9 00       		.byte	0
 9104 20ea 32       		.uleb128 0x32
 9105 20eb 40000000 		.4byte	.LVL7
 9106 20ef 54410000 		.4byte	0x4154
 9107 20f3 33       		.uleb128 0x33
 9108 20f4 6C000000 		.4byte	.LVL12
 9109 20f8 80410000 		.4byte	0x4180
 9110 20fc 13210000 		.4byte	0x2113
 9111 2100 34       		.uleb128 0x34
 9112 2101 01       		.uleb128 0x1
 9113 2102 50       		.byte	0x50
 9114 2103 02       		.uleb128 0x2
 9115 2104 74       		.byte	0x74
 9116 2105 00       		.sleb128 0
 9117 2106 34       		.uleb128 0x34
 9118 2107 01       		.uleb128 0x1
 9119 2108 51       		.byte	0x51
 9120 2109 02       		.uleb128 0x2
 9121 210a 91       		.byte	0x91
 9122 210b 6B       		.sleb128 -21
 9123 210c 34       		.uleb128 0x34
 9124 210d 01       		.uleb128 0x1
 9125 210e 53       		.byte	0x53
 9126 210f 02       		.uleb128 0x2
 9127 2110 91       		.byte	0x91
 9128 2111 6C       		.sleb128 -20
 9129 2112 00       		.byte	0
 9130 2113 38       		.uleb128 0x38
 9131 2114 86000000 		.4byte	.LVL14
 9132 2118 8B410000 		.4byte	0x418b
ARM GAS  /tmp/ccSNToGX.s 			page 162


 9133 211c 34       		.uleb128 0x34
 9134 211d 01       		.uleb128 0x1
 9135 211e 50       		.byte	0x50
 9136 211f 02       		.uleb128 0x2
 9137 2120 74       		.byte	0x74
 9138 2121 00       		.sleb128 0
 9139 2122 00       		.byte	0
 9140 2123 00       		.byte	0
 9141 2124 2E       		.uleb128 0x2e
 9142 2125 5E110000 		.4byte	.LASF432
 9143 2129 01       		.byte	0x1
 9144 212a 4007     		.2byte	0x740
 9145 212c 391B0000 		.4byte	0x1b39
 9146 2130 00000000 		.4byte	.LFB346
 9147 2134 50000000 		.4byte	.LFE346-.LFB346
 9148 2138 01       		.uleb128 0x1
 9149 2139 9C       		.byte	0x9c
 9150 213a 7F210000 		.4byte	0x217f
 9151 213e 35       		.uleb128 0x35
 9152 213f 70757400 		.ascii	"put\000"
 9153 2143 01       		.byte	0x1
 9154 2144 4007     		.2byte	0x740
 9155 2146 93210000 		.4byte	0x2193
 9156 214a D3030000 		.4byte	.LLST77
 9157 214e 35       		.uleb128 0x35
 9158 214f 67657400 		.ascii	"get\000"
 9159 2153 01       		.byte	0x1
 9160 2154 4007     		.2byte	0x740
 9161 2156 A8210000 		.4byte	0x21a8
 9162 215a 15040000 		.4byte	.LLST78
 9163 215e 2D       		.uleb128 0x2d
 9164 215f 7300     		.ascii	"s\000"
 9165 2161 01       		.byte	0x1
 9166 2162 4207     		.2byte	0x742
 9167 2164 391B0000 		.4byte	0x1b39
 9168 2168 01       		.uleb128 0x1
 9169 2169 50       		.byte	0x50
 9170 216a 38       		.uleb128 0x38
 9171 216b 16000000 		.4byte	.LVL228
 9172 216f 96410000 		.4byte	0x4196
 9173 2173 34       		.uleb128 0x34
 9174 2174 01       		.uleb128 0x1
 9175 2175 50       		.byte	0x50
 9176 2176 01       		.uleb128 0x1
 9177 2177 31       		.byte	0x31
 9178 2178 34       		.uleb128 0x34
 9179 2179 01       		.uleb128 0x1
 9180 217a 51       		.byte	0x51
 9181 217b 01       		.uleb128 0x1
 9182 217c 4C       		.byte	0x4c
 9183 217d 00       		.byte	0
 9184 217e 00       		.byte	0
 9185 217f 15       		.uleb128 0x15
 9186 2180 25000000 		.4byte	0x25
 9187 2184 93210000 		.4byte	0x2193
 9188 2188 16       		.uleb128 0x16
 9189 2189 D4010000 		.4byte	0x1d4
ARM GAS  /tmp/ccSNToGX.s 			page 163


 9190 218d 16       		.uleb128 0x16
 9191 218e 391B0000 		.4byte	0x1b39
 9192 2192 00       		.byte	0
 9193 2193 06       		.uleb128 0x6
 9194 2194 04       		.byte	0x4
 9195 2195 7F210000 		.4byte	0x217f
 9196 2199 15       		.uleb128 0x15
 9197 219a 25000000 		.4byte	0x25
 9198 219e A8210000 		.4byte	0x21a8
 9199 21a2 16       		.uleb128 0x16
 9200 21a3 391B0000 		.4byte	0x1b39
 9201 21a7 00       		.byte	0
 9202 21a8 06       		.uleb128 0x6
 9203 21a9 04       		.byte	0x4
 9204 21aa 99210000 		.4byte	0x2199
 9205 21ae 2E       		.uleb128 0x2e
 9206 21af FA0F0000 		.4byte	.LASF433
 9207 21b3 01       		.byte	0x1
 9208 21b4 2E07     		.2byte	0x72e
 9209 21b6 CE010000 		.4byte	0x1ce
 9210 21ba 00000000 		.4byte	.LFB345
 9211 21be 14000000 		.4byte	.LFE345-.LFB345
 9212 21c2 01       		.uleb128 0x1
 9213 21c3 9C       		.byte	0x9c
 9214 21c4 1E220000 		.4byte	0x221e
 9215 21c8 2F       		.uleb128 0x2f
 9216 21c9 8A140000 		.4byte	.LASF434
 9217 21cd 01       		.byte	0x1
 9218 21ce 2E07     		.2byte	0x72e
 9219 21d0 25000000 		.4byte	0x25
 9220 21d4 57040000 		.4byte	.LLST74
 9221 21d8 35       		.uleb128 0x35
 9222 21d9 62756600 		.ascii	"buf\000"
 9223 21dd 01       		.byte	0x1
 9224 21de 2E07     		.2byte	0x72e
 9225 21e0 CE010000 		.4byte	0x1ce
 9226 21e4 78040000 		.4byte	.LLST75
 9227 21e8 2F       		.uleb128 0x2f
 9228 21e9 E8060000 		.4byte	.LASF435
 9229 21ed 01       		.byte	0x1
 9230 21ee 2E07     		.2byte	0x72e
 9231 21f0 2C000000 		.4byte	0x2c
 9232 21f4 96040000 		.4byte	.LLST76
 9233 21f8 33       		.uleb128 0x33
 9234 21f9 08000000 		.4byte	.LVL220
 9235 21fd 1E220000 		.4byte	0x221e
 9236 2201 0D220000 		.4byte	0x220d
 9237 2205 34       		.uleb128 0x34
 9238 2206 01       		.uleb128 0x1
 9239 2207 50       		.byte	0x50
 9240 2208 03       		.uleb128 0x3
 9241 2209 F3       		.byte	0xf3
 9242 220a 01       		.uleb128 0x1
 9243 220b 50       		.byte	0x50
 9244 220c 00       		.byte	0
 9245 220d 38       		.uleb128 0x38
 9246 220e 10000000 		.4byte	.LVL222
ARM GAS  /tmp/ccSNToGX.s 			page 164


 9247 2212 A1410000 		.4byte	0x41a1
 9248 2216 34       		.uleb128 0x34
 9249 2217 01       		.uleb128 0x1
 9250 2218 50       		.byte	0x50
 9251 2219 02       		.uleb128 0x2
 9252 221a 74       		.byte	0x74
 9253 221b 00       		.sleb128 0
 9254 221c 00       		.byte	0
 9255 221d 00       		.byte	0
 9256 221e 49       		.uleb128 0x49
 9257 221f C9090000 		.4byte	.LASF436
 9258 2223 23       		.byte	0x23
 9259 2224 24       		.byte	0x24
 9260 2225 CE010000 		.4byte	0x1ce
 9261 2229 00000000 		.4byte	.LFB344
 9262 222d 14000000 		.4byte	.LFE344-.LFB344
 9263 2231 01       		.uleb128 0x1
 9264 2232 9C       		.byte	0x9c
 9265 2233 48220000 		.4byte	0x2248
 9266 2237 2F       		.uleb128 0x2f
 9267 2238 8A140000 		.4byte	.LASF434
 9268 223c 01       		.byte	0x1
 9269 223d F306     		.2byte	0x6f3
 9270 223f 25000000 		.4byte	0x25
 9271 2243 B7040000 		.4byte	.LLST73
 9272 2247 00       		.byte	0
 9273 2248 2E       		.uleb128 0x2e
 9274 2249 040E0000 		.4byte	.LASF437
 9275 224d 01       		.byte	0x1
 9276 224e E306     		.2byte	0x6e3
 9277 2250 25000000 		.4byte	0x25
 9278 2254 00000000 		.4byte	.LFB343
 9279 2258 08000000 		.4byte	.LFE343-.LFB343
 9280 225c 01       		.uleb128 0x1
 9281 225d 9C       		.byte	0x9c
 9282 225e 73220000 		.4byte	0x2273
 9283 2262 2F       		.uleb128 0x2f
 9284 2263 1E140000 		.4byte	.LASF410
 9285 2267 01       		.byte	0x1
 9286 2268 E306     		.2byte	0x6e3
 9287 226a 391B0000 		.4byte	0x1b39
 9288 226e E5040000 		.4byte	.LLST72
 9289 2272 00       		.byte	0
 9290 2273 3D       		.uleb128 0x3d
 9291 2274 D90A0000 		.4byte	.LASF439
 9292 2278 01       		.byte	0x1
 9293 2279 D706     		.2byte	0x6d7
 9294 227b 00000000 		.4byte	.LFB342
 9295 227f 0A000000 		.4byte	.LFE342-.LFB342
 9296 2283 01       		.uleb128 0x1
 9297 2284 9C       		.byte	0x9c
 9298 2285 98220000 		.4byte	0x2298
 9299 2289 4A       		.uleb128 0x4a
 9300 228a 1E140000 		.4byte	.LASF410
 9301 228e 01       		.byte	0x1
 9302 228f D706     		.2byte	0x6d7
 9303 2291 391B0000 		.4byte	0x1b39
ARM GAS  /tmp/ccSNToGX.s 			page 165


 9304 2295 01       		.uleb128 0x1
 9305 2296 50       		.byte	0x50
 9306 2297 00       		.byte	0
 9307 2298 2E       		.uleb128 0x2e
 9308 2299 16140000 		.4byte	.LASF440
 9309 229d 01       		.byte	0x1
 9310 229e B806     		.2byte	0x6b8
 9311 22a0 49230000 		.4byte	0x2349
 9312 22a4 00000000 		.4byte	.LFB341
 9313 22a8 54000000 		.4byte	.LFE341-.LFB341
 9314 22ac 01       		.uleb128 0x1
 9315 22ad 9C       		.byte	0x9c
 9316 22ae 49230000 		.4byte	0x2349
 9317 22b2 2F       		.uleb128 0x2f
 9318 22b3 1B0B0000 		.4byte	.LASF441
 9319 22b7 01       		.byte	0x1
 9320 22b8 B806     		.2byte	0x6b8
 9321 22ba 4F230000 		.4byte	0x234f
 9322 22be 06050000 		.4byte	.LLST69
 9323 22c2 2D       		.uleb128 0x2d
 9324 22c3 666E6F00 		.ascii	"fno\000"
 9325 22c7 01       		.byte	0x1
 9326 22c8 BA06     		.2byte	0x6ba
 9327 22ca 76170000 		.4byte	0x1776
 9328 22ce 03       		.uleb128 0x3
 9329 22cf 91       		.byte	0x91
 9330 22d0 D07D     		.sleb128 -304
 9331 22d2 31       		.uleb128 0x31
 9332 22d3 6C656E00 		.ascii	"len\000"
 9333 22d7 01       		.byte	0x1
 9334 22d8 BB06     		.2byte	0x6bb
 9335 22da 25000000 		.4byte	0x25
 9336 22de 27050000 		.4byte	.LLST70
 9337 22e2 31       		.uleb128 0x31
 9338 22e3 72657300 		.ascii	"res\000"
 9339 22e7 01       		.byte	0x1
 9340 22e8 BC06     		.2byte	0x6bc
 9341 22ea 25000000 		.4byte	0x25
 9342 22ee 50050000 		.4byte	.LLST71
 9343 22f2 33       		.uleb128 0x33
 9344 22f3 10000000 		.4byte	.LVL204
 9345 22f7 AC410000 		.4byte	0x41ac
 9346 22fb 0D230000 		.4byte	0x230d
 9347 22ff 34       		.uleb128 0x34
 9348 2300 01       		.uleb128 0x1
 9349 2301 50       		.byte	0x50
 9350 2302 03       		.uleb128 0x3
 9351 2303 F3       		.byte	0xf3
 9352 2304 01       		.uleb128 0x1
 9353 2305 50       		.byte	0x50
 9354 2306 34       		.uleb128 0x34
 9355 2307 01       		.uleb128 0x1
 9356 2308 51       		.byte	0x51
 9357 2309 02       		.uleb128 0x2
 9358 230a 7D       		.byte	0x7d
 9359 230b 00       		.sleb128 0
 9360 230c 00       		.byte	0
ARM GAS  /tmp/ccSNToGX.s 			page 166


 9361 230d 32       		.uleb128 0x32
 9362 230e 1E000000 		.4byte	.LVL205
 9363 2312 54410000 		.4byte	0x4154
 9364 2316 33       		.uleb128 0x33
 9365 2317 38000000 		.4byte	.LVL209
 9366 231b B7410000 		.4byte	0x41b7
 9367 231f 2B230000 		.4byte	0x232b
 9368 2323 34       		.uleb128 0x34
 9369 2324 01       		.uleb128 0x1
 9370 2325 50       		.byte	0x50
 9371 2326 03       		.uleb128 0x3
 9372 2327 91       		.byte	0x91
 9373 2328 EA7D     		.sleb128 -278
 9374 232a 00       		.byte	0
 9375 232b 38       		.uleb128 0x38
 9376 232c 46000000 		.4byte	.LVL212
 9377 2330 A1410000 		.4byte	0x41a1
 9378 2334 34       		.uleb128 0x34
 9379 2335 01       		.uleb128 0x1
 9380 2336 50       		.byte	0x50
 9381 2337 02       		.uleb128 0x2
 9382 2338 74       		.byte	0x74
 9383 2339 00       		.sleb128 0
 9384 233a 34       		.uleb128 0x34
 9385 233b 01       		.uleb128 0x1
 9386 233c 51       		.byte	0x51
 9387 233d 03       		.uleb128 0x3
 9388 233e 91       		.byte	0x91
 9389 233f EA7D     		.sleb128 -278
 9390 2341 34       		.uleb128 0x34
 9391 2342 01       		.uleb128 0x1
 9392 2343 52       		.byte	0x52
 9393 2344 02       		.uleb128 0x2
 9394 2345 76       		.byte	0x76
 9395 2346 00       		.sleb128 0
 9396 2347 00       		.byte	0
 9397 2348 00       		.byte	0
 9398 2349 06       		.uleb128 0x6
 9399 234a 04       		.byte	0x4
 9400 234b 711A0000 		.4byte	0x1a71
 9401 234f 06       		.uleb128 0x6
 9402 2350 04       		.byte	0x4
 9403 2351 F9160000 		.4byte	0x16f9
 9404 2355 2E       		.uleb128 0x2e
 9405 2356 69140000 		.4byte	.LASF442
 9406 235a 01       		.byte	0x1
 9407 235b A506     		.2byte	0x6a5
 9408 235d 4F230000 		.4byte	0x234f
 9409 2361 00000000 		.4byte	.LFB340
 9410 2365 30000000 		.4byte	.LFE340-.LFB340
 9411 2369 01       		.uleb128 0x1
 9412 236a 9C       		.byte	0x9c
 9413 236b B7230000 		.4byte	0x23b7
 9414 236f 2F       		.uleb128 0x2f
 9415 2370 1F080000 		.4byte	.LASF443
 9416 2374 01       		.byte	0x1
 9417 2375 A506     		.2byte	0x6a5
ARM GAS  /tmp/ccSNToGX.s 			page 167


 9418 2377 4C060000 		.4byte	0x64c
 9419 237b 78050000 		.4byte	.LLST67
 9420 237f 31       		.uleb128 0x31
 9421 2380 72657300 		.ascii	"res\000"
 9422 2384 01       		.byte	0x1
 9423 2385 A706     		.2byte	0x6a7
 9424 2387 25000000 		.4byte	0x25
 9425 238b A4050000 		.4byte	.LLST68
 9426 238f 33       		.uleb128 0x33
 9427 2390 0A000000 		.4byte	.LVL198
 9428 2394 C2410000 		.4byte	0x41c2
 9429 2398 AD230000 		.4byte	0x23ad
 9430 239c 34       		.uleb128 0x34
 9431 239d 01       		.uleb128 0x1
 9432 239e 50       		.byte	0x50
 9433 239f 05       		.uleb128 0x5
 9434 23a0 03       		.byte	0x3
 9435 23a1 00000000 		.4byte	.LANCHOR2
 9436 23a5 34       		.uleb128 0x34
 9437 23a6 01       		.uleb128 0x1
 9438 23a7 51       		.byte	0x51
 9439 23a8 03       		.uleb128 0x3
 9440 23a9 F3       		.byte	0xf3
 9441 23aa 01       		.uleb128 0x1
 9442 23ab 50       		.byte	0x50
 9443 23ac 00       		.byte	0
 9444 23ad 32       		.uleb128 0x32
 9445 23ae 12000000 		.4byte	.LVL199
 9446 23b2 54410000 		.4byte	0x4154
 9447 23b6 00       		.byte	0
 9448 23b7 2E       		.uleb128 0x2e
 9449 23b8 68100000 		.4byte	.LASF444
 9450 23bc 01       		.byte	0x1
 9451 23bd 9206     		.2byte	0x692
 9452 23bf 25000000 		.4byte	0x25
 9453 23c3 00000000 		.4byte	.LFB339
 9454 23c7 28000000 		.4byte	.LFE339-.LFB339
 9455 23cb 01       		.uleb128 0x1
 9456 23cc 9C       		.byte	0x9c
 9457 23cd 10240000 		.4byte	0x2410
 9458 23d1 2F       		.uleb128 0x2f
 9459 23d2 1B0B0000 		.4byte	.LASF441
 9460 23d6 01       		.byte	0x1
 9461 23d7 9206     		.2byte	0x692
 9462 23d9 4F230000 		.4byte	0x234f
 9463 23dd CC050000 		.4byte	.LLST65
 9464 23e1 31       		.uleb128 0x31
 9465 23e2 72657300 		.ascii	"res\000"
 9466 23e6 01       		.byte	0x1
 9467 23e7 9406     		.2byte	0x694
 9468 23e9 25000000 		.4byte	0x25
 9469 23ed ED050000 		.4byte	.LLST66
 9470 23f1 33       		.uleb128 0x33
 9471 23f2 06000000 		.4byte	.LVL192
 9472 23f6 CD410000 		.4byte	0x41cd
 9473 23fa 06240000 		.4byte	0x2406
 9474 23fe 34       		.uleb128 0x34
ARM GAS  /tmp/ccSNToGX.s 			page 168


 9475 23ff 01       		.uleb128 0x1
 9476 2400 50       		.byte	0x50
 9477 2401 03       		.uleb128 0x3
 9478 2402 F3       		.byte	0xf3
 9479 2403 01       		.uleb128 0x1
 9480 2404 50       		.byte	0x50
 9481 2405 00       		.byte	0
 9482 2406 32       		.uleb128 0x32
 9483 2407 0E000000 		.4byte	.LVL193
 9484 240b 54410000 		.4byte	0x4154
 9485 240f 00       		.byte	0
 9486 2410 2E       		.uleb128 0x2e
 9487 2411 78040000 		.4byte	.LASF445
 9488 2415 01       		.byte	0x1
 9489 2416 7A06     		.2byte	0x67a
 9490 2418 25000000 		.4byte	0x25
 9491 241c 00000000 		.4byte	.LFB338
 9492 2420 34000000 		.4byte	.LFE338-.LFB338
 9493 2424 01       		.uleb128 0x1
 9494 2425 9C       		.byte	0x9c
 9495 2426 71240000 		.4byte	0x2471
 9496 242a 2F       		.uleb128 0x2f
 9497 242b EB040000 		.4byte	.LASF446
 9498 242f 01       		.byte	0x1
 9499 2430 7A06     		.2byte	0x67a
 9500 2432 4C060000 		.4byte	0x64c
 9501 2436 15060000 		.4byte	.LLST63
 9502 243a 31       		.uleb128 0x31
 9503 243b 72657300 		.ascii	"res\000"
 9504 243f 01       		.byte	0x1
 9505 2440 7D06     		.2byte	0x67d
 9506 2442 25000000 		.4byte	0x25
 9507 2446 41060000 		.4byte	.LLST64
 9508 244a 32       		.uleb128 0x32
 9509 244b 08000000 		.4byte	.LVL185
 9510 244f 54410000 		.4byte	0x4154
 9511 2453 33       		.uleb128 0x33
 9512 2454 12000000 		.4byte	.LVL186
 9513 2458 D8410000 		.4byte	0x41d8
 9514 245c 67240000 		.4byte	0x2467
 9515 2460 34       		.uleb128 0x34
 9516 2461 01       		.uleb128 0x1
 9517 2462 50       		.byte	0x50
 9518 2463 02       		.uleb128 0x2
 9519 2464 74       		.byte	0x74
 9520 2465 00       		.sleb128 0
 9521 2466 00       		.byte	0
 9522 2467 32       		.uleb128 0x32
 9523 2468 1A000000 		.4byte	.LVL188
 9524 246c 54410000 		.4byte	0x4154
 9525 2470 00       		.byte	0
 9526 2471 4B       		.uleb128 0x4b
 9527 2472 DC040000 		.4byte	.LASF447
 9528 2476 01       		.byte	0x1
 9529 2477 6D06     		.2byte	0x66d
 9530 2479 25000000 		.4byte	0x25
 9531 247d 9A240000 		.4byte	0x249a
ARM GAS  /tmp/ccSNToGX.s 			page 169


 9532 2481 3A       		.uleb128 0x3a
 9533 2482 EB040000 		.4byte	.LASF446
 9534 2486 01       		.byte	0x1
 9535 2487 6D06     		.2byte	0x66d
 9536 2489 4C060000 		.4byte	0x64c
 9537 248d 3C       		.uleb128 0x3c
 9538 248e 72657300 		.ascii	"res\000"
 9539 2492 01       		.byte	0x1
 9540 2493 7006     		.2byte	0x670
 9541 2495 25000000 		.4byte	0x25
 9542 2499 00       		.byte	0
 9543 249a 4B       		.uleb128 0x4b
 9544 249b 97140000 		.4byte	.LASF448
 9545 249f 01       		.byte	0x1
 9546 24a0 5706     		.2byte	0x657
 9547 24a2 25000000 		.4byte	0x25
 9548 24a6 C3240000 		.4byte	0x24c3
 9549 24aa 3A       		.uleb128 0x3a
 9550 24ab EB040000 		.4byte	.LASF446
 9551 24af 01       		.byte	0x1
 9552 24b0 5706     		.2byte	0x657
 9553 24b2 4C060000 		.4byte	0x64c
 9554 24b6 3C       		.uleb128 0x3c
 9555 24b7 72657300 		.ascii	"res\000"
 9556 24bb 01       		.byte	0x1
 9557 24bc 5A06     		.2byte	0x65a
 9558 24be 25000000 		.4byte	0x25
 9559 24c2 00       		.byte	0
 9560 24c3 2E       		.uleb128 0x2e
 9561 24c4 20040000 		.4byte	.LASF449
 9562 24c8 01       		.byte	0x1
 9563 24c9 4006     		.2byte	0x640
 9564 24cb 25000000 		.4byte	0x25
 9565 24cf 00000000 		.4byte	.LFB335
 9566 24d3 38000000 		.4byte	.LFE335-.LFB335
 9567 24d7 01       		.uleb128 0x1
 9568 24d8 9C       		.byte	0x9c
 9569 24d9 39250000 		.4byte	0x2539
 9570 24dd 2F       		.uleb128 0x2f
 9571 24de C80E0000 		.4byte	.LASF450
 9572 24e2 01       		.byte	0x1
 9573 24e3 4006     		.2byte	0x640
 9574 24e5 4C060000 		.4byte	0x64c
 9575 24e9 69060000 		.4byte	.LLST60
 9576 24ed 2F       		.uleb128 0x2f
 9577 24ee 3D0E0000 		.4byte	.LASF451
 9578 24f2 01       		.byte	0x1
 9579 24f3 4006     		.2byte	0x640
 9580 24f5 4C060000 		.4byte	0x64c
 9581 24f9 95060000 		.4byte	.LLST61
 9582 24fd 31       		.uleb128 0x31
 9583 24fe 726300   		.ascii	"rc\000"
 9584 2501 01       		.byte	0x1
 9585 2502 4306     		.2byte	0x643
 9586 2504 25000000 		.4byte	0x25
 9587 2508 C1060000 		.4byte	.LLST62
 9588 250c 32       		.uleb128 0x32
ARM GAS  /tmp/ccSNToGX.s 			page 170


 9589 250d 0A000000 		.4byte	.LVL177
 9590 2511 54410000 		.4byte	0x4154
 9591 2515 33       		.uleb128 0x33
 9592 2516 16000000 		.4byte	.LVL178
 9593 251a E3410000 		.4byte	0x41e3
 9594 251e 2F250000 		.4byte	0x252f
 9595 2522 34       		.uleb128 0x34
 9596 2523 01       		.uleb128 0x1
 9597 2524 50       		.byte	0x50
 9598 2525 02       		.uleb128 0x2
 9599 2526 74       		.byte	0x74
 9600 2527 00       		.sleb128 0
 9601 2528 34       		.uleb128 0x34
 9602 2529 01       		.uleb128 0x1
 9603 252a 51       		.byte	0x51
 9604 252b 02       		.uleb128 0x2
 9605 252c 75       		.byte	0x75
 9606 252d 00       		.sleb128 0
 9607 252e 00       		.byte	0
 9608 252f 32       		.uleb128 0x32
 9609 2530 1E000000 		.4byte	.LVL180
 9610 2534 54410000 		.4byte	0x4154
 9611 2538 00       		.byte	0
 9612 2539 2E       		.uleb128 0x2e
 9613 253a 7C000000 		.4byte	.LASF452
 9614 253e 01       		.byte	0x1
 9615 253f 2406     		.2byte	0x624
 9616 2541 25000000 		.4byte	0x25
 9617 2545 00000000 		.4byte	.LFB334
 9618 2549 44000000 		.4byte	.LFE334-.LFB334
 9619 254d 01       		.uleb128 0x1
 9620 254e 9C       		.byte	0x9c
 9621 254f C0250000 		.4byte	0x25c0
 9622 2553 2F       		.uleb128 0x2f
 9623 2554 EB040000 		.4byte	.LASF446
 9624 2558 01       		.byte	0x1
 9625 2559 2406     		.2byte	0x624
 9626 255b 4C060000 		.4byte	0x64c
 9627 255f E9060000 		.4byte	.LLST57
 9628 2563 2F       		.uleb128 0x2f
 9629 2564 4C050000 		.4byte	.LASF417
 9630 2568 01       		.byte	0x1
 9631 2569 2406     		.2byte	0x624
 9632 256b 8B180000 		.4byte	0x188b
 9633 256f 15070000 		.4byte	.LLST58
 9634 2573 31       		.uleb128 0x31
 9635 2574 72657300 		.ascii	"res\000"
 9636 2578 01       		.byte	0x1
 9637 2579 2806     		.2byte	0x628
 9638 257b 25000000 		.4byte	0x25
 9639 257f 3E070000 		.4byte	.LLST59
 9640 2583 32       		.uleb128 0x32
 9641 2584 0A000000 		.4byte	.LVL166
 9642 2588 54410000 		.4byte	0x4154
 9643 258c 33       		.uleb128 0x33
 9644 258d 14000000 		.4byte	.LVL167
 9645 2591 EF410000 		.4byte	0x41ef
ARM GAS  /tmp/ccSNToGX.s 			page 171


 9646 2595 A0250000 		.4byte	0x25a0
 9647 2599 34       		.uleb128 0x34
 9648 259a 01       		.uleb128 0x1
 9649 259b 50       		.byte	0x50
 9650 259c 02       		.uleb128 0x2
 9651 259d 76       		.byte	0x76
 9652 259e 00       		.sleb128 0
 9653 259f 00       		.byte	0
 9654 25a0 32       		.uleb128 0x32
 9655 25a1 1C000000 		.4byte	.LVL168
 9656 25a5 54410000 		.4byte	0x4154
 9657 25a9 38       		.uleb128 0x38
 9658 25aa 38000000 		.4byte	.LVL172
 9659 25ae 82260000 		.4byte	0x2682
 9660 25b2 34       		.uleb128 0x34
 9661 25b3 01       		.uleb128 0x1
 9662 25b4 50       		.byte	0x50
 9663 25b5 02       		.uleb128 0x2
 9664 25b6 76       		.byte	0x76
 9665 25b7 00       		.sleb128 0
 9666 25b8 34       		.uleb128 0x34
 9667 25b9 01       		.uleb128 0x1
 9668 25ba 51       		.byte	0x51
 9669 25bb 02       		.uleb128 0x2
 9670 25bc 74       		.byte	0x74
 9671 25bd 00       		.sleb128 0
 9672 25be 00       		.byte	0
 9673 25bf 00       		.byte	0
 9674 25c0 2E       		.uleb128 0x2e
 9675 25c1 EC100000 		.4byte	.LASF453
 9676 25c5 01       		.byte	0x1
 9677 25c6 0D06     		.2byte	0x60d
 9678 25c8 CE010000 		.4byte	0x1ce
 9679 25cc 00000000 		.4byte	.LFB333
 9680 25d0 34000000 		.4byte	.LFE333-.LFB333
 9681 25d4 01       		.uleb128 0x1
 9682 25d5 9C       		.byte	0x9c
 9683 25d6 37260000 		.4byte	0x2637
 9684 25da 2F       		.uleb128 0x2f
 9685 25db EB040000 		.4byte	.LASF446
 9686 25df 01       		.byte	0x1
 9687 25e0 0D06     		.2byte	0x60d
 9688 25e2 CE010000 		.4byte	0x1ce
 9689 25e6 76070000 		.4byte	.LLST54
 9690 25ea 35       		.uleb128 0x35
 9691 25eb 6C656E00 		.ascii	"len\000"
 9692 25ef 01       		.byte	0x1
 9693 25f0 0D06     		.2byte	0x60d
 9694 25f2 2C000000 		.4byte	0x2c
 9695 25f6 A2070000 		.4byte	.LLST55
 9696 25fa 31       		.uleb128 0x31
 9697 25fb 72657300 		.ascii	"res\000"
 9698 25ff 01       		.byte	0x1
 9699 2600 0F06     		.2byte	0x60f
 9700 2602 25000000 		.4byte	0x25
 9701 2606 CE070000 		.4byte	.LLST56
 9702 260a 32       		.uleb128 0x32
ARM GAS  /tmp/ccSNToGX.s 			page 172


 9703 260b 0A000000 		.4byte	.LVL159
 9704 260f 54410000 		.4byte	0x4154
 9705 2613 33       		.uleb128 0x33
 9706 2614 16000000 		.4byte	.LVL160
 9707 2618 FA410000 		.4byte	0x41fa
 9708 261c 2D260000 		.4byte	0x262d
 9709 2620 34       		.uleb128 0x34
 9710 2621 01       		.uleb128 0x1
 9711 2622 50       		.byte	0x50
 9712 2623 02       		.uleb128 0x2
 9713 2624 74       		.byte	0x74
 9714 2625 00       		.sleb128 0
 9715 2626 34       		.uleb128 0x34
 9716 2627 01       		.uleb128 0x1
 9717 2628 51       		.byte	0x51
 9718 2629 02       		.uleb128 0x2
 9719 262a 75       		.byte	0x75
 9720 262b 00       		.sleb128 0
 9721 262c 00       		.byte	0
 9722 262d 32       		.uleb128 0x32
 9723 262e 1E000000 		.4byte	.LVL162
 9724 2632 54410000 		.4byte	0x4154
 9725 2636 00       		.byte	0
 9726 2637 2E       		.uleb128 0x2e
 9727 2638 76110000 		.4byte	.LASF454
 9728 263c 01       		.byte	0x1
 9729 263d E005     		.2byte	0x5e0
 9730 263f 25000000 		.4byte	0x25
 9731 2643 00000000 		.4byte	.LFB332
 9732 2647 20000000 		.4byte	.LFE332-.LFB332
 9733 264b 01       		.uleb128 0x1
 9734 264c 9C       		.byte	0x9c
 9735 264d 82260000 		.4byte	0x2682
 9736 2651 35       		.uleb128 0x35
 9737 2652 73747200 		.ascii	"str\000"
 9738 2656 01       		.byte	0x1
 9739 2657 E005     		.2byte	0x5e0
 9740 2659 CE010000 		.4byte	0x1ce
 9741 265d E6070000 		.4byte	.LLST51
 9742 2661 31       		.uleb128 0x31
 9743 2662 656E6400 		.ascii	"end\000"
 9744 2666 01       		.byte	0x1
 9745 2667 E205     		.2byte	0x5e2
 9746 2669 25000000 		.4byte	0x25
 9747 266d 34080000 		.4byte	.LLST52
 9748 2671 31       		.uleb128 0x31
 9749 2672 696E6400 		.ascii	"ind\000"
 9750 2676 01       		.byte	0x1
 9751 2677 E305     		.2byte	0x5e3
 9752 2679 25000000 		.4byte	0x25
 9753 267d 6A080000 		.4byte	.LLST53
 9754 2681 00       		.byte	0
 9755 2682 39       		.uleb128 0x39
 9756 2683 E7080000 		.4byte	.LASF455
 9757 2687 01       		.byte	0x1
 9758 2688 BA05     		.2byte	0x5ba
 9759 268a 25000000 		.4byte	0x25
ARM GAS  /tmp/ccSNToGX.s 			page 173


 9760 268e 01       		.byte	0x1
 9761 268f B7260000 		.4byte	0x26b7
 9762 2693 3A       		.uleb128 0x3a
 9763 2694 EB040000 		.4byte	.LASF446
 9764 2698 01       		.byte	0x1
 9765 2699 BA05     		.2byte	0x5ba
 9766 269b 4C060000 		.4byte	0x64c
 9767 269f 3A       		.uleb128 0x3a
 9768 26a0 4C050000 		.4byte	.LASF417
 9769 26a4 01       		.byte	0x1
 9770 26a5 BA05     		.2byte	0x5ba
 9771 26a7 8B180000 		.4byte	0x188b
 9772 26ab 3C       		.uleb128 0x3c
 9773 26ac 726300   		.ascii	"rc\000"
 9774 26af 01       		.byte	0x1
 9775 26b0 BC05     		.2byte	0x5bc
 9776 26b2 25000000 		.4byte	0x25
 9777 26b6 00       		.byte	0
 9778 26b7 2E       		.uleb128 0x2e
 9779 26b8 1F120000 		.4byte	.LASF456
 9780 26bc 01       		.byte	0x1
 9781 26bd A105     		.2byte	0x5a1
 9782 26bf 25000000 		.4byte	0x25
 9783 26c3 00000000 		.4byte	.LFB330
 9784 26c7 34000000 		.4byte	.LFE330-.LFB330
 9785 26cb 01       		.uleb128 0x1
 9786 26cc 9C       		.byte	0x9c
 9787 26cd 18270000 		.4byte	0x2718
 9788 26d1 2F       		.uleb128 0x2f
 9789 26d2 EB040000 		.4byte	.LASF446
 9790 26d6 01       		.byte	0x1
 9791 26d7 A105     		.2byte	0x5a1
 9792 26d9 4C060000 		.4byte	0x64c
 9793 26dd B0080000 		.4byte	.LLST44
 9794 26e1 31       		.uleb128 0x31
 9795 26e2 72657300 		.ascii	"res\000"
 9796 26e6 01       		.byte	0x1
 9797 26e7 A505     		.2byte	0x5a5
 9798 26e9 25000000 		.4byte	0x25
 9799 26ed DC080000 		.4byte	.LLST45
 9800 26f1 32       		.uleb128 0x32
 9801 26f2 08000000 		.4byte	.LVL135
 9802 26f6 54410000 		.4byte	0x4154
 9803 26fa 33       		.uleb128 0x33
 9804 26fb 12000000 		.4byte	.LVL136
 9805 26ff 06420000 		.4byte	0x4206
 9806 2703 0E270000 		.4byte	0x270e
 9807 2707 34       		.uleb128 0x34
 9808 2708 01       		.uleb128 0x1
 9809 2709 50       		.byte	0x50
 9810 270a 02       		.uleb128 0x2
 9811 270b 74       		.byte	0x74
 9812 270c 00       		.sleb128 0
 9813 270d 00       		.byte	0
 9814 270e 32       		.uleb128 0x32
 9815 270f 1A000000 		.4byte	.LVL138
 9816 2713 54410000 		.4byte	0x4154
ARM GAS  /tmp/ccSNToGX.s 			page 174


 9817 2717 00       		.byte	0
 9818 2718 2E       		.uleb128 0x2e
 9819 2719 E3040000 		.4byte	.LASF457
 9820 271d 01       		.byte	0x1
 9821 271e 8B05     		.2byte	0x58b
 9822 2720 CE010000 		.4byte	0x1ce
 9823 2724 00000000 		.4byte	.LFB329
 9824 2728 18000000 		.4byte	.LFE329-.LFB329
 9825 272c 01       		.uleb128 0x1
 9826 272d 9C       		.byte	0x9c
 9827 272e 53270000 		.4byte	0x2753
 9828 2732 35       		.uleb128 0x35
 9829 2733 73747200 		.ascii	"str\000"
 9830 2737 01       		.byte	0x1
 9831 2738 8B05     		.2byte	0x58b
 9832 273a CE010000 		.4byte	0x1ce
 9833 273e 04090000 		.4byte	.LLST42
 9834 2742 31       		.uleb128 0x31
 9835 2743 65787400 		.ascii	"ext\000"
 9836 2747 01       		.byte	0x1
 9837 2748 8D05     		.2byte	0x58d
 9838 274a CE010000 		.4byte	0x1ce
 9839 274e 2F090000 		.4byte	.LLST43
 9840 2752 00       		.byte	0
 9841 2753 2E       		.uleb128 0x2e
 9842 2754 26030000 		.4byte	.LASF458
 9843 2758 01       		.byte	0x1
 9844 2759 7605     		.2byte	0x576
 9845 275b CE010000 		.4byte	0x1ce
 9846 275f 00000000 		.4byte	.LFB328
 9847 2763 1C000000 		.4byte	.LFE328-.LFB328
 9848 2767 01       		.uleb128 0x1
 9849 2768 9C       		.byte	0x9c
 9850 2769 8E270000 		.4byte	0x278e
 9851 276d 35       		.uleb128 0x35
 9852 276e 73747200 		.ascii	"str\000"
 9853 2772 01       		.byte	0x1
 9854 2773 7605     		.2byte	0x576
 9855 2775 4C060000 		.4byte	0x64c
 9856 2779 52090000 		.4byte	.LLST40
 9857 277d 30       		.uleb128 0x30
 9858 277e B2100000 		.4byte	.LASF459
 9859 2782 01       		.byte	0x1
 9860 2783 7805     		.2byte	0x578
 9861 2785 4C060000 		.4byte	0x64c
 9862 2789 A1090000 		.4byte	.LLST41
 9863 278d 00       		.byte	0
 9864 278e 2E       		.uleb128 0x2e
 9865 278f 99090000 		.4byte	.LASF460
 9866 2793 01       		.byte	0x1
 9867 2794 5C05     		.2byte	0x55c
 9868 2796 9B090000 		.4byte	0x99b
 9869 279a 00000000 		.4byte	.LFB327
 9870 279e 30000000 		.4byte	.LFE327-.LFB327
 9871 27a2 01       		.uleb128 0x1
 9872 27a3 9C       		.byte	0x9c
 9873 27a4 05280000 		.4byte	0x2805
ARM GAS  /tmp/ccSNToGX.s 			page 175


 9874 27a8 2D       		.uleb128 0x2d
 9875 27a9 667300   		.ascii	"fs\000"
 9876 27ac 01       		.byte	0x1
 9877 27ad 5D05     		.2byte	0x55d
 9878 27af FB150000 		.4byte	0x15fb
 9879 27b3 02       		.uleb128 0x2
 9880 27b4 91       		.byte	0x91
 9881 27b5 70       		.sleb128 -16
 9882 27b6 48       		.uleb128 0x48
 9883 27b7 2F060000 		.4byte	.LASF461
 9884 27bb 01       		.byte	0x1
 9885 27bc 5E05     		.2byte	0x55e
 9886 27be DD090000 		.4byte	0x9dd
 9887 27c2 02       		.uleb128 0x2
 9888 27c3 91       		.byte	0x91
 9889 27c4 74       		.sleb128 -12
 9890 27c5 30       		.uleb128 0x30
 9891 27c6 25140000 		.4byte	.LASF462
 9892 27ca 01       		.byte	0x1
 9893 27cb 5E05     		.2byte	0x55e
 9894 27cd DD090000 		.4byte	0x9dd
 9895 27d1 CD090000 		.4byte	.LLST38
 9896 27d5 31       		.uleb128 0x31
 9897 27d6 72657300 		.ascii	"res\000"
 9898 27da 01       		.byte	0x1
 9899 27db 6205     		.2byte	0x562
 9900 27dd 06180000 		.4byte	0x1806
 9901 27e1 F9090000 		.4byte	.LLST39
 9902 27e5 38       		.uleb128 0x38
 9903 27e6 0C000000 		.4byte	.LVL116
 9904 27ea 12420000 		.4byte	0x4212
 9905 27ee 34       		.uleb128 0x34
 9906 27ef 01       		.uleb128 0x1
 9907 27f0 50       		.byte	0x50
 9908 27f1 05       		.uleb128 0x5
 9909 27f2 03       		.byte	0x3
 9910 27f3 00000000 		.4byte	.LC1
 9911 27f7 34       		.uleb128 0x34
 9912 27f8 01       		.uleb128 0x1
 9913 27f9 51       		.byte	0x51
 9914 27fa 02       		.uleb128 0x2
 9915 27fb 91       		.byte	0x91
 9916 27fc 74       		.sleb128 -12
 9917 27fd 34       		.uleb128 0x34
 9918 27fe 01       		.uleb128 0x1
 9919 27ff 52       		.byte	0x52
 9920 2800 02       		.uleb128 0x2
 9921 2801 7D       		.byte	0x7d
 9922 2802 00       		.sleb128 0
 9923 2803 00       		.byte	0
 9924 2804 00       		.byte	0
 9925 2805 2E       		.uleb128 0x2e
 9926 2806 DB0B0000 		.4byte	.LASF463
 9927 280a 01       		.byte	0x1
 9928 280b 4D05     		.2byte	0x54d
 9929 280d 9B090000 		.4byte	0x99b
 9930 2811 00000000 		.4byte	.LFB326
ARM GAS  /tmp/ccSNToGX.s 			page 176


 9931 2815 30000000 		.4byte	.LFE326-.LFB326
 9932 2819 01       		.uleb128 0x1
 9933 281a 9C       		.byte	0x9c
 9934 281b 89280000 		.4byte	0x2889
 9935 281f 2D       		.uleb128 0x2d
 9936 2820 667300   		.ascii	"fs\000"
 9937 2823 01       		.byte	0x1
 9938 2824 4E05     		.2byte	0x54e
 9939 2826 FB150000 		.4byte	0x15fb
 9940 282a 02       		.uleb128 0x2
 9941 282b 91       		.byte	0x91
 9942 282c 70       		.sleb128 -16
 9943 282d 48       		.uleb128 0x48
 9944 282e 2F060000 		.4byte	.LASF461
 9945 2832 01       		.byte	0x1
 9946 2833 4F05     		.2byte	0x54f
 9947 2835 DD090000 		.4byte	0x9dd
 9948 2839 02       		.uleb128 0x2
 9949 283a 91       		.byte	0x91
 9950 283b 74       		.sleb128 -12
 9951 283c 48       		.uleb128 0x48
 9952 283d C0090000 		.4byte	.LASF464
 9953 2841 01       		.byte	0x1
 9954 2842 4F05     		.2byte	0x54f
 9955 2844 DD090000 		.4byte	0x9dd
 9956 2848 10       		.uleb128 0x10
 9957 2849 7D       		.byte	0x7d
 9958 284a 00       		.sleb128 0
 9959 284b 06       		.byte	0x6
 9960 284c 23       		.byte	0x23
 9961 284d 0A       		.uleb128 0xa
 9962 284e 94       		.byte	0x94
 9963 284f 02       		.byte	0x2
 9964 2850 0A       		.byte	0xa
 9965 2851 FFFF     		.2byte	0xffff
 9966 2853 1A       		.byte	0x1a
 9967 2854 91       		.byte	0x91
 9968 2855 74       		.sleb128 -12
 9969 2856 06       		.byte	0x6
 9970 2857 1E       		.byte	0x1e
 9971 2858 9F       		.byte	0x9f
 9972 2859 31       		.uleb128 0x31
 9973 285a 72657300 		.ascii	"res\000"
 9974 285e 01       		.byte	0x1
 9975 285f 5305     		.2byte	0x553
 9976 2861 06180000 		.4byte	0x1806
 9977 2865 170A0000 		.4byte	.LLST37
 9978 2869 38       		.uleb128 0x38
 9979 286a 0C000000 		.4byte	.LVL113
 9980 286e 12420000 		.4byte	0x4212
 9981 2872 34       		.uleb128 0x34
 9982 2873 01       		.uleb128 0x1
 9983 2874 50       		.byte	0x50
 9984 2875 05       		.uleb128 0x5
 9985 2876 03       		.byte	0x3
 9986 2877 00000000 		.4byte	.LC1
 9987 287b 34       		.uleb128 0x34
ARM GAS  /tmp/ccSNToGX.s 			page 177


 9988 287c 01       		.uleb128 0x1
 9989 287d 51       		.byte	0x51
 9990 287e 02       		.uleb128 0x2
 9991 287f 91       		.byte	0x91
 9992 2880 74       		.sleb128 -12
 9993 2881 34       		.uleb128 0x34
 9994 2882 01       		.uleb128 0x1
 9995 2883 52       		.byte	0x52
 9996 2884 02       		.uleb128 0x2
 9997 2885 7D       		.byte	0x7d
 9998 2886 00       		.sleb128 0
 9999 2887 00       		.byte	0
 10000 2888 00       		.byte	0
 10001 2889 2E       		.uleb128 0x2e
 10002 288a CE110000 		.4byte	.LASF465
 10003 288e 01       		.byte	0x1
 10004 288f 3605     		.2byte	0x536
 10005 2891 25000000 		.4byte	0x25
 10006 2895 00000000 		.4byte	.LFB325
 10007 2899 44000000 		.4byte	.LFE325-.LFB325
 10008 289d 01       		.uleb128 0x1
 10009 289e 9C       		.byte	0x9c
 10010 289f 46290000 		.4byte	0x2946
 10011 28a3 2F       		.uleb128 0x2f
 10012 28a4 660B0000 		.4byte	.LASF466
 10013 28a8 01       		.byte	0x1
 10014 28a9 3605     		.2byte	0x536
 10015 28ab 4C060000 		.4byte	0x64c
 10016 28af 350A0000 		.4byte	.LLST97
 10017 28b3 2F       		.uleb128 0x2f
 10018 28b4 71130000 		.4byte	.LASF467
 10019 28b8 01       		.byte	0x1
 10020 28b9 3605     		.2byte	0x536
 10021 28bb 46290000 		.4byte	0x2946
 10022 28bf 690A0000 		.4byte	.LLST98
 10023 28c3 2D       		.uleb128 0x2d
 10024 28c4 666E6F00 		.ascii	"fno\000"
 10025 28c8 01       		.byte	0x1
 10026 28c9 3905     		.2byte	0x539
 10027 28cb 76170000 		.4byte	0x1776
 10028 28cf 03       		.uleb128 0x3
 10029 28d0 91       		.byte	0x91
 10030 28d1 D87D     		.sleb128 -296
 10031 28d3 48       		.uleb128 0x48
 10032 28d4 BD070000 		.4byte	.LASF331
 10033 28d8 01       		.byte	0x1
 10034 28d9 3A05     		.2byte	0x53a
 10035 28db 75090000 		.4byte	0x975
 10036 28df 03       		.uleb128 0x3
 10037 28e0 91       		.byte	0x91
 10038 28e1 D47D     		.sleb128 -300
 10039 28e3 48       		.uleb128 0x48
 10040 28e4 E50E0000 		.4byte	.LASF332
 10041 28e8 01       		.byte	0x1
 10042 28e9 3A05     		.2byte	0x53a
 10043 28eb 75090000 		.4byte	0x975
 10044 28ef 03       		.uleb128 0x3
ARM GAS  /tmp/ccSNToGX.s 			page 178


 10045 28f0 91       		.byte	0x91
 10046 28f1 D67D     		.sleb128 -298
 10047 28f3 31       		.uleb128 0x31
 10048 28f4 757400   		.ascii	"ut\000"
 10049 28f7 01       		.byte	0x1
 10050 28f8 3B05     		.2byte	0x53b
 10051 28fa 3E180000 		.4byte	0x183e
 10052 28fe 950A0000 		.4byte	.LLST99
 10053 2902 31       		.uleb128 0x31
 10054 2903 72657300 		.ascii	"res\000"
 10055 2907 01       		.byte	0x1
 10056 2908 3C05     		.2byte	0x53c
 10057 290a 25000000 		.4byte	0x25
 10058 290e C00A0000 		.4byte	.LLST100
 10059 2912 33       		.uleb128 0x33
 10060 2913 14000000 		.4byte	.LVL280
 10061 2917 B01D0000 		.4byte	0x1db0
 10062 291b 2E290000 		.4byte	0x292e
 10063 291f 34       		.uleb128 0x34
 10064 2920 01       		.uleb128 0x1
 10065 2921 51       		.byte	0x51
 10066 2922 03       		.uleb128 0x3
 10067 2923 91       		.byte	0x91
 10068 2924 D47D     		.sleb128 -300
 10069 2926 34       		.uleb128 0x34
 10070 2927 01       		.uleb128 0x1
 10071 2928 52       		.byte	0x52
 10072 2929 03       		.uleb128 0x3
 10073 292a 91       		.byte	0x91
 10074 292b D67D     		.sleb128 -298
 10075 292d 00       		.byte	0
 10076 292e 38       		.uleb128 0x38
 10077 292f 2C000000 		.4byte	.LVL281
 10078 2933 1E420000 		.4byte	0x421e
 10079 2937 34       		.uleb128 0x34
 10080 2938 01       		.uleb128 0x1
 10081 2939 50       		.byte	0x50
 10082 293a 02       		.uleb128 0x2
 10083 293b 74       		.byte	0x74
 10084 293c 00       		.sleb128 0
 10085 293d 34       		.uleb128 0x34
 10086 293e 01       		.uleb128 0x1
 10087 293f 51       		.byte	0x51
 10088 2940 03       		.uleb128 0x3
 10089 2941 91       		.byte	0x91
 10090 2942 D87D     		.sleb128 -296
 10091 2944 00       		.byte	0
 10092 2945 00       		.byte	0
 10093 2946 06       		.uleb128 0x6
 10094 2947 04       		.byte	0x4
 10095 2948 431A0000 		.4byte	0x1a43
 10096 294c 2E       		.uleb128 0x2e
 10097 294d 7B140000 		.4byte	.LASF314
 10098 2951 01       		.byte	0x1
 10099 2952 F704     		.2byte	0x4f7
 10100 2954 25000000 		.4byte	0x25
 10101 2958 00000000 		.4byte	.LFB324
ARM GAS  /tmp/ccSNToGX.s 			page 179


 10102 295c B0000000 		.4byte	.LFE324-.LFB324
 10103 2960 01       		.uleb128 0x1
 10104 2961 9C       		.byte	0x9c
 10105 2962 342A0000 		.4byte	0x2a34
 10106 2966 2F       		.uleb128 0x2f
 10107 2967 720A0000 		.4byte	.LASF167
 10108 296b 01       		.byte	0x1
 10109 296c F704     		.2byte	0x4f7
 10110 296e 4C060000 		.4byte	0x64c
 10111 2972 D80A0000 		.4byte	.LLST90
 10112 2976 35       		.uleb128 0x35
 10113 2977 62756600 		.ascii	"buf\000"
 10114 297b 01       		.byte	0x1
 10115 297c F704     		.2byte	0x4f7
 10116 297e 342A0000 		.4byte	0x2a34
 10117 2982 1D0B0000 		.4byte	.LLST91
 10118 2986 48       		.uleb128 0x48
 10119 2987 8E050000 		.4byte	.LASF468
 10120 298b 01       		.byte	0x1
 10121 298c F904     		.2byte	0x4f9
 10122 298e 76170000 		.4byte	0x1776
 10123 2992 03       		.uleb128 0x3
 10124 2993 91       		.byte	0x91
 10125 2994 D07D     		.sleb128 -304
 10126 2996 31       		.uleb128 0x31
 10127 2997 72657300 		.ascii	"res\000"
 10128 299b 01       		.byte	0x1
 10129 299c FA04     		.2byte	0x4fa
 10130 299e 25000000 		.4byte	0x25
 10131 29a2 3B0B0000 		.4byte	.LLST92
 10132 29a6 30       		.uleb128 0x30
 10133 29a7 B2120000 		.4byte	.LASF419
 10134 29ab 01       		.byte	0x1
 10135 29ac FB04     		.2byte	0x4fb
 10136 29ae 3E180000 		.4byte	0x183e
 10137 29b2 630B0000 		.4byte	.LLST93
 10138 29b6 48       		.uleb128 0x48
 10139 29b7 4C050000 		.4byte	.LASF417
 10140 29bb 01       		.byte	0x1
 10141 29bc FC04     		.2byte	0x4fc
 10142 29be 75090000 		.4byte	0x975
 10143 29c2 01       		.uleb128 0x1
 10144 29c3 53       		.byte	0x53
 10145 29c4 32       		.uleb128 0x32
 10146 29c5 0C000000 		.4byte	.LVL259
 10147 29c9 54410000 		.4byte	0x4154
 10148 29cd 33       		.uleb128 0x33
 10149 29ce 18000000 		.4byte	.LVL260
 10150 29d2 2A420000 		.4byte	0x422a
 10151 29d6 EA290000 		.4byte	0x29ea
 10152 29da 34       		.uleb128 0x34
 10153 29db 01       		.uleb128 0x1
 10154 29dc 50       		.byte	0x50
 10155 29dd 02       		.uleb128 0x2
 10156 29de 75       		.byte	0x75
 10157 29df 00       		.sleb128 0
 10158 29e0 34       		.uleb128 0x34
ARM GAS  /tmp/ccSNToGX.s 			page 180


 10159 29e1 01       		.uleb128 0x1
 10160 29e2 51       		.byte	0x51
 10161 29e3 05       		.uleb128 0x5
 10162 29e4 03       		.byte	0x3
 10163 29e5 00000000 		.4byte	.LC1
 10164 29e9 00       		.byte	0
 10165 29ea 33       		.uleb128 0x33
 10166 29eb 22000000 		.4byte	.LVL261
 10167 29ef 2A420000 		.4byte	0x422a
 10168 29f3 072A0000 		.4byte	0x2a07
 10169 29f7 34       		.uleb128 0x34
 10170 29f8 01       		.uleb128 0x1
 10171 29f9 50       		.byte	0x50
 10172 29fa 02       		.uleb128 0x2
 10173 29fb 75       		.byte	0x75
 10174 29fc 00       		.sleb128 0
 10175 29fd 34       		.uleb128 0x34
 10176 29fe 01       		.uleb128 0x1
 10177 29ff 51       		.byte	0x51
 10178 2a00 05       		.uleb128 0x5
 10179 2a01 03       		.byte	0x3
 10180 2a02 00000000 		.4byte	.LC3
 10181 2a06 00       		.byte	0
 10182 2a07 33       		.uleb128 0x33
 10183 2a08 44000000 		.4byte	.LVL264
 10184 2a0c 35420000 		.4byte	0x4235
 10185 2a10 212A0000 		.4byte	0x2a21
 10186 2a14 34       		.uleb128 0x34
 10187 2a15 01       		.uleb128 0x1
 10188 2a16 50       		.byte	0x50
 10189 2a17 02       		.uleb128 0x2
 10190 2a18 75       		.byte	0x75
 10191 2a19 00       		.sleb128 0
 10192 2a1a 34       		.uleb128 0x34
 10193 2a1b 01       		.uleb128 0x1
 10194 2a1c 51       		.byte	0x51
 10195 2a1d 02       		.uleb128 0x2
 10196 2a1e 7D       		.byte	0x7d
 10197 2a1f 00       		.sleb128 0
 10198 2a20 00       		.byte	0
 10199 2a21 32       		.uleb128 0x32
 10200 2a22 4C000000 		.4byte	.LVL266
 10201 2a26 54410000 		.4byte	0x4154
 10202 2a2a 32       		.uleb128 0x32
 10203 2a2b 6E000000 		.4byte	.LVL270
 10204 2a2f 1F1E0000 		.4byte	0x1e1f
 10205 2a33 00       		.byte	0
 10206 2a34 06       		.uleb128 0x6
 10207 2a35 04       		.byte	0x4
 10208 2a36 75190000 		.4byte	0x1975
 10209 2a3a 2E       		.uleb128 0x2e
 10210 2a3b 27080000 		.4byte	.LASF469
 10211 2a3f 01       		.byte	0x1
 10212 2a40 A404     		.2byte	0x4a4
 10213 2a42 25000000 		.4byte	0x25
 10214 2a46 00000000 		.4byte	.LFB323
 10215 2a4a 18000000 		.4byte	.LFE323-.LFB323
ARM GAS  /tmp/ccSNToGX.s 			page 181


 10216 2a4e 01       		.uleb128 0x1
 10217 2a4f 9C       		.byte	0x9c
 10218 2a50 922A0000 		.4byte	0x2a92
 10219 2a54 2F       		.uleb128 0x2f
 10220 2a55 1E140000 		.4byte	.LASF410
 10221 2a59 01       		.byte	0x1
 10222 2a5a A404     		.2byte	0x4a4
 10223 2a5c 391B0000 		.4byte	0x1b39
 10224 2a60 820B0000 		.4byte	.LLST182
 10225 2a64 31       		.uleb128 0x31
 10226 2a65 666E00   		.ascii	"fn\000"
 10227 2a68 01       		.byte	0x1
 10228 2a69 A604     		.2byte	0x4a6
 10229 2a6b 25000000 		.4byte	0x25
 10230 2a6f A30B0000 		.4byte	.LLST183
 10231 2a73 33       		.uleb128 0x33
 10232 2a74 06000000 		.4byte	.LVL450
 10233 2a78 31330000 		.4byte	0x3331
 10234 2a7c 882A0000 		.4byte	0x2a88
 10235 2a80 34       		.uleb128 0x34
 10236 2a81 01       		.uleb128 0x1
 10237 2a82 50       		.byte	0x50
 10238 2a83 03       		.uleb128 0x3
 10239 2a84 F3       		.byte	0xf3
 10240 2a85 01       		.uleb128 0x1
 10241 2a86 50       		.byte	0x50
 10242 2a87 00       		.byte	0
 10243 2a88 4C       		.uleb128 0x4c
 10244 2a89 12000000 		.4byte	.LVL451
 10245 2a8d 5B330000 		.4byte	0x335b
 10246 2a91 00       		.byte	0
 10247 2a92 2E       		.uleb128 0x2e
 10248 2a93 670E0000 		.4byte	.LASF470
 10249 2a97 01       		.byte	0x1
 10250 2a98 9204     		.2byte	0x492
 10251 2a9a 391B0000 		.4byte	0x1b39
 10252 2a9e 00000000 		.4byte	.LFB322
 10253 2aa2 24000000 		.4byte	.LFE322-.LFB322
 10254 2aa6 01       		.uleb128 0x1
 10255 2aa7 9C       		.byte	0x9c
 10256 2aa8 322B0000 		.4byte	0x2b32
 10257 2aac 2F       		.uleb128 0x2f
 10258 2aad 660B0000 		.4byte	.LASF466
 10259 2ab1 01       		.byte	0x1
 10260 2ab2 9204     		.2byte	0x492
 10261 2ab4 4C060000 		.4byte	0x64c
 10262 2ab8 C10B0000 		.4byte	.LLST201
 10263 2abc 2F       		.uleb128 0x2f
 10264 2abd 4C050000 		.4byte	.LASF417
 10265 2ac1 01       		.byte	0x1
 10266 2ac2 9204     		.2byte	0x492
 10267 2ac4 4C060000 		.4byte	0x64c
 10268 2ac8 030C0000 		.4byte	.LLST202
 10269 2acc 2F       		.uleb128 0x2f
 10270 2acd 1E140000 		.4byte	.LASF410
 10271 2ad1 01       		.byte	0x1
 10272 2ad2 9204     		.2byte	0x492
ARM GAS  /tmp/ccSNToGX.s 			page 182


 10273 2ad4 391B0000 		.4byte	0x1b39
 10274 2ad8 450C0000 		.4byte	.LLST203
 10275 2adc 31       		.uleb128 0x31
 10276 2add 666E00   		.ascii	"fn\000"
 10277 2ae0 01       		.byte	0x1
 10278 2ae1 9404     		.2byte	0x494
 10279 2ae3 25000000 		.4byte	0x25
 10280 2ae7 660C0000 		.4byte	.LLST204
 10281 2aeb 31       		.uleb128 0x31
 10282 2aec 72657400 		.ascii	"ret\000"
 10283 2af0 01       		.byte	0x1
 10284 2af1 9504     		.2byte	0x495
 10285 2af3 25000000 		.4byte	0x25
 10286 2af7 790C0000 		.4byte	.LLST205
 10287 2afb 33       		.uleb128 0x33
 10288 2afc 0C000000 		.4byte	.LVL530
 10289 2b00 31330000 		.4byte	0x3331
 10290 2b04 102B0000 		.4byte	0x2b10
 10291 2b08 34       		.uleb128 0x34
 10292 2b09 01       		.uleb128 0x1
 10293 2b0a 50       		.byte	0x50
 10294 2b0b 03       		.uleb128 0x3
 10295 2b0c F3       		.byte	0xf3
 10296 2b0d 01       		.uleb128 0x1
 10297 2b0e 52       		.byte	0x52
 10298 2b0f 00       		.byte	0
 10299 2b10 32       		.uleb128 0x32
 10300 2b11 10000000 		.4byte	.LVL531
 10301 2b15 5B330000 		.4byte	0x335b
 10302 2b19 4D       		.uleb128 0x4d
 10303 2b1a 20000000 		.4byte	.LVL534
 10304 2b1e 7A320000 		.4byte	0x327a
 10305 2b22 34       		.uleb128 0x34
 10306 2b23 01       		.uleb128 0x1
 10307 2b24 50       		.byte	0x50
 10308 2b25 03       		.uleb128 0x3
 10309 2b26 F3       		.byte	0xf3
 10310 2b27 01       		.uleb128 0x1
 10311 2b28 50       		.byte	0x50
 10312 2b29 34       		.uleb128 0x34
 10313 2b2a 01       		.uleb128 0x1
 10314 2b2b 51       		.byte	0x51
 10315 2b2c 03       		.uleb128 0x3
 10316 2b2d F3       		.byte	0xf3
 10317 2b2e 01       		.uleb128 0x1
 10318 2b2f 51       		.byte	0x51
 10319 2b30 00       		.byte	0
 10320 2b31 00       		.byte	0
 10321 2b32 2E       		.uleb128 0x2e
 10322 2b33 620D0000 		.4byte	.LASF471
 10323 2b37 01       		.byte	0x1
 10324 2b38 6104     		.2byte	0x461
 10325 2b3a 80180000 		.4byte	0x1880
 10326 2b3e 00000000 		.4byte	.LFB321
 10327 2b42 94000000 		.4byte	.LFE321-.LFB321
 10328 2b46 01       		.uleb128 0x1
 10329 2b47 9C       		.byte	0x9c
ARM GAS  /tmp/ccSNToGX.s 			page 183


 10330 2b48 812C0000 		.4byte	0x2c81
 10331 2b4c 35       		.uleb128 0x35
 10332 2b4d 666400   		.ascii	"fd\000"
 10333 2b50 01       		.byte	0x1
 10334 2b51 6104     		.2byte	0x461
 10335 2b53 25000000 		.4byte	0x25
 10336 2b57 970C0000 		.4byte	.LLST157
 10337 2b5b 35       		.uleb128 0x35
 10338 2b5c 62756600 		.ascii	"buf\000"
 10339 2b60 01       		.byte	0x1
 10340 2b61 6104     		.2byte	0x461
 10341 2b63 812C0000 		.4byte	0x2c81
 10342 2b67 B50C0000 		.4byte	.LLST158
 10343 2b6b 2F       		.uleb128 0x2f
 10344 2b6c 780B0000 		.4byte	.LASF472
 10345 2b70 01       		.byte	0x1
 10346 2b71 6104     		.2byte	0x461
 10347 2b73 2C000000 		.4byte	0x2c
 10348 2b77 130D0000 		.4byte	.LLST159
 10349 2b7b 48       		.uleb128 0x48
 10350 2b7c 93070000 		.4byte	.LASF242
 10351 2b80 01       		.byte	0x1
 10352 2b81 6304     		.2byte	0x463
 10353 2b83 B1090000 		.4byte	0x9b1
 10354 2b87 02       		.uleb128 0x2
 10355 2b88 91       		.byte	0x91
 10356 2b89 64       		.sleb128 -28
 10357 2b8a 30       		.uleb128 0x30
 10358 2b8b CB100000 		.4byte	.LASF473
 10359 2b8f 01       		.byte	0x1
 10360 2b90 6404     		.2byte	0x464
 10361 2b92 B1090000 		.4byte	0x9b1
 10362 2b96 7C0D0000 		.4byte	.LLST160
 10363 2b9a 31       		.uleb128 0x31
 10364 2b9b 72657300 		.ascii	"res\000"
 10365 2b9f 01       		.byte	0x1
 10366 2ba0 6504     		.2byte	0x465
 10367 2ba2 06180000 		.4byte	0x1806
 10368 2ba6 B30D0000 		.4byte	.LLST161
 10369 2baa 31       		.uleb128 0x31
 10370 2bab 666800   		.ascii	"fh\000"
 10371 2bae 01       		.byte	0x1
 10372 2baf 6604     		.2byte	0x466
 10373 2bb1 3D1C0000 		.4byte	0x1c3d
 10374 2bb5 C60D0000 		.4byte	.LLST162
 10375 2bb9 30       		.uleb128 0x30
 10376 2bba 1E140000 		.4byte	.LASF410
 10377 2bbe 01       		.byte	0x1
 10378 2bbf 6704     		.2byte	0x467
 10379 2bc1 391B0000 		.4byte	0x1b39
 10380 2bc5 E40D0000 		.4byte	.LLST163
 10381 2bc9 4E       		.uleb128 0x4e
 10382 2bca 90000000 		.4byte	.Ldebug_ranges0+0x90
 10383 2bce 1D2C0000 		.4byte	0x2c1d
 10384 2bd2 31       		.uleb128 0x31
 10385 2bd3 70747200 		.ascii	"ptr\000"
 10386 2bd7 01       		.byte	0x1
ARM GAS  /tmp/ccSNToGX.s 			page 184


 10387 2bd8 6E04     		.2byte	0x46e
 10388 2bda CE010000 		.4byte	0x1ce
 10389 2bde 180E0000 		.4byte	.LLST164
 10390 2be2 40       		.uleb128 0x40
 10391 2be3 A8000000 		.4byte	.Ldebug_ranges0+0xa8
 10392 2be7 31       		.uleb128 0x31
 10393 2be8 6300     		.ascii	"c\000"
 10394 2bea 01       		.byte	0x1
 10395 2beb 7204     		.2byte	0x472
 10396 2bed 25000000 		.4byte	0x25
 10397 2bf1 450E0000 		.4byte	.LLST165
 10398 2bf5 31       		.uleb128 0x31
 10399 2bf6 72657400 		.ascii	"ret\000"
 10400 2bfa 01       		.byte	0x1
 10401 2bfb 7204     		.2byte	0x472
 10402 2bfd 25000000 		.4byte	0x25
 10403 2c01 630E0000 		.4byte	.LLST166
 10404 2c05 38       		.uleb128 0x38
 10405 2c06 3C000000 		.4byte	.LVL407
 10406 2c0a 30390000 		.4byte	0x3930
 10407 2c0e 34       		.uleb128 0x34
 10408 2c0f 01       		.uleb128 0x1
 10409 2c10 50       		.byte	0x50
 10410 2c11 02       		.uleb128 0x2
 10411 2c12 75       		.byte	0x75
 10412 2c13 00       		.sleb128 0
 10413 2c14 34       		.uleb128 0x34
 10414 2c15 01       		.uleb128 0x1
 10415 2c16 51       		.byte	0x51
 10416 2c17 02       		.uleb128 0x2
 10417 2c18 77       		.byte	0x77
 10418 2c19 00       		.sleb128 0
 10419 2c1a 00       		.byte	0
 10420 2c1b 00       		.byte	0
 10421 2c1c 00       		.byte	0
 10422 2c1d 32       		.uleb128 0x32
 10423 2c1e 0E000000 		.4byte	.LVL401
 10424 2c22 54410000 		.4byte	0x4154
 10425 2c26 33       		.uleb128 0x33
 10426 2c27 18000000 		.4byte	.LVL402
 10427 2c2b 07330000 		.4byte	0x3307
 10428 2c2f 3A2C0000 		.4byte	0x2c3a
 10429 2c33 34       		.uleb128 0x34
 10430 2c34 01       		.uleb128 0x1
 10431 2c35 50       		.byte	0x50
 10432 2c36 02       		.uleb128 0x2
 10433 2c37 78       		.byte	0x78
 10434 2c38 00       		.sleb128 0
 10435 2c39 00       		.byte	0
 10436 2c3a 33       		.uleb128 0x33
 10437 2c3b 5C000000 		.4byte	.LVL412
 10438 2c3f 7B1D0000 		.4byte	0x1d7b
 10439 2c43 4E2C0000 		.4byte	0x2c4e
 10440 2c47 34       		.uleb128 0x34
 10441 2c48 01       		.uleb128 0x1
 10442 2c49 50       		.byte	0x50
 10443 2c4a 02       		.uleb128 0x2
ARM GAS  /tmp/ccSNToGX.s 			page 185


 10444 2c4b 78       		.byte	0x78
 10445 2c4c 00       		.sleb128 0
 10446 2c4d 00       		.byte	0
 10447 2c4e 32       		.uleb128 0x32
 10448 2c4f 62000000 		.4byte	.LVL413
 10449 2c53 54410000 		.4byte	0x4154
 10450 2c57 33       		.uleb128 0x33
 10451 2c58 76000000 		.4byte	.LVL416
 10452 2c5c 41420000 		.4byte	0x4241
 10453 2c60 772C0000 		.4byte	0x2c77
 10454 2c64 34       		.uleb128 0x34
 10455 2c65 01       		.uleb128 0x1
 10456 2c66 51       		.byte	0x51
 10457 2c67 02       		.uleb128 0x2
 10458 2c68 74       		.byte	0x74
 10459 2c69 00       		.sleb128 0
 10460 2c6a 34       		.uleb128 0x34
 10461 2c6b 01       		.uleb128 0x1
 10462 2c6c 52       		.byte	0x52
 10463 2c6d 02       		.uleb128 0x2
 10464 2c6e 76       		.byte	0x76
 10465 2c6f 00       		.sleb128 0
 10466 2c70 34       		.uleb128 0x34
 10467 2c71 01       		.uleb128 0x1
 10468 2c72 53       		.byte	0x53
 10469 2c73 02       		.uleb128 0x2
 10470 2c74 91       		.byte	0x91
 10471 2c75 64       		.sleb128 -28
 10472 2c76 00       		.byte	0
 10473 2c77 32       		.uleb128 0x32
 10474 2c78 80000000 		.4byte	.LVL418
 10475 2c7c 54410000 		.4byte	0x4154
 10476 2c80 00       		.byte	0
 10477 2c81 06       		.uleb128 0x6
 10478 2c82 04       		.byte	0x4
 10479 2c83 872C0000 		.4byte	0x2c87
 10480 2c87 4F       		.uleb128 0x4f
 10481 2c88 2E       		.uleb128 0x2e
 10482 2c89 F6090000 		.4byte	.LASF474
 10483 2c8d 01       		.byte	0x1
 10484 2c8e 3B04     		.2byte	0x43b
 10485 2c90 25000000 		.4byte	0x25
 10486 2c94 00000000 		.4byte	.LFB320
 10487 2c98 5C000000 		.4byte	.LFE320-.LFB320
 10488 2c9c 01       		.uleb128 0x1
 10489 2c9d 9C       		.byte	0x9c
 10490 2c9e 362D0000 		.4byte	0x2d36
 10491 2ca2 2F       		.uleb128 0x2f
 10492 2ca3 FD0B0000 		.4byte	.LASF475
 10493 2ca7 01       		.byte	0x1
 10494 2ca8 3B04     		.2byte	0x43b
 10495 2caa 4C060000 		.4byte	0x64c
 10496 2cae 810E0000 		.4byte	.LLST34
 10497 2cb2 2F       		.uleb128 0x2f
 10498 2cb3 8C020000 		.4byte	.LASF476
 10499 2cb7 01       		.byte	0x1
 10500 2cb8 3B04     		.2byte	0x43b
ARM GAS  /tmp/ccSNToGX.s 			page 186


 10501 2cba 54180000 		.4byte	0x1854
 10502 2cbe AD0E0000 		.4byte	.LLST35
 10503 2cc2 2D       		.uleb128 0x2d
 10504 2cc3 666800   		.ascii	"fh\000"
 10505 2cc6 01       		.byte	0x1
 10506 2cc7 3E04     		.2byte	0x43e
 10507 2cc9 82160000 		.4byte	0x1682
 10508 2ccd 03       		.uleb128 0x3
 10509 2cce 91       		.byte	0x91
 10510 2ccf A07B     		.sleb128 -608
 10511 2cd1 31       		.uleb128 0x31
 10512 2cd2 726300   		.ascii	"rc\000"
 10513 2cd5 01       		.byte	0x1
 10514 2cd6 3F04     		.2byte	0x43f
 10515 2cd8 06180000 		.4byte	0x1806
 10516 2cdc CB0E0000 		.4byte	.LLST36
 10517 2ce0 32       		.uleb128 0x32
 10518 2ce1 0E000000 		.4byte	.LVL103
 10519 2ce5 54410000 		.4byte	0x4154
 10520 2ce9 33       		.uleb128 0x33
 10521 2cea 1C000000 		.4byte	.LVL104
 10522 2cee 4C420000 		.4byte	0x424c
 10523 2cf2 082D0000 		.4byte	0x2d08
 10524 2cf6 34       		.uleb128 0x34
 10525 2cf7 01       		.uleb128 0x1
 10526 2cf8 50       		.byte	0x50
 10527 2cf9 02       		.uleb128 0x2
 10528 2cfa 7D       		.byte	0x7d
 10529 2cfb 00       		.sleb128 0
 10530 2cfc 34       		.uleb128 0x34
 10531 2cfd 01       		.uleb128 0x1
 10532 2cfe 51       		.byte	0x51
 10533 2cff 02       		.uleb128 0x2
 10534 2d00 74       		.byte	0x74
 10535 2d01 00       		.sleb128 0
 10536 2d02 34       		.uleb128 0x34
 10537 2d03 01       		.uleb128 0x1
 10538 2d04 52       		.byte	0x52
 10539 2d05 01       		.uleb128 0x1
 10540 2d06 33       		.byte	0x33
 10541 2d07 00       		.byte	0
 10542 2d08 32       		.uleb128 0x32
 10543 2d09 24000000 		.4byte	.LVL106
 10544 2d0d 54410000 		.4byte	0x4154
 10545 2d11 33       		.uleb128 0x33
 10546 2d12 44000000 		.4byte	.LVL110
 10547 2d16 8B410000 		.4byte	0x418b
 10548 2d1a 252D0000 		.4byte	0x2d25
 10549 2d1e 34       		.uleb128 0x34
 10550 2d1f 01       		.uleb128 0x1
 10551 2d20 50       		.byte	0x50
 10552 2d21 02       		.uleb128 0x2
 10553 2d22 7D       		.byte	0x7d
 10554 2d23 00       		.sleb128 0
 10555 2d24 00       		.byte	0
 10556 2d25 38       		.uleb128 0x38
 10557 2d26 50000000 		.4byte	.LVL112
ARM GAS  /tmp/ccSNToGX.s 			page 187


 10558 2d2a 57420000 		.4byte	0x4257
 10559 2d2e 34       		.uleb128 0x34
 10560 2d2f 01       		.uleb128 0x1
 10561 2d30 50       		.byte	0x50
 10562 2d31 02       		.uleb128 0x2
 10563 2d32 7D       		.byte	0x7d
 10564 2d33 00       		.sleb128 0
 10565 2d34 00       		.byte	0
 10566 2d35 00       		.byte	0
 10567 2d36 39       		.uleb128 0x39
 10568 2d37 590A0000 		.4byte	.LASF477
 10569 2d3b 01       		.byte	0x1
 10570 2d3c 0D04     		.2byte	0x40d
 10571 2d3e 25000000 		.4byte	0x25
 10572 2d42 01       		.byte	0x1
 10573 2d43 762D0000 		.4byte	0x2d76
 10574 2d47 47       		.uleb128 0x47
 10575 2d48 666400   		.ascii	"fd\000"
 10576 2d4b 01       		.byte	0x1
 10577 2d4c 0D04     		.2byte	0x40d
 10578 2d4e 25000000 		.4byte	0x25
 10579 2d52 3C       		.uleb128 0x3c
 10580 2d53 666800   		.ascii	"fh\000"
 10581 2d56 01       		.byte	0x1
 10582 2d57 0F04     		.2byte	0x40f
 10583 2d59 3D1C0000 		.4byte	0x1c3d
 10584 2d5d 3C       		.uleb128 0x3c
 10585 2d5e 72657300 		.ascii	"res\000"
 10586 2d62 01       		.byte	0x1
 10587 2d63 1004     		.2byte	0x410
 10588 2d65 06180000 		.4byte	0x1806
 10589 2d69 3B       		.uleb128 0x3b
 10590 2d6a 1E140000 		.4byte	.LASF410
 10591 2d6e 01       		.byte	0x1
 10592 2d6f 1104     		.2byte	0x411
 10593 2d71 391B0000 		.4byte	0x1b39
 10594 2d75 00       		.byte	0
 10595 2d76 3D       		.uleb128 0x3d
 10596 2d77 620E0000 		.4byte	.LASF478
 10597 2d7b 01       		.byte	0x1
 10598 2d7c F203     		.2byte	0x3f2
 10599 2d7e 00000000 		.4byte	.LFB318
 10600 2d82 22000000 		.4byte	.LFE318-.LFB318
 10601 2d86 01       		.uleb128 0x1
 10602 2d87 9C       		.byte	0x9c
 10603 2d88 EC2D0000 		.4byte	0x2dec
 10604 2d8c 31       		.uleb128 0x31
 10605 2d8d 666800   		.ascii	"fh\000"
 10606 2d90 01       		.byte	0x1
 10607 2d91 F403     		.2byte	0x3f4
 10608 2d93 3D1C0000 		.4byte	0x1c3d
 10609 2d97 FF0E0000 		.4byte	.LLST154
 10610 2d9b 31       		.uleb128 0x31
 10611 2d9c 6900     		.ascii	"i\000"
 10612 2d9e 01       		.byte	0x1
 10613 2d9f F503     		.2byte	0x3f5
 10614 2da1 25000000 		.4byte	0x25
ARM GAS  /tmp/ccSNToGX.s 			page 188


 10615 2da5 120F0000 		.4byte	.LLST155
 10616 2da9 50       		.uleb128 0x50
 10617 2daa E4390000 		.4byte	0x39e4
 10618 2dae 0C000000 		.4byte	.LBB166
 10619 2db2 04000000 		.4byte	.LBE166-.LBB166
 10620 2db6 01       		.byte	0x1
 10621 2db7 F903     		.2byte	0x3f9
 10622 2db9 C72D0000 		.4byte	0x2dc7
 10623 2dbd 3F       		.uleb128 0x3f
 10624 2dbe F4390000 		.4byte	0x39f4
 10625 2dc2 310F0000 		.4byte	.LLST156
 10626 2dc6 00       		.byte	0
 10627 2dc7 33       		.uleb128 0x33
 10628 2dc8 16000000 		.4byte	.LVL396
 10629 2dcc 7B1D0000 		.4byte	0x1d7b
 10630 2dd0 DB2D0000 		.4byte	0x2ddb
 10631 2dd4 34       		.uleb128 0x34
 10632 2dd5 01       		.uleb128 0x1
 10633 2dd6 50       		.byte	0x50
 10634 2dd7 02       		.uleb128 0x2
 10635 2dd8 74       		.byte	0x74
 10636 2dd9 00       		.sleb128 0
 10637 2dda 00       		.byte	0
 10638 2ddb 38       		.uleb128 0x38
 10639 2ddc 20000000 		.4byte	.LVL398
 10640 2de0 362D0000 		.4byte	0x2d36
 10641 2de4 34       		.uleb128 0x34
 10642 2de5 01       		.uleb128 0x1
 10643 2de6 50       		.byte	0x50
 10644 2de7 02       		.uleb128 0x2
 10645 2de8 74       		.byte	0x74
 10646 2de9 00       		.sleb128 0
 10647 2dea 00       		.byte	0
 10648 2deb 00       		.byte	0
 10649 2dec 2E       		.uleb128 0x2e
 10650 2ded 2A010000 		.4byte	.LASF479
 10651 2df1 01       		.byte	0x1
 10652 2df2 B303     		.2byte	0x3b3
 10653 2df4 80180000 		.4byte	0x1880
 10654 2df8 00000000 		.4byte	.LFB317
 10655 2dfc 9C000000 		.4byte	.LFE317-.LFB317
 10656 2e00 01       		.uleb128 0x1
 10657 2e01 9C       		.byte	0x9c
 10658 2e02 212F0000 		.4byte	0x2f21
 10659 2e06 35       		.uleb128 0x35
 10660 2e07 666400   		.ascii	"fd\000"
 10661 2e0a 01       		.byte	0x1
 10662 2e0b B303     		.2byte	0x3b3
 10663 2e0d 25000000 		.4byte	0x25
 10664 2e11 500F0000 		.4byte	.LLST134
 10665 2e15 35       		.uleb128 0x35
 10666 2e16 62756600 		.ascii	"buf\000"
 10667 2e1a 01       		.byte	0x1
 10668 2e1b B303     		.2byte	0x3b3
 10669 2e1d C1010000 		.4byte	0x1c1
 10670 2e21 6E0F0000 		.4byte	.LLST135
 10671 2e25 2F       		.uleb128 0x2f
ARM GAS  /tmp/ccSNToGX.s 			page 189


 10672 2e26 780B0000 		.4byte	.LASF472
 10673 2e2a 01       		.byte	0x1
 10674 2e2b B303     		.2byte	0x3b3
 10675 2e2d 2C000000 		.4byte	0x2c
 10676 2e31 CC0F0000 		.4byte	.LLST136
 10677 2e35 48       		.uleb128 0x48
 10678 2e36 93070000 		.4byte	.LASF242
 10679 2e3a 01       		.byte	0x1
 10680 2e3b B503     		.2byte	0x3b5
 10681 2e3d B1090000 		.4byte	0x9b1
 10682 2e41 02       		.uleb128 0x2
 10683 2e42 91       		.byte	0x91
 10684 2e43 64       		.sleb128 -28
 10685 2e44 30       		.uleb128 0x30
 10686 2e45 CB100000 		.4byte	.LASF473
 10687 2e49 01       		.byte	0x1
 10688 2e4a B603     		.2byte	0x3b6
 10689 2e4c B1090000 		.4byte	0x9b1
 10690 2e50 36100000 		.4byte	.LLST137
 10691 2e54 31       		.uleb128 0x31
 10692 2e55 72657300 		.ascii	"res\000"
 10693 2e59 01       		.byte	0x1
 10694 2e5a B703     		.2byte	0x3b7
 10695 2e5c 25000000 		.4byte	0x25
 10696 2e60 6D100000 		.4byte	.LLST138
 10697 2e64 31       		.uleb128 0x31
 10698 2e65 72657400 		.ascii	"ret\000"
 10699 2e69 01       		.byte	0x1
 10700 2e6a B803     		.2byte	0x3b8
 10701 2e6c 25000000 		.4byte	0x25
 10702 2e70 85100000 		.4byte	.LLST139
 10703 2e74 31       		.uleb128 0x31
 10704 2e75 666800   		.ascii	"fh\000"
 10705 2e78 01       		.byte	0x1
 10706 2e79 B903     		.2byte	0x3b9
 10707 2e7b 3D1C0000 		.4byte	0x1c3d
 10708 2e7f A3100000 		.4byte	.LLST140
 10709 2e83 30       		.uleb128 0x30
 10710 2e84 1E140000 		.4byte	.LASF410
 10711 2e88 01       		.byte	0x1
 10712 2e89 BA03     		.2byte	0x3ba
 10713 2e8b 391B0000 		.4byte	0x1b39
 10714 2e8f C1100000 		.4byte	.LLST141
 10715 2e93 4E       		.uleb128 0x4e
 10716 2e94 60000000 		.4byte	.Ldebug_ranges0+0x60
 10717 2e98 BD2E0000 		.4byte	0x2ebd
 10718 2e9c 31       		.uleb128 0x31
 10719 2e9d 70747200 		.ascii	"ptr\000"
 10720 2ea1 01       		.byte	0x1
 10721 2ea2 C603     		.2byte	0x3c6
 10722 2ea4 CE010000 		.4byte	0x1ce
 10723 2ea8 F5100000 		.4byte	.LLST142
 10724 2eac 38       		.uleb128 0x38
 10725 2ead 3A000000 		.4byte	.LVL357
 10726 2eb1 99390000 		.4byte	0x3999
 10727 2eb5 34       		.uleb128 0x34
 10728 2eb6 01       		.uleb128 0x1
ARM GAS  /tmp/ccSNToGX.s 			page 190


 10729 2eb7 50       		.byte	0x50
 10730 2eb8 02       		.uleb128 0x2
 10731 2eb9 75       		.byte	0x75
 10732 2eba 00       		.sleb128 0
 10733 2ebb 00       		.byte	0
 10734 2ebc 00       		.byte	0
 10735 2ebd 32       		.uleb128 0x32
 10736 2ebe 12000000 		.4byte	.LVL352
 10737 2ec2 54410000 		.4byte	0x4154
 10738 2ec6 33       		.uleb128 0x33
 10739 2ec7 1A000000 		.4byte	.LVL353
 10740 2ecb 07330000 		.4byte	0x3307
 10741 2ecf DA2E0000 		.4byte	0x2eda
 10742 2ed3 34       		.uleb128 0x34
 10743 2ed4 01       		.uleb128 0x1
 10744 2ed5 50       		.byte	0x50
 10745 2ed6 02       		.uleb128 0x2
 10746 2ed7 78       		.byte	0x78
 10747 2ed8 00       		.sleb128 0
 10748 2ed9 00       		.byte	0
 10749 2eda 33       		.uleb128 0x33
 10750 2edb 64000000 		.4byte	.LVL363
 10751 2edf 7B1D0000 		.4byte	0x1d7b
 10752 2ee3 EE2E0000 		.4byte	0x2eee
 10753 2ee7 34       		.uleb128 0x34
 10754 2ee8 01       		.uleb128 0x1
 10755 2ee9 50       		.byte	0x50
 10756 2eea 02       		.uleb128 0x2
 10757 2eeb 78       		.byte	0x78
 10758 2eec 00       		.sleb128 0
 10759 2eed 00       		.byte	0
 10760 2eee 32       		.uleb128 0x32
 10761 2eef 6A000000 		.4byte	.LVL364
 10762 2ef3 54410000 		.4byte	0x4154
 10763 2ef7 33       		.uleb128 0x33
 10764 2ef8 7E000000 		.4byte	.LVL367
 10765 2efc 80410000 		.4byte	0x4180
 10766 2f00 172F0000 		.4byte	0x2f17
 10767 2f04 34       		.uleb128 0x34
 10768 2f05 01       		.uleb128 0x1
 10769 2f06 51       		.byte	0x51
 10770 2f07 02       		.uleb128 0x2
 10771 2f08 74       		.byte	0x74
 10772 2f09 00       		.sleb128 0
 10773 2f0a 34       		.uleb128 0x34
 10774 2f0b 01       		.uleb128 0x1
 10775 2f0c 52       		.byte	0x52
 10776 2f0d 02       		.uleb128 0x2
 10777 2f0e 76       		.byte	0x76
 10778 2f0f 00       		.sleb128 0
 10779 2f10 34       		.uleb128 0x34
 10780 2f11 01       		.uleb128 0x1
 10781 2f12 53       		.byte	0x53
 10782 2f13 02       		.uleb128 0x2
 10783 2f14 91       		.byte	0x91
 10784 2f15 64       		.sleb128 -28
 10785 2f16 00       		.byte	0
ARM GAS  /tmp/ccSNToGX.s 			page 191


 10786 2f17 32       		.uleb128 0x32
 10787 2f18 88000000 		.4byte	.LVL369
 10788 2f1c 54410000 		.4byte	0x4154
 10789 2f20 00       		.byte	0
 10790 2f21 2E       		.uleb128 0x2e
 10791 2f22 05070000 		.4byte	.LASF480
 10792 2f26 01       		.byte	0x1
 10793 2f27 4503     		.2byte	0x345
 10794 2f29 25000000 		.4byte	0x25
 10795 2f2d 00000000 		.4byte	.LFB316
 10796 2f31 F0000000 		.4byte	.LFE316-.LFB316
 10797 2f35 01       		.uleb128 0x1
 10798 2f36 9C       		.byte	0x9c
 10799 2f37 50300000 		.4byte	0x3050
 10800 2f3b 2F       		.uleb128 0x2f
 10801 2f3c EB040000 		.4byte	.LASF446
 10802 2f40 01       		.byte	0x1
 10803 2f41 4503     		.2byte	0x345
 10804 2f43 4C060000 		.4byte	0x64c
 10805 2f47 20110000 		.4byte	.LLST188
 10806 2f4b 2F       		.uleb128 0x2f
 10807 2f4c 91140000 		.4byte	.LASF170
 10808 2f50 01       		.byte	0x1
 10809 2f51 4503     		.2byte	0x345
 10810 2f53 25000000 		.4byte	0x25
 10811 2f57 3E110000 		.4byte	.LLST189
 10812 2f5b 30       		.uleb128 0x30
 10813 2f5c B3060000 		.4byte	.LASF413
 10814 2f60 01       		.byte	0x1
 10815 2f61 4703     		.2byte	0x347
 10816 2f63 25000000 		.4byte	0x25
 10817 2f67 5C110000 		.4byte	.LLST190
 10818 2f6b 30       		.uleb128 0x30
 10819 2f6c 2F030000 		.4byte	.LASF481
 10820 2f70 01       		.byte	0x1
 10821 2f71 4803     		.2byte	0x348
 10822 2f73 25000000 		.4byte	0x25
 10823 2f77 9B110000 		.4byte	.LLST191
 10824 2f7b 30       		.uleb128 0x30
 10825 2f7c 1E140000 		.4byte	.LASF410
 10826 2f80 01       		.byte	0x1
 10827 2f81 4903     		.2byte	0x349
 10828 2f83 391B0000 		.4byte	0x1b39
 10829 2f87 C4110000 		.4byte	.LLST192
 10830 2f8b 31       		.uleb128 0x31
 10831 2f8c 666800   		.ascii	"fh\000"
 10832 2f8f 01       		.byte	0x1
 10833 2f90 4A03     		.2byte	0x34a
 10834 2f92 3D1C0000 		.4byte	0x1c3d
 10835 2f96 ED110000 		.4byte	.LLST193
 10836 2f9a 31       		.uleb128 0x31
 10837 2f9b 72657300 		.ascii	"res\000"
 10838 2f9f 01       		.byte	0x1
 10839 2fa0 4B03     		.2byte	0x34b
 10840 2fa2 25000000 		.4byte	0x25
 10841 2fa6 21120000 		.4byte	.LLST194
 10842 2faa 32       		.uleb128 0x32
ARM GAS  /tmp/ccSNToGX.s 			page 192


 10843 2fab 0C000000 		.4byte	.LVL472
 10844 2faf 54410000 		.4byte	0x4154
 10845 2fb3 32       		.uleb128 0x32
 10846 2fb4 38000000 		.4byte	.LVL476
 10847 2fb8 131D0000 		.4byte	0x1d13
 10848 2fbc 33       		.uleb128 0x33
 10849 2fbd 3E000000 		.4byte	.LVL478
 10850 2fc1 07330000 		.4byte	0x3307
 10851 2fc5 D02F0000 		.4byte	0x2fd0
 10852 2fc9 34       		.uleb128 0x34
 10853 2fca 01       		.uleb128 0x1
 10854 2fcb 50       		.byte	0x50
 10855 2fcc 02       		.uleb128 0x2
 10856 2fcd 74       		.byte	0x74
 10857 2fce 00       		.sleb128 0
 10858 2fcf 00       		.byte	0
 10859 2fd0 32       		.uleb128 0x32
 10860 2fd1 48000000 		.4byte	.LVL481
 10861 2fd5 461D0000 		.4byte	0x1d46
 10862 2fd9 32       		.uleb128 0x32
 10863 2fda 52000000 		.4byte	.LVL484
 10864 2fde 7B1D0000 		.4byte	0x1d7b
 10865 2fe2 33       		.uleb128 0x33
 10866 2fe3 5C000000 		.4byte	.LVL486
 10867 2fe7 461D0000 		.4byte	0x1d46
 10868 2feb F62F0000 		.4byte	0x2ff6
 10869 2fef 34       		.uleb128 0x34
 10870 2ff0 01       		.uleb128 0x1
 10871 2ff1 50       		.byte	0x50
 10872 2ff2 02       		.uleb128 0x2
 10873 2ff3 74       		.byte	0x74
 10874 2ff4 00       		.sleb128 0
 10875 2ff5 00       		.byte	0
 10876 2ff6 32       		.uleb128 0x32
 10877 2ff7 60000000 		.4byte	.LVL487
 10878 2ffb 54410000 		.4byte	0x4154
 10879 2fff 33       		.uleb128 0x33
 10880 3000 76000000 		.4byte	.LVL491
 10881 3004 4C420000 		.4byte	0x424c
 10882 3008 19300000 		.4byte	0x3019
 10883 300c 34       		.uleb128 0x34
 10884 300d 01       		.uleb128 0x1
 10885 300e 51       		.byte	0x51
 10886 300f 02       		.uleb128 0x2
 10887 3010 7A       		.byte	0x7a
 10888 3011 00       		.sleb128 0
 10889 3012 34       		.uleb128 0x34
 10890 3013 01       		.uleb128 0x1
 10891 3014 52       		.byte	0x52
 10892 3015 02       		.uleb128 0x2
 10893 3016 76       		.byte	0x76
 10894 3017 00       		.sleb128 0
 10895 3018 00       		.byte	0
 10896 3019 32       		.uleb128 0x32
 10897 301a 7E000000 		.4byte	.LVL493
 10898 301e 54410000 		.4byte	0x4154
 10899 3022 33       		.uleb128 0x33
ARM GAS  /tmp/ccSNToGX.s 			page 193


 10900 3023 9E000000 		.4byte	.LVL497
 10901 3027 8B410000 		.4byte	0x418b
 10902 302b 36300000 		.4byte	0x3036
 10903 302f 34       		.uleb128 0x34
 10904 3030 01       		.uleb128 0x1
 10905 3031 50       		.byte	0x50
 10906 3032 02       		.uleb128 0x2
 10907 3033 79       		.byte	0x79
 10908 3034 00       		.sleb128 0
 10909 3035 00       		.byte	0
 10910 3036 32       		.uleb128 0x32
 10911 3037 A6000000 		.4byte	.LVL498
 10912 303b 54410000 		.4byte	0x4154
 10913 303f 38       		.uleb128 0x38
 10914 3040 B8000000 		.4byte	.LVL500
 10915 3044 62420000 		.4byte	0x4262
 10916 3048 34       		.uleb128 0x34
 10917 3049 01       		.uleb128 0x1
 10918 304a 50       		.byte	0x50
 10919 304b 02       		.uleb128 0x2
 10920 304c 79       		.byte	0x79
 10921 304d 00       		.sleb128 0
 10922 304e 00       		.byte	0
 10923 304f 00       		.byte	0
 10924 3050 2E       		.uleb128 0x2e
 10925 3051 EE000000 		.4byte	.LASF482
 10926 3055 01       		.byte	0x1
 10927 3056 2A03     		.2byte	0x32a
 10928 3058 2C000000 		.4byte	0x2c
 10929 305c 00000000 		.4byte	.LFB315
 10930 3060 1C000000 		.4byte	.LFE315-.LFB315
 10931 3064 01       		.uleb128 0x1
 10932 3065 9C       		.byte	0x9c
 10933 3066 03310000 		.4byte	0x3103
 10934 306a 35       		.uleb128 0x35
 10935 306b 70747200 		.ascii	"ptr\000"
 10936 306f 01       		.byte	0x1
 10937 3070 2A03     		.2byte	0x32a
 10938 3072 812C0000 		.4byte	0x2c81
 10939 3076 59120000 		.4byte	.LLST167
 10940 307a 2F       		.uleb128 0x2f
 10941 307b 93070000 		.4byte	.LASF242
 10942 307f 01       		.byte	0x1
 10943 3080 2A03     		.2byte	0x32a
 10944 3082 2C000000 		.4byte	0x2c
 10945 3086 77120000 		.4byte	.LLST168
 10946 308a 2F       		.uleb128 0x2f
 10947 308b E7090000 		.4byte	.LASF483
 10948 308f 01       		.byte	0x1
 10949 3090 2A03     		.2byte	0x32a
 10950 3092 2C000000 		.4byte	0x2c
 10951 3096 98120000 		.4byte	.LLST169
 10952 309a 2F       		.uleb128 0x2f
 10953 309b 1E140000 		.4byte	.LASF410
 10954 309f 01       		.byte	0x1
 10955 30a0 2A03     		.2byte	0x32a
 10956 30a2 391B0000 		.4byte	0x1b39
ARM GAS  /tmp/ccSNToGX.s 			page 194


 10957 30a6 B9120000 		.4byte	.LLST170
 10958 30aa 48       		.uleb128 0x48
 10959 30ab 780B0000 		.4byte	.LASF472
 10960 30af 01       		.byte	0x1
 10961 30b0 2C03     		.2byte	0x32c
 10962 30b2 2C000000 		.4byte	0x2c
 10963 30b6 01       		.uleb128 0x1
 10964 30b7 55       		.byte	0x55
 10965 30b8 31       		.uleb128 0x31
 10966 30b9 666E00   		.ascii	"fn\000"
 10967 30bc 01       		.byte	0x1
 10968 30bd 2D03     		.2byte	0x32d
 10969 30bf 25000000 		.4byte	0x25
 10970 30c3 DA120000 		.4byte	.LLST171
 10971 30c7 31       		.uleb128 0x31
 10972 30c8 72657400 		.ascii	"ret\000"
 10973 30cc 01       		.byte	0x1
 10974 30cd 2E03     		.2byte	0x32e
 10975 30cf 80180000 		.4byte	0x1880
 10976 30d3 ED120000 		.4byte	.LLST172
 10977 30d7 33       		.uleb128 0x33
 10978 30d8 0E000000 		.4byte	.LVL422
 10979 30dc 31330000 		.4byte	0x3331
 10980 30e0 EC300000 		.4byte	0x30ec
 10981 30e4 34       		.uleb128 0x34
 10982 30e5 01       		.uleb128 0x1
 10983 30e6 50       		.byte	0x50
 10984 30e7 03       		.uleb128 0x3
 10985 30e8 F3       		.byte	0xf3
 10986 30e9 01       		.uleb128 0x1
 10987 30ea 53       		.byte	0x53
 10988 30eb 00       		.byte	0
 10989 30ec 38       		.uleb128 0x38
 10990 30ed 16000000 		.4byte	.LVL423
 10991 30f1 322B0000 		.4byte	0x2b32
 10992 30f5 34       		.uleb128 0x34
 10993 30f6 01       		.uleb128 0x1
 10994 30f7 51       		.byte	0x51
 10995 30f8 02       		.uleb128 0x2
 10996 30f9 74       		.byte	0x74
 10997 30fa 00       		.sleb128 0
 10998 30fb 34       		.uleb128 0x34
 10999 30fc 01       		.uleb128 0x1
 11000 30fd 52       		.byte	0x52
 11001 30fe 02       		.uleb128 0x2
 11002 30ff 75       		.byte	0x75
 11003 3100 00       		.sleb128 0
 11004 3101 00       		.byte	0
 11005 3102 00       		.byte	0
 11006 3103 2E       		.uleb128 0x2e
 11007 3104 63090000 		.4byte	.LASF484
 11008 3108 01       		.byte	0x1
 11009 3109 0103     		.2byte	0x301
 11010 310b 25000000 		.4byte	0x25
 11011 310f 00000000 		.4byte	.LFB314
 11012 3113 54000000 		.4byte	.LFE314-.LFB314
 11013 3117 01       		.uleb128 0x1
ARM GAS  /tmp/ccSNToGX.s 			page 195


 11014 3118 9C       		.byte	0x9c
 11015 3119 C7310000 		.4byte	0x31c7
 11016 311d 35       		.uleb128 0x35
 11017 311e 666400   		.ascii	"fd\000"
 11018 3121 01       		.byte	0x1
 11019 3122 0103     		.2byte	0x301
 11020 3124 25000000 		.4byte	0x25
 11021 3128 00130000 		.4byte	.LLST129
 11022 312c 2F       		.uleb128 0x2f
 11023 312d 8C020000 		.4byte	.LASF476
 11024 3131 01       		.byte	0x1
 11025 3132 0103     		.2byte	0x301
 11026 3134 54180000 		.4byte	0x1854
 11027 3138 45130000 		.4byte	.LLST130
 11028 313c 31       		.uleb128 0x31
 11029 313d 666800   		.ascii	"fh\000"
 11030 3140 01       		.byte	0x1
 11031 3141 0403     		.2byte	0x304
 11032 3143 3D1C0000 		.4byte	0x1c3d
 11033 3147 63130000 		.4byte	.LLST131
 11034 314b 31       		.uleb128 0x31
 11035 314c 726300   		.ascii	"rc\000"
 11036 314f 01       		.byte	0x1
 11037 3150 0503     		.2byte	0x305
 11038 3152 06180000 		.4byte	0x1806
 11039 3156 8C130000 		.4byte	.LLST132
 11040 315a 51       		.uleb128 0x51
 11041 315b E4390000 		.4byte	0x39e4
 11042 315f 0C000000 		.4byte	.LBB149
 11043 3163 48000000 		.4byte	.Ldebug_ranges0+0x48
 11044 3167 01       		.byte	0x1
 11045 3168 0703     		.2byte	0x307
 11046 316a 78310000 		.4byte	0x3178
 11047 316e 3F       		.uleb128 0x3f
 11048 316f F4390000 		.4byte	0x39f4
 11049 3173 B5130000 		.4byte	.LLST133
 11050 3177 00       		.byte	0
 11051 3178 32       		.uleb128 0x32
 11052 3179 0A000000 		.4byte	.LVL338
 11053 317d 54410000 		.4byte	0x4154
 11054 3181 33       		.uleb128 0x33
 11055 3182 1E000000 		.4byte	.LVL343
 11056 3186 57420000 		.4byte	0x4257
 11057 318a 95310000 		.4byte	0x3195
 11058 318e 34       		.uleb128 0x34
 11059 318f 01       		.uleb128 0x1
 11060 3190 50       		.byte	0x50
 11061 3191 02       		.uleb128 0x2
 11062 3192 75       		.byte	0x75
 11063 3193 00       		.sleb128 0
 11064 3194 00       		.byte	0
 11065 3195 33       		.uleb128 0x33
 11066 3196 2A000000 		.4byte	.LVL345
 11067 319a 7B1D0000 		.4byte	0x1d7b
 11068 319e A9310000 		.4byte	0x31a9
 11069 31a2 34       		.uleb128 0x34
 11070 31a3 01       		.uleb128 0x1
ARM GAS  /tmp/ccSNToGX.s 			page 196


 11071 31a4 50       		.byte	0x50
 11072 31a5 02       		.uleb128 0x2
 11073 31a6 74       		.byte	0x74
 11074 31a7 00       		.sleb128 0
 11075 31a8 00       		.byte	0
 11076 31a9 33       		.uleb128 0x33
 11077 31aa 38000000 		.4byte	.LVL346
 11078 31ae 8B410000 		.4byte	0x418b
 11079 31b2 BD310000 		.4byte	0x31bd
 11080 31b6 34       		.uleb128 0x34
 11081 31b7 01       		.uleb128 0x1
 11082 31b8 50       		.byte	0x50
 11083 31b9 02       		.uleb128 0x2
 11084 31ba 75       		.byte	0x75
 11085 31bb 00       		.sleb128 0
 11086 31bc 00       		.byte	0
 11087 31bd 32       		.uleb128 0x32
 11088 31be 42000000 		.4byte	.LVL348
 11089 31c2 54410000 		.4byte	0x4154
 11090 31c6 00       		.byte	0
 11091 31c7 2E       		.uleb128 0x2e
 11092 31c8 1E0E0000 		.4byte	.LASF485
 11093 31cc 01       		.byte	0x1
 11094 31cd E902     		.2byte	0x2e9
 11095 31cf 2C000000 		.4byte	0x2c
 11096 31d3 00000000 		.4byte	.LFB313
 11097 31d7 1C000000 		.4byte	.LFE313-.LFB313
 11098 31db 01       		.uleb128 0x1
 11099 31dc 9C       		.byte	0x9c
 11100 31dd 7A320000 		.4byte	0x327a
 11101 31e1 35       		.uleb128 0x35
 11102 31e2 70747200 		.ascii	"ptr\000"
 11103 31e6 01       		.byte	0x1
 11104 31e7 E902     		.2byte	0x2e9
 11105 31e9 C1010000 		.4byte	0x1c1
 11106 31ed C8130000 		.4byte	.LLST143
 11107 31f1 2F       		.uleb128 0x2f
 11108 31f2 93070000 		.4byte	.LASF242
 11109 31f6 01       		.byte	0x1
 11110 31f7 E902     		.2byte	0x2e9
 11111 31f9 2C000000 		.4byte	0x2c
 11112 31fd E6130000 		.4byte	.LLST144
 11113 3201 2F       		.uleb128 0x2f
 11114 3202 E7090000 		.4byte	.LASF483
 11115 3206 01       		.byte	0x1
 11116 3207 E902     		.2byte	0x2e9
 11117 3209 2C000000 		.4byte	0x2c
 11118 320d 07140000 		.4byte	.LLST145
 11119 3211 2F       		.uleb128 0x2f
 11120 3212 1E140000 		.4byte	.LASF410
 11121 3216 01       		.byte	0x1
 11122 3217 E902     		.2byte	0x2e9
 11123 3219 391B0000 		.4byte	0x1b39
 11124 321d 28140000 		.4byte	.LLST146
 11125 3221 48       		.uleb128 0x48
 11126 3222 780B0000 		.4byte	.LASF472
 11127 3226 01       		.byte	0x1
ARM GAS  /tmp/ccSNToGX.s 			page 197


 11128 3227 EB02     		.2byte	0x2eb
 11129 3229 2C000000 		.4byte	0x2c
 11130 322d 01       		.uleb128 0x1
 11131 322e 55       		.byte	0x55
 11132 322f 31       		.uleb128 0x31
 11133 3230 666E00   		.ascii	"fn\000"
 11134 3233 01       		.byte	0x1
 11135 3234 EC02     		.2byte	0x2ec
 11136 3236 25000000 		.4byte	0x25
 11137 323a 49140000 		.4byte	.LLST147
 11138 323e 31       		.uleb128 0x31
 11139 323f 72657400 		.ascii	"ret\000"
 11140 3243 01       		.byte	0x1
 11141 3244 ED02     		.2byte	0x2ed
 11142 3246 80180000 		.4byte	0x1880
 11143 324a 5C140000 		.4byte	.LLST148
 11144 324e 33       		.uleb128 0x33
 11145 324f 0E000000 		.4byte	.LVL373
 11146 3253 31330000 		.4byte	0x3331
 11147 3257 63320000 		.4byte	0x3263
 11148 325b 34       		.uleb128 0x34
 11149 325c 01       		.uleb128 0x1
 11150 325d 50       		.byte	0x50
 11151 325e 03       		.uleb128 0x3
 11152 325f F3       		.byte	0xf3
 11153 3260 01       		.uleb128 0x1
 11154 3261 53       		.byte	0x53
 11155 3262 00       		.byte	0
 11156 3263 38       		.uleb128 0x38
 11157 3264 16000000 		.4byte	.LVL374
 11158 3268 EC2D0000 		.4byte	0x2dec
 11159 326c 34       		.uleb128 0x34
 11160 326d 01       		.uleb128 0x1
 11161 326e 51       		.byte	0x51
 11162 326f 02       		.uleb128 0x2
 11163 3270 74       		.byte	0x74
 11164 3271 00       		.sleb128 0
 11165 3272 34       		.uleb128 0x34
 11166 3273 01       		.uleb128 0x1
 11167 3274 52       		.byte	0x52
 11168 3275 02       		.uleb128 0x2
 11169 3276 75       		.byte	0x75
 11170 3277 00       		.sleb128 0
 11171 3278 00       		.byte	0
 11172 3279 00       		.byte	0
 11173 327a 2E       		.uleb128 0x2e
 11174 327b DB110000 		.4byte	.LASF486
 11175 327f 01       		.byte	0x1
 11176 3280 D402     		.2byte	0x2d4
 11177 3282 391B0000 		.4byte	0x1b39
 11178 3286 00000000 		.4byte	.LFB312
 11179 328a 1A000000 		.4byte	.LFE312-.LFB312
 11180 328e 01       		.uleb128 0x1
 11181 328f 9C       		.byte	0x9c
 11182 3290 07330000 		.4byte	0x3307
 11183 3294 2F       		.uleb128 0x2f
 11184 3295 FD0B0000 		.4byte	.LASF475
ARM GAS  /tmp/ccSNToGX.s 			page 198


 11185 3299 01       		.byte	0x1
 11186 329a D402     		.2byte	0x2d4
 11187 329c 4C060000 		.4byte	0x64c
 11188 32a0 6F140000 		.4byte	.LLST197
 11189 32a4 2F       		.uleb128 0x2f
 11190 32a5 4C050000 		.4byte	.LASF417
 11191 32a9 01       		.byte	0x1
 11192 32aa D402     		.2byte	0x2d4
 11193 32ac 4C060000 		.4byte	0x64c
 11194 32b0 9B140000 		.4byte	.LLST198
 11195 32b4 30       		.uleb128 0x30
 11196 32b5 91140000 		.4byte	.LASF170
 11197 32b9 01       		.byte	0x1
 11198 32ba D602     		.2byte	0x2d6
 11199 32bc 25000000 		.4byte	0x25
 11200 32c0 BC140000 		.4byte	.LLST199
 11201 32c4 30       		.uleb128 0x30
 11202 32c5 B3060000 		.4byte	.LASF413
 11203 32c9 01       		.byte	0x1
 11204 32ca D702     		.2byte	0x2d7
 11205 32cc 25000000 		.4byte	0x25
 11206 32d0 DA140000 		.4byte	.LLST200
 11207 32d4 33       		.uleb128 0x33
 11208 32d5 0A000000 		.4byte	.LVL523
 11209 32d9 E91C0000 		.4byte	0x1ce9
 11210 32dd E9320000 		.4byte	0x32e9
 11211 32e1 34       		.uleb128 0x34
 11212 32e2 01       		.uleb128 0x1
 11213 32e3 50       		.byte	0x50
 11214 32e4 03       		.uleb128 0x3
 11215 32e5 F3       		.byte	0xf3
 11216 32e6 01       		.uleb128 0x1
 11217 32e7 51       		.byte	0x51
 11218 32e8 00       		.byte	0
 11219 32e9 33       		.uleb128 0x33
 11220 32ea 12000000 		.4byte	.LVL525
 11221 32ee 212F0000 		.4byte	0x2f21
 11222 32f2 FD320000 		.4byte	0x32fd
 11223 32f6 34       		.uleb128 0x34
 11224 32f7 01       		.uleb128 0x1
 11225 32f8 50       		.byte	0x50
 11226 32f9 02       		.uleb128 0x2
 11227 32fa 74       		.byte	0x74
 11228 32fb 00       		.sleb128 0
 11229 32fc 00       		.byte	0
 11230 32fd 4C       		.uleb128 0x4c
 11231 32fe 1A000000 		.4byte	.LVL527
 11232 3302 07330000 		.4byte	0x3307
 11233 3306 00       		.byte	0
 11234 3307 39       		.uleb128 0x39
 11235 3308 F50C0000 		.4byte	.LASF487
 11236 330c 01       		.byte	0x1
 11237 330d B802     		.2byte	0x2b8
 11238 330f 391B0000 		.4byte	0x1b39
 11239 3313 01       		.byte	0x1
 11240 3314 31330000 		.4byte	0x3331
 11241 3318 3A       		.uleb128 0x3a
ARM GAS  /tmp/ccSNToGX.s 			page 199


 11242 3319 B3060000 		.4byte	.LASF413
 11243 331d 01       		.byte	0x1
 11244 331e B802     		.2byte	0x2b8
 11245 3320 25000000 		.4byte	0x25
 11246 3324 3B       		.uleb128 0x3b
 11247 3325 1E140000 		.4byte	.LASF410
 11248 3329 01       		.byte	0x1
 11249 332a BA02     		.2byte	0x2ba
 11250 332c 391B0000 		.4byte	0x1b39
 11251 3330 00       		.byte	0
 11252 3331 39       		.uleb128 0x39
 11253 3332 B3060000 		.4byte	.LASF413
 11254 3336 01       		.byte	0x1
 11255 3337 9A02     		.2byte	0x29a
 11256 3339 25000000 		.4byte	0x25
 11257 333d 01       		.byte	0x1
 11258 333e 5B330000 		.4byte	0x335b
 11259 3342 3A       		.uleb128 0x3a
 11260 3343 1E140000 		.4byte	.LASF410
 11261 3347 01       		.byte	0x1
 11262 3348 9A02     		.2byte	0x29a
 11263 334a 391B0000 		.4byte	0x1b39
 11264 334e 3B       		.uleb128 0x3b
 11265 334f B3060000 		.4byte	.LASF413
 11266 3353 01       		.byte	0x1
 11267 3354 9C02     		.2byte	0x29c
 11268 3356 25000000 		.4byte	0x25
 11269 335a 00       		.byte	0
 11270 335b 2E       		.uleb128 0x2e
 11271 335c A80C0000 		.4byte	.LASF488
 11272 3360 01       		.byte	0x1
 11273 3361 7302     		.2byte	0x273
 11274 3363 25000000 		.4byte	0x25
 11275 3367 00000000 		.4byte	.LFB309
 11276 336b 4C000000 		.4byte	.LFE309-.LFB309
 11277 336f 01       		.uleb128 0x1
 11278 3370 9C       		.byte	0x9c
 11279 3371 0C340000 		.4byte	0x340c
 11280 3375 2F       		.uleb128 0x2f
 11281 3376 B3060000 		.4byte	.LASF413
 11282 337a 01       		.byte	0x1
 11283 337b 7302     		.2byte	0x273
 11284 337d 25000000 		.4byte	0x25
 11285 3381 ED140000 		.4byte	.LLST178
 11286 3385 30       		.uleb128 0x30
 11287 3386 1E140000 		.4byte	.LASF410
 11288 338a 01       		.byte	0x1
 11289 338b 7502     		.2byte	0x275
 11290 338d 391B0000 		.4byte	0x1b39
 11291 3391 19150000 		.4byte	.LLST179
 11292 3395 31       		.uleb128 0x31
 11293 3396 666800   		.ascii	"fh\000"
 11294 3399 01       		.byte	0x1
 11295 339a 7602     		.2byte	0x276
 11296 339c 3D1C0000 		.4byte	0x1c3d
 11297 33a0 37150000 		.4byte	.LLST180
 11298 33a4 31       		.uleb128 0x31
ARM GAS  /tmp/ccSNToGX.s 			page 200


 11299 33a5 72657300 		.ascii	"res\000"
 11300 33a9 01       		.byte	0x1
 11301 33aa 7702     		.2byte	0x277
 11302 33ac 25000000 		.4byte	0x25
 11303 33b0 4A150000 		.4byte	.LLST181
 11304 33b4 32       		.uleb128 0x32
 11305 33b5 08000000 		.4byte	.LVL437
 11306 33b9 54410000 		.4byte	0x4154
 11307 33bd 33       		.uleb128 0x33
 11308 33be 12000000 		.4byte	.LVL438
 11309 33c2 07330000 		.4byte	0x3307
 11310 33c6 D1330000 		.4byte	0x33d1
 11311 33ca 34       		.uleb128 0x34
 11312 33cb 01       		.uleb128 0x1
 11313 33cc 50       		.byte	0x50
 11314 33cd 02       		.uleb128 0x2
 11315 33ce 75       		.byte	0x75
 11316 33cf 00       		.sleb128 0
 11317 33d0 00       		.byte	0
 11318 33d1 33       		.uleb128 0x33
 11319 33d2 20000000 		.4byte	.LVL442
 11320 33d6 7B1D0000 		.4byte	0x1d7b
 11321 33da E5330000 		.4byte	0x33e5
 11322 33de 34       		.uleb128 0x34
 11323 33df 01       		.uleb128 0x1
 11324 33e0 50       		.byte	0x50
 11325 33e1 02       		.uleb128 0x2
 11326 33e2 75       		.byte	0x75
 11327 33e3 00       		.sleb128 0
 11328 33e4 00       		.byte	0
 11329 33e5 32       		.uleb128 0x32
 11330 33e6 28000000 		.4byte	.LVL443
 11331 33ea 62420000 		.4byte	0x4262
 11332 33ee 33       		.uleb128 0x33
 11333 33ef 30000000 		.4byte	.LVL445
 11334 33f3 461D0000 		.4byte	0x1d46
 11335 33f7 02340000 		.4byte	0x3402
 11336 33fb 34       		.uleb128 0x34
 11337 33fc 01       		.uleb128 0x1
 11338 33fd 50       		.byte	0x50
 11339 33fe 02       		.uleb128 0x2
 11340 33ff 75       		.byte	0x75
 11341 3400 00       		.sleb128 0
 11342 3401 00       		.byte	0
 11343 3402 32       		.uleb128 0x32
 11344 3403 36000000 		.4byte	.LVL446
 11345 3407 54410000 		.4byte	0x4154
 11346 340b 00       		.byte	0
 11347 340c 3D       		.uleb128 0x3d
 11348 340d D8060000 		.4byte	.LASF489
 11349 3411 01       		.byte	0x1
 11350 3412 6002     		.2byte	0x260
 11351 3414 00000000 		.4byte	.LFB308
 11352 3418 08000000 		.4byte	.LFE308-.LFB308
 11353 341c 01       		.uleb128 0x1
 11354 341d 9C       		.byte	0x9c
 11355 341e 4E340000 		.4byte	0x344e
ARM GAS  /tmp/ccSNToGX.s 			page 201


 11356 3422 2F       		.uleb128 0x2f
 11357 3423 1E140000 		.4byte	.LASF410
 11358 3427 01       		.byte	0x1
 11359 3428 6002     		.2byte	0x260
 11360 342a 391B0000 		.4byte	0x1b39
 11361 342e 62150000 		.4byte	.LLST128
 11362 3432 4D       		.uleb128 0x4d
 11363 3433 08000000 		.4byte	.LVL336
 11364 3437 C8350000 		.4byte	0x35c8
 11365 343b 34       		.uleb128 0x34
 11366 343c 01       		.uleb128 0x1
 11367 343d 50       		.byte	0x50
 11368 343e 03       		.uleb128 0x3
 11369 343f F3       		.byte	0xf3
 11370 3440 01       		.uleb128 0x1
 11371 3441 50       		.byte	0x50
 11372 3442 34       		.uleb128 0x34
 11373 3443 01       		.uleb128 0x1
 11374 3444 51       		.byte	0x51
 11375 3445 01       		.uleb128 0x1
 11376 3446 30       		.byte	0x30
 11377 3447 34       		.uleb128 0x34
 11378 3448 01       		.uleb128 0x1
 11379 3449 52       		.byte	0x52
 11380 344a 01       		.uleb128 0x1
 11381 344b 30       		.byte	0x30
 11382 344c 00       		.byte	0
 11383 344d 00       		.byte	0
 11384 344e 2E       		.uleb128 0x2e
 11385 344f A20C0000 		.4byte	.LASF490
 11386 3453 01       		.byte	0x1
 11387 3454 3402     		.2byte	0x234
 11388 3456 54180000 		.4byte	0x1854
 11389 345a 00000000 		.4byte	.LFB307
 11390 345e 70000000 		.4byte	.LFE307-.LFB307
 11391 3462 01       		.uleb128 0x1
 11392 3463 9C       		.byte	0x9c
 11393 3464 3D350000 		.4byte	0x353d
 11394 3468 2F       		.uleb128 0x2f
 11395 3469 B3060000 		.4byte	.LASF413
 11396 346d 01       		.byte	0x1
 11397 346e 3402     		.2byte	0x234
 11398 3470 25000000 		.4byte	0x25
 11399 3474 83150000 		.4byte	.LLST114
 11400 3478 2F       		.uleb128 0x2f
 11401 3479 D80D0000 		.4byte	.LASF491
 11402 347d 01       		.byte	0x1
 11403 347e 3402     		.2byte	0x234
 11404 3480 54180000 		.4byte	0x1854
 11405 3484 AF150000 		.4byte	.LLST115
 11406 3488 2F       		.uleb128 0x2f
 11407 3489 3B050000 		.4byte	.LASF492
 11408 348d 01       		.byte	0x1
 11409 348e 3402     		.2byte	0x234
 11410 3490 25000000 		.4byte	0x25
 11411 3494 E3150000 		.4byte	.LLST116
 11412 3498 31       		.uleb128 0x31
ARM GAS  /tmp/ccSNToGX.s 			page 202


 11413 3499 72657300 		.ascii	"res\000"
 11414 349d 01       		.byte	0x1
 11415 349e 3602     		.2byte	0x236
 11416 34a0 06180000 		.4byte	0x1806
 11417 34a4 0F160000 		.4byte	.LLST117
 11418 34a8 31       		.uleb128 0x31
 11419 34a9 666800   		.ascii	"fh\000"
 11420 34ac 01       		.byte	0x1
 11421 34ad 3702     		.2byte	0x237
 11422 34af 3D1C0000 		.4byte	0x1c3d
 11423 34b3 2D160000 		.4byte	.LLST118
 11424 34b7 30       		.uleb128 0x30
 11425 34b8 1E140000 		.4byte	.LASF410
 11426 34bc 01       		.byte	0x1
 11427 34bd 3902     		.2byte	0x239
 11428 34bf 391B0000 		.4byte	0x1b39
 11429 34c3 61160000 		.4byte	.LLST119
 11430 34c7 50       		.uleb128 0x50
 11431 34c8 E4390000 		.4byte	0x39e4
 11432 34cc 28000000 		.4byte	.LBB147
 11433 34d0 04000000 		.4byte	.LBE147-.LBB147
 11434 34d4 01       		.byte	0x1
 11435 34d5 4302     		.2byte	0x243
 11436 34d7 E5340000 		.4byte	0x34e5
 11437 34db 3F       		.uleb128 0x3f
 11438 34dc F4390000 		.4byte	0x39f4
 11439 34e0 7F160000 		.4byte	.LLST120
 11440 34e4 00       		.byte	0
 11441 34e5 32       		.uleb128 0x32
 11442 34e6 0C000000 		.4byte	.LVL308
 11443 34ea 54410000 		.4byte	0x4154
 11444 34ee 33       		.uleb128 0x33
 11445 34ef 16000000 		.4byte	.LVL309
 11446 34f3 7B1D0000 		.4byte	0x1d7b
 11447 34f7 02350000 		.4byte	0x3502
 11448 34fb 34       		.uleb128 0x34
 11449 34fc 01       		.uleb128 0x1
 11450 34fd 50       		.byte	0x50
 11451 34fe 02       		.uleb128 0x2
 11452 34ff 76       		.byte	0x76
 11453 3500 00       		.sleb128 0
 11454 3501 00       		.byte	0
 11455 3502 32       		.uleb128 0x32
 11456 3503 1E000000 		.4byte	.LVL310
 11457 3507 54410000 		.4byte	0x4154
 11458 350b 33       		.uleb128 0x33
 11459 350c 32000000 		.4byte	.LVL315
 11460 3510 07330000 		.4byte	0x3307
 11461 3514 1F350000 		.4byte	0x351f
 11462 3518 34       		.uleb128 0x34
 11463 3519 01       		.uleb128 0x1
 11464 351a 50       		.byte	0x50
 11465 351b 02       		.uleb128 0x2
 11466 351c 76       		.byte	0x76
 11467 351d 00       		.sleb128 0
 11468 351e 00       		.byte	0
 11469 351f 33       		.uleb128 0x33
ARM GAS  /tmp/ccSNToGX.s 			page 203


 11470 3520 4C000000 		.4byte	.LVL318
 11471 3524 8B410000 		.4byte	0x418b
 11472 3528 33350000 		.4byte	0x3533
 11473 352c 34       		.uleb128 0x34
 11474 352d 01       		.uleb128 0x1
 11475 352e 50       		.byte	0x50
 11476 352f 02       		.uleb128 0x2
 11477 3530 74       		.byte	0x74
 11478 3531 00       		.sleb128 0
 11479 3532 00       		.byte	0
 11480 3533 32       		.uleb128 0x32
 11481 3534 54000000 		.4byte	.LVL320
 11482 3538 54410000 		.4byte	0x4154
 11483 353c 00       		.byte	0
 11484 353d 39       		.uleb128 0x39
 11485 353e 43070000 		.4byte	.LASF493
 11486 3542 01       		.byte	0x1
 11487 3543 1402     		.2byte	0x214
 11488 3545 99000000 		.4byte	0x99
 11489 3549 01       		.byte	0x1
 11490 354a 71350000 		.4byte	0x3571
 11491 354e 3A       		.uleb128 0x3a
 11492 354f 1E140000 		.4byte	.LASF410
 11493 3553 01       		.byte	0x1
 11494 3554 1402     		.2byte	0x214
 11495 3556 391B0000 		.4byte	0x1b39
 11496 355a 3C       		.uleb128 0x3c
 11497 355b 666E00   		.ascii	"fn\000"
 11498 355e 01       		.byte	0x1
 11499 355f 1802     		.2byte	0x218
 11500 3561 25000000 		.4byte	0x25
 11501 3565 3C       		.uleb128 0x3c
 11502 3566 666800   		.ascii	"fh\000"
 11503 3569 01       		.byte	0x1
 11504 356a 1C02     		.2byte	0x21c
 11505 356c 3D1C0000 		.4byte	0x1c3d
 11506 3570 00       		.byte	0
 11507 3571 2E       		.uleb128 0x2e
 11508 3572 720F0000 		.4byte	.LASF494
 11509 3576 01       		.byte	0x1
 11510 3577 0602     		.2byte	0x206
 11511 3579 25000000 		.4byte	0x25
 11512 357d 00000000 		.4byte	.LFB305
 11513 3581 08000000 		.4byte	.LFE305-.LFB305
 11514 3585 01       		.uleb128 0x1
 11515 3586 9C       		.byte	0x9c
 11516 3587 C2350000 		.4byte	0x35c2
 11517 358b 2F       		.uleb128 0x2f
 11518 358c 1E140000 		.4byte	.LASF410
 11519 3590 01       		.byte	0x1
 11520 3591 0602     		.2byte	0x206
 11521 3593 391B0000 		.4byte	0x1b39
 11522 3597 92160000 		.4byte	.LLST126
 11523 359b 35       		.uleb128 0x35
 11524 359c 706F7300 		.ascii	"pos\000"
 11525 35a0 01       		.byte	0x1
 11526 35a1 0602     		.2byte	0x206
ARM GAS  /tmp/ccSNToGX.s 			page 204


 11527 35a3 C2350000 		.4byte	0x35c2
 11528 35a7 B3160000 		.4byte	.LLST127
 11529 35ab 4D       		.uleb128 0x4d
 11530 35ac 08000000 		.4byte	.LVL334
 11531 35b0 C8350000 		.4byte	0x35c8
 11532 35b4 34       		.uleb128 0x34
 11533 35b5 01       		.uleb128 0x1
 11534 35b6 50       		.byte	0x50
 11535 35b7 03       		.uleb128 0x3
 11536 35b8 F3       		.byte	0xf3
 11537 35b9 01       		.uleb128 0x1
 11538 35ba 50       		.byte	0x50
 11539 35bb 34       		.uleb128 0x34
 11540 35bc 01       		.uleb128 0x1
 11541 35bd 52       		.byte	0x52
 11542 35be 01       		.uleb128 0x1
 11543 35bf 30       		.byte	0x30
 11544 35c0 00       		.byte	0
 11545 35c1 00       		.byte	0
 11546 35c2 06       		.uleb128 0x6
 11547 35c3 04       		.byte	0x4
 11548 35c4 2C000000 		.4byte	0x2c
 11549 35c8 2E       		.uleb128 0x2e
 11550 35c9 EB0E0000 		.4byte	.LASF495
 11551 35cd 01       		.byte	0x1
 11552 35ce EC01     		.2byte	0x1ec
 11553 35d0 25000000 		.4byte	0x25
 11554 35d4 00000000 		.4byte	.LFB304
 11555 35d8 28000000 		.4byte	.LFE304-.LFB304
 11556 35dc 01       		.uleb128 0x1
 11557 35dd 9C       		.byte	0x9c
 11558 35de 5D360000 		.4byte	0x365d
 11559 35e2 2F       		.uleb128 0x2f
 11560 35e3 1E140000 		.4byte	.LASF410
 11561 35e7 01       		.byte	0x1
 11562 35e8 EC01     		.2byte	0x1ec
 11563 35ea 391B0000 		.4byte	0x1b39
 11564 35ee D4160000 		.4byte	.LLST121
 11565 35f2 2F       		.uleb128 0x2f
 11566 35f3 4F110000 		.4byte	.LASF216
 11567 35f7 01       		.byte	0x1
 11568 35f8 EC01     		.2byte	0x1ec
 11569 35fa 99000000 		.4byte	0x99
 11570 35fe F5160000 		.4byte	.LLST122
 11571 3602 2F       		.uleb128 0x2f
 11572 3603 3B050000 		.4byte	.LASF492
 11573 3607 01       		.byte	0x1
 11574 3608 EC01     		.2byte	0x1ec
 11575 360a 25000000 		.4byte	0x25
 11576 360e 13170000 		.4byte	.LLST123
 11577 3612 31       		.uleb128 0x31
 11578 3613 72657400 		.ascii	"ret\000"
 11579 3617 01       		.byte	0x1
 11580 3618 EE01     		.2byte	0x1ee
 11581 361a 99000000 		.4byte	0x99
 11582 361e 31170000 		.4byte	.LLST124
 11583 3622 31       		.uleb128 0x31
ARM GAS  /tmp/ccSNToGX.s 			page 205


 11584 3623 666E00   		.ascii	"fn\000"
 11585 3626 01       		.byte	0x1
 11586 3627 F001     		.2byte	0x1f0
 11587 3629 25000000 		.4byte	0x25
 11588 362d 51170000 		.4byte	.LLST125
 11589 3631 33       		.uleb128 0x33
 11590 3632 0A000000 		.4byte	.LVL326
 11591 3636 31330000 		.4byte	0x3331
 11592 363a 46360000 		.4byte	0x3646
 11593 363e 34       		.uleb128 0x34
 11594 363f 01       		.uleb128 0x1
 11595 3640 50       		.byte	0x50
 11596 3641 03       		.uleb128 0x3
 11597 3642 F3       		.byte	0xf3
 11598 3643 01       		.uleb128 0x1
 11599 3644 50       		.byte	0x50
 11600 3645 00       		.byte	0
 11601 3646 38       		.uleb128 0x38
 11602 3647 16000000 		.4byte	.LVL327
 11603 364b 4E340000 		.4byte	0x344e
 11604 364f 34       		.uleb128 0x34
 11605 3650 01       		.uleb128 0x1
 11606 3651 51       		.byte	0x51
 11607 3652 02       		.uleb128 0x2
 11608 3653 74       		.byte	0x74
 11609 3654 00       		.sleb128 0
 11610 3655 34       		.uleb128 0x34
 11611 3656 01       		.uleb128 0x1
 11612 3657 52       		.byte	0x52
 11613 3658 02       		.uleb128 0x2
 11614 3659 75       		.byte	0x75
 11615 365a 00       		.sleb128 0
 11616 365b 00       		.byte	0
 11617 365c 00       		.byte	0
 11618 365d 2E       		.uleb128 0x2e
 11619 365e DA0C0000 		.4byte	.LASF496
 11620 3662 01       		.byte	0x1
 11621 3663 D501     		.2byte	0x1d5
 11622 3665 25000000 		.4byte	0x25
 11623 3669 00000000 		.4byte	.LFB303
 11624 366d 16000000 		.4byte	.LFE303-.LFB303
 11625 3671 01       		.uleb128 0x1
 11626 3672 9C       		.byte	0x9c
 11627 3673 B9360000 		.4byte	0x36b9
 11628 3677 2F       		.uleb128 0x2f
 11629 3678 1E140000 		.4byte	.LASF410
 11630 367c 01       		.byte	0x1
 11631 367d D501     		.2byte	0x1d5
 11632 367f 391B0000 		.4byte	0x1b39
 11633 3683 6F170000 		.4byte	.LLST111
 11634 3687 35       		.uleb128 0x35
 11635 3688 706F7300 		.ascii	"pos\000"
 11636 368c 01       		.byte	0x1
 11637 368d D501     		.2byte	0x1d5
 11638 368f C2350000 		.4byte	0x35c2
 11639 3693 90170000 		.4byte	.LLST112
 11640 3697 30       		.uleb128 0x30
ARM GAS  /tmp/ccSNToGX.s 			page 206


 11641 3698 4F110000 		.4byte	.LASF216
 11642 369c 01       		.byte	0x1
 11643 369d D701     		.2byte	0x1d7
 11644 369f 99000000 		.4byte	0x99
 11645 36a3 AE170000 		.4byte	.LLST113
 11646 36a7 38       		.uleb128 0x38
 11647 36a8 08000000 		.4byte	.LVL305
 11648 36ac 3D350000 		.4byte	0x353d
 11649 36b0 34       		.uleb128 0x34
 11650 36b1 01       		.uleb128 0x1
 11651 36b2 50       		.byte	0x50
 11652 36b3 03       		.uleb128 0x3
 11653 36b4 F3       		.byte	0xf3
 11654 36b5 01       		.uleb128 0x1
 11655 36b6 50       		.byte	0x50
 11656 36b7 00       		.byte	0
 11657 36b8 00       		.byte	0
 11658 36b9 2E       		.uleb128 0x2e
 11659 36ba 36010000 		.4byte	.LASF497
 11660 36be 01       		.byte	0x1
 11661 36bf C401     		.2byte	0x1c4
 11662 36c1 25000000 		.4byte	0x25
 11663 36c5 00000000 		.4byte	.LFB302
 11664 36c9 08000000 		.4byte	.LFE302-.LFB302
 11665 36cd 01       		.uleb128 0x1
 11666 36ce 9C       		.byte	0x9c
 11667 36cf E4360000 		.4byte	0x36e4
 11668 36d3 2F       		.uleb128 0x2f
 11669 36d4 1E140000 		.4byte	.LASF410
 11670 36d8 01       		.byte	0x1
 11671 36d9 C401     		.2byte	0x1c4
 11672 36db 391B0000 		.4byte	0x1b39
 11673 36df CD170000 		.4byte	.LLST30
 11674 36e3 00       		.byte	0
 11675 36e4 2E       		.uleb128 0x2e
 11676 36e5 4C0A0000 		.4byte	.LASF498
 11677 36e9 01       		.byte	0x1
 11678 36ea AB01     		.2byte	0x1ab
 11679 36ec 25000000 		.4byte	0x25
 11680 36f0 00000000 		.4byte	.LFB301
 11681 36f4 28000000 		.4byte	.LFE301-.LFB301
 11682 36f8 01       		.uleb128 0x1
 11683 36f9 9C       		.byte	0x9c
 11684 36fa 2B370000 		.4byte	0x372b
 11685 36fe 35       		.uleb128 0x35
 11686 36ff 73747200 		.ascii	"str\000"
 11687 3703 01       		.byte	0x1
 11688 3704 AB01     		.2byte	0x1ab
 11689 3706 4C060000 		.4byte	0x64c
 11690 370a EE170000 		.4byte	.LLST29
 11691 370e 52       		.uleb128 0x52
 11692 370f 18000000 		.4byte	.LVL84
 11693 3713 30390000 		.4byte	0x3930
 11694 3717 21370000 		.4byte	0x3721
 11695 371b 34       		.uleb128 0x34
 11696 371c 01       		.uleb128 0x1
 11697 371d 50       		.byte	0x50
ARM GAS  /tmp/ccSNToGX.s 			page 207


 11698 371e 01       		.uleb128 0x1
 11699 371f 3A       		.byte	0x3a
 11700 3720 00       		.byte	0
 11701 3721 32       		.uleb128 0x32
 11702 3722 1C000000 		.4byte	.LVL85
 11703 3726 30390000 		.4byte	0x3930
 11704 372a 00       		.byte	0
 11705 372b 2E       		.uleb128 0x2e
 11706 372c 730D0000 		.4byte	.LASF499
 11707 3730 01       		.byte	0x1
 11708 3731 9401     		.2byte	0x194
 11709 3733 25000000 		.4byte	0x25
 11710 3737 00000000 		.4byte	.LFB300
 11711 373b 18000000 		.4byte	.LFE300-.LFB300
 11712 373f 01       		.uleb128 0x1
 11713 3740 9C       		.byte	0x9c
 11714 3741 76370000 		.4byte	0x3776
 11715 3745 35       		.uleb128 0x35
 11716 3746 73747200 		.ascii	"str\000"
 11717 374a 01       		.byte	0x1
 11718 374b 9401     		.2byte	0x194
 11719 374d 4C060000 		.4byte	0x64c
 11720 3751 24180000 		.4byte	.LLST27
 11721 3755 2F       		.uleb128 0x2f
 11722 3756 1E140000 		.4byte	.LASF410
 11723 375a 01       		.byte	0x1
 11724 375b 9401     		.2byte	0x194
 11725 375d 391B0000 		.4byte	0x1b39
 11726 3761 4F180000 		.4byte	.LLST28
 11727 3765 38       		.uleb128 0x38
 11728 3766 12000000 		.4byte	.LVL79
 11729 376a 30390000 		.4byte	0x3930
 11730 376e 34       		.uleb128 0x34
 11731 376f 01       		.uleb128 0x1
 11732 3770 51       		.byte	0x51
 11733 3771 02       		.uleb128 0x2
 11734 3772 75       		.byte	0x75
 11735 3773 00       		.sleb128 0
 11736 3774 00       		.byte	0
 11737 3775 00       		.byte	0
 11738 3776 2E       		.uleb128 0x2e
 11739 3777 8C120000 		.4byte	.LASF500
 11740 377b 01       		.byte	0x1
 11741 377c 7D01     		.2byte	0x17d
 11742 377e CE010000 		.4byte	0x1ce
 11743 3782 00000000 		.4byte	.LFB299
 11744 3786 30000000 		.4byte	.LFE299-.LFB299
 11745 378a 01       		.uleb128 0x1
 11746 378b 9C       		.byte	0x9c
 11747 378c E5370000 		.4byte	0x37e5
 11748 3790 35       		.uleb128 0x35
 11749 3791 7000     		.ascii	"p\000"
 11750 3793 01       		.byte	0x1
 11751 3794 7D01     		.2byte	0x17d
 11752 3796 CE010000 		.4byte	0x1ce
 11753 379a 6D180000 		.4byte	.LLST24
 11754 379e 31       		.uleb128 0x31
ARM GAS  /tmp/ccSNToGX.s 			page 208


 11755 379f 7300     		.ascii	"s\000"
 11756 37a1 01       		.byte	0x1
 11757 37a2 7F01     		.2byte	0x17f
 11758 37a4 CE010000 		.4byte	0x1ce
 11759 37a8 99180000 		.4byte	.LLST25
 11760 37ac 31       		.uleb128 0x31
 11761 37ad 6E00     		.ascii	"n\000"
 11762 37af 01       		.byte	0x1
 11763 37b0 8001     		.2byte	0x180
 11764 37b2 25000000 		.4byte	0x25
 11765 37b6 C2180000 		.4byte	.LLST26
 11766 37ba 33       		.uleb128 0x33
 11767 37bb 0E000000 		.4byte	.LVL70
 11768 37bf E5370000 		.4byte	0x37e5
 11769 37c3 D4370000 		.4byte	0x37d4
 11770 37c7 34       		.uleb128 0x34
 11771 37c8 01       		.uleb128 0x1
 11772 37c9 50       		.byte	0x50
 11773 37ca 02       		.uleb128 0x2
 11774 37cb 74       		.byte	0x74
 11775 37cc 00       		.sleb128 0
 11776 37cd 34       		.uleb128 0x34
 11777 37ce 01       		.uleb128 0x1
 11778 37cf 51       		.byte	0x51
 11779 37d0 02       		.uleb128 0x2
 11780 37d1 08       		.byte	0x8
 11781 37d2 80       		.byte	0x80
 11782 37d3 00       		.byte	0
 11783 37d4 38       		.uleb128 0x38
 11784 37d5 18000000 		.4byte	.LVL72
 11785 37d9 B7410000 		.4byte	0x41b7
 11786 37dd 34       		.uleb128 0x34
 11787 37de 01       		.uleb128 0x1
 11788 37df 50       		.byte	0x50
 11789 37e0 02       		.uleb128 0x2
 11790 37e1 74       		.byte	0x74
 11791 37e2 00       		.sleb128 0
 11792 37e3 00       		.byte	0
 11793 37e4 00       		.byte	0
 11794 37e5 2E       		.uleb128 0x2e
 11795 37e6 EF0A0000 		.4byte	.LASF501
 11796 37ea 01       		.byte	0x1
 11797 37eb 5E01     		.2byte	0x15e
 11798 37ed CE010000 		.4byte	0x1ce
 11799 37f1 00000000 		.4byte	.LFB298
 11800 37f5 3A000000 		.4byte	.LFE298-.LFB298
 11801 37f9 01       		.uleb128 0x1
 11802 37fa 9C       		.byte	0x9c
 11803 37fb 5E380000 		.4byte	0x385e
 11804 37ff 35       		.uleb128 0x35
 11805 3800 73747200 		.ascii	"str\000"
 11806 3804 01       		.byte	0x1
 11807 3805 5E01     		.2byte	0x15e
 11808 3807 CE010000 		.4byte	0x1ce
 11809 380b E2180000 		.4byte	.LLST19
 11810 380f 2F       		.uleb128 0x2f
 11811 3810 93070000 		.4byte	.LASF242
ARM GAS  /tmp/ccSNToGX.s 			page 209


 11812 3814 01       		.byte	0x1
 11813 3815 5E01     		.2byte	0x15e
 11814 3817 25000000 		.4byte	0x25
 11815 381b 27190000 		.4byte	.LLST20
 11816 381f 2F       		.uleb128 0x2f
 11817 3820 1E140000 		.4byte	.LASF410
 11818 3824 01       		.byte	0x1
 11819 3825 5E01     		.2byte	0x15e
 11820 3827 391B0000 		.4byte	0x1b39
 11821 382b 5F190000 		.4byte	.LLST21
 11822 382f 31       		.uleb128 0x31
 11823 3830 6300     		.ascii	"c\000"
 11824 3832 01       		.byte	0x1
 11825 3833 6001     		.2byte	0x160
 11826 3835 25000000 		.4byte	0x25
 11827 3839 7D190000 		.4byte	.LLST22
 11828 383d 31       		.uleb128 0x31
 11829 383e 696E6400 		.ascii	"ind\000"
 11830 3842 01       		.byte	0x1
 11831 3843 6101     		.2byte	0x161
 11832 3845 25000000 		.4byte	0x25
 11833 3849 9B190000 		.4byte	.LLST23
 11834 384d 38       		.uleb128 0x38
 11835 384e 12000000 		.4byte	.LVL60
 11836 3852 99390000 		.4byte	0x3999
 11837 3856 34       		.uleb128 0x34
 11838 3857 01       		.uleb128 0x1
 11839 3858 50       		.byte	0x50
 11840 3859 02       		.uleb128 0x2
 11841 385a 77       		.byte	0x77
 11842 385b 00       		.sleb128 0
 11843 385c 00       		.byte	0
 11844 385d 00       		.byte	0
 11845 385e 2E       		.uleb128 0x2e
 11846 385f 230A0000 		.4byte	.LASF502
 11847 3863 01       		.byte	0x1
 11848 3864 4B01     		.2byte	0x14b
 11849 3866 25000000 		.4byte	0x25
 11850 386a 00000000 		.4byte	.LFB297
 11851 386e 04000000 		.4byte	.LFE297-.LFB297
 11852 3872 01       		.uleb128 0x1
 11853 3873 9C       		.byte	0x9c
 11854 3874 AF380000 		.4byte	0x38af
 11855 3878 35       		.uleb128 0x35
 11856 3879 6300     		.ascii	"c\000"
 11857 387b 01       		.byte	0x1
 11858 387c 4B01     		.2byte	0x14b
 11859 387e 25000000 		.4byte	0x25
 11860 3882 D2190000 		.4byte	.LLST17
 11861 3886 2F       		.uleb128 0x2f
 11862 3887 1E140000 		.4byte	.LASF410
 11863 388b 01       		.byte	0x1
 11864 388c 4B01     		.2byte	0x14b
 11865 388e 391B0000 		.4byte	0x1b39
 11866 3892 F3190000 		.4byte	.LLST18
 11867 3896 4D       		.uleb128 0x4d
 11868 3897 04000000 		.4byte	.LVL57
ARM GAS  /tmp/ccSNToGX.s 			page 210


 11869 389b 30390000 		.4byte	0x3930
 11870 389f 34       		.uleb128 0x34
 11871 38a0 01       		.uleb128 0x1
 11872 38a1 50       		.byte	0x50
 11873 38a2 03       		.uleb128 0x3
 11874 38a3 F3       		.byte	0xf3
 11875 38a4 01       		.uleb128 0x1
 11876 38a5 50       		.byte	0x50
 11877 38a6 34       		.uleb128 0x34
 11878 38a7 01       		.uleb128 0x1
 11879 38a8 51       		.byte	0x51
 11880 38a9 03       		.uleb128 0x3
 11881 38aa F3       		.byte	0xf3
 11882 38ab 01       		.uleb128 0x1
 11883 38ac 51       		.byte	0x51
 11884 38ad 00       		.byte	0
 11885 38ae 00       		.byte	0
 11886 38af 2E       		.uleb128 0x2e
 11887 38b0 33050000 		.4byte	.LASF503
 11888 38b4 01       		.byte	0x1
 11889 38b5 1901     		.2byte	0x119
 11890 38b7 25000000 		.4byte	0x25
 11891 38bb 00000000 		.4byte	.LFB296
 11892 38bf 0C000000 		.4byte	.LFE296-.LFB296
 11893 38c3 01       		.uleb128 0x1
 11894 38c4 9C       		.byte	0x9c
 11895 38c5 E9380000 		.4byte	0x38e9
 11896 38c9 35       		.uleb128 0x35
 11897 38ca 6300     		.ascii	"c\000"
 11898 38cc 01       		.byte	0x1
 11899 38cd 1901     		.2byte	0x119
 11900 38cf 25000000 		.4byte	0x25
 11901 38d3 141A0000 		.4byte	.LLST16
 11902 38d7 4D       		.uleb128 0x4d
 11903 38d8 08000000 		.4byte	.LVL55
 11904 38dc 30390000 		.4byte	0x3930
 11905 38e0 34       		.uleb128 0x34
 11906 38e1 01       		.uleb128 0x1
 11907 38e2 50       		.byte	0x50
 11908 38e3 03       		.uleb128 0x3
 11909 38e4 F3       		.byte	0xf3
 11910 38e5 01       		.uleb128 0x1
 11911 38e6 50       		.byte	0x50
 11912 38e7 00       		.byte	0
 11913 38e8 00       		.byte	0
 11914 38e9 2E       		.uleb128 0x2e
 11915 38ea FB120000 		.4byte	.LASF504
 11916 38ee 01       		.byte	0x1
 11917 38ef 0A01     		.2byte	0x10a
 11918 38f1 25000000 		.4byte	0x25
 11919 38f5 00000000 		.4byte	.LFB295
 11920 38f9 0C000000 		.4byte	.LFE295-.LFB295
 11921 38fd 01       		.uleb128 0x1
 11922 38fe 9C       		.byte	0x9c
 11923 38ff 0D390000 		.4byte	0x390d
 11924 3903 4C       		.uleb128 0x4c
 11925 3904 08000000 		.4byte	.LVL53
ARM GAS  /tmp/ccSNToGX.s 			page 211


 11926 3908 99390000 		.4byte	0x3999
 11927 390c 00       		.byte	0
 11928 390d 53       		.uleb128 0x53
 11929 390e 600A0000 		.4byte	.LASF505
 11930 3912 01       		.byte	0x1
 11931 3913 F8       		.byte	0xf8
 11932 3914 00000000 		.4byte	.LFB294
 11933 3918 06000000 		.4byte	.LFE294-.LFB294
 11934 391c 01       		.uleb128 0x1
 11935 391d 9C       		.byte	0x9c
 11936 391e 30390000 		.4byte	0x3930
 11937 3922 54       		.uleb128 0x54
 11938 3923 1E140000 		.4byte	.LASF410
 11939 3927 01       		.byte	0x1
 11940 3928 F8       		.byte	0xf8
 11941 3929 391B0000 		.4byte	0x1b39
 11942 392d 01       		.uleb128 0x1
 11943 392e 50       		.byte	0x50
 11944 392f 00       		.byte	0
 11945 3930 55       		.uleb128 0x55
 11946 3931 74020000 		.4byte	.LASF506
 11947 3935 01       		.byte	0x1
 11948 3936 D8       		.byte	0xd8
 11949 3937 25000000 		.4byte	0x25
 11950 393b 01       		.byte	0x1
 11951 393c 60390000 		.4byte	0x3960
 11952 3940 56       		.uleb128 0x56
 11953 3941 6300     		.ascii	"c\000"
 11954 3943 01       		.byte	0x1
 11955 3944 D8       		.byte	0xd8
 11956 3945 25000000 		.4byte	0x25
 11957 3949 57       		.uleb128 0x57
 11958 394a 1E140000 		.4byte	.LASF410
 11959 394e 01       		.byte	0x1
 11960 394f D8       		.byte	0xd8
 11961 3950 391B0000 		.4byte	0x1b39
 11962 3954 58       		.uleb128 0x58
 11963 3955 72657400 		.ascii	"ret\000"
 11964 3959 01       		.byte	0x1
 11965 395a DB       		.byte	0xdb
 11966 395b 25000000 		.4byte	0x25
 11967 395f 00       		.byte	0
 11968 3960 49       		.uleb128 0x49
 11969 3961 250D0000 		.4byte	.LASF507
 11970 3965 01       		.byte	0x1
 11971 3966 CA       		.byte	0xca
 11972 3967 25000000 		.4byte	0x25
 11973 396b 00000000 		.4byte	.LFB292
 11974 396f 04000000 		.4byte	.LFE292-.LFB292
 11975 3973 01       		.uleb128 0x1
 11976 3974 9C       		.byte	0x9c
 11977 3975 99390000 		.4byte	0x3999
 11978 3979 59       		.uleb128 0x59
 11979 397a 667000   		.ascii	"fp\000"
 11980 397d 01       		.byte	0x1
 11981 397e CA       		.byte	0xca
 11982 397f 391B0000 		.4byte	0x1b39
ARM GAS  /tmp/ccSNToGX.s 			page 212


 11983 3983 351A0000 		.4byte	.LLST10
 11984 3987 4D       		.uleb128 0x4d
 11985 3988 04000000 		.4byte	.LVL40
 11986 398c 99390000 		.4byte	0x3999
 11987 3990 34       		.uleb128 0x34
 11988 3991 01       		.uleb128 0x1
 11989 3992 50       		.byte	0x50
 11990 3993 03       		.uleb128 0x3
 11991 3994 F3       		.byte	0xf3
 11992 3995 01       		.uleb128 0x1
 11993 3996 50       		.byte	0x50
 11994 3997 00       		.byte	0
 11995 3998 00       		.byte	0
 11996 3999 49       		.uleb128 0x49
 11997 399a 6A040000 		.4byte	.LASF508
 11998 399e 01       		.byte	0x1
 11999 399f 9D       		.byte	0x9d
 12000 39a0 25000000 		.4byte	0x25
 12001 39a4 00000000 		.4byte	.LFB291
 12002 39a8 68000000 		.4byte	.LFE291-.LFB291
 12003 39ac 01       		.uleb128 0x1
 12004 39ad 9C       		.byte	0x9c
 12005 39ae E4390000 		.4byte	0x39e4
 12006 39b2 5A       		.uleb128 0x5a
 12007 39b3 1E140000 		.4byte	.LASF410
 12008 39b7 01       		.byte	0x1
 12009 39b8 9D       		.byte	0x9d
 12010 39b9 391B0000 		.4byte	0x1b39
 12011 39bd 561A0000 		.4byte	.LLST8
 12012 39c1 5B       		.uleb128 0x5b
 12013 39c2 6300     		.ascii	"c\000"
 12014 39c4 01       		.byte	0x1
 12015 39c5 9F       		.byte	0x9f
 12016 39c6 25000000 		.4byte	0x25
 12017 39ca B61A0000 		.4byte	.LLST9
 12018 39ce 32       		.uleb128 0x32
 12019 39cf 0A000000 		.4byte	.LVL29
 12020 39d3 54410000 		.4byte	0x4154
 12021 39d7 5C       		.uleb128 0x5c
 12022 39d8 54000000 		.4byte	.LVL37
 12023 39dc 34       		.uleb128 0x34
 12024 39dd 01       		.uleb128 0x1
 12025 39de 50       		.byte	0x50
 12026 39df 02       		.uleb128 0x2
 12027 39e0 74       		.byte	0x74
 12028 39e1 00       		.sleb128 0
 12029 39e2 00       		.byte	0
 12030 39e3 00       		.byte	0
 12031 39e4 55       		.uleb128 0x55
 12032 39e5 22060000 		.4byte	.LASF509
 12033 39e9 01       		.byte	0x1
 12034 39ea 89       		.byte	0x89
 12035 39eb 25000000 		.4byte	0x25
 12036 39ef 01       		.byte	0x1
 12037 39f0 003A0000 		.4byte	0x3a00
 12038 39f4 57       		.uleb128 0x57
 12039 39f5 B3060000 		.4byte	.LASF413
ARM GAS  /tmp/ccSNToGX.s 			page 213


 12040 39f9 01       		.byte	0x1
 12041 39fa 89       		.byte	0x89
 12042 39fb 25000000 		.4byte	0x25
 12043 39ff 00       		.byte	0
 12044 3a00 5D       		.uleb128 0x5d
 12045 3a01 F51F0000 		.4byte	0x1ff5
 12046 3a05 00000000 		.4byte	.LFB348
 12047 3a09 64000000 		.4byte	.LFE348-.LFB348
 12048 3a0d 01       		.uleb128 0x1
 12049 3a0e 9C       		.byte	0x9c
 12050 3a0f 7A3A0000 		.4byte	0x3a7a
 12051 3a13 3F       		.uleb128 0x3f
 12052 3a14 06200000 		.4byte	0x2006
 12053 3a18 EC1A0000 		.4byte	.LLST3
 12054 3a1c 3F       		.uleb128 0x3f
 12055 3a1d 10200000 		.4byte	0x2010
 12056 3a21 FF1A0000 		.4byte	.LLST4
 12057 3a25 41       		.uleb128 0x41
 12058 3a26 1C200000 		.4byte	0x201c
 12059 3a2a 1D1B0000 		.4byte	.LLST5
 12060 3a2e 41       		.uleb128 0x41
 12061 3a2f 28200000 		.4byte	0x2028
 12062 3a33 451B0000 		.4byte	.LLST6
 12063 3a37 42       		.uleb128 0x42
 12064 3a38 33200000 		.4byte	0x2033
 12065 3a3c 02       		.uleb128 0x2
 12066 3a3d 91       		.byte	0x91
 12067 3a3e 6C       		.sleb128 -20
 12068 3a3f 32       		.uleb128 0x32
 12069 3a40 0E000000 		.4byte	.LVL17
 12070 3a44 54410000 		.4byte	0x4154
 12071 3a48 32       		.uleb128 0x32
 12072 3a49 18000000 		.4byte	.LVL18
 12073 3a4d 54410000 		.4byte	0x4154
 12074 3a51 33       		.uleb128 0x33
 12075 3a52 36000000 		.4byte	.LVL21
 12076 3a56 41420000 		.4byte	0x4241
 12077 3a5a 703A0000 		.4byte	0x3a70
 12078 3a5e 34       		.uleb128 0x34
 12079 3a5f 01       		.uleb128 0x1
 12080 3a60 51       		.byte	0x51
 12081 3a61 02       		.uleb128 0x2
 12082 3a62 91       		.byte	0x91
 12083 3a63 67       		.sleb128 -25
 12084 3a64 34       		.uleb128 0x34
 12085 3a65 01       		.uleb128 0x1
 12086 3a66 52       		.byte	0x52
 12087 3a67 01       		.uleb128 0x1
 12088 3a68 31       		.byte	0x31
 12089 3a69 34       		.uleb128 0x34
 12090 3a6a 01       		.uleb128 0x1
 12091 3a6b 53       		.byte	0x53
 12092 3a6c 02       		.uleb128 0x2
 12093 3a6d 91       		.byte	0x91
 12094 3a6e 6C       		.sleb128 -20
 12095 3a6f 00       		.byte	0
 12096 3a70 32       		.uleb128 0x32
ARM GAS  /tmp/ccSNToGX.s 			page 214


 12097 3a71 44000000 		.4byte	.LVL22
 12098 3a75 54410000 		.4byte	0x4154
 12099 3a79 00       		.byte	0
 12100 3a7a 5D       		.uleb128 0x5d
 12101 3a7b E4390000 		.4byte	0x39e4
 12102 3a7f 00000000 		.4byte	.LFB290
 12103 3a83 0A000000 		.4byte	.LFE290-.LFB290
 12104 3a87 01       		.uleb128 0x1
 12105 3a88 9C       		.byte	0x9c
 12106 3a89 973A0000 		.4byte	0x3a97
 12107 3a8d 3F       		.uleb128 0x3f
 12108 3a8e F4390000 		.4byte	0x39f4
 12109 3a92 581B0000 		.4byte	.LLST7
 12110 3a96 00       		.byte	0
 12111 3a97 5D       		.uleb128 0x5d
 12112 3a98 30390000 		.4byte	0x3930
 12113 3a9c 00000000 		.4byte	.LFB293
 12114 3aa0 68000000 		.4byte	.LFE293-.LFB293
 12115 3aa4 01       		.uleb128 0x1
 12116 3aa5 9C       		.byte	0x9c
 12117 3aa6 283B0000 		.4byte	0x3b28
 12118 3aaa 3F       		.uleb128 0x3f
 12119 3aab 40390000 		.4byte	0x3940
 12120 3aaf 791B0000 		.4byte	.LLST11
 12121 3ab3 3F       		.uleb128 0x3f
 12122 3ab4 49390000 		.4byte	0x3949
 12123 3ab8 F01B0000 		.4byte	.LLST12
 12124 3abc 5E       		.uleb128 0x5e
 12125 3abd 54390000 		.4byte	0x3954
 12126 3ac1 5F       		.uleb128 0x5f
 12127 3ac2 42000000 		.4byte	.LBB96
 12128 3ac6 18000000 		.4byte	.LBE96-.LBB96
 12129 3aca 063B0000 		.4byte	0x3b06
 12130 3ace 3F       		.uleb128 0x3f
 12131 3acf 49390000 		.4byte	0x3949
 12132 3ad3 321C0000 		.4byte	.LLST13
 12133 3ad7 3F       		.uleb128 0x3f
 12134 3ad8 40390000 		.4byte	0x3940
 12135 3adc 451C0000 		.4byte	.LLST14
 12136 3ae0 60       		.uleb128 0x60
 12137 3ae1 42000000 		.4byte	.LBB97
 12138 3ae5 18000000 		.4byte	.LBE97-.LBB97
 12139 3ae9 41       		.uleb128 0x41
 12140 3aea BC3A0000 		.4byte	0x3abc
 12141 3aee 661C0000 		.4byte	.LLST15
 12142 3af2 5C       		.uleb128 0x5c
 12143 3af3 54000000 		.4byte	.LVL47
 12144 3af7 34       		.uleb128 0x34
 12145 3af8 01       		.uleb128 0x1
 12146 3af9 50       		.byte	0x50
 12147 3afa 02       		.uleb128 0x2
 12148 3afb 75       		.byte	0x75
 12149 3afc 00       		.sleb128 0
 12150 3afd 34       		.uleb128 0x34
 12151 3afe 01       		.uleb128 0x1
 12152 3aff 51       		.byte	0x51
 12153 3b00 02       		.uleb128 0x2
ARM GAS  /tmp/ccSNToGX.s 			page 215


 12154 3b01 74       		.byte	0x74
 12155 3b02 00       		.sleb128 0
 12156 3b03 00       		.byte	0
 12157 3b04 00       		.byte	0
 12158 3b05 00       		.byte	0
 12159 3b06 32       		.uleb128 0x32
 12160 3b07 0A000000 		.4byte	.LVL42
 12161 3b0b 54410000 		.4byte	0x4154
 12162 3b0f 4D       		.uleb128 0x4d
 12163 3b10 28000000 		.4byte	.LVL44
 12164 3b14 F51F0000 		.4byte	0x1ff5
 12165 3b18 34       		.uleb128 0x34
 12166 3b19 01       		.uleb128 0x1
 12167 3b1a 50       		.byte	0x50
 12168 3b1b 03       		.uleb128 0x3
 12169 3b1c F3       		.byte	0xf3
 12170 3b1d 01       		.uleb128 0x1
 12171 3b1e 50       		.byte	0x50
 12172 3b1f 34       		.uleb128 0x34
 12173 3b20 01       		.uleb128 0x1
 12174 3b21 51       		.byte	0x51
 12175 3b22 03       		.uleb128 0x3
 12176 3b23 F3       		.byte	0xf3
 12177 3b24 01       		.uleb128 0x1
 12178 3b25 51       		.byte	0x51
 12179 3b26 00       		.byte	0
 12180 3b27 00       		.byte	0
 12181 3b28 5D       		.uleb128 0x5d
 12182 3b29 31330000 		.4byte	0x3331
 12183 3b2d 00000000 		.4byte	.LFB310
 12184 3b31 2C000000 		.4byte	.LFE310-.LFB310
 12185 3b35 01       		.uleb128 0x1
 12186 3b36 9C       		.byte	0x9c
 12187 3b37 783B0000 		.4byte	0x3b78
 12188 3b3b 3F       		.uleb128 0x3f
 12189 3b3c 42330000 		.4byte	0x3342
 12190 3b40 791C0000 		.4byte	.LLST31
 12191 3b44 42       		.uleb128 0x42
 12192 3b45 4E330000 		.4byte	0x334e
 12193 3b49 01       		.uleb128 0x1
 12194 3b4a 53       		.byte	0x53
 12195 3b4b 60       		.uleb128 0x60
 12196 3b4c 04000000 		.4byte	.LBB102
 12197 3b50 08000000 		.4byte	.LBE102-.LBB102
 12198 3b54 61       		.uleb128 0x61
 12199 3b55 571D0000 		.4byte	0x1d57
 12200 3b59 60       		.uleb128 0x60
 12201 3b5a 04000000 		.4byte	.LBB103
 12202 3b5e 08000000 		.4byte	.LBE103-.LBB103
 12203 3b62 5E       		.uleb128 0x5e
 12204 3b63 631D0000 		.4byte	0x1d63
 12205 3b67 5E       		.uleb128 0x5e
 12206 3b68 6F1D0000 		.4byte	0x1d6f
 12207 3b6c 32       		.uleb128 0x32
 12208 3b6d 08000000 		.4byte	.LVL91
 12209 3b71 54410000 		.4byte	0x4154
 12210 3b75 00       		.byte	0
ARM GAS  /tmp/ccSNToGX.s 			page 216


 12211 3b76 00       		.byte	0
 12212 3b77 00       		.byte	0
 12213 3b78 5D       		.uleb128 0x5d
 12214 3b79 07330000 		.4byte	0x3307
 12215 3b7d 00000000 		.4byte	.LFB311
 12216 3b81 2C000000 		.4byte	.LFE311-.LFB311
 12217 3b85 01       		.uleb128 0x1
 12218 3b86 9C       		.byte	0x9c
 12219 3b87 D43B0000 		.4byte	0x3bd4
 12220 3b8b 3F       		.uleb128 0x3f
 12221 3b8c 18330000 		.4byte	0x3318
 12222 3b90 A51C0000 		.4byte	.LLST32
 12223 3b94 42       		.uleb128 0x42
 12224 3b95 24330000 		.4byte	0x3324
 12225 3b99 01       		.uleb128 0x1
 12226 3b9a 54       		.byte	0x54
 12227 3b9b 5F       		.uleb128 0x5f
 12228 3b9c 1E000000 		.4byte	.LBB106
 12229 3ba0 0E000000 		.4byte	.LBE106-.LBB106
 12230 3ba4 CA3B0000 		.4byte	0x3bca
 12231 3ba8 3F       		.uleb128 0x3f
 12232 3ba9 18330000 		.4byte	0x3318
 12233 3bad DF1C0000 		.4byte	.LLST33
 12234 3bb1 60       		.uleb128 0x60
 12235 3bb2 1E000000 		.4byte	.LBB107
 12236 3bb6 0E000000 		.4byte	.LBE107-.LBB107
 12237 3bba 5E       		.uleb128 0x5e
 12238 3bbb 943B0000 		.4byte	0x3b94
 12239 3bbf 32       		.uleb128 0x32
 12240 3bc0 22000000 		.4byte	.LVL100
 12241 3bc4 54410000 		.4byte	0x4154
 12242 3bc8 00       		.byte	0
 12243 3bc9 00       		.byte	0
 12244 3bca 32       		.uleb128 0x32
 12245 3bcb 0A000000 		.4byte	.LVL96
 12246 3bcf 54410000 		.4byte	0x4154
 12247 3bd3 00       		.byte	0
 12248 3bd4 5D       		.uleb128 0x5d
 12249 3bd5 82260000 		.4byte	0x2682
 12250 3bd9 00000000 		.4byte	.LFB331
 12251 3bdd 44000000 		.4byte	.LFE331-.LFB331
 12252 3be1 01       		.uleb128 0x1
 12253 3be2 9C       		.byte	0x9c
 12254 3be3 623C0000 		.4byte	0x3c62
 12255 3be7 3F       		.uleb128 0x3f
 12256 3be8 93260000 		.4byte	0x2693
 12257 3bec 001D0000 		.4byte	.LLST46
 12258 3bf0 3F       		.uleb128 0x3f
 12259 3bf1 9F260000 		.4byte	0x269f
 12260 3bf5 451D0000 		.4byte	.LLST47
 12261 3bf9 5E       		.uleb128 0x5e
 12262 3bfa AB260000 		.4byte	0x26ab
 12263 3bfe 5F       		.uleb128 0x5f
 12264 3bff 18000000 		.4byte	.LBB111
 12265 3c03 24000000 		.4byte	.LBE111-.LBB111
 12266 3c07 583C0000 		.4byte	0x3c58
 12267 3c0b 3F       		.uleb128 0x3f
ARM GAS  /tmp/ccSNToGX.s 			page 217


 12268 3c0c 9F260000 		.4byte	0x269f
 12269 3c10 711D0000 		.4byte	.LLST48
 12270 3c14 3F       		.uleb128 0x3f
 12271 3c15 93260000 		.4byte	0x2693
 12272 3c19 921D0000 		.4byte	.LLST49
 12273 3c1d 60       		.uleb128 0x60
 12274 3c1e 18000000 		.4byte	.LBB112
 12275 3c22 24000000 		.4byte	.LBE112-.LBB112
 12276 3c26 41       		.uleb128 0x41
 12277 3c27 F93B0000 		.4byte	0x3bf9
 12278 3c2b B31D0000 		.4byte	.LLST50
 12279 3c2f 33       		.uleb128 0x33
 12280 3c30 22000000 		.4byte	.LVL145
 12281 3c34 6D420000 		.4byte	0x426d
 12282 3c38 4D3C0000 		.4byte	0x3c4d
 12283 3c3c 34       		.uleb128 0x34
 12284 3c3d 01       		.uleb128 0x1
 12285 3c3e 50       		.byte	0x50
 12286 3c3f 02       		.uleb128 0x2
 12287 3c40 74       		.byte	0x74
 12288 3c41 00       		.sleb128 0
 12289 3c42 34       		.uleb128 0x34
 12290 3c43 01       		.uleb128 0x1
 12291 3c44 51       		.byte	0x51
 12292 3c45 01       		.uleb128 0x1
 12293 3c46 31       		.byte	0x31
 12294 3c47 34       		.uleb128 0x34
 12295 3c48 01       		.uleb128 0x1
 12296 3c49 52       		.byte	0x52
 12297 3c4a 01       		.uleb128 0x1
 12298 3c4b 31       		.byte	0x31
 12299 3c4c 00       		.byte	0
 12300 3c4d 32       		.uleb128 0x32
 12301 3c4e 2C000000 		.4byte	.LVL147
 12302 3c52 54410000 		.4byte	0x4154
 12303 3c56 00       		.byte	0
 12304 3c57 00       		.byte	0
 12305 3c58 32       		.uleb128 0x32
 12306 3c59 0A000000 		.4byte	.LVL142
 12307 3c5d 54410000 		.4byte	0x4154
 12308 3c61 00       		.byte	0
 12309 3c62 5D       		.uleb128 0x5d
 12310 3c63 D71F0000 		.4byte	0x1fd7
 12311 3c67 00000000 		.4byte	.LFB349
 12312 3c6b 10000000 		.4byte	.LFE349-.LFB349
 12313 3c6f 01       		.uleb128 0x1
 12314 3c70 9C       		.byte	0x9c
 12315 3c71 7F3C0000 		.4byte	0x3c7f
 12316 3c75 3F       		.uleb128 0x3f
 12317 3c76 E81F0000 		.4byte	0x1fe8
 12318 3c7a CB1D0000 		.4byte	.LLST79
 12319 3c7e 00       		.byte	0
 12320 3c7f 5D       		.uleb128 0x5d
 12321 3c80 7B1D0000 		.4byte	0x1d7b
 12322 3c84 00000000 		.4byte	.LFB354
 12323 3c88 28000000 		.4byte	.LFE354-.LFB354
 12324 3c8c 01       		.uleb128 0x1
ARM GAS  /tmp/ccSNToGX.s 			page 218


 12325 3c8d 9C       		.byte	0x9c
 12326 3c8e 1E3D0000 		.4byte	0x3d1e
 12327 3c92 3F       		.uleb128 0x3f
 12328 3c93 8C1D0000 		.4byte	0x1d8c
 12329 3c97 EC1D0000 		.4byte	.LLST101
 12330 3c9b 41       		.uleb128 0x41
 12331 3c9c 981D0000 		.4byte	0x1d98
 12332 3ca0 261E0000 		.4byte	.LLST102
 12333 3ca4 41       		.uleb128 0x41
 12334 3ca5 A41D0000 		.4byte	0x1da4
 12335 3ca9 391E0000 		.4byte	.LLST103
 12336 3cad 51       		.uleb128 0x51
 12337 3cae E4390000 		.4byte	0x39e4
 12338 3cb2 00000000 		.4byte	.LBB131
 12339 3cb6 30000000 		.4byte	.Ldebug_ranges0+0x30
 12340 3cba 01       		.byte	0x1
 12341 3cbb 0009     		.2byte	0x900
 12342 3cbd CB3C0000 		.4byte	0x3ccb
 12343 3cc1 3F       		.uleb128 0x3f
 12344 3cc2 F4390000 		.4byte	0x39f4
 12345 3cc6 4C1E0000 		.4byte	.LLST104
 12346 3cca 00       		.byte	0
 12347 3ccb 5F       		.uleb128 0x5f
 12348 3ccc 10000000 		.4byte	.LBB135
 12349 3cd0 08000000 		.4byte	.LBE135-.LBB135
 12350 3cd4 FF3C0000 		.4byte	0x3cff
 12351 3cd8 3F       		.uleb128 0x3f
 12352 3cd9 8C1D0000 		.4byte	0x1d8c
 12353 3cdd 5F1E0000 		.4byte	.LLST105
 12354 3ce1 60       		.uleb128 0x60
 12355 3ce2 10000000 		.4byte	.LBB136
 12356 3ce6 08000000 		.4byte	.LBE136-.LBB136
 12357 3cea 5E       		.uleb128 0x5e
 12358 3ceb 9B3C0000 		.4byte	0x3c9b
 12359 3cef 5E       		.uleb128 0x5e
 12360 3cf0 A43C0000 		.4byte	0x3ca4
 12361 3cf4 32       		.uleb128 0x32
 12362 3cf5 14000000 		.4byte	.LVL290
 12363 3cf9 54410000 		.4byte	0x4154
 12364 3cfd 00       		.byte	0
 12365 3cfe 00       		.byte	0
 12366 3cff 33       		.uleb128 0x33
 12367 3d00 0A000000 		.4byte	.LVL287
 12368 3d04 07330000 		.4byte	0x3307
 12369 3d08 143D0000 		.4byte	0x3d14
 12370 3d0c 34       		.uleb128 0x34
 12371 3d0d 01       		.uleb128 0x1
 12372 3d0e 50       		.byte	0x50
 12373 3d0f 03       		.uleb128 0x3
 12374 3d10 F3       		.byte	0xf3
 12375 3d11 01       		.uleb128 0x1
 12376 3d12 50       		.byte	0x50
 12377 3d13 00       		.byte	0
 12378 3d14 32       		.uleb128 0x32
 12379 3d15 20000000 		.4byte	.LVL293
 12380 3d19 54410000 		.4byte	0x4154
 12381 3d1d 00       		.byte	0
ARM GAS  /tmp/ccSNToGX.s 			page 219


 12382 3d1e 5D       		.uleb128 0x5d
 12383 3d1f 3D350000 		.4byte	0x353d
 12384 3d23 00000000 		.4byte	.LFB306
 12385 3d27 2E000000 		.4byte	.LFE306-.LFB306
 12386 3d2b 01       		.uleb128 0x1
 12387 3d2c 9C       		.byte	0x9c
 12388 3d2d C53D0000 		.4byte	0x3dc5
 12389 3d31 3F       		.uleb128 0x3f
 12390 3d32 4E350000 		.4byte	0x354e
 12391 3d36 751E0000 		.4byte	.LLST106
 12392 3d3a 41       		.uleb128 0x41
 12393 3d3b 5A350000 		.4byte	0x355a
 12394 3d3f 931E0000 		.4byte	.LLST107
 12395 3d43 41       		.uleb128 0x41
 12396 3d44 65350000 		.4byte	0x3565
 12397 3d48 A61E0000 		.4byte	.LLST108
 12398 3d4c 50       		.uleb128 0x50
 12399 3d4d E4390000 		.4byte	0x39e4
 12400 3d51 12000000 		.4byte	.LBB143
 12401 3d55 04000000 		.4byte	.LBE143-.LBB143
 12402 3d59 01       		.byte	0x1
 12403 3d5a 1902     		.2byte	0x219
 12404 3d5c 6A3D0000 		.4byte	0x3d6a
 12405 3d60 3F       		.uleb128 0x3f
 12406 3d61 F4390000 		.4byte	0x39f4
 12407 3d65 C41E0000 		.4byte	.LLST109
 12408 3d69 00       		.byte	0
 12409 3d6a 5F       		.uleb128 0x5f
 12410 3d6b 1C000000 		.4byte	.LBB145
 12411 3d6f 08000000 		.4byte	.LBE145-.LBB145
 12412 3d73 9E3D0000 		.4byte	0x3d9e
 12413 3d77 3F       		.uleb128 0x3f
 12414 3d78 4E350000 		.4byte	0x354e
 12415 3d7c D71E0000 		.4byte	.LLST110
 12416 3d80 60       		.uleb128 0x60
 12417 3d81 1C000000 		.4byte	.LBB146
 12418 3d85 08000000 		.4byte	.LBE146-.LBB146
 12419 3d89 5E       		.uleb128 0x5e
 12420 3d8a 3A3D0000 		.4byte	0x3d3a
 12421 3d8e 5E       		.uleb128 0x5e
 12422 3d8f 433D0000 		.4byte	0x3d43
 12423 3d93 32       		.uleb128 0x32
 12424 3d94 20000000 		.4byte	.LVL300
 12425 3d98 54410000 		.4byte	0x4154
 12426 3d9c 00       		.byte	0
 12427 3d9d 00       		.byte	0
 12428 3d9e 32       		.uleb128 0x32
 12429 3d9f 08000000 		.4byte	.LVL295
 12430 3da3 54410000 		.4byte	0x4154
 12431 3da7 33       		.uleb128 0x33
 12432 3da8 12000000 		.4byte	.LVL296
 12433 3dac 31330000 		.4byte	0x3331
 12434 3db0 BB3D0000 		.4byte	0x3dbb
 12435 3db4 34       		.uleb128 0x34
 12436 3db5 01       		.uleb128 0x1
 12437 3db6 50       		.byte	0x50
 12438 3db7 02       		.uleb128 0x2
ARM GAS  /tmp/ccSNToGX.s 			page 220


 12439 3db8 74       		.byte	0x74
 12440 3db9 00       		.sleb128 0
 12441 3dba 00       		.byte	0
 12442 3dbb 32       		.uleb128 0x32
 12443 3dbc 1A000000 		.4byte	.LVL298
 12444 3dc0 7B1D0000 		.4byte	0x1d7b
 12445 3dc4 00       		.byte	0
 12446 3dc5 5D       		.uleb128 0x5d
 12447 3dc6 362D0000 		.4byte	0x2d36
 12448 3dca 00000000 		.4byte	.LFB319
 12449 3dce 54000000 		.4byte	.LFE319-.LFB319
 12450 3dd2 01       		.uleb128 0x1
 12451 3dd3 9C       		.byte	0x9c
 12452 3dd4 673E0000 		.4byte	0x3e67
 12453 3dd8 3F       		.uleb128 0x3f
 12454 3dd9 472D0000 		.4byte	0x2d47
 12455 3ddd EA1E0000 		.4byte	.LLST149
 12456 3de1 41       		.uleb128 0x41
 12457 3de2 522D0000 		.4byte	0x2d52
 12458 3de6 161F0000 		.4byte	.LLST150
 12459 3dea 41       		.uleb128 0x41
 12460 3deb 5D2D0000 		.4byte	0x2d5d
 12461 3def 341F0000 		.4byte	.LLST151
 12462 3df3 41       		.uleb128 0x41
 12463 3df4 692D0000 		.4byte	0x2d69
 12464 3df8 521F0000 		.4byte	.LLST152
 12465 3dfc 51       		.uleb128 0x51
 12466 3dfd E4390000 		.4byte	0x39e4
 12467 3e01 0A000000 		.4byte	.LBB162
 12468 3e05 78000000 		.4byte	.Ldebug_ranges0+0x78
 12469 3e09 01       		.byte	0x1
 12470 3e0a 1504     		.2byte	0x415
 12471 3e0c 1A3E0000 		.4byte	0x3e1a
 12472 3e10 3F       		.uleb128 0x3f
 12473 3e11 F4390000 		.4byte	0x39f4
 12474 3e15 651F0000 		.4byte	.LLST153
 12475 3e19 00       		.byte	0
 12476 3e1a 32       		.uleb128 0x32
 12477 3e1b 08000000 		.4byte	.LVL377
 12478 3e1f 54410000 		.4byte	0x4154
 12479 3e23 33       		.uleb128 0x33
 12480 3e24 16000000 		.4byte	.LVL380
 12481 3e28 07330000 		.4byte	0x3307
 12482 3e2c 373E0000 		.4byte	0x3e37
 12483 3e30 34       		.uleb128 0x34
 12484 3e31 01       		.uleb128 0x1
 12485 3e32 50       		.byte	0x50
 12486 3e33 02       		.uleb128 0x2
 12487 3e34 74       		.byte	0x74
 12488 3e35 00       		.sleb128 0
 12489 3e36 00       		.byte	0
 12490 3e37 33       		.uleb128 0x33
 12491 3e38 24000000 		.4byte	.LVL382
 12492 3e3c 7B1D0000 		.4byte	0x1d7b
 12493 3e40 4B3E0000 		.4byte	0x3e4b
 12494 3e44 34       		.uleb128 0x34
 12495 3e45 01       		.uleb128 0x1
ARM GAS  /tmp/ccSNToGX.s 			page 221


 12496 3e46 50       		.byte	0x50
 12497 3e47 02       		.uleb128 0x2
 12498 3e48 74       		.byte	0x74
 12499 3e49 00       		.sleb128 0
 12500 3e4a 00       		.byte	0
 12501 3e4b 32       		.uleb128 0x32
 12502 3e4c 2A000000 		.4byte	.LVL384
 12503 3e50 54410000 		.4byte	0x4154
 12504 3e54 32       		.uleb128 0x32
 12505 3e55 32000000 		.4byte	.LVL386
 12506 3e59 5F410000 		.4byte	0x415f
 12507 3e5d 32       		.uleb128 0x32
 12508 3e5e 3A000000 		.4byte	.LVL388
 12509 3e62 54410000 		.4byte	0x4154
 12510 3e66 00       		.byte	0
 12511 3e67 5D       		.uleb128 0x5d
 12512 3e68 461D0000 		.4byte	0x1d46
 12513 3e6c 00000000 		.4byte	.LFB355
 12514 3e70 4C000000 		.4byte	.LFE355-.LFB355
 12515 3e74 01       		.uleb128 0x1
 12516 3e75 9C       		.byte	0x9c
 12517 3e76 1E3F0000 		.4byte	0x3f1e
 12518 3e7a 3F       		.uleb128 0x3f
 12519 3e7b 571D0000 		.4byte	0x1d57
 12520 3e7f 781F0000 		.4byte	.LLST173
 12521 3e83 41       		.uleb128 0x41
 12522 3e84 631D0000 		.4byte	0x1d63
 12523 3e88 C81F0000 		.4byte	.LLST174
 12524 3e8c 41       		.uleb128 0x41
 12525 3e8d 6F1D0000 		.4byte	0x1d6f
 12526 3e91 E61F0000 		.4byte	.LLST175
 12527 3e95 51       		.uleb128 0x51
 12528 3e96 E4390000 		.4byte	0x39e4
 12529 3e9a 00000000 		.4byte	.LBB178
 12530 3e9e C0000000 		.4byte	.Ldebug_ranges0+0xc0
 12531 3ea2 01       		.byte	0x1
 12532 3ea3 2309     		.2byte	0x923
 12533 3ea5 B33E0000 		.4byte	0x3eb3
 12534 3ea9 3F       		.uleb128 0x3f
 12535 3eaa F4390000 		.4byte	0x39f4
 12536 3eae F91F0000 		.4byte	.LLST176
 12537 3eb2 00       		.byte	0
 12538 3eb3 5F       		.uleb128 0x5f
 12539 3eb4 3A000000 		.4byte	.LBB182
 12540 3eb8 12000000 		.4byte	.LBE182-.LBB182
 12541 3ebc E73E0000 		.4byte	0x3ee7
 12542 3ec0 3F       		.uleb128 0x3f
 12543 3ec1 571D0000 		.4byte	0x1d57
 12544 3ec5 0C200000 		.4byte	.LLST177
 12545 3ec9 60       		.uleb128 0x60
 12546 3eca 3A000000 		.4byte	.LBB183
 12547 3ece 12000000 		.4byte	.LBE183-.LBB183
 12548 3ed2 5E       		.uleb128 0x5e
 12549 3ed3 833E0000 		.4byte	0x3e83
 12550 3ed7 5E       		.uleb128 0x5e
 12551 3ed8 8C3E0000 		.4byte	0x3e8c
 12552 3edc 32       		.uleb128 0x32
ARM GAS  /tmp/ccSNToGX.s 			page 222


 12553 3edd 3E000000 		.4byte	.LVL433
 12554 3ee1 54410000 		.4byte	0x4154
 12555 3ee5 00       		.byte	0
 12556 3ee6 00       		.byte	0
 12557 3ee7 33       		.uleb128 0x33
 12558 3ee8 0C000000 		.4byte	.LVL427
 12559 3eec 07330000 		.4byte	0x3307
 12560 3ef0 FB3E0000 		.4byte	0x3efb
 12561 3ef4 34       		.uleb128 0x34
 12562 3ef5 01       		.uleb128 0x1
 12563 3ef6 50       		.byte	0x50
 12564 3ef7 02       		.uleb128 0x2
 12565 3ef8 74       		.byte	0x74
 12566 3ef9 00       		.sleb128 0
 12567 3efa 00       		.byte	0
 12568 3efb 32       		.uleb128 0x32
 12569 3efc 18000000 		.4byte	.LVL429
 12570 3f00 79420000 		.4byte	0x4279
 12571 3f04 32       		.uleb128 0x32
 12572 3f05 28000000 		.4byte	.LVL430
 12573 3f09 79420000 		.4byte	0x4279
 12574 3f0d 38       		.uleb128 0x38
 12575 3f0e 36000000 		.4byte	.LVL431
 12576 3f12 79420000 		.4byte	0x4279
 12577 3f16 34       		.uleb128 0x34
 12578 3f17 01       		.uleb128 0x1
 12579 3f18 50       		.byte	0x50
 12580 3f19 02       		.uleb128 0x2
 12581 3f1a 75       		.byte	0x75
 12582 3f1b 00       		.sleb128 0
 12583 3f1c 00       		.byte	0
 12584 3f1d 00       		.byte	0
 12585 3f1e 5D       		.uleb128 0x5d
 12586 3f1f 131D0000 		.4byte	0x1d13
 12587 3f23 00000000 		.4byte	.LFB356
 12588 3f27 5C000000 		.4byte	.LFE356-.LFB356
 12589 3f2b 01       		.uleb128 0x1
 12590 3f2c 9C       		.byte	0x9c
 12591 3f2d BF3F0000 		.4byte	0x3fbf
 12592 3f31 41       		.uleb128 0x41
 12593 3f32 241D0000 		.4byte	0x1d24
 12594 3f36 2A200000 		.4byte	.LLST184
 12595 3f3a 41       		.uleb128 0x41
 12596 3f3b 2E1D0000 		.4byte	0x1d2e
 12597 3f3f 54200000 		.4byte	.LLST185
 12598 3f43 41       		.uleb128 0x41
 12599 3f44 3A1D0000 		.4byte	0x1d3a
 12600 3f48 88200000 		.4byte	.LLST186
 12601 3f4c 50       		.uleb128 0x50
 12602 3f4d E4390000 		.4byte	0x39e4
 12603 3f51 14000000 		.4byte	.LBB190
 12604 3f55 04000000 		.4byte	.LBE190-.LBB190
 12605 3f59 01       		.byte	0x1
 12606 3f5a 5209     		.2byte	0x952
 12607 3f5c 6A3F0000 		.4byte	0x3f6a
 12608 3f60 3F       		.uleb128 0x3f
 12609 3f61 F4390000 		.4byte	0x39f4
ARM GAS  /tmp/ccSNToGX.s 			page 223


 12610 3f65 A6200000 		.4byte	.LLST187
 12611 3f69 00       		.byte	0
 12612 3f6a 32       		.uleb128 0x32
 12613 3f6b 10000000 		.4byte	.LVL456
 12614 3f6f 54410000 		.4byte	0x4154
 12615 3f73 33       		.uleb128 0x33
 12616 3f74 28000000 		.4byte	.LVL459
 12617 3f78 96410000 		.4byte	0x4196
 12618 3f7c 8B3F0000 		.4byte	0x3f8b
 12619 3f80 34       		.uleb128 0x34
 12620 3f81 01       		.uleb128 0x1
 12621 3f82 50       		.byte	0x50
 12622 3f83 01       		.uleb128 0x1
 12623 3f84 4C       		.byte	0x4c
 12624 3f85 34       		.uleb128 0x34
 12625 3f86 01       		.uleb128 0x1
 12626 3f87 51       		.byte	0x51
 12627 3f88 01       		.uleb128 0x1
 12628 3f89 31       		.byte	0x31
 12629 3f8a 00       		.byte	0
 12630 3f8b 32       		.uleb128 0x32
 12631 3f8c 30000000 		.4byte	.LVL461
 12632 3f90 54410000 		.4byte	0x4154
 12633 3f94 33       		.uleb128 0x33
 12634 3f95 44000000 		.4byte	.LVL466
 12635 3f99 96410000 		.4byte	0x4196
 12636 3f9d AE3F0000 		.4byte	0x3fae
 12637 3fa1 34       		.uleb128 0x34
 12638 3fa2 01       		.uleb128 0x1
 12639 3fa3 50       		.byte	0x50
 12640 3fa4 03       		.uleb128 0x3
 12641 3fa5 0A       		.byte	0xa
 12642 3fa6 5002     		.2byte	0x250
 12643 3fa8 34       		.uleb128 0x34
 12644 3fa9 01       		.uleb128 0x1
 12645 3faa 51       		.byte	0x51
 12646 3fab 01       		.uleb128 0x1
 12647 3fac 31       		.byte	0x31
 12648 3fad 00       		.byte	0
 12649 3fae 38       		.uleb128 0x38
 12650 3faf 4C000000 		.4byte	.LVL468
 12651 3fb3 79420000 		.4byte	0x4279
 12652 3fb7 34       		.uleb128 0x34
 12653 3fb8 01       		.uleb128 0x1
 12654 3fb9 50       		.byte	0x50
 12655 3fba 02       		.uleb128 0x2
 12656 3fbb 75       		.byte	0x75
 12657 3fbc 00       		.sleb128 0
 12658 3fbd 00       		.byte	0
 12659 3fbe 00       		.byte	0
 12660 3fbf 5D       		.uleb128 0x5d
 12661 3fc0 E91C0000 		.4byte	0x1ce9
 12662 3fc4 00000000 		.4byte	.LFB357
 12663 3fc8 D4000000 		.4byte	.LFE357-.LFB357
 12664 3fcc 01       		.uleb128 0x1
 12665 3fcd 9C       		.byte	0x9c
 12666 3fce 54410000 		.4byte	0x4154
ARM GAS  /tmp/ccSNToGX.s 			page 224


 12667 3fd2 3F       		.uleb128 0x3f
 12668 3fd3 FA1C0000 		.4byte	0x1cfa
 12669 3fd7 C5200000 		.4byte	.LLST195
 12670 3fdb 43       		.uleb128 0x43
 12671 3fdc 061D0000 		.4byte	0x1d06
 12672 3fe0 00       		.byte	0
 12673 3fe1 4E       		.uleb128 0x4e
 12674 3fe2 D8000000 		.4byte	.Ldebug_ranges0+0xd8
 12675 3fe6 C6400000 		.4byte	0x40c6
 12676 3fea 3F       		.uleb128 0x3f
 12677 3feb FA1C0000 		.4byte	0x1cfa
 12678 3fef F1200000 		.4byte	.LLST196
 12679 3ff3 40       		.uleb128 0x40
 12680 3ff4 D8000000 		.4byte	.Ldebug_ranges0+0xd8
 12681 3ff8 5E       		.uleb128 0x5e
 12682 3ff9 DB3F0000 		.4byte	0x3fdb
 12683 3ffd 33       		.uleb128 0x33
 12684 3ffe 40000000 		.4byte	.LVL508
 12685 4002 2A420000 		.4byte	0x422a
 12686 4006 1A400000 		.4byte	0x401a
 12687 400a 34       		.uleb128 0x34
 12688 400b 01       		.uleb128 0x1
 12689 400c 50       		.byte	0x50
 12690 400d 02       		.uleb128 0x2
 12691 400e 74       		.byte	0x74
 12692 400f 00       		.sleb128 0
 12693 4010 34       		.uleb128 0x34
 12694 4011 01       		.uleb128 0x1
 12695 4012 51       		.byte	0x51
 12696 4013 05       		.uleb128 0x5
 12697 4014 03       		.byte	0x3
 12698 4015 10000000 		.4byte	.LC9
 12699 4019 00       		.byte	0
 12700 401a 33       		.uleb128 0x33
 12701 401b 4A000000 		.4byte	.LVL509
 12702 401f 2A420000 		.4byte	0x422a
 12703 4023 37400000 		.4byte	0x4037
 12704 4027 34       		.uleb128 0x34
 12705 4028 01       		.uleb128 0x1
 12706 4029 50       		.byte	0x50
 12707 402a 02       		.uleb128 0x2
 12708 402b 74       		.byte	0x74
 12709 402c 00       		.sleb128 0
 12710 402d 34       		.uleb128 0x34
 12711 402e 01       		.uleb128 0x1
 12712 402f 51       		.byte	0x51
 12713 4030 05       		.uleb128 0x5
 12714 4031 03       		.byte	0x3
 12715 4032 12000000 		.4byte	.LC10
 12716 4036 00       		.byte	0
 12717 4037 33       		.uleb128 0x33
 12718 4038 54000000 		.4byte	.LVL510
 12719 403c 2A420000 		.4byte	0x422a
 12720 4040 54400000 		.4byte	0x4054
 12721 4044 34       		.uleb128 0x34
 12722 4045 01       		.uleb128 0x1
 12723 4046 50       		.byte	0x50
ARM GAS  /tmp/ccSNToGX.s 			page 225


 12724 4047 02       		.uleb128 0x2
 12725 4048 74       		.byte	0x74
 12726 4049 00       		.sleb128 0
 12727 404a 34       		.uleb128 0x34
 12728 404b 01       		.uleb128 0x1
 12729 404c 51       		.byte	0x51
 12730 404d 05       		.uleb128 0x5
 12731 404e 03       		.byte	0x3
 12732 404f 15000000 		.4byte	.LC11
 12733 4053 00       		.byte	0
 12734 4054 33       		.uleb128 0x33
 12735 4055 5E000000 		.4byte	.LVL511
 12736 4059 2A420000 		.4byte	0x422a
 12737 405d 71400000 		.4byte	0x4071
 12738 4061 34       		.uleb128 0x34
 12739 4062 01       		.uleb128 0x1
 12740 4063 50       		.byte	0x50
 12741 4064 02       		.uleb128 0x2
 12742 4065 74       		.byte	0x74
 12743 4066 00       		.sleb128 0
 12744 4067 34       		.uleb128 0x34
 12745 4068 01       		.uleb128 0x1
 12746 4069 51       		.byte	0x51
 12747 406a 05       		.uleb128 0x5
 12748 406b 03       		.byte	0x3
 12749 406c 18000000 		.4byte	.LC12
 12750 4070 00       		.byte	0
 12751 4071 33       		.uleb128 0x33
 12752 4072 68000000 		.4byte	.LVL512
 12753 4076 2A420000 		.4byte	0x422a
 12754 407a 8E400000 		.4byte	0x408e
 12755 407e 34       		.uleb128 0x34
 12756 407f 01       		.uleb128 0x1
 12757 4080 50       		.byte	0x50
 12758 4081 02       		.uleb128 0x2
 12759 4082 74       		.byte	0x74
 12760 4083 00       		.sleb128 0
 12761 4084 34       		.uleb128 0x34
 12762 4085 01       		.uleb128 0x1
 12763 4086 51       		.byte	0x51
 12764 4087 05       		.uleb128 0x5
 12765 4088 03       		.byte	0x3
 12766 4089 1C000000 		.4byte	.LC13
 12767 408d 00       		.byte	0
 12768 408e 33       		.uleb128 0x33
 12769 408f 72000000 		.4byte	.LVL513
 12770 4093 2A420000 		.4byte	0x422a
 12771 4097 AB400000 		.4byte	0x40ab
 12772 409b 34       		.uleb128 0x34
 12773 409c 01       		.uleb128 0x1
 12774 409d 50       		.byte	0x50
 12775 409e 02       		.uleb128 0x2
 12776 409f 74       		.byte	0x74
 12777 40a0 00       		.sleb128 0
 12778 40a1 34       		.uleb128 0x34
 12779 40a2 01       		.uleb128 0x1
 12780 40a3 51       		.byte	0x51
ARM GAS  /tmp/ccSNToGX.s 			page 226


 12781 40a4 05       		.uleb128 0x5
 12782 40a5 03       		.byte	0x3
 12783 40a6 20000000 		.4byte	.LC14
 12784 40aa 00       		.byte	0
 12785 40ab 38       		.uleb128 0x38
 12786 40ac 7C000000 		.4byte	.LVL514
 12787 40b0 2A420000 		.4byte	0x422a
 12788 40b4 34       		.uleb128 0x34
 12789 40b5 01       		.uleb128 0x1
 12790 40b6 50       		.byte	0x50
 12791 40b7 02       		.uleb128 0x2
 12792 40b8 74       		.byte	0x74
 12793 40b9 00       		.sleb128 0
 12794 40ba 34       		.uleb128 0x34
 12795 40bb 01       		.uleb128 0x1
 12796 40bc 51       		.byte	0x51
 12797 40bd 05       		.uleb128 0x5
 12798 40be 03       		.byte	0x3
 12799 40bf 22000000 		.4byte	.LC15
 12800 40c3 00       		.byte	0
 12801 40c4 00       		.byte	0
 12802 40c5 00       		.byte	0
 12803 40c6 33       		.uleb128 0x33
 12804 40c7 0A000000 		.4byte	.LVL502
 12805 40cb 2A420000 		.4byte	0x422a
 12806 40cf E3400000 		.4byte	0x40e3
 12807 40d3 34       		.uleb128 0x34
 12808 40d4 01       		.uleb128 0x1
 12809 40d5 50       		.byte	0x50
 12810 40d6 02       		.uleb128 0x2
 12811 40d7 74       		.byte	0x74
 12812 40d8 00       		.sleb128 0
 12813 40d9 34       		.uleb128 0x34
 12814 40da 01       		.uleb128 0x1
 12815 40db 51       		.byte	0x51
 12816 40dc 05       		.uleb128 0x5
 12817 40dd 03       		.byte	0x3
 12818 40de 00000000 		.4byte	.LC4
 12819 40e2 00       		.byte	0
 12820 40e3 33       		.uleb128 0x33
 12821 40e4 16000000 		.4byte	.LVL503
 12822 40e8 2A420000 		.4byte	0x422a
 12823 40ec 00410000 		.4byte	0x4100
 12824 40f0 34       		.uleb128 0x34
 12825 40f1 01       		.uleb128 0x1
 12826 40f2 50       		.byte	0x50
 12827 40f3 02       		.uleb128 0x2
 12828 40f4 74       		.byte	0x74
 12829 40f5 00       		.sleb128 0
 12830 40f6 34       		.uleb128 0x34
 12831 40f7 01       		.uleb128 0x1
 12832 40f8 51       		.byte	0x51
 12833 40f9 05       		.uleb128 0x5
 12834 40fa 03       		.byte	0x3
 12835 40fb 02000000 		.4byte	.LC5
 12836 40ff 00       		.byte	0
 12837 4100 33       		.uleb128 0x33
ARM GAS  /tmp/ccSNToGX.s 			page 227


 12838 4101 22000000 		.4byte	.LVL504
 12839 4105 2A420000 		.4byte	0x422a
 12840 4109 1D410000 		.4byte	0x411d
 12841 410d 34       		.uleb128 0x34
 12842 410e 01       		.uleb128 0x1
 12843 410f 50       		.byte	0x50
 12844 4110 02       		.uleb128 0x2
 12845 4111 74       		.byte	0x74
 12846 4112 00       		.sleb128 0
 12847 4113 34       		.uleb128 0x34
 12848 4114 01       		.uleb128 0x1
 12849 4115 51       		.byte	0x51
 12850 4116 05       		.uleb128 0x5
 12851 4117 03       		.byte	0x3
 12852 4118 05000000 		.4byte	.LC6
 12853 411c 00       		.byte	0
 12854 411d 33       		.uleb128 0x33
 12855 411e 2C000000 		.4byte	.LVL505
 12856 4122 2A420000 		.4byte	0x422a
 12857 4126 3A410000 		.4byte	0x413a
 12858 412a 34       		.uleb128 0x34
 12859 412b 01       		.uleb128 0x1
 12860 412c 50       		.byte	0x50
 12861 412d 02       		.uleb128 0x2
 12862 412e 74       		.byte	0x74
 12863 412f 00       		.sleb128 0
 12864 4130 34       		.uleb128 0x34
 12865 4131 01       		.uleb128 0x1
 12866 4132 51       		.byte	0x51
 12867 4133 05       		.uleb128 0x5
 12868 4134 03       		.byte	0x3
 12869 4135 08000000 		.4byte	.LC7
 12870 4139 00       		.byte	0
 12871 413a 38       		.uleb128 0x38
 12872 413b 36000000 		.4byte	.LVL506
 12873 413f 2A420000 		.4byte	0x422a
 12874 4143 34       		.uleb128 0x34
 12875 4144 01       		.uleb128 0x1
 12876 4145 50       		.byte	0x50
 12877 4146 02       		.uleb128 0x2
 12878 4147 74       		.byte	0x74
 12879 4148 00       		.sleb128 0
 12880 4149 34       		.uleb128 0x34
 12881 414a 01       		.uleb128 0x1
 12882 414b 51       		.byte	0x51
 12883 414c 05       		.uleb128 0x5
 12884 414d 03       		.byte	0x3
 12885 414e 0C000000 		.4byte	.LC8
 12886 4152 00       		.byte	0
 12887 4153 00       		.byte	0
 12888 4154 62       		.uleb128 0x62
 12889 4155 99030000 		.4byte	.LASF510
 12890 4159 99030000 		.4byte	.LASF510
 12891 415d 20       		.byte	0x20
 12892 415e 0F       		.byte	0xf
 12893 415f 62       		.uleb128 0x62
 12894 4160 D2090000 		.4byte	.LASF511
ARM GAS  /tmp/ccSNToGX.s 			page 228


 12895 4164 D2090000 		.4byte	.LASF511
 12896 4168 1A       		.byte	0x1a
 12897 4169 F8       		.byte	0xf8
 12898 416a 62       		.uleb128 0x62
 12899 416b 80140000 		.4byte	.LASF512
 12900 416f 80140000 		.4byte	.LASF512
 12901 4173 22       		.byte	0x22
 12902 4174 1E       		.byte	0x1e
 12903 4175 62       		.uleb128 0x62
 12904 4176 E0070000 		.4byte	.LASF513
 12905 417a E0070000 		.4byte	.LASF513
 12906 417e 1F       		.byte	0x1f
 12907 417f 3F       		.byte	0x3f
 12908 4180 62       		.uleb128 0x62
 12909 4181 00110000 		.4byte	.LASF514
 12910 4185 00110000 		.4byte	.LASF514
 12911 4189 1A       		.byte	0x1a
 12912 418a F4       		.byte	0xf4
 12913 418b 62       		.uleb128 0x62
 12914 418c A2120000 		.4byte	.LASF515
 12915 4190 A2120000 		.4byte	.LASF515
 12916 4194 1A       		.byte	0x1a
 12917 4195 F6       		.byte	0xf6
 12918 4196 62       		.uleb128 0x62
 12919 4197 A2020000 		.4byte	.LASF516
 12920 419b A2020000 		.4byte	.LASF516
 12921 419f 22       		.byte	0x22
 12922 41a0 2B       		.byte	0x2b
 12923 41a1 62       		.uleb128 0x62
 12924 41a2 2A070000 		.4byte	.LASF517
 12925 41a6 2A070000 		.4byte	.LASF517
 12926 41aa 23       		.byte	0x23
 12927 41ab 28       		.byte	0x28
 12928 41ac 62       		.uleb128 0x62
 12929 41ad E10D0000 		.4byte	.LASF518
 12930 41b1 E10D0000 		.4byte	.LASF518
 12931 41b5 1A       		.byte	0x1a
 12932 41b6 FB       		.byte	0xfb
 12933 41b7 62       		.uleb128 0x62
 12934 41b8 AA0E0000 		.4byte	.LASF519
 12935 41bc AA0E0000 		.4byte	.LASF519
 12936 41c0 23       		.byte	0x23
 12937 41c1 25       		.byte	0x25
 12938 41c2 62       		.uleb128 0x62
 12939 41c3 03060000 		.4byte	.LASF520
 12940 41c7 03060000 		.4byte	.LASF520
 12941 41cb 1A       		.byte	0x1a
 12942 41cc F9       		.byte	0xf9
 12943 41cd 62       		.uleb128 0x62
 12944 41ce B4040000 		.4byte	.LASF521
 12945 41d2 B4040000 		.4byte	.LASF521
 12946 41d6 1A       		.byte	0x1a
 12947 41d7 FA       		.byte	0xfa
 12948 41d8 62       		.uleb128 0x62
 12949 41d9 6D110000 		.4byte	.LASF522
 12950 41dd 6D110000 		.4byte	.LASF522
 12951 41e1 1A       		.byte	0x1a
ARM GAS  /tmp/ccSNToGX.s 			page 229


 12952 41e2 FF       		.byte	0xff
 12953 41e3 63       		.uleb128 0x63
 12954 41e4 F10F0000 		.4byte	.LASF523
 12955 41e8 F10F0000 		.4byte	.LASF523
 12956 41ec 1A       		.byte	0x1a
 12957 41ed 0001     		.2byte	0x100
 12958 41ef 62       		.uleb128 0x62
 12959 41f0 58070000 		.4byte	.LASF524
 12960 41f4 58070000 		.4byte	.LASF524
 12961 41f8 1A       		.byte	0x1a
 12962 41f9 FE       		.byte	0xfe
 12963 41fa 63       		.uleb128 0x63
 12964 41fb FD110000 		.4byte	.LASF525
 12965 41ff FD110000 		.4byte	.LASF525
 12966 4203 1A       		.byte	0x1a
 12967 4204 0601     		.2byte	0x106
 12968 4206 63       		.uleb128 0x63
 12969 4207 440F0000 		.4byte	.LASF526
 12970 420b 440F0000 		.4byte	.LASF526
 12971 420f 1A       		.byte	0x1a
 12972 4210 0401     		.2byte	0x104
 12973 4212 63       		.uleb128 0x63
 12974 4213 F1020000 		.4byte	.LASF527
 12975 4217 F1020000 		.4byte	.LASF527
 12976 421b 1A       		.byte	0x1a
 12977 421c 0701     		.2byte	0x107
 12978 421e 63       		.uleb128 0x63
 12979 421f B80E0000 		.4byte	.LASF528
 12980 4223 B80E0000 		.4byte	.LASF528
 12981 4227 1A       		.byte	0x1a
 12982 4228 0301     		.2byte	0x103
 12983 422a 62       		.uleb128 0x62
 12984 422b 2E140000 		.4byte	.LASF529
 12985 422f 2E140000 		.4byte	.LASF529
 12986 4233 23       		.byte	0x23
 12987 4234 20       		.byte	0x20
 12988 4235 63       		.uleb128 0x63
 12989 4236 D60F0000 		.4byte	.LASF530
 12990 423a D60F0000 		.4byte	.LASF530
 12991 423e 1A       		.byte	0x1a
 12992 423f 0101     		.2byte	0x101
 12993 4241 62       		.uleb128 0x62
 12994 4242 510A0000 		.4byte	.LASF531
 12995 4246 510A0000 		.4byte	.LASF531
 12996 424a 1A       		.byte	0x1a
 12997 424b F5       		.byte	0xf5
 12998 424c 62       		.uleb128 0x62
 12999 424d C50A0000 		.4byte	.LASF532
 13000 4251 C50A0000 		.4byte	.LASF532
 13001 4255 1A       		.byte	0x1a
 13002 4256 F2       		.byte	0xf2
 13003 4257 62       		.uleb128 0x62
 13004 4258 25120000 		.4byte	.LASF533
 13005 425c 25120000 		.4byte	.LASF533
 13006 4260 1A       		.byte	0x1a
 13007 4261 F7       		.byte	0xf7
 13008 4262 62       		.uleb128 0x62
ARM GAS  /tmp/ccSNToGX.s 			page 230


 13009 4263 AA120000 		.4byte	.LASF534
 13010 4267 AA120000 		.4byte	.LASF534
 13011 426b 1A       		.byte	0x1a
 13012 426c F3       		.byte	0xf3
 13013 426d 63       		.uleb128 0x63
 13014 426e 990E0000 		.4byte	.LASF535
 13015 4272 990E0000 		.4byte	.LASF535
 13016 4276 1A       		.byte	0x1a
 13017 4277 0201     		.2byte	0x102
 13018 4279 62       		.uleb128 0x62
 13019 427a D5030000 		.4byte	.LASF536
 13020 427e D5030000 		.4byte	.LASF536
 13021 4282 22       		.byte	0x22
 13022 4283 2C       		.byte	0x2c
 13023 4284 00       		.byte	0
 13024              		.section	.debug_abbrev,"",%progbits
 13025              	.Ldebug_abbrev0:
 13026 0000 01       		.uleb128 0x1
 13027 0001 11       		.uleb128 0x11
 13028 0002 01       		.byte	0x1
 13029 0003 25       		.uleb128 0x25
 13030 0004 0E       		.uleb128 0xe
 13031 0005 13       		.uleb128 0x13
 13032 0006 0B       		.uleb128 0xb
 13033 0007 03       		.uleb128 0x3
 13034 0008 0E       		.uleb128 0xe
 13035 0009 1B       		.uleb128 0x1b
 13036 000a 0E       		.uleb128 0xe
 13037 000b 55       		.uleb128 0x55
 13038 000c 17       		.uleb128 0x17
 13039 000d 11       		.uleb128 0x11
 13040 000e 01       		.uleb128 0x1
 13041 000f 10       		.uleb128 0x10
 13042 0010 17       		.uleb128 0x17
 13043 0011 00       		.byte	0
 13044 0012 00       		.byte	0
 13045 0013 02       		.uleb128 0x2
 13046 0014 24       		.uleb128 0x24
 13047 0015 00       		.byte	0
 13048 0016 0B       		.uleb128 0xb
 13049 0017 0B       		.uleb128 0xb
 13050 0018 3E       		.uleb128 0x3e
 13051 0019 0B       		.uleb128 0xb
 13052 001a 03       		.uleb128 0x3
 13053 001b 08       		.uleb128 0x8
 13054 001c 00       		.byte	0
 13055 001d 00       		.byte	0
 13056 001e 03       		.uleb128 0x3
 13057 001f 16       		.uleb128 0x16
 13058 0020 00       		.byte	0
 13059 0021 03       		.uleb128 0x3
 13060 0022 0E       		.uleb128 0xe
 13061 0023 3A       		.uleb128 0x3a
 13062 0024 0B       		.uleb128 0xb
 13063 0025 3B       		.uleb128 0x3b
 13064 0026 0B       		.uleb128 0xb
 13065 0027 49       		.uleb128 0x49
ARM GAS  /tmp/ccSNToGX.s 			page 231


 13066 0028 13       		.uleb128 0x13
 13067 0029 00       		.byte	0
 13068 002a 00       		.byte	0
 13069 002b 04       		.uleb128 0x4
 13070 002c 24       		.uleb128 0x24
 13071 002d 00       		.byte	0
 13072 002e 0B       		.uleb128 0xb
 13073 002f 0B       		.uleb128 0xb
 13074 0030 3E       		.uleb128 0x3e
 13075 0031 0B       		.uleb128 0xb
 13076 0032 03       		.uleb128 0x3
 13077 0033 0E       		.uleb128 0xe
 13078 0034 00       		.byte	0
 13079 0035 00       		.byte	0
 13080 0036 05       		.uleb128 0x5
 13081 0037 26       		.uleb128 0x26
 13082 0038 00       		.byte	0
 13083 0039 49       		.uleb128 0x49
 13084 003a 13       		.uleb128 0x13
 13085 003b 00       		.byte	0
 13086 003c 00       		.byte	0
 13087 003d 06       		.uleb128 0x6
 13088 003e 0F       		.uleb128 0xf
 13089 003f 00       		.byte	0
 13090 0040 0B       		.uleb128 0xb
 13091 0041 0B       		.uleb128 0xb
 13092 0042 49       		.uleb128 0x49
 13093 0043 13       		.uleb128 0x13
 13094 0044 00       		.byte	0
 13095 0045 00       		.byte	0
 13096 0046 07       		.uleb128 0x7
 13097 0047 13       		.uleb128 0x13
 13098 0048 00       		.byte	0
 13099 0049 03       		.uleb128 0x3
 13100 004a 0E       		.uleb128 0xe
 13101 004b 3C       		.uleb128 0x3c
 13102 004c 19       		.uleb128 0x19
 13103 004d 00       		.byte	0
 13104 004e 00       		.byte	0
 13105 004f 08       		.uleb128 0x8
 13106 0050 16       		.uleb128 0x16
 13107 0051 00       		.byte	0
 13108 0052 03       		.uleb128 0x3
 13109 0053 0E       		.uleb128 0xe
 13110 0054 3A       		.uleb128 0x3a
 13111 0055 0B       		.uleb128 0xb
 13112 0056 3B       		.uleb128 0x3b
 13113 0057 05       		.uleb128 0x5
 13114 0058 49       		.uleb128 0x49
 13115 0059 13       		.uleb128 0x13
 13116 005a 00       		.byte	0
 13117 005b 00       		.byte	0
 13118 005c 09       		.uleb128 0x9
 13119 005d 17       		.uleb128 0x17
 13120 005e 01       		.byte	0x1
 13121 005f 0B       		.uleb128 0xb
 13122 0060 0B       		.uleb128 0xb
ARM GAS  /tmp/ccSNToGX.s 			page 232


 13123 0061 3A       		.uleb128 0x3a
 13124 0062 0B       		.uleb128 0xb
 13125 0063 3B       		.uleb128 0x3b
 13126 0064 0B       		.uleb128 0xb
 13127 0065 01       		.uleb128 0x1
 13128 0066 13       		.uleb128 0x13
 13129 0067 00       		.byte	0
 13130 0068 00       		.byte	0
 13131 0069 0A       		.uleb128 0xa
 13132 006a 0D       		.uleb128 0xd
 13133 006b 00       		.byte	0
 13134 006c 03       		.uleb128 0x3
 13135 006d 0E       		.uleb128 0xe
 13136 006e 3A       		.uleb128 0x3a
 13137 006f 0B       		.uleb128 0xb
 13138 0070 3B       		.uleb128 0x3b
 13139 0071 0B       		.uleb128 0xb
 13140 0072 49       		.uleb128 0x49
 13141 0073 13       		.uleb128 0x13
 13142 0074 00       		.byte	0
 13143 0075 00       		.byte	0
 13144 0076 0B       		.uleb128 0xb
 13145 0077 01       		.uleb128 0x1
 13146 0078 01       		.byte	0x1
 13147 0079 49       		.uleb128 0x49
 13148 007a 13       		.uleb128 0x13
 13149 007b 01       		.uleb128 0x1
 13150 007c 13       		.uleb128 0x13
 13151 007d 00       		.byte	0
 13152 007e 00       		.byte	0
 13153 007f 0C       		.uleb128 0xc
 13154 0080 21       		.uleb128 0x21
 13155 0081 00       		.byte	0
 13156 0082 49       		.uleb128 0x49
 13157 0083 13       		.uleb128 0x13
 13158 0084 2F       		.uleb128 0x2f
 13159 0085 0B       		.uleb128 0xb
 13160 0086 00       		.byte	0
 13161 0087 00       		.byte	0
 13162 0088 0D       		.uleb128 0xd
 13163 0089 13       		.uleb128 0x13
 13164 008a 01       		.byte	0x1
 13165 008b 0B       		.uleb128 0xb
 13166 008c 0B       		.uleb128 0xb
 13167 008d 3A       		.uleb128 0x3a
 13168 008e 0B       		.uleb128 0xb
 13169 008f 3B       		.uleb128 0x3b
 13170 0090 0B       		.uleb128 0xb
 13171 0091 01       		.uleb128 0x1
 13172 0092 13       		.uleb128 0x13
 13173 0093 00       		.byte	0
 13174 0094 00       		.byte	0
 13175 0095 0E       		.uleb128 0xe
 13176 0096 0D       		.uleb128 0xd
 13177 0097 00       		.byte	0
 13178 0098 03       		.uleb128 0x3
 13179 0099 0E       		.uleb128 0xe
ARM GAS  /tmp/ccSNToGX.s 			page 233


 13180 009a 3A       		.uleb128 0x3a
 13181 009b 0B       		.uleb128 0xb
 13182 009c 3B       		.uleb128 0x3b
 13183 009d 0B       		.uleb128 0xb
 13184 009e 49       		.uleb128 0x49
 13185 009f 13       		.uleb128 0x13
 13186 00a0 38       		.uleb128 0x38
 13187 00a1 0B       		.uleb128 0xb
 13188 00a2 00       		.byte	0
 13189 00a3 00       		.byte	0
 13190 00a4 0F       		.uleb128 0xf
 13191 00a5 0F       		.uleb128 0xf
 13192 00a6 00       		.byte	0
 13193 00a7 0B       		.uleb128 0xb
 13194 00a8 0B       		.uleb128 0xb
 13195 00a9 00       		.byte	0
 13196 00aa 00       		.byte	0
 13197 00ab 10       		.uleb128 0x10
 13198 00ac 13       		.uleb128 0x13
 13199 00ad 01       		.byte	0x1
 13200 00ae 03       		.uleb128 0x3
 13201 00af 0E       		.uleb128 0xe
 13202 00b0 0B       		.uleb128 0xb
 13203 00b1 0B       		.uleb128 0xb
 13204 00b2 3A       		.uleb128 0x3a
 13205 00b3 0B       		.uleb128 0xb
 13206 00b4 3B       		.uleb128 0x3b
 13207 00b5 0B       		.uleb128 0xb
 13208 00b6 01       		.uleb128 0x1
 13209 00b7 13       		.uleb128 0x13
 13210 00b8 00       		.byte	0
 13211 00b9 00       		.byte	0
 13212 00ba 11       		.uleb128 0x11
 13213 00bb 0D       		.uleb128 0xd
 13214 00bc 00       		.byte	0
 13215 00bd 03       		.uleb128 0x3
 13216 00be 08       		.uleb128 0x8
 13217 00bf 3A       		.uleb128 0x3a
 13218 00c0 0B       		.uleb128 0xb
 13219 00c1 3B       		.uleb128 0x3b
 13220 00c2 0B       		.uleb128 0xb
 13221 00c3 49       		.uleb128 0x49
 13222 00c4 13       		.uleb128 0x13
 13223 00c5 38       		.uleb128 0x38
 13224 00c6 0B       		.uleb128 0xb
 13225 00c7 00       		.byte	0
 13226 00c8 00       		.byte	0
 13227 00c9 12       		.uleb128 0x12
 13228 00ca 13       		.uleb128 0x13
 13229 00cb 01       		.byte	0x1
 13230 00cc 03       		.uleb128 0x3
 13231 00cd 0E       		.uleb128 0xe
 13232 00ce 0B       		.uleb128 0xb
 13233 00cf 05       		.uleb128 0x5
 13234 00d0 3A       		.uleb128 0x3a
 13235 00d1 0B       		.uleb128 0xb
 13236 00d2 3B       		.uleb128 0x3b
ARM GAS  /tmp/ccSNToGX.s 			page 234


 13237 00d3 0B       		.uleb128 0xb
 13238 00d4 01       		.uleb128 0x1
 13239 00d5 13       		.uleb128 0x13
 13240 00d6 00       		.byte	0
 13241 00d7 00       		.byte	0
 13242 00d8 13       		.uleb128 0x13
 13243 00d9 0D       		.uleb128 0xd
 13244 00da 00       		.byte	0
 13245 00db 03       		.uleb128 0x3
 13246 00dc 0E       		.uleb128 0xe
 13247 00dd 3A       		.uleb128 0x3a
 13248 00de 0B       		.uleb128 0xb
 13249 00df 3B       		.uleb128 0x3b
 13250 00e0 0B       		.uleb128 0xb
 13251 00e1 49       		.uleb128 0x49
 13252 00e2 13       		.uleb128 0x13
 13253 00e3 38       		.uleb128 0x38
 13254 00e4 05       		.uleb128 0x5
 13255 00e5 00       		.byte	0
 13256 00e6 00       		.byte	0
 13257 00e7 14       		.uleb128 0x14
 13258 00e8 15       		.uleb128 0x15
 13259 00e9 00       		.byte	0
 13260 00ea 27       		.uleb128 0x27
 13261 00eb 19       		.uleb128 0x19
 13262 00ec 00       		.byte	0
 13263 00ed 00       		.byte	0
 13264 00ee 15       		.uleb128 0x15
 13265 00ef 15       		.uleb128 0x15
 13266 00f0 01       		.byte	0x1
 13267 00f1 27       		.uleb128 0x27
 13268 00f2 19       		.uleb128 0x19
 13269 00f3 49       		.uleb128 0x49
 13270 00f4 13       		.uleb128 0x13
 13271 00f5 01       		.uleb128 0x1
 13272 00f6 13       		.uleb128 0x13
 13273 00f7 00       		.byte	0
 13274 00f8 00       		.byte	0
 13275 00f9 16       		.uleb128 0x16
 13276 00fa 05       		.uleb128 0x5
 13277 00fb 00       		.byte	0
 13278 00fc 49       		.uleb128 0x49
 13279 00fd 13       		.uleb128 0x13
 13280 00fe 00       		.byte	0
 13281 00ff 00       		.byte	0
 13282 0100 17       		.uleb128 0x17
 13283 0101 13       		.uleb128 0x13
 13284 0102 01       		.byte	0x1
 13285 0103 03       		.uleb128 0x3
 13286 0104 0E       		.uleb128 0xe
 13287 0105 0B       		.uleb128 0xb
 13288 0106 05       		.uleb128 0x5
 13289 0107 3A       		.uleb128 0x3a
 13290 0108 0B       		.uleb128 0xb
 13291 0109 3B       		.uleb128 0x3b
 13292 010a 05       		.uleb128 0x5
 13293 010b 01       		.uleb128 0x1
ARM GAS  /tmp/ccSNToGX.s 			page 235


 13294 010c 13       		.uleb128 0x13
 13295 010d 00       		.byte	0
 13296 010e 00       		.byte	0
 13297 010f 18       		.uleb128 0x18
 13298 0110 0D       		.uleb128 0xd
 13299 0111 00       		.byte	0
 13300 0112 03       		.uleb128 0x3
 13301 0113 0E       		.uleb128 0xe
 13302 0114 3A       		.uleb128 0x3a
 13303 0115 0B       		.uleb128 0xb
 13304 0116 3B       		.uleb128 0x3b
 13305 0117 05       		.uleb128 0x5
 13306 0118 49       		.uleb128 0x49
 13307 0119 13       		.uleb128 0x13
 13308 011a 38       		.uleb128 0x38
 13309 011b 0B       		.uleb128 0xb
 13310 011c 00       		.byte	0
 13311 011d 00       		.byte	0
 13312 011e 19       		.uleb128 0x19
 13313 011f 0D       		.uleb128 0xd
 13314 0120 00       		.byte	0
 13315 0121 03       		.uleb128 0x3
 13316 0122 0E       		.uleb128 0xe
 13317 0123 3A       		.uleb128 0x3a
 13318 0124 0B       		.uleb128 0xb
 13319 0125 3B       		.uleb128 0x3b
 13320 0126 05       		.uleb128 0x5
 13321 0127 49       		.uleb128 0x49
 13322 0128 13       		.uleb128 0x13
 13323 0129 38       		.uleb128 0x38
 13324 012a 05       		.uleb128 0x5
 13325 012b 00       		.byte	0
 13326 012c 00       		.byte	0
 13327 012d 1A       		.uleb128 0x1a
 13328 012e 35       		.uleb128 0x35
 13329 012f 00       		.byte	0
 13330 0130 49       		.uleb128 0x49
 13331 0131 13       		.uleb128 0x13
 13332 0132 00       		.byte	0
 13333 0133 00       		.byte	0
 13334 0134 1B       		.uleb128 0x1b
 13335 0135 13       		.uleb128 0x13
 13336 0136 01       		.byte	0x1
 13337 0137 03       		.uleb128 0x3
 13338 0138 0E       		.uleb128 0xe
 13339 0139 0B       		.uleb128 0xb
 13340 013a 0B       		.uleb128 0xb
 13341 013b 3A       		.uleb128 0x3a
 13342 013c 0B       		.uleb128 0xb
 13343 013d 3B       		.uleb128 0x3b
 13344 013e 05       		.uleb128 0x5
 13345 013f 01       		.uleb128 0x1
 13346 0140 13       		.uleb128 0x13
 13347 0141 00       		.byte	0
 13348 0142 00       		.byte	0
 13349 0143 1C       		.uleb128 0x1c
 13350 0144 13       		.uleb128 0x13
ARM GAS  /tmp/ccSNToGX.s 			page 236


 13351 0145 01       		.byte	0x1
 13352 0146 0B       		.uleb128 0xb
 13353 0147 0B       		.uleb128 0xb
 13354 0148 3A       		.uleb128 0x3a
 13355 0149 0B       		.uleb128 0xb
 13356 014a 3B       		.uleb128 0x3b
 13357 014b 05       		.uleb128 0x5
 13358 014c 01       		.uleb128 0x1
 13359 014d 13       		.uleb128 0x13
 13360 014e 00       		.byte	0
 13361 014f 00       		.byte	0
 13362 0150 1D       		.uleb128 0x1d
 13363 0151 17       		.uleb128 0x17
 13364 0152 01       		.byte	0x1
 13365 0153 0B       		.uleb128 0xb
 13366 0154 0B       		.uleb128 0xb
 13367 0155 3A       		.uleb128 0x3a
 13368 0156 0B       		.uleb128 0xb
 13369 0157 3B       		.uleb128 0x3b
 13370 0158 05       		.uleb128 0x5
 13371 0159 01       		.uleb128 0x1
 13372 015a 13       		.uleb128 0x13
 13373 015b 00       		.byte	0
 13374 015c 00       		.byte	0
 13375 015d 1E       		.uleb128 0x1e
 13376 015e 0D       		.uleb128 0xd
 13377 015f 00       		.byte	0
 13378 0160 03       		.uleb128 0x3
 13379 0161 0E       		.uleb128 0xe
 13380 0162 3A       		.uleb128 0x3a
 13381 0163 0B       		.uleb128 0xb
 13382 0164 3B       		.uleb128 0x3b
 13383 0165 05       		.uleb128 0x5
 13384 0166 49       		.uleb128 0x49
 13385 0167 13       		.uleb128 0x13
 13386 0168 00       		.byte	0
 13387 0169 00       		.byte	0
 13388 016a 1F       		.uleb128 0x1f
 13389 016b 15       		.uleb128 0x15
 13390 016c 01       		.byte	0x1
 13391 016d 27       		.uleb128 0x27
 13392 016e 19       		.uleb128 0x19
 13393 016f 01       		.uleb128 0x1
 13394 0170 13       		.uleb128 0x13
 13395 0171 00       		.byte	0
 13396 0172 00       		.byte	0
 13397 0173 20       		.uleb128 0x20
 13398 0174 34       		.uleb128 0x34
 13399 0175 00       		.byte	0
 13400 0176 03       		.uleb128 0x3
 13401 0177 0E       		.uleb128 0xe
 13402 0178 3A       		.uleb128 0x3a
 13403 0179 0B       		.uleb128 0xb
 13404 017a 3B       		.uleb128 0x3b
 13405 017b 05       		.uleb128 0x5
 13406 017c 49       		.uleb128 0x49
 13407 017d 13       		.uleb128 0x13
ARM GAS  /tmp/ccSNToGX.s 			page 237


 13408 017e 3F       		.uleb128 0x3f
 13409 017f 19       		.uleb128 0x19
 13410 0180 3C       		.uleb128 0x3c
 13411 0181 19       		.uleb128 0x19
 13412 0182 00       		.byte	0
 13413 0183 00       		.byte	0
 13414 0184 21       		.uleb128 0x21
 13415 0185 0D       		.uleb128 0xd
 13416 0186 00       		.byte	0
 13417 0187 03       		.uleb128 0x3
 13418 0188 08       		.uleb128 0x8
 13419 0189 3A       		.uleb128 0x3a
 13420 018a 0B       		.uleb128 0xb
 13421 018b 3B       		.uleb128 0x3b
 13422 018c 05       		.uleb128 0x5
 13423 018d 49       		.uleb128 0x49
 13424 018e 13       		.uleb128 0x13
 13425 018f 38       		.uleb128 0x38
 13426 0190 0B       		.uleb128 0xb
 13427 0191 00       		.byte	0
 13428 0192 00       		.byte	0
 13429 0193 22       		.uleb128 0x22
 13430 0194 34       		.uleb128 0x34
 13431 0195 00       		.byte	0
 13432 0196 03       		.uleb128 0x3
 13433 0197 0E       		.uleb128 0xe
 13434 0198 3A       		.uleb128 0x3a
 13435 0199 0B       		.uleb128 0xb
 13436 019a 3B       		.uleb128 0x3b
 13437 019b 0B       		.uleb128 0xb
 13438 019c 49       		.uleb128 0x49
 13439 019d 13       		.uleb128 0x13
 13440 019e 3F       		.uleb128 0x3f
 13441 019f 19       		.uleb128 0x19
 13442 01a0 3C       		.uleb128 0x3c
 13443 01a1 19       		.uleb128 0x19
 13444 01a2 00       		.byte	0
 13445 01a3 00       		.byte	0
 13446 01a4 23       		.uleb128 0x23
 13447 01a5 34       		.uleb128 0x34
 13448 01a6 00       		.byte	0
 13449 01a7 03       		.uleb128 0x3
 13450 01a8 08       		.uleb128 0x8
 13451 01a9 3A       		.uleb128 0x3a
 13452 01aa 0B       		.uleb128 0xb
 13453 01ab 3B       		.uleb128 0x3b
 13454 01ac 05       		.uleb128 0x5
 13455 01ad 49       		.uleb128 0x49
 13456 01ae 13       		.uleb128 0x13
 13457 01af 3F       		.uleb128 0x3f
 13458 01b0 19       		.uleb128 0x19
 13459 01b1 3C       		.uleb128 0x3c
 13460 01b2 19       		.uleb128 0x19
 13461 01b3 00       		.byte	0
 13462 01b4 00       		.byte	0
 13463 01b5 24       		.uleb128 0x24
 13464 01b6 21       		.uleb128 0x21
ARM GAS  /tmp/ccSNToGX.s 			page 238


 13465 01b7 00       		.byte	0
 13466 01b8 00       		.byte	0
 13467 01b9 00       		.byte	0
 13468 01ba 25       		.uleb128 0x25
 13469 01bb 13       		.uleb128 0x13
 13470 01bc 01       		.byte	0x1
 13471 01bd 0B       		.uleb128 0xb
 13472 01be 05       		.uleb128 0x5
 13473 01bf 3A       		.uleb128 0x3a
 13474 01c0 0B       		.uleb128 0xb
 13475 01c1 3B       		.uleb128 0x3b
 13476 01c2 0B       		.uleb128 0xb
 13477 01c3 01       		.uleb128 0x1
 13478 01c4 13       		.uleb128 0x13
 13479 01c5 00       		.byte	0
 13480 01c6 00       		.byte	0
 13481 01c7 26       		.uleb128 0x26
 13482 01c8 21       		.uleb128 0x21
 13483 01c9 00       		.byte	0
 13484 01ca 49       		.uleb128 0x49
 13485 01cb 13       		.uleb128 0x13
 13486 01cc 2F       		.uleb128 0x2f
 13487 01cd 05       		.uleb128 0x5
 13488 01ce 00       		.byte	0
 13489 01cf 00       		.byte	0
 13490 01d0 27       		.uleb128 0x27
 13491 01d1 16       		.uleb128 0x16
 13492 01d2 00       		.byte	0
 13493 01d3 03       		.uleb128 0x3
 13494 01d4 08       		.uleb128 0x8
 13495 01d5 3A       		.uleb128 0x3a
 13496 01d6 0B       		.uleb128 0xb
 13497 01d7 3B       		.uleb128 0x3b
 13498 01d8 0B       		.uleb128 0xb
 13499 01d9 49       		.uleb128 0x49
 13500 01da 13       		.uleb128 0x13
 13501 01db 00       		.byte	0
 13502 01dc 00       		.byte	0
 13503 01dd 28       		.uleb128 0x28
 13504 01de 04       		.uleb128 0x4
 13505 01df 01       		.byte	0x1
 13506 01e0 0B       		.uleb128 0xb
 13507 01e1 0B       		.uleb128 0xb
 13508 01e2 49       		.uleb128 0x49
 13509 01e3 13       		.uleb128 0x13
 13510 01e4 3A       		.uleb128 0x3a
 13511 01e5 0B       		.uleb128 0xb
 13512 01e6 3B       		.uleb128 0x3b
 13513 01e7 0B       		.uleb128 0xb
 13514 01e8 01       		.uleb128 0x1
 13515 01e9 13       		.uleb128 0x13
 13516 01ea 00       		.byte	0
 13517 01eb 00       		.byte	0
 13518 01ec 29       		.uleb128 0x29
 13519 01ed 28       		.uleb128 0x28
 13520 01ee 00       		.byte	0
 13521 01ef 03       		.uleb128 0x3
ARM GAS  /tmp/ccSNToGX.s 			page 239


 13522 01f0 0E       		.uleb128 0xe
 13523 01f1 1C       		.uleb128 0x1c
 13524 01f2 0B       		.uleb128 0xb
 13525 01f3 00       		.byte	0
 13526 01f4 00       		.byte	0
 13527 01f5 2A       		.uleb128 0x2a
 13528 01f6 0D       		.uleb128 0xd
 13529 01f7 00       		.byte	0
 13530 01f8 03       		.uleb128 0x3
 13531 01f9 0E       		.uleb128 0xe
 13532 01fa 49       		.uleb128 0x49
 13533 01fb 13       		.uleb128 0x13
 13534 01fc 38       		.uleb128 0x38
 13535 01fd 0B       		.uleb128 0xb
 13536 01fe 34       		.uleb128 0x34
 13537 01ff 19       		.uleb128 0x19
 13538 0200 00       		.byte	0
 13539 0201 00       		.byte	0
 13540 0202 2B       		.uleb128 0x2b
 13541 0203 13       		.uleb128 0x13
 13542 0204 01       		.byte	0x1
 13543 0205 03       		.uleb128 0x3
 13544 0206 08       		.uleb128 0x8
 13545 0207 0B       		.uleb128 0xb
 13546 0208 0B       		.uleb128 0xb
 13547 0209 3A       		.uleb128 0x3a
 13548 020a 0B       		.uleb128 0xb
 13549 020b 3B       		.uleb128 0x3b
 13550 020c 0B       		.uleb128 0xb
 13551 020d 01       		.uleb128 0x1
 13552 020e 13       		.uleb128 0x13
 13553 020f 00       		.byte	0
 13554 0210 00       		.byte	0
 13555 0211 2C       		.uleb128 0x2c
 13556 0212 34       		.uleb128 0x34
 13557 0213 00       		.byte	0
 13558 0214 47       		.uleb128 0x47
 13559 0215 13       		.uleb128 0x13
 13560 0216 3A       		.uleb128 0x3a
 13561 0217 0B       		.uleb128 0xb
 13562 0218 3B       		.uleb128 0x3b
 13563 0219 0B       		.uleb128 0xb
 13564 021a 02       		.uleb128 0x2
 13565 021b 18       		.uleb128 0x18
 13566 021c 00       		.byte	0
 13567 021d 00       		.byte	0
 13568 021e 2D       		.uleb128 0x2d
 13569 021f 34       		.uleb128 0x34
 13570 0220 00       		.byte	0
 13571 0221 03       		.uleb128 0x3
 13572 0222 08       		.uleb128 0x8
 13573 0223 3A       		.uleb128 0x3a
 13574 0224 0B       		.uleb128 0xb
 13575 0225 3B       		.uleb128 0x3b
 13576 0226 05       		.uleb128 0x5
 13577 0227 49       		.uleb128 0x49
 13578 0228 13       		.uleb128 0x13
ARM GAS  /tmp/ccSNToGX.s 			page 240


 13579 0229 02       		.uleb128 0x2
 13580 022a 18       		.uleb128 0x18
 13581 022b 00       		.byte	0
 13582 022c 00       		.byte	0
 13583 022d 2E       		.uleb128 0x2e
 13584 022e 2E       		.uleb128 0x2e
 13585 022f 01       		.byte	0x1
 13586 0230 3F       		.uleb128 0x3f
 13587 0231 19       		.uleb128 0x19
 13588 0232 03       		.uleb128 0x3
 13589 0233 0E       		.uleb128 0xe
 13590 0234 3A       		.uleb128 0x3a
 13591 0235 0B       		.uleb128 0xb
 13592 0236 3B       		.uleb128 0x3b
 13593 0237 05       		.uleb128 0x5
 13594 0238 27       		.uleb128 0x27
 13595 0239 19       		.uleb128 0x19
 13596 023a 49       		.uleb128 0x49
 13597 023b 13       		.uleb128 0x13
 13598 023c 11       		.uleb128 0x11
 13599 023d 01       		.uleb128 0x1
 13600 023e 12       		.uleb128 0x12
 13601 023f 06       		.uleb128 0x6
 13602 0240 40       		.uleb128 0x40
 13603 0241 18       		.uleb128 0x18
 13604 0242 9742     		.uleb128 0x2117
 13605 0244 19       		.uleb128 0x19
 13606 0245 01       		.uleb128 0x1
 13607 0246 13       		.uleb128 0x13
 13608 0247 00       		.byte	0
 13609 0248 00       		.byte	0
 13610 0249 2F       		.uleb128 0x2f
 13611 024a 05       		.uleb128 0x5
 13612 024b 00       		.byte	0
 13613 024c 03       		.uleb128 0x3
 13614 024d 0E       		.uleb128 0xe
 13615 024e 3A       		.uleb128 0x3a
 13616 024f 0B       		.uleb128 0xb
 13617 0250 3B       		.uleb128 0x3b
 13618 0251 05       		.uleb128 0x5
 13619 0252 49       		.uleb128 0x49
 13620 0253 13       		.uleb128 0x13
 13621 0254 02       		.uleb128 0x2
 13622 0255 17       		.uleb128 0x17
 13623 0256 00       		.byte	0
 13624 0257 00       		.byte	0
 13625 0258 30       		.uleb128 0x30
 13626 0259 34       		.uleb128 0x34
 13627 025a 00       		.byte	0
 13628 025b 03       		.uleb128 0x3
 13629 025c 0E       		.uleb128 0xe
 13630 025d 3A       		.uleb128 0x3a
 13631 025e 0B       		.uleb128 0xb
 13632 025f 3B       		.uleb128 0x3b
 13633 0260 05       		.uleb128 0x5
 13634 0261 49       		.uleb128 0x49
 13635 0262 13       		.uleb128 0x13
ARM GAS  /tmp/ccSNToGX.s 			page 241


 13636 0263 02       		.uleb128 0x2
 13637 0264 17       		.uleb128 0x17
 13638 0265 00       		.byte	0
 13639 0266 00       		.byte	0
 13640 0267 31       		.uleb128 0x31
 13641 0268 34       		.uleb128 0x34
 13642 0269 00       		.byte	0
 13643 026a 03       		.uleb128 0x3
 13644 026b 08       		.uleb128 0x8
 13645 026c 3A       		.uleb128 0x3a
 13646 026d 0B       		.uleb128 0xb
 13647 026e 3B       		.uleb128 0x3b
 13648 026f 05       		.uleb128 0x5
 13649 0270 49       		.uleb128 0x49
 13650 0271 13       		.uleb128 0x13
 13651 0272 02       		.uleb128 0x2
 13652 0273 17       		.uleb128 0x17
 13653 0274 00       		.byte	0
 13654 0275 00       		.byte	0
 13655 0276 32       		.uleb128 0x32
 13656 0277 898201   		.uleb128 0x4109
 13657 027a 00       		.byte	0
 13658 027b 11       		.uleb128 0x11
 13659 027c 01       		.uleb128 0x1
 13660 027d 31       		.uleb128 0x31
 13661 027e 13       		.uleb128 0x13
 13662 027f 00       		.byte	0
 13663 0280 00       		.byte	0
 13664 0281 33       		.uleb128 0x33
 13665 0282 898201   		.uleb128 0x4109
 13666 0285 01       		.byte	0x1
 13667 0286 11       		.uleb128 0x11
 13668 0287 01       		.uleb128 0x1
 13669 0288 31       		.uleb128 0x31
 13670 0289 13       		.uleb128 0x13
 13671 028a 01       		.uleb128 0x1
 13672 028b 13       		.uleb128 0x13
 13673 028c 00       		.byte	0
 13674 028d 00       		.byte	0
 13675 028e 34       		.uleb128 0x34
 13676 028f 8A8201   		.uleb128 0x410a
 13677 0292 00       		.byte	0
 13678 0293 02       		.uleb128 0x2
 13679 0294 18       		.uleb128 0x18
 13680 0295 9142     		.uleb128 0x2111
 13681 0297 18       		.uleb128 0x18
 13682 0298 00       		.byte	0
 13683 0299 00       		.byte	0
 13684 029a 35       		.uleb128 0x35
 13685 029b 05       		.uleb128 0x5
 13686 029c 00       		.byte	0
 13687 029d 03       		.uleb128 0x3
 13688 029e 08       		.uleb128 0x8
 13689 029f 3A       		.uleb128 0x3a
 13690 02a0 0B       		.uleb128 0xb
 13691 02a1 3B       		.uleb128 0x3b
 13692 02a2 05       		.uleb128 0x5
ARM GAS  /tmp/ccSNToGX.s 			page 242


 13693 02a3 49       		.uleb128 0x49
 13694 02a4 13       		.uleb128 0x13
 13695 02a5 02       		.uleb128 0x2
 13696 02a6 17       		.uleb128 0x17
 13697 02a7 00       		.byte	0
 13698 02a8 00       		.byte	0
 13699 02a9 36       		.uleb128 0x36
 13700 02aa 05       		.uleb128 0x5
 13701 02ab 00       		.byte	0
 13702 02ac 03       		.uleb128 0x3
 13703 02ad 08       		.uleb128 0x8
 13704 02ae 3A       		.uleb128 0x3a
 13705 02af 0B       		.uleb128 0xb
 13706 02b0 3B       		.uleb128 0x3b
 13707 02b1 05       		.uleb128 0x5
 13708 02b2 49       		.uleb128 0x49
 13709 02b3 13       		.uleb128 0x13
 13710 02b4 02       		.uleb128 0x2
 13711 02b5 18       		.uleb128 0x18
 13712 02b6 00       		.byte	0
 13713 02b7 00       		.byte	0
 13714 02b8 37       		.uleb128 0x37
 13715 02b9 18       		.uleb128 0x18
 13716 02ba 00       		.byte	0
 13717 02bb 00       		.byte	0
 13718 02bc 00       		.byte	0
 13719 02bd 38       		.uleb128 0x38
 13720 02be 898201   		.uleb128 0x4109
 13721 02c1 01       		.byte	0x1
 13722 02c2 11       		.uleb128 0x11
 13723 02c3 01       		.uleb128 0x1
 13724 02c4 31       		.uleb128 0x31
 13725 02c5 13       		.uleb128 0x13
 13726 02c6 00       		.byte	0
 13727 02c7 00       		.byte	0
 13728 02c8 39       		.uleb128 0x39
 13729 02c9 2E       		.uleb128 0x2e
 13730 02ca 01       		.byte	0x1
 13731 02cb 3F       		.uleb128 0x3f
 13732 02cc 19       		.uleb128 0x19
 13733 02cd 03       		.uleb128 0x3
 13734 02ce 0E       		.uleb128 0xe
 13735 02cf 3A       		.uleb128 0x3a
 13736 02d0 0B       		.uleb128 0xb
 13737 02d1 3B       		.uleb128 0x3b
 13738 02d2 05       		.uleb128 0x5
 13739 02d3 27       		.uleb128 0x27
 13740 02d4 19       		.uleb128 0x19
 13741 02d5 49       		.uleb128 0x49
 13742 02d6 13       		.uleb128 0x13
 13743 02d7 20       		.uleb128 0x20
 13744 02d8 0B       		.uleb128 0xb
 13745 02d9 01       		.uleb128 0x1
 13746 02da 13       		.uleb128 0x13
 13747 02db 00       		.byte	0
 13748 02dc 00       		.byte	0
 13749 02dd 3A       		.uleb128 0x3a
ARM GAS  /tmp/ccSNToGX.s 			page 243


 13750 02de 05       		.uleb128 0x5
 13751 02df 00       		.byte	0
 13752 02e0 03       		.uleb128 0x3
 13753 02e1 0E       		.uleb128 0xe
 13754 02e2 3A       		.uleb128 0x3a
 13755 02e3 0B       		.uleb128 0xb
 13756 02e4 3B       		.uleb128 0x3b
 13757 02e5 05       		.uleb128 0x5
 13758 02e6 49       		.uleb128 0x49
 13759 02e7 13       		.uleb128 0x13
 13760 02e8 00       		.byte	0
 13761 02e9 00       		.byte	0
 13762 02ea 3B       		.uleb128 0x3b
 13763 02eb 34       		.uleb128 0x34
 13764 02ec 00       		.byte	0
 13765 02ed 03       		.uleb128 0x3
 13766 02ee 0E       		.uleb128 0xe
 13767 02ef 3A       		.uleb128 0x3a
 13768 02f0 0B       		.uleb128 0xb
 13769 02f1 3B       		.uleb128 0x3b
 13770 02f2 05       		.uleb128 0x5
 13771 02f3 49       		.uleb128 0x49
 13772 02f4 13       		.uleb128 0x13
 13773 02f5 00       		.byte	0
 13774 02f6 00       		.byte	0
 13775 02f7 3C       		.uleb128 0x3c
 13776 02f8 34       		.uleb128 0x34
 13777 02f9 00       		.byte	0
 13778 02fa 03       		.uleb128 0x3
 13779 02fb 08       		.uleb128 0x8
 13780 02fc 3A       		.uleb128 0x3a
 13781 02fd 0B       		.uleb128 0xb
 13782 02fe 3B       		.uleb128 0x3b
 13783 02ff 05       		.uleb128 0x5
 13784 0300 49       		.uleb128 0x49
 13785 0301 13       		.uleb128 0x13
 13786 0302 00       		.byte	0
 13787 0303 00       		.byte	0
 13788 0304 3D       		.uleb128 0x3d
 13789 0305 2E       		.uleb128 0x2e
 13790 0306 01       		.byte	0x1
 13791 0307 3F       		.uleb128 0x3f
 13792 0308 19       		.uleb128 0x19
 13793 0309 03       		.uleb128 0x3
 13794 030a 0E       		.uleb128 0xe
 13795 030b 3A       		.uleb128 0x3a
 13796 030c 0B       		.uleb128 0xb
 13797 030d 3B       		.uleb128 0x3b
 13798 030e 05       		.uleb128 0x5
 13799 030f 27       		.uleb128 0x27
 13800 0310 19       		.uleb128 0x19
 13801 0311 11       		.uleb128 0x11
 13802 0312 01       		.uleb128 0x1
 13803 0313 12       		.uleb128 0x12
 13804 0314 06       		.uleb128 0x6
 13805 0315 40       		.uleb128 0x40
 13806 0316 18       		.uleb128 0x18
ARM GAS  /tmp/ccSNToGX.s 			page 244


 13807 0317 9742     		.uleb128 0x2117
 13808 0319 19       		.uleb128 0x19
 13809 031a 01       		.uleb128 0x1
 13810 031b 13       		.uleb128 0x13
 13811 031c 00       		.byte	0
 13812 031d 00       		.byte	0
 13813 031e 3E       		.uleb128 0x3e
 13814 031f 1D       		.uleb128 0x1d
 13815 0320 01       		.byte	0x1
 13816 0321 31       		.uleb128 0x31
 13817 0322 13       		.uleb128 0x13
 13818 0323 52       		.uleb128 0x52
 13819 0324 01       		.uleb128 0x1
 13820 0325 55       		.uleb128 0x55
 13821 0326 17       		.uleb128 0x17
 13822 0327 58       		.uleb128 0x58
 13823 0328 0B       		.uleb128 0xb
 13824 0329 59       		.uleb128 0x59
 13825 032a 05       		.uleb128 0x5
 13826 032b 00       		.byte	0
 13827 032c 00       		.byte	0
 13828 032d 3F       		.uleb128 0x3f
 13829 032e 05       		.uleb128 0x5
 13830 032f 00       		.byte	0
 13831 0330 31       		.uleb128 0x31
 13832 0331 13       		.uleb128 0x13
 13833 0332 02       		.uleb128 0x2
 13834 0333 17       		.uleb128 0x17
 13835 0334 00       		.byte	0
 13836 0335 00       		.byte	0
 13837 0336 40       		.uleb128 0x40
 13838 0337 0B       		.uleb128 0xb
 13839 0338 01       		.byte	0x1
 13840 0339 55       		.uleb128 0x55
 13841 033a 17       		.uleb128 0x17
 13842 033b 00       		.byte	0
 13843 033c 00       		.byte	0
 13844 033d 41       		.uleb128 0x41
 13845 033e 34       		.uleb128 0x34
 13846 033f 00       		.byte	0
 13847 0340 31       		.uleb128 0x31
 13848 0341 13       		.uleb128 0x13
 13849 0342 02       		.uleb128 0x2
 13850 0343 17       		.uleb128 0x17
 13851 0344 00       		.byte	0
 13852 0345 00       		.byte	0
 13853 0346 42       		.uleb128 0x42
 13854 0347 34       		.uleb128 0x34
 13855 0348 00       		.byte	0
 13856 0349 31       		.uleb128 0x31
 13857 034a 13       		.uleb128 0x13
 13858 034b 02       		.uleb128 0x2
 13859 034c 18       		.uleb128 0x18
 13860 034d 00       		.byte	0
 13861 034e 00       		.byte	0
 13862 034f 43       		.uleb128 0x43
 13863 0350 34       		.uleb128 0x34
ARM GAS  /tmp/ccSNToGX.s 			page 245


 13864 0351 00       		.byte	0
 13865 0352 31       		.uleb128 0x31
 13866 0353 13       		.uleb128 0x13
 13867 0354 1C       		.uleb128 0x1c
 13868 0355 0B       		.uleb128 0xb
 13869 0356 00       		.byte	0
 13870 0357 00       		.byte	0
 13871 0358 44       		.uleb128 0x44
 13872 0359 34       		.uleb128 0x34
 13873 035a 00       		.byte	0
 13874 035b 31       		.uleb128 0x31
 13875 035c 13       		.uleb128 0x13
 13876 035d 1C       		.uleb128 0x1c
 13877 035e 05       		.uleb128 0x5
 13878 035f 00       		.byte	0
 13879 0360 00       		.byte	0
 13880 0361 45       		.uleb128 0x45
 13881 0362 34       		.uleb128 0x34
 13882 0363 00       		.byte	0
 13883 0364 31       		.uleb128 0x31
 13884 0365 13       		.uleb128 0x13
 13885 0366 1C       		.uleb128 0x1c
 13886 0367 06       		.uleb128 0x6
 13887 0368 00       		.byte	0
 13888 0369 00       		.byte	0
 13889 036a 46       		.uleb128 0x46
 13890 036b 2E       		.uleb128 0x2e
 13891 036c 01       		.byte	0x1
 13892 036d 03       		.uleb128 0x3
 13893 036e 0E       		.uleb128 0xe
 13894 036f 3A       		.uleb128 0x3a
 13895 0370 0B       		.uleb128 0xb
 13896 0371 3B       		.uleb128 0x3b
 13897 0372 05       		.uleb128 0x5
 13898 0373 27       		.uleb128 0x27
 13899 0374 19       		.uleb128 0x19
 13900 0375 49       		.uleb128 0x49
 13901 0376 13       		.uleb128 0x13
 13902 0377 20       		.uleb128 0x20
 13903 0378 0B       		.uleb128 0xb
 13904 0379 01       		.uleb128 0x1
 13905 037a 13       		.uleb128 0x13
 13906 037b 00       		.byte	0
 13907 037c 00       		.byte	0
 13908 037d 47       		.uleb128 0x47
 13909 037e 05       		.uleb128 0x5
 13910 037f 00       		.byte	0
 13911 0380 03       		.uleb128 0x3
 13912 0381 08       		.uleb128 0x8
 13913 0382 3A       		.uleb128 0x3a
 13914 0383 0B       		.uleb128 0xb
 13915 0384 3B       		.uleb128 0x3b
 13916 0385 05       		.uleb128 0x5
 13917 0386 49       		.uleb128 0x49
 13918 0387 13       		.uleb128 0x13
 13919 0388 00       		.byte	0
 13920 0389 00       		.byte	0
ARM GAS  /tmp/ccSNToGX.s 			page 246


 13921 038a 48       		.uleb128 0x48
 13922 038b 34       		.uleb128 0x34
 13923 038c 00       		.byte	0
 13924 038d 03       		.uleb128 0x3
 13925 038e 0E       		.uleb128 0xe
 13926 038f 3A       		.uleb128 0x3a
 13927 0390 0B       		.uleb128 0xb
 13928 0391 3B       		.uleb128 0x3b
 13929 0392 05       		.uleb128 0x5
 13930 0393 49       		.uleb128 0x49
 13931 0394 13       		.uleb128 0x13
 13932 0395 02       		.uleb128 0x2
 13933 0396 18       		.uleb128 0x18
 13934 0397 00       		.byte	0
 13935 0398 00       		.byte	0
 13936 0399 49       		.uleb128 0x49
 13937 039a 2E       		.uleb128 0x2e
 13938 039b 01       		.byte	0x1
 13939 039c 3F       		.uleb128 0x3f
 13940 039d 19       		.uleb128 0x19
 13941 039e 03       		.uleb128 0x3
 13942 039f 0E       		.uleb128 0xe
 13943 03a0 3A       		.uleb128 0x3a
 13944 03a1 0B       		.uleb128 0xb
 13945 03a2 3B       		.uleb128 0x3b
 13946 03a3 0B       		.uleb128 0xb
 13947 03a4 27       		.uleb128 0x27
 13948 03a5 19       		.uleb128 0x19
 13949 03a6 49       		.uleb128 0x49
 13950 03a7 13       		.uleb128 0x13
 13951 03a8 11       		.uleb128 0x11
 13952 03a9 01       		.uleb128 0x1
 13953 03aa 12       		.uleb128 0x12
 13954 03ab 06       		.uleb128 0x6
 13955 03ac 40       		.uleb128 0x40
 13956 03ad 18       		.uleb128 0x18
 13957 03ae 9742     		.uleb128 0x2117
 13958 03b0 19       		.uleb128 0x19
 13959 03b1 01       		.uleb128 0x1
 13960 03b2 13       		.uleb128 0x13
 13961 03b3 00       		.byte	0
 13962 03b4 00       		.byte	0
 13963 03b5 4A       		.uleb128 0x4a
 13964 03b6 05       		.uleb128 0x5
 13965 03b7 00       		.byte	0
 13966 03b8 03       		.uleb128 0x3
 13967 03b9 0E       		.uleb128 0xe
 13968 03ba 3A       		.uleb128 0x3a
 13969 03bb 0B       		.uleb128 0xb
 13970 03bc 3B       		.uleb128 0x3b
 13971 03bd 05       		.uleb128 0x5
 13972 03be 49       		.uleb128 0x49
 13973 03bf 13       		.uleb128 0x13
 13974 03c0 02       		.uleb128 0x2
 13975 03c1 18       		.uleb128 0x18
 13976 03c2 00       		.byte	0
 13977 03c3 00       		.byte	0
ARM GAS  /tmp/ccSNToGX.s 			page 247


 13978 03c4 4B       		.uleb128 0x4b
 13979 03c5 2E       		.uleb128 0x2e
 13980 03c6 01       		.byte	0x1
 13981 03c7 3F       		.uleb128 0x3f
 13982 03c8 19       		.uleb128 0x19
 13983 03c9 03       		.uleb128 0x3
 13984 03ca 0E       		.uleb128 0xe
 13985 03cb 3A       		.uleb128 0x3a
 13986 03cc 0B       		.uleb128 0xb
 13987 03cd 3B       		.uleb128 0x3b
 13988 03ce 05       		.uleb128 0x5
 13989 03cf 27       		.uleb128 0x27
 13990 03d0 19       		.uleb128 0x19
 13991 03d1 49       		.uleb128 0x49
 13992 03d2 13       		.uleb128 0x13
 13993 03d3 01       		.uleb128 0x1
 13994 03d4 13       		.uleb128 0x13
 13995 03d5 00       		.byte	0
 13996 03d6 00       		.byte	0
 13997 03d7 4C       		.uleb128 0x4c
 13998 03d8 898201   		.uleb128 0x4109
 13999 03db 00       		.byte	0
 14000 03dc 11       		.uleb128 0x11
 14001 03dd 01       		.uleb128 0x1
 14002 03de 9542     		.uleb128 0x2115
 14003 03e0 19       		.uleb128 0x19
 14004 03e1 31       		.uleb128 0x31
 14005 03e2 13       		.uleb128 0x13
 14006 03e3 00       		.byte	0
 14007 03e4 00       		.byte	0
 14008 03e5 4D       		.uleb128 0x4d
 14009 03e6 898201   		.uleb128 0x4109
 14010 03e9 01       		.byte	0x1
 14011 03ea 11       		.uleb128 0x11
 14012 03eb 01       		.uleb128 0x1
 14013 03ec 9542     		.uleb128 0x2115
 14014 03ee 19       		.uleb128 0x19
 14015 03ef 31       		.uleb128 0x31
 14016 03f0 13       		.uleb128 0x13
 14017 03f1 00       		.byte	0
 14018 03f2 00       		.byte	0
 14019 03f3 4E       		.uleb128 0x4e
 14020 03f4 0B       		.uleb128 0xb
 14021 03f5 01       		.byte	0x1
 14022 03f6 55       		.uleb128 0x55
 14023 03f7 17       		.uleb128 0x17
 14024 03f8 01       		.uleb128 0x1
 14025 03f9 13       		.uleb128 0x13
 14026 03fa 00       		.byte	0
 14027 03fb 00       		.byte	0
 14028 03fc 4F       		.uleb128 0x4f
 14029 03fd 26       		.uleb128 0x26
 14030 03fe 00       		.byte	0
 14031 03ff 00       		.byte	0
 14032 0400 00       		.byte	0
 14033 0401 50       		.uleb128 0x50
 14034 0402 1D       		.uleb128 0x1d
ARM GAS  /tmp/ccSNToGX.s 			page 248


 14035 0403 01       		.byte	0x1
 14036 0404 31       		.uleb128 0x31
 14037 0405 13       		.uleb128 0x13
 14038 0406 11       		.uleb128 0x11
 14039 0407 01       		.uleb128 0x1
 14040 0408 12       		.uleb128 0x12
 14041 0409 06       		.uleb128 0x6
 14042 040a 58       		.uleb128 0x58
 14043 040b 0B       		.uleb128 0xb
 14044 040c 59       		.uleb128 0x59
 14045 040d 05       		.uleb128 0x5
 14046 040e 01       		.uleb128 0x1
 14047 040f 13       		.uleb128 0x13
 14048 0410 00       		.byte	0
 14049 0411 00       		.byte	0
 14050 0412 51       		.uleb128 0x51
 14051 0413 1D       		.uleb128 0x1d
 14052 0414 01       		.byte	0x1
 14053 0415 31       		.uleb128 0x31
 14054 0416 13       		.uleb128 0x13
 14055 0417 52       		.uleb128 0x52
 14056 0418 01       		.uleb128 0x1
 14057 0419 55       		.uleb128 0x55
 14058 041a 17       		.uleb128 0x17
 14059 041b 58       		.uleb128 0x58
 14060 041c 0B       		.uleb128 0xb
 14061 041d 59       		.uleb128 0x59
 14062 041e 05       		.uleb128 0x5
 14063 041f 01       		.uleb128 0x1
 14064 0420 13       		.uleb128 0x13
 14065 0421 00       		.byte	0
 14066 0422 00       		.byte	0
 14067 0423 52       		.uleb128 0x52
 14068 0424 898201   		.uleb128 0x4109
 14069 0427 01       		.byte	0x1
 14070 0428 11       		.uleb128 0x11
 14071 0429 01       		.uleb128 0x1
 14072 042a 9542     		.uleb128 0x2115
 14073 042c 19       		.uleb128 0x19
 14074 042d 31       		.uleb128 0x31
 14075 042e 13       		.uleb128 0x13
 14076 042f 01       		.uleb128 0x1
 14077 0430 13       		.uleb128 0x13
 14078 0431 00       		.byte	0
 14079 0432 00       		.byte	0
 14080 0433 53       		.uleb128 0x53
 14081 0434 2E       		.uleb128 0x2e
 14082 0435 01       		.byte	0x1
 14083 0436 3F       		.uleb128 0x3f
 14084 0437 19       		.uleb128 0x19
 14085 0438 03       		.uleb128 0x3
 14086 0439 0E       		.uleb128 0xe
 14087 043a 3A       		.uleb128 0x3a
 14088 043b 0B       		.uleb128 0xb
 14089 043c 3B       		.uleb128 0x3b
 14090 043d 0B       		.uleb128 0xb
 14091 043e 27       		.uleb128 0x27
ARM GAS  /tmp/ccSNToGX.s 			page 249


 14092 043f 19       		.uleb128 0x19
 14093 0440 11       		.uleb128 0x11
 14094 0441 01       		.uleb128 0x1
 14095 0442 12       		.uleb128 0x12
 14096 0443 06       		.uleb128 0x6
 14097 0444 40       		.uleb128 0x40
 14098 0445 18       		.uleb128 0x18
 14099 0446 9742     		.uleb128 0x2117
 14100 0448 19       		.uleb128 0x19
 14101 0449 01       		.uleb128 0x1
 14102 044a 13       		.uleb128 0x13
 14103 044b 00       		.byte	0
 14104 044c 00       		.byte	0
 14105 044d 54       		.uleb128 0x54
 14106 044e 05       		.uleb128 0x5
 14107 044f 00       		.byte	0
 14108 0450 03       		.uleb128 0x3
 14109 0451 0E       		.uleb128 0xe
 14110 0452 3A       		.uleb128 0x3a
 14111 0453 0B       		.uleb128 0xb
 14112 0454 3B       		.uleb128 0x3b
 14113 0455 0B       		.uleb128 0xb
 14114 0456 49       		.uleb128 0x49
 14115 0457 13       		.uleb128 0x13
 14116 0458 02       		.uleb128 0x2
 14117 0459 18       		.uleb128 0x18
 14118 045a 00       		.byte	0
 14119 045b 00       		.byte	0
 14120 045c 55       		.uleb128 0x55
 14121 045d 2E       		.uleb128 0x2e
 14122 045e 01       		.byte	0x1
 14123 045f 3F       		.uleb128 0x3f
 14124 0460 19       		.uleb128 0x19
 14125 0461 03       		.uleb128 0x3
 14126 0462 0E       		.uleb128 0xe
 14127 0463 3A       		.uleb128 0x3a
 14128 0464 0B       		.uleb128 0xb
 14129 0465 3B       		.uleb128 0x3b
 14130 0466 0B       		.uleb128 0xb
 14131 0467 27       		.uleb128 0x27
 14132 0468 19       		.uleb128 0x19
 14133 0469 49       		.uleb128 0x49
 14134 046a 13       		.uleb128 0x13
 14135 046b 20       		.uleb128 0x20
 14136 046c 0B       		.uleb128 0xb
 14137 046d 01       		.uleb128 0x1
 14138 046e 13       		.uleb128 0x13
 14139 046f 00       		.byte	0
 14140 0470 00       		.byte	0
 14141 0471 56       		.uleb128 0x56
 14142 0472 05       		.uleb128 0x5
 14143 0473 00       		.byte	0
 14144 0474 03       		.uleb128 0x3
 14145 0475 08       		.uleb128 0x8
 14146 0476 3A       		.uleb128 0x3a
 14147 0477 0B       		.uleb128 0xb
 14148 0478 3B       		.uleb128 0x3b
ARM GAS  /tmp/ccSNToGX.s 			page 250


 14149 0479 0B       		.uleb128 0xb
 14150 047a 49       		.uleb128 0x49
 14151 047b 13       		.uleb128 0x13
 14152 047c 00       		.byte	0
 14153 047d 00       		.byte	0
 14154 047e 57       		.uleb128 0x57
 14155 047f 05       		.uleb128 0x5
 14156 0480 00       		.byte	0
 14157 0481 03       		.uleb128 0x3
 14158 0482 0E       		.uleb128 0xe
 14159 0483 3A       		.uleb128 0x3a
 14160 0484 0B       		.uleb128 0xb
 14161 0485 3B       		.uleb128 0x3b
 14162 0486 0B       		.uleb128 0xb
 14163 0487 49       		.uleb128 0x49
 14164 0488 13       		.uleb128 0x13
 14165 0489 00       		.byte	0
 14166 048a 00       		.byte	0
 14167 048b 58       		.uleb128 0x58
 14168 048c 34       		.uleb128 0x34
 14169 048d 00       		.byte	0
 14170 048e 03       		.uleb128 0x3
 14171 048f 08       		.uleb128 0x8
 14172 0490 3A       		.uleb128 0x3a
 14173 0491 0B       		.uleb128 0xb
 14174 0492 3B       		.uleb128 0x3b
 14175 0493 0B       		.uleb128 0xb
 14176 0494 49       		.uleb128 0x49
 14177 0495 13       		.uleb128 0x13
 14178 0496 00       		.byte	0
 14179 0497 00       		.byte	0
 14180 0498 59       		.uleb128 0x59
 14181 0499 05       		.uleb128 0x5
 14182 049a 00       		.byte	0
 14183 049b 03       		.uleb128 0x3
 14184 049c 08       		.uleb128 0x8
 14185 049d 3A       		.uleb128 0x3a
 14186 049e 0B       		.uleb128 0xb
 14187 049f 3B       		.uleb128 0x3b
 14188 04a0 0B       		.uleb128 0xb
 14189 04a1 49       		.uleb128 0x49
 14190 04a2 13       		.uleb128 0x13
 14191 04a3 02       		.uleb128 0x2
 14192 04a4 17       		.uleb128 0x17
 14193 04a5 00       		.byte	0
 14194 04a6 00       		.byte	0
 14195 04a7 5A       		.uleb128 0x5a
 14196 04a8 05       		.uleb128 0x5
 14197 04a9 00       		.byte	0
 14198 04aa 03       		.uleb128 0x3
 14199 04ab 0E       		.uleb128 0xe
 14200 04ac 3A       		.uleb128 0x3a
 14201 04ad 0B       		.uleb128 0xb
 14202 04ae 3B       		.uleb128 0x3b
 14203 04af 0B       		.uleb128 0xb
 14204 04b0 49       		.uleb128 0x49
 14205 04b1 13       		.uleb128 0x13
ARM GAS  /tmp/ccSNToGX.s 			page 251


 14206 04b2 02       		.uleb128 0x2
 14207 04b3 17       		.uleb128 0x17
 14208 04b4 00       		.byte	0
 14209 04b5 00       		.byte	0
 14210 04b6 5B       		.uleb128 0x5b
 14211 04b7 34       		.uleb128 0x34
 14212 04b8 00       		.byte	0
 14213 04b9 03       		.uleb128 0x3
 14214 04ba 08       		.uleb128 0x8
 14215 04bb 3A       		.uleb128 0x3a
 14216 04bc 0B       		.uleb128 0xb
 14217 04bd 3B       		.uleb128 0x3b
 14218 04be 0B       		.uleb128 0xb
 14219 04bf 49       		.uleb128 0x49
 14220 04c0 13       		.uleb128 0x13
 14221 04c1 02       		.uleb128 0x2
 14222 04c2 17       		.uleb128 0x17
 14223 04c3 00       		.byte	0
 14224 04c4 00       		.byte	0
 14225 04c5 5C       		.uleb128 0x5c
 14226 04c6 898201   		.uleb128 0x4109
 14227 04c9 01       		.byte	0x1
 14228 04ca 11       		.uleb128 0x11
 14229 04cb 01       		.uleb128 0x1
 14230 04cc 00       		.byte	0
 14231 04cd 00       		.byte	0
 14232 04ce 5D       		.uleb128 0x5d
 14233 04cf 2E       		.uleb128 0x2e
 14234 04d0 01       		.byte	0x1
 14235 04d1 31       		.uleb128 0x31
 14236 04d2 13       		.uleb128 0x13
 14237 04d3 11       		.uleb128 0x11
 14238 04d4 01       		.uleb128 0x1
 14239 04d5 12       		.uleb128 0x12
 14240 04d6 06       		.uleb128 0x6
 14241 04d7 40       		.uleb128 0x40
 14242 04d8 18       		.uleb128 0x18
 14243 04d9 9742     		.uleb128 0x2117
 14244 04db 19       		.uleb128 0x19
 14245 04dc 01       		.uleb128 0x1
 14246 04dd 13       		.uleb128 0x13
 14247 04de 00       		.byte	0
 14248 04df 00       		.byte	0
 14249 04e0 5E       		.uleb128 0x5e
 14250 04e1 34       		.uleb128 0x34
 14251 04e2 00       		.byte	0
 14252 04e3 31       		.uleb128 0x31
 14253 04e4 13       		.uleb128 0x13
 14254 04e5 00       		.byte	0
 14255 04e6 00       		.byte	0
 14256 04e7 5F       		.uleb128 0x5f
 14257 04e8 0B       		.uleb128 0xb
 14258 04e9 01       		.byte	0x1
 14259 04ea 11       		.uleb128 0x11
 14260 04eb 01       		.uleb128 0x1
 14261 04ec 12       		.uleb128 0x12
 14262 04ed 06       		.uleb128 0x6
ARM GAS  /tmp/ccSNToGX.s 			page 252


 14263 04ee 01       		.uleb128 0x1
 14264 04ef 13       		.uleb128 0x13
 14265 04f0 00       		.byte	0
 14266 04f1 00       		.byte	0
 14267 04f2 60       		.uleb128 0x60
 14268 04f3 0B       		.uleb128 0xb
 14269 04f4 01       		.byte	0x1
 14270 04f5 11       		.uleb128 0x11
 14271 04f6 01       		.uleb128 0x1
 14272 04f7 12       		.uleb128 0x12
 14273 04f8 06       		.uleb128 0x6
 14274 04f9 00       		.byte	0
 14275 04fa 00       		.byte	0
 14276 04fb 61       		.uleb128 0x61
 14277 04fc 05       		.uleb128 0x5
 14278 04fd 00       		.byte	0
 14279 04fe 31       		.uleb128 0x31
 14280 04ff 13       		.uleb128 0x13
 14281 0500 00       		.byte	0
 14282 0501 00       		.byte	0
 14283 0502 62       		.uleb128 0x62
 14284 0503 2E       		.uleb128 0x2e
 14285 0504 00       		.byte	0
 14286 0505 3F       		.uleb128 0x3f
 14287 0506 19       		.uleb128 0x19
 14288 0507 3C       		.uleb128 0x3c
 14289 0508 19       		.uleb128 0x19
 14290 0509 6E       		.uleb128 0x6e
 14291 050a 0E       		.uleb128 0xe
 14292 050b 03       		.uleb128 0x3
 14293 050c 0E       		.uleb128 0xe
 14294 050d 3A       		.uleb128 0x3a
 14295 050e 0B       		.uleb128 0xb
 14296 050f 3B       		.uleb128 0x3b
 14297 0510 0B       		.uleb128 0xb
 14298 0511 00       		.byte	0
 14299 0512 00       		.byte	0
 14300 0513 63       		.uleb128 0x63
 14301 0514 2E       		.uleb128 0x2e
 14302 0515 00       		.byte	0
 14303 0516 3F       		.uleb128 0x3f
 14304 0517 19       		.uleb128 0x19
 14305 0518 3C       		.uleb128 0x3c
 14306 0519 19       		.uleb128 0x19
 14307 051a 6E       		.uleb128 0x6e
 14308 051b 0E       		.uleb128 0xe
 14309 051c 03       		.uleb128 0x3
 14310 051d 0E       		.uleb128 0xe
 14311 051e 3A       		.uleb128 0x3a
 14312 051f 0B       		.uleb128 0xb
 14313 0520 3B       		.uleb128 0x3b
 14314 0521 05       		.uleb128 0x5
 14315 0522 00       		.byte	0
 14316 0523 00       		.byte	0
 14317 0524 00       		.byte	0
 14318              		.section	.debug_loc,"",%progbits
 14319              	.Ldebug_loc0:
ARM GAS  /tmp/ccSNToGX.s 			page 253


 14320              	.LLST209:
 14321 0000 00000000 		.4byte	.LVL545
 14322 0004 07000000 		.4byte	.LVL546-1
 14323 0008 0100     		.2byte	0x1
 14324 000a 50       		.byte	0x50
 14325 000b 07000000 		.4byte	.LVL546-1
 14326 000f 14000000 		.4byte	.LVL548
 14327 0013 0100     		.2byte	0x1
 14328 0015 54       		.byte	0x54
 14329 0016 14000000 		.4byte	.LVL548
 14330 001a 1A000000 		.4byte	.LVL549
 14331 001e 0400     		.2byte	0x4
 14332 0020 F3       		.byte	0xf3
 14333 0021 01       		.uleb128 0x1
 14334 0022 50       		.byte	0x50
 14335 0023 9F       		.byte	0x9f
 14336 0024 1A000000 		.4byte	.LVL549
 14337 0028 2A000000 		.4byte	.LVL553
 14338 002c 0100     		.2byte	0x1
 14339 002e 54       		.byte	0x54
 14340 002f 2A000000 		.4byte	.LVL553
 14341 0033 44000000 		.4byte	.LFE359
 14342 0037 0400     		.2byte	0x4
 14343 0039 F3       		.byte	0xf3
 14344 003a 01       		.uleb128 0x1
 14345 003b 50       		.byte	0x50
 14346 003c 9F       		.byte	0x9f
 14347 003d 00000000 		.4byte	0
 14348 0041 00000000 		.4byte	0
 14349              	.LLST210:
 14350 0045 12000000 		.4byte	.LVL547
 14351 0049 14000000 		.4byte	.LVL548
 14352 004d 0100     		.2byte	0x1
 14353 004f 50       		.byte	0x50
 14354 0050 1A000000 		.4byte	.LVL549
 14355 0054 1C000000 		.4byte	.LVL550
 14356 0058 0100     		.2byte	0x1
 14357 005a 50       		.byte	0x50
 14358 005b 00000000 		.4byte	0
 14359 005f 00000000 		.4byte	0
 14360              	.LLST211:
 14361 0063 20000000 		.4byte	.LVL551
 14362 0067 27000000 		.4byte	.LVL552-1
 14363 006b 0100     		.2byte	0x1
 14364 006d 50       		.byte	0x50
 14365 006e 00000000 		.4byte	0
 14366 0072 00000000 		.4byte	0
 14367              	.LLST212:
 14368 0076 28000000 		.4byte	.LVL552
 14369 007a 2F000000 		.4byte	.LVL554-1
 14370 007e 0600     		.2byte	0x6
 14371 0080 70       		.byte	0x70
 14372 0081 00       		.sleb128 0
 14373 0082 08       		.byte	0x8
 14374 0083 FF       		.byte	0xff
 14375 0084 1A       		.byte	0x1a
 14376 0085 9F       		.byte	0x9f
ARM GAS  /tmp/ccSNToGX.s 			page 254


 14377 0086 3E000000 		.4byte	.LVL556
 14378 008a 44000000 		.4byte	.LFE359
 14379 008e 0600     		.2byte	0x6
 14380 0090 70       		.byte	0x70
 14381 0091 00       		.sleb128 0
 14382 0092 08       		.byte	0x8
 14383 0093 FF       		.byte	0xff
 14384 0094 1A       		.byte	0x1a
 14385 0095 9F       		.byte	0x9f
 14386 0096 00000000 		.4byte	0
 14387 009a 00000000 		.4byte	0
 14388              	.LLST206:
 14389 009e 00000000 		.4byte	.LVL536
 14390 00a2 10000000 		.4byte	.LVL537
 14391 00a6 0100     		.2byte	0x1
 14392 00a8 50       		.byte	0x50
 14393 00a9 10000000 		.4byte	.LVL537
 14394 00ad 36000000 		.4byte	.LVL543
 14395 00b1 0100     		.2byte	0x1
 14396 00b3 56       		.byte	0x56
 14397 00b4 36000000 		.4byte	.LVL543
 14398 00b8 3A000000 		.4byte	.LVL544
 14399 00bc 0400     		.2byte	0x4
 14400 00be F3       		.byte	0xf3
 14401 00bf 01       		.uleb128 0x1
 14402 00c0 50       		.byte	0x50
 14403 00c1 9F       		.byte	0x9f
 14404 00c2 3A000000 		.4byte	.LVL544
 14405 00c6 40000000 		.4byte	.LFE358
 14406 00ca 0100     		.2byte	0x1
 14407 00cc 56       		.byte	0x56
 14408 00cd 00000000 		.4byte	0
 14409 00d1 00000000 		.4byte	0
 14410              	.LLST207:
 14411 00d5 16000000 		.4byte	.LVL539
 14412 00d9 36000000 		.4byte	.LVL543
 14413 00dd 0100     		.2byte	0x1
 14414 00df 54       		.byte	0x54
 14415 00e0 3A000000 		.4byte	.LVL544
 14416 00e4 40000000 		.4byte	.LFE358
 14417 00e8 0100     		.2byte	0x1
 14418 00ea 54       		.byte	0x54
 14419 00eb 00000000 		.4byte	0
 14420 00ef 00000000 		.4byte	0
 14421              	.LLST208:
 14422 00f3 1C000000 		.4byte	.LVL540
 14423 00f7 24000000 		.4byte	.LVL541
 14424 00fb 0100     		.2byte	0x1
 14425 00fd 55       		.byte	0x55
 14426 00fe 00000000 		.4byte	0
 14427 0102 00000000 		.4byte	0
 14428              	.LLST94:
 14429 0106 00000000 		.4byte	.LVL273
 14430 010a 0C000000 		.4byte	.LVL274
 14431 010e 0100     		.2byte	0x1
 14432 0110 50       		.byte	0x50
 14433 0111 0C000000 		.4byte	.LVL274
ARM GAS  /tmp/ccSNToGX.s 			page 255


 14434 0115 11000000 		.4byte	.LVL275-1
 14435 0119 0200     		.2byte	0x2
 14436 011b 70       		.byte	0x70
 14437 011c 00       		.sleb128 0
 14438 011d 00000000 		.4byte	0
 14439 0121 00000000 		.4byte	0
 14440              	.LLST95:
 14441 0125 00000000 		.4byte	.LVL273
 14442 0129 11000000 		.4byte	.LVL275-1
 14443 012d 0100     		.2byte	0x1
 14444 012f 51       		.byte	0x51
 14445 0130 11000000 		.4byte	.LVL275-1
 14446 0134 46000000 		.4byte	.LVL276
 14447 0138 0100     		.2byte	0x1
 14448 013a 56       		.byte	0x56
 14449 013b 46000000 		.4byte	.LVL276
 14450 013f 50000000 		.4byte	.LFE353
 14451 0143 0400     		.2byte	0x4
 14452 0145 F3       		.byte	0xf3
 14453 0146 01       		.uleb128 0x1
 14454 0147 51       		.byte	0x51
 14455 0148 9F       		.byte	0x9f
 14456 0149 00000000 		.4byte	0
 14457 014d 00000000 		.4byte	0
 14458              	.LLST96:
 14459 0151 00000000 		.4byte	.LVL273
 14460 0155 11000000 		.4byte	.LVL275-1
 14461 0159 0100     		.2byte	0x1
 14462 015b 52       		.byte	0x52
 14463 015c 11000000 		.4byte	.LVL275-1
 14464 0160 46000000 		.4byte	.LVL276
 14465 0164 0100     		.2byte	0x1
 14466 0166 55       		.byte	0x55
 14467 0167 46000000 		.4byte	.LVL276
 14468 016b 50000000 		.4byte	.LFE353
 14469 016f 0400     		.2byte	0x4
 14470 0171 F3       		.byte	0xf3
 14471 0172 01       		.uleb128 0x1
 14472 0173 52       		.byte	0x52
 14473 0174 9F       		.byte	0x9f
 14474 0175 00000000 		.4byte	0
 14475 0179 00000000 		.4byte	0
 14476              	.LLST82:
 14477 017d 00000000 		.4byte	.LVL239
 14478 0181 1C000000 		.4byte	.LVL241
 14479 0185 0100     		.2byte	0x1
 14480 0187 50       		.byte	0x50
 14481 0188 1C000000 		.4byte	.LVL241
 14482 018c E0000000 		.4byte	.LFE352
 14483 0190 0400     		.2byte	0x4
 14484 0192 F3       		.byte	0xf3
 14485 0193 01       		.uleb128 0x1
 14486 0194 50       		.byte	0x50
 14487 0195 9F       		.byte	0x9f
 14488 0196 00000000 		.4byte	0
 14489 019a 00000000 		.4byte	0
 14490              	.LLST83:
ARM GAS  /tmp/ccSNToGX.s 			page 256


 14491 019e 00000000 		.4byte	.LVL239
 14492 01a2 1C000000 		.4byte	.LVL241
 14493 01a6 0100     		.2byte	0x1
 14494 01a8 51       		.byte	0x51
 14495 01a9 1C000000 		.4byte	.LVL241
 14496 01ad E0000000 		.4byte	.LFE352
 14497 01b1 0400     		.2byte	0x4
 14498 01b3 F3       		.byte	0xf3
 14499 01b4 01       		.uleb128 0x1
 14500 01b5 51       		.byte	0x51
 14501 01b6 9F       		.byte	0x9f
 14502 01b7 00000000 		.4byte	0
 14503 01bb 00000000 		.4byte	0
 14504              	.LLST84:
 14505 01bf 08000000 		.4byte	.LVL240
 14506 01c3 74000000 		.4byte	.LVL248
 14507 01c7 0600     		.2byte	0x6
 14508 01c9 F2       		.byte	0xf2
 14509 01ca 591E0000 		.4byte	.Ldebug_info0+7769
 14510 01ce 00       		.sleb128 0
 14511 01cf 94000000 		.4byte	.LVL249
 14512 01d3 E0000000 		.4byte	.LFE352
 14513 01d7 0600     		.2byte	0x6
 14514 01d9 F2       		.byte	0xf2
 14515 01da 591E0000 		.4byte	.Ldebug_info0+7769
 14516 01de 00       		.sleb128 0
 14517 01df 00000000 		.4byte	0
 14518 01e3 00000000 		.4byte	0
 14519              	.LLST85:
 14520 01e7 08000000 		.4byte	.LVL240
 14521 01eb 5E000000 		.4byte	.LVL245
 14522 01ef 0200     		.2byte	0x2
 14523 01f1 30       		.byte	0x30
 14524 01f2 9F       		.byte	0x9f
 14525 01f3 5E000000 		.4byte	.LVL245
 14526 01f7 74000000 		.4byte	.LVL248
 14527 01fb 0100     		.2byte	0x1
 14528 01fd 53       		.byte	0x53
 14529 01fe 94000000 		.4byte	.LVL249
 14530 0202 C2000000 		.4byte	.LVL251
 14531 0206 0100     		.2byte	0x1
 14532 0208 53       		.byte	0x53
 14533 0209 C2000000 		.4byte	.LVL251
 14534 020d C6000000 		.4byte	.LVL252
 14535 0211 0500     		.2byte	0x5
 14536 0213 73       		.byte	0x73
 14537 0214 80E07A   		.sleb128 -86016
 14538 0217 9F       		.byte	0x9f
 14539 0218 C6000000 		.4byte	.LVL252
 14540 021c E0000000 		.4byte	.LFE352
 14541 0220 0100     		.2byte	0x1
 14542 0222 53       		.byte	0x53
 14543 0223 00000000 		.4byte	0
 14544 0227 00000000 		.4byte	0
 14545              	.LLST86:
 14546 022b 32000000 		.4byte	.LVL243
 14547 022f 4A000000 		.4byte	.LVL244
ARM GAS  /tmp/ccSNToGX.s 			page 257


 14548 0233 0100     		.2byte	0x1
 14549 0235 52       		.byte	0x52
 14550 0236 4A000000 		.4byte	.LVL244
 14551 023a 6A000000 		.4byte	.LVL246
 14552 023e 0400     		.2byte	0x4
 14553 0240 76       		.byte	0x76
 14554 0241 BB0F     		.sleb128 1979
 14555 0243 9F       		.byte	0x9f
 14556 0244 6A000000 		.4byte	.LVL246
 14557 0248 70000000 		.4byte	.LVL247
 14558 024c 0300     		.2byte	0x3
 14559 024e 76       		.byte	0x76
 14560 024f 7F       		.sleb128 -1
 14561 0250 9F       		.byte	0x9f
 14562 0251 00000000 		.4byte	0
 14563 0255 00000000 		.4byte	0
 14564              	.LLST87:
 14565 0259 6A000000 		.4byte	.LVL246
 14566 025d 74000000 		.4byte	.LVL248
 14567 0261 0100     		.2byte	0x1
 14568 0263 56       		.byte	0x56
 14569 0264 94000000 		.4byte	.LVL249
 14570 0268 E0000000 		.4byte	.LFE352
 14571 026c 0100     		.2byte	0x1
 14572 026e 56       		.byte	0x56
 14573 026f 00000000 		.4byte	0
 14574 0273 00000000 		.4byte	0
 14575              	.LLST88:
 14576 0277 6A000000 		.4byte	.LVL246
 14577 027b 70000000 		.4byte	.LVL247
 14578 027f 0200     		.2byte	0x2
 14579 0281 30       		.byte	0x30
 14580 0282 9F       		.byte	0x9f
 14581 0283 70000000 		.4byte	.LVL247
 14582 0287 74000000 		.4byte	.LVL248
 14583 028b 0100     		.2byte	0x1
 14584 028d 52       		.byte	0x52
 14585 028e 94000000 		.4byte	.LVL249
 14586 0292 CA000000 		.4byte	.LVL254
 14587 0296 0100     		.2byte	0x1
 14588 0298 52       		.byte	0x52
 14589 0299 CA000000 		.4byte	.LVL254
 14590 029d D0000000 		.4byte	.LVL256
 14591 02a1 0200     		.2byte	0x2
 14592 02a3 30       		.byte	0x30
 14593 02a4 9F       		.byte	0x9f
 14594 02a5 D0000000 		.4byte	.LVL256
 14595 02a9 E0000000 		.4byte	.LFE352
 14596 02ad 0100     		.2byte	0x1
 14597 02af 52       		.byte	0x52
 14598 02b0 00000000 		.4byte	0
 14599 02b4 00000000 		.4byte	0
 14600              	.LLST89:
 14601 02b8 6A000000 		.4byte	.LVL246
 14602 02bc 70000000 		.4byte	.LVL247
 14603 02c0 0200     		.2byte	0x2
 14604 02c2 30       		.byte	0x30
ARM GAS  /tmp/ccSNToGX.s 			page 258


 14605 02c3 9F       		.byte	0x9f
 14606 02c4 70000000 		.4byte	.LVL247
 14607 02c8 74000000 		.4byte	.LVL248
 14608 02cc 0100     		.2byte	0x1
 14609 02ce 55       		.byte	0x55
 14610 02cf 94000000 		.4byte	.LVL249
 14611 02d3 E0000000 		.4byte	.LFE352
 14612 02d7 0100     		.2byte	0x1
 14613 02d9 55       		.byte	0x55
 14614 02da 00000000 		.4byte	0
 14615 02de 00000000 		.4byte	0
 14616              	.LLST80:
 14617 02e2 00000000 		.4byte	.LVL232
 14618 02e6 07000000 		.4byte	.LVL233-1
 14619 02ea 0100     		.2byte	0x1
 14620 02ec 50       		.byte	0x50
 14621 02ed 07000000 		.4byte	.LVL233-1
 14622 02f1 14000000 		.4byte	.LVL234
 14623 02f5 0400     		.2byte	0x4
 14624 02f7 F3       		.byte	0xf3
 14625 02f8 01       		.uleb128 0x1
 14626 02f9 50       		.byte	0x50
 14627 02fa 9F       		.byte	0x9f
 14628 02fb 14000000 		.4byte	.LVL234
 14629 02ff 30000000 		.4byte	.LFE350
 14630 0303 0100     		.2byte	0x1
 14631 0305 50       		.byte	0x50
 14632 0306 00000000 		.4byte	0
 14633 030a 00000000 		.4byte	0
 14634              	.LLST81:
 14635 030e 1C000000 		.4byte	.LVL236
 14636 0312 20000000 		.4byte	.LVL237
 14637 0316 0100     		.2byte	0x1
 14638 0318 52       		.byte	0x52
 14639 0319 20000000 		.4byte	.LVL237
 14640 031d 26000000 		.4byte	.LVL238
 14641 0321 0700     		.2byte	0x7
 14642 0323 73       		.byte	0x73
 14643 0324 00       		.sleb128 0
 14644 0325 32       		.byte	0x32
 14645 0326 24       		.byte	0x24
 14646 0327 71       		.byte	0x71
 14647 0328 00       		.sleb128 0
 14648 0329 22       		.byte	0x22
 14649 032a 26000000 		.4byte	.LVL238
 14650 032e 30000000 		.4byte	.LFE350
 14651 0332 0700     		.2byte	0x7
 14652 0334 73       		.byte	0x73
 14653 0335 7F       		.sleb128 -1
 14654 0336 32       		.byte	0x32
 14655 0337 24       		.byte	0x24
 14656 0338 71       		.byte	0x71
 14657 0339 00       		.sleb128 0
 14658 033a 22       		.byte	0x22
 14659 033b 00000000 		.4byte	0
 14660 033f 00000000 		.4byte	0
 14661              	.LLST0:
ARM GAS  /tmp/ccSNToGX.s 			page 259


 14662 0343 00000000 		.4byte	.LVL0
 14663 0347 07000000 		.4byte	.LVL1-1
 14664 034b 0100     		.2byte	0x1
 14665 034d 50       		.byte	0x50
 14666 034e 07000000 		.4byte	.LVL1-1
 14667 0352 1A000000 		.4byte	.LVL3
 14668 0356 0100     		.2byte	0x1
 14669 0358 55       		.byte	0x55
 14670 0359 1A000000 		.4byte	.LVL3
 14671 035d 1E000000 		.4byte	.LVL4
 14672 0361 0400     		.2byte	0x4
 14673 0363 F3       		.byte	0xf3
 14674 0364 01       		.uleb128 0x1
 14675 0365 50       		.byte	0x50
 14676 0366 9F       		.byte	0x9f
 14677 0367 1E000000 		.4byte	.LVL4
 14678 036b 68000000 		.4byte	.LVL11
 14679 036f 0100     		.2byte	0x1
 14680 0371 55       		.byte	0x55
 14681 0372 68000000 		.4byte	.LVL11
 14682 0376 94000000 		.4byte	.LFE347
 14683 037a 0400     		.2byte	0x4
 14684 037c F3       		.byte	0xf3
 14685 037d 01       		.uleb128 0x1
 14686 037e 50       		.byte	0x50
 14687 037f 9F       		.byte	0x9f
 14688 0380 00000000 		.4byte	0
 14689 0384 00000000 		.4byte	0
 14690              	.LLST1:
 14691 0388 32000000 		.4byte	.LVL6
 14692 038c 3F000000 		.4byte	.LVL7-1
 14693 0390 0600     		.2byte	0x6
 14694 0392 70       		.byte	0x70
 14695 0393 00       		.sleb128 0
 14696 0394 08       		.byte	0x8
 14697 0395 FF       		.byte	0xff
 14698 0396 1A       		.byte	0x1a
 14699 0397 9F       		.byte	0x9f
 14700 0398 56000000 		.4byte	.LVL9
 14701 039c 66000000 		.4byte	.LVL10
 14702 03a0 0600     		.2byte	0x6
 14703 03a2 70       		.byte	0x70
 14704 03a3 00       		.sleb128 0
 14705 03a4 08       		.byte	0x8
 14706 03a5 FF       		.byte	0xff
 14707 03a6 1A       		.byte	0x1a
 14708 03a7 9F       		.byte	0x9f
 14709 03a8 6C000000 		.4byte	.LVL12
 14710 03ac 82000000 		.4byte	.LVL13
 14711 03b0 0600     		.2byte	0x6
 14712 03b2 70       		.byte	0x70
 14713 03b3 00       		.sleb128 0
 14714 03b4 08       		.byte	0x8
 14715 03b5 FF       		.byte	0xff
 14716 03b6 1A       		.byte	0x1a
 14717 03b7 9F       		.byte	0x9f
 14718 03b8 00000000 		.4byte	0
ARM GAS  /tmp/ccSNToGX.s 			page 260


 14719 03bc 00000000 		.4byte	0
 14720              	.LLST2:
 14721 03c0 68000000 		.4byte	.LVL11
 14722 03c4 8A000000 		.4byte	.LVL15
 14723 03c8 0100     		.2byte	0x1
 14724 03ca 55       		.byte	0x55
 14725 03cb 00000000 		.4byte	0
 14726 03cf 00000000 		.4byte	0
 14727              	.LLST77:
 14728 03d3 00000000 		.4byte	.LVL223
 14729 03d7 0A000000 		.4byte	.LVL224
 14730 03db 0100     		.2byte	0x1
 14731 03dd 50       		.byte	0x50
 14732 03de 0A000000 		.4byte	.LVL224
 14733 03e2 0E000000 		.4byte	.LVL225
 14734 03e6 0100     		.2byte	0x1
 14735 03e8 54       		.byte	0x54
 14736 03e9 0E000000 		.4byte	.LVL225
 14737 03ed 12000000 		.4byte	.LVL227
 14738 03f1 0100     		.2byte	0x1
 14739 03f3 50       		.byte	0x50
 14740 03f4 12000000 		.4byte	.LVL227
 14741 03f8 4A000000 		.4byte	.LVL229
 14742 03fc 0100     		.2byte	0x1
 14743 03fe 54       		.byte	0x54
 14744 03ff 4A000000 		.4byte	.LVL229
 14745 0403 50000000 		.4byte	.LFE346
 14746 0407 0400     		.2byte	0x4
 14747 0409 F3       		.byte	0xf3
 14748 040a 01       		.uleb128 0x1
 14749 040b 50       		.byte	0x50
 14750 040c 9F       		.byte	0x9f
 14751 040d 00000000 		.4byte	0
 14752 0411 00000000 		.4byte	0
 14753              	.LLST78:
 14754 0415 00000000 		.4byte	.LVL223
 14755 0419 0A000000 		.4byte	.LVL224
 14756 041d 0100     		.2byte	0x1
 14757 041f 51       		.byte	0x51
 14758 0420 0A000000 		.4byte	.LVL224
 14759 0424 0E000000 		.4byte	.LVL225
 14760 0428 0100     		.2byte	0x1
 14761 042a 55       		.byte	0x55
 14762 042b 0E000000 		.4byte	.LVL225
 14763 042f 10000000 		.4byte	.LVL226
 14764 0433 0100     		.2byte	0x1
 14765 0435 51       		.byte	0x51
 14766 0436 10000000 		.4byte	.LVL226
 14767 043a 4A000000 		.4byte	.LVL229
 14768 043e 0100     		.2byte	0x1
 14769 0440 55       		.byte	0x55
 14770 0441 4A000000 		.4byte	.LVL229
 14771 0445 50000000 		.4byte	.LFE346
 14772 0449 0400     		.2byte	0x4
 14773 044b F3       		.byte	0xf3
 14774 044c 01       		.uleb128 0x1
 14775 044d 51       		.byte	0x51
ARM GAS  /tmp/ccSNToGX.s 			page 261


 14776 044e 9F       		.byte	0x9f
 14777 044f 00000000 		.4byte	0
 14778 0453 00000000 		.4byte	0
 14779              	.LLST74:
 14780 0457 00000000 		.4byte	.LVL219
 14781 045b 07000000 		.4byte	.LVL220-1
 14782 045f 0100     		.2byte	0x1
 14783 0461 50       		.byte	0x50
 14784 0462 07000000 		.4byte	.LVL220-1
 14785 0466 14000000 		.4byte	.LFE345
 14786 046a 0400     		.2byte	0x4
 14787 046c F3       		.byte	0xf3
 14788 046d 01       		.uleb128 0x1
 14789 046e 50       		.byte	0x50
 14790 046f 9F       		.byte	0x9f
 14791 0470 00000000 		.4byte	0
 14792 0474 00000000 		.4byte	0
 14793              	.LLST75:
 14794 0478 00000000 		.4byte	.LVL219
 14795 047c 0A000000 		.4byte	.LVL221
 14796 0480 0100     		.2byte	0x1
 14797 0482 51       		.byte	0x51
 14798 0483 0A000000 		.4byte	.LVL221
 14799 0487 14000000 		.4byte	.LFE345
 14800 048b 0100     		.2byte	0x1
 14801 048d 54       		.byte	0x54
 14802 048e 00000000 		.4byte	0
 14803 0492 00000000 		.4byte	0
 14804              	.LLST76:
 14805 0496 00000000 		.4byte	.LVL219
 14806 049a 0F000000 		.4byte	.LVL222-1
 14807 049e 0100     		.2byte	0x1
 14808 04a0 52       		.byte	0x52
 14809 04a1 0F000000 		.4byte	.LVL222-1
 14810 04a5 14000000 		.4byte	.LFE345
 14811 04a9 0400     		.2byte	0x4
 14812 04ab F3       		.byte	0xf3
 14813 04ac 01       		.uleb128 0x1
 14814 04ad 52       		.byte	0x52
 14815 04ae 9F       		.byte	0x9f
 14816 04af 00000000 		.4byte	0
 14817 04b3 00000000 		.4byte	0
 14818              	.LLST73:
 14819 04b7 00000000 		.4byte	.LVL216
 14820 04bb 02000000 		.4byte	.LVL217
 14821 04bf 0100     		.2byte	0x1
 14822 04c1 50       		.byte	0x50
 14823 04c2 02000000 		.4byte	.LVL217
 14824 04c6 0C000000 		.4byte	.LVL218
 14825 04ca 0300     		.2byte	0x3
 14826 04cc 70       		.byte	0x70
 14827 04cd 01       		.sleb128 1
 14828 04ce 9F       		.byte	0x9f
 14829 04cf 0C000000 		.4byte	.LVL218
 14830 04d3 14000000 		.4byte	.LFE344
 14831 04d7 0400     		.2byte	0x4
 14832 04d9 F3       		.byte	0xf3
ARM GAS  /tmp/ccSNToGX.s 			page 262


 14833 04da 01       		.uleb128 0x1
 14834 04db 50       		.byte	0x50
 14835 04dc 9F       		.byte	0x9f
 14836 04dd 00000000 		.4byte	0
 14837 04e1 00000000 		.4byte	0
 14838              	.LLST72:
 14839 04e5 00000000 		.4byte	.LVL214
 14840 04e9 02000000 		.4byte	.LVL215
 14841 04ed 0100     		.2byte	0x1
 14842 04ef 50       		.byte	0x50
 14843 04f0 02000000 		.4byte	.LVL215
 14844 04f4 08000000 		.4byte	.LFE343
 14845 04f8 0400     		.2byte	0x4
 14846 04fa F3       		.byte	0xf3
 14847 04fb 01       		.uleb128 0x1
 14848 04fc 50       		.byte	0x50
 14849 04fd 9F       		.byte	0x9f
 14850 04fe 00000000 		.4byte	0
 14851 0502 00000000 		.4byte	0
 14852              	.LLST69:
 14853 0506 00000000 		.4byte	.LVL203
 14854 050a 0F000000 		.4byte	.LVL204-1
 14855 050e 0100     		.2byte	0x1
 14856 0510 50       		.byte	0x50
 14857 0511 0F000000 		.4byte	.LVL204-1
 14858 0515 54000000 		.4byte	.LFE341
 14859 0519 0400     		.2byte	0x4
 14860 051b F3       		.byte	0xf3
 14861 051c 01       		.uleb128 0x1
 14862 051d 50       		.byte	0x50
 14863 051e 9F       		.byte	0x9f
 14864 051f 00000000 		.4byte	0
 14865 0523 00000000 		.4byte	0
 14866              	.LLST70:
 14867 0527 3A000000 		.4byte	.LVL210
 14868 052b 42000000 		.4byte	.LVL211
 14869 052f 0100     		.2byte	0x1
 14870 0531 50       		.byte	0x50
 14871 0532 42000000 		.4byte	.LVL211
 14872 0536 45000000 		.4byte	.LVL212-1
 14873 053a 0100     		.2byte	0x1
 14874 053c 52       		.byte	0x52
 14875 053d 45000000 		.4byte	.LVL212-1
 14876 0541 54000000 		.4byte	.LFE341
 14877 0545 0100     		.2byte	0x1
 14878 0547 56       		.byte	0x56
 14879 0548 00000000 		.4byte	0
 14880 054c 00000000 		.4byte	0
 14881              	.LLST71:
 14882 0550 10000000 		.4byte	.LVL204
 14883 0554 1D000000 		.4byte	.LVL205-1
 14884 0558 0600     		.2byte	0x6
 14885 055a 70       		.byte	0x70
 14886 055b 00       		.sleb128 0
 14887 055c 08       		.byte	0x8
 14888 055d FF       		.byte	0xff
 14889 055e 1A       		.byte	0x1a
ARM GAS  /tmp/ccSNToGX.s 			page 263


 14890 055f 9F       		.byte	0x9f
 14891 0560 30000000 		.4byte	.LVL207
 14892 0564 34000000 		.4byte	.LVL208
 14893 0568 0600     		.2byte	0x6
 14894 056a 70       		.byte	0x70
 14895 056b 00       		.sleb128 0
 14896 056c 08       		.byte	0x8
 14897 056d FF       		.byte	0xff
 14898 056e 1A       		.byte	0x1a
 14899 056f 9F       		.byte	0x9f
 14900 0570 00000000 		.4byte	0
 14901 0574 00000000 		.4byte	0
 14902              	.LLST67:
 14903 0578 00000000 		.4byte	.LVL196
 14904 057c 06000000 		.4byte	.LVL197
 14905 0580 0100     		.2byte	0x1
 14906 0582 50       		.byte	0x50
 14907 0583 06000000 		.4byte	.LVL197
 14908 0587 09000000 		.4byte	.LVL198-1
 14909 058b 0100     		.2byte	0x1
 14910 058d 51       		.byte	0x51
 14911 058e 09000000 		.4byte	.LVL198-1
 14912 0592 30000000 		.4byte	.LFE340
 14913 0596 0400     		.2byte	0x4
 14914 0598 F3       		.byte	0xf3
 14915 0599 01       		.uleb128 0x1
 14916 059a 50       		.byte	0x50
 14917 059b 9F       		.byte	0x9f
 14918 059c 00000000 		.4byte	0
 14919 05a0 00000000 		.4byte	0
 14920              	.LLST68:
 14921 05a4 0A000000 		.4byte	.LVL198
 14922 05a8 11000000 		.4byte	.LVL199-1
 14923 05ac 0600     		.2byte	0x6
 14924 05ae 70       		.byte	0x70
 14925 05af 00       		.sleb128 0
 14926 05b0 08       		.byte	0x8
 14927 05b1 FF       		.byte	0xff
 14928 05b2 1A       		.byte	0x1a
 14929 05b3 9F       		.byte	0x9f
 14930 05b4 22000000 		.4byte	.LVL201
 14931 05b8 24000000 		.4byte	.LVL202
 14932 05bc 0600     		.2byte	0x6
 14933 05be 70       		.byte	0x70
 14934 05bf 00       		.sleb128 0
 14935 05c0 08       		.byte	0x8
 14936 05c1 FF       		.byte	0xff
 14937 05c2 1A       		.byte	0x1a
 14938 05c3 9F       		.byte	0x9f
 14939 05c4 00000000 		.4byte	0
 14940 05c8 00000000 		.4byte	0
 14941              	.LLST65:
 14942 05cc 00000000 		.4byte	.LVL191
 14943 05d0 05000000 		.4byte	.LVL192-1
 14944 05d4 0100     		.2byte	0x1
 14945 05d6 50       		.byte	0x50
 14946 05d7 05000000 		.4byte	.LVL192-1
ARM GAS  /tmp/ccSNToGX.s 			page 264


 14947 05db 28000000 		.4byte	.LFE339
 14948 05df 0400     		.2byte	0x4
 14949 05e1 F3       		.byte	0xf3
 14950 05e2 01       		.uleb128 0x1
 14951 05e3 50       		.byte	0x50
 14952 05e4 9F       		.byte	0x9f
 14953 05e5 00000000 		.4byte	0
 14954 05e9 00000000 		.4byte	0
 14955              	.LLST66:
 14956 05ed 06000000 		.4byte	.LVL192
 14957 05f1 0D000000 		.4byte	.LVL193-1
 14958 05f5 0600     		.2byte	0x6
 14959 05f7 70       		.byte	0x70
 14960 05f8 00       		.sleb128 0
 14961 05f9 08       		.byte	0x8
 14962 05fa FF       		.byte	0xff
 14963 05fb 1A       		.byte	0x1a
 14964 05fc 9F       		.byte	0x9f
 14965 05fd 20000000 		.4byte	.LVL195
 14966 0601 28000000 		.4byte	.LFE339
 14967 0605 0600     		.2byte	0x6
 14968 0607 70       		.byte	0x70
 14969 0608 00       		.sleb128 0
 14970 0609 08       		.byte	0x8
 14971 060a FF       		.byte	0xff
 14972 060b 1A       		.byte	0x1a
 14973 060c 9F       		.byte	0x9f
 14974 060d 00000000 		.4byte	0
 14975 0611 00000000 		.4byte	0
 14976              	.LLST63:
 14977 0615 00000000 		.4byte	.LVL184
 14978 0619 07000000 		.4byte	.LVL185-1
 14979 061d 0100     		.2byte	0x1
 14980 061f 50       		.byte	0x50
 14981 0620 07000000 		.4byte	.LVL185-1
 14982 0624 14000000 		.4byte	.LVL187
 14983 0628 0100     		.2byte	0x1
 14984 062a 54       		.byte	0x54
 14985 062b 14000000 		.4byte	.LVL187
 14986 062f 34000000 		.4byte	.LFE338
 14987 0633 0400     		.2byte	0x4
 14988 0635 F3       		.byte	0xf3
 14989 0636 01       		.uleb128 0x1
 14990 0637 50       		.byte	0x50
 14991 0638 9F       		.byte	0x9f
 14992 0639 00000000 		.4byte	0
 14993 063d 00000000 		.4byte	0
 14994              	.LLST64:
 14995 0641 12000000 		.4byte	.LVL186
 14996 0645 19000000 		.4byte	.LVL188-1
 14997 0649 0600     		.2byte	0x6
 14998 064b 70       		.byte	0x70
 14999 064c 00       		.sleb128 0
 15000 064d 08       		.byte	0x8
 15001 064e FF       		.byte	0xff
 15002 064f 1A       		.byte	0x1a
 15003 0650 9F       		.byte	0x9f
ARM GAS  /tmp/ccSNToGX.s 			page 265


 15004 0651 2C000000 		.4byte	.LVL190
 15005 0655 34000000 		.4byte	.LFE338
 15006 0659 0600     		.2byte	0x6
 15007 065b 70       		.byte	0x70
 15008 065c 00       		.sleb128 0
 15009 065d 08       		.byte	0x8
 15010 065e FF       		.byte	0xff
 15011 065f 1A       		.byte	0x1a
 15012 0660 9F       		.byte	0x9f
 15013 0661 00000000 		.4byte	0
 15014 0665 00000000 		.4byte	0
 15015              	.LLST60:
 15016 0669 00000000 		.4byte	.LVL176
 15017 066d 09000000 		.4byte	.LVL177-1
 15018 0671 0100     		.2byte	0x1
 15019 0673 50       		.byte	0x50
 15020 0674 09000000 		.4byte	.LVL177-1
 15021 0678 18000000 		.4byte	.LVL179
 15022 067c 0100     		.2byte	0x1
 15023 067e 54       		.byte	0x54
 15024 067f 18000000 		.4byte	.LVL179
 15025 0683 38000000 		.4byte	.LFE335
 15026 0687 0400     		.2byte	0x4
 15027 0689 F3       		.byte	0xf3
 15028 068a 01       		.uleb128 0x1
 15029 068b 50       		.byte	0x50
 15030 068c 9F       		.byte	0x9f
 15031 068d 00000000 		.4byte	0
 15032 0691 00000000 		.4byte	0
 15033              	.LLST61:
 15034 0695 00000000 		.4byte	.LVL176
 15035 0699 09000000 		.4byte	.LVL177-1
 15036 069d 0100     		.2byte	0x1
 15037 069f 51       		.byte	0x51
 15038 06a0 09000000 		.4byte	.LVL177-1
 15039 06a4 32000000 		.4byte	.LVL183
 15040 06a8 0100     		.2byte	0x1
 15041 06aa 55       		.byte	0x55
 15042 06ab 32000000 		.4byte	.LVL183
 15043 06af 38000000 		.4byte	.LFE335
 15044 06b3 0400     		.2byte	0x4
 15045 06b5 F3       		.byte	0xf3
 15046 06b6 01       		.uleb128 0x1
 15047 06b7 51       		.byte	0x51
 15048 06b8 9F       		.byte	0x9f
 15049 06b9 00000000 		.4byte	0
 15050 06bd 00000000 		.4byte	0
 15051              	.LLST62:
 15052 06c1 16000000 		.4byte	.LVL178
 15053 06c5 1D000000 		.4byte	.LVL180-1
 15054 06c9 0600     		.2byte	0x6
 15055 06cb 70       		.byte	0x70
 15056 06cc 00       		.sleb128 0
 15057 06cd 08       		.byte	0x8
 15058 06ce FF       		.byte	0xff
 15059 06cf 1A       		.byte	0x1a
 15060 06d0 9F       		.byte	0x9f
ARM GAS  /tmp/ccSNToGX.s 			page 266


 15061 06d1 30000000 		.4byte	.LVL182
 15062 06d5 38000000 		.4byte	.LFE335
 15063 06d9 0600     		.2byte	0x6
 15064 06db 70       		.byte	0x70
 15065 06dc 00       		.sleb128 0
 15066 06dd 08       		.byte	0x8
 15067 06de FF       		.byte	0xff
 15068 06df 1A       		.byte	0x1a
 15069 06e0 9F       		.byte	0x9f
 15070 06e1 00000000 		.4byte	0
 15071 06e5 00000000 		.4byte	0
 15072              	.LLST57:
 15073 06e9 00000000 		.4byte	.LVL165
 15074 06ed 09000000 		.4byte	.LVL166-1
 15075 06f1 0100     		.2byte	0x1
 15076 06f3 50       		.byte	0x50
 15077 06f4 09000000 		.4byte	.LVL166-1
 15078 06f8 40000000 		.4byte	.LVL175
 15079 06fc 0100     		.2byte	0x1
 15080 06fe 56       		.byte	0x56
 15081 06ff 40000000 		.4byte	.LVL175
 15082 0703 44000000 		.4byte	.LFE334
 15083 0707 0400     		.2byte	0x4
 15084 0709 F3       		.byte	0xf3
 15085 070a 01       		.uleb128 0x1
 15086 070b 50       		.byte	0x50
 15087 070c 9F       		.byte	0x9f
 15088 070d 00000000 		.4byte	0
 15089 0711 00000000 		.4byte	0
 15090              	.LLST58:
 15091 0715 00000000 		.4byte	.LVL165
 15092 0719 09000000 		.4byte	.LVL166-1
 15093 071d 0100     		.2byte	0x1
 15094 071f 51       		.byte	0x51
 15095 0720 09000000 		.4byte	.LVL166-1
 15096 0724 40000000 		.4byte	.LVL175
 15097 0728 0100     		.2byte	0x1
 15098 072a 54       		.byte	0x54
 15099 072b 40000000 		.4byte	.LVL175
 15100 072f 44000000 		.4byte	.LFE334
 15101 0733 0100     		.2byte	0x1
 15102 0735 50       		.byte	0x50
 15103 0736 00000000 		.4byte	0
 15104 073a 00000000 		.4byte	0
 15105              	.LLST59:
 15106 073e 14000000 		.4byte	.LVL167
 15107 0742 1B000000 		.4byte	.LVL168-1
 15108 0746 0600     		.2byte	0x6
 15109 0748 70       		.byte	0x70
 15110 0749 00       		.sleb128 0
 15111 074a 08       		.byte	0x8
 15112 074b FF       		.byte	0xff
 15113 074c 1A       		.byte	0x1a
 15114 074d 9F       		.byte	0x9f
 15115 074e 2E000000 		.4byte	.LVL170
 15116 0752 34000000 		.4byte	.LVL171
 15117 0756 0600     		.2byte	0x6
ARM GAS  /tmp/ccSNToGX.s 			page 267


 15118 0758 70       		.byte	0x70
 15119 0759 00       		.sleb128 0
 15120 075a 08       		.byte	0x8
 15121 075b FF       		.byte	0xff
 15122 075c 1A       		.byte	0x1a
 15123 075d 9F       		.byte	0x9f
 15124 075e 3C000000 		.4byte	.LVL173
 15125 0762 3E000000 		.4byte	.LVL174
 15126 0766 0600     		.2byte	0x6
 15127 0768 70       		.byte	0x70
 15128 0769 00       		.sleb128 0
 15129 076a 08       		.byte	0x8
 15130 076b FF       		.byte	0xff
 15131 076c 1A       		.byte	0x1a
 15132 076d 9F       		.byte	0x9f
 15133 076e 00000000 		.4byte	0
 15134 0772 00000000 		.4byte	0
 15135              	.LLST54:
 15136 0776 00000000 		.4byte	.LVL158
 15137 077a 09000000 		.4byte	.LVL159-1
 15138 077e 0100     		.2byte	0x1
 15139 0780 50       		.byte	0x50
 15140 0781 09000000 		.4byte	.LVL159-1
 15141 0785 2C000000 		.4byte	.LVL164
 15142 0789 0100     		.2byte	0x1
 15143 078b 54       		.byte	0x54
 15144 078c 2C000000 		.4byte	.LVL164
 15145 0790 34000000 		.4byte	.LFE333
 15146 0794 0400     		.2byte	0x4
 15147 0796 F3       		.byte	0xf3
 15148 0797 01       		.uleb128 0x1
 15149 0798 50       		.byte	0x50
 15150 0799 9F       		.byte	0x9f
 15151 079a 00000000 		.4byte	0
 15152 079e 00000000 		.4byte	0
 15153              	.LLST55:
 15154 07a2 00000000 		.4byte	.LVL158
 15155 07a6 09000000 		.4byte	.LVL159-1
 15156 07aa 0100     		.2byte	0x1
 15157 07ac 51       		.byte	0x51
 15158 07ad 09000000 		.4byte	.LVL159-1
 15159 07b1 18000000 		.4byte	.LVL161
 15160 07b5 0100     		.2byte	0x1
 15161 07b7 55       		.byte	0x55
 15162 07b8 18000000 		.4byte	.LVL161
 15163 07bc 34000000 		.4byte	.LFE333
 15164 07c0 0400     		.2byte	0x4
 15165 07c2 F3       		.byte	0xf3
 15166 07c3 01       		.uleb128 0x1
 15167 07c4 51       		.byte	0x51
 15168 07c5 9F       		.byte	0x9f
 15169 07c6 00000000 		.4byte	0
 15170 07ca 00000000 		.4byte	0
 15171              	.LLST56:
 15172 07ce 16000000 		.4byte	.LVL160
 15173 07d2 1D000000 		.4byte	.LVL162-1
 15174 07d6 0600     		.2byte	0x6
ARM GAS  /tmp/ccSNToGX.s 			page 268


 15175 07d8 70       		.byte	0x70
 15176 07d9 00       		.sleb128 0
 15177 07da 08       		.byte	0x8
 15178 07db FF       		.byte	0xff
 15179 07dc 1A       		.byte	0x1a
 15180 07dd 9F       		.byte	0x9f
 15181 07de 00000000 		.4byte	0
 15182 07e2 00000000 		.4byte	0
 15183              	.LLST51:
 15184 07e6 00000000 		.4byte	.LVL150
 15185 07ea 08000000 		.4byte	.LVL151
 15186 07ee 0100     		.2byte	0x1
 15187 07f0 50       		.byte	0x50
 15188 07f1 08000000 		.4byte	.LVL151
 15189 07f5 0E000000 		.4byte	.LVL153
 15190 07f9 0100     		.2byte	0x1
 15191 07fb 52       		.byte	0x52
 15192 07fc 0E000000 		.4byte	.LVL153
 15193 0800 10000000 		.4byte	.LVL154
 15194 0804 0300     		.2byte	0x3
 15195 0806 72       		.byte	0x72
 15196 0807 7F       		.sleb128 -1
 15197 0808 9F       		.byte	0x9f
 15198 0809 14000000 		.4byte	.LVL155
 15199 080d 1A000000 		.4byte	.LVL156
 15200 0811 0300     		.2byte	0x3
 15201 0813 72       		.byte	0x72
 15202 0814 7F       		.sleb128 -1
 15203 0815 9F       		.byte	0x9f
 15204 0816 1A000000 		.4byte	.LVL156
 15205 081a 1C000000 		.4byte	.LVL157
 15206 081e 0100     		.2byte	0x1
 15207 0820 52       		.byte	0x52
 15208 0821 1C000000 		.4byte	.LVL157
 15209 0825 20000000 		.4byte	.LFE332
 15210 0829 0100     		.2byte	0x1
 15211 082b 50       		.byte	0x50
 15212 082c 00000000 		.4byte	0
 15213 0830 00000000 		.4byte	0
 15214              	.LLST52:
 15215 0834 00000000 		.4byte	.LVL150
 15216 0838 08000000 		.4byte	.LVL151
 15217 083c 0200     		.2byte	0x2
 15218 083e 30       		.byte	0x30
 15219 083f 9F       		.byte	0x9f
 15220 0840 0A000000 		.4byte	.LVL152
 15221 0844 10000000 		.4byte	.LVL154
 15222 0848 0100     		.2byte	0x1
 15223 084a 53       		.byte	0x53
 15224 084b 14000000 		.4byte	.LVL155
 15225 084f 1C000000 		.4byte	.LVL157
 15226 0853 0100     		.2byte	0x1
 15227 0855 53       		.byte	0x53
 15228 0856 1C000000 		.4byte	.LVL157
 15229 085a 20000000 		.4byte	.LFE332
 15230 085e 0200     		.2byte	0x2
 15231 0860 30       		.byte	0x30
ARM GAS  /tmp/ccSNToGX.s 			page 269


 15232 0861 9F       		.byte	0x9f
 15233 0862 00000000 		.4byte	0
 15234 0866 00000000 		.4byte	0
 15235              	.LLST53:
 15236 086a 00000000 		.4byte	.LVL150
 15237 086e 08000000 		.4byte	.LVL151
 15238 0872 0200     		.2byte	0x2
 15239 0874 30       		.byte	0x30
 15240 0875 9F       		.byte	0x9f
 15241 0876 0A000000 		.4byte	.LVL152
 15242 087a 10000000 		.4byte	.LVL154
 15243 087e 0100     		.2byte	0x1
 15244 0880 54       		.byte	0x54
 15245 0881 14000000 		.4byte	.LVL155
 15246 0885 1A000000 		.4byte	.LVL156
 15247 0889 0100     		.2byte	0x1
 15248 088b 54       		.byte	0x54
 15249 088c 1A000000 		.4byte	.LVL156
 15250 0890 1C000000 		.4byte	.LVL157
 15251 0894 0600     		.2byte	0x6
 15252 0896 72       		.byte	0x72
 15253 0897 00       		.sleb128 0
 15254 0898 70       		.byte	0x70
 15255 0899 00       		.sleb128 0
 15256 089a 1C       		.byte	0x1c
 15257 089b 9F       		.byte	0x9f
 15258 089c 1C000000 		.4byte	.LVL157
 15259 08a0 20000000 		.4byte	.LFE332
 15260 08a4 0200     		.2byte	0x2
 15261 08a6 30       		.byte	0x30
 15262 08a7 9F       		.byte	0x9f
 15263 08a8 00000000 		.4byte	0
 15264 08ac 00000000 		.4byte	0
 15265              	.LLST44:
 15266 08b0 00000000 		.4byte	.LVL134
 15267 08b4 07000000 		.4byte	.LVL135-1
 15268 08b8 0100     		.2byte	0x1
 15269 08ba 50       		.byte	0x50
 15270 08bb 07000000 		.4byte	.LVL135-1
 15271 08bf 14000000 		.4byte	.LVL137
 15272 08c3 0100     		.2byte	0x1
 15273 08c5 54       		.byte	0x54
 15274 08c6 14000000 		.4byte	.LVL137
 15275 08ca 34000000 		.4byte	.LFE330
 15276 08ce 0400     		.2byte	0x4
 15277 08d0 F3       		.byte	0xf3
 15278 08d1 01       		.uleb128 0x1
 15279 08d2 50       		.byte	0x50
 15280 08d3 9F       		.byte	0x9f
 15281 08d4 00000000 		.4byte	0
 15282 08d8 00000000 		.4byte	0
 15283              	.LLST45:
 15284 08dc 12000000 		.4byte	.LVL136
 15285 08e0 19000000 		.4byte	.LVL138-1
 15286 08e4 0600     		.2byte	0x6
 15287 08e6 70       		.byte	0x70
 15288 08e7 00       		.sleb128 0
ARM GAS  /tmp/ccSNToGX.s 			page 270


 15289 08e8 08       		.byte	0x8
 15290 08e9 FF       		.byte	0xff
 15291 08ea 1A       		.byte	0x1a
 15292 08eb 9F       		.byte	0x9f
 15293 08ec 2C000000 		.4byte	.LVL140
 15294 08f0 34000000 		.4byte	.LFE330
 15295 08f4 0600     		.2byte	0x6
 15296 08f6 70       		.byte	0x70
 15297 08f7 00       		.sleb128 0
 15298 08f8 08       		.byte	0x8
 15299 08f9 FF       		.byte	0xff
 15300 08fa 1A       		.byte	0x1a
 15301 08fb 9F       		.byte	0x9f
 15302 08fc 00000000 		.4byte	0
 15303 0900 00000000 		.4byte	0
 15304              	.LLST42:
 15305 0904 00000000 		.4byte	.LVL128
 15306 0908 06000000 		.4byte	.LVL130
 15307 090c 0100     		.2byte	0x1
 15308 090e 50       		.byte	0x50
 15309 090f 06000000 		.4byte	.LVL130
 15310 0913 0A000000 		.4byte	.LVL131
 15311 0917 0300     		.2byte	0x3
 15312 0919 70       		.byte	0x70
 15313 091a 7F       		.sleb128 -1
 15314 091b 9F       		.byte	0x9f
 15315 091c 0C000000 		.4byte	.LVL132
 15316 0920 18000000 		.4byte	.LFE329
 15317 0924 0100     		.2byte	0x1
 15318 0926 50       		.byte	0x50
 15319 0927 00000000 		.4byte	0
 15320 092b 00000000 		.4byte	0
 15321              	.LLST43:
 15322 092f 00000000 		.4byte	.LVL128
 15323 0933 02000000 		.4byte	.LVL129
 15324 0937 0600     		.2byte	0x6
 15325 0939 03       		.byte	0x3
 15326 093a 00000000 		.4byte	.LC2
 15327 093e 9F       		.byte	0x9f
 15328 093f 02000000 		.4byte	.LVL129
 15329 0943 12000000 		.4byte	.LVL133
 15330 0947 0100     		.2byte	0x1
 15331 0949 53       		.byte	0x53
 15332 094a 00000000 		.4byte	0
 15333 094e 00000000 		.4byte	0
 15334              	.LLST40:
 15335 0952 00000000 		.4byte	.LVL121
 15336 0956 04000000 		.4byte	.LVL122
 15337 095a 0100     		.2byte	0x1
 15338 095c 50       		.byte	0x50
 15339 095d 04000000 		.4byte	.LVL122
 15340 0961 08000000 		.4byte	.LVL123
 15341 0965 0100     		.2byte	0x1
 15342 0967 53       		.byte	0x53
 15343 0968 08000000 		.4byte	.LVL123
 15344 096c 0C000000 		.4byte	.LVL124
 15345 0970 0300     		.2byte	0x3
ARM GAS  /tmp/ccSNToGX.s 			page 271


 15346 0972 73       		.byte	0x73
 15347 0973 7F       		.sleb128 -1
 15348 0974 9F       		.byte	0x9f
 15349 0975 0C000000 		.4byte	.LVL124
 15350 0979 14000000 		.4byte	.LVL126
 15351 097d 0100     		.2byte	0x1
 15352 097f 53       		.byte	0x53
 15353 0980 14000000 		.4byte	.LVL126
 15354 0984 16000000 		.4byte	.LVL127
 15355 0988 0100     		.2byte	0x1
 15356 098a 50       		.byte	0x50
 15357 098b 16000000 		.4byte	.LVL127
 15358 098f 1C000000 		.4byte	.LFE328
 15359 0993 0400     		.2byte	0x4
 15360 0995 F3       		.byte	0xf3
 15361 0996 01       		.uleb128 0x1
 15362 0997 50       		.byte	0x50
 15363 0998 9F       		.byte	0x9f
 15364 0999 00000000 		.4byte	0
 15365 099d 00000000 		.4byte	0
 15366              	.LLST41:
 15367 09a1 00000000 		.4byte	.LVL121
 15368 09a5 12000000 		.4byte	.LVL125
 15369 09a9 0100     		.2byte	0x1
 15370 09ab 50       		.byte	0x50
 15371 09ac 14000000 		.4byte	.LVL126
 15372 09b0 16000000 		.4byte	.LVL127
 15373 09b4 0100     		.2byte	0x1
 15374 09b6 50       		.byte	0x50
 15375 09b7 16000000 		.4byte	.LVL127
 15376 09bb 1C000000 		.4byte	.LFE328
 15377 09bf 0400     		.2byte	0x4
 15378 09c1 F3       		.byte	0xf3
 15379 09c2 01       		.uleb128 0x1
 15380 09c3 50       		.byte	0x50
 15381 09c4 9F       		.byte	0x9f
 15382 09c5 00000000 		.4byte	0
 15383 09c9 00000000 		.4byte	0
 15384              	.LLST38:
 15385 09cd 1E000000 		.4byte	.LVL119
 15386 09d1 26000000 		.4byte	.LVL120
 15387 09d5 0F00     		.2byte	0xf
 15388 09d7 72       		.byte	0x72
 15389 09d8 30       		.sleb128 48
 15390 09d9 06       		.byte	0x6
 15391 09da 32       		.byte	0x32
 15392 09db 1C       		.byte	0x1c
 15393 09dc 72       		.byte	0x72
 15394 09dd 0A       		.sleb128 10
 15395 09de 94       		.byte	0x94
 15396 09df 02       		.byte	0x2
 15397 09e0 0A       		.byte	0xa
 15398 09e1 FFFF     		.2byte	0xffff
 15399 09e3 1A       		.byte	0x1a
 15400 09e4 1E       		.byte	0x1e
 15401 09e5 9F       		.byte	0x9f
 15402 09e6 26000000 		.4byte	.LVL120
ARM GAS  /tmp/ccSNToGX.s 			page 272


 15403 09ea 30000000 		.4byte	.LFE327
 15404 09ee 0100     		.2byte	0x1
 15405 09f0 51       		.byte	0x51
 15406 09f1 00000000 		.4byte	0
 15407 09f5 00000000 		.4byte	0
 15408              	.LLST39:
 15409 09f9 0C000000 		.4byte	.LVL116
 15410 09fd 14000000 		.4byte	.LVL117
 15411 0a01 0100     		.2byte	0x1
 15412 0a03 50       		.byte	0x50
 15413 0a04 1C000000 		.4byte	.LVL118
 15414 0a08 30000000 		.4byte	.LFE327
 15415 0a0c 0100     		.2byte	0x1
 15416 0a0e 50       		.byte	0x50
 15417 0a0f 00000000 		.4byte	0
 15418 0a13 00000000 		.4byte	0
 15419              	.LLST37:
 15420 0a17 0C000000 		.4byte	.LVL113
 15421 0a1b 14000000 		.4byte	.LVL114
 15422 0a1f 0100     		.2byte	0x1
 15423 0a21 50       		.byte	0x50
 15424 0a22 1C000000 		.4byte	.LVL115
 15425 0a26 30000000 		.4byte	.LFE326
 15426 0a2a 0100     		.2byte	0x1
 15427 0a2c 50       		.byte	0x50
 15428 0a2d 00000000 		.4byte	0
 15429 0a31 00000000 		.4byte	0
 15430              	.LLST97:
 15431 0a35 00000000 		.4byte	.LVL277
 15432 0a39 0A000000 		.4byte	.LVL278
 15433 0a3d 0100     		.2byte	0x1
 15434 0a3f 50       		.byte	0x50
 15435 0a40 0A000000 		.4byte	.LVL278
 15436 0a44 3A000000 		.4byte	.LVL283
 15437 0a48 0100     		.2byte	0x1
 15438 0a4a 54       		.byte	0x54
 15439 0a4b 3A000000 		.4byte	.LVL283
 15440 0a4f 3C000000 		.4byte	.LVL284
 15441 0a53 0100     		.2byte	0x1
 15442 0a55 50       		.byte	0x50
 15443 0a56 3C000000 		.4byte	.LVL284
 15444 0a5a 44000000 		.4byte	.LFE325
 15445 0a5e 0100     		.2byte	0x1
 15446 0a60 54       		.byte	0x54
 15447 0a61 00000000 		.4byte	0
 15448 0a65 00000000 		.4byte	0
 15449              	.LLST98:
 15450 0a69 00000000 		.4byte	.LVL277
 15451 0a6d 10000000 		.4byte	.LVL279
 15452 0a71 0100     		.2byte	0x1
 15453 0a73 51       		.byte	0x51
 15454 0a74 10000000 		.4byte	.LVL279
 15455 0a78 3A000000 		.4byte	.LVL283
 15456 0a7c 0400     		.2byte	0x4
 15457 0a7e F3       		.byte	0xf3
 15458 0a7f 01       		.uleb128 0x1
 15459 0a80 51       		.byte	0x51
ARM GAS  /tmp/ccSNToGX.s 			page 273


 15460 0a81 9F       		.byte	0x9f
 15461 0a82 3A000000 		.4byte	.LVL283
 15462 0a86 44000000 		.4byte	.LFE325
 15463 0a8a 0100     		.2byte	0x1
 15464 0a8c 51       		.byte	0x51
 15465 0a8d 00000000 		.4byte	0
 15466 0a91 00000000 		.4byte	0
 15467              	.LLST99:
 15468 0a95 00000000 		.4byte	.LVL277
 15469 0a99 0A000000 		.4byte	.LVL278
 15470 0a9d 0200     		.2byte	0x2
 15471 0a9f 30       		.byte	0x30
 15472 0aa0 9F       		.byte	0x9f
 15473 0aa1 0A000000 		.4byte	.LVL278
 15474 0aa5 13000000 		.4byte	.LVL280-1
 15475 0aa9 0100     		.2byte	0x1
 15476 0aab 50       		.byte	0x50
 15477 0aac 3A000000 		.4byte	.LVL283
 15478 0ab0 44000000 		.4byte	.LFE325
 15479 0ab4 0200     		.2byte	0x2
 15480 0ab6 30       		.byte	0x30
 15481 0ab7 9F       		.byte	0x9f
 15482 0ab8 00000000 		.4byte	0
 15483 0abc 00000000 		.4byte	0
 15484              	.LLST100:
 15485 0ac0 2C000000 		.4byte	.LVL281
 15486 0ac4 34000000 		.4byte	.LVL282
 15487 0ac8 0600     		.2byte	0x6
 15488 0aca 70       		.byte	0x70
 15489 0acb 00       		.sleb128 0
 15490 0acc 08       		.byte	0x8
 15491 0acd FF       		.byte	0xff
 15492 0ace 1A       		.byte	0x1a
 15493 0acf 9F       		.byte	0x9f
 15494 0ad0 00000000 		.4byte	0
 15495 0ad4 00000000 		.4byte	0
 15496              	.LLST90:
 15497 0ad8 00000000 		.4byte	.LVL258
 15498 0adc 0B000000 		.4byte	.LVL259-1
 15499 0ae0 0100     		.2byte	0x1
 15500 0ae2 50       		.byte	0x50
 15501 0ae3 0B000000 		.4byte	.LVL259-1
 15502 0ae7 38000000 		.4byte	.LVL262
 15503 0aeb 0100     		.2byte	0x1
 15504 0aed 55       		.byte	0x55
 15505 0aee 38000000 		.4byte	.LVL262
 15506 0af2 3C000000 		.4byte	.LVL263
 15507 0af6 0400     		.2byte	0x4
 15508 0af8 F3       		.byte	0xf3
 15509 0af9 01       		.uleb128 0x1
 15510 0afa 50       		.byte	0x50
 15511 0afb 9F       		.byte	0x9f
 15512 0afc 3C000000 		.4byte	.LVL263
 15513 0b00 46000000 		.4byte	.LVL265
 15514 0b04 0100     		.2byte	0x1
 15515 0b06 55       		.byte	0x55
 15516 0b07 46000000 		.4byte	.LVL265
ARM GAS  /tmp/ccSNToGX.s 			page 274


 15517 0b0b B0000000 		.4byte	.LFE324
 15518 0b0f 0400     		.2byte	0x4
 15519 0b11 F3       		.byte	0xf3
 15520 0b12 01       		.uleb128 0x1
 15521 0b13 50       		.byte	0x50
 15522 0b14 9F       		.byte	0x9f
 15523 0b15 00000000 		.4byte	0
 15524 0b19 00000000 		.4byte	0
 15525              	.LLST91:
 15526 0b1d 00000000 		.4byte	.LVL258
 15527 0b21 0B000000 		.4byte	.LVL259-1
 15528 0b25 0100     		.2byte	0x1
 15529 0b27 51       		.byte	0x51
 15530 0b28 0B000000 		.4byte	.LVL259-1
 15531 0b2c B0000000 		.4byte	.LFE324
 15532 0b30 0100     		.2byte	0x1
 15533 0b32 54       		.byte	0x54
 15534 0b33 00000000 		.4byte	0
 15535 0b37 00000000 		.4byte	0
 15536              	.LLST92:
 15537 0b3b 44000000 		.4byte	.LVL264
 15538 0b3f 4B000000 		.4byte	.LVL266-1
 15539 0b43 0600     		.2byte	0x6
 15540 0b45 70       		.byte	0x70
 15541 0b46 00       		.sleb128 0
 15542 0b47 08       		.byte	0x8
 15543 0b48 FF       		.byte	0xff
 15544 0b49 1A       		.byte	0x1a
 15545 0b4a 9F       		.byte	0x9f
 15546 0b4b 5E000000 		.4byte	.LVL268
 15547 0b4f 6A000000 		.4byte	.LVL269
 15548 0b53 0600     		.2byte	0x6
 15549 0b55 70       		.byte	0x70
 15550 0b56 00       		.sleb128 0
 15551 0b57 08       		.byte	0x8
 15552 0b58 FF       		.byte	0xff
 15553 0b59 1A       		.byte	0x1a
 15554 0b5a 9F       		.byte	0x9f
 15555 0b5b 00000000 		.4byte	0
 15556 0b5f 00000000 		.4byte	0
 15557              	.LLST93:
 15558 0b63 6E000000 		.4byte	.LVL270
 15559 0b67 A0000000 		.4byte	.LVL272
 15560 0b6b 0100     		.2byte	0x1
 15561 0b6d 50       		.byte	0x50
 15562 0b6e A0000000 		.4byte	.LVL272
 15563 0b72 B0000000 		.4byte	.LFE324
 15564 0b76 0200     		.2byte	0x2
 15565 0b78 74       		.byte	0x74
 15566 0b79 1C       		.sleb128 28
 15567 0b7a 00000000 		.4byte	0
 15568 0b7e 00000000 		.4byte	0
 15569              	.LLST182:
 15570 0b82 00000000 		.4byte	.LVL449
 15571 0b86 05000000 		.4byte	.LVL450-1
 15572 0b8a 0100     		.2byte	0x1
 15573 0b8c 50       		.byte	0x50
ARM GAS  /tmp/ccSNToGX.s 			page 275


 15574 0b8d 05000000 		.4byte	.LVL450-1
 15575 0b91 18000000 		.4byte	.LFE323
 15576 0b95 0400     		.2byte	0x4
 15577 0b97 F3       		.byte	0xf3
 15578 0b98 01       		.uleb128 0x1
 15579 0b99 50       		.byte	0x50
 15580 0b9a 9F       		.byte	0x9f
 15581 0b9b 00000000 		.4byte	0
 15582 0b9f 00000000 		.4byte	0
 15583              	.LLST183:
 15584 0ba3 06000000 		.4byte	.LVL450
 15585 0ba7 11000000 		.4byte	.LVL451-1
 15586 0bab 0100     		.2byte	0x1
 15587 0bad 50       		.byte	0x50
 15588 0bae 12000000 		.4byte	.LVL451
 15589 0bb2 16000000 		.4byte	.LVL452
 15590 0bb6 0100     		.2byte	0x1
 15591 0bb8 50       		.byte	0x50
 15592 0bb9 00000000 		.4byte	0
 15593 0bbd 00000000 		.4byte	0
 15594              	.LLST201:
 15595 0bc1 00000000 		.4byte	.LVL528
 15596 0bc5 06000000 		.4byte	.LVL529
 15597 0bc9 0100     		.2byte	0x1
 15598 0bcb 50       		.byte	0x50
 15599 0bcc 06000000 		.4byte	.LVL529
 15600 0bd0 1C000000 		.4byte	.LVL533
 15601 0bd4 0100     		.2byte	0x1
 15602 0bd6 54       		.byte	0x54
 15603 0bd7 1C000000 		.4byte	.LVL533
 15604 0bdb 1F000000 		.4byte	.LVL534-1
 15605 0bdf 0100     		.2byte	0x1
 15606 0be1 50       		.byte	0x50
 15607 0be2 1F000000 		.4byte	.LVL534-1
 15608 0be6 20000000 		.4byte	.LVL534
 15609 0bea 0400     		.2byte	0x4
 15610 0bec F3       		.byte	0xf3
 15611 0bed 01       		.uleb128 0x1
 15612 0bee 50       		.byte	0x50
 15613 0bef 9F       		.byte	0x9f
 15614 0bf0 20000000 		.4byte	.LVL534
 15615 0bf4 24000000 		.4byte	.LFE322
 15616 0bf8 0100     		.2byte	0x1
 15617 0bfa 54       		.byte	0x54
 15618 0bfb 00000000 		.4byte	0
 15619 0bff 00000000 		.4byte	0
 15620              	.LLST202:
 15621 0c03 00000000 		.4byte	.LVL528
 15622 0c07 0B000000 		.4byte	.LVL530-1
 15623 0c0b 0100     		.2byte	0x1
 15624 0c0d 51       		.byte	0x51
 15625 0c0e 0B000000 		.4byte	.LVL530-1
 15626 0c12 1C000000 		.4byte	.LVL533
 15627 0c16 0100     		.2byte	0x1
 15628 0c18 55       		.byte	0x55
 15629 0c19 1C000000 		.4byte	.LVL533
 15630 0c1d 1F000000 		.4byte	.LVL534-1
ARM GAS  /tmp/ccSNToGX.s 			page 276


 15631 0c21 0100     		.2byte	0x1
 15632 0c23 51       		.byte	0x51
 15633 0c24 1F000000 		.4byte	.LVL534-1
 15634 0c28 20000000 		.4byte	.LVL534
 15635 0c2c 0400     		.2byte	0x4
 15636 0c2e F3       		.byte	0xf3
 15637 0c2f 01       		.uleb128 0x1
 15638 0c30 51       		.byte	0x51
 15639 0c31 9F       		.byte	0x9f
 15640 0c32 20000000 		.4byte	.LVL534
 15641 0c36 24000000 		.4byte	.LFE322
 15642 0c3a 0100     		.2byte	0x1
 15643 0c3c 55       		.byte	0x55
 15644 0c3d 00000000 		.4byte	0
 15645 0c41 00000000 		.4byte	0
 15646              	.LLST203:
 15647 0c45 00000000 		.4byte	.LVL528
 15648 0c49 0B000000 		.4byte	.LVL530-1
 15649 0c4d 0100     		.2byte	0x1
 15650 0c4f 52       		.byte	0x52
 15651 0c50 0B000000 		.4byte	.LVL530-1
 15652 0c54 24000000 		.4byte	.LFE322
 15653 0c58 0400     		.2byte	0x4
 15654 0c5a F3       		.byte	0xf3
 15655 0c5b 01       		.uleb128 0x1
 15656 0c5c 52       		.byte	0x52
 15657 0c5d 9F       		.byte	0x9f
 15658 0c5e 00000000 		.4byte	0
 15659 0c62 00000000 		.4byte	0
 15660              	.LLST204:
 15661 0c66 0C000000 		.4byte	.LVL530
 15662 0c6a 0F000000 		.4byte	.LVL531-1
 15663 0c6e 0100     		.2byte	0x1
 15664 0c70 50       		.byte	0x50
 15665 0c71 00000000 		.4byte	0
 15666 0c75 00000000 		.4byte	0
 15667              	.LLST205:
 15668 0c79 10000000 		.4byte	.LVL531
 15669 0c7d 18000000 		.4byte	.LVL532
 15670 0c81 0100     		.2byte	0x1
 15671 0c83 50       		.byte	0x50
 15672 0c84 20000000 		.4byte	.LVL534
 15673 0c88 22000000 		.4byte	.LVL535
 15674 0c8c 0100     		.2byte	0x1
 15675 0c8e 50       		.byte	0x50
 15676 0c8f 00000000 		.4byte	0
 15677 0c93 00000000 		.4byte	0
 15678              	.LLST157:
 15679 0c97 00000000 		.4byte	.LVL399
 15680 0c9b 0D000000 		.4byte	.LVL401-1
 15681 0c9f 0100     		.2byte	0x1
 15682 0ca1 50       		.byte	0x50
 15683 0ca2 0D000000 		.4byte	.LVL401-1
 15684 0ca6 94000000 		.4byte	.LFE321
 15685 0caa 0100     		.2byte	0x1
 15686 0cac 58       		.byte	0x58
 15687 0cad 00000000 		.4byte	0
ARM GAS  /tmp/ccSNToGX.s 			page 277


 15688 0cb1 00000000 		.4byte	0
 15689              	.LLST158:
 15690 0cb5 00000000 		.4byte	.LVL399
 15691 0cb9 0D000000 		.4byte	.LVL401-1
 15692 0cbd 0100     		.2byte	0x1
 15693 0cbf 51       		.byte	0x51
 15694 0cc0 0D000000 		.4byte	.LVL401-1
 15695 0cc4 2C000000 		.4byte	.LVL405
 15696 0cc8 0100     		.2byte	0x1
 15697 0cca 54       		.byte	0x54
 15698 0ccb 2C000000 		.4byte	.LVL405
 15699 0ccf 50000000 		.4byte	.LVL410
 15700 0cd3 0400     		.2byte	0x4
 15701 0cd5 F3       		.byte	0xf3
 15702 0cd6 01       		.uleb128 0x1
 15703 0cd7 51       		.byte	0x51
 15704 0cd8 9F       		.byte	0x9f
 15705 0cd9 50000000 		.4byte	.LVL410
 15706 0cdd 64000000 		.4byte	.LVL414
 15707 0ce1 0100     		.2byte	0x1
 15708 0ce3 54       		.byte	0x54
 15709 0ce4 64000000 		.4byte	.LVL414
 15710 0ce8 6C000000 		.4byte	.LVL415
 15711 0cec 0400     		.2byte	0x4
 15712 0cee F3       		.byte	0xf3
 15713 0cef 01       		.uleb128 0x1
 15714 0cf0 51       		.byte	0x51
 15715 0cf1 9F       		.byte	0x9f
 15716 0cf2 6C000000 		.4byte	.LVL415
 15717 0cf6 78000000 		.4byte	.LVL417
 15718 0cfa 0100     		.2byte	0x1
 15719 0cfc 54       		.byte	0x54
 15720 0cfd 78000000 		.4byte	.LVL417
 15721 0d01 94000000 		.4byte	.LFE321
 15722 0d05 0400     		.2byte	0x4
 15723 0d07 F3       		.byte	0xf3
 15724 0d08 01       		.uleb128 0x1
 15725 0d09 51       		.byte	0x51
 15726 0d0a 9F       		.byte	0x9f
 15727 0d0b 00000000 		.4byte	0
 15728 0d0f 00000000 		.4byte	0
 15729              	.LLST159:
 15730 0d13 00000000 		.4byte	.LVL399
 15731 0d17 0D000000 		.4byte	.LVL401-1
 15732 0d1b 0100     		.2byte	0x1
 15733 0d1d 52       		.byte	0x52
 15734 0d1e 0D000000 		.4byte	.LVL401-1
 15735 0d22 2C000000 		.4byte	.LVL405
 15736 0d26 0100     		.2byte	0x1
 15737 0d28 56       		.byte	0x56
 15738 0d29 2C000000 		.4byte	.LVL405
 15739 0d2d 34000000 		.4byte	.LVL406
 15740 0d31 0C00     		.2byte	0xc
 15741 0d33 74       		.byte	0x74
 15742 0d34 00       		.sleb128 0
 15743 0d35 20       		.byte	0x20
 15744 0d36 F3       		.byte	0xf3
ARM GAS  /tmp/ccSNToGX.s 			page 278


 15745 0d37 01       		.uleb128 0x1
 15746 0d38 52       		.byte	0x52
 15747 0d39 22       		.byte	0x22
 15748 0d3a F3       		.byte	0xf3
 15749 0d3b 01       		.uleb128 0x1
 15750 0d3c 51       		.byte	0x51
 15751 0d3d 22       		.byte	0x22
 15752 0d3e 9F       		.byte	0x9f
 15753 0d3f 34000000 		.4byte	.LVL406
 15754 0d43 40000000 		.4byte	.LVL408
 15755 0d47 0B00     		.2byte	0xb
 15756 0d49 F3       		.byte	0xf3
 15757 0d4a 01       		.uleb128 0x1
 15758 0d4b 51       		.byte	0x51
 15759 0d4c 74       		.byte	0x74
 15760 0d4d 00       		.sleb128 0
 15761 0d4e 1C       		.byte	0x1c
 15762 0d4f F3       		.byte	0xf3
 15763 0d50 01       		.uleb128 0x1
 15764 0d51 52       		.byte	0x52
 15765 0d52 22       		.byte	0x22
 15766 0d53 9F       		.byte	0x9f
 15767 0d54 48000000 		.4byte	.LVL409
 15768 0d58 50000000 		.4byte	.LVL410
 15769 0d5c 0B00     		.2byte	0xb
 15770 0d5e F3       		.byte	0xf3
 15771 0d5f 01       		.uleb128 0x1
 15772 0d60 51       		.byte	0x51
 15773 0d61 74       		.byte	0x74
 15774 0d62 00       		.sleb128 0
 15775 0d63 1C       		.byte	0x1c
 15776 0d64 F3       		.byte	0xf3
 15777 0d65 01       		.uleb128 0x1
 15778 0d66 52       		.byte	0x52
 15779 0d67 22       		.byte	0x22
 15780 0d68 9F       		.byte	0x9f
 15781 0d69 50000000 		.4byte	.LVL410
 15782 0d6d 94000000 		.4byte	.LFE321
 15783 0d71 0100     		.2byte	0x1
 15784 0d73 56       		.byte	0x56
 15785 0d74 00000000 		.4byte	0
 15786 0d78 00000000 		.4byte	0
 15787              	.LLST160:
 15788 0d7c 0A000000 		.4byte	.LVL400
 15789 0d80 0D000000 		.4byte	.LVL401-1
 15790 0d84 0100     		.2byte	0x1
 15791 0d86 52       		.byte	0x52
 15792 0d87 0D000000 		.4byte	.LVL401-1
 15793 0d8b 2C000000 		.4byte	.LVL405
 15794 0d8f 0100     		.2byte	0x1
 15795 0d91 56       		.byte	0x56
 15796 0d92 2C000000 		.4byte	.LVL405
 15797 0d96 50000000 		.4byte	.LVL410
 15798 0d9a 0400     		.2byte	0x4
 15799 0d9c F3       		.byte	0xf3
 15800 0d9d 01       		.uleb128 0x1
 15801 0d9e 52       		.byte	0x52
ARM GAS  /tmp/ccSNToGX.s 			page 279


 15802 0d9f 9F       		.byte	0x9f
 15803 0da0 50000000 		.4byte	.LVL410
 15804 0da4 94000000 		.4byte	.LFE321
 15805 0da8 0100     		.2byte	0x1
 15806 0daa 56       		.byte	0x56
 15807 0dab 00000000 		.4byte	0
 15808 0daf 00000000 		.4byte	0
 15809              	.LLST161:
 15810 0db3 76000000 		.4byte	.LVL416
 15811 0db7 7F000000 		.4byte	.LVL418-1
 15812 0dbb 0100     		.2byte	0x1
 15813 0dbd 50       		.byte	0x50
 15814 0dbe 00000000 		.4byte	0
 15815 0dc2 00000000 		.4byte	0
 15816              	.LLST162:
 15817 0dc6 5C000000 		.4byte	.LVL412
 15818 0dca 61000000 		.4byte	.LVL413-1
 15819 0dce 0100     		.2byte	0x1
 15820 0dd0 50       		.byte	0x50
 15821 0dd1 6C000000 		.4byte	.LVL415
 15822 0dd5 75000000 		.4byte	.LVL416-1
 15823 0dd9 0100     		.2byte	0x1
 15824 0ddb 50       		.byte	0x50
 15825 0ddc 00000000 		.4byte	0
 15826 0de0 00000000 		.4byte	0
 15827              	.LLST163:
 15828 0de4 20000000 		.4byte	.LVL403
 15829 0de8 2C000000 		.4byte	.LVL405
 15830 0dec 0100     		.2byte	0x1
 15831 0dee 50       		.byte	0x50
 15832 0def 2C000000 		.4byte	.LVL405
 15833 0df3 50000000 		.4byte	.LVL410
 15834 0df7 0100     		.2byte	0x1
 15835 0df9 57       		.byte	0x57
 15836 0dfa 50000000 		.4byte	.LVL410
 15837 0dfe 58000000 		.4byte	.LVL411
 15838 0e02 0100     		.2byte	0x1
 15839 0e04 50       		.byte	0x50
 15840 0e05 58000000 		.4byte	.LVL411
 15841 0e09 94000000 		.4byte	.LFE321
 15842 0e0d 0100     		.2byte	0x1
 15843 0e0f 57       		.byte	0x57
 15844 0e10 00000000 		.4byte	0
 15845 0e14 00000000 		.4byte	0
 15846              	.LLST164:
 15847 0e18 28000000 		.4byte	.LVL404
 15848 0e1c 34000000 		.4byte	.LVL406
 15849 0e20 0100     		.2byte	0x1
 15850 0e22 54       		.byte	0x54
 15851 0e23 34000000 		.4byte	.LVL406
 15852 0e27 40000000 		.4byte	.LVL408
 15853 0e2b 0300     		.2byte	0x3
 15854 0e2d 74       		.byte	0x74
 15855 0e2e 7F       		.sleb128 -1
 15856 0e2f 9F       		.byte	0x9f
 15857 0e30 48000000 		.4byte	.LVL409
 15858 0e34 50000000 		.4byte	.LVL410
ARM GAS  /tmp/ccSNToGX.s 			page 280


 15859 0e38 0300     		.2byte	0x3
 15860 0e3a 74       		.byte	0x74
 15861 0e3b 7F       		.sleb128 -1
 15862 0e3c 9F       		.byte	0x9f
 15863 0e3d 00000000 		.4byte	0
 15864 0e41 00000000 		.4byte	0
 15865              	.LLST165:
 15866 0e45 34000000 		.4byte	.LVL406
 15867 0e49 40000000 		.4byte	.LVL408
 15868 0e4d 0100     		.2byte	0x1
 15869 0e4f 55       		.byte	0x55
 15870 0e50 48000000 		.4byte	.LVL409
 15871 0e54 50000000 		.4byte	.LVL410
 15872 0e58 0100     		.2byte	0x1
 15873 0e5a 55       		.byte	0x55
 15874 0e5b 00000000 		.4byte	0
 15875 0e5f 00000000 		.4byte	0
 15876              	.LLST166:
 15877 0e63 3C000000 		.4byte	.LVL407
 15878 0e67 40000000 		.4byte	.LVL408
 15879 0e6b 0100     		.2byte	0x1
 15880 0e6d 50       		.byte	0x50
 15881 0e6e 48000000 		.4byte	.LVL409
 15882 0e72 50000000 		.4byte	.LVL410
 15883 0e76 0100     		.2byte	0x1
 15884 0e78 50       		.byte	0x50
 15885 0e79 00000000 		.4byte	0
 15886 0e7d 00000000 		.4byte	0
 15887              	.LLST34:
 15888 0e81 00000000 		.4byte	.LVL102
 15889 0e85 0D000000 		.4byte	.LVL103-1
 15890 0e89 0100     		.2byte	0x1
 15891 0e8b 50       		.byte	0x50
 15892 0e8c 0D000000 		.4byte	.LVL103-1
 15893 0e90 1E000000 		.4byte	.LVL105
 15894 0e94 0100     		.2byte	0x1
 15895 0e96 54       		.byte	0x54
 15896 0e97 1E000000 		.4byte	.LVL105
 15897 0e9b 5C000000 		.4byte	.LFE320
 15898 0e9f 0400     		.2byte	0x4
 15899 0ea1 F3       		.byte	0xf3
 15900 0ea2 01       		.uleb128 0x1
 15901 0ea3 50       		.byte	0x50
 15902 0ea4 9F       		.byte	0x9f
 15903 0ea5 00000000 		.4byte	0
 15904 0ea9 00000000 		.4byte	0
 15905              	.LLST35:
 15906 0ead 00000000 		.4byte	.LVL102
 15907 0eb1 0D000000 		.4byte	.LVL103-1
 15908 0eb5 0100     		.2byte	0x1
 15909 0eb7 51       		.byte	0x51
 15910 0eb8 0D000000 		.4byte	.LVL103-1
 15911 0ebc 5C000000 		.4byte	.LFE320
 15912 0ec0 0100     		.2byte	0x1
 15913 0ec2 55       		.byte	0x55
 15914 0ec3 00000000 		.4byte	0
 15915 0ec7 00000000 		.4byte	0
ARM GAS  /tmp/ccSNToGX.s 			page 281


 15916              	.LLST36:
 15917 0ecb 1C000000 		.4byte	.LVL104
 15918 0ecf 23000000 		.4byte	.LVL106-1
 15919 0ed3 0100     		.2byte	0x1
 15920 0ed5 50       		.byte	0x50
 15921 0ed6 3A000000 		.4byte	.LVL108
 15922 0eda 40000000 		.4byte	.LVL109
 15923 0ede 0100     		.2byte	0x1
 15924 0ee0 50       		.byte	0x50
 15925 0ee1 44000000 		.4byte	.LVL110
 15926 0ee5 4C000000 		.4byte	.LVL111
 15927 0ee9 0100     		.2byte	0x1
 15928 0eeb 50       		.byte	0x50
 15929 0eec 50000000 		.4byte	.LVL112
 15930 0ef0 5C000000 		.4byte	.LFE320
 15931 0ef4 0100     		.2byte	0x1
 15932 0ef6 50       		.byte	0x50
 15933 0ef7 00000000 		.4byte	0
 15934 0efb 00000000 		.4byte	0
 15935              	.LLST154:
 15936 0eff 16000000 		.4byte	.LVL396
 15937 0f03 1C000000 		.4byte	.LVL397
 15938 0f07 0100     		.2byte	0x1
 15939 0f09 50       		.byte	0x50
 15940 0f0a 00000000 		.4byte	0
 15941 0f0e 00000000 		.4byte	0
 15942              	.LLST155:
 15943 0f12 00000000 		.4byte	.LVL391
 15944 0f16 04000000 		.4byte	.LVL392
 15945 0f1a 0200     		.2byte	0x2
 15946 0f1c 30       		.byte	0x30
 15947 0f1d 9F       		.byte	0x9f
 15948 0f1e 06000000 		.4byte	.LVL393
 15949 0f22 22000000 		.4byte	.LFE318
 15950 0f26 0100     		.2byte	0x1
 15951 0f28 54       		.byte	0x54
 15952 0f29 00000000 		.4byte	0
 15953 0f2d 00000000 		.4byte	0
 15954              	.LLST156:
 15955 0f31 00000000 		.4byte	.LVL391
 15956 0f35 04000000 		.4byte	.LVL392
 15957 0f39 0200     		.2byte	0x2
 15958 0f3b 30       		.byte	0x30
 15959 0f3c 9F       		.byte	0x9f
 15960 0f3d 0C000000 		.4byte	.LVL394
 15961 0f41 10000000 		.4byte	.LVL395
 15962 0f45 0100     		.2byte	0x1
 15963 0f47 54       		.byte	0x54
 15964 0f48 00000000 		.4byte	0
 15965 0f4c 00000000 		.4byte	0
 15966              	.LLST134:
 15967 0f50 00000000 		.4byte	.LVL350
 15968 0f54 11000000 		.4byte	.LVL352-1
 15969 0f58 0100     		.2byte	0x1
 15970 0f5a 50       		.byte	0x50
 15971 0f5b 11000000 		.4byte	.LVL352-1
 15972 0f5f 9C000000 		.4byte	.LFE317
ARM GAS  /tmp/ccSNToGX.s 			page 282


 15973 0f63 0100     		.2byte	0x1
 15974 0f65 58       		.byte	0x58
 15975 0f66 00000000 		.4byte	0
 15976 0f6a 00000000 		.4byte	0
 15977              	.LLST135:
 15978 0f6e 00000000 		.4byte	.LVL350
 15979 0f72 11000000 		.4byte	.LVL352-1
 15980 0f76 0100     		.2byte	0x1
 15981 0f78 51       		.byte	0x51
 15982 0f79 11000000 		.4byte	.LVL352-1
 15983 0f7d 30000000 		.4byte	.LVL356
 15984 0f81 0100     		.2byte	0x1
 15985 0f83 54       		.byte	0x54
 15986 0f84 30000000 		.4byte	.LVL356
 15987 0f88 52000000 		.4byte	.LVL361
 15988 0f8c 0400     		.2byte	0x4
 15989 0f8e F3       		.byte	0xf3
 15990 0f8f 01       		.uleb128 0x1
 15991 0f90 51       		.byte	0x51
 15992 0f91 9F       		.byte	0x9f
 15993 0f92 52000000 		.4byte	.LVL361
 15994 0f96 6C000000 		.4byte	.LVL365
 15995 0f9a 0100     		.2byte	0x1
 15996 0f9c 54       		.byte	0x54
 15997 0f9d 6C000000 		.4byte	.LVL365
 15998 0fa1 74000000 		.4byte	.LVL366
 15999 0fa5 0400     		.2byte	0x4
 16000 0fa7 F3       		.byte	0xf3
 16001 0fa8 01       		.uleb128 0x1
 16002 0fa9 51       		.byte	0x51
 16003 0faa 9F       		.byte	0x9f
 16004 0fab 74000000 		.4byte	.LVL366
 16005 0faf 80000000 		.4byte	.LVL368
 16006 0fb3 0100     		.2byte	0x1
 16007 0fb5 54       		.byte	0x54
 16008 0fb6 80000000 		.4byte	.LVL368
 16009 0fba 9C000000 		.4byte	.LFE317
 16010 0fbe 0400     		.2byte	0x4
 16011 0fc0 F3       		.byte	0xf3
 16012 0fc1 01       		.uleb128 0x1
 16013 0fc2 51       		.byte	0x51
 16014 0fc3 9F       		.byte	0x9f
 16015 0fc4 00000000 		.4byte	0
 16016 0fc8 00000000 		.4byte	0
 16017              	.LLST136:
 16018 0fcc 00000000 		.4byte	.LVL350
 16019 0fd0 11000000 		.4byte	.LVL352-1
 16020 0fd4 0100     		.2byte	0x1
 16021 0fd6 52       		.byte	0x52
 16022 0fd7 11000000 		.4byte	.LVL352-1
 16023 0fdb 30000000 		.4byte	.LVL356
 16024 0fdf 0100     		.2byte	0x1
 16025 0fe1 56       		.byte	0x56
 16026 0fe2 30000000 		.4byte	.LVL356
 16027 0fe6 3E000000 		.4byte	.LVL358
 16028 0fea 0C00     		.2byte	0xc
 16029 0fec 74       		.byte	0x74
ARM GAS  /tmp/ccSNToGX.s 			page 283


 16030 0fed 00       		.sleb128 0
 16031 0fee 20       		.byte	0x20
 16032 0fef F3       		.byte	0xf3
 16033 0ff0 01       		.uleb128 0x1
 16034 0ff1 52       		.byte	0x52
 16035 0ff2 22       		.byte	0x22
 16036 0ff3 F3       		.byte	0xf3
 16037 0ff4 01       		.uleb128 0x1
 16038 0ff5 51       		.byte	0x51
 16039 0ff6 22       		.byte	0x22
 16040 0ff7 9F       		.byte	0x9f
 16041 0ff8 46000000 		.4byte	.LVL359
 16042 0ffc 4C000000 		.4byte	.LVL360
 16043 1000 0C00     		.2byte	0xc
 16044 1002 74       		.byte	0x74
 16045 1003 00       		.sleb128 0
 16046 1004 20       		.byte	0x20
 16047 1005 F3       		.byte	0xf3
 16048 1006 01       		.uleb128 0x1
 16049 1007 52       		.byte	0x52
 16050 1008 22       		.byte	0x22
 16051 1009 F3       		.byte	0xf3
 16052 100a 01       		.uleb128 0x1
 16053 100b 51       		.byte	0x51
 16054 100c 22       		.byte	0x22
 16055 100d 9F       		.byte	0x9f
 16056 100e 4C000000 		.4byte	.LVL360
 16057 1012 52000000 		.4byte	.LVL361
 16058 1016 0B00     		.2byte	0xb
 16059 1018 F3       		.byte	0xf3
 16060 1019 01       		.uleb128 0x1
 16061 101a 51       		.byte	0x51
 16062 101b 74       		.byte	0x74
 16063 101c 00       		.sleb128 0
 16064 101d 1C       		.byte	0x1c
 16065 101e F3       		.byte	0xf3
 16066 101f 01       		.uleb128 0x1
 16067 1020 52       		.byte	0x52
 16068 1021 22       		.byte	0x22
 16069 1022 9F       		.byte	0x9f
 16070 1023 52000000 		.4byte	.LVL361
 16071 1027 9C000000 		.4byte	.LFE317
 16072 102b 0100     		.2byte	0x1
 16073 102d 56       		.byte	0x56
 16074 102e 00000000 		.4byte	0
 16075 1032 00000000 		.4byte	0
 16076              	.LLST137:
 16077 1036 0E000000 		.4byte	.LVL351
 16078 103a 11000000 		.4byte	.LVL352-1
 16079 103e 0100     		.2byte	0x1
 16080 1040 52       		.byte	0x52
 16081 1041 11000000 		.4byte	.LVL352-1
 16082 1045 30000000 		.4byte	.LVL356
 16083 1049 0100     		.2byte	0x1
 16084 104b 56       		.byte	0x56
 16085 104c 30000000 		.4byte	.LVL356
 16086 1050 52000000 		.4byte	.LVL361
ARM GAS  /tmp/ccSNToGX.s 			page 284


 16087 1054 0400     		.2byte	0x4
 16088 1056 F3       		.byte	0xf3
 16089 1057 01       		.uleb128 0x1
 16090 1058 52       		.byte	0x52
 16091 1059 9F       		.byte	0x9f
 16092 105a 52000000 		.4byte	.LVL361
 16093 105e 9C000000 		.4byte	.LFE317
 16094 1062 0100     		.2byte	0x1
 16095 1064 56       		.byte	0x56
 16096 1065 00000000 		.4byte	0
 16097 1069 00000000 		.4byte	0
 16098              	.LLST138:
 16099 106d 7E000000 		.4byte	.LVL367
 16100 1071 87000000 		.4byte	.LVL369-1
 16101 1075 0600     		.2byte	0x6
 16102 1077 70       		.byte	0x70
 16103 1078 00       		.sleb128 0
 16104 1079 08       		.byte	0x8
 16105 107a FF       		.byte	0xff
 16106 107b 1A       		.byte	0x1a
 16107 107c 9F       		.byte	0x9f
 16108 107d 00000000 		.4byte	0
 16109 1081 00000000 		.4byte	0
 16110              	.LLST139:
 16111 1085 3A000000 		.4byte	.LVL357
 16112 1089 3E000000 		.4byte	.LVL358
 16113 108d 0100     		.2byte	0x1
 16114 108f 50       		.byte	0x50
 16115 1090 46000000 		.4byte	.LVL359
 16116 1094 52000000 		.4byte	.LVL361
 16117 1098 0100     		.2byte	0x1
 16118 109a 50       		.byte	0x50
 16119 109b 00000000 		.4byte	0
 16120 109f 00000000 		.4byte	0
 16121              	.LLST140:
 16122 10a3 64000000 		.4byte	.LVL363
 16123 10a7 69000000 		.4byte	.LVL364-1
 16124 10ab 0100     		.2byte	0x1
 16125 10ad 50       		.byte	0x50
 16126 10ae 74000000 		.4byte	.LVL366
 16127 10b2 7D000000 		.4byte	.LVL367-1
 16128 10b6 0100     		.2byte	0x1
 16129 10b8 50       		.byte	0x50
 16130 10b9 00000000 		.4byte	0
 16131 10bd 00000000 		.4byte	0
 16132              	.LLST141:
 16133 10c1 22000000 		.4byte	.LVL354
 16134 10c5 30000000 		.4byte	.LVL356
 16135 10c9 0100     		.2byte	0x1
 16136 10cb 50       		.byte	0x50
 16137 10cc 30000000 		.4byte	.LVL356
 16138 10d0 52000000 		.4byte	.LVL361
 16139 10d4 0100     		.2byte	0x1
 16140 10d6 55       		.byte	0x55
 16141 10d7 52000000 		.4byte	.LVL361
 16142 10db 60000000 		.4byte	.LVL362
 16143 10df 0100     		.2byte	0x1
ARM GAS  /tmp/ccSNToGX.s 			page 285


 16144 10e1 50       		.byte	0x50
 16145 10e2 60000000 		.4byte	.LVL362
 16146 10e6 9C000000 		.4byte	.LFE317
 16147 10ea 0100     		.2byte	0x1
 16148 10ec 55       		.byte	0x55
 16149 10ed 00000000 		.4byte	0
 16150 10f1 00000000 		.4byte	0
 16151              	.LLST142:
 16152 10f5 24000000 		.4byte	.LVL355
 16153 10f9 3E000000 		.4byte	.LVL358
 16154 10fd 0100     		.2byte	0x1
 16155 10ff 54       		.byte	0x54
 16156 1100 46000000 		.4byte	.LVL359
 16157 1104 4C000000 		.4byte	.LVL360
 16158 1108 0100     		.2byte	0x1
 16159 110a 54       		.byte	0x54
 16160 110b 4C000000 		.4byte	.LVL360
 16161 110f 52000000 		.4byte	.LVL361
 16162 1113 0300     		.2byte	0x3
 16163 1115 74       		.byte	0x74
 16164 1116 7F       		.sleb128 -1
 16165 1117 9F       		.byte	0x9f
 16166 1118 00000000 		.4byte	0
 16167 111c 00000000 		.4byte	0
 16168              	.LLST188:
 16169 1120 00000000 		.4byte	.LVL471
 16170 1124 0B000000 		.4byte	.LVL472-1
 16171 1128 0100     		.2byte	0x1
 16172 112a 50       		.byte	0x50
 16173 112b 0B000000 		.4byte	.LVL472-1
 16174 112f F0000000 		.4byte	.LFE316
 16175 1133 0100     		.2byte	0x1
 16176 1135 5A       		.byte	0x5a
 16177 1136 00000000 		.4byte	0
 16178 113a 00000000 		.4byte	0
 16179              	.LLST189:
 16180 113e 00000000 		.4byte	.LVL471
 16181 1142 0B000000 		.4byte	.LVL472-1
 16182 1146 0100     		.2byte	0x1
 16183 1148 51       		.byte	0x51
 16184 1149 0B000000 		.4byte	.LVL472-1
 16185 114d F0000000 		.4byte	.LFE316
 16186 1151 0100     		.2byte	0x1
 16187 1153 58       		.byte	0x58
 16188 1154 00000000 		.4byte	0
 16189 1158 00000000 		.4byte	0
 16190              	.LLST190:
 16191 115c 3A000000 		.4byte	.LVL477
 16192 1160 3D000000 		.4byte	.LVL478-1
 16193 1164 0100     		.2byte	0x1
 16194 1166 50       		.byte	0x50
 16195 1167 3D000000 		.4byte	.LVL478-1
 16196 116b 4A000000 		.4byte	.LVL482
 16197 116f 0100     		.2byte	0x1
 16198 1171 54       		.byte	0x54
 16199 1172 4E000000 		.4byte	.LVL483
 16200 1176 51000000 		.4byte	.LVL484-1
ARM GAS  /tmp/ccSNToGX.s 			page 286


 16201 117a 0100     		.2byte	0x1
 16202 117c 50       		.byte	0x50
 16203 117d 51000000 		.4byte	.LVL484-1
 16204 1181 68000000 		.4byte	.LVL489
 16205 1185 0100     		.2byte	0x1
 16206 1187 54       		.byte	0x54
 16207 1188 6E000000 		.4byte	.LVL490
 16208 118c F0000000 		.4byte	.LFE316
 16209 1190 0100     		.2byte	0x1
 16210 1192 54       		.byte	0x54
 16211 1193 00000000 		.4byte	0
 16212 1197 00000000 		.4byte	0
 16213              	.LLST191:
 16214 119b 20000000 		.4byte	.LVL473
 16215 119f 44000000 		.4byte	.LVL480
 16216 11a3 0100     		.2byte	0x1
 16217 11a5 56       		.byte	0x56
 16218 11a6 4E000000 		.4byte	.LVL483
 16219 11aa 64000000 		.4byte	.LVL488
 16220 11ae 0100     		.2byte	0x1
 16221 11b0 56       		.byte	0x56
 16222 11b1 6E000000 		.4byte	.LVL490
 16223 11b5 78000000 		.4byte	.LVL492
 16224 11b9 0100     		.2byte	0x1
 16225 11bb 56       		.byte	0x56
 16226 11bc 00000000 		.4byte	0
 16227 11c0 00000000 		.4byte	0
 16228              	.LLST192:
 16229 11c4 3E000000 		.4byte	.LVL478
 16230 11c8 42000000 		.4byte	.LVL479
 16231 11cc 0100     		.2byte	0x1
 16232 11ce 50       		.byte	0x50
 16233 11cf 42000000 		.4byte	.LVL479
 16234 11d3 4A000000 		.4byte	.LVL482
 16235 11d7 0100     		.2byte	0x1
 16236 11d9 55       		.byte	0x55
 16237 11da 4E000000 		.4byte	.LVL483
 16238 11de F0000000 		.4byte	.LFE316
 16239 11e2 0100     		.2byte	0x1
 16240 11e4 55       		.byte	0x55
 16241 11e5 00000000 		.4byte	0
 16242 11e9 00000000 		.4byte	0
 16243              	.LLST193:
 16244 11ed 52000000 		.4byte	.LVL484
 16245 11f1 58000000 		.4byte	.LVL485
 16246 11f5 0100     		.2byte	0x1
 16247 11f7 50       		.byte	0x50
 16248 11f8 58000000 		.4byte	.LVL485
 16249 11fc 64000000 		.4byte	.LVL488
 16250 1200 0100     		.2byte	0x1
 16251 1202 59       		.byte	0x59
 16252 1203 6E000000 		.4byte	.LVL490
 16253 1207 75000000 		.4byte	.LVL491-1
 16254 120b 0100     		.2byte	0x1
 16255 120d 50       		.byte	0x50
 16256 120e 75000000 		.4byte	.LVL491-1
 16257 1212 F0000000 		.4byte	.LFE316
ARM GAS  /tmp/ccSNToGX.s 			page 287


 16258 1216 0100     		.2byte	0x1
 16259 1218 59       		.byte	0x59
 16260 1219 00000000 		.4byte	0
 16261 121d 00000000 		.4byte	0
 16262              	.LLST194:
 16263 1221 76000000 		.4byte	.LVL491
 16264 1225 7D000000 		.4byte	.LVL493-1
 16265 1229 0600     		.2byte	0x6
 16266 122b 70       		.byte	0x70
 16267 122c 00       		.sleb128 0
 16268 122d 08       		.byte	0x8
 16269 122e FF       		.byte	0xff
 16270 122f 1A       		.byte	0x1a
 16271 1230 9F       		.byte	0x9f
 16272 1231 8E000000 		.4byte	.LVL495
 16273 1235 9A000000 		.4byte	.LVL496
 16274 1239 0600     		.2byte	0x6
 16275 123b 70       		.byte	0x70
 16276 123c 00       		.sleb128 0
 16277 123d 08       		.byte	0x8
 16278 123e FF       		.byte	0xff
 16279 123f 1A       		.byte	0x1a
 16280 1240 9F       		.byte	0x9f
 16281 1241 9E000000 		.4byte	.LVL497
 16282 1245 A5000000 		.4byte	.LVL498-1
 16283 1249 0600     		.2byte	0x6
 16284 124b 70       		.byte	0x70
 16285 124c 00       		.sleb128 0
 16286 124d 08       		.byte	0x8
 16287 124e FF       		.byte	0xff
 16288 124f 1A       		.byte	0x1a
 16289 1250 9F       		.byte	0x9f
 16290 1251 00000000 		.4byte	0
 16291 1255 00000000 		.4byte	0
 16292              	.LLST167:
 16293 1259 00000000 		.4byte	.LVL419
 16294 125d 0A000000 		.4byte	.LVL421
 16295 1261 0100     		.2byte	0x1
 16296 1263 50       		.byte	0x50
 16297 1264 0A000000 		.4byte	.LVL421
 16298 1268 1C000000 		.4byte	.LFE315
 16299 126c 0100     		.2byte	0x1
 16300 126e 54       		.byte	0x54
 16301 126f 00000000 		.4byte	0
 16302 1273 00000000 		.4byte	0
 16303              	.LLST168:
 16304 1277 00000000 		.4byte	.LVL419
 16305 127b 0D000000 		.4byte	.LVL422-1
 16306 127f 0100     		.2byte	0x1
 16307 1281 51       		.byte	0x51
 16308 1282 0D000000 		.4byte	.LVL422-1
 16309 1286 1C000000 		.4byte	.LFE315
 16310 128a 0400     		.2byte	0x4
 16311 128c F3       		.byte	0xf3
 16312 128d 01       		.uleb128 0x1
 16313 128e 51       		.byte	0x51
 16314 128f 9F       		.byte	0x9f
ARM GAS  /tmp/ccSNToGX.s 			page 288


 16315 1290 00000000 		.4byte	0
 16316 1294 00000000 		.4byte	0
 16317              	.LLST169:
 16318 1298 00000000 		.4byte	.LVL419
 16319 129c 0D000000 		.4byte	.LVL422-1
 16320 12a0 0100     		.2byte	0x1
 16321 12a2 52       		.byte	0x52
 16322 12a3 0D000000 		.4byte	.LVL422-1
 16323 12a7 1C000000 		.4byte	.LFE315
 16324 12ab 0400     		.2byte	0x4
 16325 12ad F3       		.byte	0xf3
 16326 12ae 01       		.uleb128 0x1
 16327 12af 52       		.byte	0x52
 16328 12b0 9F       		.byte	0x9f
 16329 12b1 00000000 		.4byte	0
 16330 12b5 00000000 		.4byte	0
 16331              	.LLST170:
 16332 12b9 00000000 		.4byte	.LVL419
 16333 12bd 0D000000 		.4byte	.LVL422-1
 16334 12c1 0100     		.2byte	0x1
 16335 12c3 53       		.byte	0x53
 16336 12c4 0D000000 		.4byte	.LVL422-1
 16337 12c8 1C000000 		.4byte	.LFE315
 16338 12cc 0400     		.2byte	0x4
 16339 12ce F3       		.byte	0xf3
 16340 12cf 01       		.uleb128 0x1
 16341 12d0 53       		.byte	0x53
 16342 12d1 9F       		.byte	0x9f
 16343 12d2 00000000 		.4byte	0
 16344 12d6 00000000 		.4byte	0
 16345              	.LLST171:
 16346 12da 0E000000 		.4byte	.LVL422
 16347 12de 15000000 		.4byte	.LVL423-1
 16348 12e2 0100     		.2byte	0x1
 16349 12e4 50       		.byte	0x50
 16350 12e5 00000000 		.4byte	0
 16351 12e9 00000000 		.4byte	0
 16352              	.LLST172:
 16353 12ed 16000000 		.4byte	.LVL423
 16354 12f1 1A000000 		.4byte	.LVL424
 16355 12f5 0100     		.2byte	0x1
 16356 12f7 50       		.byte	0x50
 16357 12f8 00000000 		.4byte	0
 16358 12fc 00000000 		.4byte	0
 16359              	.LLST129:
 16360 1300 00000000 		.4byte	.LVL337
 16361 1304 09000000 		.4byte	.LVL338-1
 16362 1308 0100     		.2byte	0x1
 16363 130a 50       		.byte	0x50
 16364 130b 09000000 		.4byte	.LVL338-1
 16365 130f 12000000 		.4byte	.LVL340
 16366 1313 0100     		.2byte	0x1
 16367 1315 54       		.byte	0x54
 16368 1316 12000000 		.4byte	.LVL340
 16369 131a 24000000 		.4byte	.LVL344
 16370 131e 0400     		.2byte	0x4
 16371 1320 F3       		.byte	0xf3
ARM GAS  /tmp/ccSNToGX.s 			page 289


 16372 1321 01       		.uleb128 0x1
 16373 1322 50       		.byte	0x50
 16374 1323 9F       		.byte	0x9f
 16375 1324 24000000 		.4byte	.LVL344
 16376 1328 3A000000 		.4byte	.LVL347
 16377 132c 0100     		.2byte	0x1
 16378 132e 54       		.byte	0x54
 16379 132f 3A000000 		.4byte	.LVL347
 16380 1333 54000000 		.4byte	.LFE314
 16381 1337 0400     		.2byte	0x4
 16382 1339 F3       		.byte	0xf3
 16383 133a 01       		.uleb128 0x1
 16384 133b 50       		.byte	0x50
 16385 133c 9F       		.byte	0x9f
 16386 133d 00000000 		.4byte	0
 16387 1341 00000000 		.4byte	0
 16388              	.LLST130:
 16389 1345 00000000 		.4byte	.LVL337
 16390 1349 09000000 		.4byte	.LVL338-1
 16391 134d 0100     		.2byte	0x1
 16392 134f 51       		.byte	0x51
 16393 1350 09000000 		.4byte	.LVL338-1
 16394 1354 54000000 		.4byte	.LFE314
 16395 1358 0100     		.2byte	0x1
 16396 135a 56       		.byte	0x56
 16397 135b 00000000 		.4byte	0
 16398 135f 00000000 		.4byte	0
 16399              	.LLST131:
 16400 1363 18000000 		.4byte	.LVL341
 16401 1367 24000000 		.4byte	.LVL344
 16402 136b 0100     		.2byte	0x1
 16403 136d 55       		.byte	0x55
 16404 136e 2A000000 		.4byte	.LVL345
 16405 1372 37000000 		.4byte	.LVL346-1
 16406 1376 0100     		.2byte	0x1
 16407 1378 50       		.byte	0x50
 16408 1379 37000000 		.4byte	.LVL346-1
 16409 137d 54000000 		.4byte	.LFE314
 16410 1381 0100     		.2byte	0x1
 16411 1383 55       		.byte	0x55
 16412 1384 00000000 		.4byte	0
 16413 1388 00000000 		.4byte	0
 16414              	.LLST132:
 16415 138c 18000000 		.4byte	.LVL341
 16416 1390 1A000000 		.4byte	.LVL342
 16417 1394 0100     		.2byte	0x1
 16418 1396 50       		.byte	0x50
 16419 1397 1E000000 		.4byte	.LVL343
 16420 139b 24000000 		.4byte	.LVL344
 16421 139f 0100     		.2byte	0x1
 16422 13a1 50       		.byte	0x50
 16423 13a2 38000000 		.4byte	.LVL346
 16424 13a6 41000000 		.4byte	.LVL348-1
 16425 13aa 0100     		.2byte	0x1
 16426 13ac 50       		.byte	0x50
 16427 13ad 00000000 		.4byte	0
 16428 13b1 00000000 		.4byte	0
ARM GAS  /tmp/ccSNToGX.s 			page 290


 16429              	.LLST133:
 16430 13b5 10000000 		.4byte	.LVL339
 16431 13b9 12000000 		.4byte	.LVL340
 16432 13bd 0100     		.2byte	0x1
 16433 13bf 54       		.byte	0x54
 16434 13c0 00000000 		.4byte	0
 16435 13c4 00000000 		.4byte	0
 16436              	.LLST143:
 16437 13c8 00000000 		.4byte	.LVL370
 16438 13cc 0A000000 		.4byte	.LVL372
 16439 13d0 0100     		.2byte	0x1
 16440 13d2 50       		.byte	0x50
 16441 13d3 0A000000 		.4byte	.LVL372
 16442 13d7 1C000000 		.4byte	.LFE313
 16443 13db 0100     		.2byte	0x1
 16444 13dd 54       		.byte	0x54
 16445 13de 00000000 		.4byte	0
 16446 13e2 00000000 		.4byte	0
 16447              	.LLST144:
 16448 13e6 00000000 		.4byte	.LVL370
 16449 13ea 0D000000 		.4byte	.LVL373-1
 16450 13ee 0100     		.2byte	0x1
 16451 13f0 51       		.byte	0x51
 16452 13f1 0D000000 		.4byte	.LVL373-1
 16453 13f5 1C000000 		.4byte	.LFE313
 16454 13f9 0400     		.2byte	0x4
 16455 13fb F3       		.byte	0xf3
 16456 13fc 01       		.uleb128 0x1
 16457 13fd 51       		.byte	0x51
 16458 13fe 9F       		.byte	0x9f
 16459 13ff 00000000 		.4byte	0
 16460 1403 00000000 		.4byte	0
 16461              	.LLST145:
 16462 1407 00000000 		.4byte	.LVL370
 16463 140b 0D000000 		.4byte	.LVL373-1
 16464 140f 0100     		.2byte	0x1
 16465 1411 52       		.byte	0x52
 16466 1412 0D000000 		.4byte	.LVL373-1
 16467 1416 1C000000 		.4byte	.LFE313
 16468 141a 0400     		.2byte	0x4
 16469 141c F3       		.byte	0xf3
 16470 141d 01       		.uleb128 0x1
 16471 141e 52       		.byte	0x52
 16472 141f 9F       		.byte	0x9f
 16473 1420 00000000 		.4byte	0
 16474 1424 00000000 		.4byte	0
 16475              	.LLST146:
 16476 1428 00000000 		.4byte	.LVL370
 16477 142c 0D000000 		.4byte	.LVL373-1
 16478 1430 0100     		.2byte	0x1
 16479 1432 53       		.byte	0x53
 16480 1433 0D000000 		.4byte	.LVL373-1
 16481 1437 1C000000 		.4byte	.LFE313
 16482 143b 0400     		.2byte	0x4
 16483 143d F3       		.byte	0xf3
 16484 143e 01       		.uleb128 0x1
 16485 143f 53       		.byte	0x53
ARM GAS  /tmp/ccSNToGX.s 			page 291


 16486 1440 9F       		.byte	0x9f
 16487 1441 00000000 		.4byte	0
 16488 1445 00000000 		.4byte	0
 16489              	.LLST147:
 16490 1449 0E000000 		.4byte	.LVL373
 16491 144d 15000000 		.4byte	.LVL374-1
 16492 1451 0100     		.2byte	0x1
 16493 1453 50       		.byte	0x50
 16494 1454 00000000 		.4byte	0
 16495 1458 00000000 		.4byte	0
 16496              	.LLST148:
 16497 145c 16000000 		.4byte	.LVL374
 16498 1460 1A000000 		.4byte	.LVL375
 16499 1464 0100     		.2byte	0x1
 16500 1466 50       		.byte	0x50
 16501 1467 00000000 		.4byte	0
 16502 146b 00000000 		.4byte	0
 16503              	.LLST197:
 16504 146f 00000000 		.4byte	.LVL521
 16505 1473 06000000 		.4byte	.LVL522
 16506 1477 0100     		.2byte	0x1
 16507 1479 50       		.byte	0x50
 16508 147a 06000000 		.4byte	.LVL522
 16509 147e 16000000 		.4byte	.LVL526
 16510 1482 0100     		.2byte	0x1
 16511 1484 54       		.byte	0x54
 16512 1485 16000000 		.4byte	.LVL526
 16513 1489 1A000000 		.4byte	.LFE312
 16514 148d 0400     		.2byte	0x4
 16515 148f F3       		.byte	0xf3
 16516 1490 01       		.uleb128 0x1
 16517 1491 50       		.byte	0x50
 16518 1492 9F       		.byte	0x9f
 16519 1493 00000000 		.4byte	0
 16520 1497 00000000 		.4byte	0
 16521              	.LLST198:
 16522 149b 00000000 		.4byte	.LVL521
 16523 149f 09000000 		.4byte	.LVL523-1
 16524 14a3 0100     		.2byte	0x1
 16525 14a5 51       		.byte	0x51
 16526 14a6 09000000 		.4byte	.LVL523-1
 16527 14aa 1A000000 		.4byte	.LFE312
 16528 14ae 0400     		.2byte	0x4
 16529 14b0 F3       		.byte	0xf3
 16530 14b1 01       		.uleb128 0x1
 16531 14b2 51       		.byte	0x51
 16532 14b3 9F       		.byte	0x9f
 16533 14b4 00000000 		.4byte	0
 16534 14b8 00000000 		.4byte	0
 16535              	.LLST199:
 16536 14bc 0A000000 		.4byte	.LVL523
 16537 14c0 0E000000 		.4byte	.LVL524
 16538 14c4 0100     		.2byte	0x1
 16539 14c6 50       		.byte	0x50
 16540 14c7 0E000000 		.4byte	.LVL524
 16541 14cb 11000000 		.4byte	.LVL525-1
 16542 14cf 0100     		.2byte	0x1
ARM GAS  /tmp/ccSNToGX.s 			page 292


 16543 14d1 51       		.byte	0x51
 16544 14d2 00000000 		.4byte	0
 16545 14d6 00000000 		.4byte	0
 16546              	.LLST200:
 16547 14da 12000000 		.4byte	.LVL525
 16548 14de 19000000 		.4byte	.LVL527-1
 16549 14e2 0100     		.2byte	0x1
 16550 14e4 50       		.byte	0x50
 16551 14e5 00000000 		.4byte	0
 16552 14e9 00000000 		.4byte	0
 16553              	.LLST178:
 16554 14ed 00000000 		.4byte	.LVL436
 16555 14f1 07000000 		.4byte	.LVL437-1
 16556 14f5 0100     		.2byte	0x1
 16557 14f7 50       		.byte	0x50
 16558 14f8 07000000 		.4byte	.LVL437-1
 16559 14fc 48000000 		.4byte	.LVL448
 16560 1500 0100     		.2byte	0x1
 16561 1502 55       		.byte	0x55
 16562 1503 48000000 		.4byte	.LVL448
 16563 1507 4C000000 		.4byte	.LFE309
 16564 150b 0400     		.2byte	0x4
 16565 150d F3       		.byte	0xf3
 16566 150e 01       		.uleb128 0x1
 16567 150f 50       		.byte	0x50
 16568 1510 9F       		.byte	0x9f
 16569 1511 00000000 		.4byte	0
 16570 1515 00000000 		.4byte	0
 16571              	.LLST179:
 16572 1519 12000000 		.4byte	.LVL438
 16573 151d 14000000 		.4byte	.LVL439
 16574 1521 0100     		.2byte	0x1
 16575 1523 50       		.byte	0x50
 16576 1524 1A000000 		.4byte	.LVL440
 16577 1528 1C000000 		.4byte	.LVL441
 16578 152c 0100     		.2byte	0x1
 16579 152e 50       		.byte	0x50
 16580 152f 00000000 		.4byte	0
 16581 1533 00000000 		.4byte	0
 16582              	.LLST180:
 16583 1537 20000000 		.4byte	.LVL442
 16584 153b 27000000 		.4byte	.LVL443-1
 16585 153f 0100     		.2byte	0x1
 16586 1541 50       		.byte	0x50
 16587 1542 00000000 		.4byte	0
 16588 1546 00000000 		.4byte	0
 16589              	.LLST181:
 16590 154a 2A000000 		.4byte	.LVL444
 16591 154e 48000000 		.4byte	.LVL448
 16592 1552 0600     		.2byte	0x6
 16593 1554 74       		.byte	0x74
 16594 1555 00       		.sleb128 0
 16595 1556 08       		.byte	0x8
 16596 1557 FF       		.byte	0xff
 16597 1558 1A       		.byte	0x1a
 16598 1559 9F       		.byte	0x9f
 16599 155a 00000000 		.4byte	0
ARM GAS  /tmp/ccSNToGX.s 			page 293


 16600 155e 00000000 		.4byte	0
 16601              	.LLST128:
 16602 1562 00000000 		.4byte	.LVL335
 16603 1566 07000000 		.4byte	.LVL336-1
 16604 156a 0100     		.2byte	0x1
 16605 156c 50       		.byte	0x50
 16606 156d 07000000 		.4byte	.LVL336-1
 16607 1571 08000000 		.4byte	.LFE308
 16608 1575 0400     		.2byte	0x4
 16609 1577 F3       		.byte	0xf3
 16610 1578 01       		.uleb128 0x1
 16611 1579 50       		.byte	0x50
 16612 157a 9F       		.byte	0x9f
 16613 157b 00000000 		.4byte	0
 16614 157f 00000000 		.4byte	0
 16615              	.LLST114:
 16616 1583 00000000 		.4byte	.LVL307
 16617 1587 0B000000 		.4byte	.LVL308-1
 16618 158b 0100     		.2byte	0x1
 16619 158d 50       		.byte	0x50
 16620 158e 0B000000 		.4byte	.LVL308-1
 16621 1592 6C000000 		.4byte	.LVL324
 16622 1596 0100     		.2byte	0x1
 16623 1598 56       		.byte	0x56
 16624 1599 6C000000 		.4byte	.LVL324
 16625 159d 70000000 		.4byte	.LFE307
 16626 15a1 0400     		.2byte	0x4
 16627 15a3 F3       		.byte	0xf3
 16628 15a4 01       		.uleb128 0x1
 16629 15a5 50       		.byte	0x50
 16630 15a6 9F       		.byte	0x9f
 16631 15a7 00000000 		.4byte	0
 16632 15ab 00000000 		.4byte	0
 16633              	.LLST115:
 16634 15af 00000000 		.4byte	.LVL307
 16635 15b3 0B000000 		.4byte	.LVL308-1
 16636 15b7 0100     		.2byte	0x1
 16637 15b9 51       		.byte	0x51
 16638 15ba 0B000000 		.4byte	.LVL308-1
 16639 15be 20000000 		.4byte	.LVL311
 16640 15c2 0100     		.2byte	0x1
 16641 15c4 55       		.byte	0x55
 16642 15c5 28000000 		.4byte	.LVL312
 16643 15c9 4E000000 		.4byte	.LVL319
 16644 15cd 0100     		.2byte	0x1
 16645 15cf 55       		.byte	0x55
 16646 15d0 60000000 		.4byte	.LVL321
 16647 15d4 68000000 		.4byte	.LVL322
 16648 15d8 0100     		.2byte	0x1
 16649 15da 55       		.byte	0x55
 16650 15db 00000000 		.4byte	0
 16651 15df 00000000 		.4byte	0
 16652              	.LLST116:
 16653 15e3 00000000 		.4byte	.LVL307
 16654 15e7 0B000000 		.4byte	.LVL308-1
 16655 15eb 0100     		.2byte	0x1
 16656 15ed 52       		.byte	0x52
ARM GAS  /tmp/ccSNToGX.s 			page 294


 16657 15ee 0B000000 		.4byte	.LVL308-1
 16658 15f2 6C000000 		.4byte	.LVL324
 16659 15f6 0100     		.2byte	0x1
 16660 15f8 57       		.byte	0x57
 16661 15f9 6C000000 		.4byte	.LVL324
 16662 15fd 70000000 		.4byte	.LFE307
 16663 1601 0400     		.2byte	0x4
 16664 1603 F3       		.byte	0xf3
 16665 1604 01       		.uleb128 0x1
 16666 1605 52       		.byte	0x52
 16667 1606 9F       		.byte	0x9f
 16668 1607 00000000 		.4byte	0
 16669 160b 00000000 		.4byte	0
 16670              	.LLST117:
 16671 160f 4C000000 		.4byte	.LVL318
 16672 1613 53000000 		.4byte	.LVL320-1
 16673 1617 0100     		.2byte	0x1
 16674 1619 50       		.byte	0x50
 16675 161a 68000000 		.4byte	.LVL322
 16676 161e 6A000000 		.4byte	.LVL323
 16677 1622 0100     		.2byte	0x1
 16678 1624 50       		.byte	0x50
 16679 1625 00000000 		.4byte	0
 16680 1629 00000000 		.4byte	0
 16681              	.LLST118:
 16682 162d 16000000 		.4byte	.LVL309
 16683 1631 1D000000 		.4byte	.LVL310-1
 16684 1635 0100     		.2byte	0x1
 16685 1637 50       		.byte	0x50
 16686 1638 1D000000 		.4byte	.LVL310-1
 16687 163c 28000000 		.4byte	.LVL312
 16688 1640 0100     		.2byte	0x1
 16689 1642 54       		.byte	0x54
 16690 1643 28000000 		.4byte	.LVL312
 16691 1647 2E000000 		.4byte	.LVL314
 16692 164b 0100     		.2byte	0x1
 16693 164d 50       		.byte	0x50
 16694 164e 2E000000 		.4byte	.LVL314
 16695 1652 6C000000 		.4byte	.LVL324
 16696 1656 0100     		.2byte	0x1
 16697 1658 54       		.byte	0x54
 16698 1659 00000000 		.4byte	0
 16699 165d 00000000 		.4byte	0
 16700              	.LLST119:
 16701 1661 32000000 		.4byte	.LVL315
 16702 1665 48000000 		.4byte	.LVL317
 16703 1669 0100     		.2byte	0x1
 16704 166b 50       		.byte	0x50
 16705 166c 60000000 		.4byte	.LVL321
 16706 1670 68000000 		.4byte	.LVL322
 16707 1674 0100     		.2byte	0x1
 16708 1676 50       		.byte	0x50
 16709 1677 00000000 		.4byte	0
 16710 167b 00000000 		.4byte	0
 16711              	.LLST120:
 16712 167f 28000000 		.4byte	.LVL312
 16713 1683 2C000000 		.4byte	.LVL313
ARM GAS  /tmp/ccSNToGX.s 			page 295


 16714 1687 0100     		.2byte	0x1
 16715 1689 56       		.byte	0x56
 16716 168a 00000000 		.4byte	0
 16717 168e 00000000 		.4byte	0
 16718              	.LLST126:
 16719 1692 00000000 		.4byte	.LVL332
 16720 1696 07000000 		.4byte	.LVL334-1
 16721 169a 0100     		.2byte	0x1
 16722 169c 50       		.byte	0x50
 16723 169d 07000000 		.4byte	.LVL334-1
 16724 16a1 08000000 		.4byte	.LFE305
 16725 16a5 0400     		.2byte	0x4
 16726 16a7 F3       		.byte	0xf3
 16727 16a8 01       		.uleb128 0x1
 16728 16a9 50       		.byte	0x50
 16729 16aa 9F       		.byte	0x9f
 16730 16ab 00000000 		.4byte	0
 16731 16af 00000000 		.4byte	0
 16732              	.LLST127:
 16733 16b3 00000000 		.4byte	.LVL332
 16734 16b7 04000000 		.4byte	.LVL333
 16735 16bb 0100     		.2byte	0x1
 16736 16bd 51       		.byte	0x51
 16737 16be 04000000 		.4byte	.LVL333
 16738 16c2 08000000 		.4byte	.LFE305
 16739 16c6 0400     		.2byte	0x4
 16740 16c8 F3       		.byte	0xf3
 16741 16c9 01       		.uleb128 0x1
 16742 16ca 51       		.byte	0x51
 16743 16cb 9F       		.byte	0x9f
 16744 16cc 00000000 		.4byte	0
 16745 16d0 00000000 		.4byte	0
 16746              	.LLST121:
 16747 16d4 00000000 		.4byte	.LVL325
 16748 16d8 09000000 		.4byte	.LVL326-1
 16749 16dc 0100     		.2byte	0x1
 16750 16de 50       		.byte	0x50
 16751 16df 09000000 		.4byte	.LVL326-1
 16752 16e3 28000000 		.4byte	.LFE304
 16753 16e7 0400     		.2byte	0x4
 16754 16e9 F3       		.byte	0xf3
 16755 16ea 01       		.uleb128 0x1
 16756 16eb 50       		.byte	0x50
 16757 16ec 9F       		.byte	0x9f
 16758 16ed 00000000 		.4byte	0
 16759 16f1 00000000 		.4byte	0
 16760              	.LLST122:
 16761 16f5 00000000 		.4byte	.LVL325
 16762 16f9 09000000 		.4byte	.LVL326-1
 16763 16fd 0100     		.2byte	0x1
 16764 16ff 51       		.byte	0x51
 16765 1700 09000000 		.4byte	.LVL326-1
 16766 1704 28000000 		.4byte	.LFE304
 16767 1708 0100     		.2byte	0x1
 16768 170a 54       		.byte	0x54
 16769 170b 00000000 		.4byte	0
 16770 170f 00000000 		.4byte	0
ARM GAS  /tmp/ccSNToGX.s 			page 296


 16771              	.LLST123:
 16772 1713 00000000 		.4byte	.LVL325
 16773 1717 09000000 		.4byte	.LVL326-1
 16774 171b 0100     		.2byte	0x1
 16775 171d 52       		.byte	0x52
 16776 171e 09000000 		.4byte	.LVL326-1
 16777 1722 28000000 		.4byte	.LFE304
 16778 1726 0100     		.2byte	0x1
 16779 1728 55       		.byte	0x55
 16780 1729 00000000 		.4byte	0
 16781 172d 00000000 		.4byte	0
 16782              	.LLST124:
 16783 1731 16000000 		.4byte	.LVL327
 16784 1735 18000000 		.4byte	.LVL328
 16785 1739 0100     		.2byte	0x1
 16786 173b 50       		.byte	0x50
 16787 173c 18000000 		.4byte	.LVL328
 16788 1740 1C000000 		.4byte	.LVL329
 16789 1744 0300     		.2byte	0x3
 16790 1746 70       		.byte	0x70
 16791 1747 7F       		.sleb128 -1
 16792 1748 9F       		.byte	0x9f
 16793 1749 00000000 		.4byte	0
 16794 174d 00000000 		.4byte	0
 16795              	.LLST125:
 16796 1751 0A000000 		.4byte	.LVL326
 16797 1755 15000000 		.4byte	.LVL327-1
 16798 1759 0100     		.2byte	0x1
 16799 175b 50       		.byte	0x50
 16800 175c 22000000 		.4byte	.LVL330
 16801 1760 26000000 		.4byte	.LVL331
 16802 1764 0100     		.2byte	0x1
 16803 1766 50       		.byte	0x50
 16804 1767 00000000 		.4byte	0
 16805 176b 00000000 		.4byte	0
 16806              	.LLST111:
 16807 176f 00000000 		.4byte	.LVL304
 16808 1773 07000000 		.4byte	.LVL305-1
 16809 1777 0100     		.2byte	0x1
 16810 1779 50       		.byte	0x50
 16811 177a 07000000 		.4byte	.LVL305-1
 16812 177e 16000000 		.4byte	.LFE303
 16813 1782 0400     		.2byte	0x4
 16814 1784 F3       		.byte	0xf3
 16815 1785 01       		.uleb128 0x1
 16816 1786 50       		.byte	0x50
 16817 1787 9F       		.byte	0x9f
 16818 1788 00000000 		.4byte	0
 16819 178c 00000000 		.4byte	0
 16820              	.LLST112:
 16821 1790 00000000 		.4byte	.LVL304
 16822 1794 07000000 		.4byte	.LVL305-1
 16823 1798 0100     		.2byte	0x1
 16824 179a 51       		.byte	0x51
 16825 179b 07000000 		.4byte	.LVL305-1
 16826 179f 16000000 		.4byte	.LFE303
 16827 17a3 0100     		.2byte	0x1
ARM GAS  /tmp/ccSNToGX.s 			page 297


 16828 17a5 54       		.byte	0x54
 16829 17a6 00000000 		.4byte	0
 16830 17aa 00000000 		.4byte	0
 16831              	.LLST113:
 16832 17ae 08000000 		.4byte	.LVL305
 16833 17b2 0C000000 		.4byte	.LVL306
 16834 17b6 0100     		.2byte	0x1
 16835 17b8 50       		.byte	0x50
 16836 17b9 0C000000 		.4byte	.LVL306
 16837 17bd 16000000 		.4byte	.LFE303
 16838 17c1 0200     		.2byte	0x2
 16839 17c3 74       		.byte	0x74
 16840 17c4 00       		.sleb128 0
 16841 17c5 00000000 		.4byte	0
 16842 17c9 00000000 		.4byte	0
 16843              	.LLST30:
 16844 17cd 00000000 		.4byte	.LVL87
 16845 17d1 02000000 		.4byte	.LVL88
 16846 17d5 0100     		.2byte	0x1
 16847 17d7 50       		.byte	0x50
 16848 17d8 02000000 		.4byte	.LVL88
 16849 17dc 08000000 		.4byte	.LFE302
 16850 17e0 0400     		.2byte	0x4
 16851 17e2 F3       		.byte	0xf3
 16852 17e3 01       		.uleb128 0x1
 16853 17e4 50       		.byte	0x50
 16854 17e5 9F       		.byte	0x9f
 16855 17e6 00000000 		.4byte	0
 16856 17ea 00000000 		.4byte	0
 16857              	.LLST29:
 16858 17ee 00000000 		.4byte	.LVL80
 16859 17f2 06000000 		.4byte	.LVL81
 16860 17f6 0100     		.2byte	0x1
 16861 17f8 50       		.byte	0x50
 16862 17f9 06000000 		.4byte	.LVL81
 16863 17fd 0A000000 		.4byte	.LVL82
 16864 1801 0300     		.2byte	0x3
 16865 1803 75       		.byte	0x75
 16866 1804 01       		.sleb128 1
 16867 1805 9F       		.byte	0x9f
 16868 1806 0A000000 		.4byte	.LVL82
 16869 180a 14000000 		.4byte	.LVL83
 16870 180e 0100     		.2byte	0x1
 16871 1810 55       		.byte	0x55
 16872 1811 18000000 		.4byte	.LVL84
 16873 1815 22000000 		.4byte	.LVL86
 16874 1819 0100     		.2byte	0x1
 16875 181b 55       		.byte	0x55
 16876 181c 00000000 		.4byte	0
 16877 1820 00000000 		.4byte	0
 16878              	.LLST27:
 16879 1824 00000000 		.4byte	.LVL76
 16880 1828 06000000 		.4byte	.LVL77
 16881 182c 0100     		.2byte	0x1
 16882 182e 50       		.byte	0x50
 16883 182f 06000000 		.4byte	.LVL77
 16884 1833 0A000000 		.4byte	.LVL78
ARM GAS  /tmp/ccSNToGX.s 			page 298


 16885 1837 0300     		.2byte	0x3
 16886 1839 74       		.byte	0x74
 16887 183a 01       		.sleb128 1
 16888 183b 9F       		.byte	0x9f
 16889 183c 0A000000 		.4byte	.LVL78
 16890 1840 18000000 		.4byte	.LFE300
 16891 1844 0100     		.2byte	0x1
 16892 1846 54       		.byte	0x54
 16893 1847 00000000 		.4byte	0
 16894 184b 00000000 		.4byte	0
 16895              	.LLST28:
 16896 184f 00000000 		.4byte	.LVL76
 16897 1853 06000000 		.4byte	.LVL77
 16898 1857 0100     		.2byte	0x1
 16899 1859 51       		.byte	0x51
 16900 185a 06000000 		.4byte	.LVL77
 16901 185e 18000000 		.4byte	.LFE300
 16902 1862 0100     		.2byte	0x1
 16903 1864 55       		.byte	0x55
 16904 1865 00000000 		.4byte	0
 16905 1869 00000000 		.4byte	0
 16906              	.LLST24:
 16907 186d 00000000 		.4byte	.LVL69
 16908 1871 0D000000 		.4byte	.LVL70-1
 16909 1875 0100     		.2byte	0x1
 16910 1877 50       		.byte	0x50
 16911 1878 0D000000 		.4byte	.LVL70-1
 16912 187c 2A000000 		.4byte	.LVL75
 16913 1880 0100     		.2byte	0x1
 16914 1882 54       		.byte	0x54
 16915 1883 2A000000 		.4byte	.LVL75
 16916 1887 30000000 		.4byte	.LFE299
 16917 188b 0400     		.2byte	0x4
 16918 188d F3       		.byte	0xf3
 16919 188e 01       		.uleb128 0x1
 16920 188f 50       		.byte	0x50
 16921 1890 9F       		.byte	0x9f
 16922 1891 00000000 		.4byte	0
 16923 1895 00000000 		.4byte	0
 16924              	.LLST25:
 16925 1899 0E000000 		.4byte	.LVL70
 16926 189d 14000000 		.4byte	.LVL71
 16927 18a1 0100     		.2byte	0x1
 16928 18a3 50       		.byte	0x50
 16929 18a4 14000000 		.4byte	.LVL71
 16930 18a8 2A000000 		.4byte	.LVL75
 16931 18ac 0100     		.2byte	0x1
 16932 18ae 55       		.byte	0x55
 16933 18af 2A000000 		.4byte	.LVL75
 16934 18b3 30000000 		.4byte	.LFE299
 16935 18b7 0100     		.2byte	0x1
 16936 18b9 50       		.byte	0x50
 16937 18ba 00000000 		.4byte	0
 16938 18be 00000000 		.4byte	0
 16939              	.LLST26:
 16940 18c2 18000000 		.4byte	.LVL72
 16941 18c6 1C000000 		.4byte	.LVL73
ARM GAS  /tmp/ccSNToGX.s 			page 299


 16942 18ca 0100     		.2byte	0x1
 16943 18cc 50       		.byte	0x50
 16944 18cd 1C000000 		.4byte	.LVL73
 16945 18d1 26000000 		.4byte	.LVL74
 16946 18d5 0300     		.2byte	0x3
 16947 18d7 70       		.byte	0x70
 16948 18d8 01       		.sleb128 1
 16949 18d9 9F       		.byte	0x9f
 16950 18da 00000000 		.4byte	0
 16951 18de 00000000 		.4byte	0
 16952              	.LLST19:
 16953 18e2 00000000 		.4byte	.LVL58
 16954 18e6 0A000000 		.4byte	.LVL59
 16955 18ea 0100     		.2byte	0x1
 16956 18ec 50       		.byte	0x50
 16957 18ed 0A000000 		.4byte	.LVL59
 16958 18f1 1C000000 		.4byte	.LVL62
 16959 18f5 0100     		.2byte	0x1
 16960 18f7 55       		.byte	0x55
 16961 18f8 1C000000 		.4byte	.LVL62
 16962 18fc 20000000 		.4byte	.LVL63
 16963 1900 0400     		.2byte	0x4
 16964 1902 F3       		.byte	0xf3
 16965 1903 01       		.uleb128 0x1
 16966 1904 50       		.byte	0x50
 16967 1905 9F       		.byte	0x9f
 16968 1906 20000000 		.4byte	.LVL63
 16969 190a 38000000 		.4byte	.LVL68
 16970 190e 0100     		.2byte	0x1
 16971 1910 55       		.byte	0x55
 16972 1911 38000000 		.4byte	.LVL68
 16973 1915 3A000000 		.4byte	.LFE298
 16974 1919 0400     		.2byte	0x4
 16975 191b F3       		.byte	0xf3
 16976 191c 01       		.uleb128 0x1
 16977 191d 50       		.byte	0x50
 16978 191e 9F       		.byte	0x9f
 16979 191f 00000000 		.4byte	0
 16980 1923 00000000 		.4byte	0
 16981              	.LLST20:
 16982 1927 00000000 		.4byte	.LVL58
 16983 192b 0A000000 		.4byte	.LVL59
 16984 192f 0100     		.2byte	0x1
 16985 1931 51       		.byte	0x51
 16986 1932 0A000000 		.4byte	.LVL59
 16987 1936 2E000000 		.4byte	.LVL65
 16988 193a 0300     		.2byte	0x3
 16989 193c 76       		.byte	0x76
 16990 193d 7F       		.sleb128 -1
 16991 193e 9F       		.byte	0x9f
 16992 193f 2E000000 		.4byte	.LVL65
 16993 1943 30000000 		.4byte	.LVL66
 16994 1947 0100     		.2byte	0x1
 16995 1949 56       		.byte	0x56
 16996 194a 30000000 		.4byte	.LVL66
 16997 194e 3A000000 		.4byte	.LFE298
 16998 1952 0300     		.2byte	0x3
ARM GAS  /tmp/ccSNToGX.s 			page 300


 16999 1954 76       		.byte	0x76
 17000 1955 7F       		.sleb128 -1
 17001 1956 9F       		.byte	0x9f
 17002 1957 00000000 		.4byte	0
 17003 195b 00000000 		.4byte	0
 17004              	.LLST21:
 17005 195f 00000000 		.4byte	.LVL58
 17006 1963 0A000000 		.4byte	.LVL59
 17007 1967 0100     		.2byte	0x1
 17008 1969 52       		.byte	0x52
 17009 196a 0A000000 		.4byte	.LVL59
 17010 196e 3A000000 		.4byte	.LFE298
 17011 1972 0100     		.2byte	0x1
 17012 1974 57       		.byte	0x57
 17013 1975 00000000 		.4byte	0
 17014 1979 00000000 		.4byte	0
 17015              	.LLST22:
 17016 197d 12000000 		.4byte	.LVL60
 17017 1981 18000000 		.4byte	.LVL61
 17018 1985 0100     		.2byte	0x1
 17019 1987 50       		.byte	0x50
 17020 1988 20000000 		.4byte	.LVL63
 17021 198c 3A000000 		.4byte	.LFE298
 17022 1990 0100     		.2byte	0x1
 17023 1992 50       		.byte	0x50
 17024 1993 00000000 		.4byte	0
 17025 1997 00000000 		.4byte	0
 17026              	.LLST23:
 17027 199b 00000000 		.4byte	.LVL58
 17028 199f 0A000000 		.4byte	.LVL59
 17029 19a3 0200     		.2byte	0x2
 17030 19a5 30       		.byte	0x30
 17031 19a6 9F       		.byte	0x9f
 17032 19a7 0A000000 		.4byte	.LVL59
 17033 19ab 30000000 		.4byte	.LVL66
 17034 19af 0100     		.2byte	0x1
 17035 19b1 54       		.byte	0x54
 17036 19b2 30000000 		.4byte	.LVL66
 17037 19b6 34000000 		.4byte	.LVL67
 17038 19ba 0300     		.2byte	0x3
 17039 19bc 74       		.byte	0x74
 17040 19bd 01       		.sleb128 1
 17041 19be 9F       		.byte	0x9f
 17042 19bf 34000000 		.4byte	.LVL67
 17043 19c3 3A000000 		.4byte	.LFE298
 17044 19c7 0100     		.2byte	0x1
 17045 19c9 54       		.byte	0x54
 17046 19ca 00000000 		.4byte	0
 17047 19ce 00000000 		.4byte	0
 17048              	.LLST17:
 17049 19d2 00000000 		.4byte	.LVL56
 17050 19d6 03000000 		.4byte	.LVL57-1
 17051 19da 0100     		.2byte	0x1
 17052 19dc 50       		.byte	0x50
 17053 19dd 03000000 		.4byte	.LVL57-1
 17054 19e1 04000000 		.4byte	.LFE297
 17055 19e5 0400     		.2byte	0x4
ARM GAS  /tmp/ccSNToGX.s 			page 301


 17056 19e7 F3       		.byte	0xf3
 17057 19e8 01       		.uleb128 0x1
 17058 19e9 50       		.byte	0x50
 17059 19ea 9F       		.byte	0x9f
 17060 19eb 00000000 		.4byte	0
 17061 19ef 00000000 		.4byte	0
 17062              	.LLST18:
 17063 19f3 00000000 		.4byte	.LVL56
 17064 19f7 03000000 		.4byte	.LVL57-1
 17065 19fb 0100     		.2byte	0x1
 17066 19fd 51       		.byte	0x51
 17067 19fe 03000000 		.4byte	.LVL57-1
 17068 1a02 04000000 		.4byte	.LFE297
 17069 1a06 0400     		.2byte	0x4
 17070 1a08 F3       		.byte	0xf3
 17071 1a09 01       		.uleb128 0x1
 17072 1a0a 51       		.byte	0x51
 17073 1a0b 9F       		.byte	0x9f
 17074 1a0c 00000000 		.4byte	0
 17075 1a10 00000000 		.4byte	0
 17076              	.LLST16:
 17077 1a14 00000000 		.4byte	.LVL54
 17078 1a18 07000000 		.4byte	.LVL55-1
 17079 1a1c 0100     		.2byte	0x1
 17080 1a1e 50       		.byte	0x50
 17081 1a1f 07000000 		.4byte	.LVL55-1
 17082 1a23 0C000000 		.4byte	.LFE296
 17083 1a27 0400     		.2byte	0x4
 17084 1a29 F3       		.byte	0xf3
 17085 1a2a 01       		.uleb128 0x1
 17086 1a2b 50       		.byte	0x50
 17087 1a2c 9F       		.byte	0x9f
 17088 1a2d 00000000 		.4byte	0
 17089 1a31 00000000 		.4byte	0
 17090              	.LLST10:
 17091 1a35 00000000 		.4byte	.LVL39
 17092 1a39 03000000 		.4byte	.LVL40-1
 17093 1a3d 0100     		.2byte	0x1
 17094 1a3f 50       		.byte	0x50
 17095 1a40 03000000 		.4byte	.LVL40-1
 17096 1a44 04000000 		.4byte	.LFE292
 17097 1a48 0400     		.2byte	0x4
 17098 1a4a F3       		.byte	0xf3
 17099 1a4b 01       		.uleb128 0x1
 17100 1a4c 50       		.byte	0x50
 17101 1a4d 9F       		.byte	0x9f
 17102 1a4e 00000000 		.4byte	0
 17103 1a52 00000000 		.4byte	0
 17104              	.LLST8:
 17105 1a56 00000000 		.4byte	.LVL28
 17106 1a5a 09000000 		.4byte	.LVL29-1
 17107 1a5e 0100     		.2byte	0x1
 17108 1a60 50       		.byte	0x50
 17109 1a61 09000000 		.4byte	.LVL29-1
 17110 1a65 14000000 		.4byte	.LVL30
 17111 1a69 0100     		.2byte	0x1
 17112 1a6b 54       		.byte	0x54
ARM GAS  /tmp/ccSNToGX.s 			page 302


 17113 1a6c 14000000 		.4byte	.LVL30
 17114 1a70 2C000000 		.4byte	.LVL31
 17115 1a74 0100     		.2byte	0x1
 17116 1a76 50       		.byte	0x50
 17117 1a77 2C000000 		.4byte	.LVL31
 17118 1a7b 2E000000 		.4byte	.LVL32
 17119 1a7f 0100     		.2byte	0x1
 17120 1a81 54       		.byte	0x54
 17121 1a82 2E000000 		.4byte	.LVL32
 17122 1a86 36000000 		.4byte	.LVL33
 17123 1a8a 0100     		.2byte	0x1
 17124 1a8c 50       		.byte	0x50
 17125 1a8d 36000000 		.4byte	.LVL33
 17126 1a91 4C000000 		.4byte	.LVL36
 17127 1a95 0100     		.2byte	0x1
 17128 1a97 54       		.byte	0x54
 17129 1a98 4C000000 		.4byte	.LVL36
 17130 1a9c 53000000 		.4byte	.LVL37-1
 17131 1aa0 0100     		.2byte	0x1
 17132 1aa2 50       		.byte	0x50
 17133 1aa3 53000000 		.4byte	.LVL37-1
 17134 1aa7 68000000 		.4byte	.LFE291
 17135 1aab 0100     		.2byte	0x1
 17136 1aad 54       		.byte	0x54
 17137 1aae 00000000 		.4byte	0
 17138 1ab2 00000000 		.4byte	0
 17139              	.LLST9:
 17140 1ab6 36000000 		.4byte	.LVL33
 17141 1aba 3C000000 		.4byte	.LVL34
 17142 1abe 0100     		.2byte	0x1
 17143 1ac0 50       		.byte	0x50
 17144 1ac1 40000000 		.4byte	.LVL35
 17145 1ac5 4C000000 		.4byte	.LVL36
 17146 1ac9 0100     		.2byte	0x1
 17147 1acb 50       		.byte	0x50
 17148 1acc 54000000 		.4byte	.LVL37
 17149 1ad0 5A000000 		.4byte	.LVL38
 17150 1ad4 0100     		.2byte	0x1
 17151 1ad6 50       		.byte	0x50
 17152 1ad7 5A000000 		.4byte	.LVL38
 17153 1adb 68000000 		.4byte	.LFE291
 17154 1adf 0300     		.2byte	0x3
 17155 1ae1 70       		.byte	0x70
 17156 1ae2 7E       		.sleb128 -2
 17157 1ae3 9F       		.byte	0x9f
 17158 1ae4 00000000 		.4byte	0
 17159 1ae8 00000000 		.4byte	0
 17160              	.LLST3:
 17161 1aec 00000000 		.4byte	.LVL16
 17162 1af0 0D000000 		.4byte	.LVL17-1
 17163 1af4 0100     		.2byte	0x1
 17164 1af6 50       		.byte	0x50
 17165 1af7 00000000 		.4byte	0
 17166 1afb 00000000 		.4byte	0
 17167              	.LLST4:
 17168 1aff 00000000 		.4byte	.LVL16
 17169 1b03 0D000000 		.4byte	.LVL17-1
ARM GAS  /tmp/ccSNToGX.s 			page 303


 17170 1b07 0100     		.2byte	0x1
 17171 1b09 51       		.byte	0x51
 17172 1b0a 0D000000 		.4byte	.LVL17-1
 17173 1b0e 64000000 		.4byte	.LFE348
 17174 1b12 0100     		.2byte	0x1
 17175 1b14 54       		.byte	0x54
 17176 1b15 00000000 		.4byte	0
 17177 1b19 00000000 		.4byte	0
 17178              	.LLST5:
 17179 1b1d 36000000 		.4byte	.LVL21
 17180 1b21 43000000 		.4byte	.LVL22-1
 17181 1b25 0600     		.2byte	0x6
 17182 1b27 70       		.byte	0x70
 17183 1b28 00       		.sleb128 0
 17184 1b29 08       		.byte	0x8
 17185 1b2a FF       		.byte	0xff
 17186 1b2b 1A       		.byte	0x1a
 17187 1b2c 9F       		.byte	0x9f
 17188 1b2d 5A000000 		.4byte	.LVL24
 17189 1b31 5E000000 		.4byte	.LVL25
 17190 1b35 0600     		.2byte	0x6
 17191 1b37 70       		.byte	0x70
 17192 1b38 00       		.sleb128 0
 17193 1b39 08       		.byte	0x8
 17194 1b3a FF       		.byte	0xff
 17195 1b3b 1A       		.byte	0x1a
 17196 1b3c 9F       		.byte	0x9f
 17197 1b3d 00000000 		.4byte	0
 17198 1b41 00000000 		.4byte	0
 17199              	.LLST6:
 17200 1b45 26000000 		.4byte	.LVL20
 17201 1b49 35000000 		.4byte	.LVL21-1
 17202 1b4d 0100     		.2byte	0x1
 17203 1b4f 50       		.byte	0x50
 17204 1b50 00000000 		.4byte	0
 17205 1b54 00000000 		.4byte	0
 17206              	.LLST7:
 17207 1b58 00000000 		.4byte	.LVL26
 17208 1b5c 06000000 		.4byte	.LVL27
 17209 1b60 0100     		.2byte	0x1
 17210 1b62 50       		.byte	0x50
 17211 1b63 06000000 		.4byte	.LVL27
 17212 1b67 0A000000 		.4byte	.LFE290
 17213 1b6b 0400     		.2byte	0x4
 17214 1b6d F3       		.byte	0xf3
 17215 1b6e 01       		.uleb128 0x1
 17216 1b6f 50       		.byte	0x50
 17217 1b70 9F       		.byte	0x9f
 17218 1b71 00000000 		.4byte	0
 17219 1b75 00000000 		.4byte	0
 17220              	.LLST11:
 17221 1b79 00000000 		.4byte	.LVL41
 17222 1b7d 09000000 		.4byte	.LVL42-1
 17223 1b81 0100     		.2byte	0x1
 17224 1b83 50       		.byte	0x50
 17225 1b84 09000000 		.4byte	.LVL42-1
 17226 1b88 24000000 		.4byte	.LVL43
ARM GAS  /tmp/ccSNToGX.s 			page 304


 17227 1b8c 0100     		.2byte	0x1
 17228 1b8e 55       		.byte	0x55
 17229 1b8f 24000000 		.4byte	.LVL43
 17230 1b93 28000000 		.4byte	.LVL44
 17231 1b97 0400     		.2byte	0x4
 17232 1b99 F3       		.byte	0xf3
 17233 1b9a 01       		.uleb128 0x1
 17234 1b9b 50       		.byte	0x50
 17235 1b9c 9F       		.byte	0x9f
 17236 1b9d 28000000 		.4byte	.LVL44
 17237 1ba1 42000000 		.4byte	.LVL45
 17238 1ba5 0100     		.2byte	0x1
 17239 1ba7 55       		.byte	0x55
 17240 1ba8 42000000 		.4byte	.LVL45
 17241 1bac 4A000000 		.4byte	.LVL46
 17242 1bb0 0400     		.2byte	0x4
 17243 1bb2 F3       		.byte	0xf3
 17244 1bb3 01       		.uleb128 0x1
 17245 1bb4 50       		.byte	0x50
 17246 1bb5 9F       		.byte	0x9f
 17247 1bb6 4A000000 		.4byte	.LVL46
 17248 1bba 58000000 		.4byte	.LVL48
 17249 1bbe 0100     		.2byte	0x1
 17250 1bc0 55       		.byte	0x55
 17251 1bc1 58000000 		.4byte	.LVL48
 17252 1bc5 5E000000 		.4byte	.LVL50
 17253 1bc9 0400     		.2byte	0x4
 17254 1bcb F3       		.byte	0xf3
 17255 1bcc 01       		.uleb128 0x1
 17256 1bcd 50       		.byte	0x50
 17257 1bce 9F       		.byte	0x9f
 17258 1bcf 5E000000 		.4byte	.LVL50
 17259 1bd3 62000000 		.4byte	.LVL51
 17260 1bd7 0100     		.2byte	0x1
 17261 1bd9 55       		.byte	0x55
 17262 1bda 62000000 		.4byte	.LVL51
 17263 1bde 68000000 		.4byte	.LFE293
 17264 1be2 0400     		.2byte	0x4
 17265 1be4 F3       		.byte	0xf3
 17266 1be5 01       		.uleb128 0x1
 17267 1be6 50       		.byte	0x50
 17268 1be7 9F       		.byte	0x9f
 17269 1be8 00000000 		.4byte	0
 17270 1bec 00000000 		.4byte	0
 17271              	.LLST12:
 17272 1bf0 00000000 		.4byte	.LVL41
 17273 1bf4 09000000 		.4byte	.LVL42-1
 17274 1bf8 0100     		.2byte	0x1
 17275 1bfa 51       		.byte	0x51
 17276 1bfb 09000000 		.4byte	.LVL42-1
 17277 1bff 24000000 		.4byte	.LVL43
 17278 1c03 0100     		.2byte	0x1
 17279 1c05 54       		.byte	0x54
 17280 1c06 24000000 		.4byte	.LVL43
 17281 1c0a 27000000 		.4byte	.LVL44-1
 17282 1c0e 0100     		.2byte	0x1
 17283 1c10 51       		.byte	0x51
ARM GAS  /tmp/ccSNToGX.s 			page 305


 17284 1c11 27000000 		.4byte	.LVL44-1
 17285 1c15 28000000 		.4byte	.LVL44
 17286 1c19 0400     		.2byte	0x4
 17287 1c1b F3       		.byte	0xf3
 17288 1c1c 01       		.uleb128 0x1
 17289 1c1d 51       		.byte	0x51
 17290 1c1e 9F       		.byte	0x9f
 17291 1c1f 28000000 		.4byte	.LVL44
 17292 1c23 68000000 		.4byte	.LFE293
 17293 1c27 0100     		.2byte	0x1
 17294 1c29 54       		.byte	0x54
 17295 1c2a 00000000 		.4byte	0
 17296 1c2e 00000000 		.4byte	0
 17297              	.LLST13:
 17298 1c32 4A000000 		.4byte	.LVL46
 17299 1c36 5A000000 		.4byte	.LVL49
 17300 1c3a 0100     		.2byte	0x1
 17301 1c3c 54       		.byte	0x54
 17302 1c3d 00000000 		.4byte	0
 17303 1c41 00000000 		.4byte	0
 17304              	.LLST14:
 17305 1c45 4A000000 		.4byte	.LVL46
 17306 1c49 58000000 		.4byte	.LVL48
 17307 1c4d 0100     		.2byte	0x1
 17308 1c4f 55       		.byte	0x55
 17309 1c50 58000000 		.4byte	.LVL48
 17310 1c54 5A000000 		.4byte	.LVL49
 17311 1c58 0400     		.2byte	0x4
 17312 1c5a F3       		.byte	0xf3
 17313 1c5b 01       		.uleb128 0x1
 17314 1c5c 50       		.byte	0x50
 17315 1c5d 9F       		.byte	0x9f
 17316 1c5e 00000000 		.4byte	0
 17317 1c62 00000000 		.4byte	0
 17318              	.LLST15:
 17319 1c66 58000000 		.4byte	.LVL48
 17320 1c6a 5A000000 		.4byte	.LVL49
 17321 1c6e 0100     		.2byte	0x1
 17322 1c70 50       		.byte	0x50
 17323 1c71 00000000 		.4byte	0
 17324 1c75 00000000 		.4byte	0
 17325              	.LLST31:
 17326 1c79 00000000 		.4byte	.LVL89
 17327 1c7d 07000000 		.4byte	.LVL91-1
 17328 1c81 0100     		.2byte	0x1
 17329 1c83 50       		.byte	0x50
 17330 1c84 07000000 		.4byte	.LVL91-1
 17331 1c88 14000000 		.4byte	.LVL92
 17332 1c8c 0400     		.2byte	0x4
 17333 1c8e F3       		.byte	0xf3
 17334 1c8f 01       		.uleb128 0x1
 17335 1c90 50       		.byte	0x50
 17336 1c91 9F       		.byte	0x9f
 17337 1c92 14000000 		.4byte	.LVL92
 17338 1c96 2C000000 		.4byte	.LFE310
 17339 1c9a 0100     		.2byte	0x1
 17340 1c9c 50       		.byte	0x50
ARM GAS  /tmp/ccSNToGX.s 			page 306


 17341 1c9d 00000000 		.4byte	0
 17342 1ca1 00000000 		.4byte	0
 17343              	.LLST32:
 17344 1ca5 00000000 		.4byte	.LVL95
 17345 1ca9 09000000 		.4byte	.LVL96-1
 17346 1cad 0100     		.2byte	0x1
 17347 1caf 50       		.byte	0x50
 17348 1cb0 09000000 		.4byte	.LVL96-1
 17349 1cb4 14000000 		.4byte	.LVL97
 17350 1cb8 0400     		.2byte	0x4
 17351 1cba F3       		.byte	0xf3
 17352 1cbb 01       		.uleb128 0x1
 17353 1cbc 50       		.byte	0x50
 17354 1cbd 9F       		.byte	0x9f
 17355 1cbe 14000000 		.4byte	.LVL97
 17356 1cc2 21000000 		.4byte	.LVL100-1
 17357 1cc6 0100     		.2byte	0x1
 17358 1cc8 50       		.byte	0x50
 17359 1cc9 21000000 		.4byte	.LVL100-1
 17360 1ccd 2C000000 		.4byte	.LFE311
 17361 1cd1 0400     		.2byte	0x4
 17362 1cd3 F3       		.byte	0xf3
 17363 1cd4 01       		.uleb128 0x1
 17364 1cd5 50       		.byte	0x50
 17365 1cd6 9F       		.byte	0x9f
 17366 1cd7 00000000 		.4byte	0
 17367 1cdb 00000000 		.4byte	0
 17368              	.LLST33:
 17369 1cdf 1E000000 		.4byte	.LVL99
 17370 1ce3 21000000 		.4byte	.LVL100-1
 17371 1ce7 0100     		.2byte	0x1
 17372 1ce9 50       		.byte	0x50
 17373 1cea 21000000 		.4byte	.LVL100-1
 17374 1cee 26000000 		.4byte	.LVL101
 17375 1cf2 0400     		.2byte	0x4
 17376 1cf4 F3       		.byte	0xf3
 17377 1cf5 01       		.uleb128 0x1
 17378 1cf6 50       		.byte	0x50
 17379 1cf7 9F       		.byte	0x9f
 17380 1cf8 00000000 		.4byte	0
 17381 1cfc 00000000 		.4byte	0
 17382              	.LLST46:
 17383 1d00 00000000 		.4byte	.LVL141
 17384 1d04 09000000 		.4byte	.LVL142-1
 17385 1d08 0100     		.2byte	0x1
 17386 1d0a 50       		.byte	0x50
 17387 1d0b 09000000 		.4byte	.LVL142-1
 17388 1d0f 14000000 		.4byte	.LVL143
 17389 1d13 0100     		.2byte	0x1
 17390 1d15 54       		.byte	0x54
 17391 1d16 14000000 		.4byte	.LVL143
 17392 1d1a 18000000 		.4byte	.LVL144
 17393 1d1e 0400     		.2byte	0x4
 17394 1d20 F3       		.byte	0xf3
 17395 1d21 01       		.uleb128 0x1
 17396 1d22 50       		.byte	0x50
 17397 1d23 9F       		.byte	0x9f
ARM GAS  /tmp/ccSNToGX.s 			page 307


 17398 1d24 18000000 		.4byte	.LVL144
 17399 1d28 24000000 		.4byte	.LVL146
 17400 1d2c 0100     		.2byte	0x1
 17401 1d2e 54       		.byte	0x54
 17402 1d2f 24000000 		.4byte	.LVL146
 17403 1d33 44000000 		.4byte	.LFE331
 17404 1d37 0400     		.2byte	0x4
 17405 1d39 F3       		.byte	0xf3
 17406 1d3a 01       		.uleb128 0x1
 17407 1d3b 50       		.byte	0x50
 17408 1d3c 9F       		.byte	0x9f
 17409 1d3d 00000000 		.4byte	0
 17410 1d41 00000000 		.4byte	0
 17411              	.LLST47:
 17412 1d45 00000000 		.4byte	.LVL141
 17413 1d49 09000000 		.4byte	.LVL142-1
 17414 1d4d 0100     		.2byte	0x1
 17415 1d4f 51       		.byte	0x51
 17416 1d50 09000000 		.4byte	.LVL142-1
 17417 1d54 3E000000 		.4byte	.LVL149
 17418 1d58 0100     		.2byte	0x1
 17419 1d5a 55       		.byte	0x55
 17420 1d5b 3E000000 		.4byte	.LVL149
 17421 1d5f 44000000 		.4byte	.LFE331
 17422 1d63 0400     		.2byte	0x4
 17423 1d65 F3       		.byte	0xf3
 17424 1d66 01       		.uleb128 0x1
 17425 1d67 51       		.byte	0x51
 17426 1d68 9F       		.byte	0x9f
 17427 1d69 00000000 		.4byte	0
 17428 1d6d 00000000 		.4byte	0
 17429              	.LLST48:
 17430 1d71 18000000 		.4byte	.LVL144
 17431 1d75 3E000000 		.4byte	.LVL149
 17432 1d79 0100     		.2byte	0x1
 17433 1d7b 55       		.byte	0x55
 17434 1d7c 3E000000 		.4byte	.LVL149
 17435 1d80 44000000 		.4byte	.LFE331
 17436 1d84 0400     		.2byte	0x4
 17437 1d86 F3       		.byte	0xf3
 17438 1d87 01       		.uleb128 0x1
 17439 1d88 51       		.byte	0x51
 17440 1d89 9F       		.byte	0x9f
 17441 1d8a 00000000 		.4byte	0
 17442 1d8e 00000000 		.4byte	0
 17443              	.LLST49:
 17444 1d92 18000000 		.4byte	.LVL144
 17445 1d96 24000000 		.4byte	.LVL146
 17446 1d9a 0100     		.2byte	0x1
 17447 1d9c 54       		.byte	0x54
 17448 1d9d 24000000 		.4byte	.LVL146
 17449 1da1 44000000 		.4byte	.LFE331
 17450 1da5 0400     		.2byte	0x4
 17451 1da7 F3       		.byte	0xf3
 17452 1da8 01       		.uleb128 0x1
 17453 1da9 50       		.byte	0x50
 17454 1daa 9F       		.byte	0x9f
ARM GAS  /tmp/ccSNToGX.s 			page 308


 17455 1dab 00000000 		.4byte	0
 17456 1daf 00000000 		.4byte	0
 17457              	.LLST50:
 17458 1db3 22000000 		.4byte	.LVL145
 17459 1db7 2B000000 		.4byte	.LVL147-1
 17460 1dbb 0600     		.2byte	0x6
 17461 1dbd 70       		.byte	0x70
 17462 1dbe 00       		.sleb128 0
 17463 1dbf 08       		.byte	0x8
 17464 1dc0 FF       		.byte	0xff
 17465 1dc1 1A       		.byte	0x1a
 17466 1dc2 9F       		.byte	0x9f
 17467 1dc3 00000000 		.4byte	0
 17468 1dc7 00000000 		.4byte	0
 17469              	.LLST79:
 17470 1dcb 00000000 		.4byte	.LVL230
 17471 1dcf 08000000 		.4byte	.LVL231
 17472 1dd3 0100     		.2byte	0x1
 17473 1dd5 50       		.byte	0x50
 17474 1dd6 08000000 		.4byte	.LVL231
 17475 1dda 10000000 		.4byte	.LFE349
 17476 1dde 0400     		.2byte	0x4
 17477 1de0 F3       		.byte	0xf3
 17478 1de1 01       		.uleb128 0x1
 17479 1de2 50       		.byte	0x50
 17480 1de3 9F       		.byte	0x9f
 17481 1de4 00000000 		.4byte	0
 17482 1de8 00000000 		.4byte	0
 17483              	.LLST101:
 17484 1dec 00000000 		.4byte	.LVL285
 17485 1df0 09000000 		.4byte	.LVL287-1
 17486 1df4 0100     		.2byte	0x1
 17487 1df6 50       		.byte	0x50
 17488 1df7 09000000 		.4byte	.LVL287-1
 17489 1dfb 1C000000 		.4byte	.LVL292
 17490 1dff 0400     		.2byte	0x4
 17491 1e01 F3       		.byte	0xf3
 17492 1e02 01       		.uleb128 0x1
 17493 1e03 50       		.byte	0x50
 17494 1e04 9F       		.byte	0x9f
 17495 1e05 1C000000 		.4byte	.LVL292
 17496 1e09 1F000000 		.4byte	.LVL293-1
 17497 1e0d 0100     		.2byte	0x1
 17498 1e0f 50       		.byte	0x50
 17499 1e10 1F000000 		.4byte	.LVL293-1
 17500 1e14 28000000 		.4byte	.LFE354
 17501 1e18 0400     		.2byte	0x4
 17502 1e1a F3       		.byte	0xf3
 17503 1e1b 01       		.uleb128 0x1
 17504 1e1c 50       		.byte	0x50
 17505 1e1d 9F       		.byte	0x9f
 17506 1e1e 00000000 		.4byte	0
 17507 1e22 00000000 		.4byte	0
 17508              	.LLST102:
 17509 1e26 0A000000 		.4byte	.LVL287
 17510 1e2a 13000000 		.4byte	.LVL290-1
 17511 1e2e 0100     		.2byte	0x1
ARM GAS  /tmp/ccSNToGX.s 			page 309


 17512 1e30 50       		.byte	0x50
 17513 1e31 00000000 		.4byte	0
 17514 1e35 00000000 		.4byte	0
 17515              	.LLST103:
 17516 1e39 0E000000 		.4byte	.LVL288
 17517 1e3d 18000000 		.4byte	.LVL291
 17518 1e41 0100     		.2byte	0x1
 17519 1e43 54       		.byte	0x54
 17520 1e44 00000000 		.4byte	0
 17521 1e48 00000000 		.4byte	0
 17522              	.LLST104:
 17523 1e4c 00000000 		.4byte	.LVL285
 17524 1e50 06000000 		.4byte	.LVL286
 17525 1e54 0100     		.2byte	0x1
 17526 1e56 50       		.byte	0x50
 17527 1e57 00000000 		.4byte	0
 17528 1e5b 00000000 		.4byte	0
 17529              	.LLST105:
 17530 1e5f 10000000 		.4byte	.LVL289
 17531 1e63 18000000 		.4byte	.LVL291
 17532 1e67 0400     		.2byte	0x4
 17533 1e69 F3       		.byte	0xf3
 17534 1e6a 01       		.uleb128 0x1
 17535 1e6b 50       		.byte	0x50
 17536 1e6c 9F       		.byte	0x9f
 17537 1e6d 00000000 		.4byte	0
 17538 1e71 00000000 		.4byte	0
 17539              	.LLST106:
 17540 1e75 00000000 		.4byte	.LVL294
 17541 1e79 07000000 		.4byte	.LVL295-1
 17542 1e7d 0100     		.2byte	0x1
 17543 1e7f 50       		.byte	0x50
 17544 1e80 07000000 		.4byte	.LVL295-1
 17545 1e84 2E000000 		.4byte	.LFE306
 17546 1e88 0100     		.2byte	0x1
 17547 1e8a 54       		.byte	0x54
 17548 1e8b 00000000 		.4byte	0
 17549 1e8f 00000000 		.4byte	0
 17550              	.LLST107:
 17551 1e93 12000000 		.4byte	.LVL296
 17552 1e97 19000000 		.4byte	.LVL298-1
 17553 1e9b 0100     		.2byte	0x1
 17554 1e9d 50       		.byte	0x50
 17555 1e9e 00000000 		.4byte	0
 17556 1ea2 00000000 		.4byte	0
 17557              	.LLST108:
 17558 1ea6 1A000000 		.4byte	.LVL298
 17559 1eaa 1F000000 		.4byte	.LVL300-1
 17560 1eae 0100     		.2byte	0x1
 17561 1eb0 50       		.byte	0x50
 17562 1eb1 2A000000 		.4byte	.LVL302
 17563 1eb5 2C000000 		.4byte	.LVL303
 17564 1eb9 0100     		.2byte	0x1
 17565 1ebb 50       		.byte	0x50
 17566 1ebc 00000000 		.4byte	0
 17567 1ec0 00000000 		.4byte	0
 17568              	.LLST109:
ARM GAS  /tmp/ccSNToGX.s 			page 310


 17569 1ec4 12000000 		.4byte	.LVL296
 17570 1ec8 16000000 		.4byte	.LVL297
 17571 1ecc 0100     		.2byte	0x1
 17572 1ece 50       		.byte	0x50
 17573 1ecf 00000000 		.4byte	0
 17574 1ed3 00000000 		.4byte	0
 17575              	.LLST110:
 17576 1ed7 1C000000 		.4byte	.LVL299
 17577 1edb 24000000 		.4byte	.LVL301
 17578 1edf 0100     		.2byte	0x1
 17579 1ee1 54       		.byte	0x54
 17580 1ee2 00000000 		.4byte	0
 17581 1ee6 00000000 		.4byte	0
 17582              	.LLST149:
 17583 1eea 00000000 		.4byte	.LVL376
 17584 1eee 07000000 		.4byte	.LVL377-1
 17585 1ef2 0100     		.2byte	0x1
 17586 1ef4 50       		.byte	0x50
 17587 1ef5 07000000 		.4byte	.LVL377-1
 17588 1ef9 34000000 		.4byte	.LVL387
 17589 1efd 0100     		.2byte	0x1
 17590 1eff 54       		.byte	0x54
 17591 1f00 34000000 		.4byte	.LVL387
 17592 1f04 54000000 		.4byte	.LFE319
 17593 1f08 0400     		.2byte	0x4
 17594 1f0a F3       		.byte	0xf3
 17595 1f0b 01       		.uleb128 0x1
 17596 1f0c 50       		.byte	0x50
 17597 1f0d 9F       		.byte	0x9f
 17598 1f0e 00000000 		.4byte	0
 17599 1f12 00000000 		.4byte	0
 17600              	.LLST150:
 17601 1f16 24000000 		.4byte	.LVL382
 17602 1f1a 26000000 		.4byte	.LVL383
 17603 1f1e 0100     		.2byte	0x1
 17604 1f20 50       		.byte	0x50
 17605 1f21 2E000000 		.4byte	.LVL385
 17606 1f25 31000000 		.4byte	.LVL386-1
 17607 1f29 0100     		.2byte	0x1
 17608 1f2b 50       		.byte	0x50
 17609 1f2c 00000000 		.4byte	0
 17610 1f30 00000000 		.4byte	0
 17611              	.LLST151:
 17612 1f34 32000000 		.4byte	.LVL386
 17613 1f38 39000000 		.4byte	.LVL388-1
 17614 1f3c 0100     		.2byte	0x1
 17615 1f3e 50       		.byte	0x50
 17616 1f3f 4C000000 		.4byte	.LVL390
 17617 1f43 54000000 		.4byte	.LFE319
 17618 1f47 0100     		.2byte	0x1
 17619 1f49 50       		.byte	0x50
 17620 1f4a 00000000 		.4byte	0
 17621 1f4e 00000000 		.4byte	0
 17622              	.LLST152:
 17623 1f52 16000000 		.4byte	.LVL380
 17624 1f56 20000000 		.4byte	.LVL381
 17625 1f5a 0100     		.2byte	0x1
ARM GAS  /tmp/ccSNToGX.s 			page 311


 17626 1f5c 50       		.byte	0x50
 17627 1f5d 00000000 		.4byte	0
 17628 1f61 00000000 		.4byte	0
 17629              	.LLST153:
 17630 1f65 0E000000 		.4byte	.LVL378
 17631 1f69 10000000 		.4byte	.LVL379
 17632 1f6d 0100     		.2byte	0x1
 17633 1f6f 54       		.byte	0x54
 17634 1f70 00000000 		.4byte	0
 17635 1f74 00000000 		.4byte	0
 17636              	.LLST173:
 17637 1f78 00000000 		.4byte	.LVL425
 17638 1f7c 0B000000 		.4byte	.LVL427-1
 17639 1f80 0100     		.2byte	0x1
 17640 1f82 50       		.byte	0x50
 17641 1f83 0B000000 		.4byte	.LVL427-1
 17642 1f87 36000000 		.4byte	.LVL431
 17643 1f8b 0100     		.2byte	0x1
 17644 1f8d 54       		.byte	0x54
 17645 1f8e 36000000 		.4byte	.LVL431
 17646 1f92 3A000000 		.4byte	.LVL432
 17647 1f96 0400     		.2byte	0x4
 17648 1f98 F3       		.byte	0xf3
 17649 1f99 01       		.uleb128 0x1
 17650 1f9a 50       		.byte	0x50
 17651 1f9b 9F       		.byte	0x9f
 17652 1f9c 3A000000 		.4byte	.LVL432
 17653 1fa0 3D000000 		.4byte	.LVL433-1
 17654 1fa4 0100     		.2byte	0x1
 17655 1fa6 50       		.byte	0x50
 17656 1fa7 3D000000 		.4byte	.LVL433-1
 17657 1fab 46000000 		.4byte	.LVL435
 17658 1faf 0100     		.2byte	0x1
 17659 1fb1 54       		.byte	0x54
 17660 1fb2 46000000 		.4byte	.LVL435
 17661 1fb6 4C000000 		.4byte	.LFE355
 17662 1fba 0400     		.2byte	0x4
 17663 1fbc F3       		.byte	0xf3
 17664 1fbd 01       		.uleb128 0x1
 17665 1fbe 50       		.byte	0x50
 17666 1fbf 9F       		.byte	0x9f
 17667 1fc0 00000000 		.4byte	0
 17668 1fc4 00000000 		.4byte	0
 17669              	.LLST174:
 17670 1fc8 0C000000 		.4byte	.LVL427
 17671 1fcc 12000000 		.4byte	.LVL428
 17672 1fd0 0100     		.2byte	0x1
 17673 1fd2 50       		.byte	0x50
 17674 1fd3 12000000 		.4byte	.LVL428
 17675 1fd7 36000000 		.4byte	.LVL431
 17676 1fdb 0100     		.2byte	0x1
 17677 1fdd 55       		.byte	0x55
 17678 1fde 00000000 		.4byte	0
 17679 1fe2 00000000 		.4byte	0
 17680              	.LLST175:
 17681 1fe6 12000000 		.4byte	.LVL428
 17682 1fea 17000000 		.4byte	.LVL429-1
ARM GAS  /tmp/ccSNToGX.s 			page 312


 17683 1fee 0100     		.2byte	0x1
 17684 1ff0 50       		.byte	0x50
 17685 1ff1 00000000 		.4byte	0
 17686 1ff5 00000000 		.4byte	0
 17687              	.LLST176:
 17688 1ff9 00000000 		.4byte	.LVL425
 17689 1ffd 08000000 		.4byte	.LVL426
 17690 2001 0100     		.2byte	0x1
 17691 2003 50       		.byte	0x50
 17692 2004 00000000 		.4byte	0
 17693 2008 00000000 		.4byte	0
 17694              	.LLST177:
 17695 200c 3A000000 		.4byte	.LVL432
 17696 2010 3D000000 		.4byte	.LVL433-1
 17697 2014 0100     		.2byte	0x1
 17698 2016 50       		.byte	0x50
 17699 2017 3D000000 		.4byte	.LVL433-1
 17700 201b 42000000 		.4byte	.LVL434
 17701 201f 0100     		.2byte	0x1
 17702 2021 54       		.byte	0x54
 17703 2022 00000000 		.4byte	0
 17704 2026 00000000 		.4byte	0
 17705              	.LLST184:
 17706 202a 00000000 		.4byte	.LVL453
 17707 202e 06000000 		.4byte	.LVL454
 17708 2032 0200     		.2byte	0x2
 17709 2034 30       		.byte	0x30
 17710 2035 9F       		.byte	0x9f
 17711 2036 08000000 		.4byte	.LVL455
 17712 203a 38000000 		.4byte	.LVL463
 17713 203e 0100     		.2byte	0x1
 17714 2040 54       		.byte	0x54
 17715 2041 3A000000 		.4byte	.LVL464
 17716 2045 54000000 		.4byte	.LVL470
 17717 2049 0100     		.2byte	0x1
 17718 204b 54       		.byte	0x54
 17719 204c 00000000 		.4byte	0
 17720 2050 00000000 		.4byte	0
 17721              	.LLST185:
 17722 2054 28000000 		.4byte	.LVL459
 17723 2058 2C000000 		.4byte	.LVL460
 17724 205c 0100     		.2byte	0x1
 17725 205e 50       		.byte	0x50
 17726 205f 2C000000 		.4byte	.LVL460
 17727 2063 32000000 		.4byte	.LVL462
 17728 2067 0100     		.2byte	0x1
 17729 2069 55       		.byte	0x55
 17730 206a 3A000000 		.4byte	.LVL464
 17731 206e 40000000 		.4byte	.LVL465
 17732 2072 0100     		.2byte	0x1
 17733 2074 50       		.byte	0x50
 17734 2075 40000000 		.4byte	.LVL465
 17735 2079 54000000 		.4byte	.LVL470
 17736 207d 0100     		.2byte	0x1
 17737 207f 55       		.byte	0x55
 17738 2080 00000000 		.4byte	0
 17739 2084 00000000 		.4byte	0
ARM GAS  /tmp/ccSNToGX.s 			page 313


 17740              	.LLST186:
 17741 2088 44000000 		.4byte	.LVL466
 17742 208c 48000000 		.4byte	.LVL467
 17743 2090 0100     		.2byte	0x1
 17744 2092 50       		.byte	0x50
 17745 2093 4E000000 		.4byte	.LVL469
 17746 2097 54000000 		.4byte	.LVL470
 17747 209b 0100     		.2byte	0x1
 17748 209d 50       		.byte	0x50
 17749 209e 00000000 		.4byte	0
 17750 20a2 00000000 		.4byte	0
 17751              	.LLST187:
 17752 20a6 00000000 		.4byte	.LVL453
 17753 20aa 06000000 		.4byte	.LVL454
 17754 20ae 0200     		.2byte	0x2
 17755 20b0 30       		.byte	0x30
 17756 20b1 9F       		.byte	0x9f
 17757 20b2 14000000 		.4byte	.LVL457
 17758 20b6 18000000 		.4byte	.LVL458
 17759 20ba 0100     		.2byte	0x1
 17760 20bc 54       		.byte	0x54
 17761 20bd 00000000 		.4byte	0
 17762 20c1 00000000 		.4byte	0
 17763              	.LLST195:
 17764 20c5 00000000 		.4byte	.LVL501
 17765 20c9 09000000 		.4byte	.LVL502-1
 17766 20cd 0100     		.2byte	0x1
 17767 20cf 50       		.byte	0x50
 17768 20d0 09000000 		.4byte	.LVL502-1
 17769 20d4 A2000000 		.4byte	.LVL520
 17770 20d8 0100     		.2byte	0x1
 17771 20da 54       		.byte	0x54
 17772 20db A2000000 		.4byte	.LVL520
 17773 20df D4000000 		.4byte	.LFE357
 17774 20e3 0400     		.2byte	0x4
 17775 20e5 F3       		.byte	0xf3
 17776 20e6 01       		.uleb128 0x1
 17777 20e7 50       		.byte	0x50
 17778 20e8 9F       		.byte	0x9f
 17779 20e9 00000000 		.4byte	0
 17780 20ed 00000000 		.4byte	0
 17781              	.LLST196:
 17782 20f1 38000000 		.4byte	.LVL507
 17783 20f5 8A000000 		.4byte	.LVL515
 17784 20f9 0100     		.2byte	0x1
 17785 20fb 54       		.byte	0x54
 17786 20fc 90000000 		.4byte	.LVL516
 17787 2100 A0000000 		.4byte	.LVL519
 17788 2104 0100     		.2byte	0x1
 17789 2106 54       		.byte	0x54
 17790 2107 00000000 		.4byte	0
 17791 210b 00000000 		.4byte	0
 17792              		.section	.debug_aranges,"",%progbits
 17793 0000 2C020000 		.4byte	0x22c
 17794 0004 0200     		.2byte	0x2
 17795 0006 00000000 		.4byte	.Ldebug_info0
 17796 000a 04       		.byte	0x4
ARM GAS  /tmp/ccSNToGX.s 			page 314


 17797 000b 00       		.byte	0
 17798 000c 0000     		.2byte	0
 17799 000e 0000     		.2byte	0
 17800 0010 00000000 		.4byte	.LFB347
 17801 0014 94000000 		.4byte	.LFE347-.LFB347
 17802 0018 00000000 		.4byte	.LFB348
 17803 001c 64000000 		.4byte	.LFE348-.LFB348
 17804 0020 00000000 		.4byte	.LFB290
 17805 0024 0A000000 		.4byte	.LFE290-.LFB290
 17806 0028 00000000 		.4byte	.LFB291
 17807 002c 68000000 		.4byte	.LFE291-.LFB291
 17808 0030 00000000 		.4byte	.LFB292
 17809 0034 04000000 		.4byte	.LFE292-.LFB292
 17810 0038 00000000 		.4byte	.LFB293
 17811 003c 68000000 		.4byte	.LFE293-.LFB293
 17812 0040 00000000 		.4byte	.LFB294
 17813 0044 06000000 		.4byte	.LFE294-.LFB294
 17814 0048 00000000 		.4byte	.LFB295
 17815 004c 0C000000 		.4byte	.LFE295-.LFB295
 17816 0050 00000000 		.4byte	.LFB296
 17817 0054 0C000000 		.4byte	.LFE296-.LFB296
 17818 0058 00000000 		.4byte	.LFB297
 17819 005c 04000000 		.4byte	.LFE297-.LFB297
 17820 0060 00000000 		.4byte	.LFB298
 17821 0064 3A000000 		.4byte	.LFE298-.LFB298
 17822 0068 00000000 		.4byte	.LFB299
 17823 006c 30000000 		.4byte	.LFE299-.LFB299
 17824 0070 00000000 		.4byte	.LFB300
 17825 0074 18000000 		.4byte	.LFE300-.LFB300
 17826 0078 00000000 		.4byte	.LFB301
 17827 007c 28000000 		.4byte	.LFE301-.LFB301
 17828 0080 00000000 		.4byte	.LFB302
 17829 0084 08000000 		.4byte	.LFE302-.LFB302
 17830 0088 00000000 		.4byte	.LFB310
 17831 008c 2C000000 		.4byte	.LFE310-.LFB310
 17832 0090 00000000 		.4byte	.LFB311
 17833 0094 2C000000 		.4byte	.LFE311-.LFB311
 17834 0098 00000000 		.4byte	.LFB320
 17835 009c 5C000000 		.4byte	.LFE320-.LFB320
 17836 00a0 00000000 		.4byte	.LFB326
 17837 00a4 30000000 		.4byte	.LFE326-.LFB326
 17838 00a8 00000000 		.4byte	.LFB327
 17839 00ac 30000000 		.4byte	.LFE327-.LFB327
 17840 00b0 00000000 		.4byte	.LFB328
 17841 00b4 1C000000 		.4byte	.LFE328-.LFB328
 17842 00b8 00000000 		.4byte	.LFB329
 17843 00bc 18000000 		.4byte	.LFE329-.LFB329
 17844 00c0 00000000 		.4byte	.LFB330
 17845 00c4 34000000 		.4byte	.LFE330-.LFB330
 17846 00c8 00000000 		.4byte	.LFB331
 17847 00cc 44000000 		.4byte	.LFE331-.LFB331
 17848 00d0 00000000 		.4byte	.LFB332
 17849 00d4 20000000 		.4byte	.LFE332-.LFB332
 17850 00d8 00000000 		.4byte	.LFB333
 17851 00dc 34000000 		.4byte	.LFE333-.LFB333
 17852 00e0 00000000 		.4byte	.LFB334
 17853 00e4 44000000 		.4byte	.LFE334-.LFB334
ARM GAS  /tmp/ccSNToGX.s 			page 315


 17854 00e8 00000000 		.4byte	.LFB335
 17855 00ec 38000000 		.4byte	.LFE335-.LFB335
 17856 00f0 00000000 		.4byte	.LFB338
 17857 00f4 34000000 		.4byte	.LFE338-.LFB338
 17858 00f8 00000000 		.4byte	.LFB339
 17859 00fc 28000000 		.4byte	.LFE339-.LFB339
 17860 0100 00000000 		.4byte	.LFB340
 17861 0104 30000000 		.4byte	.LFE340-.LFB340
 17862 0108 00000000 		.4byte	.LFB341
 17863 010c 54000000 		.4byte	.LFE341-.LFB341
 17864 0110 00000000 		.4byte	.LFB342
 17865 0114 0A000000 		.4byte	.LFE342-.LFB342
 17866 0118 00000000 		.4byte	.LFB343
 17867 011c 08000000 		.4byte	.LFE343-.LFB343
 17868 0120 00000000 		.4byte	.LFB344
 17869 0124 14000000 		.4byte	.LFE344-.LFB344
 17870 0128 00000000 		.4byte	.LFB345
 17871 012c 14000000 		.4byte	.LFE345-.LFB345
 17872 0130 00000000 		.4byte	.LFB346
 17873 0134 50000000 		.4byte	.LFE346-.LFB346
 17874 0138 00000000 		.4byte	.LFB349
 17875 013c 10000000 		.4byte	.LFE349-.LFB349
 17876 0140 00000000 		.4byte	.LFB350
 17877 0144 30000000 		.4byte	.LFE350-.LFB350
 17878 0148 00000000 		.4byte	.LFB352
 17879 014c E0000000 		.4byte	.LFE352-.LFB352
 17880 0150 00000000 		.4byte	.LFB324
 17881 0154 B0000000 		.4byte	.LFE324-.LFB324
 17882 0158 00000000 		.4byte	.LFB353
 17883 015c 50000000 		.4byte	.LFE353-.LFB353
 17884 0160 00000000 		.4byte	.LFB325
 17885 0164 44000000 		.4byte	.LFE325-.LFB325
 17886 0168 00000000 		.4byte	.LFB354
 17887 016c 28000000 		.4byte	.LFE354-.LFB354
 17888 0170 00000000 		.4byte	.LFB306
 17889 0174 2E000000 		.4byte	.LFE306-.LFB306
 17890 0178 00000000 		.4byte	.LFB303
 17891 017c 16000000 		.4byte	.LFE303-.LFB303
 17892 0180 00000000 		.4byte	.LFB307
 17893 0184 70000000 		.4byte	.LFE307-.LFB307
 17894 0188 00000000 		.4byte	.LFB304
 17895 018c 28000000 		.4byte	.LFE304-.LFB304
 17896 0190 00000000 		.4byte	.LFB305
 17897 0194 08000000 		.4byte	.LFE305-.LFB305
 17898 0198 00000000 		.4byte	.LFB308
 17899 019c 08000000 		.4byte	.LFE308-.LFB308
 17900 01a0 00000000 		.4byte	.LFB314
 17901 01a4 54000000 		.4byte	.LFE314-.LFB314
 17902 01a8 00000000 		.4byte	.LFB317
 17903 01ac 9C000000 		.4byte	.LFE317-.LFB317
 17904 01b0 00000000 		.4byte	.LFB313
 17905 01b4 1C000000 		.4byte	.LFE313-.LFB313
 17906 01b8 00000000 		.4byte	.LFB319
 17907 01bc 54000000 		.4byte	.LFE319-.LFB319
 17908 01c0 00000000 		.4byte	.LFB318
 17909 01c4 22000000 		.4byte	.LFE318-.LFB318
 17910 01c8 00000000 		.4byte	.LFB321
ARM GAS  /tmp/ccSNToGX.s 			page 316


 17911 01cc 94000000 		.4byte	.LFE321-.LFB321
 17912 01d0 00000000 		.4byte	.LFB315
 17913 01d4 1C000000 		.4byte	.LFE315-.LFB315
 17914 01d8 00000000 		.4byte	.LFB355
 17915 01dc 4C000000 		.4byte	.LFE355-.LFB355
 17916 01e0 00000000 		.4byte	.LFB309
 17917 01e4 4C000000 		.4byte	.LFE309-.LFB309
 17918 01e8 00000000 		.4byte	.LFB323
 17919 01ec 18000000 		.4byte	.LFE323-.LFB323
 17920 01f0 00000000 		.4byte	.LFB356
 17921 01f4 5C000000 		.4byte	.LFE356-.LFB356
 17922 01f8 00000000 		.4byte	.LFB316
 17923 01fc F0000000 		.4byte	.LFE316-.LFB316
 17924 0200 00000000 		.4byte	.LFB357
 17925 0204 D4000000 		.4byte	.LFE357-.LFB357
 17926 0208 00000000 		.4byte	.LFB312
 17927 020c 1A000000 		.4byte	.LFE312-.LFB312
 17928 0210 00000000 		.4byte	.LFB322
 17929 0214 24000000 		.4byte	.LFE322-.LFB322
 17930 0218 00000000 		.4byte	.LFB358
 17931 021c 40000000 		.4byte	.LFE358-.LFB358
 17932 0220 00000000 		.4byte	.LFB359
 17933 0224 44000000 		.4byte	.LFE359-.LFB359
 17934 0228 00000000 		.4byte	0
 17935 022c 00000000 		.4byte	0
 17936              		.section	.debug_ranges,"",%progbits
 17937              	.Ldebug_ranges0:
 17938 0000 04000000 		.4byte	.LBB115
 17939 0004 06000000 		.4byte	.LBE115
 17940 0008 1A000000 		.4byte	.LBB121
 17941 000c 1C000000 		.4byte	.LBE121
 17942 0010 1E000000 		.4byte	.LBB122
 17943 0014 5E000000 		.4byte	.LBE122
 17944 0018 66000000 		.4byte	.LBB123
 17945 001c 8C000000 		.4byte	.LBE123
 17946 0020 94000000 		.4byte	.LBB124
 17947 0024 E0000000 		.4byte	.LBE124
 17948 0028 00000000 		.4byte	0
 17949 002c 00000000 		.4byte	0
 17950 0030 00000000 		.4byte	.LBB131
 17951 0034 02000000 		.4byte	.LBE131
 17952 0038 04000000 		.4byte	.LBB134
 17953 003c 06000000 		.4byte	.LBE134
 17954 0040 00000000 		.4byte	0
 17955 0044 00000000 		.4byte	0
 17956 0048 0C000000 		.4byte	.LBB149
 17957 004c 0E000000 		.4byte	.LBE149
 17958 0050 10000000 		.4byte	.LBB152
 17959 0054 12000000 		.4byte	.LBE152
 17960 0058 00000000 		.4byte	0
 17961 005c 00000000 		.4byte	0
 17962 0060 24000000 		.4byte	.LBB153
 17963 0064 3E000000 		.4byte	.LBE153
 17964 0068 46000000 		.4byte	.LBB154
 17965 006c 52000000 		.4byte	.LBE154
 17966 0070 00000000 		.4byte	0
 17967 0074 00000000 		.4byte	0
ARM GAS  /tmp/ccSNToGX.s 			page 317


 17968 0078 0A000000 		.4byte	.LBB162
 17969 007c 0C000000 		.4byte	.LBE162
 17970 0080 0E000000 		.4byte	.LBB165
 17971 0084 10000000 		.4byte	.LBE165
 17972 0088 00000000 		.4byte	0
 17973 008c 00000000 		.4byte	0
 17974 0090 28000000 		.4byte	.LBB168
 17975 0094 40000000 		.4byte	.LBE168
 17976 0098 48000000 		.4byte	.LBB171
 17977 009c 50000000 		.4byte	.LBE171
 17978 00a0 00000000 		.4byte	0
 17979 00a4 00000000 		.4byte	0
 17980 00a8 30000000 		.4byte	.LBB169
 17981 00ac 40000000 		.4byte	.LBE169
 17982 00b0 48000000 		.4byte	.LBB170
 17983 00b4 50000000 		.4byte	.LBE170
 17984 00b8 00000000 		.4byte	0
 17985 00bc 00000000 		.4byte	0
 17986 00c0 00000000 		.4byte	.LBB178
 17987 00c4 02000000 		.4byte	.LBE178
 17988 00c8 06000000 		.4byte	.LBB181
 17989 00cc 08000000 		.4byte	.LBE181
 17990 00d0 00000000 		.4byte	0
 17991 00d4 00000000 		.4byte	0
 17992 00d8 38000000 		.4byte	.LBB194
 17993 00dc 8A000000 		.4byte	.LBE194
 17994 00e0 90000000 		.4byte	.LBB197
 17995 00e4 A0000000 		.4byte	.LBE197
 17996 00e8 00000000 		.4byte	0
 17997 00ec 00000000 		.4byte	0
 17998 00f0 00000000 		.4byte	.LFB347
 17999 00f4 94000000 		.4byte	.LFE347
 18000 00f8 00000000 		.4byte	.LFB348
 18001 00fc 64000000 		.4byte	.LFE348
 18002 0100 00000000 		.4byte	.LFB290
 18003 0104 0A000000 		.4byte	.LFE290
 18004 0108 00000000 		.4byte	.LFB291
 18005 010c 68000000 		.4byte	.LFE291
 18006 0110 00000000 		.4byte	.LFB292
 18007 0114 04000000 		.4byte	.LFE292
 18008 0118 00000000 		.4byte	.LFB293
 18009 011c 68000000 		.4byte	.LFE293
 18010 0120 00000000 		.4byte	.LFB294
 18011 0124 06000000 		.4byte	.LFE294
 18012 0128 00000000 		.4byte	.LFB295
 18013 012c 0C000000 		.4byte	.LFE295
 18014 0130 00000000 		.4byte	.LFB296
 18015 0134 0C000000 		.4byte	.LFE296
 18016 0138 00000000 		.4byte	.LFB297
 18017 013c 04000000 		.4byte	.LFE297
 18018 0140 00000000 		.4byte	.LFB298
 18019 0144 3A000000 		.4byte	.LFE298
 18020 0148 00000000 		.4byte	.LFB299
 18021 014c 30000000 		.4byte	.LFE299
 18022 0150 00000000 		.4byte	.LFB300
 18023 0154 18000000 		.4byte	.LFE300
 18024 0158 00000000 		.4byte	.LFB301
ARM GAS  /tmp/ccSNToGX.s 			page 318


 18025 015c 28000000 		.4byte	.LFE301
 18026 0160 00000000 		.4byte	.LFB302
 18027 0164 08000000 		.4byte	.LFE302
 18028 0168 00000000 		.4byte	.LFB310
 18029 016c 2C000000 		.4byte	.LFE310
 18030 0170 00000000 		.4byte	.LFB311
 18031 0174 2C000000 		.4byte	.LFE311
 18032 0178 00000000 		.4byte	.LFB320
 18033 017c 5C000000 		.4byte	.LFE320
 18034 0180 00000000 		.4byte	.LFB326
 18035 0184 30000000 		.4byte	.LFE326
 18036 0188 00000000 		.4byte	.LFB327
 18037 018c 30000000 		.4byte	.LFE327
 18038 0190 00000000 		.4byte	.LFB328
 18039 0194 1C000000 		.4byte	.LFE328
 18040 0198 00000000 		.4byte	.LFB329
 18041 019c 18000000 		.4byte	.LFE329
 18042 01a0 00000000 		.4byte	.LFB330
 18043 01a4 34000000 		.4byte	.LFE330
 18044 01a8 00000000 		.4byte	.LFB331
 18045 01ac 44000000 		.4byte	.LFE331
 18046 01b0 00000000 		.4byte	.LFB332
 18047 01b4 20000000 		.4byte	.LFE332
 18048 01b8 00000000 		.4byte	.LFB333
 18049 01bc 34000000 		.4byte	.LFE333
 18050 01c0 00000000 		.4byte	.LFB334
 18051 01c4 44000000 		.4byte	.LFE334
 18052 01c8 00000000 		.4byte	.LFB335
 18053 01cc 38000000 		.4byte	.LFE335
 18054 01d0 00000000 		.4byte	.LFB338
 18055 01d4 34000000 		.4byte	.LFE338
 18056 01d8 00000000 		.4byte	.LFB339
 18057 01dc 28000000 		.4byte	.LFE339
 18058 01e0 00000000 		.4byte	.LFB340
 18059 01e4 30000000 		.4byte	.LFE340
 18060 01e8 00000000 		.4byte	.LFB341
 18061 01ec 54000000 		.4byte	.LFE341
 18062 01f0 00000000 		.4byte	.LFB342
 18063 01f4 0A000000 		.4byte	.LFE342
 18064 01f8 00000000 		.4byte	.LFB343
 18065 01fc 08000000 		.4byte	.LFE343
 18066 0200 00000000 		.4byte	.LFB344
 18067 0204 14000000 		.4byte	.LFE344
 18068 0208 00000000 		.4byte	.LFB345
 18069 020c 14000000 		.4byte	.LFE345
 18070 0210 00000000 		.4byte	.LFB346
 18071 0214 50000000 		.4byte	.LFE346
 18072 0218 00000000 		.4byte	.LFB349
 18073 021c 10000000 		.4byte	.LFE349
 18074 0220 00000000 		.4byte	.LFB350
 18075 0224 30000000 		.4byte	.LFE350
 18076 0228 00000000 		.4byte	.LFB352
 18077 022c E0000000 		.4byte	.LFE352
 18078 0230 00000000 		.4byte	.LFB324
 18079 0234 B0000000 		.4byte	.LFE324
 18080 0238 00000000 		.4byte	.LFB353
 18081 023c 50000000 		.4byte	.LFE353
ARM GAS  /tmp/ccSNToGX.s 			page 319


 18082 0240 00000000 		.4byte	.LFB325
 18083 0244 44000000 		.4byte	.LFE325
 18084 0248 00000000 		.4byte	.LFB354
 18085 024c 28000000 		.4byte	.LFE354
 18086 0250 00000000 		.4byte	.LFB306
 18087 0254 2E000000 		.4byte	.LFE306
 18088 0258 00000000 		.4byte	.LFB303
 18089 025c 16000000 		.4byte	.LFE303
 18090 0260 00000000 		.4byte	.LFB307
 18091 0264 70000000 		.4byte	.LFE307
 18092 0268 00000000 		.4byte	.LFB304
 18093 026c 28000000 		.4byte	.LFE304
 18094 0270 00000000 		.4byte	.LFB305
 18095 0274 08000000 		.4byte	.LFE305
 18096 0278 00000000 		.4byte	.LFB308
 18097 027c 08000000 		.4byte	.LFE308
 18098 0280 00000000 		.4byte	.LFB314
 18099 0284 54000000 		.4byte	.LFE314
 18100 0288 00000000 		.4byte	.LFB317
 18101 028c 9C000000 		.4byte	.LFE317
 18102 0290 00000000 		.4byte	.LFB313
 18103 0294 1C000000 		.4byte	.LFE313
 18104 0298 00000000 		.4byte	.LFB319
 18105 029c 54000000 		.4byte	.LFE319
 18106 02a0 00000000 		.4byte	.LFB318
 18107 02a4 22000000 		.4byte	.LFE318
 18108 02a8 00000000 		.4byte	.LFB321
 18109 02ac 94000000 		.4byte	.LFE321
 18110 02b0 00000000 		.4byte	.LFB315
 18111 02b4 1C000000 		.4byte	.LFE315
 18112 02b8 00000000 		.4byte	.LFB355
 18113 02bc 4C000000 		.4byte	.LFE355
 18114 02c0 00000000 		.4byte	.LFB309
 18115 02c4 4C000000 		.4byte	.LFE309
 18116 02c8 00000000 		.4byte	.LFB323
 18117 02cc 18000000 		.4byte	.LFE323
 18118 02d0 00000000 		.4byte	.LFB356
 18119 02d4 5C000000 		.4byte	.LFE356
 18120 02d8 00000000 		.4byte	.LFB316
 18121 02dc F0000000 		.4byte	.LFE316
 18122 02e0 00000000 		.4byte	.LFB357
 18123 02e4 D4000000 		.4byte	.LFE357
 18124 02e8 00000000 		.4byte	.LFB312
 18125 02ec 1A000000 		.4byte	.LFE312
 18126 02f0 00000000 		.4byte	.LFB322
 18127 02f4 24000000 		.4byte	.LFE322
 18128 02f8 00000000 		.4byte	.LFB358
 18129 02fc 40000000 		.4byte	.LFE358
 18130 0300 00000000 		.4byte	.LFB359
 18131 0304 44000000 		.4byte	.LFE359
 18132 0308 00000000 		.4byte	0
 18133 030c 00000000 		.4byte	0
 18134              		.section	.debug_line,"",%progbits
 18135              	.Ldebug_line0:
 18136 0000 D40C0000 		.section	.debug_str,"MS",%progbits,1
 18136      02005704 
 18136      00000201 
ARM GAS  /tmp/ccSNToGX.s 			page 320


 18136      FB0E0D00 
 18136      01010101 
 18137              	.LASF267:
 18138 0000 63685F6D 		.ascii	"ch_memcore\000"
 18138      656D636F 
 18138      726500
 18139              	.LASF232:
 18140 000b 73656E74 		.ascii	"sentmsg\000"
 18140      6D736700 
 18141              	.LASF215:
 18142 0013 706F7274 		.ascii	"port_intctx\000"
 18142      5F696E74 
 18142      63747800 
 18143              	.LASF383:
 18144 001f 5F737973 		.ascii	"_sys_errlist\000"
 18144      5F657272 
 18144      6C697374 
 18144      00
 18145              	.LASF157:
 18146 002c 6D73675F 		.ascii	"msg_t\000"
 18146      7400
 18147              	.LASF226:
 18148 0032 6D5F6372 		.ascii	"m_crit_isr\000"
 18148      69745F69 
 18148      737200
 18149              	.LASF371:
 18150 003d 746D5F73 		.ascii	"tm_sec\000"
 18150      656300
 18151              	.LASF355:
 18152 0044 46525F54 		.ascii	"FR_TOO_MANY_OPEN_FILES\000"
 18152      4F4F5F4D 
 18152      414E595F 
 18152      4F50454E 
 18152      5F46494C 
 18153              	.LASF367:
 18154 005b 6769645F 		.ascii	"gid_t\000"
 18154      7400
 18155              	.LASF324:
 18156 0061 66707472 		.ascii	"fptr\000"
 18156      00
 18157              	.LASF200:
 18158 0066 63685F73 		.ascii	"ch_system_t\000"
 18158      79737465 
 18158      6D5F7400 
 18159              	.LASF5:
 18160 0072 5F5F7569 		.ascii	"__uint8_t\000"
 18160      6E74385F 
 18160      7400
 18161              	.LASF452:
 18162 007c 6D6B6469 		.ascii	"mkdir\000"
 18162      7200
 18163              	.LASF233:
 18164 0082 77747365 		.ascii	"wtsemp\000"
 18164      6D7000
 18165              	.LASF262:
 18166 0089 5F426F6F 		.ascii	"_Bool\000"
 18166      6C00
ARM GAS  /tmp/ccSNToGX.s 			page 321


 18167              	.LASF357:
 18168 008f 46524553 		.ascii	"FRESULT\000"
 18168      554C5400 
 18169              	.LASF174:
 18170 0097 6570656E 		.ascii	"epending\000"
 18170      64696E67 
 18170      00
 18171              	.LASF425:
 18172 00a0 484F5552 		.ascii	"HOUR\000"
 18172      00
 18173              	.LASF80:
 18174 00a5 5F6D6273 		.ascii	"_mbstate\000"
 18174      74617465 
 18174      00
 18175              	.LASF351:
 18176 00ae 46525F4D 		.ascii	"FR_MKFS_ABORTED\000"
 18176      4B46535F 
 18176      41424F52 
 18176      54454400 
 18177              	.LASF59:
 18178 00be 5F617465 		.ascii	"_atexit\000"
 18178      78697400 
 18179              	.LASF271:
 18180 00c6 70726F76 		.ascii	"provider\000"
 18180      69646572 
 18180      00
 18181              	.LASF285:
 18182 00cf 6F626A65 		.ascii	"objects_factory_t\000"
 18182      6374735F 
 18182      66616374 
 18182      6F72795F 
 18182      7400
 18183              	.LASF263:
 18184 00e1 6D656D67 		.ascii	"memgetfunc_t\000"
 18184      65746675 
 18184      6E635F74 
 18184      00
 18185              	.LASF482:
 18186 00ee 66777269 		.ascii	"fwrite\000"
 18186      746500
 18187              	.LASF219:
 18188 00f5 776F7273 		.ascii	"worst\000"
 18188      7400
 18189              	.LASF164:
 18190 00fb 7072696F 		.ascii	"prio\000"
 18190      00
 18191              	.LASF309:
 18192 0100 64697262 		.ascii	"dirbase\000"
 18192      61736500 
 18193              	.LASF49:
 18194 0108 5F5F746D 		.ascii	"__tm_mon\000"
 18194      5F6D6F6E 
 18194      00
 18195              	.LASF57:
 18196 0111 5F666E74 		.ascii	"_fntypes\000"
 18196      79706573 
 18196      00
ARM GAS  /tmp/ccSNToGX.s 			page 322


 18197              	.LASF335:
 18198 011a 666E616D 		.ascii	"fname\000"
 18198      6500
 18199              	.LASF87:
 18200 0120 5F696E63 		.ascii	"_inc\000"
 18200      00
 18201              	.LASF60:
 18202 0125 5F696E64 		.ascii	"_ind\000"
 18202      00
 18203              	.LASF479:
 18204 012a 72656164 		.ascii	"read\000"
 18204      00
 18205              	.LASF318:
 18206 012f 6E5F6672 		.ascii	"n_frag\000"
 18206      616700
 18207              	.LASF497:
 18208 0136 66656F66 		.ascii	"feof\000"
 18208      00
 18209              	.LASF140:
 18210 013b 75696E74 		.ascii	"uint16_t\000"
 18210      31365F74 
 18210      00
 18211              	.LASF537:
 18212 0144 474E5520 		.ascii	"GNU C11 6.3.1 20170620 (release) [ARM/embedded-6-br"
 18212      43313120 
 18212      362E332E 
 18212      31203230 
 18212      31373036 
 18213 0177 616E6368 		.ascii	"anch revision 249437] -mcpu=cortex-m4 -mfloat-abi=h"
 18213      20726576 
 18213      6973696F 
 18213      6E203234 
 18213      39343337 
 18214 01aa 61726420 		.ascii	"ard -mfpu=fpv4-sp-d16 -mno-thumb-interwork -mthumb "
 18214      2D6D6670 
 18214      753D6670 
 18214      76342D73 
 18214      702D6431 
 18215 01dd 2D67202D 		.ascii	"-g -Os -fomit-frame-pointer -falign-functions=16 -f"
 18215      4F73202D 
 18215      666F6D69 
 18215      742D6672 
 18215      616D652D 
 18216 0210 66756E63 		.ascii	"function-sections -fdata-sections -fno-common -fsin"
 18216      74696F6E 
 18216      2D736563 
 18216      74696F6E 
 18216      73202D66 
 18217 0243 676C652D 		.ascii	"gle-precision-constant\000"
 18217      70726563 
 18217      6973696F 
 18217      6E2D636F 
 18217      6E737461 
 18218              	.LASF277:
 18219 025a 63685F6F 		.ascii	"ch_objects_factory\000"
 18219      626A6563 
 18219      74735F66 
ARM GAS  /tmp/ccSNToGX.s 			page 323


 18219      6163746F 
 18219      727900
 18220              	.LASF362:
 18221 026d 74696D65 		.ascii	"time_t\000"
 18221      5F7400
 18222              	.LASF506:
 18223 0274 66707574 		.ascii	"fputc\000"
 18223      6300
 18224              	.LASF66:
 18225 027a 5F666C61 		.ascii	"_flags\000"
 18225      677300
 18226              	.LASF182:
 18227 0281 6E657874 		.ascii	"next\000"
 18227      00
 18228              	.LASF166:
 18229 0286 6F6C6465 		.ascii	"older\000"
 18229      7200
 18230              	.LASF476:
 18231 028c 6C656E67 		.ascii	"length\000"
 18231      746800
 18232              	.LASF273:
 18233 0293 63685F64 		.ascii	"ch_dyn_element\000"
 18233      796E5F65 
 18233      6C656D65 
 18233      6E7400
 18234              	.LASF516:
 18235 02a2 63616C6C 		.ascii	"calloc\000"
 18235      6F6300
 18236              	.LASF25:
 18237 02a9 5F5F6F66 		.ascii	"__off_t\000"
 18237      665F7400 
 18238              	.LASF97:
 18239 02b1 5F637674 		.ascii	"_cvtlen\000"
 18239      6C656E00 
 18240              	.LASF356:
 18241 02b9 46525F49 		.ascii	"FR_INVALID_PARAMETER\000"
 18241      4E56414C 
 18241      49445F50 
 18241      4152414D 
 18241      45544552 
 18242              	.LASF184:
 18243 02ce 63685F74 		.ascii	"ch_threads_queue\000"
 18243      68726561 
 18243      64735F71 
 18243      75657565 
 18243      00
 18244              	.LASF101:
 18245 02df 5F736967 		.ascii	"_sig_func\000"
 18245      5F66756E 
 18245      6300
 18246              	.LASF392:
 18247 02e9 73745F73 		.ascii	"st_size\000"
 18247      697A6500 
 18248              	.LASF527:
 18249 02f1 665F6765 		.ascii	"f_getfree\000"
 18249      74667265 
 18249      6500
ARM GAS  /tmp/ccSNToGX.s 			page 324


 18250              	.LASF379:
 18251 02fb 746D5F69 		.ascii	"tm_isdst\000"
 18251      73647374 
 18251      00
 18252              	.LASF146:
 18253 0304 42595445 		.ascii	"BYTE\000"
 18253      00
 18254              	.LASF255:
 18255 0309 6F66665F 		.ascii	"off_refs\000"
 18255      72656673 
 18255      00
 18256              	.LASF79:
 18257 0312 5F6C6F63 		.ascii	"_lock\000"
 18257      6B00
 18258              	.LASF75:
 18259 0318 5F6E6275 		.ascii	"_nbuf\000"
 18259      6600
 18260              	.LASF133:
 18261 031e 5F756E75 		.ascii	"_unused\000"
 18261      73656400 
 18262              	.LASF458:
 18263 0326 62617365 		.ascii	"basename\000"
 18263      6E616D65 
 18263      00
 18264              	.LASF481:
 18265 032f 66617466 		.ascii	"fatfs_modes\000"
 18265      735F6D6F 
 18265      64657300 
 18266              	.LASF161:
 18267 033b 74687265 		.ascii	"thread_t\000"
 18267      61645F74 
 18267      00
 18268              	.LASF393:
 18269 0344 73745F62 		.ascii	"st_blksize\000"
 18269      6C6B7369 
 18269      7A6500
 18270              	.LASF195:
 18271 034f 63685F76 		.ascii	"ch_virtual_timers_list\000"
 18271      69727475 
 18271      616C5F74 
 18271      696D6572 
 18271      735F6C69 
 18272              	.LASF141:
 18273 0366 696E7433 		.ascii	"int32_t\000"
 18273      325F7400 
 18274              	.LASF206:
 18275 036e 73797374 		.ascii	"systime_t\000"
 18275      696D655F 
 18275      7400
 18276              	.LASF111:
 18277 0378 5F616464 		.ascii	"_add\000"
 18277      00
 18278              	.LASF149:
 18279 037d 44574F52 		.ascii	"DWORD\000"
 18279      4400
 18280              	.LASF245:
 18281 0383 74696D65 		.ascii	"timesize\000"
ARM GAS  /tmp/ccSNToGX.s 			page 325


 18281      73697A65 
 18281      00
 18282              	.LASF321:
 18283 038c 635F6F66 		.ascii	"c_ofs\000"
 18283      7300
 18284              	.LASF390:
 18285 0392 73745F67 		.ascii	"st_gid\000"
 18285      696400
 18286              	.LASF510:
 18287 0399 5F5F6572 		.ascii	"__errno\000"
 18287      726E6F00 
 18288              	.LASF68:
 18289 03a1 5F6C6266 		.ascii	"_lbfsize\000"
 18289      73697A65 
 18289      00
 18290              	.LASF171:
 18291 03aa 72656673 		.ascii	"refs\000"
 18291      00
 18292              	.LASF304:
 18293 03af 6364635F 		.ascii	"cdc_ofs\000"
 18293      6F667300 
 18294              	.LASF175:
 18295 03b7 6D74786C 		.ascii	"mtxlist\000"
 18295      69737400 
 18296              	.LASF388:
 18297 03bf 73745F6E 		.ascii	"st_nlink\000"
 18297      6C696E6B 
 18297      00
 18298              	.LASF78:
 18299 03c8 5F646174 		.ascii	"_data\000"
 18299      6100
 18300              	.LASF203:
 18301 03ce 76746C69 		.ascii	"vtlist\000"
 18301      737400
 18302              	.LASF536:
 18303 03d5 66726565 		.ascii	"free\000"
 18303      00
 18304              	.LASF227:
 18305 03da 6B65726E 		.ascii	"kernel_stats_t\000"
 18305      656C5F73 
 18305      74617473 
 18305      5F7400
 18306              	.LASF381:
 18307 03e9 5F646179 		.ascii	"_daylight\000"
 18307      6C696768 
 18307      7400
 18308              	.LASF202:
 18309 03f3 726C6973 		.ascii	"rlist\000"
 18309      7400
 18310              	.LASF180:
 18311 03f9 74687265 		.ascii	"threads_list_t\000"
 18311      6164735F 
 18311      6C697374 
 18311      5F7400
 18312              	.LASF217:
 18313 0408 746D5F63 		.ascii	"tm_calibration_t\000"
 18313      616C6962 
ARM GAS  /tmp/ccSNToGX.s 			page 326


 18313      72617469 
 18313      6F6E5F74 
 18313      00
 18314              	.LASF134:
 18315 0419 5F5F6C6F 		.ascii	"__lock\000"
 18315      636B00
 18316              	.LASF449:
 18317 0420 72656E61 		.ascii	"rename\000"
 18317      6D6500
 18318              	.LASF82:
 18319 0427 5F726565 		.ascii	"_reent\000"
 18319      6E7400
 18320              	.LASF152:
 18321 042e 72747469 		.ascii	"rttime_t\000"
 18321      6D655F74 
 18321      00
 18322              	.LASF414:
 18323 0437 706F7369 		.ascii	"posix_fopen_modes_to_open\000"
 18323      785F666F 
 18323      70656E5F 
 18323      6D6F6465 
 18323      735F746F 
 18324              	.LASF103:
 18325 0451 5F5F7366 		.ascii	"__sf\000"
 18325      00
 18326              	.LASF63:
 18327 0456 5F626173 		.ascii	"_base\000"
 18327      6500
 18328              	.LASF120:
 18329 045c 5F6D6274 		.ascii	"_mbtowc_state\000"
 18329      6F77635F 
 18329      73746174 
 18329      6500
 18330              	.LASF508:
 18331 046a 66676574 		.ascii	"fgetc\000"
 18331      6300
 18332              	.LASF328:
 18333 0470 6469725F 		.ascii	"dir_ptr\000"
 18333      70747200 
 18334              	.LASF445:
 18335 0478 72656D6F 		.ascii	"remove\000"
 18335      766500
 18336              	.LASF156:
 18337 047f 74707269 		.ascii	"tprio_t\000"
 18337      6F5F7400 
 18338              	.LASF223:
 18339 0487 6E5F6972 		.ascii	"n_irq\000"
 18339      7100
 18340              	.LASF313:
 18341 048d 61747472 		.ascii	"attr\000"
 18341      00
 18342              	.LASF325:
 18343 0492 636C7573 		.ascii	"clust\000"
 18343      7400
 18344              	.LASF44:
 18345 0498 5F5F746D 		.ascii	"__tm\000"
 18345      00
ARM GAS  /tmp/ccSNToGX.s 			page 327


 18346              	.LASF275:
 18347 049d 63685F64 		.ascii	"ch_dyn_list\000"
 18347      796E5F6C 
 18347      69737400 
 18348              	.LASF150:
 18349 04a9 51574F52 		.ascii	"QWORD\000"
 18349      4400
 18350              	.LASF241:
 18351 04af 7A65726F 		.ascii	"zero\000"
 18351      00
 18352              	.LASF521:
 18353 04b4 665F636C 		.ascii	"f_closedir\000"
 18353      6F736564 
 18353      697200
 18354              	.LASF52:
 18355 04bf 5F5F746D 		.ascii	"__tm_yday\000"
 18355      5F796461 
 18355      7900
 18356              	.LASF218:
 18357 04c9 62657374 		.ascii	"best\000"
 18357      00
 18358              	.LASF270:
 18359 04ce 616C6967 		.ascii	"align\000"
 18359      6E00
 18360              	.LASF18:
 18361 04d4 5F4C4F43 		.ascii	"_LOCK_T\000"
 18361      4B5F5400 
 18362              	.LASF447:
 18363 04dc 756E6C69 		.ascii	"unlink\000"
 18363      6E6B00
 18364              	.LASF457:
 18365 04e3 62617365 		.ascii	"baseext\000"
 18365      65787400 
 18366              	.LASF446:
 18367 04eb 70617468 		.ascii	"pathname\000"
 18367      6E616D65 
 18367      00
 18368              	.LASF21:
 18369 04f4 5F5F7569 		.ascii	"__uid_t\000"
 18369      645F7400 
 18370              	.LASF7:
 18371 04fc 5F5F696E 		.ascii	"__int16_t\000"
 18371      7431365F 
 18371      7400
 18372              	.LASF9:
 18373 0506 5F5F7569 		.ascii	"__uint16_t\000"
 18373      6E743136 
 18373      5F7400
 18374              	.LASF112:
 18375 0511 5F756E75 		.ascii	"_unused_rand\000"
 18375      7365645F 
 18375      72616E64 
 18375      00
 18376              	.LASF353:
 18377 051e 46525F4C 		.ascii	"FR_LOCKED\000"
 18377      4F434B45 
 18377      4400
ARM GAS  /tmp/ccSNToGX.s 			page 328


 18378              	.LASF147:
 18379 0528 574F5244 		.ascii	"WORD\000"
 18379      00
 18380              	.LASF165:
 18381 052d 6E657765 		.ascii	"newer\000"
 18381      7200
 18382              	.LASF503:
 18383 0533 70757463 		.ascii	"putchar\000"
 18383      68617200 
 18384              	.LASF492:
 18385 053b 7768656E 		.ascii	"whence\000"
 18385      636500
 18386              	.LASF94:
 18387 0542 5F726573 		.ascii	"_result_k\000"
 18387      756C745F 
 18387      6B00
 18388              	.LASF417:
 18389 054c 6D6F6465 		.ascii	"mode\000"
 18389      00
 18390              	.LASF86:
 18391 0551 5F737464 		.ascii	"_stderr\000"
 18391      65727200 
 18392              	.LASF93:
 18393 0559 5F726573 		.ascii	"_result\000"
 18393      756C7400 
 18394              	.LASF334:
 18395 0561 616C746E 		.ascii	"altname\000"
 18395      616D6500 
 18396              	.LASF56:
 18397 0569 5F64736F 		.ascii	"_dso_handle\000"
 18397      5F68616E 
 18397      646C6500 
 18398              	.LASF358:
 18399 0575 5F5F676E 		.ascii	"__gnuc_va_list\000"
 18399      75635F76 
 18399      615F6C69 
 18399      737400
 18400              	.LASF51:
 18401 0584 5F5F746D 		.ascii	"__tm_wday\000"
 18401      5F776461 
 18401      7900
 18402              	.LASF468:
 18403 058e 696E666F 		.ascii	"info\000"
 18403      00
 18404              	.LASF352:
 18405 0593 46525F54 		.ascii	"FR_TIMEOUT\000"
 18405      494D454F 
 18405      555400
 18406              	.LASF53:
 18407 059e 5F5F746D 		.ascii	"__tm_isdst\000"
 18407      5F697364 
 18407      737400
 18408              	.LASF213:
 18409 05a9 73746B61 		.ascii	"stkalign_t\000"
 18409      6C69676E 
 18409      5F7400
 18410              	.LASF6:
ARM GAS  /tmp/ccSNToGX.s 			page 329


 18411 05b4 756E7369 		.ascii	"unsigned char\000"
 18411      676E6564 
 18411      20636861 
 18411      7200
 18412              	.LASF85:
 18413 05c2 5F737464 		.ascii	"_stdout\000"
 18413      6F757400 
 18414              	.LASF338:
 18415 05ca 46525F44 		.ascii	"FR_DISK_ERR\000"
 18415      49534B5F 
 18415      45525200 
 18416              	.LASF186:
 18417 05d6 72656164 		.ascii	"ready_list_t\000"
 18417      795F6C69 
 18417      73745F74 
 18417      00
 18418              	.LASF162:
 18419 05e3 63685F74 		.ascii	"ch_thread\000"
 18419      68726561 
 18419      6400
 18420              	.LASF329:
 18421 05ed 64707472 		.ascii	"dptr\000"
 18421      00
 18422              	.LASF127:
 18423 05f2 5F6D6273 		.ascii	"_mbsrtowcs_state\000"
 18423      72746F77 
 18423      63735F73 
 18423      74617465 
 18423      00
 18424              	.LASF520:
 18425 0603 665F6F70 		.ascii	"f_opendir\000"
 18425      656E6469 
 18425      7200
 18426              	.LASF42:
 18427 060d 5F776473 		.ascii	"_wds\000"
 18427      00
 18428              	.LASF427:
 18429 0612 66617466 		.ascii	"fatfs_to_fileno\000"
 18429      735F746F 
 18429      5F66696C 
 18429      656E6F00 
 18430              	.LASF509:
 18431 0622 69736174 		.ascii	"isatty\000"
 18431      747900
 18432              	.LASF64:
 18433 0629 5F73697A 		.ascii	"_size\000"
 18433      6500
 18434              	.LASF461:
 18435 062f 6672655F 		.ascii	"fre_clust\000"
 18435      636C7573 
 18435      7400
 18436              	.LASF268:
 18437 0639 706F6F6C 		.ascii	"pool_header\000"
 18437      5F686561 
 18437      64657200 
 18438              	.LASF197:
 18439 0645 73797374 		.ascii	"system_debug_t\000"
ARM GAS  /tmp/ccSNToGX.s 			page 330


 18439      656D5F64 
 18439      65627567 
 18439      5F7400
 18440              	.LASF192:
 18441 0654 64656C74 		.ascii	"delta\000"
 18441      6100
 18442              	.LASF71:
 18443 065a 5F777269 		.ascii	"_write\000"
 18443      746500
 18444              	.LASF400:
 18445 0661 6D6F6474 		.ascii	"modtime\000"
 18445      696D6500 
 18446              	.LASF322:
 18447 0669 46464F42 		.ascii	"FFOBJID\000"
 18447      4A494400 
 18448              	.LASF364:
 18449 0671 6F66665F 		.ascii	"off_t\000"
 18449      7400
 18450              	.LASF343:
 18451 0677 46525F49 		.ascii	"FR_INVALID_NAME\000"
 18451      4E56414C 
 18451      49445F4E 
 18451      414D4500 
 18452              	.LASF144:
 18453 0687 75696E74 		.ascii	"uint64_t\000"
 18453      36345F74 
 18453      00
 18454              	.LASF224:
 18455 0690 6E5F6374 		.ascii	"n_ctxswc\000"
 18455      78737763 
 18455      00
 18456              	.LASF24:
 18457 0699 5F5F6D6F 		.ascii	"__mode_t\000"
 18457      64655F74 
 18457      00
 18458              	.LASF438:
 18459 06a2 756E6978 		.ascii	"unix_time_to_fat\000"
 18459      5F74696D 
 18459      655F746F 
 18459      5F666174 
 18459      00
 18460              	.LASF413:
 18461 06b3 66696C65 		.ascii	"fileno\000"
 18461      6E6F00
 18462              	.LASF259:
 18463 06ba 63685F64 		.ascii	"ch_debug\000"
 18463      65627567 
 18463      00
 18464              	.LASF431:
 18465 06c3 66617466 		.ascii	"fatfs_getc\000"
 18465      735F6765 
 18465      746300
 18466              	.LASF50:
 18467 06ce 5F5F746D 		.ascii	"__tm_year\000"
 18467      5F796561 
 18467      7200
 18468              	.LASF489:
ARM GAS  /tmp/ccSNToGX.s 			page 331


 18469 06d8 72657769 		.ascii	"rewind\000"
 18469      6E6400
 18470              	.LASF305:
 18471 06df 6E5F6661 		.ascii	"n_fatent\000"
 18471      74656E74 
 18471      00
 18472              	.LASF435:
 18473 06e8 6275666C 		.ascii	"buflen\000"
 18473      656E00
 18474              	.LASF402:
 18475 06ef 645F6E61 		.ascii	"d_name\000"
 18475      6D6500
 18476              	.LASF110:
 18477 06f6 5F6D756C 		.ascii	"_mult\000"
 18477      7400
 18478              	.LASF237:
 18479 06fc 63685F6D 		.ascii	"ch_mutex\000"
 18479      75746578 
 18479      00
 18480              	.LASF480:
 18481 0705 6F70656E 		.ascii	"open\000"
 18481      00
 18482              	.LASF346:
 18483 070a 46525F49 		.ascii	"FR_INVALID_OBJECT\000"
 18483      4E56414C 
 18483      49445F4F 
 18483      424A4543 
 18483      5400
 18484              	.LASF125:
 18485 071c 5F6D6272 		.ascii	"_mbrlen_state\000"
 18485      6C656E5F 
 18485      73746174 
 18485      6500
 18486              	.LASF517:
 18487 072a 7374726E 		.ascii	"strncpy\000"
 18487      63707900 
 18488              	.LASF422:
 18489 0732 6661745F 		.ascii	"fat_time_to_unix\000"
 18489      74696D65 
 18489      5F746F5F 
 18489      756E6978 
 18489      00
 18490              	.LASF493:
 18491 0743 6674656C 		.ascii	"ftell\000"
 18491      6C00
 18492              	.LASF361:
 18493 0749 76615F6C 		.ascii	"va_list\000"
 18493      69737400 
 18494              	.LASF84:
 18495 0751 5F737464 		.ascii	"_stdin\000"
 18495      696E00
 18496              	.LASF524:
 18497 0758 665F6D6B 		.ascii	"f_mkdir\000"
 18497      64697200 
 18498              	.LASF278:
 18499 0760 6F626A5F 		.ascii	"obj_list\000"
 18499      6C697374 
ARM GAS  /tmp/ccSNToGX.s 			page 332


 18499      00
 18500              	.LASF132:
 18501 0769 5F6E6D61 		.ascii	"_nmalloc\000"
 18501      6C6C6F63 
 18501      00
 18502              	.LASF282:
 18503 0772 73656D5F 		.ascii	"sem_pool\000"
 18503      706F6F6C 
 18503      00
 18504              	.LASF190:
 18505 077b 76697274 		.ascii	"virtual_timer_t\000"
 18505      75616C5F 
 18505      74696D65 
 18505      725F7400 
 18506              	.LASF151:
 18507 078b 7274636E 		.ascii	"rtcnt_t\000"
 18507      745F7400 
 18508              	.LASF242:
 18509 0793 73697A65 		.ascii	"size\000"
 18509      00
 18510              	.LASF407:
 18511 0798 46494C45 		.ascii	"FILE\000"
 18511      00
 18512              	.LASF307:
 18513 079d 766F6C62 		.ascii	"volbase\000"
 18513      61736500 
 18514              	.LASF239:
 18515 07a5 63685F69 		.ascii	"ch_idle_thread_wa\000"
 18515      646C655F 
 18515      74687265 
 18515      61645F77 
 18515      6100
 18516              	.LASF238:
 18517 07b7 6F776E65 		.ascii	"owner\000"
 18517      7200
 18518              	.LASF331:
 18519 07bd 66646174 		.ascii	"fdate\000"
 18519      6500
 18520              	.LASF19:
 18521 07c3 5F6F6666 		.ascii	"_off_t\000"
 18521      5F7400
 18522              	.LASF4:
 18523 07ca 73697A65 		.ascii	"size_t\000"
 18523      5F7400
 18524              	.LASF115:
 18525 07d1 5F6C6F63 		.ascii	"_localtime_buf\000"
 18525      616C7469 
 18525      6D655F62 
 18525      756600
 18526              	.LASF513:
 18527 07e0 676D7469 		.ascii	"gmtime\000"
 18527      6D6500
 18528              	.LASF32:
 18529 07e7 5F5F636F 		.ascii	"__count\000"
 18529      756E7400 
 18530              	.LASF240:
 18531 07ef 6964656E 		.ascii	"identifier\000"
ARM GAS  /tmp/ccSNToGX.s 			page 333


 18531      74696669 
 18531      657200
 18532              	.LASF138:
 18533 07fa 75696E74 		.ascii	"uint8_t\000"
 18533      385F7400 
 18534              	.LASF269:
 18535 0802 6F626A65 		.ascii	"object_size\000"
 18535      63745F73 
 18535      697A6500 
 18536              	.LASF229:
 18537 080e 65786974 		.ascii	"exitcode\000"
 18537      636F6465 
 18537      00
 18538              	.LASF98:
 18539 0817 5F637674 		.ascii	"_cvtbuf\000"
 18539      62756600 
 18540              	.LASF443:
 18541 081f 70617468 		.ascii	"pathdir\000"
 18541      64697200 
 18542              	.LASF469:
 18543 0827 5F5F7772 		.ascii	"__wrap_fclose\000"
 18543      61705F66 
 18543      636C6F73 
 18543      6500
 18544              	.LASF284:
 18545 0835 6669666F 		.ascii	"fifo_list\000"
 18545      5F6C6973 
 18545      7400
 18546              	.LASF418:
 18547 083f 66696C65 		.ascii	"fileno_to_fatfs\000"
 18547      6E6F5F74 
 18547      6F5F6661 
 18547      74667300 
 18548              	.LASF30:
 18549 084f 5F5F7763 		.ascii	"__wchb\000"
 18549      686200
 18550              	.LASF126:
 18551 0856 5F6D6272 		.ascii	"_mbrtowc_state\000"
 18551      746F7763 
 18551      5F737461 
 18551      746500
 18552              	.LASF47:
 18553 0865 5F5F746D 		.ascii	"__tm_hour\000"
 18553      5F686F75 
 18553      7200
 18554              	.LASF244:
 18555 086f 70747273 		.ascii	"ptrsize\000"
 18555      697A6500 
 18556              	.LASF28:
 18557 0877 77696E74 		.ascii	"wint_t\000"
 18557      5F7400
 18558              	.LASF99:
 18559 087e 5F6E6577 		.ascii	"_new\000"
 18559      00
 18560              	.LASF106:
 18561 0883 5F6E696F 		.ascii	"_niobs\000"
 18561      627300
ARM GAS  /tmp/ccSNToGX.s 			page 334


 18562              	.LASF36:
 18563 088a 5F5F6E6C 		.ascii	"__nlink_t\000"
 18563      696E6B5F 
 18563      7400
 18564              	.LASF416:
 18565 0894 66726565 		.ascii	"free_file_descriptor\000"
 18565      5F66696C 
 18565      655F6465 
 18565      73637269 
 18565      70746F72 
 18566              	.LASF386:
 18567 08a9 73745F69 		.ascii	"st_ino\000"
 18567      6E6F00
 18568              	.LASF387:
 18569 08b0 73745F6D 		.ascii	"st_mode\000"
 18569      6F646500 
 18570              	.LASF83:
 18571 08b8 5F657272 		.ascii	"_errno\000"
 18571      6E6F00
 18572              	.LASF266:
 18573 08bf 6D656D63 		.ascii	"memcore_t\000"
 18573      6F72655F 
 18573      7400
 18574              	.LASF48:
 18575 08c9 5F5F746D 		.ascii	"__tm_mday\000"
 18575      5F6D6461 
 18575      7900
 18576              	.LASF415:
 18577 08d3 6E65775F 		.ascii	"new_file_descriptor\000"
 18577      66696C65 
 18577      5F646573 
 18577      63726970 
 18577      746F7200 
 18578              	.LASF455:
 18579 08e7 63686D6F 		.ascii	"chmod\000"
 18579      6400
 18580              	.LASF228:
 18581 08ed 7264796D 		.ascii	"rdymsg\000"
 18581      736700
 18582              	.LASF55:
 18583 08f4 5F666E61 		.ascii	"_fnargs\000"
 18583      72677300 
 18584              	.LASF288:
 18585 08fc 4653495A 		.ascii	"FSIZE_t\000"
 18585      455F7400 
 18586              	.LASF430:
 18587 0904 66617466 		.ascii	"fatfs_putc\000"
 18587      735F7075 
 18587      746300
 18588              	.LASF301:
 18589 090f 63646972 		.ascii	"cdir\000"
 18589      00
 18590              	.LASF398:
 18591 0914 7574696D 		.ascii	"utimbuf\000"
 18591      62756600 
 18592              	.LASF15:
 18593 091c 5F5F696E 		.ascii	"__int64_t\000"
ARM GAS  /tmp/ccSNToGX.s 			page 335


 18593      7436345F 
 18593      7400
 18594              	.LASF312:
 18595 0926 46415446 		.ascii	"FATFS\000"
 18595      5300
 18596              	.LASF16:
 18597 092c 5F5F7569 		.ascii	"__uint64_t\000"
 18597      6E743634 
 18597      5F7400
 18598              	.LASF247:
 18599 0937 6F66665F 		.ascii	"off_prio\000"
 18599      7072696F 
 18599      00
 18600              	.LASF276:
 18601 0940 64796E5F 		.ascii	"dyn_list_t\000"
 18601      6C697374 
 18601      5F7400
 18602              	.LASF39:
 18603 094b 5F6E6578 		.ascii	"_next\000"
 18603      7400
 18604              	.LASF408:
 18605 0951 5F5F696F 		.ascii	"__iob\000"
 18605      6200
 18606              	.LASF123:
 18607 0957 5F736967 		.ascii	"_signal_buf\000"
 18607      6E616C5F 
 18607      62756600 
 18608              	.LASF484:
 18609 0963 66747275 		.ascii	"ftruncate\000"
 18609      6E636174 
 18609      6500
 18610              	.LASF290:
 18611 096d 70647276 		.ascii	"pdrv\000"
 18611      00
 18612              	.LASF69:
 18613 0972 5F636F6F 		.ascii	"_cookie\000"
 18613      6B696500 
 18614              	.LASF382:
 18615 097a 5F747A6E 		.ascii	"_tzname\000"
 18615      616D6500 
 18616              	.LASF428:
 18617 0982 66617466 		.ascii	"fatfs_to_errno\000"
 18617      735F746F 
 18617      5F657272 
 18617      6E6F00
 18618              	.LASF336:
 18619 0991 46494C49 		.ascii	"FILINFO\000"
 18619      4E464F00 
 18620              	.LASF460:
 18621 0999 66735F67 		.ascii	"fs_gettotal\000"
 18621      6574746F 
 18621      74616C00 
 18622              	.LASF214:
 18623 09a5 706F7274 		.ascii	"port_context\000"
 18623      5F636F6E 
 18623      74657874 
 18623      00
ARM GAS  /tmp/ccSNToGX.s 			page 336


 18624              	.LASF308:
 18625 09b2 66617462 		.ascii	"fatbase\000"
 18625      61736500 
 18626              	.LASF306:
 18627 09ba 6673697A 		.ascii	"fsize\000"
 18627      6500
 18628              	.LASF464:
 18629 09c0 6672655F 		.ascii	"fre_sect\000"
 18629      73656374 
 18629      00
 18630              	.LASF436:
 18631 09c9 73747265 		.ascii	"strerror\000"
 18631      72726F72 
 18631      00
 18632              	.LASF511:
 18633 09d2 665F7379 		.ascii	"f_sync\000"
 18633      6E6300
 18634              	.LASF319:
 18635 09d9 635F7363 		.ascii	"c_scl\000"
 18635      6C00
 18636              	.LASF155:
 18637 09df 74726566 		.ascii	"trefs_t\000"
 18637      735F7400 
 18638              	.LASF483:
 18639 09e7 6E6D656D 		.ascii	"nmemb\000"
 18639      6200
 18640              	.LASF45:
 18641 09ed 5F5F746D 		.ascii	"__tm_sec\000"
 18641      5F736563 
 18641      00
 18642              	.LASF474:
 18643 09f6 7472756E 		.ascii	"truncate\000"
 18643      63617465 
 18643      00
 18644              	.LASF54:
 18645 09ff 5F6F6E5F 		.ascii	"_on_exit_args\000"
 18645      65786974 
 18645      5F617267 
 18645      7300
 18646              	.LASF391:
 18647 0a0d 73745F72 		.ascii	"st_rdev\000"
 18647      64657600 
 18648              	.LASF153:
 18649 0a15 746D6F64 		.ascii	"tmode_t\000"
 18649      655F7400 
 18650              	.LASF148:
 18651 0a1d 57434841 		.ascii	"WCHAR\000"
 18651      5200
 18652              	.LASF502:
 18653 0a23 70757463 		.ascii	"putc\000"
 18653      00
 18654              	.LASF302:
 18655 0a28 6364635F 		.ascii	"cdc_scl\000"
 18655      73636C00 
 18656              	.LASF406:
 18657 0a30 75646174 		.ascii	"udata\000"
 18657      6100
ARM GAS  /tmp/ccSNToGX.s 			page 337


 18658              	.LASF128:
 18659 0a36 5F776372 		.ascii	"_wcrtomb_state\000"
 18659      746F6D62 
 18659      5F737461 
 18659      746500
 18660              	.LASF389:
 18661 0a45 73745F75 		.ascii	"st_uid\000"
 18661      696400
 18662              	.LASF498:
 18663 0a4c 70757473 		.ascii	"puts\000"
 18663      00
 18664              	.LASF531:
 18665 0a51 665F7772 		.ascii	"f_write\000"
 18665      69746500 
 18666              	.LASF477:
 18667 0a59 73796E63 		.ascii	"syncfs\000"
 18667      667300
 18668              	.LASF505:
 18669 0a60 636C6561 		.ascii	"clearerr\000"
 18669      72657272 
 18669      00
 18670              	.LASF27:
 18671 0a69 5F737369 		.ascii	"_ssize_t\000"
 18671      7A655F74 
 18671      00
 18672              	.LASF167:
 18673 0a72 6E616D65 		.ascii	"name\000"
 18673      00
 18674              	.LASF350:
 18675 0a77 46525F4E 		.ascii	"FR_NO_FILESYSTEM\000"
 18675      4F5F4649 
 18675      4C455359 
 18675      5354454D 
 18675      00
 18676              	.LASF372:
 18677 0a88 746D5F6D 		.ascii	"tm_min\000"
 18677      696E00
 18678              	.LASF38:
 18679 0a8f 5F5F554C 		.ascii	"__ULong\000"
 18679      6F6E6700 
 18680              	.LASF199:
 18681 0a97 70616E69 		.ascii	"panic_msg\000"
 18681      635F6D73 
 18681      6700
 18682              	.LASF323:
 18683 0aa1 666C6167 		.ascii	"flag\000"
 18683      00
 18684              	.LASF258:
 18685 0aa6 63686465 		.ascii	"chdebug_t\000"
 18685      6275675F 
 18685      7400
 18686              	.LASF295:
 18687 0ab0 6373697A 		.ascii	"csize\000"
 18687      6500
 18688              	.LASF412:
 18689 0ab6 5F5F7772 		.ascii	"__wrap_fprintf\000"
 18689      61705F66 
ARM GAS  /tmp/ccSNToGX.s 			page 338


 18689      7072696E 
 18689      746600
 18690              	.LASF532:
 18691 0ac5 665F6F70 		.ascii	"f_open\000"
 18691      656E00
 18692              	.LASF113:
 18693 0acc 5F737472 		.ascii	"_strtok_last\000"
 18693      746F6B5F 
 18693      6C617374 
 18693      00
 18694              	.LASF439:
 18695 0ad9 636C7265 		.ascii	"clrerror\000"
 18695      72726F72 
 18695      00
 18696              	.LASF298:
 18697 0ae2 736F626A 		.ascii	"sobj\000"
 18697      00
 18698              	.LASF378:
 18699 0ae7 746D5F79 		.ascii	"tm_yday\000"
 18699      64617900 
 18700              	.LASF501:
 18701 0aef 66676574 		.ascii	"fgets\000"
 18701      7300
 18702              	.LASF31:
 18703 0af5 73697A65 		.ascii	"sizetype\000"
 18703      74797065 
 18703      00
 18704              	.LASF109:
 18705 0afe 5F736565 		.ascii	"_seed\000"
 18705      6400
 18706              	.LASF72:
 18707 0b04 5F736565 		.ascii	"_seek\000"
 18707      6B00
 18708              	.LASF339:
 18709 0b0a 46525F49 		.ascii	"FR_INT_ERR\000"
 18709      4E545F45 
 18709      525200
 18710              	.LASF287:
 18711 0b15 54434841 		.ascii	"TCHAR\000"
 18711      5200
 18712              	.LASF441:
 18713 0b1b 64697270 		.ascii	"dirp\000"
 18713      00
 18714              	.LASF139:
 18715 0b20 696E7431 		.ascii	"int16_t\000"
 18715      365F7400 
 18716              	.LASF317:
 18717 0b28 6E5F636F 		.ascii	"n_cont\000"
 18717      6E7400
 18718              	.LASF10:
 18719 0b2f 73686F72 		.ascii	"short unsigned int\000"
 18719      7420756E 
 18719      7369676E 
 18719      65642069 
 18719      6E7400
 18720              	.LASF3:
 18721 0b42 7369676E 		.ascii	"signed char\000"
ARM GAS  /tmp/ccSNToGX.s 			page 339


 18721      65642063 
 18721      68617200 
 18722              	.LASF397:
 18723 0b4e 73745F63 		.ascii	"st_ctime\000"
 18723      74696D65 
 18723      00
 18724              	.LASF160:
 18725 0b57 75636E74 		.ascii	"ucnt_t\000"
 18725      5F7400
 18726              	.LASF188:
 18727 0b5e 63757272 		.ascii	"current\000"
 18727      656E7400 
 18728              	.LASF466:
 18729 0b66 66696C65 		.ascii	"filename\000"
 18729      6E616D65 
 18729      00
 18730              	.LASF257:
 18731 0b6f 6F66665F 		.ascii	"off_time\000"
 18731      74696D65 
 18731      00
 18732              	.LASF472:
 18733 0b78 636F756E 		.ascii	"count\000"
 18733      7400
 18734              	.LASF248:
 18735 0b7e 6F66665F 		.ascii	"off_ctx\000"
 18735      63747800 
 18736              	.LASF196:
 18737 0b86 6C617374 		.ascii	"lasttime\000"
 18737      74696D65 
 18737      00
 18738              	.LASF96:
 18739 0b8f 5F667265 		.ascii	"_freelist\000"
 18739      656C6973 
 18739      7400
 18740              	.LASF377:
 18741 0b99 746D5F77 		.ascii	"tm_wday\000"
 18741      64617900 
 18742              	.LASF173:
 18743 0ba1 6D736771 		.ascii	"msgqueue\000"
 18743      75657565 
 18743      00
 18744              	.LASF77:
 18745 0baa 5F6F6666 		.ascii	"_offset\000"
 18745      73657400 
 18746              	.LASF209:
 18747 0bb2 53797374 		.ascii	"SystemCoreClock\000"
 18747      656D436F 
 18747      7265436C 
 18747      6F636B00 
 18748              	.LASF347:
 18749 0bc2 46525F57 		.ascii	"FR_WRITE_PROTECTED\000"
 18749      52495445 
 18749      5F50524F 
 18749      54454354 
 18749      454400
 18750              	.LASF169:
 18751 0bd5 73746174 		.ascii	"state\000"
ARM GAS  /tmp/ccSNToGX.s 			page 340


 18751      6500
 18752              	.LASF463:
 18753 0bdb 66735F67 		.ascii	"fs_getfree\000"
 18753      65746672 
 18753      656500
 18754              	.LASF178:
 18755 0be6 73746174 		.ascii	"stats\000"
 18755      7300
 18756              	.LASF62:
 18757 0bec 5F5F7362 		.ascii	"__sbuf\000"
 18757      756600
 18758              	.LASF122:
 18759 0bf3 5F6C3634 		.ascii	"_l64a_buf\000"
 18759      615F6275 
 18759      6600
 18760              	.LASF475:
 18761 0bfd 70617468 		.ascii	"path\000"
 18761      00
 18762              	.LASF300:
 18763 0c02 66726565 		.ascii	"free_clst\000"
 18763      5F636C73 
 18763      7400
 18764              	.LASF201:
 18765 0c0c 63685F73 		.ascii	"ch_system\000"
 18765      79737465 
 18765      6D00
 18766              	.LASF168:
 18767 0c16 77616261 		.ascii	"wabase\000"
 18767      736500
 18768              	.LASF429:
 18769 0c1d 52657375 		.ascii	"Result\000"
 18769      6C7400
 18770              	.LASF297:
 18771 0c24 64697262 		.ascii	"dirbuf\000"
 18771      756600
 18772              	.LASF114:
 18773 0c2b 5F617363 		.ascii	"_asctime_buf\000"
 18773      74696D65 
 18773      5F627566 
 18773      00
 18774              	.LASF193:
 18775 0c38 66756E63 		.ascii	"func\000"
 18775      00
 18776              	.LASF409:
 18777 0c3d 76707269 		.ascii	"vprintf_console_hook\000"
 18777      6E74665F 
 18777      636F6E73 
 18777      6F6C655F 
 18777      686F6F6B 
 18778              	.LASF29:
 18779 0c52 5F5F7763 		.ascii	"__wch\000"
 18779      6800
 18780              	.LASF236:
 18781 0c58 63685F73 		.ascii	"ch_semaphore\000"
 18781      656D6170 
 18781      686F7265 
 18781      00
ARM GAS  /tmp/ccSNToGX.s 			page 341


 18782              	.LASF315:
 18783 0c65 73636C75 		.ascii	"sclust\000"
 18783      737400
 18784              	.LASF129:
 18785 0c6c 5F776373 		.ascii	"_wcsrtombs_state\000"
 18785      72746F6D 
 18785      62735F73 
 18785      74617465 
 18785      00
 18786              	.LASF254:
 18787 0c7d 6F66665F 		.ascii	"off_flags\000"
 18787      666C6167 
 18787      7300
 18788              	.LASF274:
 18789 0c87 64796E5F 		.ascii	"dyn_element_t\000"
 18789      656C656D 
 18789      656E745F 
 18789      7400
 18790              	.LASF177:
 18791 0c95 6D706F6F 		.ascii	"mpool\000"
 18791      6C00
 18792              	.LASF375:
 18793 0c9b 746D5F6D 		.ascii	"tm_mon\000"
 18793      6F6E00
 18794              	.LASF490:
 18795 0ca2 6C736565 		.ascii	"lseek\000"
 18795      6B00
 18796              	.LASF488:
 18797 0ca8 636C6F73 		.ascii	"close\000"
 18797      6500
 18798              	.LASF183:
 18799 0cae 74687265 		.ascii	"threads_queue_t\000"
 18799      6164735F 
 18799      71756575 
 18799      655F7400 
 18800              	.LASF421:
 18801 0cbe 74696D65 		.ascii	"time\000"
 18801      00
 18802              	.LASF327:
 18803 0cc3 6469725F 		.ascii	"dir_sect\000"
 18803      73656374 
 18803      00
 18804              	.LASF145:
 18805 0ccc 55494E54 		.ascii	"UINT\000"
 18805      00
 18806              	.LASF12:
 18807 0cd1 6C6F6E67 		.ascii	"long int\000"
 18807      20696E74 
 18807      00
 18808              	.LASF496:
 18809 0cda 66676574 		.ascii	"fgetpos\000"
 18809      706F7300 
 18810              	.LASF204:
 18811 0ce2 6D61696E 		.ascii	"mainthread\000"
 18811      74687265 
 18811      616400
 18812              	.LASF333:
ARM GAS  /tmp/ccSNToGX.s 			page 342


 18813 0ced 66617474 		.ascii	"fattrib\000"
 18813      72696200 
 18814              	.LASF487:
 18815 0cf5 66696C65 		.ascii	"fileno_to_stream\000"
 18815      6E6F5F74 
 18815      6F5F7374 
 18815      7265616D 
 18815      00
 18816              	.LASF121:
 18817 0d06 5F776374 		.ascii	"_wctomb_state\000"
 18817      6F6D625F 
 18817      73746174 
 18817      6500
 18818              	.LASF310:
 18819 0d14 64617461 		.ascii	"database\000"
 18819      62617365 
 18819      00
 18820              	.LASF376:
 18821 0d1d 746D5F79 		.ascii	"tm_year\000"
 18821      65617200 
 18822              	.LASF507:
 18823 0d25 67657463 		.ascii	"getc\000"
 18823      00
 18824              	.LASF221:
 18825 0d2a 63756D75 		.ascii	"cumulative\000"
 18825      6C617469 
 18825      766500
 18826              	.LASF107:
 18827 0d35 5F696F62 		.ascii	"_iobs\000"
 18827      7300
 18828              	.LASF88:
 18829 0d3b 5F656D65 		.ascii	"_emergency\000"
 18829      7267656E 
 18829      637900
 18830              	.LASF265:
 18831 0d46 656E646D 		.ascii	"endmem\000"
 18831      656D00
 18832              	.LASF330:
 18833 0d4d 626C6B5F 		.ascii	"blk_ofs\000"
 18833      6F667300 
 18834              	.LASF231:
 18835 0d55 77747472 		.ascii	"wttrp\000"
 18835      7000
 18836              	.LASF131:
 18837 0d5b 5F6E6578 		.ascii	"_nextf\000"
 18837      746600
 18838              	.LASF471:
 18839 0d62 77726974 		.ascii	"write\000"
 18839      6500
 18840              	.LASF117:
 18841 0d68 5F72616E 		.ascii	"_rand_next\000"
 18841      645F6E65 
 18841      787400
 18842              	.LASF499:
 18843 0d73 66707574 		.ascii	"fputs\000"
 18843      7300
 18844              	.LASF220:
ARM GAS  /tmp/ccSNToGX.s 			page 343


 18845 0d79 6C617374 		.ascii	"last\000"
 18845      00
 18846              	.LASF280:
 18847 0d7e 6275665F 		.ascii	"buf_list\000"
 18847      6C697374 
 18847      00
 18848              	.LASF142:
 18849 0d87 75696E74 		.ascii	"uint32_t\000"
 18849      33325F74 
 18849      00
 18850              	.LASF405:
 18851 0d90 756E6765 		.ascii	"unget\000"
 18851      7400
 18852              	.LASF252:
 18853 0d96 6F66665F 		.ascii	"off_stklimit\000"
 18853      73746B6C 
 18853      696D6974 
 18853      00
 18854              	.LASF40:
 18855 0da3 5F6D6178 		.ascii	"_maxwds\000"
 18855      77647300 
 18856              	.LASF2:
 18857 0dab 6C6F6E67 		.ascii	"long double\000"
 18857      20646F75 
 18857      626C6500 
 18858              	.LASF256:
 18859 0db7 6F66665F 		.ascii	"off_preempt\000"
 18859      70726565 
 18859      6D707400 
 18860              	.LASF212:
 18861 0dc3 72656761 		.ascii	"regarm_t\000"
 18861      726D5F74 
 18861      00
 18862              	.LASF158:
 18863 0dcc 6576656E 		.ascii	"eventmask_t\000"
 18863      746D6173 
 18863      6B5F7400 
 18864              	.LASF491:
 18865 0dd8 706F7369 		.ascii	"position\000"
 18865      74696F6E 
 18865      00
 18866              	.LASF518:
 18867 0de1 665F7265 		.ascii	"f_readdir\000"
 18867      61646469 
 18867      7200
 18868              	.LASF14:
 18869 0deb 6C6F6E67 		.ascii	"long unsigned int\000"
 18869      20756E73 
 18869      69676E65 
 18869      6420696E 
 18869      7400
 18870              	.LASF424:
 18871 0dfd 4D494E55 		.ascii	"MINUTE\000"
 18871      544500
 18872              	.LASF437:
 18873 0e04 66657272 		.ascii	"ferror\000"
 18873      6F7200
ARM GAS  /tmp/ccSNToGX.s 			page 344


 18874              	.LASF396:
 18875 0e0b 73745F6D 		.ascii	"st_mtime\000"
 18875      74696D65 
 18875      00
 18876              	.LASF250:
 18877 0e14 6F66665F 		.ascii	"off_older\000"
 18877      6F6C6465 
 18877      7200
 18878              	.LASF485:
 18879 0e1e 5F5F7772 		.ascii	"__wrap_fread\000"
 18879      61705F66 
 18879      72656164 
 18879      00
 18880              	.LASF73:
 18881 0e2b 5F636C6F 		.ascii	"_close\000"
 18881      736500
 18882              	.LASF37:
 18883 0e32 63686172 		.ascii	"char\000"
 18883      00
 18884              	.LASF105:
 18885 0e37 5F676C75 		.ascii	"_glue\000"
 18885      6500
 18886              	.LASF451:
 18887 0e3d 6E657770 		.ascii	"newpath\000"
 18887      61746800 
 18888              	.LASF540:
 18889 0e45 7265706C 		.ascii	"replace_mktime\000"
 18889      6163655F 
 18889      6D6B7469 
 18889      6D6500
 18890              	.LASF211:
 18891 0e54 41504250 		.ascii	"APBPrescTable\000"
 18891      72657363 
 18891      5461626C 
 18891      6500
 18892              	.LASF478:
 18893 0e62 73796E63 		.ascii	"sync\000"
 18893      00
 18894              	.LASF470:
 18895 0e67 5F5F7772 		.ascii	"__wrap_freopen\000"
 18895      61705F66 
 18895      72656F70 
 18895      656E00
 18896              	.LASF341:
 18897 0e76 46525F4E 		.ascii	"FR_NO_FILE\000"
 18897      4F5F4649 
 18897      4C4500
 18898              	.LASF20:
 18899 0e81 5F5F6465 		.ascii	"__dev_t\000"
 18899      765F7400 
 18900              	.LASF43:
 18901 0e89 5F426967 		.ascii	"_Bigint\000"
 18901      696E7400 
 18902              	.LASF316:
 18903 0e91 6F626A73 		.ascii	"objsize\000"
 18903      697A6500 
 18904              	.LASF535:
ARM GAS  /tmp/ccSNToGX.s 			page 345


 18905 0e99 665F6368 		.ascii	"f_chmod\000"
 18905      6D6F6400 
 18906              	.LASF100:
 18907 0ea1 5F617465 		.ascii	"_atexit0\000"
 18907      78697430 
 18907      00
 18908              	.LASF519:
 18909 0eaa 7374726C 		.ascii	"strlen\000"
 18909      656E00
 18910              	.LASF320:
 18911 0eb1 635F7369 		.ascii	"c_size\000"
 18911      7A6500
 18912              	.LASF528:
 18913 0eb8 665F7574 		.ascii	"f_utime\000"
 18913      696D6500 
 18914              	.LASF373:
 18915 0ec0 746D5F68 		.ascii	"tm_hour\000"
 18915      6F757200 
 18916              	.LASF450:
 18917 0ec8 6F6C6470 		.ascii	"oldpath\000"
 18917      61746800 
 18918              	.LASF311:
 18919 0ed0 77696E73 		.ascii	"winsect\000"
 18919      65637400 
 18920              	.LASF124:
 18921 0ed8 5F676574 		.ascii	"_getdate_err\000"
 18921      64617465 
 18921      5F657272 
 18921      00
 18922              	.LASF332:
 18923 0ee5 6674696D 		.ascii	"ftime\000"
 18923      6500
 18924              	.LASF495:
 18925 0eeb 66736565 		.ascii	"fseek\000"
 18925      6B00
 18926              	.LASF205:
 18927 0ef1 6B65726E 		.ascii	"kernel_stats\000"
 18927      656C5F73 
 18927      74617473 
 18927      00
 18928              	.LASF159:
 18929 0efe 636E745F 		.ascii	"cnt_t\000"
 18929      7400
 18930              	.LASF291:
 18931 0f04 6E5F6661 		.ascii	"n_fats\000"
 18931      747300
 18932              	.LASF370:
 18933 0f0b 6E6C696E 		.ascii	"nlink_t\000"
 18933      6B5F7400 
 18934              	.LASF299:
 18935 0f13 6C617374 		.ascii	"last_clst\000"
 18935      5F636C73 
 18935      7400
 18936              	.LASF374:
 18937 0f1d 746D5F6D 		.ascii	"tm_mday\000"
 18937      64617900 
 18938              	.LASF253:
ARM GAS  /tmp/ccSNToGX.s 			page 346


 18939 0f25 6F66665F 		.ascii	"off_state\000"
 18939      73746174 
 18939      6500
 18940              	.LASF136:
 18941 0f2f 5F696D70 		.ascii	"_impure_ptr\000"
 18941      7572655F 
 18941      70747200 
 18942              	.LASF76:
 18943 0f3b 5F626C6B 		.ascii	"_blksize\000"
 18943      73697A65 
 18943      00
 18944              	.LASF526:
 18945 0f44 665F6368 		.ascii	"f_chdir\000"
 18945      64697200 
 18946              	.LASF74:
 18947 0f4c 5F756275 		.ascii	"_ubuf\000"
 18947      6600
 18948              	.LASF119:
 18949 0f52 5F6D626C 		.ascii	"_mblen_state\000"
 18949      656E5F73 
 18949      74617465 
 18949      00
 18950              	.LASF102:
 18951 0f5f 5F5F7367 		.ascii	"__sglue\000"
 18951      6C756500 
 18952              	.LASF135:
 18953 0f67 5F5F6C6F 		.ascii	"__locale_t\000"
 18953      63616C65 
 18953      5F7400
 18954              	.LASF494:
 18955 0f72 66736574 		.ascii	"fsetpos\000"
 18955      706F7300 
 18956              	.LASF92:
 18957 0f7a 5F5F636C 		.ascii	"__cleanup\000"
 18957      65616E75 
 18957      7000
 18958              	.LASF143:
 18959 0f84 696E7436 		.ascii	"int64_t\000"
 18959      345F7400 
 18960              	.LASF289:
 18961 0f8c 66735F74 		.ascii	"fs_type\000"
 18961      79706500 
 18962              	.LASF303:
 18963 0f94 6364635F 		.ascii	"cdc_size\000"
 18963      73697A65 
 18963      00
 18964              	.LASF189:
 18965 0f9d 76746675 		.ascii	"vtfunc_t\000"
 18965      6E635F74 
 18965      00
 18966              	.LASF230:
 18967 0fa6 77746F62 		.ascii	"wtobjp\000"
 18967      6A7000
 18968              	.LASF26:
 18969 0fad 5F66706F 		.ascii	"_fpos_t\000"
 18969      735F7400 
 18970              	.LASF67:
ARM GAS  /tmp/ccSNToGX.s 			page 347


 18971 0fb5 5F66696C 		.ascii	"_file\000"
 18971      6500
 18972              	.LASF279:
 18973 0fbb 6F626A5F 		.ascii	"obj_pool\000"
 18973      706F6F6C 
 18973      00
 18974              	.LASF286:
 18975 0fc4 63685F66 		.ascii	"ch_factory\000"
 18975      6163746F 
 18975      727900
 18976              	.LASF234:
 18977 0fcf 77746D74 		.ascii	"wtmtxp\000"
 18977      787000
 18978              	.LASF530:
 18979 0fd6 665F7374 		.ascii	"f_stat\000"
 18979      617400
 18980              	.LASF65:
 18981 0fdd 5F5F7346 		.ascii	"__sFILE\000"
 18981      494C4500 
 18982              	.LASF61:
 18983 0fe5 5F666E73 		.ascii	"_fns\000"
 18983      00
 18984              	.LASF401:
 18985 0fea 64697265 		.ascii	"dirent\000"
 18985      6E7400
 18986              	.LASF523:
 18987 0ff1 665F7265 		.ascii	"f_rename\000"
 18987      6E616D65 
 18987      00
 18988              	.LASF433:
 18989 0ffa 5F5F7772 		.ascii	"__wrap_strerror_r\000"
 18989      61705F73 
 18989      74726572 
 18989      726F725F 
 18989      7200
 18990              	.LASF34:
 18991 100c 5F6D6273 		.ascii	"_mbstate_t\000"
 18991      74617465 
 18991      5F7400
 18992              	.LASF130:
 18993 1017 5F685F65 		.ascii	"_h_errno\000"
 18993      72726E6F 
 18993      00
 18994              	.LASF385:
 18995 1020 73745F64 		.ascii	"st_dev\000"
 18995      657600
 18996              	.LASF368:
 18997 1027 7373697A 		.ascii	"ssize_t\000"
 18997      655F7400 
 18998              	.LASF207:
 18999 102f 73797369 		.ascii	"sysinterval_t\000"
 18999      6E746572 
 18999      76616C5F 
 18999      7400
 19000              	.LASF172:
 19001 103d 77616974 		.ascii	"waiting\000"
 19001      696E6700 
ARM GAS  /tmp/ccSNToGX.s 			page 348


 19002              	.LASF187:
 19003 1045 63685F72 		.ascii	"ch_ready_list\000"
 19003      65616479 
 19003      5F6C6973 
 19003      7400
 19004              	.LASF11:
 19005 1053 5F5F696E 		.ascii	"__int32_t\000"
 19005      7433325F 
 19005      7400
 19006              	.LASF13:
 19007 105d 5F5F7569 		.ascii	"__uint32_t\000"
 19007      6E743332 
 19007      5F7400
 19008              	.LASF444:
 19009 1068 636C6F73 		.ascii	"closedir\000"
 19009      65646972 
 19009      00
 19010              	.LASF198:
 19011 1071 63685F73 		.ascii	"ch_system_debug\000"
 19011      79737465 
 19011      6D5F6465 
 19011      62756700 
 19012              	.LASF420:
 19013 1081 64617465 		.ascii	"date\000"
 19013      00
 19014              	.LASF33:
 19015 1086 5F5F7661 		.ascii	"__value\000"
 19015      6C756500 
 19016              	.LASF58:
 19017 108e 5F69735F 		.ascii	"_is_cxa\000"
 19017      63786100 
 19018              	.LASF345:
 19019 1096 46525F45 		.ascii	"FR_EXIST\000"
 19019      58495354 
 19019      00
 19020              	.LASF261:
 19021 109f 6D757465 		.ascii	"mutex_t\000"
 19021      785F7400 
 19022              	.LASF95:
 19023 10a7 5F703573 		.ascii	"_p5s\000"
 19023      00
 19024              	.LASF411:
 19025 10ac 6673796E 		.ascii	"fsync\000"
 19025      6300
 19026              	.LASF459:
 19027 10b2 62617365 		.ascii	"base\000"
 19027      00
 19028              	.LASF423:
 19029 10b7 756E6978 		.ascii	"unix\000"
 19029      00
 19030              	.LASF349:
 19031 10bc 46525F4E 		.ascii	"FR_NOT_ENABLED\000"
 19031      4F545F45 
 19031      4E41424C 
 19031      454400
 19032              	.LASF473:
 19033 10cb 62797465 		.ascii	"bytes\000"
ARM GAS  /tmp/ccSNToGX.s 			page 349


 19033      7300
 19034              	.LASF22:
 19035 10d1 5F5F6769 		.ascii	"__gid_t\000"
 19035      645F7400 
 19036              	.LASF283:
 19037 10d9 6D62785F 		.ascii	"mbx_list\000"
 19037      6C697374 
 19037      00
 19038              	.LASF249:
 19039 10e2 6F66665F 		.ascii	"off_newer\000"
 19039      6E657765 
 19039      7200
 19040              	.LASF453:
 19041 10ec 67657463 		.ascii	"getcwd\000"
 19041      776400
 19042              	.LASF292:
 19043 10f3 77666C61 		.ascii	"wflag\000"
 19043      6700
 19044              	.LASF399:
 19045 10f9 61637469 		.ascii	"actime\000"
 19045      6D6500
 19046              	.LASF514:
 19047 1100 665F7265 		.ascii	"f_read\000"
 19047      616400
 19048              	.LASF163:
 19049 1107 71756575 		.ascii	"queue\000"
 19049      6500
 19050              	.LASF369:
 19051 110d 6D6F6465 		.ascii	"mode_t\000"
 19051      5F7400
 19052              	.LASF380:
 19053 1114 5F74696D 		.ascii	"_timezone\000"
 19053      657A6F6E 
 19053      6500
 19054              	.LASF404:
 19055 111e 5F5F6669 		.ascii	"__file\000"
 19055      6C6500
 19056              	.LASF208:
 19057 1125 49544D5F 		.ascii	"ITM_RxBuffer\000"
 19057      52784275 
 19057      66666572 
 19057      00
 19058              	.LASF337:
 19059 1132 46525F4F 		.ascii	"FR_OK\000"
 19059      4B00
 19060              	.LASF17:
 19061 1138 6C6F6E67 		.ascii	"long long unsigned int\000"
 19061      206C6F6E 
 19061      6720756E 
 19061      7369676E 
 19061      65642069 
 19062              	.LASF216:
 19063 114f 6F666673 		.ascii	"offset\000"
 19063      657400
 19064              	.LASF264:
 19065 1156 6E657874 		.ascii	"nextmem\000"
 19065      6D656D00 
ARM GAS  /tmp/ccSNToGX.s 			page 350


 19066              	.LASF432:
 19067 115e 66646576 		.ascii	"fdevopen\000"
 19067      6F70656E 
 19067      00
 19068              	.LASF366:
 19069 1167 7569645F 		.ascii	"uid_t\000"
 19069      7400
 19070              	.LASF522:
 19071 116d 665F756E 		.ascii	"f_unlink\000"
 19071      6C696E6B 
 19071      00
 19072              	.LASF454:
 19073 1176 6469726E 		.ascii	"dirname\000"
 19073      616D6500 
 19074              	.LASF116:
 19075 117e 5F67616D 		.ascii	"_gamma_signgam\000"
 19075      6D615F73 
 19075      69676E67 
 19075      616D00
 19076              	.LASF394:
 19077 118d 73745F62 		.ascii	"st_blocks\000"
 19077      6C6F636B 
 19077      7300
 19078              	.LASF340:
 19079 1197 46525F4E 		.ascii	"FR_NOT_READY\000"
 19079      4F545F52 
 19079      45414459 
 19079      00
 19080              	.LASF246:
 19081 11a4 74687265 		.ascii	"threadsize\000"
 19081      61647369 
 19081      7A6500
 19082              	.LASF293:
 19083 11af 6673695F 		.ascii	"fsi_flag\000"
 19083      666C6167 
 19083      00
 19084              	.LASF191:
 19085 11b8 63685F76 		.ascii	"ch_virtual_timer\000"
 19085      69727475 
 19085      616C5F74 
 19085      696D6572 
 19085      00
 19086              	.LASF326:
 19087 11c9 73656374 		.ascii	"sect\000"
 19087      00
 19088              	.LASF465:
 19089 11ce 7574696D 		.ascii	"utime\000"
 19089      6500
 19090              	.LASF235:
 19091 11d4 65776D61 		.ascii	"ewmask\000"
 19091      736B00
 19092              	.LASF486:
 19093 11db 666F7065 		.ascii	"fopen\000"
 19093      6E00
 19094              	.LASF154:
 19095 11e1 74737461 		.ascii	"tstate_t\000"
 19095      74655F74 
ARM GAS  /tmp/ccSNToGX.s 			page 351


 19095      00
 19096              	.LASF137:
 19097 11ea 5F676C6F 		.ascii	"_global_impure_ptr\000"
 19097      62616C5F 
 19097      696D7075 
 19097      72655F70 
 19097      747200
 19098              	.LASF525:
 19099 11fd 665F6765 		.ascii	"f_getcwd\000"
 19099      74637764 
 19099      00
 19100              	.LASF89:
 19101 1206 5F756E73 		.ascii	"_unspecified_locale_info\000"
 19101      70656369 
 19101      66696564 
 19101      5F6C6F63 
 19101      616C655F 
 19102              	.LASF456:
 19103 121f 63686469 		.ascii	"chdir\000"
 19103      7200
 19104              	.LASF533:
 19105 1225 665F7472 		.ascii	"f_truncate\000"
 19105      756E6361 
 19105      746500
 19106              	.LASF342:
 19107 1230 46525F4E 		.ascii	"FR_NO_PATH\000"
 19107      4F5F5041 
 19107      544800
 19108              	.LASF91:
 19109 123b 5F5F7364 		.ascii	"__sdidinit\000"
 19109      6964696E 
 19109      697400
 19110              	.LASF360:
 19111 1246 5F5F6170 		.ascii	"__ap\000"
 19111      00
 19112              	.LASF384:
 19113 124b 5F737973 		.ascii	"_sys_nerr\000"
 19113      5F6E6572 
 19113      7200
 19114              	.LASF281:
 19115 1255 73656D5F 		.ascii	"sem_list\000"
 19115      6C697374 
 19115      00
 19116              	.LASF363:
 19117 125e 696E6F5F 		.ascii	"ino_t\000"
 19117      7400
 19118              	.LASF251:
 19119 1264 6F66665F 		.ascii	"off_name\000"
 19119      6E616D65 
 19119      00
 19120              	.LASF35:
 19121 126d 5F666C6F 		.ascii	"_flock_t\000"
 19121      636B5F74 
 19121      00
 19122              	.LASF194:
 19123 1276 76697274 		.ascii	"virtual_timers_list_t\000"
 19123      75616C5F 
ARM GAS  /tmp/ccSNToGX.s 			page 352


 19123      74696D65 
 19123      72735F6C 
 19123      6973745F 
 19124              	.LASF500:
 19125 128c 67657473 		.ascii	"gets\000"
 19125      00
 19126              	.LASF365:
 19127 1291 6465765F 		.ascii	"dev_t\000"
 19127      7400
 19128              	.LASF225:
 19129 1297 6D5F6372 		.ascii	"m_crit_thd\000"
 19129      69745F74 
 19129      686400
 19130              	.LASF515:
 19131 12a2 665F6C73 		.ascii	"f_lseek\000"
 19131      65656B00 
 19132              	.LASF534:
 19133 12aa 665F636C 		.ascii	"f_close\000"
 19133      6F736500 
 19134              	.LASF419:
 19135 12b2 65706F63 		.ascii	"epoch\000"
 19135      6800
 19136              	.LASF1:
 19137 12b8 6C6F6E67 		.ascii	"long long int\000"
 19137      206C6F6E 
 19137      6720696E 
 19137      7400
 19138              	.LASF348:
 19139 12c6 46525F49 		.ascii	"FR_INVALID_DRIVE\000"
 19139      4E56414C 
 19139      49445F44 
 19139      52495645 
 19139      00
 19140              	.LASF81:
 19141 12d7 5F666C61 		.ascii	"_flags2\000"
 19141      67733200 
 19142              	.LASF403:
 19143 12df 64697265 		.ascii	"dirent_t\000"
 19143      6E745F74 
 19143      00
 19144              	.LASF222:
 19145 12e8 74696D65 		.ascii	"time_measurement_t\000"
 19145      5F6D6561 
 19145      73757265 
 19145      6D656E74 
 19145      5F7400
 19146              	.LASF504:
 19147 12fb 67657463 		.ascii	"getchar\000"
 19147      68617200 
 19148              	.LASF395:
 19149 1303 73745F61 		.ascii	"st_atime\000"
 19149      74696D65 
 19149      00
 19150              	.LASF90:
 19151 130c 5F6C6F63 		.ascii	"_locale\000"
 19151      616C6500 
 19152              	.LASF296:
ARM GAS  /tmp/ccSNToGX.s 			page 353


 19153 1314 6C666E62 		.ascii	"lfnbuf\000"
 19153      756600
 19154              	.LASF538:
 19155 131b 2E2E2F2E 		.ascii	"../../libraries/AP_HAL_ChibiOS/hwdef/common/posix.c"
 19155      2E2F6C69 
 19155      62726172 
 19155      6965732F 
 19155      41505F48 
 19156 134e 00       		.ascii	"\000"
 19157              	.LASF260:
 19158 134f 73656D61 		.ascii	"semaphore_t\000"
 19158      70686F72 
 19158      655F7400 
 19159              	.LASF210:
 19160 135b 41484250 		.ascii	"AHBPrescTable\000"
 19160      72657363 
 19160      5461626C 
 19160      6500
 19161              	.LASF23:
 19162 1369 5F5F696E 		.ascii	"__ino_t\000"
 19162      6F5F7400 
 19163              	.LASF467:
 19164 1371 74696D65 		.ascii	"times\000"
 19164      7300
 19165              	.LASF426:
 19166 1377 59454152 		.ascii	"YEAR\000"
 19166      00
 19167              	.LASF179:
 19168 137c 74687265 		.ascii	"thread_reference_t\000"
 19168      61645F72 
 19168      65666572 
 19168      656E6365 
 19168      5F7400
 19169              	.LASF104:
 19170 138f 5F5F4649 		.ascii	"__FILE\000"
 19170      4C4500
 19171              	.LASF539:
 19172 1396 2F686F6D 		.ascii	"/home/haggisaerospace/ardupilot/ardupilot/build/Cub"
 19172      652F6861 
 19172      67676973 
 19172      6165726F 
 19172      73706163 
 19173 13c9 65426C61 		.ascii	"eBlack\000"
 19173      636B00
 19174              	.LASF354:
 19175 13d0 46525F4E 		.ascii	"FR_NOT_ENOUGH_CORE\000"
 19175      4F545F45 
 19175      4E4F5547 
 19175      485F434F 
 19175      524500
 19176              	.LASF294:
 19177 13e3 6E5F726F 		.ascii	"n_rootdir\000"
 19177      6F746469 
 19177      7200
 19178              	.LASF41:
 19179 13ed 5F736967 		.ascii	"_sign\000"
 19179      6E00
ARM GAS  /tmp/ccSNToGX.s 			page 354


 19180              	.LASF46:
 19181 13f3 5F5F746D 		.ascii	"__tm_min\000"
 19181      5F6D696E 
 19181      00
 19182              	.LASF243:
 19183 13fc 76657273 		.ascii	"version\000"
 19183      696F6E00 
 19184              	.LASF0:
 19185 1404 756E7369 		.ascii	"unsigned int\000"
 19185      676E6564 
 19185      20696E74 
 19185      00
 19186              	.LASF118:
 19187 1411 5F723438 		.ascii	"_r48\000"
 19187      00
 19188              	.LASF440:
 19189 1416 72656164 		.ascii	"readdir\000"
 19189      64697200 
 19190              	.LASF410:
 19191 141e 73747265 		.ascii	"stream\000"
 19191      616D00
 19192              	.LASF462:
 19193 1425 746F745F 		.ascii	"tot_sect\000"
 19193      73656374 
 19193      00
 19194              	.LASF529:
 19195 142e 73747263 		.ascii	"strcmp\000"
 19195      6D7000
 19196              	.LASF8:
 19197 1435 73686F72 		.ascii	"short int\000"
 19197      7420696E 
 19197      7400
 19198              	.LASF272:
 19199 143f 6D656D6F 		.ascii	"memory_pool_t\000"
 19199      72795F70 
 19199      6F6F6C5F 
 19199      7400
 19200              	.LASF70:
 19201 144d 5F726561 		.ascii	"_read\000"
 19201      6400
 19202              	.LASF185:
 19203 1453 70726576 		.ascii	"prev\000"
 19203      00
 19204              	.LASF108:
 19205 1458 5F72616E 		.ascii	"_rand48\000"
 19205      64343800 
 19206              	.LASF176:
 19207 1460 7265616C 		.ascii	"realprio\000"
 19207      7072696F 
 19207      00
 19208              	.LASF442:
 19209 1469 6F70656E 		.ascii	"opendir\000"
 19209      64697200 
 19210              	.LASF359:
 19211 1471 5F5F7661 		.ascii	"__va_list\000"
 19211      5F6C6973 
 19211      7400
ARM GAS  /tmp/ccSNToGX.s 			page 355


 19212              	.LASF314:
 19213 147b 73746174 		.ascii	"stat\000"
 19213      00
 19214              	.LASF512:
 19215 1480 76617370 		.ascii	"vasprintf\000"
 19215      72696E74 
 19215      6600
 19216              	.LASF434:
 19217 148a 6572726E 		.ascii	"errnum\000"
 19217      756D00
 19218              	.LASF170:
 19219 1491 666C6167 		.ascii	"flags\000"
 19219      7300
 19220              	.LASF448:
 19221 1497 726D6469 		.ascii	"rmdir\000"
 19221      7200
 19222              	.LASF181:
 19223 149d 63685F74 		.ascii	"ch_threads_list\000"
 19223      68726561 
 19223      64735F6C 
 19223      69737400 
 19224              	.LASF344:
 19225 14ad 46525F44 		.ascii	"FR_DENIED\000"
 19225      454E4945 
 19225      4400
 19226              		.ident	"GCC: (GNU Tools for ARM Embedded Processors 6-2017-q2-update) 6.3.1 20170620 (release) [AR
ARM GAS  /tmp/ccSNToGX.s 			page 356


DEFINED SYMBOLS
                            *ABS*:0000000000000000 posix.c
     /tmp/ccSNToGX.s:18     .text.fatfs_getc:0000000000000000 $t
     /tmp/ccSNToGX.s:25     .text.fatfs_getc:0000000000000000 fatfs_getc
     /tmp/ccSNToGX.s:150    .text.fatfs_getc:0000000000000090 $d
     /tmp/ccSNToGX.s:155    .text.fatfs_putc:0000000000000000 $t
     /tmp/ccSNToGX.s:162    .text.fatfs_putc:0000000000000000 fatfs_putc
     /tmp/ccSNToGX.s:249    .text.fatfs_putc:0000000000000060 $d
     /tmp/ccSNToGX.s:254    .text.isatty:0000000000000000 $t
     /tmp/ccSNToGX.s:261    .text.isatty:0000000000000000 isatty
     /tmp/ccSNToGX.s:280    .text.fgetc:0000000000000000 $t
     /tmp/ccSNToGX.s:287    .text.fgetc:0000000000000000 fgetc
     /tmp/ccSNToGX.s:386    .text.getc:0000000000000000 $t
     /tmp/ccSNToGX.s:393    .text.getc:0000000000000000 getc
     /tmp/ccSNToGX.s:408    .text.fputc:0000000000000000 $t
     /tmp/ccSNToGX.s:415    .text.fputc:0000000000000000 fputc
     /tmp/ccSNToGX.s:521    .text.fputc:0000000000000064 $d
     /tmp/ccSNToGX.s:526    .text.clearerr:0000000000000000 $t
     /tmp/ccSNToGX.s:533    .text.clearerr:0000000000000000 clearerr
     /tmp/ccSNToGX.s:549    .text.getchar:0000000000000000 $t
     /tmp/ccSNToGX.s:556    .text.getchar:0000000000000000 getchar
     /tmp/ccSNToGX.s:571    .text.getchar:0000000000000008 $d
     /tmp/ccSNToGX.s:576    .text.putchar:0000000000000000 $t
     /tmp/ccSNToGX.s:583    .text.putchar:0000000000000000 putchar
     /tmp/ccSNToGX.s:599    .text.putchar:0000000000000008 $d
     /tmp/ccSNToGX.s:604    .text.putc:0000000000000000 $t
     /tmp/ccSNToGX.s:611    .text.putc:0000000000000000 putc
     /tmp/ccSNToGX.s:626    .text.fgets:0000000000000000 $t
     /tmp/ccSNToGX.s:633    .text.fgets:0000000000000000 fgets
     /tmp/ccSNToGX.s:710    .text.gets:0000000000000000 $t
     /tmp/ccSNToGX.s:717    .text.gets:0000000000000000 gets
     /tmp/ccSNToGX.s:767    .text.gets:000000000000002c $d
     /tmp/ccSNToGX.s:772    .text.fputs:0000000000000000 $t
     /tmp/ccSNToGX.s:779    .text.fputs:0000000000000000 fputs
     /tmp/ccSNToGX.s:814    .text.puts:0000000000000000 $t
     /tmp/ccSNToGX.s:821    .text.puts:0000000000000000 puts
     /tmp/ccSNToGX.s:872    .text.puts:0000000000000024 $d
     /tmp/ccSNToGX.s:877    .text.feof:0000000000000000 $t
     /tmp/ccSNToGX.s:884    .text.feof:0000000000000000 feof
     /tmp/ccSNToGX.s:902    .text.fileno:0000000000000000 $t
     /tmp/ccSNToGX.s:909    .text.fileno:0000000000000000 fileno
     /tmp/ccSNToGX.s:958    .text.fileno:0000000000000028 $d
     /tmp/ccSNToGX.s:963    .text.fileno_to_stream:0000000000000000 $t
     /tmp/ccSNToGX.s:970    .text.fileno_to_stream:0000000000000000 fileno_to_stream
     /tmp/ccSNToGX.s:1019   .text.fileno_to_stream:0000000000000028 $d
     /tmp/ccSNToGX.s:1026   .text.truncate:0000000000000000 $t
     /tmp/ccSNToGX.s:1033   .text.truncate:0000000000000000 truncate
     /tmp/ccSNToGX.s:1112   .text.truncate:0000000000000058 $d
     /tmp/ccSNToGX.s:1117   .text.fs_getfree:0000000000000000 $t
     /tmp/ccSNToGX.s:1124   .text.fs_getfree:0000000000000000 fs_getfree
     /tmp/ccSNToGX.s:1169   .text.fs_getfree:000000000000002c $d
     /tmp/ccSNToGX.s:1174   .text.fs_gettotal:0000000000000000 $t
     /tmp/ccSNToGX.s:1181   .text.fs_gettotal:0000000000000000 fs_gettotal
     /tmp/ccSNToGX.s:1229   .text.fs_gettotal:000000000000002c $d
     /tmp/ccSNToGX.s:1234   .text.basename:0000000000000000 $t
     /tmp/ccSNToGX.s:1241   .text.basename:0000000000000000 basename
     /tmp/ccSNToGX.s:1277   .text.basename:0000000000000018 $d
ARM GAS  /tmp/ccSNToGX.s 			page 357


     /tmp/ccSNToGX.s:1282   .text.baseext:0000000000000000 $t
     /tmp/ccSNToGX.s:1289   .text.baseext:0000000000000000 baseext
     /tmp/ccSNToGX.s:1320   .text.baseext:0000000000000014 $d
     /tmp/ccSNToGX.s:1325   .text.chdir:0000000000000000 $t
     /tmp/ccSNToGX.s:1332   .text.chdir:0000000000000000 chdir
     /tmp/ccSNToGX.s:1378   .text.chdir:0000000000000030 $d
     /tmp/ccSNToGX.s:1383   .text.chmod:0000000000000000 $t
     /tmp/ccSNToGX.s:1390   .text.chmod:0000000000000000 chmod
     /tmp/ccSNToGX.s:1456   .text.chmod:0000000000000040 $d
     /tmp/ccSNToGX.s:1461   .text.dirname:0000000000000000 $t
     /tmp/ccSNToGX.s:1468   .text.dirname:0000000000000000 dirname
     /tmp/ccSNToGX.s:1513   .text.getcwd:0000000000000000 $t
     /tmp/ccSNToGX.s:1520   .text.getcwd:0000000000000000 getcwd
     /tmp/ccSNToGX.s:1570   .text.getcwd:0000000000000030 $d
     /tmp/ccSNToGX.s:1575   .text.mkdir:0000000000000000 $t
     /tmp/ccSNToGX.s:1582   .text.mkdir:0000000000000000 mkdir
     /tmp/ccSNToGX.s:1646   .text.mkdir:0000000000000040 $d
     /tmp/ccSNToGX.s:1651   .text.rename:0000000000000000 $t
     /tmp/ccSNToGX.s:1658   .text.rename:0000000000000000 rename
     /tmp/ccSNToGX.s:1709   .text.rename:0000000000000034 $d
     /tmp/ccSNToGX.s:1714   .text.remove:0000000000000000 $t
     /tmp/ccSNToGX.s:1721   .text.remove:0000000000000000 remove
     /tmp/ccSNToGX.s:1767   .text.remove:0000000000000030 $d
     /tmp/ccSNToGX.s:1772   .text.unlink:0000000000000000 $t
     /tmp/ccSNToGX.s:1779   .text.unlink:0000000000000000 unlink
     /tmp/ccSNToGX.s:1790   .text.rmdir:0000000000000000 $t
     /tmp/ccSNToGX.s:1797   .text.rmdir:0000000000000000 rmdir
     /tmp/ccSNToGX.s:1808   .text.closedir:0000000000000000 $t
     /tmp/ccSNToGX.s:1815   .text.closedir:0000000000000000 closedir
     /tmp/ccSNToGX.s:1853   .text.closedir:0000000000000024 $d
     /tmp/ccSNToGX.s:1858   .text.opendir:0000000000000000 $t
     /tmp/ccSNToGX.s:1865   .text.opendir:0000000000000000 opendir
     /tmp/ccSNToGX.s:1908   .text.opendir:0000000000000028 $d
     /tmp/ccSNToGX.s:1914   .text.readdir:0000000000000000 $t
     /tmp/ccSNToGX.s:1921   .text.readdir:0000000000000000 readdir
     /tmp/ccSNToGX.s:1999   .text.readdir:000000000000004c $d
     /tmp/ccSNToGX.s:2005   .text.clrerror:0000000000000000 $t
     /tmp/ccSNToGX.s:2012   .text.clrerror:0000000000000000 clrerror
     /tmp/ccSNToGX.s:2029   .text.ferror:0000000000000000 $t
     /tmp/ccSNToGX.s:2036   .text.ferror:0000000000000000 ferror
     /tmp/ccSNToGX.s:2054   .text.strerror:0000000000000000 $t
     /tmp/ccSNToGX.s:2061   .text.strerror:0000000000000000 strerror
     /tmp/ccSNToGX.s:2083   .text.strerror:0000000000000010 $d
     /tmp/ccSNToGX.s:2088   .text.__wrap_strerror_r:0000000000000000 $t
     /tmp/ccSNToGX.s:2095   .text.__wrap_strerror_r:0000000000000000 __wrap_strerror_r
     /tmp/ccSNToGX.s:2123   .text.fdevopen:0000000000000000 $t
     /tmp/ccSNToGX.s:2130   .text.fdevopen:0000000000000000 fdevopen
     /tmp/ccSNToGX.s:2212   .text.fdevopen:000000000000004c $d
     /tmp/ccSNToGX.s:2217   .text.fatfs_to_errno:0000000000000000 $t
     /tmp/ccSNToGX.s:2224   .text.fatfs_to_errno:0000000000000000 fatfs_to_errno
     /tmp/ccSNToGX.s:2244   .text.fatfs_to_errno:000000000000000c $d
     /tmp/ccSNToGX.s:2249   .text.fatfs_to_fileno:0000000000000000 $t
     /tmp/ccSNToGX.s:2256   .text.fatfs_to_fileno:0000000000000000 fatfs_to_fileno
     /tmp/ccSNToGX.s:2307   .text.fatfs_to_fileno:000000000000002c $d
     /tmp/ccSNToGX.s:2312   .text.fat_time_to_unix:0000000000000000 $t
     /tmp/ccSNToGX.s:2319   .text.fat_time_to_unix:0000000000000000 fat_time_to_unix
     /tmp/ccSNToGX.s:2491   .text.fat_time_to_unix:00000000000000d4 $d
ARM GAS  /tmp/ccSNToGX.s 			page 358


     /tmp/ccSNToGX.s:2500   .text.stat:0000000000000000 $t
     /tmp/ccSNToGX.s:2507   .text.stat:0000000000000000 stat
     /tmp/ccSNToGX.s:2641   .text.stat:00000000000000a4 $d
     /tmp/ccSNToGX.s:2648   .text.unix_time_to_fat:0000000000000000 $t
     /tmp/ccSNToGX.s:2655   .text.unix_time_to_fat:0000000000000000 unix_time_to_fat
     /tmp/ccSNToGX.s:2723   .text.unix_time_to_fat:0000000000000048 $d
     /tmp/ccSNToGX.s:2729   .text.utime:0000000000000000 $t
     /tmp/ccSNToGX.s:2736   .text.utime:0000000000000000 utime
     /tmp/ccSNToGX.s:2796   .text.utime:0000000000000040 $d
     /tmp/ccSNToGX.s:2801   .text.fileno_to_fatfs:0000000000000000 $t
     /tmp/ccSNToGX.s:2808   .text.fileno_to_fatfs:0000000000000000 fileno_to_fatfs
     /tmp/ccSNToGX.s:2873   .text.ftell:0000000000000000 $t
     /tmp/ccSNToGX.s:2880   .text.ftell:0000000000000000 ftell
     /tmp/ccSNToGX.s:2940   .text.fgetpos:0000000000000000 $t
     /tmp/ccSNToGX.s:2947   .text.fgetpos:0000000000000000 fgetpos
     /tmp/ccSNToGX.s:2976   .text.lseek:0000000000000000 $t
     /tmp/ccSNToGX.s:2983   .text.lseek:0000000000000000 lseek
     /tmp/ccSNToGX.s:3095   .text.lseek:000000000000006c $d
     /tmp/ccSNToGX.s:3100   .text.fseek:0000000000000000 $t
     /tmp/ccSNToGX.s:3107   .text.fseek:0000000000000000 fseek
     /tmp/ccSNToGX.s:3153   .text.fsetpos:0000000000000000 $t
     /tmp/ccSNToGX.s:3160   .text.fsetpos:0000000000000000 fsetpos
     /tmp/ccSNToGX.s:3178   .text.rewind:0000000000000000 $t
     /tmp/ccSNToGX.s:3185   .text.rewind:0000000000000000 rewind
     /tmp/ccSNToGX.s:3202   .text.ftruncate:0000000000000000 $t
     /tmp/ccSNToGX.s:3209   .text.ftruncate:0000000000000000 ftruncate
     /tmp/ccSNToGX.s:3295   .text.ftruncate:0000000000000050 $d
     /tmp/ccSNToGX.s:3300   .text.read:0000000000000000 $t
     /tmp/ccSNToGX.s:3307   .text.read:0000000000000000 read
     /tmp/ccSNToGX.s:3449   .text.read:0000000000000094 $d
     /tmp/ccSNToGX.s:3455   .text.__wrap_fread:0000000000000000 $t
     /tmp/ccSNToGX.s:3462   .text.__wrap_fread:0000000000000000 __wrap_fread
     /tmp/ccSNToGX.s:3498   .text.syncfs:0000000000000000 $t
     /tmp/ccSNToGX.s:3505   .text.syncfs:0000000000000000 syncfs
     /tmp/ccSNToGX.s:3590   .text.syncfs:0000000000000050 $d
     /tmp/ccSNToGX.s:3595   .text.sync:0000000000000000 $t
     /tmp/ccSNToGX.s:3602   .text.sync:0000000000000000 sync
     /tmp/ccSNToGX.s:3650   .text.write:0000000000000000 $t
     /tmp/ccSNToGX.s:3657   .text.write:0000000000000000 write
     /tmp/ccSNToGX.s:3797   .text.write:000000000000008c $d
     /tmp/ccSNToGX.s:3803   .text.fwrite:0000000000000000 $t
     /tmp/ccSNToGX.s:3810   .text.fwrite:0000000000000000 fwrite
     /tmp/ccSNToGX.s:3846   .text.free_file_descriptor:0000000000000000 $t
     /tmp/ccSNToGX.s:3853   .text.free_file_descriptor:0000000000000000 free_file_descriptor
     /tmp/ccSNToGX.s:3939   .text.free_file_descriptor:0000000000000048 $d
     /tmp/ccSNToGX.s:3946   .text.close:0000000000000000 $t
     /tmp/ccSNToGX.s:3953   .text.close:0000000000000000 close
     /tmp/ccSNToGX.s:4025   .text.close:0000000000000048 $d
     /tmp/ccSNToGX.s:4030   .text.__wrap_fclose:0000000000000000 $t
     /tmp/ccSNToGX.s:4037   .text.__wrap_fclose:0000000000000000 __wrap_fclose
     /tmp/ccSNToGX.s:4073   .text.new_file_descriptor:0000000000000000 $t
     /tmp/ccSNToGX.s:4080   .text.new_file_descriptor:0000000000000000 new_file_descriptor
     /tmp/ccSNToGX.s:4175   .text.new_file_descriptor:0000000000000058 $d
     /tmp/ccSNToGX.s:4180   .text.open:0000000000000000 $t
     /tmp/ccSNToGX.s:4187   .text.open:0000000000000000 open
     /tmp/ccSNToGX.s:4387   .text.open:00000000000000e4 $d
     /tmp/ccSNToGX.s:4394   .text.posix_fopen_modes_to_open:0000000000000000 $t
ARM GAS  /tmp/ccSNToGX.s 			page 359


     /tmp/ccSNToGX.s:4401   .text.posix_fopen_modes_to_open:0000000000000000 posix_fopen_modes_to_open
     /tmp/ccSNToGX.s:4525   .text.posix_fopen_modes_to_open:00000000000000a4 $d
     /tmp/ccSNToGX.s:4541   .text.fopen:0000000000000000 $t
     /tmp/ccSNToGX.s:4548   .text.fopen:0000000000000000 fopen
     /tmp/ccSNToGX.s:4585   .text.__wrap_freopen:0000000000000000 $t
     /tmp/ccSNToGX.s:4592   .text.__wrap_freopen:0000000000000000 __wrap_freopen
     /tmp/ccSNToGX.s:4647   .text.__wrap_fprintf:0000000000000000 $t
     /tmp/ccSNToGX.s:4654   .text.__wrap_fprintf:0000000000000000 __wrap_fprintf
     /tmp/ccSNToGX.s:4734   .text.fsync:0000000000000000 $t
     /tmp/ccSNToGX.s:4741   .text.fsync:0000000000000000 fsync
     /tmp/ccSNToGX.s:4805   .text.fsync:0000000000000040 $d
     /tmp/ccSNToGX.s:4831   .bss.__iob:0000000000000000 __iob
     /tmp/ccSNToGX.s:4811   .rodata:0000000000000000 $d
     /tmp/ccSNToGX.s:4827   .bss.__iob:0000000000000000 $d
     /tmp/ccSNToGX.s:4837   .bss._de:0000000000000000 _de
     /tmp/ccSNToGX.s:4838   .bss._de:0000000000000000 $d
     /tmp/ccSNToGX.s:4840   .bss._dp:0000000000000000 $d
     /tmp/ccSNToGX.s:4844   .bss._dp:0000000000000000 _dp
     /tmp/ccSNToGX.s:4847   .rodata.CSWTCH.54:0000000000000000 $d
     /tmp/ccSNToGX.s:4851   .rodata.CSWTCH.54:0000000000000000 CSWTCH.54
     /tmp/ccSNToGX.s:4933   .rodata.CSWTCH.58:0000000000000000 CSWTCH.58
                     .debug_frame:0000000000000010 $d

UNDEFINED SYMBOLS
__errno
f_read
f_lseek
f_write
strlen
f_open
f_truncate
f_getfree
f_chdir
f_chmod
f_getcwd
f_mkdir
f_rename
f_unlink
f_closedir
f_opendir
f_readdir
strncpy
calloc
strcmp
f_stat
gmtime
f_utime
f_sync
free
f_close
vasprintf
