ARM GAS  /tmp/cc0V1tRx.s 			page 1


   1              		.cpu cortex-m4
   2              		.eabi_attribute 27, 1
   3              		.eabi_attribute 28, 1
   4              		.eabi_attribute 20, 1
   5              		.eabi_attribute 21, 1
   6              		.eabi_attribute 23, 3
   7              		.eabi_attribute 24, 1
   8              		.eabi_attribute 25, 1
   9              		.eabi_attribute 26, 1
  10              		.eabi_attribute 30, 4
  11              		.eabi_attribute 34, 1
  12              		.eabi_attribute 18, 4
  13              		.file	"stm32_dma.c"
  14              		.text
  15              	.Ltext0:
  16              		.cfi_sections	.debug_frame
  17              		.section	.text.Vector6C,"ax",%progbits
  18              		.align	1
  19              		.global	Vector6C
  20              		.syntax unified
  21              		.thumb
  22              		.thumb_func
  23              		.fpu fpv4-sp-d16
  24              		.type	Vector6C, %function
  25              	Vector6C:
  26              	.LFB323:
  27              		.file 1 "../../modules/ChibiOS/os/hal/ports/STM32/LLD/DMAv2/stm32_dma.c"
  28              		.loc 1 163 0
  29              		.cfi_startproc
  30              		@ args = 0, pretend = 0, frame = 0
  31              		@ frame_needed = 0, uses_anonymous_args = 0
  32 0000 08B5     		push	{r3, lr}
  33              		.cfi_def_cfa_offset 8
  34              		.cfi_offset 3, -8
  35              		.cfi_offset 14, -4
  36              		.loc 1 166 0
  37 0002 FFF7FEFF 		bl	_stats_increase_irq
  38              	.LVL0:
  39              		.loc 1 168 0
  40 0006 074B     		ldr	r3, .L6
  41              		.loc 1 170 0
  42 0008 074A     		ldr	r2, .L6+4
  43              		.loc 1 168 0
  44 000a 1968     		ldr	r1, [r3]
  45 000c 01F03D01 		and	r1, r1, #61
  46              	.LVL1:
  47              		.loc 1 169 0
  48 0010 9960     		str	r1, [r3, #8]
  49              		.loc 1 170 0
  50 0012 5368     		ldr	r3, [r2, #4]
  51 0014 0BB1     		cbz	r3, .L2
  52              		.loc 1 171 0
  53 0016 9068     		ldr	r0, [r2, #8]
  54 0018 9847     		blx	r3
  55              	.LVL2:
  56              	.L2:
  57              		.loc 1 174 0
ARM GAS  /tmp/cc0V1tRx.s 			page 2


  58 001a BDE80840 		pop	{r3, lr}
  59              		.cfi_restore 14
  60              		.cfi_restore 3
  61              		.cfi_def_cfa_offset 0
  62              		.loc 1 173 0
  63 001e FFF7FEBF 		b	_port_irq_epilogue
  64              	.LVL3:
  65              	.L7:
  66 0022 00BF     		.align	2
  67              	.L6:
  68 0024 00600240 		.word	1073897472
  69 0028 00000000 		.word	.LANCHOR0
  70              		.cfi_endproc
  71              	.LFE323:
  72              		.size	Vector6C, .-Vector6C
  73              		.section	.text.Vector70,"ax",%progbits
  74              		.align	1
  75              		.global	Vector70
  76              		.syntax unified
  77              		.thumb
  78              		.thumb_func
  79              		.fpu fpv4-sp-d16
  80              		.type	Vector70, %function
  81              	Vector70:
  82              	.LFB324:
  83              		.loc 1 181 0
  84              		.cfi_startproc
  85              		@ args = 0, pretend = 0, frame = 0
  86              		@ frame_needed = 0, uses_anonymous_args = 0
  87 0000 08B5     		push	{r3, lr}
  88              		.cfi_def_cfa_offset 8
  89              		.cfi_offset 3, -8
  90              		.cfi_offset 14, -4
  91              		.loc 1 184 0
  92 0002 FFF7FEFF 		bl	_stats_increase_irq
  93              	.LVL4:
  94              		.loc 1 186 0
  95 0006 084B     		ldr	r3, .L13
  96 0008 1968     		ldr	r1, [r3]
  97 000a 8909     		lsrs	r1, r1, #6
  98 000c 01F03D01 		and	r1, r1, #61
  99              	.LVL5:
 100              		.loc 1 187 0
 101 0010 8A01     		lsls	r2, r1, #6
 102 0012 9A60     		str	r2, [r3, #8]
 103              		.loc 1 188 0
 104 0014 054A     		ldr	r2, .L13+4
 105 0016 D368     		ldr	r3, [r2, #12]
 106 0018 0BB1     		cbz	r3, .L9
 107              		.loc 1 189 0
 108 001a 1069     		ldr	r0, [r2, #16]
 109 001c 9847     		blx	r3
 110              	.LVL6:
 111              	.L9:
 112              		.loc 1 192 0
 113 001e BDE80840 		pop	{r3, lr}
 114              		.cfi_restore 14
ARM GAS  /tmp/cc0V1tRx.s 			page 3


 115              		.cfi_restore 3
 116              		.cfi_def_cfa_offset 0
 117              		.loc 1 191 0
 118 0022 FFF7FEBF 		b	_port_irq_epilogue
 119              	.LVL7:
 120              	.L14:
 121 0026 00BF     		.align	2
 122              	.L13:
 123 0028 00600240 		.word	1073897472
 124 002c 00000000 		.word	.LANCHOR0
 125              		.cfi_endproc
 126              	.LFE324:
 127              		.size	Vector70, .-Vector70
 128              		.section	.text.Vector74,"ax",%progbits
 129              		.align	1
 130              		.global	Vector74
 131              		.syntax unified
 132              		.thumb
 133              		.thumb_func
 134              		.fpu fpv4-sp-d16
 135              		.type	Vector74, %function
 136              	Vector74:
 137              	.LFB325:
 138              		.loc 1 199 0
 139              		.cfi_startproc
 140              		@ args = 0, pretend = 0, frame = 0
 141              		@ frame_needed = 0, uses_anonymous_args = 0
 142 0000 08B5     		push	{r3, lr}
 143              		.cfi_def_cfa_offset 8
 144              		.cfi_offset 3, -8
 145              		.cfi_offset 14, -4
 146              		.loc 1 202 0
 147 0002 FFF7FEFF 		bl	_stats_increase_irq
 148              	.LVL8:
 149              		.loc 1 204 0
 150 0006 084B     		ldr	r3, .L20
 151 0008 1968     		ldr	r1, [r3]
 152 000a 090C     		lsrs	r1, r1, #16
 153 000c 01F03D01 		and	r1, r1, #61
 154              	.LVL9:
 155              		.loc 1 205 0
 156 0010 0A04     		lsls	r2, r1, #16
 157 0012 9A60     		str	r2, [r3, #8]
 158              		.loc 1 206 0
 159 0014 054A     		ldr	r2, .L20+4
 160 0016 5369     		ldr	r3, [r2, #20]
 161 0018 0BB1     		cbz	r3, .L16
 162              		.loc 1 207 0
 163 001a 9069     		ldr	r0, [r2, #24]
 164 001c 9847     		blx	r3
 165              	.LVL10:
 166              	.L16:
 167              		.loc 1 210 0
 168 001e BDE80840 		pop	{r3, lr}
 169              		.cfi_restore 14
 170              		.cfi_restore 3
 171              		.cfi_def_cfa_offset 0
ARM GAS  /tmp/cc0V1tRx.s 			page 4


 172              		.loc 1 209 0
 173 0022 FFF7FEBF 		b	_port_irq_epilogue
 174              	.LVL11:
 175              	.L21:
 176 0026 00BF     		.align	2
 177              	.L20:
 178 0028 00600240 		.word	1073897472
 179 002c 00000000 		.word	.LANCHOR0
 180              		.cfi_endproc
 181              	.LFE325:
 182              		.size	Vector74, .-Vector74
 183              		.section	.text.Vector78,"ax",%progbits
 184              		.align	1
 185              		.global	Vector78
 186              		.syntax unified
 187              		.thumb
 188              		.thumb_func
 189              		.fpu fpv4-sp-d16
 190              		.type	Vector78, %function
 191              	Vector78:
 192              	.LFB326:
 193              		.loc 1 217 0
 194              		.cfi_startproc
 195              		@ args = 0, pretend = 0, frame = 0
 196              		@ frame_needed = 0, uses_anonymous_args = 0
 197 0000 08B5     		push	{r3, lr}
 198              		.cfi_def_cfa_offset 8
 199              		.cfi_offset 3, -8
 200              		.cfi_offset 14, -4
 201              		.loc 1 220 0
 202 0002 FFF7FEFF 		bl	_stats_increase_irq
 203              	.LVL12:
 204              		.loc 1 222 0
 205 0006 084B     		ldr	r3, .L27
 206 0008 1968     		ldr	r1, [r3]
 207 000a 890D     		lsrs	r1, r1, #22
 208 000c 01F03D01 		and	r1, r1, #61
 209              	.LVL13:
 210              		.loc 1 223 0
 211 0010 8A05     		lsls	r2, r1, #22
 212 0012 9A60     		str	r2, [r3, #8]
 213              		.loc 1 224 0
 214 0014 054A     		ldr	r2, .L27+4
 215 0016 D369     		ldr	r3, [r2, #28]
 216 0018 0BB1     		cbz	r3, .L23
 217              		.loc 1 225 0
 218 001a 106A     		ldr	r0, [r2, #32]
 219 001c 9847     		blx	r3
 220              	.LVL14:
 221              	.L23:
 222              		.loc 1 228 0
 223 001e BDE80840 		pop	{r3, lr}
 224              		.cfi_restore 14
 225              		.cfi_restore 3
 226              		.cfi_def_cfa_offset 0
 227              		.loc 1 227 0
 228 0022 FFF7FEBF 		b	_port_irq_epilogue
ARM GAS  /tmp/cc0V1tRx.s 			page 5


 229              	.LVL15:
 230              	.L28:
 231 0026 00BF     		.align	2
 232              	.L27:
 233 0028 00600240 		.word	1073897472
 234 002c 00000000 		.word	.LANCHOR0
 235              		.cfi_endproc
 236              	.LFE326:
 237              		.size	Vector78, .-Vector78
 238              		.section	.text.Vector7C,"ax",%progbits
 239              		.align	1
 240              		.global	Vector7C
 241              		.syntax unified
 242              		.thumb
 243              		.thumb_func
 244              		.fpu fpv4-sp-d16
 245              		.type	Vector7C, %function
 246              	Vector7C:
 247              	.LFB327:
 248              		.loc 1 235 0
 249              		.cfi_startproc
 250              		@ args = 0, pretend = 0, frame = 0
 251              		@ frame_needed = 0, uses_anonymous_args = 0
 252 0000 08B5     		push	{r3, lr}
 253              		.cfi_def_cfa_offset 8
 254              		.cfi_offset 3, -8
 255              		.cfi_offset 14, -4
 256              		.loc 1 238 0
 257 0002 FFF7FEFF 		bl	_stats_increase_irq
 258              	.LVL16:
 259              		.loc 1 240 0
 260 0006 074B     		ldr	r3, .L34
 261              		.loc 1 242 0
 262 0008 074A     		ldr	r2, .L34+4
 263              		.loc 1 240 0
 264 000a 5968     		ldr	r1, [r3, #4]
 265 000c 01F03D01 		and	r1, r1, #61
 266              	.LVL17:
 267              		.loc 1 241 0
 268 0010 D960     		str	r1, [r3, #12]
 269              		.loc 1 242 0
 270 0012 536A     		ldr	r3, [r2, #36]
 271 0014 0BB1     		cbz	r3, .L30
 272              		.loc 1 243 0
 273 0016 906A     		ldr	r0, [r2, #40]
 274 0018 9847     		blx	r3
 275              	.LVL18:
 276              	.L30:
 277              		.loc 1 246 0
 278 001a BDE80840 		pop	{r3, lr}
 279              		.cfi_restore 14
 280              		.cfi_restore 3
 281              		.cfi_def_cfa_offset 0
 282              		.loc 1 245 0
 283 001e FFF7FEBF 		b	_port_irq_epilogue
 284              	.LVL19:
 285              	.L35:
ARM GAS  /tmp/cc0V1tRx.s 			page 6


 286 0022 00BF     		.align	2
 287              	.L34:
 288 0024 00600240 		.word	1073897472
 289 0028 00000000 		.word	.LANCHOR0
 290              		.cfi_endproc
 291              	.LFE327:
 292              		.size	Vector7C, .-Vector7C
 293              		.section	.text.Vector80,"ax",%progbits
 294              		.align	1
 295              		.global	Vector80
 296              		.syntax unified
 297              		.thumb
 298              		.thumb_func
 299              		.fpu fpv4-sp-d16
 300              		.type	Vector80, %function
 301              	Vector80:
 302              	.LFB328:
 303              		.loc 1 253 0
 304              		.cfi_startproc
 305              		@ args = 0, pretend = 0, frame = 0
 306              		@ frame_needed = 0, uses_anonymous_args = 0
 307 0000 08B5     		push	{r3, lr}
 308              		.cfi_def_cfa_offset 8
 309              		.cfi_offset 3, -8
 310              		.cfi_offset 14, -4
 311              		.loc 1 256 0
 312 0002 FFF7FEFF 		bl	_stats_increase_irq
 313              	.LVL20:
 314              		.loc 1 258 0
 315 0006 084B     		ldr	r3, .L41
 316 0008 5968     		ldr	r1, [r3, #4]
 317 000a 8909     		lsrs	r1, r1, #6
 318 000c 01F03D01 		and	r1, r1, #61
 319              	.LVL21:
 320              		.loc 1 259 0
 321 0010 8A01     		lsls	r2, r1, #6
 322 0012 DA60     		str	r2, [r3, #12]
 323              		.loc 1 260 0
 324 0014 054A     		ldr	r2, .L41+4
 325 0016 D36A     		ldr	r3, [r2, #44]
 326 0018 0BB1     		cbz	r3, .L37
 327              		.loc 1 261 0
 328 001a 106B     		ldr	r0, [r2, #48]
 329 001c 9847     		blx	r3
 330              	.LVL22:
 331              	.L37:
 332              		.loc 1 264 0
 333 001e BDE80840 		pop	{r3, lr}
 334              		.cfi_restore 14
 335              		.cfi_restore 3
 336              		.cfi_def_cfa_offset 0
 337              		.loc 1 263 0
 338 0022 FFF7FEBF 		b	_port_irq_epilogue
 339              	.LVL23:
 340              	.L42:
 341 0026 00BF     		.align	2
 342              	.L41:
ARM GAS  /tmp/cc0V1tRx.s 			page 7


 343 0028 00600240 		.word	1073897472
 344 002c 00000000 		.word	.LANCHOR0
 345              		.cfi_endproc
 346              	.LFE328:
 347              		.size	Vector80, .-Vector80
 348              		.section	.text.Vector84,"ax",%progbits
 349              		.align	1
 350              		.global	Vector84
 351              		.syntax unified
 352              		.thumb
 353              		.thumb_func
 354              		.fpu fpv4-sp-d16
 355              		.type	Vector84, %function
 356              	Vector84:
 357              	.LFB329:
 358              		.loc 1 271 0
 359              		.cfi_startproc
 360              		@ args = 0, pretend = 0, frame = 0
 361              		@ frame_needed = 0, uses_anonymous_args = 0
 362 0000 08B5     		push	{r3, lr}
 363              		.cfi_def_cfa_offset 8
 364              		.cfi_offset 3, -8
 365              		.cfi_offset 14, -4
 366              		.loc 1 274 0
 367 0002 FFF7FEFF 		bl	_stats_increase_irq
 368              	.LVL24:
 369              		.loc 1 276 0
 370 0006 084B     		ldr	r3, .L48
 371 0008 5968     		ldr	r1, [r3, #4]
 372 000a 090C     		lsrs	r1, r1, #16
 373 000c 01F03D01 		and	r1, r1, #61
 374              	.LVL25:
 375              		.loc 1 277 0
 376 0010 0A04     		lsls	r2, r1, #16
 377 0012 DA60     		str	r2, [r3, #12]
 378              		.loc 1 278 0
 379 0014 054A     		ldr	r2, .L48+4
 380 0016 536B     		ldr	r3, [r2, #52]
 381 0018 0BB1     		cbz	r3, .L44
 382              		.loc 1 279 0
 383 001a 906B     		ldr	r0, [r2, #56]
 384 001c 9847     		blx	r3
 385              	.LVL26:
 386              	.L44:
 387              		.loc 1 282 0
 388 001e BDE80840 		pop	{r3, lr}
 389              		.cfi_restore 14
 390              		.cfi_restore 3
 391              		.cfi_def_cfa_offset 0
 392              		.loc 1 281 0
 393 0022 FFF7FEBF 		b	_port_irq_epilogue
 394              	.LVL27:
 395              	.L49:
 396 0026 00BF     		.align	2
 397              	.L48:
 398 0028 00600240 		.word	1073897472
 399 002c 00000000 		.word	.LANCHOR0
ARM GAS  /tmp/cc0V1tRx.s 			page 8


 400              		.cfi_endproc
 401              	.LFE329:
 402              		.size	Vector84, .-Vector84
 403              		.section	.text.VectorFC,"ax",%progbits
 404              		.align	1
 405              		.global	VectorFC
 406              		.syntax unified
 407              		.thumb
 408              		.thumb_func
 409              		.fpu fpv4-sp-d16
 410              		.type	VectorFC, %function
 411              	VectorFC:
 412              	.LFB330:
 413              		.loc 1 289 0
 414              		.cfi_startproc
 415              		@ args = 0, pretend = 0, frame = 0
 416              		@ frame_needed = 0, uses_anonymous_args = 0
 417 0000 08B5     		push	{r3, lr}
 418              		.cfi_def_cfa_offset 8
 419              		.cfi_offset 3, -8
 420              		.cfi_offset 14, -4
 421              		.loc 1 292 0
 422 0002 FFF7FEFF 		bl	_stats_increase_irq
 423              	.LVL28:
 424              		.loc 1 294 0
 425 0006 084B     		ldr	r3, .L55
 426 0008 5968     		ldr	r1, [r3, #4]
 427 000a 890D     		lsrs	r1, r1, #22
 428 000c 01F03D01 		and	r1, r1, #61
 429              	.LVL29:
 430              		.loc 1 295 0
 431 0010 8A05     		lsls	r2, r1, #22
 432 0012 DA60     		str	r2, [r3, #12]
 433              		.loc 1 296 0
 434 0014 054A     		ldr	r2, .L55+4
 435 0016 D36B     		ldr	r3, [r2, #60]
 436 0018 0BB1     		cbz	r3, .L51
 437              		.loc 1 297 0
 438 001a 106C     		ldr	r0, [r2, #64]
 439 001c 9847     		blx	r3
 440              	.LVL30:
 441              	.L51:
 442              		.loc 1 300 0
 443 001e BDE80840 		pop	{r3, lr}
 444              		.cfi_restore 14
 445              		.cfi_restore 3
 446              		.cfi_def_cfa_offset 0
 447              		.loc 1 299 0
 448 0022 FFF7FEBF 		b	_port_irq_epilogue
 449              	.LVL31:
 450              	.L56:
 451 0026 00BF     		.align	2
 452              	.L55:
 453 0028 00600240 		.word	1073897472
 454 002c 00000000 		.word	.LANCHOR0
 455              		.cfi_endproc
 456              	.LFE330:
ARM GAS  /tmp/cc0V1tRx.s 			page 9


 457              		.size	VectorFC, .-VectorFC
 458              		.section	.text.Vector120,"ax",%progbits
 459              		.align	1
 460              		.global	Vector120
 461              		.syntax unified
 462              		.thumb
 463              		.thumb_func
 464              		.fpu fpv4-sp-d16
 465              		.type	Vector120, %function
 466              	Vector120:
 467              	.LFB331:
 468              		.loc 1 307 0
 469              		.cfi_startproc
 470              		@ args = 0, pretend = 0, frame = 0
 471              		@ frame_needed = 0, uses_anonymous_args = 0
 472 0000 08B5     		push	{r3, lr}
 473              		.cfi_def_cfa_offset 8
 474              		.cfi_offset 3, -8
 475              		.cfi_offset 14, -4
 476              		.loc 1 310 0
 477 0002 FFF7FEFF 		bl	_stats_increase_irq
 478              	.LVL32:
 479              		.loc 1 312 0
 480 0006 074B     		ldr	r3, .L62
 481              		.loc 1 314 0
 482 0008 074A     		ldr	r2, .L62+4
 483              		.loc 1 312 0
 484 000a 1968     		ldr	r1, [r3]
 485 000c 01F03D01 		and	r1, r1, #61
 486              	.LVL33:
 487              		.loc 1 313 0
 488 0010 9960     		str	r1, [r3, #8]
 489              		.loc 1 314 0
 490 0012 536C     		ldr	r3, [r2, #68]
 491 0014 0BB1     		cbz	r3, .L58
 492              		.loc 1 315 0
 493 0016 906C     		ldr	r0, [r2, #72]
 494 0018 9847     		blx	r3
 495              	.LVL34:
 496              	.L58:
 497              		.loc 1 318 0
 498 001a BDE80840 		pop	{r3, lr}
 499              		.cfi_restore 14
 500              		.cfi_restore 3
 501              		.cfi_def_cfa_offset 0
 502              		.loc 1 317 0
 503 001e FFF7FEBF 		b	_port_irq_epilogue
 504              	.LVL35:
 505              	.L63:
 506 0022 00BF     		.align	2
 507              	.L62:
 508 0024 00640240 		.word	1073898496
 509 0028 00000000 		.word	.LANCHOR0
 510              		.cfi_endproc
 511              	.LFE331:
 512              		.size	Vector120, .-Vector120
 513              		.section	.text.Vector124,"ax",%progbits
ARM GAS  /tmp/cc0V1tRx.s 			page 10


 514              		.align	1
 515              		.global	Vector124
 516              		.syntax unified
 517              		.thumb
 518              		.thumb_func
 519              		.fpu fpv4-sp-d16
 520              		.type	Vector124, %function
 521              	Vector124:
 522              	.LFB332:
 523              		.loc 1 325 0
 524              		.cfi_startproc
 525              		@ args = 0, pretend = 0, frame = 0
 526              		@ frame_needed = 0, uses_anonymous_args = 0
 527 0000 08B5     		push	{r3, lr}
 528              		.cfi_def_cfa_offset 8
 529              		.cfi_offset 3, -8
 530              		.cfi_offset 14, -4
 531              		.loc 1 328 0
 532 0002 FFF7FEFF 		bl	_stats_increase_irq
 533              	.LVL36:
 534              		.loc 1 330 0
 535 0006 084B     		ldr	r3, .L69
 536 0008 1968     		ldr	r1, [r3]
 537 000a 8909     		lsrs	r1, r1, #6
 538 000c 01F03D01 		and	r1, r1, #61
 539              	.LVL37:
 540              		.loc 1 331 0
 541 0010 8A01     		lsls	r2, r1, #6
 542 0012 9A60     		str	r2, [r3, #8]
 543              		.loc 1 332 0
 544 0014 054A     		ldr	r2, .L69+4
 545 0016 D36C     		ldr	r3, [r2, #76]
 546 0018 0BB1     		cbz	r3, .L65
 547              		.loc 1 333 0
 548 001a 106D     		ldr	r0, [r2, #80]
 549 001c 9847     		blx	r3
 550              	.LVL38:
 551              	.L65:
 552              		.loc 1 336 0
 553 001e BDE80840 		pop	{r3, lr}
 554              		.cfi_restore 14
 555              		.cfi_restore 3
 556              		.cfi_def_cfa_offset 0
 557              		.loc 1 335 0
 558 0022 FFF7FEBF 		b	_port_irq_epilogue
 559              	.LVL39:
 560              	.L70:
 561 0026 00BF     		.align	2
 562              	.L69:
 563 0028 00640240 		.word	1073898496
 564 002c 00000000 		.word	.LANCHOR0
 565              		.cfi_endproc
 566              	.LFE332:
 567              		.size	Vector124, .-Vector124
 568              		.section	.text.Vector128,"ax",%progbits
 569              		.align	1
 570              		.global	Vector128
ARM GAS  /tmp/cc0V1tRx.s 			page 11


 571              		.syntax unified
 572              		.thumb
 573              		.thumb_func
 574              		.fpu fpv4-sp-d16
 575              		.type	Vector128, %function
 576              	Vector128:
 577              	.LFB333:
 578              		.loc 1 343 0
 579              		.cfi_startproc
 580              		@ args = 0, pretend = 0, frame = 0
 581              		@ frame_needed = 0, uses_anonymous_args = 0
 582 0000 08B5     		push	{r3, lr}
 583              		.cfi_def_cfa_offset 8
 584              		.cfi_offset 3, -8
 585              		.cfi_offset 14, -4
 586              		.loc 1 346 0
 587 0002 FFF7FEFF 		bl	_stats_increase_irq
 588              	.LVL40:
 589              		.loc 1 348 0
 590 0006 084B     		ldr	r3, .L76
 591 0008 1968     		ldr	r1, [r3]
 592 000a 090C     		lsrs	r1, r1, #16
 593 000c 01F03D01 		and	r1, r1, #61
 594              	.LVL41:
 595              		.loc 1 349 0
 596 0010 0A04     		lsls	r2, r1, #16
 597 0012 9A60     		str	r2, [r3, #8]
 598              		.loc 1 350 0
 599 0014 054A     		ldr	r2, .L76+4
 600 0016 536D     		ldr	r3, [r2, #84]
 601 0018 0BB1     		cbz	r3, .L72
 602              		.loc 1 351 0
 603 001a 906D     		ldr	r0, [r2, #88]
 604 001c 9847     		blx	r3
 605              	.LVL42:
 606              	.L72:
 607              		.loc 1 354 0
 608 001e BDE80840 		pop	{r3, lr}
 609              		.cfi_restore 14
 610              		.cfi_restore 3
 611              		.cfi_def_cfa_offset 0
 612              		.loc 1 353 0
 613 0022 FFF7FEBF 		b	_port_irq_epilogue
 614              	.LVL43:
 615              	.L77:
 616 0026 00BF     		.align	2
 617              	.L76:
 618 0028 00640240 		.word	1073898496
 619 002c 00000000 		.word	.LANCHOR0
 620              		.cfi_endproc
 621              	.LFE333:
 622              		.size	Vector128, .-Vector128
 623              		.section	.text.Vector12C,"ax",%progbits
 624              		.align	1
 625              		.global	Vector12C
 626              		.syntax unified
 627              		.thumb
ARM GAS  /tmp/cc0V1tRx.s 			page 12


 628              		.thumb_func
 629              		.fpu fpv4-sp-d16
 630              		.type	Vector12C, %function
 631              	Vector12C:
 632              	.LFB334:
 633              		.loc 1 361 0
 634              		.cfi_startproc
 635              		@ args = 0, pretend = 0, frame = 0
 636              		@ frame_needed = 0, uses_anonymous_args = 0
 637 0000 08B5     		push	{r3, lr}
 638              		.cfi_def_cfa_offset 8
 639              		.cfi_offset 3, -8
 640              		.cfi_offset 14, -4
 641              		.loc 1 364 0
 642 0002 FFF7FEFF 		bl	_stats_increase_irq
 643              	.LVL44:
 644              		.loc 1 366 0
 645 0006 084B     		ldr	r3, .L83
 646 0008 1968     		ldr	r1, [r3]
 647 000a 890D     		lsrs	r1, r1, #22
 648 000c 01F03D01 		and	r1, r1, #61
 649              	.LVL45:
 650              		.loc 1 367 0
 651 0010 8A05     		lsls	r2, r1, #22
 652 0012 9A60     		str	r2, [r3, #8]
 653              		.loc 1 368 0
 654 0014 054A     		ldr	r2, .L83+4
 655 0016 D36D     		ldr	r3, [r2, #92]
 656 0018 0BB1     		cbz	r3, .L79
 657              		.loc 1 369 0
 658 001a 106E     		ldr	r0, [r2, #96]
 659 001c 9847     		blx	r3
 660              	.LVL46:
 661              	.L79:
 662              		.loc 1 372 0
 663 001e BDE80840 		pop	{r3, lr}
 664              		.cfi_restore 14
 665              		.cfi_restore 3
 666              		.cfi_def_cfa_offset 0
 667              		.loc 1 371 0
 668 0022 FFF7FEBF 		b	_port_irq_epilogue
 669              	.LVL47:
 670              	.L84:
 671 0026 00BF     		.align	2
 672              	.L83:
 673 0028 00640240 		.word	1073898496
 674 002c 00000000 		.word	.LANCHOR0
 675              		.cfi_endproc
 676              	.LFE334:
 677              		.size	Vector12C, .-Vector12C
 678              		.section	.text.Vector130,"ax",%progbits
 679              		.align	1
 680              		.global	Vector130
 681              		.syntax unified
 682              		.thumb
 683              		.thumb_func
 684              		.fpu fpv4-sp-d16
ARM GAS  /tmp/cc0V1tRx.s 			page 13


 685              		.type	Vector130, %function
 686              	Vector130:
 687              	.LFB335:
 688              		.loc 1 379 0
 689              		.cfi_startproc
 690              		@ args = 0, pretend = 0, frame = 0
 691              		@ frame_needed = 0, uses_anonymous_args = 0
 692 0000 08B5     		push	{r3, lr}
 693              		.cfi_def_cfa_offset 8
 694              		.cfi_offset 3, -8
 695              		.cfi_offset 14, -4
 696              		.loc 1 382 0
 697 0002 FFF7FEFF 		bl	_stats_increase_irq
 698              	.LVL48:
 699              		.loc 1 384 0
 700 0006 074B     		ldr	r3, .L90
 701              		.loc 1 386 0
 702 0008 074A     		ldr	r2, .L90+4
 703              		.loc 1 384 0
 704 000a 5968     		ldr	r1, [r3, #4]
 705 000c 01F03D01 		and	r1, r1, #61
 706              	.LVL49:
 707              		.loc 1 385 0
 708 0010 D960     		str	r1, [r3, #12]
 709              		.loc 1 386 0
 710 0012 536E     		ldr	r3, [r2, #100]
 711 0014 0BB1     		cbz	r3, .L86
 712              		.loc 1 387 0
 713 0016 906E     		ldr	r0, [r2, #104]
 714 0018 9847     		blx	r3
 715              	.LVL50:
 716              	.L86:
 717              		.loc 1 390 0
 718 001a BDE80840 		pop	{r3, lr}
 719              		.cfi_restore 14
 720              		.cfi_restore 3
 721              		.cfi_def_cfa_offset 0
 722              		.loc 1 389 0
 723 001e FFF7FEBF 		b	_port_irq_epilogue
 724              	.LVL51:
 725              	.L91:
 726 0022 00BF     		.align	2
 727              	.L90:
 728 0024 00640240 		.word	1073898496
 729 0028 00000000 		.word	.LANCHOR0
 730              		.cfi_endproc
 731              	.LFE335:
 732              		.size	Vector130, .-Vector130
 733              		.section	.text.Vector150,"ax",%progbits
 734              		.align	1
 735              		.global	Vector150
 736              		.syntax unified
 737              		.thumb
 738              		.thumb_func
 739              		.fpu fpv4-sp-d16
 740              		.type	Vector150, %function
 741              	Vector150:
ARM GAS  /tmp/cc0V1tRx.s 			page 14


 742              	.LFB336:
 743              		.loc 1 397 0
 744              		.cfi_startproc
 745              		@ args = 0, pretend = 0, frame = 0
 746              		@ frame_needed = 0, uses_anonymous_args = 0
 747 0000 08B5     		push	{r3, lr}
 748              		.cfi_def_cfa_offset 8
 749              		.cfi_offset 3, -8
 750              		.cfi_offset 14, -4
 751              		.loc 1 400 0
 752 0002 FFF7FEFF 		bl	_stats_increase_irq
 753              	.LVL52:
 754              		.loc 1 402 0
 755 0006 084B     		ldr	r3, .L97
 756 0008 5968     		ldr	r1, [r3, #4]
 757 000a 8909     		lsrs	r1, r1, #6
 758 000c 01F03D01 		and	r1, r1, #61
 759              	.LVL53:
 760              		.loc 1 403 0
 761 0010 8A01     		lsls	r2, r1, #6
 762 0012 DA60     		str	r2, [r3, #12]
 763              		.loc 1 404 0
 764 0014 054A     		ldr	r2, .L97+4
 765 0016 D36E     		ldr	r3, [r2, #108]
 766 0018 0BB1     		cbz	r3, .L93
 767              		.loc 1 405 0
 768 001a 106F     		ldr	r0, [r2, #112]
 769 001c 9847     		blx	r3
 770              	.LVL54:
 771              	.L93:
 772              		.loc 1 408 0
 773 001e BDE80840 		pop	{r3, lr}
 774              		.cfi_restore 14
 775              		.cfi_restore 3
 776              		.cfi_def_cfa_offset 0
 777              		.loc 1 407 0
 778 0022 FFF7FEBF 		b	_port_irq_epilogue
 779              	.LVL55:
 780              	.L98:
 781 0026 00BF     		.align	2
 782              	.L97:
 783 0028 00640240 		.word	1073898496
 784 002c 00000000 		.word	.LANCHOR0
 785              		.cfi_endproc
 786              	.LFE336:
 787              		.size	Vector150, .-Vector150
 788              		.section	.text.Vector154,"ax",%progbits
 789              		.align	1
 790              		.global	Vector154
 791              		.syntax unified
 792              		.thumb
 793              		.thumb_func
 794              		.fpu fpv4-sp-d16
 795              		.type	Vector154, %function
 796              	Vector154:
 797              	.LFB337:
 798              		.loc 1 415 0
ARM GAS  /tmp/cc0V1tRx.s 			page 15


 799              		.cfi_startproc
 800              		@ args = 0, pretend = 0, frame = 0
 801              		@ frame_needed = 0, uses_anonymous_args = 0
 802 0000 08B5     		push	{r3, lr}
 803              		.cfi_def_cfa_offset 8
 804              		.cfi_offset 3, -8
 805              		.cfi_offset 14, -4
 806              		.loc 1 418 0
 807 0002 FFF7FEFF 		bl	_stats_increase_irq
 808              	.LVL56:
 809              		.loc 1 420 0
 810 0006 084B     		ldr	r3, .L104
 811 0008 5968     		ldr	r1, [r3, #4]
 812 000a 090C     		lsrs	r1, r1, #16
 813 000c 01F03D01 		and	r1, r1, #61
 814              	.LVL57:
 815              		.loc 1 421 0
 816 0010 0A04     		lsls	r2, r1, #16
 817 0012 DA60     		str	r2, [r3, #12]
 818              		.loc 1 422 0
 819 0014 054A     		ldr	r2, .L104+4
 820 0016 536F     		ldr	r3, [r2, #116]
 821 0018 0BB1     		cbz	r3, .L100
 822              		.loc 1 423 0
 823 001a 906F     		ldr	r0, [r2, #120]
 824 001c 9847     		blx	r3
 825              	.LVL58:
 826              	.L100:
 827              		.loc 1 426 0
 828 001e BDE80840 		pop	{r3, lr}
 829              		.cfi_restore 14
 830              		.cfi_restore 3
 831              		.cfi_def_cfa_offset 0
 832              		.loc 1 425 0
 833 0022 FFF7FEBF 		b	_port_irq_epilogue
 834              	.LVL59:
 835              	.L105:
 836 0026 00BF     		.align	2
 837              	.L104:
 838 0028 00640240 		.word	1073898496
 839 002c 00000000 		.word	.LANCHOR0
 840              		.cfi_endproc
 841              	.LFE337:
 842              		.size	Vector154, .-Vector154
 843              		.section	.text.Vector158,"ax",%progbits
 844              		.align	1
 845              		.global	Vector158
 846              		.syntax unified
 847              		.thumb
 848              		.thumb_func
 849              		.fpu fpv4-sp-d16
 850              		.type	Vector158, %function
 851              	Vector158:
 852              	.LFB338:
 853              		.loc 1 433 0
 854              		.cfi_startproc
 855              		@ args = 0, pretend = 0, frame = 0
ARM GAS  /tmp/cc0V1tRx.s 			page 16


 856              		@ frame_needed = 0, uses_anonymous_args = 0
 857 0000 08B5     		push	{r3, lr}
 858              		.cfi_def_cfa_offset 8
 859              		.cfi_offset 3, -8
 860              		.cfi_offset 14, -4
 861              		.loc 1 436 0
 862 0002 FFF7FEFF 		bl	_stats_increase_irq
 863              	.LVL60:
 864              		.loc 1 438 0
 865 0006 084B     		ldr	r3, .L111
 866 0008 5968     		ldr	r1, [r3, #4]
 867 000a 890D     		lsrs	r1, r1, #22
 868 000c 01F03D01 		and	r1, r1, #61
 869              	.LVL61:
 870              		.loc 1 439 0
 871 0010 8A05     		lsls	r2, r1, #22
 872 0012 DA60     		str	r2, [r3, #12]
 873              		.loc 1 440 0
 874 0014 054A     		ldr	r2, .L111+4
 875 0016 D36F     		ldr	r3, [r2, #124]
 876 0018 13B1     		cbz	r3, .L107
 877              		.loc 1 441 0
 878 001a D2F88000 		ldr	r0, [r2, #128]
 879 001e 9847     		blx	r3
 880              	.LVL62:
 881              	.L107:
 882              		.loc 1 444 0
 883 0020 BDE80840 		pop	{r3, lr}
 884              		.cfi_restore 14
 885              		.cfi_restore 3
 886              		.cfi_def_cfa_offset 0
 887              		.loc 1 443 0
 888 0024 FFF7FEBF 		b	_port_irq_epilogue
 889              	.LVL63:
 890              	.L112:
 891              		.align	2
 892              	.L111:
 893 0028 00640240 		.word	1073898496
 894 002c 00000000 		.word	.LANCHOR0
 895              		.cfi_endproc
 896              	.LFE338:
 897              		.size	Vector158, .-Vector158
 898              		.section	.text.dmaInit,"ax",%progbits
 899              		.align	1
 900              		.global	dmaInit
 901              		.syntax unified
 902              		.thumb
 903              		.thumb_func
 904              		.fpu fpv4-sp-d16
 905              		.type	dmaInit, %function
 906              	dmaInit:
 907              	.LFB339:
 908              		.loc 1 455 0
 909              		.cfi_startproc
 910              		@ args = 0, pretend = 0, frame = 0
 911              		@ frame_needed = 0, uses_anonymous_args = 0
 912              		.loc 1 458 0
ARM GAS  /tmp/cc0V1tRx.s 			page 17


 913 0000 0D4A     		ldr	r2, .L116
 914              		.loc 1 455 0
 915 0002 30B5     		push	{r4, r5, lr}
 916              		.cfi_def_cfa_offset 12
 917              		.cfi_offset 4, -12
 918              		.cfi_offset 5, -8
 919              		.cfi_offset 14, -4
 920              		.loc 1 458 0
 921 0004 0023     		movs	r3, #0
 922              		.loc 1 460 0
 923 0006 0D4C     		ldr	r4, .L116+4
 924              		.loc 1 458 0
 925 0008 1360     		str	r3, [r2]
 926              	.LVL64:
 927              		.loc 1 460 0
 928 000a 0C25     		movs	r5, #12
 929 000c 1946     		mov	r1, r3
 930              	.LVL65:
 931              	.L114:
 932              		.loc 1 460 0 is_stmt 0 discriminator 3
 933 000e 05FB03F0 		mul	r0, r5, r3
 934 0012 0059     		ldr	r0, [r0, r4]
 935 0014 0160     		str	r1, [r0]
 936              		.loc 1 461 0 is_stmt 1 discriminator 3
 937 0016 02EBC300 		add	r0, r2, r3, lsl #3
 938              		.loc 1 459 0 discriminator 3
 939 001a 0133     		adds	r3, r3, #1
 940              	.LVL66:
 941 001c 102B     		cmp	r3, #16
 942              		.loc 1 461 0 discriminator 3
 943 001e 4160     		str	r1, [r0, #4]
 944              		.loc 1 459 0 discriminator 3
 945 0020 F5D1     		bne	.L114
 946              		.loc 1 463 0
 947 0022 074A     		ldr	r2, .L116+8
 948 0024 4FF0FF33 		mov	r3, #-1
 949              	.LVL67:
 950 0028 9360     		str	r3, [r2, #8]
 951              		.loc 1 464 0
 952 002a D360     		str	r3, [r2, #12]
 953              		.loc 1 465 0
 954 002c C2F80834 		str	r3, [r2, #1032]
 955              		.loc 1 466 0
 956 0030 C2F80C34 		str	r3, [r2, #1036]
 957              		.loc 1 465 0
 958 0034 30BD     		pop	{r4, r5, pc}
 959              	.L117:
 960 0036 00BF     		.align	2
 961              	.L116:
 962 0038 00000000 		.word	.LANCHOR0
 963 003c 00000000 		.word	.LANCHOR1
 964 0040 00600240 		.word	1073897472
 965              		.cfi_endproc
 966              	.LFE339:
 967              		.size	dmaInit, .-dmaInit
 968              		.section	.text.dmaStreamAllocI,"ax",%progbits
 969              		.align	1
ARM GAS  /tmp/cc0V1tRx.s 			page 18


 970              		.global	dmaStreamAllocI
 971              		.syntax unified
 972              		.thumb
 973              		.thumb_func
 974              		.fpu fpv4-sp-d16
 975              		.type	dmaStreamAllocI, %function
 976              	dmaStreamAllocI:
 977              	.LFB340:
 978              		.loc 1 494 0
 979              		.cfi_startproc
 980              		@ args = 0, pretend = 0, frame = 0
 981              		@ frame_needed = 0, uses_anonymous_args = 0
 982              	.LVL68:
 983              		.loc 1 499 0
 984 0000 0F28     		cmp	r0, #15
 985              		.loc 1 494 0
 986 0002 F8B5     		push	{r3, r4, r5, r6, r7, lr}
 987              		.cfi_def_cfa_offset 24
 988              		.cfi_offset 3, -24
 989              		.cfi_offset 4, -20
 990              		.cfi_offset 5, -16
 991              		.cfi_offset 6, -12
 992              		.cfi_offset 7, -8
 993              		.cfi_offset 14, -4
 994              		.loc 1 499 0
 995 0004 4BD8     		bhi	.L124
 996              	.LVL69:
 997              	.LBB22:
 998              		.loc 1 523 0 discriminator 1
 999 0006 274E     		ldr	r6, .L135
 1000              		.loc 1 522 0 discriminator 1
 1001 0008 0124     		movs	r4, #1
 1002              		.loc 1 523 0 discriminator 1
 1003 000a 3768     		ldr	r7, [r6]
 1004              		.loc 1 522 0 discriminator 1
 1005 000c 8440     		lsls	r4, r4, r0
 1006              	.LVL70:
 1007              		.loc 1 523 0 discriminator 1
 1008 000e 3C42     		tst	r4, r7
 1009 0010 45D1     		bne	.L124
 1010              	.LBB23:
 1011              		.loc 1 527 0
 1012 0012 06EBC00C 		add	ip, r6, r0, lsl #3
 1013              		.loc 1 524 0
 1014 0016 DFF894E0 		ldr	lr, .L135+8
 1015              		.loc 1 527 0
 1016 001a CCF80420 		str	r2, [ip, #4]
 1017              		.loc 1 524 0
 1018 001e 0C25     		movs	r5, #12
 1019              		.loc 1 529 0
 1020 0020 2743     		orrs	r7, r7, r4
 1021              		.loc 1 532 0
 1022 0022 14F0FF0F 		tst	r4, #255
 1023              		.loc 1 529 0
 1024 0026 3760     		str	r7, [r6]
 1025              		.loc 1 524 0
 1026 0028 05FB00E5 		mla	r5, r5, r0, lr
ARM GAS  /tmp/cc0V1tRx.s 			page 19


 1027              	.LVL71:
 1028              		.loc 1 528 0
 1029 002c CCF80830 		str	r3, [ip, #8]
 1030 0030 7646     		mov	r6, lr
 1031              		.loc 1 532 0
 1032 0032 09D0     		beq	.L120
 1033              		.loc 1 533 0
 1034 0034 1C4B     		ldr	r3, .L135+4
 1035              	.LVL72:
 1036 0036 1F6B     		ldr	r7, [r3, #48]
 1037 0038 47F40017 		orr	r7, r7, #2097152
 1038 003c 1F63     		str	r7, [r3, #48]
 1039 003e 1F6D     		ldr	r7, [r3, #80]
 1040 0040 47F40017 		orr	r7, r7, #2097152
 1041 0044 1F65     		str	r7, [r3, #80]
 1042 0046 1B6D     		ldr	r3, [r3, #80]
 1043              	.L120:
 1044              		.loc 1 535 0
 1045 0048 14F47F4F 		tst	r4, #65280
 1046 004c 09D0     		beq	.L121
 1047              		.loc 1 536 0
 1048 004e 164B     		ldr	r3, .L135+4
 1049 0050 1C6B     		ldr	r4, [r3, #48]
 1050              	.LVL73:
 1051 0052 44F48004 		orr	r4, r4, #4194304
 1052 0056 1C63     		str	r4, [r3, #48]
 1053 0058 1C6D     		ldr	r4, [r3, #80]
 1054 005a 44F48004 		orr	r4, r4, #4194304
 1055 005e 1C65     		str	r4, [r3, #80]
 1056 0060 1B6D     		ldr	r3, [r3, #80]
 1057              	.L121:
 1058              		.loc 1 547 0
 1059 0062 0C23     		movs	r3, #12
 1060 0064 4343     		muls	r3, r0, r3
 1061 0066 F358     		ldr	r3, [r6, r3]
 1062 0068 1C68     		ldr	r4, [r3]
 1063 006a 24F01F04 		bic	r4, r4, #31
 1064 006e 1C60     		str	r4, [r3]
 1065              	.L122:
 1066              		.loc 1 547 0 is_stmt 0 discriminator 2
 1067 0070 1C68     		ldr	r4, [r3]
 1068 0072 14F00104 		ands	r4, r4, #1
 1069 0076 FBD1     		bne	.L122
 1070              		.loc 1 547 0 discriminator 3
 1071 0078 0C27     		movs	r7, #12
 1072 007a 07FB0060 		mla	r0, r7, r0, r6
 1073              	.LVL74:
 1074 007e 3D26     		movs	r6, #61
 1075 0080 90F809E0 		ldrb	lr, [r0, #9]	@ zero_extendqisi2
 1076 0084 4768     		ldr	r7, [r0, #4]
 1077 0086 06FA0EF6 		lsl	r6, r6, lr
 1078 008a 3E60     		str	r6, [r7]
 1079              		.loc 1 548 0 is_stmt 1 discriminator 3
 1080 008c 1C60     		str	r4, [r3]
 1081              		.loc 1 549 0 discriminator 3
 1082 008e 2124     		movs	r4, #33
 1083 0090 5C61     		str	r4, [r3, #20]
ARM GAS  /tmp/cc0V1tRx.s 			page 20


 1084              		.loc 1 552 0 discriminator 3
 1085 0092 12B1     		cbz	r2, .L118
 1086              		.loc 1 553 0
 1087 0094 C07A     		ldrb	r0, [r0, #11]	@ zero_extendqisi2
 1088 0096 FFF7FEFF 		bl	nvicEnableVector
 1089              	.LVL75:
 1090              	.L118:
 1091              	.LBE23:
 1092              	.LBE22:
 1093              		.loc 1 561 0
 1094 009a 2846     		mov	r0, r5
 1095 009c F8BD     		pop	{r3, r4, r5, r6, r7, pc}
 1096              	.LVL76:
 1097              	.L124:
 1098              		.loc 1 518 0
 1099 009e 0025     		movs	r5, #0
 1100 00a0 FBE7     		b	.L118
 1101              	.L136:
 1102 00a2 00BF     		.align	2
 1103              	.L135:
 1104 00a4 00000000 		.word	.LANCHOR0
 1105 00a8 00380240 		.word	1073887232
 1106 00ac 00000000 		.word	.LANCHOR1
 1107              		.cfi_endproc
 1108              	.LFE340:
 1109              		.size	dmaStreamAllocI, .-dmaStreamAllocI
 1110              		.section	.text.dmaStreamAlloc,"ax",%progbits
 1111              		.align	1
 1112              		.global	dmaStreamAlloc
 1113              		.syntax unified
 1114              		.thumb
 1115              		.thumb_func
 1116              		.fpu fpv4-sp-d16
 1117              		.type	dmaStreamAlloc, %function
 1118              	dmaStreamAlloc:
 1119              	.LFB341:
 1120              		.loc 1 588 0
 1121              		.cfi_startproc
 1122              		@ args = 0, pretend = 0, frame = 0
 1123              		@ frame_needed = 0, uses_anonymous_args = 0
 1124              	.LVL77:
 1125 0000 F8B5     		push	{r3, r4, r5, r6, r7, lr}
 1126              		.cfi_def_cfa_offset 24
 1127              		.cfi_offset 3, -24
 1128              		.cfi_offset 4, -20
 1129              		.cfi_offset 5, -16
 1130              		.cfi_offset 6, -12
 1131              		.cfi_offset 7, -8
 1132              		.cfi_offset 14, -4
 1133              		.loc 1 588 0
 1134 0002 1F46     		mov	r7, r3
 1135 0004 0446     		mov	r4, r0
 1136 0006 0D46     		mov	r5, r1
 1137 0008 1646     		mov	r6, r2
 1138              	.LBB38:
 1139              	.LBB39:
 1140              	.LBB40:
ARM GAS  /tmp/cc0V1tRx.s 			page 21


 1141              	.LBB41:
 1142              	.LBB42:
 1143              	.LBB43:
 1144              		.file 2 "../../modules/ChibiOS/os/common/ext/ARM/CMSIS/Core/Include/cmsis_gcc.h"
 1145              		.loc 2 493 0
 1146 000a 2023     		movs	r3, #32
 1147              	.LVL78:
 1148              		.syntax unified
 1149              	@ 493 "../../modules/ChibiOS/os/common/ext/ARM/CMSIS/Core/Include/cmsis_gcc.h" 1
 1150 000c 83F31188 		MSR basepri, r3
 1151              	@ 0 "" 2
 1152              	.LVL79:
 1153              		.thumb
 1154              		.syntax unified
 1155              	.LBE43:
 1156              	.LBE42:
 1157              	.LBE41:
 1158              		.file 3 "../../modules/ChibiOS/os/rt/include/chsys.h"
 1159              		.loc 3 356 0
 1160 0010 FFF7FEFF 		bl	_stats_start_measure_crit_thd
 1161              	.LVL80:
 1162              	.LBE40:
 1163              	.LBE39:
 1164              	.LBE38:
 1165              		.loc 1 592 0
 1166 0014 3B46     		mov	r3, r7
 1167 0016 3246     		mov	r2, r6
 1168 0018 2946     		mov	r1, r5
 1169 001a 2046     		mov	r0, r4
 1170 001c FFF7FEFF 		bl	dmaStreamAllocI
 1171              	.LVL81:
 1172 0020 0446     		mov	r4, r0
 1173              	.LVL82:
 1174              	.LBB44:
 1175              	.LBB45:
 1176              	.LBB46:
 1177              		.loc 3 368 0
 1178 0022 FFF7FEFF 		bl	_stats_stop_measure_crit_thd
 1179              	.LVL83:
 1180              	.LBB47:
 1181              	.LBB48:
 1182              	.LBB49:
 1183              		.loc 2 493 0
 1184 0026 0023     		movs	r3, #0
 1185              		.syntax unified
 1186              	@ 493 "../../modules/ChibiOS/os/common/ext/ARM/CMSIS/Core/Include/cmsis_gcc.h" 1
 1187 0028 83F31188 		MSR basepri, r3
 1188              	@ 0 "" 2
 1189              	.LVL84:
 1190              		.thumb
 1191              		.syntax unified
 1192              	.LBE49:
 1193              	.LBE48:
 1194              	.LBE47:
 1195              	.LBE46:
 1196              	.LBE45:
 1197              	.LBE44:
ARM GAS  /tmp/cc0V1tRx.s 			page 22


 1198              		.loc 1 596 0
 1199 002c 2046     		mov	r0, r4
 1200 002e F8BD     		pop	{r3, r4, r5, r6, r7, pc}
 1201              		.cfi_endproc
 1202              	.LFE341:
 1203              		.size	dmaStreamAlloc, .-dmaStreamAlloc
 1204              		.section	.text.dmaStreamFreeI,"ax",%progbits
 1205              		.align	1
 1206              		.global	dmaStreamFreeI
 1207              		.syntax unified
 1208              		.thumb
 1209              		.thumb_func
 1210              		.fpu fpv4-sp-d16
 1211              		.type	dmaStreamFreeI, %function
 1212              	dmaStreamFreeI:
 1213              	.LFB342:
 1214              		.loc 1 608 0
 1215              		.cfi_startproc
 1216              		@ args = 0, pretend = 0, frame = 0
 1217              		@ frame_needed = 0, uses_anonymous_args = 0
 1218              	.LVL85:
 1219 0000 10B5     		push	{r4, lr}
 1220              		.cfi_def_cfa_offset 8
 1221              		.cfi_offset 4, -8
 1222              		.cfi_offset 14, -4
 1223              		.loc 1 608 0
 1224 0002 0446     		mov	r4, r0
 1225              		.loc 1 617 0
 1226 0004 C07A     		ldrb	r0, [r0, #11]	@ zero_extendqisi2
 1227              	.LVL86:
 1228 0006 FFF7FEFF 		bl	nvicDisableVector
 1229              	.LVL87:
 1230              		.loc 1 620 0
 1231 000a 1249     		ldr	r1, .L141
 1232 000c A27A     		ldrb	r2, [r4, #10]	@ zero_extendqisi2
 1233 000e 0123     		movs	r3, #1
 1234 0010 03FA02F2 		lsl	r2, r3, r2
 1235 0014 0B68     		ldr	r3, [r1]
 1236 0016 23EA0203 		bic	r3, r3, r2
 1237              		.loc 1 623 0
 1238 001a 13F0FF0F 		tst	r3, #255
 1239              		.loc 1 620 0
 1240 001e 0B60     		str	r3, [r1]
 1241              		.loc 1 623 0
 1242 0020 09D1     		bne	.L139
 1243              		.loc 1 624 0
 1244 0022 0D4A     		ldr	r2, .L141+4
 1245 0024 116B     		ldr	r1, [r2, #48]
 1246 0026 21F40011 		bic	r1, r1, #2097152
 1247 002a 1163     		str	r1, [r2, #48]
 1248 002c 116D     		ldr	r1, [r2, #80]
 1249 002e 21F40011 		bic	r1, r1, #2097152
 1250 0032 1165     		str	r1, [r2, #80]
 1251 0034 126D     		ldr	r2, [r2, #80]
 1252              	.L139:
 1253              		.loc 1 626 0
 1254 0036 13F47F4F 		tst	r3, #65280
ARM GAS  /tmp/cc0V1tRx.s 			page 23


 1255 003a 09D1     		bne	.L138
 1256              	.LVL88:
 1257              	.LBB52:
 1258              	.LBB53:
 1259              		.loc 1 627 0
 1260 003c 064B     		ldr	r3, .L141+4
 1261 003e 1A6B     		ldr	r2, [r3, #48]
 1262 0040 22F48002 		bic	r2, r2, #4194304
 1263 0044 1A63     		str	r2, [r3, #48]
 1264 0046 1A6D     		ldr	r2, [r3, #80]
 1265 0048 22F48002 		bic	r2, r2, #4194304
 1266 004c 1A65     		str	r2, [r3, #80]
 1267 004e 1B6D     		ldr	r3, [r3, #80]
 1268              	.LVL89:
 1269              	.L138:
 1270 0050 10BD     		pop	{r4, pc}
 1271              	.LVL90:
 1272              	.L142:
 1273 0052 00BF     		.align	2
 1274              	.L141:
 1275 0054 00000000 		.word	.LANCHOR0
 1276 0058 00380240 		.word	1073887232
 1277              	.LBE53:
 1278              	.LBE52:
 1279              		.cfi_endproc
 1280              	.LFE342:
 1281              		.size	dmaStreamFreeI, .-dmaStreamFreeI
 1282              		.section	.text.dmaStreamFree,"ax",%progbits
 1283              		.align	1
 1284              		.global	dmaStreamFree
 1285              		.syntax unified
 1286              		.thumb
 1287              		.thumb_func
 1288              		.fpu fpv4-sp-d16
 1289              		.type	dmaStreamFree, %function
 1290              	dmaStreamFree:
 1291              	.LFB343:
 1292              		.loc 1 648 0
 1293              		.cfi_startproc
 1294              		@ args = 0, pretend = 0, frame = 0
 1295              		@ frame_needed = 0, uses_anonymous_args = 0
 1296              	.LVL91:
 1297 0000 10B5     		push	{r4, lr}
 1298              		.cfi_def_cfa_offset 8
 1299              		.cfi_offset 4, -8
 1300              		.cfi_offset 14, -4
 1301              	.LBB68:
 1302              	.LBB69:
 1303              	.LBB70:
 1304              	.LBB71:
 1305              	.LBB72:
 1306              	.LBB73:
 1307              		.loc 2 493 0
 1308 0002 2023     		movs	r3, #32
 1309              	.LBE73:
 1310              	.LBE72:
 1311              	.LBE71:
ARM GAS  /tmp/cc0V1tRx.s 			page 24


 1312              	.LBE70:
 1313              	.LBE69:
 1314              	.LBE68:
 1315              		.loc 1 648 0
 1316 0004 0446     		mov	r4, r0
 1317              	.LBB79:
 1318              	.LBB78:
 1319              	.LBB77:
 1320              	.LBB76:
 1321              	.LBB75:
 1322              	.LBB74:
 1323              		.loc 2 493 0
 1324              		.syntax unified
 1325              	@ 493 "../../modules/ChibiOS/os/common/ext/ARM/CMSIS/Core/Include/cmsis_gcc.h" 1
 1326 0006 83F31188 		MSR basepri, r3
 1327              	@ 0 "" 2
 1328              	.LVL92:
 1329              		.thumb
 1330              		.syntax unified
 1331              	.LBE74:
 1332              	.LBE75:
 1333              	.LBE76:
 1334              		.loc 3 356 0
 1335 000a FFF7FEFF 		bl	_stats_start_measure_crit_thd
 1336              	.LVL93:
 1337              	.LBE77:
 1338              	.LBE78:
 1339              	.LBE79:
 1340              		.loc 1 651 0
 1341 000e 2046     		mov	r0, r4
 1342 0010 FFF7FEFF 		bl	dmaStreamFreeI
 1343              	.LVL94:
 1344              	.LBB80:
 1345              	.LBB81:
 1346              	.LBB82:
 1347              		.loc 3 368 0
 1348 0014 FFF7FEFF 		bl	_stats_stop_measure_crit_thd
 1349              	.LVL95:
 1350              	.LBB83:
 1351              	.LBB84:
 1352              	.LBB85:
 1353              		.loc 2 493 0
 1354 0018 0023     		movs	r3, #0
 1355              		.syntax unified
 1356              	@ 493 "../../modules/ChibiOS/os/common/ext/ARM/CMSIS/Core/Include/cmsis_gcc.h" 1
 1357 001a 83F31188 		MSR basepri, r3
 1358              	@ 0 "" 2
 1359              	.LVL96:
 1360              		.thumb
 1361              		.syntax unified
 1362 001e 10BD     		pop	{r4, pc}
 1363              	.LBE85:
 1364              	.LBE84:
 1365              	.LBE83:
 1366              	.LBE82:
 1367              	.LBE81:
 1368              	.LBE80:
ARM GAS  /tmp/cc0V1tRx.s 			page 25


 1369              		.cfi_endproc
 1370              	.LFE343:
 1371              		.size	dmaStreamFree, .-dmaStreamFree
 1372              		.global	_stm32_dma_streams
 1373              		.section	.bss.dma,"aw",%nobits
 1374              		.align	2
 1375              		.set	.LANCHOR0,. + 0
 1376              		.type	dma, %object
 1377              		.size	dma, 132
 1378              	dma:
 1379 0000 00000000 		.space	132
 1379      00000000 
 1379      00000000 
 1379      00000000 
 1379      00000000 
 1380              		.section	.rodata._stm32_dma_streams,"a",%progbits
 1381              		.align	2
 1382              		.set	.LANCHOR1,. + 0
 1383              		.type	_stm32_dma_streams, %object
 1384              		.size	_stm32_dma_streams, 192
 1385              	_stm32_dma_streams:
 1386 0000 10600240 		.word	1073897488
 1387 0004 08600240 		.word	1073897480
 1388 0008 00       		.byte	0
 1389 0009 00       		.byte	0
 1390 000a 00       		.byte	0
 1391 000b 0B       		.byte	11
 1392 000c 28600240 		.word	1073897512
 1393 0010 08600240 		.word	1073897480
 1394 0014 00       		.byte	0
 1395 0015 06       		.byte	6
 1396 0016 01       		.byte	1
 1397 0017 0C       		.byte	12
 1398 0018 40600240 		.word	1073897536
 1399 001c 08600240 		.word	1073897480
 1400 0020 00       		.byte	0
 1401 0021 10       		.byte	16
 1402 0022 02       		.byte	2
 1403 0023 0D       		.byte	13
 1404 0024 58600240 		.word	1073897560
 1405 0028 08600240 		.word	1073897480
 1406 002c 00       		.byte	0
 1407 002d 16       		.byte	22
 1408 002e 03       		.byte	3
 1409 002f 0E       		.byte	14
 1410 0030 70600240 		.word	1073897584
 1411 0034 0C600240 		.word	1073897484
 1412 0038 00       		.byte	0
 1413 0039 00       		.byte	0
 1414 003a 04       		.byte	4
 1415 003b 0F       		.byte	15
 1416 003c 88600240 		.word	1073897608
 1417 0040 0C600240 		.word	1073897484
 1418 0044 00       		.byte	0
 1419 0045 06       		.byte	6
 1420 0046 05       		.byte	5
 1421 0047 10       		.byte	16
ARM GAS  /tmp/cc0V1tRx.s 			page 26


 1422 0048 A0600240 		.word	1073897632
 1423 004c 0C600240 		.word	1073897484
 1424 0050 00       		.byte	0
 1425 0051 10       		.byte	16
 1426 0052 06       		.byte	6
 1427 0053 11       		.byte	17
 1428 0054 B8600240 		.word	1073897656
 1429 0058 0C600240 		.word	1073897484
 1430 005c 00       		.byte	0
 1431 005d 16       		.byte	22
 1432 005e 07       		.byte	7
 1433 005f 2F       		.byte	47
 1434 0060 10640240 		.word	1073898512
 1435 0064 08640240 		.word	1073898504
 1436 0068 00       		.byte	0
 1437 0069 00       		.byte	0
 1438 006a 08       		.byte	8
 1439 006b 38       		.byte	56
 1440 006c 28640240 		.word	1073898536
 1441 0070 08640240 		.word	1073898504
 1442 0074 00       		.byte	0
 1443 0075 06       		.byte	6
 1444 0076 09       		.byte	9
 1445 0077 39       		.byte	57
 1446 0078 40640240 		.word	1073898560
 1447 007c 08640240 		.word	1073898504
 1448 0080 00       		.byte	0
 1449 0081 10       		.byte	16
 1450 0082 0A       		.byte	10
 1451 0083 3A       		.byte	58
 1452 0084 58640240 		.word	1073898584
 1453 0088 08640240 		.word	1073898504
 1454 008c 00       		.byte	0
 1455 008d 16       		.byte	22
 1456 008e 0B       		.byte	11
 1457 008f 3B       		.byte	59
 1458 0090 70640240 		.word	1073898608
 1459 0094 0C640240 		.word	1073898508
 1460 0098 00       		.byte	0
 1461 0099 00       		.byte	0
 1462 009a 0C       		.byte	12
 1463 009b 3C       		.byte	60
 1464 009c 88640240 		.word	1073898632
 1465 00a0 0C640240 		.word	1073898508
 1466 00a4 00       		.byte	0
 1467 00a5 06       		.byte	6
 1468 00a6 0D       		.byte	13
 1469 00a7 44       		.byte	68
 1470 00a8 A0640240 		.word	1073898656
 1471 00ac 0C640240 		.word	1073898508
 1472 00b0 00       		.byte	0
 1473 00b1 10       		.byte	16
 1474 00b2 0E       		.byte	14
 1475 00b3 45       		.byte	69
 1476 00b4 B8640240 		.word	1073898680
 1477 00b8 0C640240 		.word	1073898508
 1478 00bc 00       		.byte	0
ARM GAS  /tmp/cc0V1tRx.s 			page 27


 1479 00bd 16       		.byte	22
 1480 00be 0F       		.byte	15
 1481 00bf 46       		.byte	70
 1482              		.text
 1483              	.Letext0:
 1484              		.file 4 "/opt/gcc-arm-none-eabi-6-2017-q2-update/lib/gcc/arm-none-eabi/6.3.1/include/stddef.h"
 1485              		.file 5 "/opt/gcc-arm-none-eabi-6-2017-q2-update/arm-none-eabi/include/machine/_default_types.h"
 1486              		.file 6 "/opt/gcc-arm-none-eabi-6-2017-q2-update/arm-none-eabi/include/sys/_stdint.h"
 1487              		.file 7 "/opt/gcc-arm-none-eabi-6-2017-q2-update/arm-none-eabi/include/stdint.h"
 1488              		.file 8 "../../modules/ChibiOS/os/common/ports/ARMCMx/compilers/GCC/chtypes.h"
 1489              		.file 9 "../../modules/ChibiOS/os/rt/include/chsystypes.h"
 1490              		.file 10 "../../modules/ChibiOS/os/rt/include/chschd.h"
 1491              		.file 11 "../../modules/ChibiOS/os/rt/include/chtime.h"
 1492              		.file 12 "../../modules/ChibiOS/os/common/ext/ARM/CMSIS/Core/Include/core_cm4.h"
 1493              		.file 13 "../../modules/ChibiOS/os/common/ext/ST/STM32F4xx/system_stm32f4xx.h"
 1494              		.file 14 "../../modules/ChibiOS/os/common/ext/ST/STM32F4xx/stm32f427xx.h"
 1495              		.file 15 "../../modules/ChibiOS/os/common/ports/ARMCMx/chcore.h"
 1496              		.file 16 "../../modules/ChibiOS/os/common/ports/ARMCMx/chcore_v7m.h"
 1497              		.file 17 "../../modules/ChibiOS/os/hal/ports/STM32/LLD/TIMv1/stm32_tim.h"
 1498              		.file 18 "../../modules/ChibiOS/os/rt/include/chtm.h"
 1499              		.file 19 "../../modules/ChibiOS/os/rt/include/chstats.h"
 1500              		.file 20 "../../modules/ChibiOS/os/rt/include/chsem.h"
 1501              		.file 21 "../../modules/ChibiOS/os/rt/include/chmtx.h"
 1502              		.file 22 "../../modules/ChibiOS/os/rt/include/chregistry.h"
 1503              		.file 23 "../../modules/ChibiOS/os/rt/include/chevents.h"
 1504              		.file 24 "../../modules/ChibiOS/os/oslib/include/chmemcore.h"
 1505              		.file 25 "../../modules/ChibiOS/os/oslib/include/chmempools.h"
 1506              		.file 26 "../../modules/ChibiOS/os/oslib/include/chfactory.h"
 1507              		.file 27 "../../modules/ChibiOS/os/hal/ports/STM32/LLD/DMAv2/stm32_dma.h"
 1508              		.file 28 "../../modules/ChibiOS/os/hal/include/hal_ioblock.h"
 1509              		.file 29 "../../modules/ChibiOS/os/hal/include/hal_queues.h"
 1510              		.file 30 "../../modules/ChibiOS/os/hal/include/hal_pal.h"
 1511              		.file 31 "../../modules/ChibiOS/os/hal/ports/STM32/LLD/GPIOv2/stm32_gpio.h"
 1512              		.file 32 "../../modules/ChibiOS/os/hal/ports/STM32/LLD/GPIOv2/hal_pal_lld.h"
 1513              		.file 33 "../../modules/ChibiOS/os/hal/include/hal_adc.h"
 1514              		.file 34 "../../modules/ChibiOS/os/hal/ports/STM32/LLD/ADCv2/hal_adc_lld.h"
 1515              		.file 35 "../../modules/ChibiOS/os/hal/include/hal_i2c.h"
 1516              		.file 36 "../../modules/ChibiOS/os/hal/ports/STM32/LLD/I2Cv1/hal_i2c_lld.h"
 1517              		.file 37 "../../modules/ChibiOS/os/hal/include/hal_pwm.h"
 1518              		.file 38 "../../modules/ChibiOS/os/hal/ports/STM32/LLD/TIMv1/hal_pwm_lld.h"
 1519              		.file 39 "../../modules/ChibiOS/os/hal/include/hal_serial.h"
 1520              		.file 40 "../../modules/ChibiOS/os/hal/ports/STM32/LLD/USARTv1/hal_serial_lld.h"
 1521              		.file 41 "../../modules/ChibiOS/os/hal/include/hal_sdc.h"
 1522              		.file 42 "../../modules/ChibiOS/os/hal/ports/STM32/LLD/SDIOv1/hal_sdc_lld.h"
 1523              		.file 43 "../../modules/ChibiOS/os/hal/include/hal_spi.h"
 1524              		.file 44 "../../modules/ChibiOS/os/hal/ports/STM32/LLD/SPIv1/hal_spi_lld.h"
 1525              		.file 45 "../../modules/ChibiOS/os/hal/include/hal_usb.h"
 1526              		.file 46 "../../modules/ChibiOS/os/hal/ports/STM32/LLD/OTGv1/hal_usb_lld.h"
 1527              		.file 47 "../../modules/ChibiOS/os/hal/ports/STM32/LLD/OTGv1/stm32_otg.h"
 1528              		.file 48 "../../modules/ChibiOS/os/hal/osal/rt/osal.h"
 1529              		.file 49 "../../modules/ChibiOS/os/hal/ports/common/ARMCMx/nvic.h"