ARM GAS  /tmp/ccLFRn0o.s 			page 1


   1              		.cpu cortex-m4
   2              		.eabi_attribute 27, 1
   3              		.eabi_attribute 28, 1
   4              		.eabi_attribute 20, 1
   5              		.eabi_attribute 21, 1
   6              		.eabi_attribute 23, 3
   7              		.eabi_attribute 24, 1
   8              		.eabi_attribute 25, 1
   9              		.eabi_attribute 26, 1
  10              		.eabi_attribute 30, 4
  11              		.eabi_attribute 34, 1
  12              		.eabi_attribute 18, 4
  13              		.file	"stm32_isr.c"
  14              		.text
  15              	.Ltext0:
  16              		.cfi_sections	.debug_frame
  17              		.section	.text.Vector58,"ax",%progbits
  18              		.align	1
  19              		.global	Vector58
  20              		.syntax unified
  21              		.thumb
  22              		.thumb_func
  23              		.fpu fpv4-sp-d16
  24              		.type	Vector58, %function
  25              	Vector58:
  26              	.LFB323:
  27              		.file 1 "../../modules/ChibiOS/os/hal/ports/STM32/STM32F4xx/stm32_isr.c"
  28              		.loc 1 61 0
  29              		.cfi_startproc
  30              		@ args = 0, pretend = 0, frame = 0
  31              		@ frame_needed = 0, uses_anonymous_args = 0
  32 0000 08B5     		push	{r3, lr}
  33              		.cfi_def_cfa_offset 8
  34              		.cfi_offset 3, -8
  35              		.cfi_offset 14, -4
  36              		.loc 1 64 0
  37 0002 FFF7FEFF 		bl	_stats_increase_irq
  38              	.LVL0:
  39              		.loc 1 66 0
  40 0006 084A     		ldr	r2, .L9
  41 0008 5369     		ldr	r3, [r2, #20]
  42              	.LVL1:
  43              		.loc 1 67 0
  44 000a 1168     		ldr	r1, [r2]
  45 000c 0B40     		ands	r3, r3, r1
  46              	.LVL2:
  47 000e 03F00103 		and	r3, r3, #1
  48              	.LVL3:
  49              		.loc 1 68 0
  50 0012 5361     		str	r3, [r2, #20]
  51              		.loc 1 70 0
  52 0014 23B1     		cbz	r3, .L2
  53              		.loc 1 70 0 is_stmt 0 discriminator 1
  54 0016 054A     		ldr	r2, .L9+4
  55 0018 1368     		ldr	r3, [r2]
  56              	.LVL4:
  57 001a 0BB1     		cbz	r3, .L2
ARM GAS  /tmp/ccLFRn0o.s 			page 2


  58              		.loc 1 70 0 discriminator 2
  59 001c 5068     		ldr	r0, [r2, #4]
  60 001e 9847     		blx	r3
  61              	.LVL5:
  62              	.L2:
  63              		.loc 1 73 0 is_stmt 1
  64 0020 BDE80840 		pop	{r3, lr}
  65              		.cfi_restore 14
  66              		.cfi_restore 3
  67              		.cfi_def_cfa_offset 0
  68              		.loc 1 72 0
  69 0024 FFF7FEBF 		b	_port_irq_epilogue
  70              	.LVL6:
  71              	.L10:
  72              		.align	2
  73              	.L9:
  74 0028 003C0140 		.word	1073822720
  75 002c 00000000 		.word	_pal_events
  76              		.cfi_endproc
  77              	.LFE323:
  78              		.size	Vector58, .-Vector58
  79              		.section	.text.Vector5C,"ax",%progbits
  80              		.align	1
  81              		.global	Vector5C
  82              		.syntax unified
  83              		.thumb
  84              		.thumb_func
  85              		.fpu fpv4-sp-d16
  86              		.type	Vector5C, %function
  87              	Vector5C:
  88              	.LFB324:
  89              		.loc 1 82 0
  90              		.cfi_startproc
  91              		@ args = 0, pretend = 0, frame = 0
  92              		@ frame_needed = 0, uses_anonymous_args = 0
  93 0000 08B5     		push	{r3, lr}
  94              		.cfi_def_cfa_offset 8
  95              		.cfi_offset 3, -8
  96              		.cfi_offset 14, -4
  97              		.loc 1 85 0
  98 0002 FFF7FEFF 		bl	_stats_increase_irq
  99              	.LVL7:
 100              		.loc 1 87 0
 101 0006 084A     		ldr	r2, .L19
 102 0008 5369     		ldr	r3, [r2, #20]
 103              	.LVL8:
 104              		.loc 1 88 0
 105 000a 1168     		ldr	r1, [r2]
 106 000c 0B40     		ands	r3, r3, r1
 107              	.LVL9:
 108 000e 03F00203 		and	r3, r3, #2
 109              	.LVL10:
 110              		.loc 1 89 0
 111 0012 5361     		str	r3, [r2, #20]
 112              		.loc 1 91 0
 113 0014 23B1     		cbz	r3, .L12
 114              		.loc 1 91 0 is_stmt 0 discriminator 1
ARM GAS  /tmp/ccLFRn0o.s 			page 3


 115 0016 054A     		ldr	r2, .L19+4
 116 0018 9368     		ldr	r3, [r2, #8]
 117              	.LVL11:
 118 001a 0BB1     		cbz	r3, .L12
 119              		.loc 1 91 0 discriminator 2
 120 001c D068     		ldr	r0, [r2, #12]
 121 001e 9847     		blx	r3
 122              	.LVL12:
 123              	.L12:
 124              		.loc 1 94 0 is_stmt 1
 125 0020 BDE80840 		pop	{r3, lr}
 126              		.cfi_restore 14
 127              		.cfi_restore 3
 128              		.cfi_def_cfa_offset 0
 129              		.loc 1 93 0
 130 0024 FFF7FEBF 		b	_port_irq_epilogue
 131              	.LVL13:
 132              	.L20:
 133              		.align	2
 134              	.L19:
 135 0028 003C0140 		.word	1073822720
 136 002c 00000000 		.word	_pal_events
 137              		.cfi_endproc
 138              	.LFE324:
 139              		.size	Vector5C, .-Vector5C
 140              		.section	.text.Vector60,"ax",%progbits
 141              		.align	1
 142              		.global	Vector60
 143              		.syntax unified
 144              		.thumb
 145              		.thumb_func
 146              		.fpu fpv4-sp-d16
 147              		.type	Vector60, %function
 148              	Vector60:
 149              	.LFB325:
 150              		.loc 1 103 0
 151              		.cfi_startproc
 152              		@ args = 0, pretend = 0, frame = 0
 153              		@ frame_needed = 0, uses_anonymous_args = 0
 154 0000 08B5     		push	{r3, lr}
 155              		.cfi_def_cfa_offset 8
 156              		.cfi_offset 3, -8
 157              		.cfi_offset 14, -4
 158              		.loc 1 106 0
 159 0002 FFF7FEFF 		bl	_stats_increase_irq
 160              	.LVL14:
 161              		.loc 1 108 0
 162 0006 084A     		ldr	r2, .L29
 163 0008 5369     		ldr	r3, [r2, #20]
 164              	.LVL15:
 165              		.loc 1 109 0
 166 000a 1168     		ldr	r1, [r2]
 167 000c 0B40     		ands	r3, r3, r1
 168              	.LVL16:
 169 000e 03F00403 		and	r3, r3, #4
 170              	.LVL17:
 171              		.loc 1 110 0
ARM GAS  /tmp/ccLFRn0o.s 			page 4


 172 0012 5361     		str	r3, [r2, #20]
 173              		.loc 1 112 0
 174 0014 23B1     		cbz	r3, .L22
 175              		.loc 1 112 0 is_stmt 0 discriminator 1
 176 0016 054A     		ldr	r2, .L29+4
 177 0018 1369     		ldr	r3, [r2, #16]
 178              	.LVL18:
 179 001a 0BB1     		cbz	r3, .L22
 180              		.loc 1 112 0 discriminator 2
 181 001c 5069     		ldr	r0, [r2, #20]
 182 001e 9847     		blx	r3
 183              	.LVL19:
 184              	.L22:
 185              		.loc 1 115 0 is_stmt 1
 186 0020 BDE80840 		pop	{r3, lr}
 187              		.cfi_restore 14
 188              		.cfi_restore 3
 189              		.cfi_def_cfa_offset 0
 190              		.loc 1 114 0
 191 0024 FFF7FEBF 		b	_port_irq_epilogue
 192              	.LVL20:
 193              	.L30:
 194              		.align	2
 195              	.L29:
 196 0028 003C0140 		.word	1073822720
 197 002c 00000000 		.word	_pal_events
 198              		.cfi_endproc
 199              	.LFE325:
 200              		.size	Vector60, .-Vector60
 201              		.section	.text.Vector64,"ax",%progbits
 202              		.align	1
 203              		.global	Vector64
 204              		.syntax unified
 205              		.thumb
 206              		.thumb_func
 207              		.fpu fpv4-sp-d16
 208              		.type	Vector64, %function
 209              	Vector64:
 210              	.LFB326:
 211              		.loc 1 124 0
 212              		.cfi_startproc
 213              		@ args = 0, pretend = 0, frame = 0
 214              		@ frame_needed = 0, uses_anonymous_args = 0
 215 0000 08B5     		push	{r3, lr}
 216              		.cfi_def_cfa_offset 8
 217              		.cfi_offset 3, -8
 218              		.cfi_offset 14, -4
 219              		.loc 1 127 0
 220 0002 FFF7FEFF 		bl	_stats_increase_irq
 221              	.LVL21:
 222              		.loc 1 129 0
 223 0006 084A     		ldr	r2, .L39
 224 0008 5369     		ldr	r3, [r2, #20]
 225              	.LVL22:
 226              		.loc 1 130 0
 227 000a 1168     		ldr	r1, [r2]
 228 000c 0B40     		ands	r3, r3, r1
ARM GAS  /tmp/ccLFRn0o.s 			page 5


 229              	.LVL23:
 230 000e 03F00803 		and	r3, r3, #8
 231              	.LVL24:
 232              		.loc 1 131 0
 233 0012 5361     		str	r3, [r2, #20]
 234              		.loc 1 133 0
 235 0014 23B1     		cbz	r3, .L32
 236              		.loc 1 133 0 is_stmt 0 discriminator 1
 237 0016 054A     		ldr	r2, .L39+4
 238 0018 9369     		ldr	r3, [r2, #24]
 239              	.LVL25:
 240 001a 0BB1     		cbz	r3, .L32
 241              		.loc 1 133 0 discriminator 2
 242 001c D069     		ldr	r0, [r2, #28]
 243 001e 9847     		blx	r3
 244              	.LVL26:
 245              	.L32:
 246              		.loc 1 136 0 is_stmt 1
 247 0020 BDE80840 		pop	{r3, lr}
 248              		.cfi_restore 14
 249              		.cfi_restore 3
 250              		.cfi_def_cfa_offset 0
 251              		.loc 1 135 0
 252 0024 FFF7FEBF 		b	_port_irq_epilogue
 253              	.LVL27:
 254              	.L40:
 255              		.align	2
 256              	.L39:
 257 0028 003C0140 		.word	1073822720
 258 002c 00000000 		.word	_pal_events
 259              		.cfi_endproc
 260              	.LFE326:
 261              		.size	Vector64, .-Vector64
 262              		.section	.text.Vector68,"ax",%progbits
 263              		.align	1
 264              		.global	Vector68
 265              		.syntax unified
 266              		.thumb
 267              		.thumb_func
 268              		.fpu fpv4-sp-d16
 269              		.type	Vector68, %function
 270              	Vector68:
 271              	.LFB327:
 272              		.loc 1 145 0
 273              		.cfi_startproc
 274              		@ args = 0, pretend = 0, frame = 0
 275              		@ frame_needed = 0, uses_anonymous_args = 0
 276 0000 08B5     		push	{r3, lr}
 277              		.cfi_def_cfa_offset 8
 278              		.cfi_offset 3, -8
 279              		.cfi_offset 14, -4
 280              		.loc 1 148 0
 281 0002 FFF7FEFF 		bl	_stats_increase_irq
 282              	.LVL28:
 283              		.loc 1 150 0
 284 0006 084A     		ldr	r2, .L49
 285 0008 5369     		ldr	r3, [r2, #20]
ARM GAS  /tmp/ccLFRn0o.s 			page 6


 286              	.LVL29:
 287              		.loc 1 151 0
 288 000a 1168     		ldr	r1, [r2]
 289 000c 0B40     		ands	r3, r3, r1
 290              	.LVL30:
 291 000e 03F01003 		and	r3, r3, #16
 292              	.LVL31:
 293              		.loc 1 152 0
 294 0012 5361     		str	r3, [r2, #20]
 295              		.loc 1 154 0
 296 0014 23B1     		cbz	r3, .L42
 297              		.loc 1 154 0 is_stmt 0 discriminator 1
 298 0016 054A     		ldr	r2, .L49+4
 299 0018 136A     		ldr	r3, [r2, #32]
 300              	.LVL32:
 301 001a 0BB1     		cbz	r3, .L42
 302              		.loc 1 154 0 discriminator 2
 303 001c 506A     		ldr	r0, [r2, #36]
 304 001e 9847     		blx	r3
 305              	.LVL33:
 306              	.L42:
 307              		.loc 1 157 0 is_stmt 1
 308 0020 BDE80840 		pop	{r3, lr}
 309              		.cfi_restore 14
 310              		.cfi_restore 3
 311              		.cfi_def_cfa_offset 0
 312              		.loc 1 156 0
 313 0024 FFF7FEBF 		b	_port_irq_epilogue
 314              	.LVL34:
 315              	.L50:
 316              		.align	2
 317              	.L49:
 318 0028 003C0140 		.word	1073822720
 319 002c 00000000 		.word	_pal_events
 320              		.cfi_endproc
 321              	.LFE327:
 322              		.size	Vector68, .-Vector68
 323              		.section	.text.Vector9C,"ax",%progbits
 324              		.align	1
 325              		.global	Vector9C
 326              		.syntax unified
 327              		.thumb
 328              		.thumb_func
 329              		.fpu fpv4-sp-d16
 330              		.type	Vector9C, %function
 331              	Vector9C:
 332              	.LFB328:
 333              		.loc 1 166 0
 334              		.cfi_startproc
 335              		@ args = 0, pretend = 0, frame = 0
 336              		@ frame_needed = 0, uses_anonymous_args = 0
 337 0000 10B5     		push	{r4, lr}
 338              		.cfi_def_cfa_offset 8
 339              		.cfi_offset 4, -8
 340              		.cfi_offset 14, -4
 341              		.loc 1 169 0
 342 0002 FFF7FEFF 		bl	_stats_increase_irq
ARM GAS  /tmp/ccLFRn0o.s 			page 7


 343              	.LVL35:
 344              		.loc 1 171 0
 345 0006 174B     		ldr	r3, .L87
 346 0008 5C69     		ldr	r4, [r3, #20]
 347              	.LVL36:
 348              		.loc 1 172 0
 349 000a 1A68     		ldr	r2, [r3]
 350 000c 1440     		ands	r4, r4, r2
 351              	.LVL37:
 352 000e 04F47872 		and	r2, r4, #992
 353              	.LVL38:
 354              		.loc 1 174 0
 355 0012 5A61     		str	r2, [r3, #20]
 356              		.loc 1 176 0
 357 0014 A306     		lsls	r3, r4, #26
 358 0016 04D5     		bpl	.L52
 359              		.loc 1 176 0 is_stmt 0 discriminator 1
 360 0018 134A     		ldr	r2, .L87+4
 361              	.LVL39:
 362 001a 936A     		ldr	r3, [r2, #40]
 363 001c 0BB1     		cbz	r3, .L52
 364              		.loc 1 176 0 discriminator 2
 365 001e D06A     		ldr	r0, [r2, #44]
 366 0020 9847     		blx	r3
 367              	.LVL40:
 368              	.L52:
 369              		.loc 1 177 0 is_stmt 1
 370 0022 6006     		lsls	r0, r4, #25
 371 0024 04D5     		bpl	.L53
 372              		.loc 1 177 0 is_stmt 0 discriminator 1
 373 0026 104A     		ldr	r2, .L87+4
 374 0028 136B     		ldr	r3, [r2, #48]
 375 002a 0BB1     		cbz	r3, .L53
 376              		.loc 1 177 0 discriminator 2
 377 002c 506B     		ldr	r0, [r2, #52]
 378 002e 9847     		blx	r3
 379              	.LVL41:
 380              	.L53:
 381              		.loc 1 178 0 is_stmt 1
 382 0030 2106     		lsls	r1, r4, #24
 383 0032 04D5     		bpl	.L54
 384              		.loc 1 178 0 is_stmt 0 discriminator 1
 385 0034 0C4A     		ldr	r2, .L87+4
 386 0036 936B     		ldr	r3, [r2, #56]
 387 0038 0BB1     		cbz	r3, .L54
 388              		.loc 1 178 0 discriminator 2
 389 003a D06B     		ldr	r0, [r2, #60]
 390 003c 9847     		blx	r3
 391              	.LVL42:
 392              	.L54:
 393              		.loc 1 179 0 is_stmt 1
 394 003e E205     		lsls	r2, r4, #23
 395 0040 04D5     		bpl	.L55
 396              		.loc 1 179 0 is_stmt 0 discriminator 1
 397 0042 094A     		ldr	r2, .L87+4
 398 0044 136C     		ldr	r3, [r2, #64]
 399 0046 0BB1     		cbz	r3, .L55
ARM GAS  /tmp/ccLFRn0o.s 			page 8


 400              		.loc 1 179 0 discriminator 2
 401 0048 506C     		ldr	r0, [r2, #68]
 402 004a 9847     		blx	r3
 403              	.LVL43:
 404              	.L55:
 405              		.loc 1 180 0 is_stmt 1
 406 004c A305     		lsls	r3, r4, #22
 407 004e 04D5     		bpl	.L56
 408              		.loc 1 180 0 is_stmt 0 discriminator 1
 409 0050 054A     		ldr	r2, .L87+4
 410 0052 936C     		ldr	r3, [r2, #72]
 411 0054 0BB1     		cbz	r3, .L56
 412              		.loc 1 180 0 discriminator 2
 413 0056 D06C     		ldr	r0, [r2, #76]
 414 0058 9847     		blx	r3
 415              	.LVL44:
 416              	.L56:
 417              		.loc 1 183 0 is_stmt 1
 418 005a BDE81040 		pop	{r4, lr}
 419              		.cfi_restore 14
 420              		.cfi_restore 4
 421              		.cfi_def_cfa_offset 0
 422              	.LVL45:
 423              		.loc 1 182 0
 424 005e FFF7FEBF 		b	_port_irq_epilogue
 425              	.LVL46:
 426              	.L88:
 427 0062 00BF     		.align	2
 428              	.L87:
 429 0064 003C0140 		.word	1073822720
 430 0068 00000000 		.word	_pal_events
 431              		.cfi_endproc
 432              	.LFE328:
 433              		.size	Vector9C, .-Vector9C
 434              		.section	.text.VectorE0,"ax",%progbits
 435              		.align	1
 436              		.global	VectorE0
 437              		.syntax unified
 438              		.thumb
 439              		.thumb_func
 440              		.fpu fpv4-sp-d16
 441              		.type	VectorE0, %function
 442              	VectorE0:
 443              	.LFB329:
 444              		.loc 1 192 0
 445              		.cfi_startproc
 446              		@ args = 0, pretend = 0, frame = 0
 447              		@ frame_needed = 0, uses_anonymous_args = 0
 448 0000 10B5     		push	{r4, lr}
 449              		.cfi_def_cfa_offset 8
 450              		.cfi_offset 4, -8
 451              		.cfi_offset 14, -4
 452              		.loc 1 195 0
 453 0002 FFF7FEFF 		bl	_stats_increase_irq
 454              	.LVL47:
 455              		.loc 1 197 0
 456 0006 1A4B     		ldr	r3, .L132
ARM GAS  /tmp/ccLFRn0o.s 			page 9


 457 0008 5C69     		ldr	r4, [r3, #20]
 458              	.LVL48:
 459              		.loc 1 198 0
 460 000a 1A68     		ldr	r2, [r3]
 461 000c 1440     		ands	r4, r4, r2
 462              	.LVL49:
 463 000e 04F47C42 		and	r2, r4, #64512
 464              	.LVL50:
 465              		.loc 1 200 0
 466 0012 5A61     		str	r2, [r3, #20]
 467              		.loc 1 202 0
 468 0014 6205     		lsls	r2, r4, #21
 469              	.LVL51:
 470 0016 04D5     		bpl	.L90
 471              		.loc 1 202 0 is_stmt 0 discriminator 1
 472 0018 164A     		ldr	r2, .L132+4
 473 001a 136D     		ldr	r3, [r2, #80]
 474              	.LVL52:
 475 001c 0BB1     		cbz	r3, .L90
 476              		.loc 1 202 0 discriminator 2
 477 001e 506D     		ldr	r0, [r2, #84]
 478 0020 9847     		blx	r3
 479              	.LVL53:
 480              	.L90:
 481              		.loc 1 203 0 is_stmt 1
 482 0022 2305     		lsls	r3, r4, #20
 483 0024 04D5     		bpl	.L91
 484              		.loc 1 203 0 is_stmt 0 discriminator 1
 485 0026 134A     		ldr	r2, .L132+4
 486 0028 936D     		ldr	r3, [r2, #88]
 487 002a 0BB1     		cbz	r3, .L91
 488              		.loc 1 203 0 discriminator 2
 489 002c D06D     		ldr	r0, [r2, #92]
 490 002e 9847     		blx	r3
 491              	.LVL54:
 492              	.L91:
 493              		.loc 1 204 0 is_stmt 1
 494 0030 E004     		lsls	r0, r4, #19
 495 0032 04D5     		bpl	.L92
 496              		.loc 1 204 0 is_stmt 0 discriminator 1
 497 0034 0F4A     		ldr	r2, .L132+4
 498 0036 136E     		ldr	r3, [r2, #96]
 499 0038 0BB1     		cbz	r3, .L92
 500              		.loc 1 204 0 discriminator 2
 501 003a 506E     		ldr	r0, [r2, #100]
 502 003c 9847     		blx	r3
 503              	.LVL55:
 504              	.L92:
 505              		.loc 1 205 0 is_stmt 1
 506 003e A104     		lsls	r1, r4, #18
 507 0040 04D5     		bpl	.L93
 508              		.loc 1 205 0 is_stmt 0 discriminator 1
 509 0042 0C4A     		ldr	r2, .L132+4
 510 0044 936E     		ldr	r3, [r2, #104]
 511 0046 0BB1     		cbz	r3, .L93
 512              		.loc 1 205 0 discriminator 2
 513 0048 D06E     		ldr	r0, [r2, #108]
ARM GAS  /tmp/ccLFRn0o.s 			page 10


 514 004a 9847     		blx	r3
 515              	.LVL56:
 516              	.L93:
 517              		.loc 1 206 0 is_stmt 1
 518 004c 6204     		lsls	r2, r4, #17
 519 004e 04D5     		bpl	.L94
 520              		.loc 1 206 0 is_stmt 0 discriminator 1
 521 0050 084A     		ldr	r2, .L132+4
 522 0052 136F     		ldr	r3, [r2, #112]
 523 0054 0BB1     		cbz	r3, .L94
 524              		.loc 1 206 0 discriminator 2
 525 0056 506F     		ldr	r0, [r2, #116]
 526 0058 9847     		blx	r3
 527              	.LVL57:
 528              	.L94:
 529              		.loc 1 207 0 is_stmt 1
 530 005a 2304     		lsls	r3, r4, #16
 531 005c 04D5     		bpl	.L95
 532              		.loc 1 207 0 is_stmt 0 discriminator 1
 533 005e 054A     		ldr	r2, .L132+4
 534 0060 936F     		ldr	r3, [r2, #120]
 535 0062 0BB1     		cbz	r3, .L95
 536              		.loc 1 207 0 discriminator 2
 537 0064 D06F     		ldr	r0, [r2, #124]
 538 0066 9847     		blx	r3
 539              	.LVL58:
 540              	.L95:
 541              		.loc 1 210 0 is_stmt 1
 542 0068 BDE81040 		pop	{r4, lr}
 543              		.cfi_restore 14
 544              		.cfi_restore 4
 545              		.cfi_def_cfa_offset 0
 546              	.LVL59:
 547              		.loc 1 209 0
 548 006c FFF7FEBF 		b	_port_irq_epilogue
 549              	.LVL60:
 550              	.L133:
 551              		.align	2
 552              	.L132:
 553 0070 003C0140 		.word	1073822720
 554 0074 00000000 		.word	_pal_events
 555              		.cfi_endproc
 556              	.LFE329:
 557              		.size	VectorE0, .-VectorE0
 558              		.section	.text.irqInit,"ax",%progbits
 559              		.align	1
 560              		.global	irqInit
 561              		.syntax unified
 562              		.thumb
 563              		.thumb_func
 564              		.fpu fpv4-sp-d16
 565              		.type	irqInit, %function
 566              	irqInit:
 567              	.LFB330:
 568              		.loc 1 224 0
 569              		.cfi_startproc
 570              		@ args = 0, pretend = 0, frame = 0
ARM GAS  /tmp/ccLFRn0o.s 			page 11


 571              		@ frame_needed = 0, uses_anonymous_args = 0
 572              		.loc 1 227 0
 573 0000 0621     		movs	r1, #6
 574              		.loc 1 224 0
 575 0002 08B5     		push	{r3, lr}
 576              		.cfi_def_cfa_offset 8
 577              		.cfi_offset 3, -8
 578              		.cfi_offset 14, -4
 579              		.loc 1 227 0
 580 0004 0846     		mov	r0, r1
 581 0006 FFF7FEFF 		bl	nvicEnableVector
 582              	.LVL61:
 583              		.loc 1 228 0
 584 000a 0621     		movs	r1, #6
 585 000c 0720     		movs	r0, #7
 586 000e FFF7FEFF 		bl	nvicEnableVector
 587              	.LVL62:
 588              		.loc 1 229 0
 589 0012 0621     		movs	r1, #6
 590 0014 0820     		movs	r0, #8
 591 0016 FFF7FEFF 		bl	nvicEnableVector
 592              	.LVL63:
 593              		.loc 1 230 0
 594 001a 0621     		movs	r1, #6
 595 001c 0920     		movs	r0, #9
 596 001e FFF7FEFF 		bl	nvicEnableVector
 597              	.LVL64:
 598              		.loc 1 231 0
 599 0022 0621     		movs	r1, #6
 600 0024 0A20     		movs	r0, #10
 601 0026 FFF7FEFF 		bl	nvicEnableVector
 602              	.LVL65:
 603              		.loc 1 232 0
 604 002a 0621     		movs	r1, #6
 605 002c 1720     		movs	r0, #23
 606 002e FFF7FEFF 		bl	nvicEnableVector
 607              	.LVL66:
 608              		.loc 1 233 0
 609 0032 0621     		movs	r1, #6
 610 0034 2820     		movs	r0, #40
 611              		.loc 1 235 0
 612 0036 BDE80840 		pop	{r3, lr}
 613              		.cfi_restore 14
 614              		.cfi_restore 3
 615              		.cfi_def_cfa_offset 0
 616              		.loc 1 233 0
 617 003a FFF7FEBF 		b	nvicEnableVector
 618              	.LVL67:
 619              		.cfi_endproc
 620              	.LFE330:
 621              		.size	irqInit, .-irqInit
 622              		.section	.text.irqDeinit,"ax",%progbits
 623              		.align	1
 624              		.global	irqDeinit
 625              		.syntax unified
 626              		.thumb
 627              		.thumb_func
ARM GAS  /tmp/ccLFRn0o.s 			page 12


 628              		.fpu fpv4-sp-d16
 629              		.type	irqDeinit, %function
 630              	irqDeinit:
 631              	.LFB331:
 632              		.loc 1 242 0
 633              		.cfi_startproc
 634              		@ args = 0, pretend = 0, frame = 0
 635              		@ frame_needed = 0, uses_anonymous_args = 0
 636 0000 08B5     		push	{r3, lr}
 637              		.cfi_def_cfa_offset 8
 638              		.cfi_offset 3, -8
 639              		.cfi_offset 14, -4
 640              		.loc 1 245 0
 641 0002 0620     		movs	r0, #6
 642 0004 FFF7FEFF 		bl	nvicDisableVector
 643              	.LVL68:
 644              		.loc 1 246 0
 645 0008 0720     		movs	r0, #7
 646 000a FFF7FEFF 		bl	nvicDisableVector
 647              	.LVL69:
 648              		.loc 1 247 0
 649 000e 0820     		movs	r0, #8
 650 0010 FFF7FEFF 		bl	nvicDisableVector
 651              	.LVL70:
 652              		.loc 1 248 0
 653 0014 0920     		movs	r0, #9
 654 0016 FFF7FEFF 		bl	nvicDisableVector
 655              	.LVL71:
 656              		.loc 1 249 0
 657 001a 0A20     		movs	r0, #10
 658 001c FFF7FEFF 		bl	nvicDisableVector
 659              	.LVL72:
 660              		.loc 1 250 0
 661 0020 1720     		movs	r0, #23
 662 0022 FFF7FEFF 		bl	nvicDisableVector
 663              	.LVL73:
 664              		.loc 1 251 0
 665 0026 2820     		movs	r0, #40
 666              		.loc 1 253 0
 667 0028 BDE80840 		pop	{r3, lr}
 668              		.cfi_restore 14
 669              		.cfi_restore 3
 670              		.cfi_def_cfa_offset 0
 671              		.loc 1 251 0
 672 002c FFF7FEBF 		b	nvicDisableVector
 673              	.LVL74:
 674              		.cfi_endproc
 675              	.LFE331:
 676              		.size	irqDeinit, .-irqDeinit
 677              		.text
 678              	.Letext0:
 679              		.file 2 "/opt/gcc-arm-none-eabi-6-2017-q2-update/lib/gcc/arm-none-eabi/6.3.1/include/stddef.h"
 680              		.file 3 "/opt/gcc-arm-none-eabi-6-2017-q2-update/arm-none-eabi/include/machine/_default_types.h"
 681              		.file 4 "/opt/gcc-arm-none-eabi-6-2017-q2-update/arm-none-eabi/include/sys/_stdint.h"
 682              		.file 5 "/opt/gcc-arm-none-eabi-6-2017-q2-update/arm-none-eabi/include/stdint.h"
 683              		.file 6 "../../modules/ChibiOS/os/common/ports/ARMCMx/compilers/GCC/chtypes.h"
 684              		.file 7 "../../modules/ChibiOS/os/rt/include/chsystypes.h"
ARM GAS  /tmp/ccLFRn0o.s 			page 13


 685              		.file 8 "../../modules/ChibiOS/os/rt/include/chschd.h"
 686              		.file 9 "../../modules/ChibiOS/os/rt/include/chtime.h"
 687              		.file 10 "../../modules/ChibiOS/os/common/ext/ARM/CMSIS/Core/Include/core_cm4.h"
 688              		.file 11 "../../modules/ChibiOS/os/common/ext/ST/STM32F4xx/system_stm32f4xx.h"
 689              		.file 12 "../../modules/ChibiOS/os/common/ext/ST/STM32F4xx/stm32f427xx.h"
 690              		.file 13 "../../modules/ChibiOS/os/common/ports/ARMCMx/chcore.h"
 691              		.file 14 "../../modules/ChibiOS/os/common/ports/ARMCMx/chcore_v7m.h"
 692              		.file 15 "../../modules/ChibiOS/os/hal/ports/STM32/LLD/TIMv1/stm32_tim.h"
 693              		.file 16 "../../modules/ChibiOS/os/rt/include/chtm.h"
 694              		.file 17 "../../modules/ChibiOS/os/rt/include/chstats.h"
 695              		.file 18 "../../modules/ChibiOS/os/rt/include/chsem.h"
 696              		.file 19 "../../modules/ChibiOS/os/rt/include/chmtx.h"
 697              		.file 20 "../../modules/ChibiOS/os/rt/include/chsys.h"
 698              		.file 21 "../../modules/ChibiOS/os/rt/include/chregistry.h"
 699              		.file 22 "../../modules/ChibiOS/os/rt/include/chevents.h"
 700              		.file 23 "../../modules/ChibiOS/os/oslib/include/chmemcore.h"
 701              		.file 24 "../../modules/ChibiOS/os/oslib/include/chmempools.h"
 702              		.file 25 "../../modules/ChibiOS/os/oslib/include/chfactory.h"
 703              		.file 26 "../../modules/ChibiOS/os/hal/ports/STM32/LLD/DMAv2/stm32_dma.h"
 704              		.file 27 "../../modules/ChibiOS/os/hal/include/hal_ioblock.h"
 705              		.file 28 "../../modules/ChibiOS/os/hal/include/hal_queues.h"
 706              		.file 29 "../../modules/ChibiOS/os/hal/include/hal_pal.h"
 707              		.file 30 "../../modules/ChibiOS/os/hal/ports/STM32/LLD/GPIOv2/stm32_gpio.h"
 708              		.file 31 "../../modules/ChibiOS/os/hal/ports/STM32/LLD/GPIOv2/hal_pal_lld.h"
 709              		.file 32 "../../modules/ChibiOS/os/hal/include/hal_adc.h"
 710              		.file 33 "../../modules/ChibiOS/os/hal/ports/STM32/LLD/ADCv2/hal_adc_lld.h"
 711              		.file 34 "../../modules/ChibiOS/os/hal/include/hal_i2c.h"
 712              		.file 35 "../../modules/ChibiOS/os/hal/ports/STM32/LLD/I2Cv1/hal_i2c_lld.h"
 713              		.file 36 "../../modules/ChibiOS/os/hal/include/hal_pwm.h"
 714              		.file 37 "../../modules/ChibiOS/os/hal/ports/STM32/LLD/TIMv1/hal_pwm_lld.h"
 715              		.file 38 "../../modules/ChibiOS/os/hal/include/hal_serial.h"
 716              		.file 39 "../../modules/ChibiOS/os/hal/ports/STM32/LLD/USARTv1/hal_serial_lld.h"
 717              		.file 40 "../../modules/ChibiOS/os/hal/include/hal_sdc.h"
 718              		.file 41 "../../modules/ChibiOS/os/hal/ports/STM32/LLD/SDIOv1/hal_sdc_lld.h"
 719              		.file 42 "../../modules/ChibiOS/os/hal/include/hal_spi.h"
 720              		.file 43 "../../modules/ChibiOS/os/hal/ports/STM32/LLD/SPIv1/hal_spi_lld.h"
 721              		.file 44 "../../modules/ChibiOS/os/hal/include/hal_usb.h"
 722              		.file 45 "../../modules/ChibiOS/os/hal/ports/STM32/LLD/OTGv1/hal_usb_lld.h"
 723              		.file 46 "../../modules/ChibiOS/os/hal/ports/STM32/LLD/OTGv1/stm32_otg.h"
 724              		.file 47 "../../modules/ChibiOS/os/hal/ports/common/ARMCMx/nvic.h"