ARM GAS  /tmp/ccaiZisL.s 			page 1


   1              		.syntax unified
   2              		.cpu cortex-m4
   3              		.eabi_attribute 27, 1
   4              		.eabi_attribute 28, 1
   5              		.fpu fpv4-sp-d16
   6              		.eabi_attribute 20, 1
   7              		.eabi_attribute 21, 1
   8              		.eabi_attribute 23, 3
   9              		.eabi_attribute 24, 1
  10              		.eabi_attribute 25, 1
  11              		.eabi_attribute 26, 1
  12              		.eabi_attribute 30, 4
  13              		.eabi_attribute 34, 1
  14              		.eabi_attribute 18, 4
  15              		.thumb
  16              		.file	"stm32_util.c"
  17              		.text
  18              	.Ltext0:
  19              		.cfi_sections	.debug_frame
  20              		.section	.text.stm32_timer_set_input_filter,"ax",%progbits
  21              		.align	1
  22              		.global	stm32_timer_set_input_filter
  23              		.thumb
  24              		.thumb_func
  25              		.type	stm32_timer_set_input_filter, %function
  26              	stm32_timer_set_input_filter:
  27              	.LFB323:
  28              		.file 1 "../../libraries/AP_HAL_ChibiOS/hwdef/common/stm32_util.c"
  29              		.loc 1 29 0
  30              		.cfi_startproc
  31              		@ args = 0, pretend = 0, frame = 0
  32              		@ frame_needed = 0, uses_anonymous_args = 0
  33              		@ link register save eliminated.
  34              	.LVL0:
  35              		.loc 1 30 0
  36 0000 0329     		cmp	r1, #3
  37 0002 14D8     		bhi	.L1
  38 0004 DFE801F0 		tbb	[pc, r1]
  39              	.L4:
  40 0008 02       		.byte	(.L3-.L4)/2
  41 0009 06       		.byte	(.L5-.L4)/2
  42 000a 0B       		.byte	(.L6-.L4)/2
  43 000b 0F       		.byte	(.L7-.L4)/2
  44              		.p2align 1
  45              	.L3:
  46              		.loc 1 32 0
  47 000c 8369     		ldr	r3, [r0, #24]
  48 000e 43EA0212 		orr	r2, r3, r2, lsl #4
  49              	.LVL1:
  50 0012 02E0     		b	.L8
  51              	.LVL2:
  52              	.L5:
  53              		.loc 1 35 0
  54 0014 8369     		ldr	r3, [r0, #24]
  55 0016 43EA0232 		orr	r2, r3, r2, lsl #12
  56              	.LVL3:
  57              	.L8:
ARM GAS  /tmp/ccaiZisL.s 			page 2


  58 001a 8261     		str	r2, [r0, #24]
  59              		.loc 1 36 0
  60 001c 7047     		bx	lr
  61              	.LVL4:
  62              	.L6:
  63              		.loc 1 38 0
  64 001e C369     		ldr	r3, [r0, #28]
  65 0020 43EA0212 		orr	r2, r3, r2, lsl #4
  66              	.LVL5:
  67 0024 02E0     		b	.L9
  68              	.LVL6:
  69              	.L7:
  70              		.loc 1 41 0
  71 0026 C369     		ldr	r3, [r0, #28]
  72 0028 43EA0232 		orr	r2, r3, r2, lsl #12
  73              	.LVL7:
  74              	.L9:
  75 002c C261     		str	r2, [r0, #28]
  76              	.L1:
  77 002e 7047     		bx	lr
  78              		.cfi_endproc
  79              	.LFE323:
  80              		.size	stm32_timer_set_input_filter, .-stm32_timer_set_input_filter
  81              		.section	.text.stm32_timer_set_channel_input,"ax",%progbits
  82              		.align	1
  83              		.global	stm32_timer_set_channel_input
  84              		.thumb
  85              		.thumb_func
  86              		.type	stm32_timer_set_channel_input, %function
  87              	stm32_timer_set_channel_input:
  88              	.LFB324:
  89              		.loc 1 50 0
  90              		.cfi_startproc
  91              		@ args = 0, pretend = 0, frame = 0
  92              		@ frame_needed = 0, uses_anonymous_args = 0
  93              		@ link register save eliminated.
  94              	.LVL8:
  95              		.loc 1 51 0
  96 0000 0329     		cmp	r1, #3
  97 0002 41D8     		bhi	.L11
  98 0004 DFE801F0 		tbb	[pc, r1]
  99              	.L14:
 100 0008 02       		.byte	(.L13-.L14)/2
 101 0009 11       		.byte	(.L15-.L14)/2
 102 000a 21       		.byte	(.L16-.L14)/2
 103 000b 30       		.byte	(.L17-.L14)/2
 104              		.p2align 1
 105              	.L13:
 106              		.loc 1 53 0
 107 000c 036A     		ldr	r3, [r0, #32]
 108 000e 23F00103 		bic	r3, r3, #1
 109 0012 0362     		str	r3, [r0, #32]
 110              		.loc 1 54 0
 111 0014 8369     		ldr	r3, [r0, #24]
 112 0016 23F00303 		bic	r3, r3, #3
 113 001a 8361     		str	r3, [r0, #24]
 114              		.loc 1 55 0
ARM GAS  /tmp/ccaiZisL.s 			page 3


 115 001c 8369     		ldr	r3, [r0, #24]
 116 001e 1A43     		orrs	r2, r2, r3
 117              	.LVL9:
 118 0020 8261     		str	r2, [r0, #24]
 119              		.loc 1 56 0
 120 0022 036A     		ldr	r3, [r0, #32]
 121 0024 43F00103 		orr	r3, r3, #1
 122 0028 2DE0     		b	.L18
 123              	.LVL10:
 124              	.L15:
 125              		.loc 1 59 0
 126 002a 036A     		ldr	r3, [r0, #32]
 127 002c 23F01003 		bic	r3, r3, #16
 128 0030 0362     		str	r3, [r0, #32]
 129              		.loc 1 60 0
 130 0032 8369     		ldr	r3, [r0, #24]
 131 0034 23F44073 		bic	r3, r3, #768
 132 0038 8361     		str	r3, [r0, #24]
 133              		.loc 1 61 0
 134 003a 8369     		ldr	r3, [r0, #24]
 135 003c 43EA0222 		orr	r2, r3, r2, lsl #8
 136              	.LVL11:
 137 0040 8261     		str	r2, [r0, #24]
 138              		.loc 1 62 0
 139 0042 036A     		ldr	r3, [r0, #32]
 140 0044 43F01003 		orr	r3, r3, #16
 141 0048 1DE0     		b	.L18
 142              	.LVL12:
 143              	.L16:
 144              		.loc 1 65 0
 145 004a 036A     		ldr	r3, [r0, #32]
 146 004c 23F48073 		bic	r3, r3, #256
 147 0050 0362     		str	r3, [r0, #32]
 148              		.loc 1 66 0
 149 0052 C369     		ldr	r3, [r0, #28]
 150 0054 23F00303 		bic	r3, r3, #3
 151 0058 C361     		str	r3, [r0, #28]
 152              		.loc 1 67 0
 153 005a C369     		ldr	r3, [r0, #28]
 154 005c 1A43     		orrs	r2, r2, r3
 155              	.LVL13:
 156 005e C261     		str	r2, [r0, #28]
 157              		.loc 1 68 0
 158 0060 036A     		ldr	r3, [r0, #32]
 159 0062 43F48073 		orr	r3, r3, #256
 160 0066 0EE0     		b	.L18
 161              	.LVL14:
 162              	.L17:
 163              		.loc 1 71 0
 164 0068 036A     		ldr	r3, [r0, #32]
 165 006a 23F48053 		bic	r3, r3, #4096
 166 006e 0362     		str	r3, [r0, #32]
 167              		.loc 1 72 0
 168 0070 C369     		ldr	r3, [r0, #28]
 169 0072 23F44073 		bic	r3, r3, #768
 170 0076 C361     		str	r3, [r0, #28]
 171              		.loc 1 73 0
ARM GAS  /tmp/ccaiZisL.s 			page 4


 172 0078 C369     		ldr	r3, [r0, #28]
 173 007a 43EA0222 		orr	r2, r3, r2, lsl #8
 174              	.LVL15:
 175 007e C261     		str	r2, [r0, #28]
 176              		.loc 1 74 0
 177 0080 036A     		ldr	r3, [r0, #32]
 178 0082 43F48053 		orr	r3, r3, #4096
 179              	.L18:
 180 0086 0362     		str	r3, [r0, #32]
 181              	.L11:
 182 0088 7047     		bx	lr
 183              		.cfi_endproc
 184              	.LFE324:
 185              		.size	stm32_timer_set_channel_input, .-stm32_timer_set_channel_input
 186              		.section	.text.stm32_set_utc_usec,"ax",%progbits
 187              		.align	1
 188              		.global	stm32_set_utc_usec
 189              		.thumb
 190              		.thumb_func
 191              		.type	stm32_set_utc_usec, %function
 192              	stm32_set_utc_usec:
 193              	.LFB325:
 194              		.loc 1 102 0
 195              		.cfi_startproc
 196              		@ args = 0, pretend = 0, frame = 0
 197              		@ frame_needed = 0, uses_anonymous_args = 0
 198              	.LVL16:
 199 0000 38B5     		push	{r3, r4, r5, lr}
 200              		.cfi_def_cfa_offset 16
 201              		.cfi_offset 3, -16
 202              		.cfi_offset 4, -12
 203              		.cfi_offset 5, -8
 204              		.cfi_offset 14, -4
 205              		.loc 1 102 0
 206 0002 0446     		mov	r4, r0
 207 0004 0D46     		mov	r5, r1
 208              		.loc 1 103 0
 209 0006 FFF7FEFF 		bl	hrt_micros64
 210              	.LVL17:
 211              		.loc 1 104 0
 212 000a 8D42     		cmp	r5, r1
 213 000c 08BF     		it	eq
 214 000e 8442     		cmpeq	r4, r0
 215 0010 05D3     		bcc	.L19
 216              		.loc 1 105 0
 217 0012 241A     		subs	r4, r4, r0
 218 0014 024B     		ldr	r3, .L21
 219 0016 65EB0105 		sbc	r5, r5, r1
 220 001a C3E90045 		strd	r4, [r3]
 221              	.L19:
 222 001e 38BD     		pop	{r3, r4, r5, pc}
 223              	.L22:
 224              		.align	2
 225              	.L21:
 226 0020 00000000 		.word	.LANCHOR0
 227              		.cfi_endproc
 228              	.LFE325:
ARM GAS  /tmp/ccaiZisL.s 			page 5


 229              		.size	stm32_set_utc_usec, .-stm32_set_utc_usec
 230              		.section	.text.stm32_get_utc_usec,"ax",%progbits
 231              		.align	1
 232              		.global	stm32_get_utc_usec
 233              		.thumb
 234              		.thumb_func
 235              		.type	stm32_get_utc_usec, %function
 236              	stm32_get_utc_usec:
 237              	.LFB326:
 238              		.loc 1 113 0
 239              		.cfi_startproc
 240              		@ args = 0, pretend = 0, frame = 0
 241              		@ frame_needed = 0, uses_anonymous_args = 0
 242 0000 08B5     		push	{r3, lr}
 243              		.cfi_def_cfa_offset 8
 244              		.cfi_offset 3, -8
 245              		.cfi_offset 14, -4
 246              		.loc 1 114 0
 247 0002 FFF7FEFF 		bl	hrt_micros64
 248              	.LVL18:
 249 0006 034B     		ldr	r3, .L24
 250 0008 D3E90023 		ldrd	r2, [r3]
 251              		.loc 1 115 0
 252 000c 8018     		adds	r0, r0, r2
 253 000e 5941     		adcs	r1, r1, r3
 254 0010 08BD     		pop	{r3, pc}
 255              	.L25:
 256 0012 00BF     		.align	2
 257              	.L24:
 258 0014 00000000 		.word	.LANCHOR0
 259              		.cfi_endproc
 260              	.LFE326:
 261              		.size	stm32_get_utc_usec, .-stm32_get_utc_usec
 262              		.global	__aeabi_uldivmod
 263              		.section	.text.get_fattime,"ax",%progbits
 264              		.align	1
 265              		.global	get_fattime
 266              		.thumb
 267              		.thumb_func
 268              		.type	get_fattime, %function
 269              	get_fattime:
 270              	.LFB329:
 271              		.loc 1 189 0
 272              		.cfi_startproc
 273              		@ args = 0, pretend = 0, frame = 8
 274              		@ frame_needed = 0, uses_anonymous_args = 0
 275              		.loc 1 190 0
 276 0000 484B     		ldr	r3, .L38
 277              		.loc 1 189 0
 278 0002 2DE9F743 		push	{r0, r1, r2, r4, r5, r6, r7, r8, r9, lr}
 279              		.cfi_def_cfa_offset 40
 280              		.cfi_offset 4, -28
 281              		.cfi_offset 5, -24
 282              		.cfi_offset 6, -20
 283              		.cfi_offset 7, -16
 284              		.cfi_offset 8, -12
 285              		.cfi_offset 9, -8
ARM GAS  /tmp/ccaiZisL.s 			page 6


 286              		.cfi_offset 14, -4
 287              		.loc 1 190 0
 288 0006 D3E90023 		ldrd	r2, [r3]
 289 000a 1343     		orrs	r3, r2, r3
 290 000c 00F08580 		beq	.L34
 291              		.loc 1 194 0
 292 0010 FFF7FEFF 		bl	stm32_get_utc_usec
 293              	.LVL19:
 294              		.loc 1 195 0
 295 0014 444A     		ldr	r2, .L38+4
 296              	.LBB13:
 297              	.LBB14:
 298              		.loc 1 156 0
 299 0016 DFF81C81 		ldr	r8, .L38+16
 300              	.LBE14:
 301              	.LBE13:
 302              		.loc 1 195 0
 303 001a 0023     		movs	r3, #0
 304 001c FFF7FEFF 		bl	__aeabi_uldivmod
 305              	.LVL20:
 306              	.LBB23:
 307              	.LBB21:
 308              		.loc 1 146 0
 309 0020 424A     		ldr	r2, .L38+8
 310 0022 0023     		movs	r3, #0
 311              	.LBE21:
 312              	.LBE23:
 313              		.loc 1 195 0
 314 0024 0646     		mov	r6, r0
 315 0026 0F46     		mov	r7, r1
 316              	.LVL21:
 317              	.LBB24:
 318              	.LBB22:
 319              		.loc 1 146 0
 320 0028 FFF7FEFF 		bl	__aeabi_uldivmod
 321              	.LVL22:
 322              		.loc 1 147 0
 323 002c 3046     		mov	r0, r6
 324              		.loc 1 146 0
 325 002e 1446     		mov	r4, r2
 326              	.LVL23:
 327              		.loc 1 147 0
 328 0030 3946     		mov	r1, r7
 329 0032 3E4A     		ldr	r2, .L38+8
 330              	.LVL24:
 331 0034 0023     		movs	r3, #0
 332 0036 FFF7FEFF 		bl	__aeabi_uldivmod
 333              	.LVL25:
 334              		.loc 1 151 0
 335 003a 3C22     		movs	r2, #60
 336              		.loc 1 149 0
 337 003c 0023     		movs	r3, #0
 338 003e 0093     		str	r3, [sp]
 339              		.loc 1 156 0
 340 0040 4FF00009 		mov	r9, #0
 341              		.loc 1 151 0
 342 0044 B4FBF2F3 		udiv	r3, r4, r2
ARM GAS  /tmp/ccaiZisL.s 			page 7


 343 0048 02FB1343 		mls	r3, r2, r3, r4
 344 004c DEB2     		uxtb	r6, r3
 345              	.LVL26:
 346              		.loc 1 156 0
 347 004e 8945     		cmp	r9, r1
 348              		.loc 1 152 0
 349 0050 4FF46163 		mov	r3, #3600
 350              		.loc 1 156 0
 351 0054 08BF     		it	eq
 352 0056 8045     		cmpeq	r8, r0
 353              		.loc 1 152 0
 354 0058 B4FBF3F7 		udiv	r7, r4, r3
 355 005c 03FB1743 		mls	r3, r3, r7, r4
 356              		.loc 1 154 0
 357 0060 4FF04604 		mov	r4, #70
 358              	.LVL27:
 359              		.loc 1 152 0
 360 0064 B3FBF2F2 		udiv	r2, r3, r2
 361              		.loc 1 154 0
 362 0068 8DF80040 		strb	r4, [sp]
 363              		.loc 1 156 0
 364 006c 41D3     		bcc	.L28
 365              		.loc 1 147 0
 366 006e 0146     		mov	r1, r0
 367              	.LVL28:
 368              	.L32:
 369              	.LBB15:
 370              	.LBB16:
 371              	.LBB17:
 372              		.loc 1 132 0
 373 0070 04F26C73 		addw	r3, r4, #1900
 374              	.LVL29:
 375              		.loc 1 133 0
 376 0074 9807     		lsls	r0, r3, #30
 377 0076 16D1     		bne	.L35
 378 0078 6425     		movs	r5, #100
 379 007a B3FBF5F0 		udiv	r0, r3, r5
 380 007e 05FB1030 		mls	r0, r5, r0, r3
 381 0082 A8B9     		cbnz	r0, .L36
 382 0084 4FF4C875 		mov	r5, #400
 383 0088 B3FBF5F0 		udiv	r0, r3, r5
 384 008c 05FB1033 		mls	r3, r5, r0, r3
 385              	.LVL30:
 386 0090 002B     		cmp	r3, #0
 387 0092 40F26D15 		movw	r5, #365
 388 0096 12BF     		itee	ne
 389 0098 4FF0000E 		movne	lr, #0
 390 009c 4FF0010E 		moveq	lr, #1
 391 00a0 4FF4B775 		moveq	r5, #366
 392 00a4 08E0     		b	.L29
 393              	.LVL31:
 394              	.L35:
 395 00a6 4FF0000E 		mov	lr, #0
 396              	.LBE17:
 397              	.LBE16:
 398              		.loc 1 162 0
 399 00aa 40F26D15 		movw	r5, #365
ARM GAS  /tmp/ccaiZisL.s 			page 8


 400 00ae 03E0     		b	.L29
 401              	.L36:
 402              	.LBB19:
 403              	.LBB18:
 404              		.loc 1 133 0
 405 00b0 4FF0010E 		mov	lr, #1
 406              	.LBE18:
 407              	.LBE19:
 408              		.loc 1 162 0
 409 00b4 4FF4B775 		mov	r5, #366
 410              	.LVL32:
 411              	.L29:
 412 00b8 631C     		adds	r3, r4, #1
 413              		.loc 1 163 0
 414 00ba A942     		cmp	r1, r5
 415 00bc DBB2     		uxtb	r3, r3
 416 00be 04D2     		bcs	.L30
 417 00c0 8DF80040 		strb	r4, [sp]
 418 00c4 9DF80130 		ldrb	r3, [sp, #1]	@ zero_extendqisi2
 419 00c8 02E0     		b	.L31
 420              	.L30:
 421              		.loc 1 167 0
 422 00ca 491B     		subs	r1, r1, r5
 423              	.LVL33:
 424 00cc 1C46     		mov	r4, r3
 425              	.LVL34:
 426 00ce CFE7     		b	.L32
 427              	.L31:
 428              	.LBE15:
 429              	.LBB20:
 430              		.loc 1 172 0
 431 00d0 0C20     		movs	r0, #12
 432 00d2 00FB0E30 		mla	r0, r0, lr, r3
 433 00d6 164C     		ldr	r4, .L38+12
 434 00d8 245C     		ldrb	r4, [r4, r0]	@ zero_extendqisi2
 435              	.LVL35:
 436 00da 581C     		adds	r0, r3, #1
 437              		.loc 1 173 0
 438 00dc A142     		cmp	r1, r4
 439 00de C0B2     		uxtb	r0, r0
 440 00e0 02D3     		bcc	.L33
 441              		.loc 1 176 0
 442 00e2 091B     		subs	r1, r1, r4
 443              	.LVL36:
 444 00e4 0346     		mov	r3, r0
 445 00e6 F3E7     		b	.L31
 446              	.L33:
 447              	.LBE20:
 448              		.loc 1 179 0
 449 00e8 0131     		adds	r1, r1, #1
 450              	.LVL37:
 451 00ea 8DF80130 		strb	r3, [sp, #1]
 452 00ee 8DF80210 		strb	r1, [sp, #2]
 453              	.LVL38:
 454              	.L28:
 455              	.LBE22:
 456              	.LBE24:
ARM GAS  /tmp/ccaiZisL.s 			page 9


 457              		.loc 1 206 0
 458 00f2 9DF80110 		ldrb	r1, [sp, #1]	@ zero_extendqisi2
 459 00f6 4B1C     		adds	r3, r1, #1
 460              		.loc 1 207 0
 461 00f8 9DF80010 		ldrb	r1, [sp]	@ zero_extendqisi2
 462 00fc 5039     		subs	r1, r1, #80
 463 00fe 4906     		lsls	r1, r1, #25
 464 0100 41EA4351 		orr	r1, r1, r3, lsl #21
 465              		.loc 1 205 0
 466 0104 9DF80230 		ldrb	r3, [sp, #2]	@ zero_extendqisi2
 467 0108 41EA0341 		orr	r1, r1, r3, lsl #16
 468 010c 41EA5603 		orr	r3, r1, r6, lsr #1
 469 0110 43EAC723 		orr	r3, r3, r7, lsl #11
 470              		.loc 1 207 0
 471 0114 43EA4210 		orr	r0, r3, r2, lsl #5
 472              	.LVL39:
 473              		.loc 1 209 0
 474 0118 01E0     		b	.L27
 475              	.LVL40:
 476              	.L34:
 477              		.loc 1 192 0
 478 011a 4FF40410 		mov	r0, #2162688
 479              	.L27:
 480              		.loc 1 210 0
 481 011e 03B0     		add	sp, sp, #12
 482              		.cfi_def_cfa_offset 28
 483              		@ sp needed
 484 0120 BDE8F083 		pop	{r4, r5, r6, r7, r8, r9, pc}
 485              	.L39:
 486              		.align	2
 487              	.L38:
 488 0124 00000000 		.word	.LANCHOR0
 489 0128 40420F00 		.word	1000000
 490 012c 80510100 		.word	86400
 491 0130 00000000 		.word	.LANCHOR1
 492 0134 90230B00 		.word	730000
 493              		.cfi_endproc
 494              	.LFE329:
 495              		.size	get_fattime, .-get_fattime
 496              		.section	.text.check_fast_reboot,"ax",%progbits
 497              		.align	1
 498              		.global	check_fast_reboot
 499              		.thumb
 500              		.thumb_func
 501              		.type	check_fast_reboot, %function
 502              	check_fast_reboot:
 503              	.LFB332:
 504              		.loc 1 236 0
 505              		.cfi_startproc
 506              		@ args = 0, pretend = 0, frame = 0
 507              		@ frame_needed = 0, uses_anonymous_args = 0
 508              		@ link register save eliminated.
 509              	.LBB25:
 510              	.LBB26:
 511              		.loc 1 216 0
 512 0000 014B     		ldr	r3, .L41
 513 0002 186D     		ldr	r0, [r3, #80]
ARM GAS  /tmp/ccaiZisL.s 			page 10


 514              	.LBE26:
 515              	.LBE25:
 516              		.loc 1 238 0
 517 0004 7047     		bx	lr
 518              	.L42:
 519 0006 00BF     		.align	2
 520              	.L41:
 521 0008 00280040 		.word	1073752064
 522              		.cfi_endproc
 523              	.LFE332:
 524              		.size	check_fast_reboot, .-check_fast_reboot
 525              		.section	.text.set_fast_reboot,"ax",%progbits
 526              		.align	1
 527              		.global	set_fast_reboot
 528              		.thumb
 529              		.thumb_func
 530              		.type	set_fast_reboot, %function
 531              	set_fast_reboot:
 532              	.LFB333:
 533              		.loc 1 242 0
 534              		.cfi_startproc
 535              		@ args = 0, pretend = 0, frame = 0
 536              		@ frame_needed = 0, uses_anonymous_args = 0
 537              		@ link register save eliminated.
 538              	.LVL41:
 539              	.LBB29:
 540              	.LBB30:
 541              		.loc 1 222 0
 542 0000 0A4B     		ldr	r3, .L45
 543 0002 1A6F     		ldr	r2, [r3, #112]
 544 0004 1204     		lsls	r2, r2, #16
 545              		.loc 1 223 0
 546 0006 5FBF     		itttt	pl
 547 0008 1A6F     		ldrpl	r2, [r3, #112]
 548 000a 42F40072 		orrpl	r2, r2, #512
 549 000e 1A67     		strpl	r2, [r3, #112]
 550              		.loc 1 224 0
 551 0010 1A6F     		ldrpl	r2, [r3, #112]
 552 0012 5CBF     		itt	pl
 553 0014 42F40042 		orrpl	r2, r2, #32768
 554 0018 1A67     		strpl	r2, [r3, #112]
 555              		.loc 1 227 0
 556 001a 054A     		ldr	r2, .L45+4
 557 001c 1368     		ldr	r3, [r2]
 558 001e 43F48073 		orr	r3, r3, #256
 559 0022 1360     		str	r3, [r2]
 560              		.loc 1 231 0
 561 0024 034B     		ldr	r3, .L45+8
 562 0026 1865     		str	r0, [r3, #80]
 563 0028 7047     		bx	lr
 564              	.L46:
 565 002a 00BF     		.align	2
 566              	.L45:
 567 002c 00380240 		.word	1073887232
 568 0030 00700040 		.word	1073770496
 569 0034 00280040 		.word	1073752064
 570              	.LBE30:
ARM GAS  /tmp/ccaiZisL.s 			page 11


 571              	.LBE29:
 572              		.cfi_endproc
 573              	.LFE333:
 574              		.size	set_fast_reboot, .-set_fast_reboot
 575              		.section	.text.peripheral_power_enable,"ax",%progbits
 576              		.align	1
 577              		.global	peripheral_power_enable
 578              		.thumb
 579              		.thumb_func
 580              		.type	peripheral_power_enable, %function
 581              	peripheral_power_enable:
 582              	.LFB334:
 583              		.loc 1 254 0
 584              		.cfi_startproc
 585              		@ args = 0, pretend = 0, frame = 0
 586              		@ frame_needed = 0, uses_anonymous_args = 0
 587              	.LVL42:
 588 0000 10B5     		push	{r4, lr}
 589              		.cfi_def_cfa_offset 8
 590              		.cfi_offset 4, -8
 591              		.cfi_offset 14, -4
 592              		.loc 1 254 0
 593 0002 6424     		movs	r4, #100
 594              	.LVL43:
 595              	.L48:
 596              		.loc 1 262 0 discriminator 3
 597 0004 4FF47A70 		mov	r0, #1000
 598 0008 013C     		subs	r4, r4, #1
 599              	.LVL44:
 600 000a FFF7FEFF 		bl	chThdSleep
 601              	.LVL45:
 602              		.loc 1 260 0 discriminator 3
 603 000e 14F0FF04 		ands	r4, r4, #255
 604 0012 F7D1     		bne	.L48
 605              	.LVL46:
 606              	.LBB31:
 607              		.loc 1 272 0
 608 0014 014B     		ldr	r3, .L50
 609 0016 0822     		movs	r2, #8
 610 0018 9A61     		str	r2, [r3, #24]
 611 001a 10BD     		pop	{r4, pc}
 612              	.L51:
 613              		.align	2
 614              	.L50:
 615 001c 00100240 		.word	1073876992
 616              	.LBE31:
 617              		.cfi_endproc
 618              	.LFE334:
 619              		.size	peripheral_power_enable, .-peripheral_power_enable
 620              		.section	.text.palReadLineMode,"ax",%progbits
 621              		.align	1
 622              		.global	palReadLineMode
 623              		.thumb
 624              		.thumb_func
 625              		.type	palReadLineMode, %function
 626              	palReadLineMode:
 627              	.LFB335:
ARM GAS  /tmp/ccaiZisL.s 			page 12


 628              		.loc 1 291 0
 629              		.cfi_startproc
 630              		@ args = 0, pretend = 0, frame = 0
 631              		@ frame_needed = 0, uses_anonymous_args = 0
 632              	.LVL47:
 633 0000 F0B5     		push	{r4, r5, r6, r7, lr}
 634              		.cfi_def_cfa_offset 20
 635              		.cfi_offset 4, -20
 636              		.cfi_offset 5, -16
 637              		.cfi_offset 6, -12
 638              		.cfi_offset 7, -8
 639              		.cfi_offset 14, -4
 640              		.loc 1 292 0
 641 0002 20F00F05 		bic	r5, r0, #15
 642              	.LVL48:
 643              		.loc 1 293 0
 644 0006 00F00F04 		and	r4, r0, #15
 645              	.LVL49:
 646              		.loc 1 295 0
 647 000a 2B68     		ldr	r3, [r5]
 648              		.loc 1 296 0
 649 000c 6A68     		ldr	r2, [r5, #4]
 650              		.loc 1 295 0
 651 000e 26B2     		sxth	r6, r4
 652 0010 7700     		lsls	r7, r6, #1
 653              	.LVL50:
 654              		.loc 1 296 0
 655 0012 E240     		lsrs	r2, r2, r4
 656              		.loc 1 295 0
 657 0014 FB40     		lsrs	r3, r3, r7
 658              	.LVL51:
 659              		.loc 1 296 0
 660 0016 02F00102 		and	r2, r2, #1
 661              		.loc 1 295 0
 662 001a 03F00303 		and	r3, r3, #3
 663              	.LVL52:
 664              		.loc 1 296 0
 665 001e 43EA8201 		orr	r1, r3, r2, lsl #2
 666              	.LVL53:
 667              		.loc 1 297 0
 668 0022 AB68     		ldr	r3, [r5, #8]
 669              		.loc 1 298 0
 670 0024 E868     		ldr	r0, [r5, #12]
 671              	.LVL54:
 672              		.loc 1 297 0
 673 0026 FB40     		lsrs	r3, r3, r7
 674 0028 03F00303 		and	r3, r3, #3
 675              		.loc 1 298 0
 676 002c F840     		lsrs	r0, r0, r7
 677              		.loc 1 299 0
 678 002e 072C     		cmp	r4, #7
 679              		.loc 1 298 0
 680 0030 00F00300 		and	r0, r0, #3
 681              		.loc 1 297 0
 682 0034 41EAC302 		orr	r2, r1, r3, lsl #3
 683              	.LVL55:
 684              		.loc 1 298 0
ARM GAS  /tmp/ccaiZisL.s 			page 13


 685 0038 42EA4013 		orr	r3, r2, r0, lsl #5
 686              	.LVL56:
 687              		.loc 1 302 0
 688 003c 8BBF     		itete	hi
 689 003e 083C     		subhi	r4, r4, #8
 690              	.LVL57:
 691              		.loc 1 300 0
 692 0040 286A     		ldrls	r0, [r5, #32]
 693              		.loc 1 302 0
 694 0042 686A     		ldrhi	r0, [r5, #36]
 695              		.loc 1 300 0
 696 0044 B600     		lslls	r6, r6, #2
 697              		.loc 1 302 0
 698 0046 8ABF     		itet	hi
 699 0048 A400     		lslhi	r4, r4, #2
 700              		.loc 1 300 0
 701 004a F040     		lsrls	r0, r0, r6
 702              		.loc 1 302 0
 703 004c E040     		lsrhi	r0, r0, r4
 704 004e 00F00F00 		and	r0, r0, #15
 705 0052 43EAC010 		orr	r0, r3, r0, lsl #7
 706              	.LVL58:
 707              		.loc 1 305 0
 708 0056 F0BD     		pop	{r4, r5, r6, r7, pc}
 709              		.cfi_endproc
 710              	.LFE335:
 711              		.size	palReadLineMode, .-palReadLineMode
 712              		.section	.rodata.ndays,"a",%progbits
 713              		.set	.LANCHOR1,. + 0
 714              		.type	ndays, %object
 715              		.size	ndays, 24
 716              	ndays:
 717 0000 1F       		.byte	31
 718 0001 1C       		.byte	28
 719 0002 1F       		.byte	31
 720 0003 1E       		.byte	30
 721 0004 1F       		.byte	31
 722 0005 1E       		.byte	30
 723 0006 1F       		.byte	31
 724 0007 1F       		.byte	31
 725 0008 1E       		.byte	30
 726 0009 1F       		.byte	31
 727 000a 1E       		.byte	30
 728 000b 1F       		.byte	31
 729 000c 1F       		.byte	31
 730 000d 1D       		.byte	29
 731 000e 1F       		.byte	31
 732 000f 1E       		.byte	30
 733 0010 1F       		.byte	31
 734 0011 1E       		.byte	30
 735 0012 1F       		.byte	31
 736 0013 1F       		.byte	31
 737 0014 1E       		.byte	30
 738 0015 1F       		.byte	31
 739 0016 1E       		.byte	30
 740 0017 1F       		.byte	31
 741              		.section	.bss.utc_time_offset,"aw",%nobits
ARM GAS  /tmp/ccaiZisL.s 			page 14


 742              		.align	3
 743              		.set	.LANCHOR0,. + 0
 744              		.type	utc_time_offset, %object
 745              		.size	utc_time_offset, 8
 746              	utc_time_offset:
 747 0000 00000000 		.space	8
 747      00000000 
 748              		.text
 749              	.Letext0:
 750              		.file 2 "/opt/gcc-arm-none-eabi-4_9-2015q3/lib/gcc/arm-none-eabi/4.9.3/include/stddef.h"
 751              		.file 3 "/opt/gcc-arm-none-eabi-4_9-2015q3/arm-none-eabi/include/machine/_default_types.h"
 752              		.file 4 "/opt/gcc-arm-none-eabi-4_9-2015q3/arm-none-eabi/include/sys/_stdint.h"
 753              		.file 5 "../../modules/ChibiOS/os/common/ports/ARMCMx/compilers/GCC/chtypes.h"
 754              		.file 6 "../../modules/ChibiOS/os/rt/include/chsystypes.h"
 755              		.file 7 "../../modules/ChibiOS/os/rt/include/chschd.h"
 756              		.file 8 "../../modules/ChibiOS/os/rt/include/chtime.h"
 757              		.file 9 "../../modules/ChibiOS/os/common/ext/ST/STM32F4xx/stm32f427xx.h"
 758              		.file 10 "../../modules/ChibiOS/os/common/ports/ARMCMx/chcore.h"
 759              		.file 11 "../../modules/ChibiOS/os/common/ports/ARMCMx/chcore_v7m.h"
 760              		.file 12 "../../modules/ChibiOS/os/hal/ports/STM32/LLD/TIMv1/stm32_tim.h"
 761              		.file 13 "../../modules/ChibiOS/os/rt/include/chtm.h"
 762              		.file 14 "../../modules/ChibiOS/os/rt/include/chstats.h"
 763              		.file 15 "../../modules/ChibiOS/os/rt/include/chsem.h"
 764              		.file 16 "../../modules/ChibiOS/os/rt/include/chmtx.h"
 765              		.file 17 "../../modules/ChibiOS/os/hal/ports/STM32/LLD/GPIOv2/stm32_gpio.h"
 766              		.file 18 "../../modules/ChibiOS/os/hal/ports/STM32/LLD/GPIOv2/hal_pal_lld.h"
 767              		.file 19 "../../libraries/AP_HAL_ChibiOS/hwdef/common/stm32_util.h"
 768              		.file 20 "../../modules/ChibiOS/os/common/ext/ARM/CMSIS/Core/Include/core_cm4.h"
 769              		.file 21 "../../libraries/AP_HAL_ChibiOS/hwdef/common/hrt.h"
 770              		.file 22 "../../modules/ChibiOS/os/rt/include/chthreads.h"