ARM GAS  /tmp/ccaiZisL.s 			page 1


   1              		.syntax unified
   2              		.cpu cortex-m4
   3              		.eabi_attribute 27, 1
   4              		.eabi_attribute 28, 1
   5              		.fpu fpv4-sp-d16
   6              		.eabi_attribute 20, 1
   7              		.eabi_attribute 21, 1
   8              		.eabi_attribute 23, 3
   9              		.eabi_attribute 24, 1
  10              		.eabi_attribute 25, 1
  11              		.eabi_attribute 26, 1
  12              		.eabi_attribute 30, 4
  13              		.eabi_attribute 34, 1
  14              		.eabi_attribute 18, 4
  15              		.thumb
  16              		.file	"stm32_util.c"
  17              		.text
  18              	.Ltext0:
  19              		.cfi_sections	.debug_frame
  20              		.section	.text.stm32_timer_set_input_filter,"ax",%progbits
  21              		.align	1
  22              		.global	stm32_timer_set_input_filter
  23              		.thumb
  24              		.thumb_func
  25              		.type	stm32_timer_set_input_filter, %function
  26              	stm32_timer_set_input_filter:
  27              	.LFB323:
  28              		.file 1 "../../libraries/AP_HAL_ChibiOS/hwdef/common/stm32_util.c"
  29              		.loc 1 29 0
  30              		.cfi_startproc
  31              		@ args = 0, pretend = 0, frame = 0
  32              		@ frame_needed = 0, uses_anonymous_args = 0
  33              		@ link register save eliminated.
  34              	.LVL0:
  35              		.loc 1 30 0
  36 0000 0329     		cmp	r1, #3
  37 0002 14D8     		bhi	.L1
  38 0004 DFE801F0 		tbb	[pc, r1]
  39              	.L4:
  40 0008 02       		.byte	(.L3-.L4)/2
  41 0009 06       		.byte	(.L5-.L4)/2
  42 000a 0B       		.byte	(.L6-.L4)/2
  43 000b 0F       		.byte	(.L7-.L4)/2
  44              		.p2align 1
  45              	.L3:
  46              		.loc 1 32 0
  47 000c 8369     		ldr	r3, [r0, #24]
  48 000e 43EA0212 		orr	r2, r3, r2, lsl #4
  49              	.LVL1:
  50 0012 02E0     		b	.L8
  51              	.LVL2:
  52              	.L5:
  53              		.loc 1 35 0
  54 0014 8369     		ldr	r3, [r0, #24]
  55 0016 43EA0232 		orr	r2, r3, r2, lsl #12
  56              	.LVL3:
  57              	.L8:
ARM GAS  /tmp/ccaiZisL.s 			page 2


  58 001a 8261     		str	r2, [r0, #24]
  59              		.loc 1 36 0
  60 001c 7047     		bx	lr
  61              	.LVL4:
  62              	.L6:
  63              		.loc 1 38 0
  64 001e C369     		ldr	r3, [r0, #28]
  65 0020 43EA0212 		orr	r2, r3, r2, lsl #4
  66              	.LVL5:
  67 0024 02E0     		b	.L9
  68              	.LVL6:
  69              	.L7:
  70              		.loc 1 41 0
  71 0026 C369     		ldr	r3, [r0, #28]
  72 0028 43EA0232 		orr	r2, r3, r2, lsl #12
  73              	.LVL7:
  74              	.L9:
  75 002c C261     		str	r2, [r0, #28]
  76              	.L1:
  77 002e 7047     		bx	lr
  78              		.cfi_endproc
  79              	.LFE323:
  80              		.size	stm32_timer_set_input_filter, .-stm32_timer_set_input_filter
  81              		.section	.text.stm32_timer_set_channel_input,"ax",%progbits
  82              		.align	1
  83              		.global	stm32_timer_set_channel_input
  84              		.thumb
  85              		.thumb_func
  86              		.type	stm32_timer_set_channel_input, %function
  87              	stm32_timer_set_channel_input:
  88              	.LFB324:
  89              		.loc 1 50 0
  90              		.cfi_startproc
  91              		@ args = 0, pretend = 0, frame = 0
  92              		@ frame_needed = 0, uses_anonymous_args = 0
  93              		@ link register save eliminated.
  94              	.LVL8:
  95              		.loc 1 51 0
  96 0000 0329     		cmp	r1, #3
  97 0002 41D8     		bhi	.L11
  98 0004 DFE801F0 		tbb	[pc, r1]
  99              	.L14:
 100 0008 02       		.byte	(.L13-.L14)/2
 101 0009 11       		.byte	(.L15-.L14)/2
 102 000a 21       		.byte	(.L16-.L14)/2
 103 000b 30       		.byte	(.L17-.L14)/2
 104              		.p2align 1
 105              	.L13:
 106              		.loc 1 53 0
 107 000c 036A     		ldr	r3, [r0, #32]
 108 000e 23F00103 		bic	r3, r3, #1
 109 0012 0362     		str	r3, [r0, #32]
 110              		.loc 1 54 0
 111 0014 8369     		ldr	r3, [r0, #24]
 112 0016 23F00303 		bic	r3, r3, #3
 113 001a 8361     		str	r3, [r0, #24]
 114              		.loc 1 55 0
ARM GAS  /tmp/ccaiZisL.s 			page 3


 115 001c 8369     		ldr	r3, [r0, #24]
 116 001e 1A43     		orrs	r2, r2, r3
 117              	.LVL9:
 118 0020 8261     		str	r2, [r0, #24]
 119              		.loc 1 56 0
 120 0022 036A     		ldr	r3, [r0, #32]
 121 0024 43F00103 		orr	r3, r3, #1
 122 0028 2DE0     		b	.L18
 123              	.LVL10:
 124              	.L15:
 125              		.loc 1 59 0
 126 002a 036A     		ldr	r3, [r0, #32]
 127 002c 23F01003 		bic	r3, r3, #16
 128 0030 0362     		str	r3, [r0, #32]
 129              		.loc 1 60 0
 130 0032 8369     		ldr	r3, [r0, #24]
 131 0034 23F44073 		bic	r3, r3, #768
 132 0038 8361     		str	r3, [r0, #24]
 133              		.loc 1 61 0
 134 003a 8369     		ldr	r3, [r0, #24]
 135 003c 43EA0222 		orr	r2, r3, r2, lsl #8
 136              	.LVL11:
 137 0040 8261     		str	r2, [r0, #24]
 138              		.loc 1 62 0
 139 0042 036A     		ldr	r3, [r0, #32]
 140 0044 43F01003 		orr	r3, r3, #16
 141 0048 1DE0     		b	.L18
 142              	.LVL12:
 143              	.L16:
 144              		.loc 1 65 0
 145 004a 036A     		ldr	r3, [r0, #32]
 146 004c 23F48073 		bic	r3, r3, #256
 147 0050 0362     		str	r3, [r0, #32]
 148              		.loc 1 66 0
 149 0052 C369     		ldr	r3, [r0, #28]
 150 0054 23F00303 		bic	r3, r3, #3
 151 0058 C361     		str	r3, [r0, #28]
 152              		.loc 1 67 0
 153 005a C369     		ldr	r3, [r0, #28]
 154 005c 1A43     		orrs	r2, r2, r3
 155              	.LVL13:
 156 005e C261     		str	r2, [r0, #28]
 157              		.loc 1 68 0
 158 0060 036A     		ldr	r3, [r0, #32]
 159 0062 43F48073 		orr	r3, r3, #256
 160 0066 0EE0     		b	.L18
 161              	.LVL14:
 162              	.L17:
 163              		.loc 1 71 0
 164 0068 036A     		ldr	r3, [r0, #32]
 165 006a 23F48053 		bic	r3, r3, #4096
 166 006e 0362     		str	r3, [r0, #32]
 167              		.loc 1 72 0
 168 0070 C369     		ldr	r3, [r0, #28]
 169 0072 23F44073 		bic	r3, r3, #768
 170 0076 C361     		str	r3, [r0, #28]
 171              		.loc 1 73 0
ARM GAS  /tmp/ccaiZisL.s 			page 4


 172 0078 C369     		ldr	r3, [r0, #28]
 173 007a 43EA0222 		orr	r2, r3, r2, lsl #8
 174              	.LVL15:
 175 007e C261     		str	r2, [r0, #28]
 176              		.loc 1 74 0
 177 0080 036A     		ldr	r3, [r0, #32]
 178 0082 43F48053 		orr	r3, r3, #4096
 179              	.L18:
 180 0086 0362     		str	r3, [r0, #32]
 181              	.L11:
 182 0088 7047     		bx	lr
 183              		.cfi_endproc
 184              	.LFE324:
 185              		.size	stm32_timer_set_channel_input, .-stm32_timer_set_channel_input
 186              		.section	.text.stm32_set_utc_usec,"ax",%progbits
 187              		.align	1
 188              		.global	stm32_set_utc_usec
 189              		.thumb
 190              		.thumb_func
 191              		.type	stm32_set_utc_usec, %function
 192              	stm32_set_utc_usec:
 193              	.LFB325:
 194              		.loc 1 102 0
 195              		.cfi_startproc
 196              		@ args = 0, pretend = 0, frame = 0
 197              		@ frame_needed = 0, uses_anonymous_args = 0
 198              	.LVL16:
 199 0000 38B5     		push	{r3, r4, r5, lr}
 200              		.cfi_def_cfa_offset 16
 201              		.cfi_offset 3, -16
 202              		.cfi_offset 4, -12
 203              		.cfi_offset 5, -8
 204              		.cfi_offset 14, -4
 205              		.loc 1 102 0
 206 0002 0446     		mov	r4, r0
 207 0004 0D46     		mov	r5, r1
 208              		.loc 1 103 0
 209 0006 FFF7FEFF 		bl	hrt_micros64
 210              	.LVL17:
 211              		.loc 1 104 0
 212 000a 8D42     		cmp	r5, r1
 213 000c 08BF     		it	eq
 214 000e 8442     		cmpeq	r4, r0
 215 0010 05D3     		bcc	.L19
 216              		.loc 1 105 0
 217 0012 241A     		subs	r4, r4, r0
 218 0014 024B     		ldr	r3, .L21
 219 0016 65EB0105 		sbc	r5, r5, r1
 220 001a C3E90045 		strd	r4, [r3]
 221              	.L19:
 222 001e 38BD     		pop	{r3, r4, r5, pc}
 223              	.L22:
 224              		.align	2
 225              	.L21:
 226 0020 00000000 		.word	.LANCHOR0
 227              		.cfi_endproc
 228              	.LFE325:
ARM GAS  /tmp/ccaiZisL.s 			page 5


 229              		.size	stm32_set_utc_usec, .-stm32_set_utc_usec
 230              		.section	.text.stm32_get_utc_usec,"ax",%progbits
 231              		.align	1
 232              		.global	stm32_get_utc_usec
 233              		.thumb
 234              		.thumb_func
 235              		.type	stm32_get_utc_usec, %function
 236              	stm32_get_utc_usec:
 237              	.LFB326:
 238              		.loc 1 113 0
 239              		.cfi_startproc
 240              		@ args = 0, pretend = 0, frame = 0
 241              		@ frame_needed = 0, uses_anonymous_args = 0
 242 0000 08B5     		push	{r3, lr}
 243              		.cfi_def_cfa_offset 8
 244              		.cfi_offset 3, -8
 245              		.cfi_offset 14, -4
 246              		.loc 1 114 0
 247 0002 FFF7FEFF 		bl	hrt_micros64
 248              	.LVL18:
 249 0006 034B     		ldr	r3, .L24
 250 0008 D3E90023 		ldrd	r2, [r3]
 251              		.loc 1 115 0
 252 000c 8018     		adds	r0, r0, r2
 253 000e 5941     		adcs	r1, r1, r3
 254 0010 08BD     		pop	{r3, pc}
 255              	.L25:
 256 0012 00BF     		.align	2
 257              	.L24:
 258 0014 00000000 		.word	.LANCHOR0
 259              		.cfi_endproc
 260              	.LFE326:
 261              		.size	stm32_get_utc_usec, .-stm32_get_utc_usec
 262              		.global	__aeabi_uldivmod
 263              		.section	.text.get_fattime,"ax",%progbits
 264              		.align	1
 265              		.global	get_fattime
 266              		.thumb
 267              		.thumb_func
 268              		.type	get_fattime, %function
 269              	get_fattime:
 270              	.LFB329:
 271              		.loc 1 189 0
 272              		.cfi_startproc
 273              		@ args = 0, pretend = 0, frame = 8
 274              		@ frame_needed = 0, uses_anonymous_args = 0
 275              		.loc 1 190 0
 276 0000 484B     		ldr	r3, .L38
 277              		.loc 1 189 0
 278 0002 2DE9F743 		push	{r0, r1, r2, r4, r5, r6, r7, r8, r9, lr}
 279              		.cfi_def_cfa_offset 40
 280              		.cfi_offset 4, -28
 281              		.cfi_offset 5, -24
 282              		.cfi_offset 6, -20
 283              		.cfi_offset 7, -16
 284              		.cfi_offset 8, -12
 285              		.cfi_offset 9, -8
ARM GAS  /tmp/ccaiZisL.s 			page 6


 286              		.cfi_offset 14, -4
 287              		.loc 1 190 0
 288 0006 D3E90023 		ldrd	r2, [r3]
 289 000a 1343     		orrs	r3, r2, r3
 290 000c 00F08580 		beq	.L34
 291              		.loc 1 194 0
 292 0010 FFF7FEFF 		bl	stm32_get_utc_usec
 293              	.LVL19:
 294              		.loc 1 195 0
 295 0014 444A     		ldr	r2, .L38+4
 296              	.LBB13:
 297              	.LBB14:
 298              		.loc 1 156 0
 299 0016 DFF81C81 		ldr	r8, .L38+16
 300              	.LBE14:
 301              	.LBE13:
 302              		.loc 1 195 0
 303 001a 0023     		movs	r3, #0
 304 001c FFF7FEFF 		bl	__aeabi_uldivmod
 305              	.LVL20:
 306              	.LBB23:
 307              	.LBB21:
 308              		.loc 1 146 0
 309 0020 424A     		ldr	r2, .L38+8
 310 0022 0023     		movs	r3, #0
 311              	.LBE21:
 312              	.LBE23:
 313              		.loc 1 195 0
 314 0024 0646     		mov	r6, r0
 315 0026 0F46     		mov	r7, r1
 316              	.LVL21:
 317              	.LBB24:
 318              	.LBB22:
 319              		.loc 1 146 0
 320 0028 FFF7FEFF 		bl	__aeabi_uldivmod
 321              	.LVL22:
 322              		.loc 1 147 0
 323 002c 3046     		mov	r0, r6
 324              		.loc 1 146 0
 325 002e 1446     		mov	r4, r2
 326              	.LVL23:
 327              		.loc 1 147 0
 328 0030 3946     		mov	r1, r7
 329 0032 3E4A     		ldr	r2, .L38+8
 330              	.LVL24:
 331 0034 0023     		movs	r3, #0
 332 0036 FFF7FEFF 		bl	__aeabi_uldivmod
 333              	.LVL25:
 334              		.loc 1 151 0
 335 003a 3C22     		movs	r2, #60
 336              		.loc 1 149 0
 337 003c 0023     		movs	r3, #0
 338 003e 0093     		str	r3, [sp]
 339              		.loc 1 156 0
 340 0040 4FF00009 		mov	r9, #0
 341              		.loc 1 151 0
 342 0044 B4FBF2F3 		udiv	r3, r4, r2
ARM GAS  /tmp/ccaiZisL.s 			page 7


 343 0048 02FB1343 		mls	r3, r2, r3, r4
 344 004c DEB2     		uxtb	r6, r3
 345              	.LVL26:
 346              		.loc 1 156 0
 347 004e 8945     		cmp	r9, r1
 348              		.loc 1 152 0
 349 0050 4FF46163 		mov	r3, #3600
 350              		.loc 1 156 0
 351 0054 08BF     		it	eq
 352 0056 8045     		cmpeq	r8, r0
 353              		.loc 1 152 0
 354 0058 B4FBF3F7 		udiv	r7, r4, r3
 355 005c 03FB1743 		mls	r3, r3, r7, r4
 356              		.loc 1 154 0
 357 0060 4FF04604 		mov	r4, #70
 358              	.LVL27:
 359              		.loc 1 152 0
 360 0064 B3FBF2F2 		udiv	r2, r3, r2
 361              		.loc 1 154 0
 362 0068 8DF80040 		strb	r4, [sp]
 363              		.loc 1 156 0
 364 006c 41D3     		bcc	.L28
 365              		.loc 1 147 0
 366 006e 0146     		mov	r1, r0
 367              	.LVL28:
 368              	.L32:
 369              	.LBB15:
 370              	.LBB16:
 371              	.LBB17:
 372              		.loc 1 132 0
 373 0070 04F26C73 		addw	r3, r4, #1900
 374              	.LVL29:
 375              		.loc 1 133 0
 376 0074 9807     		lsls	r0, r3, #30
 377 0076 16D1     		bne	.L35
 378 0078 6425     		movs	r5, #100
 379 007a B3FBF5F0 		udiv	r0, r3, r5
 380 007e 05FB1030 		mls	r0, r5, r0, r3
 381 0082 A8B9     		cbnz	r0, .L36
 382 0084 4FF4C875 		mov	r5, #400
 383 0088 B3FBF5F0 		udiv	r0, r3, r5
 384 008c 05FB1033 		mls	r3, r5, r0, r3
 385              	.LVL30:
 386 0090 002B     		cmp	r3, #0
 387 0092 40F26D15 		movw	r5, #365
 388 0096 12BF     		itee	ne
 389 0098 4FF0000E 		movne	lr, #0
 390 009c 4FF0010E 		moveq	lr, #1
 391 00a0 4FF4B775 		moveq	r5, #366
 392 00a4 08E0     		b	.L29
 393              	.LVL31:
 394              	.L35:
 395 00a6 4FF0000E 		mov	lr, #0
 396              	.LBE17:
 397              	.LBE16:
 398              		.loc 1 162 0
 399 00aa 40F26D15 		movw	r5, #365
ARM GAS  /tmp/ccaiZisL.s 			page 8


 400 00ae 03E0     		b	.L29
 401              	.L36:
 402              	.LBB19:
 403              	.LBB18:
 404              		.loc 1 133 0
 405 00b0 4FF0010E 		mov	lr, #1
 406              	.LBE18:
 407              	.LBE19:
 408              		.loc 1 162 0
 409 00b4 4FF4B775 		mov	r5, #366
 410              	.LVL32:
 411              	.L29:
 412 00b8 631C     		adds	r3, r4, #1
 413              		.loc 1 163 0
 414 00ba A942     		cmp	r1, r5
 415 00bc DBB2     		uxtb	r3, r3
 416 00be 04D2     		bcs	.L30
 417 00c0 8DF80040 		strb	r4, [sp]
 418 00c4 9DF80130 		ldrb	r3, [sp, #1]	@ zero_extendqisi2
 419 00c8 02E0     		b	.L31
 420              	.L30:
 421              		.loc 1 167 0
 422 00ca 491B     		subs	r1, r1, r5
 423              	.LVL33:
 424 00cc 1C46     		mov	r4, r3
 425              	.LVL34:
 426 00ce CFE7     		b	.L32
 427              	.L31:
 428              	.LBE15:
 429              	.LBB20:
 430              		.loc 1 172 0
 431 00d0 0C20     		movs	r0, #12
 432 00d2 00FB0E30 		mla	r0, r0, lr, r3
 433 00d6 164C     		ldr	r4, .L38+12
 434 00d8 245C     		ldrb	r4, [r4, r0]	@ zero_extendqisi2
 435              	.LVL35:
 436 00da 581C     		adds	r0, r3, #1
 437              		.loc 1 173 0
 438 00dc A142     		cmp	r1, r4
 439 00de C0B2     		uxtb	r0, r0
 440 00e0 02D3     		bcc	.L33
 441              		.loc 1 176 0
 442 00e2 091B     		subs	r1, r1, r4
 443              	.LVL36:
 444 00e4 0346     		mov	r3, r0
 445 00e6 F3E7     		b	.L31
 446              	.L33:
 447              	.LBE20:
 448              		.loc 1 179 0
 449 00e8 0131     		adds	r1, r1, #1
 450              	.LVL37:
 451 00ea 8DF80130 		strb	r3, [sp, #1]
 452 00ee 8DF80210 		strb	r1, [sp, #2]
 453              	.LVL38:
 454              	.L28:
 455              	.LBE22:
 456              	.LBE24:
ARM GAS  /tmp/ccaiZisL.s 			page 9


 457              		.loc 1 206 0
 458 00f2 9DF80110 		ldrb	r1, [sp, #1]	@ zero_extendqisi2
 459 00f6 4B1C     		adds	r3, r1, #1
 460              		.loc 1 207 0
 461 00f8 9DF80010 		ldrb	r1, [sp]	@ zero_extendqisi2
 462 00fc 5039     		subs	r1, r1, #80
 463 00fe 4906     		lsls	r1, r1, #25
 464 0100 41EA4351 		orr	r1, r1, r3, lsl #21
 465              		.loc 1 205 0
 466 0104 9DF80230 		ldrb	r3, [sp, #2]	@ zero_extendqisi2
 467 0108 41EA0341 		orr	r1, r1, r3, lsl #16
 468 010c 41EA5603 		orr	r3, r1, r6, lsr #1
 469 0110 43EAC723 		orr	r3, r3, r7, lsl #11
 470              		.loc 1 207 0
 471 0114 43EA4210 		orr	r0, r3, r2, lsl #5
 472              	.LVL39:
 473              		.loc 1 209 0
 474 0118 01E0     		b	.L27
 475              	.LVL40:
 476              	.L34:
 477              		.loc 1 192 0
 478 011a 4FF40410 		mov	r0, #2162688
 479              	.L27:
 480              		.loc 1 210 0
 481 011e 03B0     		add	sp, sp, #12
 482              		.cfi_def_cfa_offset 28
 483              		@ sp needed
 484 0120 BDE8F083 		pop	{r4, r5, r6, r7, r8, r9, pc}
 485              	.L39:
 486              		.align	2
 487              	.L38:
 488 0124 00000000 		.word	.LANCHOR0
 489 0128 40420F00 		.word	1000000
 490 012c 80510100 		.word	86400
 491 0130 00000000 		.word	.LANCHOR1
 492 0134 90230B00 		.word	730000
 493              		.cfi_endproc
 494              	.LFE329:
 495              		.size	get_fattime, .-get_fattime
 496              		.section	.text.check_fast_reboot,"ax",%progbits
 497              		.align	1
 498              		.global	check_fast_reboot
 499              		.thumb
 500              		.thumb_func
 501              		.type	check_fast_reboot, %function
 502              	check_fast_reboot:
 503              	.LFB332:
 504              		.loc 1 236 0
 505              		.cfi_startproc
 506              		@ args = 0, pretend = 0, frame = 0
 507              		@ frame_needed = 0, uses_anonymous_args = 0
 508              		@ link register save eliminated.
 509              	.LBB25:
 510              	.LBB26:
 511              		.loc 1 216 0
 512 0000 014B     		ldr	r3, .L41
 513 0002 186D     		ldr	r0, [r3, #80]
ARM GAS  /tmp/ccaiZisL.s 			page 10


 514              	.LBE26:
 515              	.LBE25:
 516              		.loc 1 238 0
 517 0004 7047     		bx	lr
 518              	.L42:
 519 0006 00BF     		.align	2
 520              	.L41:
 521 0008 00280040 		.word	1073752064
 522              		.cfi_endproc
 523              	.LFE332:
 524              		.size	check_fast_reboot, .-check_fast_reboot
 525              		.section	.text.set_fast_reboot,"ax",%progbits
 526              		.align	1
 527              		.global	set_fast_reboot
 528              		.thumb
 529              		.thumb_func
 530              		.type	set_fast_reboot, %function
 531              	set_fast_reboot:
 532              	.LFB333:
 533              		.loc 1 242 0
 534              		.cfi_startproc
 535              		@ args = 0, pretend = 0, frame = 0
 536              		@ frame_needed = 0, uses_anonymous_args = 0
 537              		@ link register save eliminated.
 538              	.LVL41:
 539              	.LBB29:
 540              	.LBB30:
 541              		.loc 1 222 0
 542 0000 0A4B     		ldr	r3, .L45
 543 0002 1A6F     		ldr	r2, [r3, #112]
 544 0004 1204     		lsls	r2, r2, #16
 545              		.loc 1 223 0
 546 0006 5FBF     		itttt	pl
 547 0008 1A6F     		ldrpl	r2, [r3, #112]
 548 000a 42F40072 		orrpl	r2, r2, #512
 549 000e 1A67     		strpl	r2, [r3, #112]
 550              		.loc 1 224 0
 551 0010 1A6F     		ldrpl	r2, [r3, #112]
 552 0012 5CBF     		itt	pl
 553 0014 42F40042 		orrpl	r2, r2, #32768
 554 0018 1A67     		strpl	r2, [r3, #112]
 555              		.loc 1 227 0
 556 001a 054A     		ldr	r2, .L45+4
 557 001c 1368     		ldr	r3, [r2]
 558 001e 43F48073 		orr	r3, r3, #256
 559 0022 1360     		str	r3, [r2]
 560              		.loc 1 231 0
 561 0024 034B     		ldr	r3, .L45+8
 562 0026 1865     		str	r0, [r3, #80]
 563 0028 7047     		bx	lr
 564              	.L46:
 565 002a 00BF     		.align	2
 566              	.L45:
 567 002c 00380240 		.word	1073887232
 568 0030 00700040 		.word	1073770496
 569 0034 00280040 		.word	1073752064
 570              	.LBE30:
ARM GAS  /tmp/ccaiZisL.s 			page 11


 571              	.LBE29:
 572              		.cfi_endproc
 573              	.LFE333:
 574              		.size	set_fast_reboot, .-set_fast_reboot
 575              		.section	.text.peripheral_power_enable,"ax",%progbits
 576              		.align	1
 577              		.global	peripheral_power_enable
 578              		.thumb
 579              		.thumb_func
 580              		.type	peripheral_power_enable, %function
 581              	peripheral_power_enable:
 582              	.LFB334:
 583              		.loc 1 254 0
 584              		.cfi_startproc
 585              		@ args = 0, pretend = 0, frame = 0
 586              		@ frame_needed = 0, uses_anonymous_args = 0
 587              	.LVL42:
 588 0000 10B5     		push	{r4, lr}
 589              		.cfi_def_cfa_offset 8
 590              		.cfi_offset 4, -8
 591              		.cfi_offset 14, -4
 592              		.loc 1 254 0
 593 0002 6424     		movs	r4, #100
 594              	.LVL43:
 595              	.L48:
 596              		.loc 1 262 0 discriminator 3
 597 0004 4FF47A70 		mov	r0, #1000
 598 0008 013C     		subs	r4, r4, #1
 599              	.LVL44:
 600 000a FFF7FEFF 		bl	chThdSleep
 601              	.LVL45:
 602              		.loc 1 260 0 discriminator 3
 603 000e 14F0FF04 		ands	r4, r4, #255
 604 0012 F7D1     		bne	.L48
 605              	.LVL46:
 606              	.LBB31:
 607              		.loc 1 272 0
 608 0014 014B     		ldr	r3, .L50
 609 0016 0822     		movs	r2, #8
 610 0018 9A61     		str	r2, [r3, #24]
 611 001a 10BD     		pop	{r4, pc}
 612              	.L51:
 613              		.align	2
 614              	.L50:
 615 001c 00100240 		.word	1073876992
 616              	.LBE31:
 617              		.cfi_endproc
 618              	.LFE334:
 619              		.size	peripheral_power_enable, .-peripheral_power_enable
 620              		.section	.text.palReadLineMode,"ax",%progbits
 621              		.align	1
 622              		.global	palReadLineMode
 623              		.thumb
 624              		.thumb_func
 625              		.type	palReadLineMode, %function
 626              	palReadLineMode:
 627              	.LFB335:
ARM GAS  /tmp/ccaiZisL.s 			page 12


 628              		.loc 1 291 0
 629              		.cfi_startproc
 630              		@ args = 0, pretend = 0, frame = 0
 631              		@ frame_needed = 0, uses_anonymous_args = 0
 632              	.LVL47:
 633 0000 F0B5     		push	{r4, r5, r6, r7, lr}
 634              		.cfi_def_cfa_offset 20
 635              		.cfi_offset 4, -20
 636              		.cfi_offset 5, -16
 637              		.cfi_offset 6, -12
 638              		.cfi_offset 7, -8
 639              		.cfi_offset 14, -4
 640              		.loc 1 292 0
 641 0002 20F00F05 		bic	r5, r0, #15
 642              	.LVL48:
 643              		.loc 1 293 0
 644 0006 00F00F04 		and	r4, r0, #15
 645              	.LVL49:
 646              		.loc 1 295 0
 647 000a 2B68     		ldr	r3, [r5]
 648              		.loc 1 296 0
 649 000c 6A68     		ldr	r2, [r5, #4]
 650              		.loc 1 295 0
 651 000e 26B2     		sxth	r6, r4
 652 0010 7700     		lsls	r7, r6, #1
 653              	.LVL50:
 654              		.loc 1 296 0
 655 0012 E240     		lsrs	r2, r2, r4
 656              		.loc 1 295 0
 657 0014 FB40     		lsrs	r3, r3, r7
 658              	.LVL51:
 659              		.loc 1 296 0
 660 0016 02F00102 		and	r2, r2, #1
 661              		.loc 1 295 0
 662 001a 03F00303 		and	r3, r3, #3
 663              	.LVL52:
 664              		.loc 1 296 0
 665 001e 43EA8201 		orr	r1, r3, r2, lsl #2
 666              	.LVL53:
 667              		.loc 1 297 0
 668 0022 AB68     		ldr	r3, [r5, #8]
 669              		.loc 1 298 0
 670 0024 E868     		ldr	r0, [r5, #12]
 671              	.LVL54:
 672              		.loc 1 297 0
 673 0026 FB40     		lsrs	r3, r3, r7
 674 0028 03F00303 		and	r3, r3, #3
 675              		.loc 1 298 0
 676 002c F840     		lsrs	r0, r0, r7
 677              		.loc 1 299 0
 678 002e 072C     		cmp	r4, #7
 679              		.loc 1 298 0
 680 0030 00F00300 		and	r0, r0, #3
 681              		.loc 1 297 0
 682 0034 41EAC302 		orr	r2, r1, r3, lsl #3
 683              	.LVL55:
 684              		.loc 1 298 0
ARM GAS  /tmp/ccaiZisL.s 			page 13


 685 0038 42EA4013 		orr	r3, r2, r0, lsl #5
 686              	.LVL56:
 687              		.loc 1 302 0
 688 003c 8BBF     		itete	hi
 689 003e 083C     		subhi	r4, r4, #8
 690              	.LVL57:
 691              		.loc 1 300 0
 692 0040 286A     		ldrls	r0, [r5, #32]
 693              		.loc 1 302 0
 694 0042 686A     		ldrhi	r0, [r5, #36]
 695              		.loc 1 300 0
 696 0044 B600     		lslls	r6, r6, #2
 697              		.loc 1 302 0
 698 0046 8ABF     		itet	hi
 699 0048 A400     		lslhi	r4, r4, #2
 700              		.loc 1 300 0
 701 004a F040     		lsrls	r0, r0, r6
 702              		.loc 1 302 0
 703 004c E040     		lsrhi	r0, r0, r4
 704 004e 00F00F00 		and	r0, r0, #15
 705 0052 43EAC010 		orr	r0, r3, r0, lsl #7
 706              	.LVL58:
 707              		.loc 1 305 0
 708 0056 F0BD     		pop	{r4, r5, r6, r7, pc}
 709              		.cfi_endproc
 710              	.LFE335:
 711              		.size	palReadLineMode, .-palReadLineMode
 712              		.section	.rodata.ndays,"a",%progbits
 713              		.set	.LANCHOR1,. + 0
 714              		.type	ndays, %object
 715              		.size	ndays, 24
 716              	ndays:
 717 0000 1F       		.byte	31
 718 0001 1C       		.byte	28
 719 0002 1F       		.byte	31
 720 0003 1E       		.byte	30
 721 0004 1F       		.byte	31
 722 0005 1E       		.byte	30
 723 0006 1F       		.byte	31
 724 0007 1F       		.byte	31
 725 0008 1E       		.byte	30
 726 0009 1F       		.byte	31
 727 000a 1E       		.byte	30
 728 000b 1F       		.byte	31
 729 000c 1F       		.byte	31
 730 000d 1D       		.byte	29
 731 000e 1F       		.byte	31
 732 000f 1E       		.byte	30
 733 0010 1F       		.byte	31
 734 0011 1E       		.byte	30
 735 0012 1F       		.byte	31
 736 0013 1F       		.byte	31
 737 0014 1E       		.byte	30
 738 0015 1F       		.byte	31
 739 0016 1E       		.byte	30
 740 0017 1F       		.byte	31
 741              		.section	.bss.utc_time_offset,"aw",%nobits
ARM GAS  /tmp/ccaiZisL.s 			page 14


 742              		.align	3
 743              		.set	.LANCHOR0,. + 0
 744              		.type	utc_time_offset, %object
 745              		.size	utc_time_offset, 8
 746              	utc_time_offset:
 747 0000 00000000 		.space	8
 747      00000000 
 748              		.text
 749              	.Letext0:
 750              		.file 2 "/opt/gcc-arm-none-eabi-4_9-2015q3/lib/gcc/arm-none-eabi/4.9.3/include/stddef.h"
 751              		.file 3 "/opt/gcc-arm-none-eabi-4_9-2015q3/arm-none-eabi/include/machine/_default_types.h"
 752              		.file 4 "/opt/gcc-arm-none-eabi-4_9-2015q3/arm-none-eabi/include/sys/_stdint.h"
 753              		.file 5 "../../modules/ChibiOS/os/common/ports/ARMCMx/compilers/GCC/chtypes.h"
 754              		.file 6 "../../modules/ChibiOS/os/rt/include/chsystypes.h"
 755              		.file 7 "../../modules/ChibiOS/os/rt/include/chschd.h"
 756              		.file 8 "../../modules/ChibiOS/os/rt/include/chtime.h"
 757              		.file 9 "../../modules/ChibiOS/os/common/ext/ST/STM32F4xx/stm32f427xx.h"
 758              		.file 10 "../../modules/ChibiOS/os/common/ports/ARMCMx/chcore.h"
 759              		.file 11 "../../modules/ChibiOS/os/common/ports/ARMCMx/chcore_v7m.h"
 760              		.file 12 "../../modules/ChibiOS/os/hal/ports/STM32/LLD/TIMv1/stm32_tim.h"
 761              		.file 13 "../../modules/ChibiOS/os/rt/include/chtm.h"
 762              		.file 14 "../../modules/ChibiOS/os/rt/include/chstats.h"
 763              		.file 15 "../../modules/ChibiOS/os/rt/include/chsem.h"
 764              		.file 16 "../../modules/ChibiOS/os/rt/include/chmtx.h"
 765              		.file 17 "../../modules/ChibiOS/os/hal/ports/STM32/LLD/GPIOv2/stm32_gpio.h"
 766              		.file 18 "../../modules/ChibiOS/os/hal/ports/STM32/LLD/GPIOv2/hal_pal_lld.h"
 767              		.file 19 "../../libraries/AP_HAL_ChibiOS/hwdef/common/stm32_util.h"
 768              		.file 20 "../../modules/ChibiOS/os/common/ext/ARM/CMSIS/Core/Include/core_cm4.h"
 769              		.file 21 "../../libraries/AP_HAL_ChibiOS/hwdef/common/hrt.h"
 770              		.file 22 "../../modules/ChibiOS/os/rt/include/chthreads.h"
 771              		.section	.debug_info,"",%progbits
 772              	.Ldebug_info0:
 773 0000 BA120000 		.4byte	0x12ba
 774 0004 0400     		.2byte	0x4
 775 0006 00000000 		.4byte	.Ldebug_abbrev0
 776 000a 04       		.byte	0x4
 777 000b 01       		.uleb128 0x1
 778 000c 1A060000 		.4byte	.LASF243
 779 0010 01       		.byte	0x1
 780 0011 4F010000 		.4byte	.LASF244
 781 0015 5C070000 		.4byte	.LASF245
 782 0019 38000000 		.4byte	.Ldebug_ranges0+0x38
 783 001d 00000000 		.4byte	0
 784 0021 00000000 		.4byte	.Ldebug_line0
 785 0025 02       		.uleb128 0x2
 786 0026 08       		.byte	0x8
 787 0027 07       		.byte	0x7
 788 0028 55020000 		.4byte	.LASF0
 789 002c 03       		.uleb128 0x3
 790 002d 04       		.byte	0x4
 791 002e 05       		.byte	0x5
 792 002f 696E7400 		.ascii	"int\000"
 793 0033 04       		.uleb128 0x4
 794 0034 88030000 		.4byte	.LASF3
 795 0038 02       		.byte	0x2
 796 0039 D4       		.byte	0xd4
 797 003a 3E000000 		.4byte	0x3e
ARM GAS  /tmp/ccaiZisL.s 			page 15


 798 003e 02       		.uleb128 0x2
 799 003f 04       		.byte	0x4
 800 0040 07       		.byte	0x7
 801 0041 A0000000 		.4byte	.LASF1
 802 0045 02       		.uleb128 0x2
 803 0046 01       		.byte	0x1
 804 0047 06       		.byte	0x6
 805 0048 150A0000 		.4byte	.LASF2
 806 004c 04       		.uleb128 0x4
 807 004d 74080000 		.4byte	.LASF4
 808 0051 03       		.byte	0x3
 809 0052 1D       		.byte	0x1d
 810 0053 57000000 		.4byte	0x57
 811 0057 02       		.uleb128 0x2
 812 0058 01       		.byte	0x1
 813 0059 08       		.byte	0x8
 814 005a 33090000 		.4byte	.LASF5
 815 005e 02       		.uleb128 0x2
 816 005f 02       		.byte	0x2
 817 0060 05       		.byte	0x5
 818 0061 2E010000 		.4byte	.LASF6
 819 0065 04       		.uleb128 0x4
 820 0066 D6020000 		.4byte	.LASF7
 821 006a 03       		.byte	0x3
 822 006b 2B       		.byte	0x2b
 823 006c 70000000 		.4byte	0x70
 824 0070 02       		.uleb128 0x2
 825 0071 02       		.byte	0x2
 826 0072 07       		.byte	0x7
 827 0073 2C0A0000 		.4byte	.LASF8
 828 0077 04       		.uleb128 0x4
 829 0078 E7000000 		.4byte	.LASF9
 830 007c 03       		.byte	0x3
 831 007d 3F       		.byte	0x3f
 832 007e 82000000 		.4byte	0x82
 833 0082 02       		.uleb128 0x2
 834 0083 04       		.byte	0x4
 835 0084 05       		.byte	0x5
 836 0085 FA070000 		.4byte	.LASF10
 837 0089 04       		.uleb128 0x4
 838 008a 4C090000 		.4byte	.LASF11
 839 008e 03       		.byte	0x3
 840 008f 41       		.byte	0x41
 841 0090 94000000 		.4byte	0x94
 842 0094 02       		.uleb128 0x2
 843 0095 04       		.byte	0x4
 844 0096 07       		.byte	0x7
 845 0097 D0080000 		.4byte	.LASF12
 846 009b 04       		.uleb128 0x4
 847 009c A1050000 		.4byte	.LASF13
 848 00a0 03       		.byte	0x3
 849 00a1 59       		.byte	0x59
 850 00a2 A6000000 		.4byte	0xa6
 851 00a6 02       		.uleb128 0x2
 852 00a7 08       		.byte	0x8
 853 00a8 05       		.byte	0x5
 854 00a9 A8040000 		.4byte	.LASF14
ARM GAS  /tmp/ccaiZisL.s 			page 16


 855 00ad 04       		.uleb128 0x4
 856 00ae B6040000 		.4byte	.LASF15
 857 00b2 03       		.byte	0x3
 858 00b3 5B       		.byte	0x5b
 859 00b4 25000000 		.4byte	0x25
 860 00b8 04       		.uleb128 0x4
 861 00b9 C7040000 		.4byte	.LASF16
 862 00bd 04       		.byte	0x4
 863 00be 14       		.byte	0x14
 864 00bf 4C000000 		.4byte	0x4c
 865 00c3 04       		.uleb128 0x4
 866 00c4 B8050000 		.4byte	.LASF17
 867 00c8 04       		.byte	0x4
 868 00c9 1A       		.byte	0x1a
 869 00ca 65000000 		.4byte	0x65
 870 00ce 04       		.uleb128 0x4
 871 00cf FA080000 		.4byte	.LASF18
 872 00d3 04       		.byte	0x4
 873 00d4 1F       		.byte	0x1f
 874 00d5 77000000 		.4byte	0x77
 875 00d9 04       		.uleb128 0x4
 876 00da F9010000 		.4byte	.LASF19
 877 00de 04       		.byte	0x4
 878 00df 20       		.byte	0x20
 879 00e0 89000000 		.4byte	0x89
 880 00e4 04       		.uleb128 0x4
 881 00e5 96030000 		.4byte	.LASF20
 882 00e9 04       		.byte	0x4
 883 00ea 25       		.byte	0x25
 884 00eb 9B000000 		.4byte	0x9b
 885 00ef 04       		.uleb128 0x4
 886 00f0 60080000 		.4byte	.LASF21
 887 00f4 04       		.byte	0x4
 888 00f5 26       		.byte	0x26
 889 00f6 AD000000 		.4byte	0xad
 890 00fa 04       		.uleb128 0x4
 891 00fb 04060000 		.4byte	.LASF22
 892 00ff 05       		.byte	0x5
 893 0100 27       		.byte	0x27
 894 0101 D9000000 		.4byte	0xd9
 895 0105 04       		.uleb128 0x4
 896 0106 73040000 		.4byte	.LASF23
 897 010a 05       		.byte	0x5
 898 010b 28       		.byte	0x28
 899 010c EF000000 		.4byte	0xef
 900 0110 04       		.uleb128 0x4
 901 0111 7F050000 		.4byte	.LASF24
 902 0115 05       		.byte	0x5
 903 0116 2A       		.byte	0x2a
 904 0117 B8000000 		.4byte	0xb8
 905 011b 04       		.uleb128 0x4
 906 011c 9F040000 		.4byte	.LASF25
 907 0120 05       		.byte	0x5
 908 0121 2B       		.byte	0x2b
 909 0122 B8000000 		.4byte	0xb8
 910 0126 04       		.uleb128 0x4
 911 0127 B5080000 		.4byte	.LASF26
ARM GAS  /tmp/ccaiZisL.s 			page 17


 912 012b 05       		.byte	0x5
 913 012c 2C       		.byte	0x2c
 914 012d B8000000 		.4byte	0xb8
 915 0131 04       		.uleb128 0x4
 916 0132 47020000 		.4byte	.LASF27
 917 0136 05       		.byte	0x5
 918 0137 2E       		.byte	0x2e
 919 0138 D9000000 		.4byte	0xd9
 920 013c 04       		.uleb128 0x4
 921 013d 30050000 		.4byte	.LASF28
 922 0141 05       		.byte	0x5
 923 0142 2F       		.byte	0x2f
 924 0143 CE000000 		.4byte	0xce
 925 0147 04       		.uleb128 0x4
 926 0148 1A050000 		.4byte	.LASF29
 927 014c 05       		.byte	0x5
 928 014d 31       		.byte	0x31
 929 014e D9000000 		.4byte	0xd9
 930 0152 04       		.uleb128 0x4
 931 0153 E1020000 		.4byte	.LASF30
 932 0157 05       		.byte	0x5
 933 0158 33       		.byte	0x33
 934 0159 CE000000 		.4byte	0xce
 935 015d 04       		.uleb128 0x4
 936 015e 87050000 		.4byte	.LASF31
 937 0162 05       		.byte	0x5
 938 0163 34       		.byte	0x34
 939 0164 D9000000 		.4byte	0xd9
 940 0168 04       		.uleb128 0x4
 941 0169 6D030000 		.4byte	.LASF32
 942 016d 06       		.byte	0x6
 943 016e 34       		.byte	0x34
 944 016f 73010000 		.4byte	0x173
 945 0173 05       		.uleb128 0x5
 946 0174 DD040000 		.4byte	.LASF51
 947 0178 60       		.byte	0x60
 948 0179 07       		.byte	0x7
 949 017a 8E       		.byte	0x8e
 950 017b 5E020000 		.4byte	0x25e
 951 017f 06       		.uleb128 0x6
 952 0180 F4080000 		.4byte	.LASF33
 953 0184 07       		.byte	0x7
 954 0185 8F       		.byte	0x8f
 955 0186 93020000 		.4byte	0x293
 956 018a 00       		.byte	0
 957 018b 06       		.uleb128 0x6
 958 018c 57040000 		.4byte	.LASF34
 959 0190 07       		.byte	0x7
 960 0191 90       		.byte	0x90
 961 0192 31010000 		.4byte	0x131
 962 0196 08       		.byte	0x8
 963 0197 07       		.uleb128 0x7
 964 0198 63747800 		.ascii	"ctx\000"
 965 019c 07       		.byte	0x7
 966 019d 91       		.byte	0x91
 967 019e E8080000 		.4byte	0x8e8
 968 01a2 0C       		.byte	0xc
ARM GAS  /tmp/ccaiZisL.s 			page 18


 969 01a3 06       		.uleb128 0x6
 970 01a4 1D090000 		.4byte	.LASF35
 971 01a8 07       		.byte	0x7
 972 01a9 93       		.byte	0x93
 973 01aa 69020000 		.4byte	0x269
 974 01ae 10       		.byte	0x10
 975 01af 06       		.uleb128 0x6
 976 01b0 A10A0000 		.4byte	.LASF36
 977 01b4 07       		.byte	0x7
 978 01b5 94       		.byte	0x94
 979 01b6 69020000 		.4byte	0x269
 980 01ba 14       		.byte	0x14
 981 01bb 06       		.uleb128 0x6
 982 01bc 7E080000 		.4byte	.LASF37
 983 01c0 07       		.byte	0x7
 984 01c1 9B       		.byte	0x9b
 985 01c2 F00C0000 		.4byte	0xcf0
 986 01c6 18       		.byte	0x18
 987 01c7 06       		.uleb128 0x6
 988 01c8 7C040000 		.4byte	.LASF38
 989 01cc 07       		.byte	0x7
 990 01cd A4       		.byte	0xa4
 991 01ce 020D0000 		.4byte	0xd02
 992 01d2 1C       		.byte	0x1c
 993 01d3 06       		.uleb128 0x6
 994 01d4 AC090000 		.4byte	.LASF39
 995 01d8 07       		.byte	0x7
 996 01d9 A9       		.byte	0xa9
 997 01da 1B010000 		.4byte	0x11b
 998 01de 20       		.byte	0x20
 999 01df 06       		.uleb128 0x6
 1000 01e0 74000000 		.4byte	.LASF40
 1001 01e4 07       		.byte	0x7
 1002 01e5 AD       		.byte	0xad
 1003 01e6 10010000 		.4byte	0x110
 1004 01ea 21       		.byte	0x21
 1005 01eb 06       		.uleb128 0x6
 1006 01ec F1000000 		.4byte	.LASF41
 1007 01f0 07       		.byte	0x7
 1008 01f1 B2       		.byte	0xb2
 1009 01f2 26010000 		.4byte	0x126
 1010 01f6 22       		.byte	0x22
 1011 01f7 08       		.uleb128 0x8
 1012 01f8 7500     		.ascii	"u\000"
 1013 01fa 07       		.byte	0x7
 1014 01fb 0301     		.2byte	0x103
 1015 01fd 260C0000 		.4byte	0xc26
 1016 0201 24       		.byte	0x24
 1017 0202 09       		.uleb128 0x9
 1018 0203 57090000 		.4byte	.LASF42
 1019 0207 07       		.byte	0x7
 1020 0208 0801     		.2byte	0x108
 1021 020a 6F020000 		.4byte	0x26f
 1022 020e 28       		.byte	0x28
 1023 020f 09       		.uleb128 0x9
 1024 0210 CF040000 		.4byte	.LASF43
 1025 0214 07       		.byte	0x7
ARM GAS  /tmp/ccaiZisL.s 			page 19


 1026 0215 0E01     		.2byte	0x10e
 1027 0217 93020000 		.4byte	0x293
 1028 021b 2C       		.byte	0x2c
 1029 021c 09       		.uleb128 0x9
 1030 021d 97000000 		.4byte	.LASF44
 1031 0221 07       		.byte	0x7
 1032 0222 1401     		.2byte	0x114
 1033 0224 47010000 		.4byte	0x147
 1034 0228 34       		.byte	0x34
 1035 0229 09       		.uleb128 0x9
 1036 022a 47030000 		.4byte	.LASF45
 1037 022e 07       		.byte	0x7
 1038 022f 1B01     		.2byte	0x11b
 1039 0231 EA0C0000 		.4byte	0xcea
 1040 0235 38       		.byte	0x38
 1041 0236 09       		.uleb128 0x9
 1042 0237 84000000 		.4byte	.LASF46
 1043 023b 07       		.byte	0x7
 1044 023c 1F01     		.2byte	0x11f
 1045 023e 31010000 		.4byte	0x131
 1046 0242 3C       		.byte	0x3c
 1047 0243 09       		.uleb128 0x9
 1048 0244 B90A0000 		.4byte	.LASF47
 1049 0248 07       		.byte	0x7
 1050 0249 2601     		.2byte	0x126
 1051 024b 46030000 		.4byte	0x346
 1052 024f 40       		.byte	0x40
 1053 0250 09       		.uleb128 0x9
 1054 0251 E8090000 		.4byte	.LASF48
 1055 0255 07       		.byte	0x7
 1056 0256 2C01     		.2byte	0x12c
 1057 0258 D70B0000 		.4byte	0xbd7
 1058 025c 48       		.byte	0x48
 1059 025d 00       		.byte	0
 1060 025e 04       		.uleb128 0x4
 1061 025f 2D000000 		.4byte	.LASF49
 1062 0263 06       		.byte	0x6
 1063 0264 39       		.byte	0x39
 1064 0265 69020000 		.4byte	0x269
 1065 0269 0A       		.uleb128 0xa
 1066 026a 04       		.byte	0x4
 1067 026b 68010000 		.4byte	0x168
 1068 026f 04       		.uleb128 0x4
 1069 0270 BD000000 		.4byte	.LASF50
 1070 0274 06       		.byte	0x6
 1071 0275 3E       		.byte	0x3e
 1072 0276 7A020000 		.4byte	0x27a
 1073 027a 05       		.uleb128 0x5
 1074 027b E7020000 		.4byte	.LASF52
 1075 027f 04       		.byte	0x4
 1076 0280 07       		.byte	0x7
 1077 0281 7C       		.byte	0x7c
 1078 0282 93020000 		.4byte	0x293
 1079 0286 06       		.uleb128 0x6
 1080 0287 AD000000 		.4byte	.LASF53
 1081 028b 07       		.byte	0x7
 1082 028c 7D       		.byte	0x7d
ARM GAS  /tmp/ccaiZisL.s 			page 20


 1083 028d 69020000 		.4byte	0x269
 1084 0291 00       		.byte	0
 1085 0292 00       		.byte	0
 1086 0293 04       		.uleb128 0x4
 1087 0294 31030000 		.4byte	.LASF54
 1088 0298 06       		.byte	0x6
 1089 0299 45       		.byte	0x45
 1090 029a 9E020000 		.4byte	0x29e
 1091 029e 05       		.uleb128 0x5
 1092 029f 02050000 		.4byte	.LASF55
 1093 02a3 08       		.byte	0x8
 1094 02a4 07       		.byte	0x7
 1095 02a5 83       		.byte	0x83
 1096 02a6 C3020000 		.4byte	0x2c3
 1097 02aa 06       		.uleb128 0x6
 1098 02ab AD000000 		.4byte	.LASF53
 1099 02af 07       		.byte	0x7
 1100 02b0 84       		.byte	0x84
 1101 02b1 69020000 		.4byte	0x269
 1102 02b5 00       		.byte	0
 1103 02b6 06       		.uleb128 0x6
 1104 02b7 94010000 		.4byte	.LASF56
 1105 02bb 07       		.byte	0x7
 1106 02bc 85       		.byte	0x85
 1107 02bd 69020000 		.4byte	0x269
 1108 02c1 04       		.byte	0x4
 1109 02c2 00       		.byte	0
 1110 02c3 04       		.uleb128 0x4
 1111 02c4 E7080000 		.4byte	.LASF57
 1112 02c8 06       		.byte	0x6
 1113 02c9 4C       		.byte	0x4c
 1114 02ca CE020000 		.4byte	0x2ce
 1115 02ce 0B       		.uleb128 0xb
 1116 02cf 38010000 		.4byte	.LASF58
 1117 02d3 1C       		.byte	0x1c
 1118 02d4 07       		.byte	0x7
 1119 02d5 5E01     		.2byte	0x15e
 1120 02d7 2A030000 		.4byte	0x32a
 1121 02db 09       		.uleb128 0x9
 1122 02dc F4080000 		.4byte	.LASF33
 1123 02e0 07       		.byte	0x7
 1124 02e1 5F01     		.2byte	0x15f
 1125 02e3 93020000 		.4byte	0x293
 1126 02e7 00       		.byte	0
 1127 02e8 09       		.uleb128 0x9
 1128 02e9 57040000 		.4byte	.LASF34
 1129 02ed 07       		.byte	0x7
 1130 02ee 6001     		.2byte	0x160
 1131 02f0 31010000 		.4byte	0x131
 1132 02f4 08       		.byte	0x8
 1133 02f5 08       		.uleb128 0x8
 1134 02f6 63747800 		.ascii	"ctx\000"
 1135 02fa 07       		.byte	0x7
 1136 02fb 6201     		.2byte	0x162
 1137 02fd E8080000 		.4byte	0x8e8
 1138 0301 0C       		.byte	0xc
 1139 0302 09       		.uleb128 0x9
ARM GAS  /tmp/ccaiZisL.s 			page 21


 1140 0303 1D090000 		.4byte	.LASF35
 1141 0307 07       		.byte	0x7
 1142 0308 6501     		.2byte	0x165
 1143 030a 69020000 		.4byte	0x269
 1144 030e 10       		.byte	0x10
 1145 030f 09       		.uleb128 0x9
 1146 0310 A10A0000 		.4byte	.LASF36
 1147 0314 07       		.byte	0x7
 1148 0315 6601     		.2byte	0x166
 1149 0317 69020000 		.4byte	0x269
 1150 031b 14       		.byte	0x14
 1151 031c 09       		.uleb128 0x9
 1152 031d 630A0000 		.4byte	.LASF59
 1153 0321 07       		.byte	0x7
 1154 0322 6901     		.2byte	0x169
 1155 0324 69020000 		.4byte	0x269
 1156 0328 18       		.byte	0x18
 1157 0329 00       		.byte	0
 1158 032a 04       		.uleb128 0x4
 1159 032b B8010000 		.4byte	.LASF60
 1160 032f 06       		.byte	0x6
 1161 0330 51       		.byte	0x51
 1162 0331 35030000 		.4byte	0x335
 1163 0335 0A       		.uleb128 0xa
 1164 0336 04       		.byte	0x4
 1165 0337 3B030000 		.4byte	0x33b
 1166 033b 0C       		.uleb128 0xc
 1167 033c 46030000 		.4byte	0x346
 1168 0340 0D       		.uleb128 0xd
 1169 0341 46030000 		.4byte	0x346
 1170 0345 00       		.byte	0
 1171 0346 0E       		.uleb128 0xe
 1172 0347 04       		.byte	0x4
 1173 0348 04       		.uleb128 0x4
 1174 0349 4A050000 		.4byte	.LASF61
 1175 034d 06       		.byte	0x6
 1176 034e 56       		.byte	0x56
 1177 034f 53030000 		.4byte	0x353
 1178 0353 0B       		.uleb128 0xb
 1179 0354 B5020000 		.4byte	.LASF62
 1180 0358 14       		.byte	0x14
 1181 0359 07       		.byte	0x7
 1182 035a 3901     		.2byte	0x139
 1183 035c A2030000 		.4byte	0x3a2
 1184 0360 09       		.uleb128 0x9
 1185 0361 AD000000 		.4byte	.LASF53
 1186 0365 07       		.byte	0x7
 1187 0366 3A01     		.2byte	0x13a
 1188 0368 080D0000 		.4byte	0xd08
 1189 036c 00       		.byte	0
 1190 036d 09       		.uleb128 0x9
 1191 036e 94010000 		.4byte	.LASF56
 1192 0372 07       		.byte	0x7
 1193 0373 3B01     		.2byte	0x13b
 1194 0375 080D0000 		.4byte	0xd08
 1195 0379 04       		.byte	0x4
 1196 037a 09       		.uleb128 0x9
ARM GAS  /tmp/ccaiZisL.s 			page 22


 1197 037b 260A0000 		.4byte	.LASF63
 1198 037f 07       		.byte	0x7
 1199 0380 3C01     		.2byte	0x13c
 1200 0382 86040000 		.4byte	0x486
 1201 0386 08       		.byte	0x8
 1202 0387 09       		.uleb128 0x9
 1203 0388 88010000 		.4byte	.LASF64
 1204 038c 07       		.byte	0x7
 1205 038d 3D01     		.2byte	0x13d
 1206 038f 2A030000 		.4byte	0x32a
 1207 0393 0C       		.byte	0xc
 1208 0394 08       		.uleb128 0x8
 1209 0395 70617200 		.ascii	"par\000"
 1210 0399 07       		.byte	0x7
 1211 039a 3F01     		.2byte	0x13f
 1212 039c 46030000 		.4byte	0x346
 1213 03a0 10       		.byte	0x10
 1214 03a1 00       		.byte	0
 1215 03a2 04       		.uleb128 0x4
 1216 03a3 EE050000 		.4byte	.LASF65
 1217 03a7 06       		.byte	0x6
 1218 03a8 5B       		.byte	0x5b
 1219 03a9 AD030000 		.4byte	0x3ad
 1220 03ad 0B       		.uleb128 0xb
 1221 03ae 4F030000 		.4byte	.LASF66
 1222 03b2 10       		.byte	0x10
 1223 03b3 07       		.byte	0x7
 1224 03b4 4901     		.2byte	0x149
 1225 03b6 EF030000 		.4byte	0x3ef
 1226 03ba 09       		.uleb128 0x9
 1227 03bb AD000000 		.4byte	.LASF53
 1228 03bf 07       		.byte	0x7
 1229 03c0 4A01     		.2byte	0x14a
 1230 03c2 080D0000 		.4byte	0xd08
 1231 03c6 00       		.byte	0
 1232 03c7 09       		.uleb128 0x9
 1233 03c8 94010000 		.4byte	.LASF56
 1234 03cc 07       		.byte	0x7
 1235 03cd 4C01     		.2byte	0x14c
 1236 03cf 080D0000 		.4byte	0xd08
 1237 03d3 04       		.byte	0x4
 1238 03d4 09       		.uleb128 0x9
 1239 03d5 260A0000 		.4byte	.LASF63
 1240 03d9 07       		.byte	0x7
 1241 03da 4E01     		.2byte	0x14e
 1242 03dc 86040000 		.4byte	0x486
 1243 03e0 08       		.byte	0x8
 1244 03e1 09       		.uleb128 0x9
 1245 03e2 57080000 		.4byte	.LASF67
 1246 03e6 07       		.byte	0x7
 1247 03e7 5601     		.2byte	0x156
 1248 03e9 7B040000 		.4byte	0x47b
 1249 03ed 0C       		.byte	0xc
 1250 03ee 00       		.byte	0
 1251 03ef 04       		.uleb128 0x4
 1252 03f0 F3040000 		.4byte	.LASF68
 1253 03f4 06       		.byte	0x6
ARM GAS  /tmp/ccaiZisL.s 			page 23


 1254 03f5 60       		.byte	0x60
 1255 03f6 FA030000 		.4byte	0x3fa
 1256 03fa 0B       		.uleb128 0xb
 1257 03fb DA010000 		.4byte	.LASF69
 1258 03ff 04       		.byte	0x4
 1259 0400 07       		.byte	0x7
 1260 0401 7001     		.2byte	0x170
 1261 0403 15040000 		.4byte	0x415
 1262 0407 09       		.uleb128 0x9
 1263 0408 92090000 		.4byte	.LASF70
 1264 040c 07       		.byte	0x7
 1265 040d 7801     		.2byte	0x178
 1266 040f 0E0D0000 		.4byte	0xd0e
 1267 0413 00       		.byte	0
 1268 0414 00       		.byte	0
 1269 0415 04       		.uleb128 0x4
 1270 0416 EE090000 		.4byte	.LASF71
 1271 041a 06       		.byte	0x6
 1272 041b 65       		.byte	0x65
 1273 041c 20040000 		.4byte	0x420
 1274 0420 0B       		.uleb128 0xb
 1275 0421 2F080000 		.4byte	.LASF72
 1276 0425 D0       		.byte	0xd0
 1277 0426 07       		.byte	0x7
 1278 0427 9001     		.2byte	0x190
 1279 0429 7B040000 		.4byte	0x47b
 1280 042d 09       		.uleb128 0x9
 1281 042e 6E080000 		.4byte	.LASF73
 1282 0432 07       		.byte	0x7
 1283 0433 9401     		.2byte	0x194
 1284 0435 C3020000 		.4byte	0x2c3
 1285 0439 00       		.byte	0
 1286 043a 09       		.uleb128 0x9
 1287 043b 12010000 		.4byte	.LASF74
 1288 043f 07       		.byte	0x7
 1289 0440 9801     		.2byte	0x198
 1290 0442 A2030000 		.4byte	0x3a2
 1291 0446 1C       		.byte	0x1c
 1292 0447 08       		.uleb128 0x8
 1293 0448 64626700 		.ascii	"dbg\000"
 1294 044c 07       		.byte	0x7
 1295 044d 9C01     		.2byte	0x19c
 1296 044f EF030000 		.4byte	0x3ef
 1297 0453 2C       		.byte	0x2c
 1298 0454 09       		.uleb128 0x9
 1299 0455 8E050000 		.4byte	.LASF75
 1300 0459 07       		.byte	0x7
 1301 045a A001     		.2byte	0x1a0
 1302 045c 68010000 		.4byte	0x168
 1303 0460 30       		.byte	0x30
 1304 0461 08       		.uleb128 0x8
 1305 0462 746D00   		.ascii	"tm\000"
 1306 0465 07       		.byte	0x7
 1307 0466 A501     		.2byte	0x1a5
 1308 0468 890B0000 		.4byte	0xb89
 1309 046c 90       		.byte	0x90
 1310 046d 09       		.uleb128 0x9
ARM GAS  /tmp/ccaiZisL.s 			page 24


 1311 046e 25020000 		.4byte	.LASF76
 1312 0472 07       		.byte	0x7
 1313 0473 AB01     		.2byte	0x1ab
 1314 0475 1B0C0000 		.4byte	0xc1b
 1315 0479 98       		.byte	0x98
 1316 047a 00       		.byte	0
 1317 047b 04       		.uleb128 0x4
 1318 047c 7A000000 		.4byte	.LASF77
 1319 0480 08       		.byte	0x8
 1320 0481 6D       		.byte	0x6d
 1321 0482 D9000000 		.4byte	0xd9
 1322 0486 04       		.uleb128 0x4
 1323 0487 BD080000 		.4byte	.LASF78
 1324 048b 08       		.byte	0x8
 1325 048c 79       		.byte	0x79
 1326 048d D9000000 		.4byte	0xd9
 1327 0491 04       		.uleb128 0x4
 1328 0492 FD020000 		.4byte	.LASF79
 1329 0496 08       		.byte	0x8
 1330 0497 89       		.byte	0x89
 1331 0498 D9000000 		.4byte	0xd9
 1332 049c 04       		.uleb128 0x4
 1333 049d 7E0A0000 		.4byte	.LASF80
 1334 04a1 08       		.byte	0x8
 1335 04a2 96       		.byte	0x96
 1336 04a3 EF000000 		.4byte	0xef
 1337 04a7 02       		.uleb128 0x2
 1338 04a8 04       		.byte	0x4
 1339 04a9 07       		.byte	0x7
 1340 04aa AC080000 		.4byte	.LASF81
 1341 04ae 0F       		.uleb128 0xf
 1342 04af D9000000 		.4byte	0xd9
 1343 04b3 10       		.uleb128 0x10
 1344 04b4 D9000000 		.4byte	0xd9
 1345 04b8 C3040000 		.4byte	0x4c3
 1346 04bc 11       		.uleb128 0x11
 1347 04bd A7040000 		.4byte	0x4a7
 1348 04c1 01       		.byte	0x1
 1349 04c2 00       		.byte	0
 1350 04c3 10       		.uleb128 0x10
 1351 04c4 D9000000 		.4byte	0xd9
 1352 04c8 D3040000 		.4byte	0x4d3
 1353 04cc 11       		.uleb128 0x11
 1354 04cd A7040000 		.4byte	0x4a7
 1355 04d1 03       		.byte	0x3
 1356 04d2 00       		.byte	0
 1357 04d3 12       		.uleb128 0x12
 1358 04d4 08       		.byte	0x8
 1359 04d5 09       		.byte	0x9
 1360 04d6 8C02     		.2byte	0x28c
 1361 04d8 F6040000 		.4byte	0x4f6
 1362 04dc 08       		.uleb128 0x8
 1363 04dd 435200   		.ascii	"CR\000"
 1364 04e0 09       		.byte	0x9
 1365 04e1 8E02     		.2byte	0x28e
 1366 04e3 AE040000 		.4byte	0x4ae
 1367 04e7 00       		.byte	0
ARM GAS  /tmp/ccaiZisL.s 			page 25


 1368 04e8 08       		.uleb128 0x8
 1369 04e9 43535200 		.ascii	"CSR\000"
 1370 04ed 09       		.byte	0x9
 1371 04ee 8F02     		.2byte	0x28f
 1372 04f0 AE040000 		.4byte	0x4ae
 1373 04f4 04       		.byte	0x4
 1374 04f5 00       		.byte	0
 1375 04f6 13       		.uleb128 0x13
 1376 04f7 EE070000 		.4byte	.LASF82
 1377 04fb 09       		.byte	0x9
 1378 04fc 9002     		.2byte	0x290
 1379 04fe D3040000 		.4byte	0x4d3
 1380 0502 12       		.uleb128 0x12
 1381 0503 90       		.byte	0x90
 1382 0504 09       		.byte	0x9
 1383 0505 9602     		.2byte	0x296
 1384 0507 AB060000 		.4byte	0x6ab
 1385 050b 08       		.uleb128 0x8
 1386 050c 435200   		.ascii	"CR\000"
 1387 050f 09       		.byte	0x9
 1388 0510 9802     		.2byte	0x298
 1389 0512 AE040000 		.4byte	0x4ae
 1390 0516 00       		.byte	0
 1391 0517 09       		.uleb128 0x9
 1392 0518 83080000 		.4byte	.LASF83
 1393 051c 09       		.byte	0x9
 1394 051d 9902     		.2byte	0x299
 1395 051f AE040000 		.4byte	0x4ae
 1396 0523 04       		.byte	0x4
 1397 0524 09       		.uleb128 0x9
 1398 0525 69080000 		.4byte	.LASF84
 1399 0529 09       		.byte	0x9
 1400 052a 9A02     		.2byte	0x29a
 1401 052c AE040000 		.4byte	0x4ae
 1402 0530 08       		.byte	0x8
 1403 0531 08       		.uleb128 0x8
 1404 0532 43495200 		.ascii	"CIR\000"
 1405 0536 09       		.byte	0x9
 1406 0537 9B02     		.2byte	0x29b
 1407 0539 AE040000 		.4byte	0x4ae
 1408 053d 0C       		.byte	0xc
 1409 053e 09       		.uleb128 0x9
 1410 053f B00A0000 		.4byte	.LASF85
 1411 0543 09       		.byte	0x9
 1412 0544 9C02     		.2byte	0x29c
 1413 0546 AE040000 		.4byte	0x4ae
 1414 054a 10       		.byte	0x10
 1415 054b 09       		.uleb128 0x9
 1416 054c D3050000 		.4byte	.LASF86
 1417 0550 09       		.byte	0x9
 1418 0551 9D02     		.2byte	0x29d
 1419 0553 AE040000 		.4byte	0x4ae
 1420 0557 14       		.byte	0x14
 1421 0558 09       		.uleb128 0x9
 1422 0559 28030000 		.4byte	.LASF87
 1423 055d 09       		.byte	0x9
 1424 055e 9E02     		.2byte	0x29e
ARM GAS  /tmp/ccaiZisL.s 			page 26


 1425 0560 AE040000 		.4byte	0x4ae
 1426 0564 18       		.byte	0x18
 1427 0565 09       		.uleb128 0x9
 1428 0566 9A070000 		.4byte	.LASF88
 1429 056a 09       		.byte	0x9
 1430 056b 9F02     		.2byte	0x29f
 1431 056d D9000000 		.4byte	0xd9
 1432 0571 1C       		.byte	0x1c
 1433 0572 09       		.uleb128 0x9
 1434 0573 4E040000 		.4byte	.LASF89
 1435 0577 09       		.byte	0x9
 1436 0578 A002     		.2byte	0x2a0
 1437 057a AE040000 		.4byte	0x4ae
 1438 057e 20       		.byte	0x20
 1439 057f 09       		.uleb128 0x9
 1440 0580 6B000000 		.4byte	.LASF90
 1441 0584 09       		.byte	0x9
 1442 0585 A102     		.2byte	0x2a1
 1443 0587 AE040000 		.4byte	0x4ae
 1444 058b 24       		.byte	0x24
 1445 058c 09       		.uleb128 0x9
 1446 058d A4070000 		.4byte	.LASF91
 1447 0591 09       		.byte	0x9
 1448 0592 A202     		.2byte	0x2a2
 1449 0594 B3040000 		.4byte	0x4b3
 1450 0598 28       		.byte	0x28
 1451 0599 09       		.uleb128 0x9
 1452 059a 3F020000 		.4byte	.LASF92
 1453 059e 09       		.byte	0x9
 1454 059f A302     		.2byte	0x2a3
 1455 05a1 AE040000 		.4byte	0x4ae
 1456 05a5 30       		.byte	0x30
 1457 05a6 09       		.uleb128 0x9
 1458 05a7 ED030000 		.4byte	.LASF93
 1459 05ab 09       		.byte	0x9
 1460 05ac A402     		.2byte	0x2a4
 1461 05ae AE040000 		.4byte	0x4ae
 1462 05b2 34       		.byte	0x34
 1463 05b3 09       		.uleb128 0x9
 1464 05b4 F5030000 		.4byte	.LASF94
 1465 05b8 09       		.byte	0x9
 1466 05b9 A502     		.2byte	0x2a5
 1467 05bb AE040000 		.4byte	0x4ae
 1468 05bf 38       		.byte	0x38
 1469 05c0 09       		.uleb128 0x9
 1470 05c1 AE070000 		.4byte	.LASF95
 1471 05c5 09       		.byte	0x9
 1472 05c6 A602     		.2byte	0x2a6
 1473 05c8 D9000000 		.4byte	0xd9
 1474 05cc 3C       		.byte	0x3c
 1475 05cd 09       		.uleb128 0x9
 1476 05ce 0D000000 		.4byte	.LASF96
 1477 05d2 09       		.byte	0x9
 1478 05d3 A702     		.2byte	0x2a7
 1479 05d5 AE040000 		.4byte	0x4ae
 1480 05d9 40       		.byte	0x40
 1481 05da 09       		.uleb128 0x9
ARM GAS  /tmp/ccaiZisL.s 			page 27


 1482 05db 77050000 		.4byte	.LASF97
 1483 05df 09       		.byte	0x9
 1484 05e0 A802     		.2byte	0x2a8
 1485 05e2 AE040000 		.4byte	0x4ae
 1486 05e6 44       		.byte	0x44
 1487 05e7 09       		.uleb128 0x9
 1488 05e8 8A0A0000 		.4byte	.LASF98
 1489 05ec 09       		.byte	0x9
 1490 05ed A902     		.2byte	0x2a9
 1491 05ef B3040000 		.4byte	0x4b3
 1492 05f3 48       		.byte	0x48
 1493 05f4 09       		.uleb128 0x9
 1494 05f5 030A0000 		.4byte	.LASF99
 1495 05f9 09       		.byte	0x9
 1496 05fa AA02     		.2byte	0x2aa
 1497 05fc AE040000 		.4byte	0x4ae
 1498 0600 50       		.byte	0x50
 1499 0601 09       		.uleb128 0x9
 1500 0602 99010000 		.4byte	.LASF100
 1501 0606 09       		.byte	0x9
 1502 0607 AB02     		.2byte	0x2ab
 1503 0609 AE040000 		.4byte	0x4ae
 1504 060d 54       		.byte	0x54
 1505 060e 09       		.uleb128 0x9
 1506 060f A2080000 		.4byte	.LASF101
 1507 0613 09       		.byte	0x9
 1508 0614 AC02     		.2byte	0x2ac
 1509 0616 AE040000 		.4byte	0x4ae
 1510 061a 58       		.byte	0x58
 1511 061b 09       		.uleb128 0x9
 1512 061c C6070000 		.4byte	.LASF102
 1513 0620 09       		.byte	0x9
 1514 0621 AD02     		.2byte	0x2ad
 1515 0623 D9000000 		.4byte	0xd9
 1516 0627 5C       		.byte	0x5c
 1517 0628 09       		.uleb128 0x9
 1518 0629 26050000 		.4byte	.LASF103
 1519 062d 09       		.byte	0x9
 1520 062e AE02     		.2byte	0x2ae
 1521 0630 AE040000 		.4byte	0x4ae
 1522 0634 60       		.byte	0x60
 1523 0635 09       		.uleb128 0x9
 1524 0636 56000000 		.4byte	.LASF104
 1525 063a 09       		.byte	0x9
 1526 063b AF02     		.2byte	0x2af
 1527 063d AE040000 		.4byte	0x4ae
 1528 0641 64       		.byte	0x64
 1529 0642 09       		.uleb128 0x9
 1530 0643 D0070000 		.4byte	.LASF105
 1531 0647 09       		.byte	0x9
 1532 0648 B002     		.2byte	0x2b0
 1533 064a B3040000 		.4byte	0x4b3
 1534 064e 68       		.byte	0x68
 1535 064f 09       		.uleb128 0x9
 1536 0650 210A0000 		.4byte	.LASF106
 1537 0654 09       		.byte	0x9
 1538 0655 B102     		.2byte	0x2b1
ARM GAS  /tmp/ccaiZisL.s 			page 28


 1539 0657 AE040000 		.4byte	0x4ae
 1540 065b 70       		.byte	0x70
 1541 065c 08       		.uleb128 0x8
 1542 065d 43535200 		.ascii	"CSR\000"
 1543 0661 09       		.byte	0x9
 1544 0662 B202     		.2byte	0x2b2
 1545 0664 AE040000 		.4byte	0x4ae
 1546 0668 74       		.byte	0x74
 1547 0669 09       		.uleb128 0x9
 1548 066a DA070000 		.4byte	.LASF107
 1549 066e 09       		.byte	0x9
 1550 066f B302     		.2byte	0x2b3
 1551 0671 B3040000 		.4byte	0x4b3
 1552 0675 78       		.byte	0x78
 1553 0676 09       		.uleb128 0x9
 1554 0677 4F020000 		.4byte	.LASF108
 1555 067b 09       		.byte	0x9
 1556 067c B402     		.2byte	0x2b4
 1557 067e AE040000 		.4byte	0x4ae
 1558 0682 80       		.byte	0x80
 1559 0683 09       		.uleb128 0x9
 1560 0684 23090000 		.4byte	.LASF109
 1561 0688 09       		.byte	0x9
 1562 0689 B502     		.2byte	0x2b5
 1563 068b AE040000 		.4byte	0x4ae
 1564 068f 84       		.byte	0x84
 1565 0690 09       		.uleb128 0x9
 1566 0691 60000000 		.4byte	.LASF110
 1567 0695 09       		.byte	0x9
 1568 0696 B602     		.2byte	0x2b6
 1569 0698 AE040000 		.4byte	0x4ae
 1570 069c 88       		.byte	0x88
 1571 069d 09       		.uleb128 0x9
 1572 069e 05000000 		.4byte	.LASF111
 1573 06a2 09       		.byte	0x9
 1574 06a3 B702     		.2byte	0x2b7
 1575 06a5 AE040000 		.4byte	0x4ae
 1576 06a9 8C       		.byte	0x8c
 1577 06aa 00       		.byte	0
 1578 06ab 13       		.uleb128 0x13
 1579 06ac FD000000 		.4byte	.LASF112
 1580 06b0 09       		.byte	0x9
 1581 06b1 B802     		.2byte	0x2b8
 1582 06b3 02050000 		.4byte	0x502
 1583 06b7 12       		.uleb128 0x12
 1584 06b8 A0       		.byte	0xa0
 1585 06b9 09       		.byte	0x9
 1586 06ba BE02     		.2byte	0x2be
 1587 06bc C6080000 		.4byte	0x8c6
 1588 06c0 08       		.uleb128 0x8
 1589 06c1 545200   		.ascii	"TR\000"
 1590 06c4 09       		.byte	0x9
 1591 06c5 C002     		.2byte	0x2c0
 1592 06c7 AE040000 		.4byte	0x4ae
 1593 06cb 00       		.byte	0
 1594 06cc 08       		.uleb128 0x8
 1595 06cd 445200   		.ascii	"DR\000"
ARM GAS  /tmp/ccaiZisL.s 			page 29


 1596 06d0 09       		.byte	0x9
 1597 06d1 C102     		.2byte	0x2c1
 1598 06d3 AE040000 		.4byte	0x4ae
 1599 06d7 04       		.byte	0x4
 1600 06d8 08       		.uleb128 0x8
 1601 06d9 435200   		.ascii	"CR\000"
 1602 06dc 09       		.byte	0x9
 1603 06dd C202     		.2byte	0x2c2
 1604 06df AE040000 		.4byte	0x4ae
 1605 06e3 08       		.byte	0x8
 1606 06e4 08       		.uleb128 0x8
 1607 06e5 49535200 		.ascii	"ISR\000"
 1608 06e9 09       		.byte	0x9
 1609 06ea C302     		.2byte	0x2c3
 1610 06ec AE040000 		.4byte	0x4ae
 1611 06f0 0C       		.byte	0xc
 1612 06f1 09       		.uleb128 0x9
 1613 06f2 A7090000 		.4byte	.LASF113
 1614 06f6 09       		.byte	0x9
 1615 06f7 C402     		.2byte	0x2c4
 1616 06f9 AE040000 		.4byte	0x4ae
 1617 06fd 10       		.byte	0x10
 1618 06fe 09       		.uleb128 0x9
 1619 06ff 8D000000 		.4byte	.LASF114
 1620 0703 09       		.byte	0x9
 1621 0704 C502     		.2byte	0x2c5
 1622 0706 AE040000 		.4byte	0x4ae
 1623 070a 14       		.byte	0x14
 1624 070b 09       		.uleb128 0x9
 1625 070c 15040000 		.4byte	.LASF115
 1626 0710 09       		.byte	0x9
 1627 0711 C602     		.2byte	0x2c6
 1628 0713 AE040000 		.4byte	0x4ae
 1629 0717 18       		.byte	0x18
 1630 0718 09       		.uleb128 0x9
 1631 0719 28080000 		.4byte	.LASF116
 1632 071d 09       		.byte	0x9
 1633 071e C702     		.2byte	0x2c7
 1634 0720 AE040000 		.4byte	0x4ae
 1635 0724 1C       		.byte	0x1c
 1636 0725 09       		.uleb128 0x9
 1637 0726 49070000 		.4byte	.LASF117
 1638 072a 09       		.byte	0x9
 1639 072b C802     		.2byte	0x2c8
 1640 072d AE040000 		.4byte	0x4ae
 1641 0731 20       		.byte	0x20
 1642 0732 08       		.uleb128 0x8
 1643 0733 57505200 		.ascii	"WPR\000"
 1644 0737 09       		.byte	0x9
 1645 0738 C902     		.2byte	0x2c9
 1646 073a AE040000 		.4byte	0x4ae
 1647 073e 24       		.byte	0x24
 1648 073f 08       		.uleb128 0x8
 1649 0740 53535200 		.ascii	"SSR\000"
 1650 0744 09       		.byte	0x9
 1651 0745 CA02     		.2byte	0x2ca
 1652 0747 AE040000 		.4byte	0x4ae
ARM GAS  /tmp/ccaiZisL.s 			page 30


 1653 074b 28       		.byte	0x28
 1654 074c 09       		.uleb128 0x9
 1655 074d 66040000 		.4byte	.LASF118
 1656 0751 09       		.byte	0x9
 1657 0752 CB02     		.2byte	0x2cb
 1658 0754 AE040000 		.4byte	0x4ae
 1659 0758 2C       		.byte	0x2c
 1660 0759 09       		.uleb128 0x9
 1661 075a 5A050000 		.4byte	.LASF119
 1662 075e 09       		.byte	0x9
 1663 075f CC02     		.2byte	0x2cc
 1664 0761 AE040000 		.4byte	0x4ae
 1665 0765 30       		.byte	0x30
 1666 0766 09       		.uleb128 0x9
 1667 0767 B1030000 		.4byte	.LASF120
 1668 076b 09       		.byte	0x9
 1669 076c CD02     		.2byte	0x2cd
 1670 076e AE040000 		.4byte	0x4ae
 1671 0772 34       		.byte	0x34
 1672 0773 09       		.uleb128 0x9
 1673 0774 6D040000 		.4byte	.LASF121
 1674 0778 09       		.byte	0x9
 1675 0779 CE02     		.2byte	0x2ce
 1676 077b AE040000 		.4byte	0x4ae
 1677 077f 38       		.byte	0x38
 1678 0780 09       		.uleb128 0x9
 1679 0781 92000000 		.4byte	.LASF122
 1680 0785 09       		.byte	0x9
 1681 0786 CF02     		.2byte	0x2cf
 1682 0788 AE040000 		.4byte	0x4ae
 1683 078c 3C       		.byte	0x3c
 1684 078d 09       		.uleb128 0x9
 1685 078e 51080000 		.4byte	.LASF123
 1686 0792 09       		.byte	0x9
 1687 0793 D002     		.2byte	0x2d0
 1688 0795 AE040000 		.4byte	0x4ae
 1689 0799 40       		.byte	0x40
 1690 079a 09       		.uleb128 0x9
 1691 079b F0010000 		.4byte	.LASF124
 1692 079f 09       		.byte	0x9
 1693 07a0 D102     		.2byte	0x2d1
 1694 07a2 AE040000 		.4byte	0x4ae
 1695 07a6 44       		.byte	0x44
 1696 07a7 09       		.uleb128 0x9
 1697 07a8 8B080000 		.4byte	.LASF125
 1698 07ac 09       		.byte	0x9
 1699 07ad D202     		.2byte	0x2d2
 1700 07af AE040000 		.4byte	0x4ae
 1701 07b3 48       		.byte	0x48
 1702 07b4 09       		.uleb128 0x9
 1703 07b5 E4070000 		.4byte	.LASF126
 1704 07b9 09       		.byte	0x9
 1705 07ba D302     		.2byte	0x2d3
 1706 07bc D9000000 		.4byte	0xd9
 1707 07c0 4C       		.byte	0x4c
 1708 07c1 09       		.uleb128 0x9
 1709 07c2 EA010000 		.4byte	.LASF127
ARM GAS  /tmp/ccaiZisL.s 			page 31


 1710 07c6 09       		.byte	0x9
 1711 07c7 D402     		.2byte	0x2d4
 1712 07c9 AE040000 		.4byte	0x4ae
 1713 07cd 50       		.byte	0x50
 1714 07ce 09       		.uleb128 0x9
 1715 07cf AF020000 		.4byte	.LASF128
 1716 07d3 09       		.byte	0x9
 1717 07d4 D502     		.2byte	0x2d5
 1718 07d6 AE040000 		.4byte	0x4ae
 1719 07da 54       		.byte	0x54
 1720 07db 09       		.uleb128 0x9
 1721 07dc 82030000 		.4byte	.LASF129
 1722 07e0 09       		.byte	0x9
 1723 07e1 D602     		.2byte	0x2d6
 1724 07e3 AE040000 		.4byte	0x4ae
 1725 07e7 58       		.byte	0x58
 1726 07e8 09       		.uleb128 0x9
 1727 07e9 0F040000 		.4byte	.LASF130
 1728 07ed 09       		.byte	0x9
 1729 07ee D702     		.2byte	0x2d7
 1730 07f0 AE040000 		.4byte	0x4ae
 1731 07f4 5C       		.byte	0x5c
 1732 07f5 09       		.uleb128 0x9
 1733 07f6 C1040000 		.4byte	.LASF131
 1734 07fa 09       		.byte	0x9
 1735 07fb D802     		.2byte	0x2d8
 1736 07fd AE040000 		.4byte	0x4ae
 1737 0801 60       		.byte	0x60
 1738 0802 09       		.uleb128 0x9
 1739 0803 36050000 		.4byte	.LASF132
 1740 0807 09       		.byte	0x9
 1741 0808 D902     		.2byte	0x2d9
 1742 080a AE040000 		.4byte	0x4ae
 1743 080e 64       		.byte	0x64
 1744 080f 09       		.uleb128 0x9
 1745 0810 C1050000 		.4byte	.LASF133
 1746 0814 09       		.byte	0x9
 1747 0815 DA02     		.2byte	0x2da
 1748 0817 AE040000 		.4byte	0x4ae
 1749 081b 68       		.byte	0x68
 1750 081c 09       		.uleb128 0x9
 1751 081d 14060000 		.4byte	.LASF134
 1752 0821 09       		.byte	0x9
 1753 0822 DB02     		.2byte	0x2db
 1754 0824 AE040000 		.4byte	0x4ae
 1755 0828 6C       		.byte	0x6c
 1756 0829 09       		.uleb128 0x9
 1757 082a 4B080000 		.4byte	.LASF135
 1758 082e 09       		.byte	0x9
 1759 082f DC02     		.2byte	0x2dc
 1760 0831 AE040000 		.4byte	0x4ae
 1761 0835 70       		.byte	0x70
 1762 0836 09       		.uleb128 0x9
 1763 0837 9C080000 		.4byte	.LASF136
 1764 083b 09       		.byte	0x9
 1765 083c DD02     		.2byte	0x2dd
 1766 083e AE040000 		.4byte	0x4ae
ARM GAS  /tmp/ccaiZisL.s 			page 32


 1767 0842 74       		.byte	0x74
 1768 0843 09       		.uleb128 0x9
 1769 0844 F6000000 		.4byte	.LASF137
 1770 0848 09       		.byte	0x9
 1771 0849 DE02     		.2byte	0x2de
 1772 084b AE040000 		.4byte	0x4ae
 1773 084f 78       		.byte	0x78
 1774 0850 09       		.uleb128 0x9
 1775 0851 C8010000 		.4byte	.LASF138
 1776 0855 09       		.byte	0x9
 1777 0856 DF02     		.2byte	0x2df
 1778 0858 AE040000 		.4byte	0x4ae
 1779 085c 7C       		.byte	0x7c
 1780 085d 09       		.uleb128 0x9
 1781 085e 7E020000 		.4byte	.LASF139
 1782 0862 09       		.byte	0x9
 1783 0863 E002     		.2byte	0x2e0
 1784 0865 AE040000 		.4byte	0x4ae
 1785 0869 80       		.byte	0x80
 1786 086a 09       		.uleb128 0x9
 1787 086b 66030000 		.4byte	.LASF140
 1788 086f 09       		.byte	0x9
 1789 0870 E102     		.2byte	0x2e1
 1790 0872 AE040000 		.4byte	0x4ae
 1791 0876 84       		.byte	0x84
 1792 0877 09       		.uleb128 0x9
 1793 0878 E1030000 		.4byte	.LASF141
 1794 087c 09       		.byte	0x9
 1795 087d E202     		.2byte	0x2e2
 1796 087f AE040000 		.4byte	0x4ae
 1797 0883 88       		.byte	0x88
 1798 0884 09       		.uleb128 0x9
 1799 0885 90040000 		.4byte	.LASF142
 1800 0889 09       		.byte	0x9
 1801 088a E302     		.2byte	0x2e3
 1802 088c AE040000 		.4byte	0x4ae
 1803 0890 8C       		.byte	0x8c
 1804 0891 09       		.uleb128 0x9
 1805 0892 13050000 		.4byte	.LASF143
 1806 0896 09       		.byte	0x9
 1807 0897 E402     		.2byte	0x2e4
 1808 0899 AE040000 		.4byte	0x4ae
 1809 089d 90       		.byte	0x90
 1810 089e 09       		.uleb128 0x9
 1811 089f 67050000 		.4byte	.LASF144
 1812 08a3 09       		.byte	0x9
 1813 08a4 E502     		.2byte	0x2e5
 1814 08a6 AE040000 		.4byte	0x4ae
 1815 08aa 94       		.byte	0x94
 1816 08ab 09       		.uleb128 0x9
 1817 08ac B1050000 		.4byte	.LASF145
 1818 08b0 09       		.byte	0x9
 1819 08b1 E602     		.2byte	0x2e6
 1820 08b3 AE040000 		.4byte	0x4ae
 1821 08b7 98       		.byte	0x98
 1822 08b8 09       		.uleb128 0x9
 1823 08b9 21080000 		.4byte	.LASF146
ARM GAS  /tmp/ccaiZisL.s 			page 33


 1824 08bd 09       		.byte	0x9
 1825 08be E702     		.2byte	0x2e7
 1826 08c0 AE040000 		.4byte	0x4ae
 1827 08c4 9C       		.byte	0x9c
 1828 08c5 00       		.byte	0
 1829 08c6 13       		.uleb128 0x13
 1830 08c7 76030000 		.4byte	.LASF147
 1831 08cb 09       		.byte	0x9
 1832 08cc E802     		.2byte	0x2e8
 1833 08ce B7060000 		.4byte	0x6b7
 1834 08d2 04       		.uleb128 0x4
 1835 08d3 4D000000 		.4byte	.LASF148
 1836 08d7 0A       		.byte	0xa
 1837 08d8 65       		.byte	0x65
 1838 08d9 46030000 		.4byte	0x346
 1839 08dd 04       		.uleb128 0x4
 1840 08de 460A0000 		.4byte	.LASF149
 1841 08e2 0A       		.byte	0xa
 1842 08e3 6D       		.byte	0x6d
 1843 08e4 EF000000 		.4byte	0xef
 1844 08e8 05       		.uleb128 0x5
 1845 08e9 21010000 		.4byte	.LASF150
 1846 08ed 04       		.byte	0x4
 1847 08ee 0A       		.byte	0xa
 1848 08ef 89       		.byte	0x89
 1849 08f0 00090000 		.4byte	0x900
 1850 08f4 07       		.uleb128 0x7
 1851 08f5 737000   		.ascii	"sp\000"
 1852 08f8 0A       		.byte	0xa
 1853 08f9 8A       		.byte	0x8a
 1854 08fa 4C0A0000 		.4byte	0xa4c
 1855 08fe 00       		.byte	0
 1856 08ff 00       		.byte	0
 1857 0900 0B       		.uleb128 0xb
 1858 0901 03080000 		.4byte	.LASF151
 1859 0905 64       		.byte	0x64
 1860 0906 0B       		.byte	0xb
 1861 0907 5901     		.2byte	0x159
 1862 0909 4C0A0000 		.4byte	0xa4c
 1863 090d 08       		.uleb128 0x8
 1864 090e 73313600 		.ascii	"s16\000"
 1865 0912 0B       		.byte	0xb
 1866 0913 5B01     		.2byte	0x15b
 1867 0915 D2080000 		.4byte	0x8d2
 1868 0919 00       		.byte	0
 1869 091a 08       		.uleb128 0x8
 1870 091b 73313700 		.ascii	"s17\000"
 1871 091f 0B       		.byte	0xb
 1872 0920 5C01     		.2byte	0x15c
 1873 0922 D2080000 		.4byte	0x8d2
 1874 0926 04       		.byte	0x4
 1875 0927 08       		.uleb128 0x8
 1876 0928 73313800 		.ascii	"s18\000"
 1877 092c 0B       		.byte	0xb
 1878 092d 5D01     		.2byte	0x15d
 1879 092f D2080000 		.4byte	0x8d2
 1880 0933 08       		.byte	0x8
ARM GAS  /tmp/ccaiZisL.s 			page 34


 1881 0934 08       		.uleb128 0x8
 1882 0935 73313900 		.ascii	"s19\000"
 1883 0939 0B       		.byte	0xb
 1884 093a 5E01     		.2byte	0x15e
 1885 093c D2080000 		.4byte	0x8d2
 1886 0940 0C       		.byte	0xc
 1887 0941 08       		.uleb128 0x8
 1888 0942 73323000 		.ascii	"s20\000"
 1889 0946 0B       		.byte	0xb
 1890 0947 5F01     		.2byte	0x15f
 1891 0949 D2080000 		.4byte	0x8d2
 1892 094d 10       		.byte	0x10
 1893 094e 08       		.uleb128 0x8
 1894 094f 73323100 		.ascii	"s21\000"
 1895 0953 0B       		.byte	0xb
 1896 0954 6001     		.2byte	0x160
 1897 0956 D2080000 		.4byte	0x8d2
 1898 095a 14       		.byte	0x14
 1899 095b 08       		.uleb128 0x8
 1900 095c 73323200 		.ascii	"s22\000"
 1901 0960 0B       		.byte	0xb
 1902 0961 6101     		.2byte	0x161
 1903 0963 D2080000 		.4byte	0x8d2
 1904 0967 18       		.byte	0x18
 1905 0968 08       		.uleb128 0x8
 1906 0969 73323300 		.ascii	"s23\000"
 1907 096d 0B       		.byte	0xb
 1908 096e 6201     		.2byte	0x162
 1909 0970 D2080000 		.4byte	0x8d2
 1910 0974 1C       		.byte	0x1c
 1911 0975 08       		.uleb128 0x8
 1912 0976 73323400 		.ascii	"s24\000"
 1913 097a 0B       		.byte	0xb
 1914 097b 6301     		.2byte	0x163
 1915 097d D2080000 		.4byte	0x8d2
 1916 0981 20       		.byte	0x20
 1917 0982 08       		.uleb128 0x8
 1918 0983 73323500 		.ascii	"s25\000"
 1919 0987 0B       		.byte	0xb
 1920 0988 6401     		.2byte	0x164
 1921 098a D2080000 		.4byte	0x8d2
 1922 098e 24       		.byte	0x24
 1923 098f 08       		.uleb128 0x8
 1924 0990 73323600 		.ascii	"s26\000"
 1925 0994 0B       		.byte	0xb
 1926 0995 6501     		.2byte	0x165
 1927 0997 D2080000 		.4byte	0x8d2
 1928 099b 28       		.byte	0x28
 1929 099c 08       		.uleb128 0x8
 1930 099d 73323700 		.ascii	"s27\000"
 1931 09a1 0B       		.byte	0xb
 1932 09a2 6601     		.2byte	0x166
 1933 09a4 D2080000 		.4byte	0x8d2
 1934 09a8 2C       		.byte	0x2c
 1935 09a9 08       		.uleb128 0x8
 1936 09aa 73323800 		.ascii	"s28\000"
 1937 09ae 0B       		.byte	0xb
ARM GAS  /tmp/ccaiZisL.s 			page 35


 1938 09af 6701     		.2byte	0x167
 1939 09b1 D2080000 		.4byte	0x8d2
 1940 09b5 30       		.byte	0x30
 1941 09b6 08       		.uleb128 0x8
 1942 09b7 73323900 		.ascii	"s29\000"
 1943 09bb 0B       		.byte	0xb
 1944 09bc 6801     		.2byte	0x168
 1945 09be D2080000 		.4byte	0x8d2
 1946 09c2 34       		.byte	0x34
 1947 09c3 08       		.uleb128 0x8
 1948 09c4 73333000 		.ascii	"s30\000"
 1949 09c8 0B       		.byte	0xb
 1950 09c9 6901     		.2byte	0x169
 1951 09cb D2080000 		.4byte	0x8d2
 1952 09cf 38       		.byte	0x38
 1953 09d0 08       		.uleb128 0x8
 1954 09d1 73333100 		.ascii	"s31\000"
 1955 09d5 0B       		.byte	0xb
 1956 09d6 6A01     		.2byte	0x16a
 1957 09d8 D2080000 		.4byte	0x8d2
 1958 09dc 3C       		.byte	0x3c
 1959 09dd 08       		.uleb128 0x8
 1960 09de 723400   		.ascii	"r4\000"
 1961 09e1 0B       		.byte	0xb
 1962 09e2 6C01     		.2byte	0x16c
 1963 09e4 D2080000 		.4byte	0x8d2
 1964 09e8 40       		.byte	0x40
 1965 09e9 08       		.uleb128 0x8
 1966 09ea 723500   		.ascii	"r5\000"
 1967 09ed 0B       		.byte	0xb
 1968 09ee 6D01     		.2byte	0x16d
 1969 09f0 D2080000 		.4byte	0x8d2
 1970 09f4 44       		.byte	0x44
 1971 09f5 08       		.uleb128 0x8
 1972 09f6 723600   		.ascii	"r6\000"
 1973 09f9 0B       		.byte	0xb
 1974 09fa 6E01     		.2byte	0x16e
 1975 09fc D2080000 		.4byte	0x8d2
 1976 0a00 48       		.byte	0x48
 1977 0a01 08       		.uleb128 0x8
 1978 0a02 723700   		.ascii	"r7\000"
 1979 0a05 0B       		.byte	0xb
 1980 0a06 6F01     		.2byte	0x16f
 1981 0a08 D2080000 		.4byte	0x8d2
 1982 0a0c 4C       		.byte	0x4c
 1983 0a0d 08       		.uleb128 0x8
 1984 0a0e 723800   		.ascii	"r8\000"
 1985 0a11 0B       		.byte	0xb
 1986 0a12 7001     		.2byte	0x170
 1987 0a14 D2080000 		.4byte	0x8d2
 1988 0a18 50       		.byte	0x50
 1989 0a19 08       		.uleb128 0x8
 1990 0a1a 723900   		.ascii	"r9\000"
 1991 0a1d 0B       		.byte	0xb
 1992 0a1e 7101     		.2byte	0x171
 1993 0a20 D2080000 		.4byte	0x8d2
 1994 0a24 54       		.byte	0x54
ARM GAS  /tmp/ccaiZisL.s 			page 36


 1995 0a25 08       		.uleb128 0x8
 1996 0a26 72313000 		.ascii	"r10\000"
 1997 0a2a 0B       		.byte	0xb
 1998 0a2b 7201     		.2byte	0x172
 1999 0a2d D2080000 		.4byte	0x8d2
 2000 0a31 58       		.byte	0x58
 2001 0a32 08       		.uleb128 0x8
 2002 0a33 72313100 		.ascii	"r11\000"
 2003 0a37 0B       		.byte	0xb
 2004 0a38 7301     		.2byte	0x173
 2005 0a3a D2080000 		.4byte	0x8d2
 2006 0a3e 5C       		.byte	0x5c
 2007 0a3f 08       		.uleb128 0x8
 2008 0a40 6C7200   		.ascii	"lr\000"
 2009 0a43 0B       		.byte	0xb
 2010 0a44 7401     		.2byte	0x174
 2011 0a46 D2080000 		.4byte	0x8d2
 2012 0a4a 60       		.byte	0x60
 2013 0a4b 00       		.byte	0
 2014 0a4c 0A       		.uleb128 0xa
 2015 0a4d 04       		.byte	0x4
 2016 0a4e 00090000 		.4byte	0x900
 2017 0a52 12       		.uleb128 0x12
 2018 0a53 60       		.byte	0x60
 2019 0a54 0C       		.byte	0xc
 2020 0a55 F501     		.2byte	0x1f5
 2021 0a57 5E0B0000 		.4byte	0xb5e
 2022 0a5b 08       		.uleb128 0x8
 2023 0a5c 43523100 		.ascii	"CR1\000"
 2024 0a60 0C       		.byte	0xc
 2025 0a61 F601     		.2byte	0x1f6
 2026 0a63 AE040000 		.4byte	0x4ae
 2027 0a67 00       		.byte	0
 2028 0a68 08       		.uleb128 0x8
 2029 0a69 43523200 		.ascii	"CR2\000"
 2030 0a6d 0C       		.byte	0xc
 2031 0a6e F701     		.2byte	0x1f7
 2032 0a70 AE040000 		.4byte	0x4ae
 2033 0a74 04       		.byte	0x4
 2034 0a75 09       		.uleb128 0x9
 2035 0a76 D8040000 		.4byte	.LASF152
 2036 0a7a 0C       		.byte	0xc
 2037 0a7b F801     		.2byte	0x1f8
 2038 0a7d AE040000 		.4byte	0x4ae
 2039 0a81 08       		.byte	0x8
 2040 0a82 09       		.uleb128 0x9
 2041 0a83 DC030000 		.4byte	.LASF153
 2042 0a87 0C       		.byte	0xc
 2043 0a88 F901     		.2byte	0x1f9
 2044 0a8a AE040000 		.4byte	0x4ae
 2045 0a8e 0C       		.byte	0xc
 2046 0a8f 08       		.uleb128 0x8
 2047 0a90 535200   		.ascii	"SR\000"
 2048 0a93 0C       		.byte	0xc
 2049 0a94 FA01     		.2byte	0x1fa
 2050 0a96 AE040000 		.4byte	0x4ae
 2051 0a9a 10       		.byte	0x10
ARM GAS  /tmp/ccaiZisL.s 			page 37


 2052 0a9b 08       		.uleb128 0x8
 2053 0a9c 45475200 		.ascii	"EGR\000"
 2054 0aa0 0C       		.byte	0xc
 2055 0aa1 FB01     		.2byte	0x1fb
 2056 0aa3 AE040000 		.4byte	0x4ae
 2057 0aa7 14       		.byte	0x14
 2058 0aa8 09       		.uleb128 0x9
 2059 0aa9 6C020000 		.4byte	.LASF154
 2060 0aad 0C       		.byte	0xc
 2061 0aae FC01     		.2byte	0x1fc
 2062 0ab0 AE040000 		.4byte	0x4ae
 2063 0ab4 18       		.byte	0x18
 2064 0ab5 09       		.uleb128 0x9
 2065 0ab6 72020000 		.4byte	.LASF155
 2066 0aba 0C       		.byte	0xc
 2067 0abb FD01     		.2byte	0x1fd
 2068 0abd AE040000 		.4byte	0x4ae
 2069 0ac1 1C       		.byte	0x1c
 2070 0ac2 09       		.uleb128 0x9
 2071 0ac3 5C040000 		.4byte	.LASF156
 2072 0ac7 0C       		.byte	0xc
 2073 0ac8 FE01     		.2byte	0x1fe
 2074 0aca AE040000 		.4byte	0x4ae
 2075 0ace 20       		.byte	0x20
 2076 0acf 08       		.uleb128 0x8
 2077 0ad0 434E5400 		.ascii	"CNT\000"
 2078 0ad4 0C       		.byte	0xc
 2079 0ad5 FF01     		.2byte	0x1ff
 2080 0ad7 AE040000 		.4byte	0x4ae
 2081 0adb 24       		.byte	0x24
 2082 0adc 08       		.uleb128 0x8
 2083 0add 50534300 		.ascii	"PSC\000"
 2084 0ae1 0C       		.byte	0xc
 2085 0ae2 0002     		.2byte	0x200
 2086 0ae4 AE040000 		.4byte	0x4ae
 2087 0ae8 28       		.byte	0x28
 2088 0ae9 08       		.uleb128 0x8
 2089 0aea 41525200 		.ascii	"ARR\000"
 2090 0aee 0C       		.byte	0xc
 2091 0aef 0102     		.2byte	0x201
 2092 0af1 AE040000 		.4byte	0x4ae
 2093 0af5 2C       		.byte	0x2c
 2094 0af6 08       		.uleb128 0x8
 2095 0af7 52435200 		.ascii	"RCR\000"
 2096 0afb 0C       		.byte	0xc
 2097 0afc 0202     		.2byte	0x202
 2098 0afe AE040000 		.4byte	0x4ae
 2099 0b02 30       		.byte	0x30
 2100 0b03 08       		.uleb128 0x8
 2101 0b04 43435200 		.ascii	"CCR\000"
 2102 0b08 0C       		.byte	0xc
 2103 0b09 0302     		.2byte	0x203
 2104 0b0b 5E0B0000 		.4byte	0xb5e
 2105 0b0f 34       		.byte	0x34
 2106 0b10 09       		.uleb128 0x9
 2107 0b11 20020000 		.4byte	.LASF157
 2108 0b15 0C       		.byte	0xc
ARM GAS  /tmp/ccaiZisL.s 			page 38


 2109 0b16 0402     		.2byte	0x204
 2110 0b18 AE040000 		.4byte	0x4ae
 2111 0b1c 44       		.byte	0x44
 2112 0b1d 08       		.uleb128 0x8
 2113 0b1e 44435200 		.ascii	"DCR\000"
 2114 0b22 0C       		.byte	0xc
 2115 0b23 0502     		.2byte	0x205
 2116 0b25 AE040000 		.4byte	0x4ae
 2117 0b29 48       		.byte	0x48
 2118 0b2a 09       		.uleb128 0x9
 2119 0b2b A3010000 		.4byte	.LASF158
 2120 0b2f 0C       		.byte	0xc
 2121 0b30 0602     		.2byte	0x206
 2122 0b32 AE040000 		.4byte	0x4ae
 2123 0b36 4C       		.byte	0x4c
 2124 0b37 08       		.uleb128 0x8
 2125 0b38 4F5200   		.ascii	"OR\000"
 2126 0b3b 0C       		.byte	0xc
 2127 0b3c 0702     		.2byte	0x207
 2128 0b3e AE040000 		.4byte	0x4ae
 2129 0b42 50       		.byte	0x50
 2130 0b43 09       		.uleb128 0x9
 2131 0b44 78020000 		.4byte	.LASF159
 2132 0b48 0C       		.byte	0xc
 2133 0b49 0802     		.2byte	0x208
 2134 0b4b AE040000 		.4byte	0x4ae
 2135 0b4f 54       		.byte	0x54
 2136 0b50 09       		.uleb128 0x9
 2137 0b51 1C080000 		.4byte	.LASF160
 2138 0b55 0C       		.byte	0xc
 2139 0b56 0902     		.2byte	0x209
 2140 0b58 630B0000 		.4byte	0xb63
 2141 0b5c 58       		.byte	0x58
 2142 0b5d 00       		.byte	0
 2143 0b5e 0F       		.uleb128 0xf
 2144 0b5f C3040000 		.4byte	0x4c3
 2145 0b63 0F       		.uleb128 0xf
 2146 0b64 B3040000 		.4byte	0x4b3
 2147 0b68 13       		.uleb128 0x13
 2148 0b69 A5030000 		.4byte	.LASF161
 2149 0b6d 0C       		.byte	0xc
 2150 0b6e 0A02     		.2byte	0x20a
 2151 0b70 520A0000 		.4byte	0xa52
 2152 0b74 14       		.uleb128 0x14
 2153 0b75 04       		.byte	0x4
 2154 0b76 0D       		.byte	0xd
 2155 0b77 38       		.byte	0x38
 2156 0b78 890B0000 		.4byte	0xb89
 2157 0b7c 06       		.uleb128 0x6
 2158 0b7d 9E030000 		.4byte	.LASF162
 2159 0b81 0D       		.byte	0xd
 2160 0b82 3C       		.byte	0x3c
 2161 0b83 FA000000 		.4byte	0xfa
 2162 0b87 00       		.byte	0
 2163 0b88 00       		.byte	0
 2164 0b89 04       		.uleb128 0x4
 2165 0b8a 1C000000 		.4byte	.LASF163
ARM GAS  /tmp/ccaiZisL.s 			page 39


 2166 0b8e 0D       		.byte	0xd
 2167 0b8f 3D       		.byte	0x3d
 2168 0b90 740B0000 		.4byte	0xb74
 2169 0b94 14       		.uleb128 0x14
 2170 0b95 18       		.byte	0x18
 2171 0b96 0D       		.byte	0xd
 2172 0b97 48       		.byte	0x48
 2173 0b98 D70B0000 		.4byte	0xbd7
 2174 0b9c 06       		.uleb128 0x6
 2175 0b9d 2E090000 		.4byte	.LASF164
 2176 0ba1 0D       		.byte	0xd
 2177 0ba2 49       		.byte	0x49
 2178 0ba3 FA000000 		.4byte	0xfa
 2179 0ba7 00       		.byte	0
 2180 0ba8 06       		.uleb128 0x6
 2181 0ba9 0F030000 		.4byte	.LASF165
 2182 0bad 0D       		.byte	0xd
 2183 0bae 4A       		.byte	0x4a
 2184 0baf FA000000 		.4byte	0xfa
 2185 0bb3 04       		.byte	0x4
 2186 0bb4 06       		.uleb128 0x6
 2187 0bb5 E8030000 		.4byte	.LASF166
 2188 0bb9 0D       		.byte	0xd
 2189 0bba 4B       		.byte	0x4b
 2190 0bbb FA000000 		.4byte	0xfa
 2191 0bbf 08       		.byte	0x8
 2192 0bc0 07       		.uleb128 0x7
 2193 0bc1 6E00     		.ascii	"n\000"
 2194 0bc3 0D       		.byte	0xd
 2195 0bc4 4C       		.byte	0x4c
 2196 0bc5 5D010000 		.4byte	0x15d
 2197 0bc9 0C       		.byte	0xc
 2198 0bca 06       		.uleb128 0x6
 2199 0bcb CC000000 		.4byte	.LASF167
 2200 0bcf 0D       		.byte	0xd
 2201 0bd0 4D       		.byte	0x4d
 2202 0bd1 05010000 		.4byte	0x105
 2203 0bd5 10       		.byte	0x10
 2204 0bd6 00       		.byte	0
 2205 0bd7 04       		.uleb128 0x4
 2206 0bd8 35040000 		.4byte	.LASF168
 2207 0bdc 0D       		.byte	0xd
 2208 0bdd 4E       		.byte	0x4e
 2209 0bde 940B0000 		.4byte	0xb94
 2210 0be2 14       		.uleb128 0x14
 2211 0be3 38       		.byte	0x38
 2212 0be4 0E       		.byte	0xe
 2213 0be5 38       		.byte	0x38
 2214 0be6 1B0C0000 		.4byte	0xc1b
 2215 0bea 06       		.uleb128 0x6
 2216 0beb 43070000 		.4byte	.LASF169
 2217 0bef 0E       		.byte	0xe
 2218 0bf0 39       		.byte	0x39
 2219 0bf1 5D010000 		.4byte	0x15d
 2220 0bf5 00       		.byte	0
 2221 0bf6 06       		.uleb128 0x6
 2222 0bf7 6E050000 		.4byte	.LASF170
ARM GAS  /tmp/ccaiZisL.s 			page 40


 2223 0bfb 0E       		.byte	0xe
 2224 0bfc 3A       		.byte	0x3a
 2225 0bfd 5D010000 		.4byte	0x15d
 2226 0c01 04       		.byte	0x4
 2227 0c02 06       		.uleb128 0x6
 2228 0c03 39080000 		.4byte	.LASF171
 2229 0c07 0E       		.byte	0xe
 2230 0c08 3B       		.byte	0x3b
 2231 0c09 D70B0000 		.4byte	0xbd7
 2232 0c0d 08       		.byte	0x8
 2233 0c0e 06       		.uleb128 0x6
 2234 0c0f B2000000 		.4byte	.LASF172
 2235 0c13 0E       		.byte	0xe
 2236 0c14 3D       		.byte	0x3d
 2237 0c15 D70B0000 		.4byte	0xbd7
 2238 0c19 20       		.byte	0x20
 2239 0c1a 00       		.byte	0
 2240 0c1b 04       		.uleb128 0x4
 2241 0c1c 0A020000 		.4byte	.LASF173
 2242 0c20 0E       		.byte	0xe
 2243 0c21 3F       		.byte	0x3f
 2244 0c22 E20B0000 		.4byte	0xbe2
 2245 0c26 15       		.uleb128 0x15
 2246 0c27 04       		.byte	0x4
 2247 0c28 07       		.byte	0x7
 2248 0c29 C6       		.byte	0xc6
 2249 0c2a 880C0000 		.4byte	0xc88
 2250 0c2e 16       		.uleb128 0x16
 2251 0c2f 8F030000 		.4byte	.LASF174
 2252 0c33 07       		.byte	0x7
 2253 0c34 CD       		.byte	0xcd
 2254 0c35 3C010000 		.4byte	0x13c
 2255 0c39 16       		.uleb128 0x16
 2256 0c3a A70A0000 		.4byte	.LASF175
 2257 0c3e 07       		.byte	0x7
 2258 0c3f D4       		.byte	0xd4
 2259 0c40 3C010000 		.4byte	0x13c
 2260 0c44 16       		.uleb128 0x16
 2261 0c45 C1010000 		.4byte	.LASF176
 2262 0c49 07       		.byte	0x7
 2263 0c4a DB       		.byte	0xdb
 2264 0c4b 46030000 		.4byte	0x346
 2265 0c4f 16       		.uleb128 0x16
 2266 0c50 9B0A0000 		.4byte	.LASF177
 2267 0c54 07       		.byte	0x7
 2268 0c55 E2       		.byte	0xe2
 2269 0c56 880C0000 		.4byte	0xc88
 2270 0c5a 16       		.uleb128 0x16
 2271 0c5b 02020000 		.4byte	.LASF178
 2272 0c5f 07       		.byte	0x7
 2273 0c60 E7       		.byte	0xe7
 2274 0c61 3C010000 		.4byte	0x13c
 2275 0c65 16       		.uleb128 0x16
 2276 0c66 07090000 		.4byte	.LASF179
 2277 0c6a 07       		.byte	0x7
 2278 0c6b F0       		.byte	0xf0
 2279 0c6c B30C0000 		.4byte	0xcb3
ARM GAS  /tmp/ccaiZisL.s 			page 41


 2280 0c70 16       		.uleb128 0x16
 2281 0c71 15000000 		.4byte	.LASF180
 2282 0c75 07       		.byte	0x7
 2283 0c76 F9       		.byte	0xf9
 2284 0c77 EA0C0000 		.4byte	0xcea
 2285 0c7b 17       		.uleb128 0x17
 2286 0c7c 8D010000 		.4byte	.LASF181
 2287 0c80 07       		.byte	0x7
 2288 0c81 0101     		.2byte	0x101
 2289 0c83 47010000 		.4byte	0x147
 2290 0c87 00       		.byte	0
 2291 0c88 0A       		.uleb128 0xa
 2292 0c89 04       		.byte	0x4
 2293 0c8a 5E020000 		.4byte	0x25e
 2294 0c8e 05       		.uleb128 0x5
 2295 0c8f 32020000 		.4byte	.LASF182
 2296 0c93 0C       		.byte	0xc
 2297 0c94 0F       		.byte	0xf
 2298 0c95 34       		.byte	0x34
 2299 0c96 B30C0000 		.4byte	0xcb3
 2300 0c9a 06       		.uleb128 0x6
 2301 0c9b F4080000 		.4byte	.LASF33
 2302 0c9f 0F       		.byte	0xf
 2303 0ca0 35       		.byte	0x35
 2304 0ca1 93020000 		.4byte	0x293
 2305 0ca5 00       		.byte	0
 2306 0ca6 07       		.uleb128 0x7
 2307 0ca7 636E7400 		.ascii	"cnt\000"
 2308 0cab 0F       		.byte	0xf
 2309 0cac 37       		.byte	0x37
 2310 0cad 52010000 		.4byte	0x152
 2311 0cb1 08       		.byte	0x8
 2312 0cb2 00       		.byte	0
 2313 0cb3 0A       		.uleb128 0xa
 2314 0cb4 04       		.byte	0x4
 2315 0cb5 8E0C0000 		.4byte	0xc8e
 2316 0cb9 05       		.uleb128 0x5
 2317 0cba D3030000 		.4byte	.LASF183
 2318 0cbe 10       		.byte	0x10
 2319 0cbf 10       		.byte	0x10
 2320 0cc0 39       		.byte	0x39
 2321 0cc1 EA0C0000 		.4byte	0xcea
 2322 0cc5 06       		.uleb128 0x6
 2323 0cc6 F4080000 		.4byte	.LASF33
 2324 0cca 10       		.byte	0x10
 2325 0ccb 3A       		.byte	0x3a
 2326 0ccc 93020000 		.4byte	0x293
 2327 0cd0 00       		.byte	0
 2328 0cd1 06       		.uleb128 0x6
 2329 0cd2 22030000 		.4byte	.LASF184
 2330 0cd6 10       		.byte	0x10
 2331 0cd7 3C       		.byte	0x3c
 2332 0cd8 69020000 		.4byte	0x269
 2333 0cdc 08       		.byte	0x8
 2334 0cdd 06       		.uleb128 0x6
 2335 0cde AD000000 		.4byte	.LASF53
 2336 0ce2 10       		.byte	0x10
ARM GAS  /tmp/ccaiZisL.s 			page 42


 2337 0ce3 3E       		.byte	0x3e
 2338 0ce4 1E0D0000 		.4byte	0xd1e
 2339 0ce8 0C       		.byte	0xc
 2340 0ce9 00       		.byte	0
 2341 0cea 0A       		.uleb128 0xa
 2342 0ceb 04       		.byte	0x4
 2343 0cec B90C0000 		.4byte	0xcb9
 2344 0cf0 0A       		.uleb128 0xa
 2345 0cf1 04       		.byte	0x4
 2346 0cf2 F60C0000 		.4byte	0xcf6
 2347 0cf6 18       		.uleb128 0x18
 2348 0cf7 FB0C0000 		.4byte	0xcfb
 2349 0cfb 02       		.uleb128 0x2
 2350 0cfc 01       		.byte	0x1
 2351 0cfd 08       		.byte	0x8
 2352 0cfe 61040000 		.4byte	.LASF185
 2353 0d02 0A       		.uleb128 0xa
 2354 0d03 04       		.byte	0x4
 2355 0d04 DD080000 		.4byte	0x8dd
 2356 0d08 0A       		.uleb128 0xa
 2357 0d09 04       		.byte	0x4
 2358 0d0a 48030000 		.4byte	0x348
 2359 0d0e 0F       		.uleb128 0xf
 2360 0d0f F00C0000 		.4byte	0xcf0
 2361 0d13 04       		.uleb128 0x4
 2362 0d14 15090000 		.4byte	.LASF186
 2363 0d18 10       		.byte	0x10
 2364 0d19 34       		.byte	0x34
 2365 0d1a B90C0000 		.4byte	0xcb9
 2366 0d1e 0A       		.uleb128 0xa
 2367 0d1f 04       		.byte	0x4
 2368 0d20 130D0000 		.4byte	0xd13
 2369 0d24 02       		.uleb128 0x2
 2370 0d25 01       		.byte	0x1
 2371 0d26 02       		.byte	0x2
 2372 0d27 B6030000 		.4byte	.LASF187
 2373 0d2b 14       		.uleb128 0x14
 2374 0d2c 04       		.byte	0x4
 2375 0d2d 11       		.byte	0x11
 2376 0d2e 5B       		.byte	0x5b
 2377 0d2f 4C0D0000 		.4byte	0xd4c
 2378 0d33 07       		.uleb128 0x7
 2379 0d34 73657400 		.ascii	"set\000"
 2380 0d38 11       		.byte	0x11
 2381 0d39 5C       		.byte	0x5c
 2382 0d3a C3000000 		.4byte	0xc3
 2383 0d3e 00       		.byte	0
 2384 0d3f 06       		.uleb128 0x6
 2385 0d40 41030000 		.4byte	.LASF188
 2386 0d44 11       		.byte	0x11
 2387 0d45 5D       		.byte	0x5d
 2388 0d46 C3000000 		.4byte	0xc3
 2389 0d4a 02       		.byte	0x2
 2390 0d4b 00       		.byte	0
 2391 0d4c 15       		.uleb128 0x15
 2392 0d4d 04       		.byte	0x4
 2393 0d4e 11       		.byte	0x11
ARM GAS  /tmp/ccaiZisL.s 			page 43


 2394 0d4f 59       		.byte	0x59
 2395 0d50 670D0000 		.4byte	0xd67
 2396 0d54 19       		.uleb128 0x19
 2397 0d55 5700     		.ascii	"W\000"
 2398 0d57 11       		.byte	0x11
 2399 0d58 5A       		.byte	0x5a
 2400 0d59 D9000000 		.4byte	0xd9
 2401 0d5d 19       		.uleb128 0x19
 2402 0d5e 4800     		.ascii	"H\000"
 2403 0d60 11       		.byte	0x11
 2404 0d61 5E       		.byte	0x5e
 2405 0d62 2B0D0000 		.4byte	0xd2b
 2406 0d66 00       		.byte	0
 2407 0d67 14       		.uleb128 0x14
 2408 0d68 28       		.byte	0x28
 2409 0d69 11       		.byte	0x11
 2410 0d6a 51       		.byte	0x51
 2411 0d6b E80D0000 		.4byte	0xde8
 2412 0d6f 06       		.uleb128 0x6
 2413 0d70 F7020000 		.4byte	.LASF189
 2414 0d74 11       		.byte	0x11
 2415 0d75 53       		.byte	0x53
 2416 0d76 AE040000 		.4byte	0x4ae
 2417 0d7a 00       		.byte	0
 2418 0d7b 06       		.uleb128 0x6
 2419 0d7c 44080000 		.4byte	.LASF190
 2420 0d80 11       		.byte	0x11
 2421 0d81 54       		.byte	0x54
 2422 0d82 AE040000 		.4byte	0x4ae
 2423 0d86 04       		.byte	0x4
 2424 0d87 06       		.uleb128 0x6
 2425 0d88 99050000 		.4byte	.LASF191
 2426 0d8c 11       		.byte	0x11
 2427 0d8d 55       		.byte	0x55
 2428 0d8e AE040000 		.4byte	0x4ae
 2429 0d92 08       		.byte	0x8
 2430 0d93 06       		.uleb128 0x6
 2431 0d94 2F040000 		.4byte	.LASF192
 2432 0d98 11       		.byte	0x11
 2433 0d99 56       		.byte	0x56
 2434 0d9a AE040000 		.4byte	0x4ae
 2435 0d9e 0C       		.byte	0xc
 2436 0d9f 07       		.uleb128 0x7
 2437 0da0 49445200 		.ascii	"IDR\000"
 2438 0da4 11       		.byte	0x11
 2439 0da5 57       		.byte	0x57
 2440 0da6 AE040000 		.4byte	0x4ae
 2441 0daa 10       		.byte	0x10
 2442 0dab 07       		.uleb128 0x7
 2443 0dac 4F445200 		.ascii	"ODR\000"
 2444 0db0 11       		.byte	0x11
 2445 0db1 58       		.byte	0x58
 2446 0db2 AE040000 		.4byte	0x4ae
 2447 0db6 14       		.byte	0x14
 2448 0db7 06       		.uleb128 0x6
 2449 0db8 00000000 		.4byte	.LASF193
 2450 0dbc 11       		.byte	0x11
ARM GAS  /tmp/ccaiZisL.s 			page 44


 2451 0dbd 5F       		.byte	0x5f
 2452 0dbe E80D0000 		.4byte	0xde8
 2453 0dc2 18       		.byte	0x18
 2454 0dc3 06       		.uleb128 0x6
 2455 0dc4 AB050000 		.4byte	.LASF194
 2456 0dc8 11       		.byte	0x11
 2457 0dc9 60       		.byte	0x60
 2458 0dca AE040000 		.4byte	0x4ae
 2459 0dce 1C       		.byte	0x1c
 2460 0dcf 06       		.uleb128 0x6
 2461 0dd0 47090000 		.4byte	.LASF195
 2462 0dd4 11       		.byte	0x11
 2463 0dd5 61       		.byte	0x61
 2464 0dd6 AE040000 		.4byte	0x4ae
 2465 0dda 20       		.byte	0x20
 2466 0ddb 06       		.uleb128 0x6
 2467 0ddc 0A030000 		.4byte	.LASF196
 2468 0de0 11       		.byte	0x11
 2469 0de1 62       		.byte	0x62
 2470 0de2 AE040000 		.4byte	0x4ae
 2471 0de6 24       		.byte	0x24
 2472 0de7 00       		.byte	0
 2473 0de8 0F       		.uleb128 0xf
 2474 0de9 4C0D0000 		.4byte	0xd4c
 2475 0ded 04       		.uleb128 0x4
 2476 0dee 15030000 		.4byte	.LASF197
 2477 0df2 11       		.byte	0x11
 2478 0df3 63       		.byte	0x63
 2479 0df4 670D0000 		.4byte	0xd67
 2480 0df8 04       		.uleb128 0x4
 2481 0df9 FA090000 		.4byte	.LASF198
 2482 0dfd 12       		.byte	0x12
 2483 0dfe C7       		.byte	0xc7
 2484 0dff D9000000 		.4byte	0xd9
 2485 0e03 04       		.uleb128 0x4
 2486 0e04 09010000 		.4byte	.LASF199
 2487 0e08 12       		.byte	0x12
 2488 0e09 CC       		.byte	0xcc
 2489 0e0a D9000000 		.4byte	0xd9
 2490 0e0e 04       		.uleb128 0x4
 2491 0e0f FD030000 		.4byte	.LASF200
 2492 0e13 12       		.byte	0x12
 2493 0e14 D9       		.byte	0xd9
 2494 0e15 190E0000 		.4byte	0xe19
 2495 0e19 0A       		.uleb128 0xa
 2496 0e1a 04       		.byte	0x4
 2497 0e1b ED0D0000 		.4byte	0xded
 2498 0e1f 0A       		.uleb128 0xa
 2499 0e20 04       		.byte	0x4
 2500 0e21 680B0000 		.4byte	0xb68
 2501 0e25 1A       		.uleb128 0x1a
 2502 0e26 C4030000 		.4byte	.LASF246
 2503 0e2a 04       		.byte	0x4
 2504 0e2b 13       		.byte	0x13
 2505 0e2c 39       		.byte	0x39
 2506 0e2d 4C0E0000 		.4byte	0xe4c
 2507 0e31 1B       		.uleb128 0x1b
ARM GAS  /tmp/ccaiZisL.s 			page 45


 2508 0e32 40000000 		.4byte	.LASF201
 2509 0e36 00       		.sleb128 0
 2510 0e37 1B       		.uleb128 0x1b
 2511 0e38 CA090000 		.4byte	.LASF202
 2512 0e3c 81809C80 		.sleb128 2953248769
 2512      0B
 2513 0e41 1B       		.uleb128 0x1b
 2514 0e42 3C050000 		.4byte	.LASF203
 2515 0e46 82809C80 		.sleb128 2953248770
 2515      0B
 2516 0e4b 00       		.byte	0
 2517 0e4c 05       		.uleb128 0x5
 2518 0e4d 08040000 		.4byte	.LASF204
 2519 0e51 06       		.byte	0x6
 2520 0e52 01       		.byte	0x1
 2521 0e53 75       		.byte	0x75
 2522 0e54 A10E0000 		.4byte	0xea1
 2523 0e58 06       		.uleb128 0x6
 2524 0e59 97040000 		.4byte	.LASF205
 2525 0e5d 01       		.byte	0x1
 2526 0e5e 76       		.byte	0x76
 2527 0e5f B8000000 		.4byte	0xb8
 2528 0e63 00       		.byte	0
 2529 0e64 06       		.uleb128 0x6
 2530 0e65 19020000 		.4byte	.LASF206
 2531 0e69 01       		.byte	0x1
 2532 0e6a 77       		.byte	0x77
 2533 0e6b B8000000 		.4byte	0xb8
 2534 0e6f 01       		.byte	0x1
 2535 0e70 06       		.uleb128 0x6
 2536 0e71 19010000 		.4byte	.LASF207
 2537 0e75 01       		.byte	0x1
 2538 0e76 78       		.byte	0x78
 2539 0e77 B8000000 		.4byte	0xb8
 2540 0e7b 02       		.byte	0x2
 2541 0e7c 06       		.uleb128 0x6
 2542 0e7d 0D0A0000 		.4byte	.LASF208
 2543 0e81 01       		.byte	0x1
 2544 0e82 79       		.byte	0x79
 2545 0e83 B8000000 		.4byte	0xb8
 2546 0e87 03       		.byte	0x3
 2547 0e88 06       		.uleb128 0x6
 2548 0e89 0E090000 		.4byte	.LASF209
 2549 0e8d 01       		.byte	0x1
 2550 0e8e 7A       		.byte	0x7a
 2551 0e8f B8000000 		.4byte	0xb8
 2552 0e93 04       		.byte	0x4
 2553 0e94 06       		.uleb128 0x6
 2554 0e95 3F0A0000 		.4byte	.LASF210
 2555 0e99 01       		.byte	0x1
 2556 0e9a 7B       		.byte	0x7b
 2557 0e9b B8000000 		.4byte	0xb8
 2558 0e9f 05       		.byte	0x5
 2559 0ea0 00       		.byte	0
 2560 0ea1 1C       		.uleb128 0x1c
 2561 0ea2 82090000 		.4byte	.LASF247
 2562 0ea6 01       		.byte	0x1
ARM GAS  /tmp/ccaiZisL.s 			page 46


 2563 0ea7 D6       		.byte	0xd6
 2564 0ea8 D9000000 		.4byte	0xd9
 2565 0eac 01       		.byte	0x1
 2566 0ead 1D       		.uleb128 0x1d
 2567 0eae CF010000 		.4byte	.LASF226
 2568 0eb2 08       		.byte	0x8
 2569 0eb3 5B01     		.2byte	0x15b
 2570 0eb5 86040000 		.4byte	0x486
 2571 0eb9 03       		.byte	0x3
 2572 0eba E40E0000 		.4byte	0xee4
 2573 0ebe 1E       		.uleb128 0x1e
 2574 0ebf E2080000 		.4byte	.LASF220
 2575 0ec3 08       		.byte	0x8
 2576 0ec4 5B01     		.2byte	0x15b
 2577 0ec6 91040000 		.4byte	0x491
 2578 0eca 1F       		.uleb128 0x1f
 2579 0ecb 48040000 		.4byte	.LASF211
 2580 0ecf 08       		.byte	0x8
 2581 0ed0 5C01     		.2byte	0x15c
 2582 0ed2 9C040000 		.4byte	0x49c
 2583 0ed6 20       		.uleb128 0x20
 2584 0ed7 6B0A0000 		.4byte	.LASF212
 2585 0edb F40E0000 		.4byte	0xef4
 2586 0edf CF010000 		.4byte	.LASF226
 2587 0ee3 00       		.byte	0
 2588 0ee4 10       		.uleb128 0x10
 2589 0ee5 FB0C0000 		.4byte	0xcfb
 2590 0ee9 F40E0000 		.4byte	0xef4
 2591 0eed 11       		.uleb128 0x11
 2592 0eee A7040000 		.4byte	0x4a7
 2593 0ef2 0A       		.byte	0xa
 2594 0ef3 00       		.byte	0
 2595 0ef4 18       		.uleb128 0x18
 2596 0ef5 E40E0000 		.4byte	0xee4
 2597 0ef9 21       		.uleb128 0x21
 2598 0efa 92020000 		.4byte	.LASF215
 2599 0efe 01       		.byte	0x1
 2600 0eff 1C       		.byte	0x1c
 2601 0f00 00000000 		.4byte	.LFB323
 2602 0f04 30000000 		.4byte	.LFE323-.LFB323
 2603 0f08 01       		.uleb128 0x1
 2604 0f09 9C       		.byte	0x9c
 2605 0f0a 380F0000 		.4byte	0xf38
 2606 0f0e 22       		.uleb128 0x22
 2607 0f0f 74696D00 		.ascii	"tim\000"
 2608 0f13 01       		.byte	0x1
 2609 0f14 1C       		.byte	0x1c
 2610 0f15 1F0E0000 		.4byte	0xe1f
 2611 0f19 01       		.uleb128 0x1
 2612 0f1a 50       		.byte	0x50
 2613 0f1b 23       		.uleb128 0x23
 2614 0f1c 0C060000 		.4byte	.LASF213
 2615 0f20 01       		.byte	0x1
 2616 0f21 1C       		.byte	0x1c
 2617 0f22 B8000000 		.4byte	0xb8
 2618 0f26 01       		.uleb128 0x1
 2619 0f27 51       		.byte	0x51
ARM GAS  /tmp/ccaiZisL.s 			page 47


 2620 0f28 24       		.uleb128 0x24
 2621 0f29 C7050000 		.4byte	.LASF214
 2622 0f2d 01       		.byte	0x1
 2623 0f2e 1C       		.byte	0x1c
 2624 0f2f B8000000 		.4byte	0xb8
 2625 0f33 00000000 		.4byte	.LLST0
 2626 0f37 00       		.byte	0
 2627 0f38 21       		.uleb128 0x21
 2628 0f39 64090000 		.4byte	.LASF216
 2629 0f3d 01       		.byte	0x1
 2630 0f3e 31       		.byte	0x31
 2631 0f3f 00000000 		.4byte	.LFB324
 2632 0f43 8A000000 		.4byte	.LFE324-.LFB324
 2633 0f47 01       		.uleb128 0x1
 2634 0f48 9C       		.byte	0x9c
 2635 0f49 770F0000 		.4byte	0xf77
 2636 0f4d 22       		.uleb128 0x22
 2637 0f4e 74696D00 		.ascii	"tim\000"
 2638 0f52 01       		.byte	0x1
 2639 0f53 31       		.byte	0x31
 2640 0f54 1F0E0000 		.4byte	0xe1f
 2641 0f58 01       		.uleb128 0x1
 2642 0f59 50       		.byte	0x50
 2643 0f5a 23       		.uleb128 0x23
 2644 0f5b 0C060000 		.4byte	.LASF213
 2645 0f5f 01       		.byte	0x1
 2646 0f60 31       		.byte	0x31
 2647 0f61 B8000000 		.4byte	0xb8
 2648 0f65 01       		.uleb128 0x1
 2649 0f66 51       		.byte	0x51
 2650 0f67 24       		.uleb128 0x24
 2651 0f68 83040000 		.4byte	.LASF217
 2652 0f6c 01       		.byte	0x1
 2653 0f6d 31       		.byte	0x31
 2654 0f6e B8000000 		.4byte	0xb8
 2655 0f72 6C000000 		.4byte	.LLST1
 2656 0f76 00       		.byte	0
 2657 0f77 21       		.uleb128 0x21
 2658 0f78 30070000 		.4byte	.LASF218
 2659 0f7c 01       		.byte	0x1
 2660 0f7d 65       		.byte	0x65
 2661 0f7e 00000000 		.4byte	.LFB325
 2662 0f82 24000000 		.4byte	.LFE325-.LFB325
 2663 0f86 01       		.uleb128 0x1
 2664 0f87 9C       		.byte	0x9c
 2665 0f88 B70F0000 		.4byte	0xfb7
 2666 0f8c 24       		.uleb128 0x24
 2667 0f8d B8070000 		.4byte	.LASF219
 2668 0f91 01       		.byte	0x1
 2669 0f92 65       		.byte	0x65
 2670 0f93 EF000000 		.4byte	0xef
 2671 0f97 D8000000 		.4byte	.LLST2
 2672 0f9b 25       		.uleb128 0x25
 2673 0f9c 6E6F7700 		.ascii	"now\000"
 2674 0fa0 01       		.byte	0x1
 2675 0fa1 67       		.byte	0x67
 2676 0fa2 EF000000 		.4byte	0xef
ARM GAS  /tmp/ccaiZisL.s 			page 48


 2677 0fa6 06       		.uleb128 0x6
 2678 0fa7 50       		.byte	0x50
 2679 0fa8 93       		.byte	0x93
 2680 0fa9 04       		.uleb128 0x4
 2681 0faa 51       		.byte	0x51
 2682 0fab 93       		.byte	0x93
 2683 0fac 04       		.uleb128 0x4
 2684 0fad 26       		.uleb128 0x26
 2685 0fae 0A000000 		.4byte	.LVL17
 2686 0fb2 A5120000 		.4byte	0x12a5
 2687 0fb6 00       		.byte	0
 2688 0fb7 27       		.uleb128 0x27
 2689 0fb8 1C040000 		.4byte	.LASF228
 2690 0fbc 01       		.byte	0x1
 2691 0fbd 70       		.byte	0x70
 2692 0fbe EF000000 		.4byte	0xef
 2693 0fc2 00000000 		.4byte	.LFB326
 2694 0fc6 18000000 		.4byte	.LFE326-.LFB326
 2695 0fca 01       		.uleb128 0x1
 2696 0fcb 9C       		.byte	0x9c
 2697 0fcc DA0F0000 		.4byte	0xfda
 2698 0fd0 26       		.uleb128 0x26
 2699 0fd1 06000000 		.4byte	.LVL18
 2700 0fd5 A5120000 		.4byte	0x12a5
 2701 0fd9 00       		.byte	0
 2702 0fda 28       		.uleb128 0x28
 2703 0fdb DC050000 		.4byte	.LASF233
 2704 0fdf 01       		.byte	0x1
 2705 0fe0 90       		.byte	0x90
 2706 0fe1 01       		.byte	0x1
 2707 0fe2 30100000 		.4byte	0x1030
 2708 0fe6 29       		.uleb128 0x29
 2709 0fe7 5F050000 		.4byte	.LASF221
 2710 0feb 01       		.byte	0x1
 2711 0fec 90       		.byte	0x90
 2712 0fed EF000000 		.4byte	0xef
 2713 0ff1 2A       		.uleb128 0x2a
 2714 0ff2 746D00   		.ascii	"tm\000"
 2715 0ff5 01       		.byte	0x1
 2716 0ff6 90       		.byte	0x90
 2717 0ff7 30100000 		.4byte	0x1030
 2718 0ffb 2B       		.uleb128 0x2b
 2719 0ffc 940A0000 		.4byte	.LASF222
 2720 1000 01       		.byte	0x1
 2721 1001 92       		.byte	0x92
 2722 1002 D9000000 		.4byte	0xd9
 2723 1006 2B       		.uleb128 0x2b
 2724 1007 CB080000 		.4byte	.LASF223
 2725 100b 01       		.byte	0x1
 2726 100c 93       		.byte	0x93
 2727 100d D9000000 		.4byte	0xd9
 2728 1011 2C       		.uleb128 0x2c
 2729 1012 22100000 		.4byte	0x1022
 2730 1016 2B       		.uleb128 0x2b
 2731 1017 740A0000 		.4byte	.LASF224
 2732 101b 01       		.byte	0x1
 2733 101c A2       		.byte	0xa2
ARM GAS  /tmp/ccaiZisL.s 			page 49


 2734 101d 3E000000 		.4byte	0x3e
 2735 1021 00       		.byte	0
 2736 1022 2D       		.uleb128 0x2d
 2737 1023 2B       		.uleb128 0x2b
 2738 1024 E7040000 		.4byte	.LASF225
 2739 1028 01       		.byte	0x1
 2740 1029 AC       		.byte	0xac
 2741 102a 3E000000 		.4byte	0x3e
 2742 102e 00       		.byte	0
 2743 102f 00       		.byte	0
 2744 1030 0A       		.uleb128 0xa
 2745 1031 04       		.byte	0x4
 2746 1032 4C0E0000 		.4byte	0xe4c
 2747 1036 2E       		.uleb128 0x2e
 2748 1037 BC030000 		.4byte	.LASF227
 2749 103b 01       		.byte	0x1
 2750 103c 82       		.byte	0x82
 2751 103d 240D0000 		.4byte	0xd24
 2752 1041 01       		.byte	0x1
 2753 1042 50100000 		.4byte	0x1050
 2754 1046 2A       		.uleb128 0x2a
 2755 1047 7900     		.ascii	"y\000"
 2756 1049 01       		.byte	0x1
 2757 104a 82       		.byte	0x82
 2758 104b D9000000 		.4byte	0xd9
 2759 104f 00       		.byte	0
 2760 1050 2F       		.uleb128 0x2f
 2761 1051 50070000 		.4byte	.LASF229
 2762 1055 01       		.byte	0x1
 2763 1056 BC       		.byte	0xbc
 2764 1057 D9000000 		.4byte	0xd9
 2765 105b 00000000 		.4byte	.LFB329
 2766 105f 38010000 		.4byte	.LFE329-.LFB329
 2767 1063 01       		.uleb128 0x1
 2768 1064 9C       		.byte	0x9c
 2769 1065 2E110000 		.4byte	0x112e
 2770 1069 30       		.uleb128 0x30
 2771 106a 46010000 		.4byte	.LASF230
 2772 106e 01       		.byte	0x1
 2773 106f C2       		.byte	0xc2
 2774 1070 EF000000 		.4byte	0xef
 2775 1074 00010000 		.4byte	.LLST3
 2776 1078 30       		.uleb128 0x30
 2777 1079 5F050000 		.4byte	.LASF221
 2778 107d 01       		.byte	0x1
 2779 107e C3       		.byte	0xc3
 2780 107f EF000000 		.4byte	0xef
 2781 1083 18010000 		.4byte	.LLST4
 2782 1087 25       		.uleb128 0x25
 2783 1088 746D00   		.ascii	"tm\000"
 2784 108b 01       		.byte	0x1
 2785 108c C4       		.byte	0xc4
 2786 108d 4C0E0000 		.4byte	0xe4c
 2787 1091 02       		.uleb128 0x2
 2788 1092 91       		.byte	0x91
 2789 1093 58       		.sleb128 -40
 2790 1094 30       		.uleb128 0x30
ARM GAS  /tmp/ccaiZisL.s 			page 50


 2791 1095 94080000 		.4byte	.LASF231
 2792 1099 01       		.byte	0x1
 2793 109a C8       		.byte	0xc8
 2794 109b D9000000 		.4byte	0xd9
 2795 109f 30010000 		.4byte	.LLST5
 2796 10a3 31       		.uleb128 0x31
 2797 10a4 DA0F0000 		.4byte	0xfda
 2798 10a8 16000000 		.4byte	.LBB13
 2799 10ac 00000000 		.4byte	.Ldebug_ranges0+0
 2800 10b0 01       		.byte	0x1
 2801 10b1 C6       		.byte	0xc6
 2802 10b2 24110000 		.4byte	0x1124
 2803 10b6 32       		.uleb128 0x32
 2804 10b7 F10F0000 		.4byte	0xff1
 2805 10bb 6A010000 		.4byte	.LLST6
 2806 10bf 32       		.uleb128 0x32
 2807 10c0 E60F0000 		.4byte	0xfe6
 2808 10c4 18010000 		.4byte	.LLST4
 2809 10c8 33       		.uleb128 0x33
 2810 10c9 00000000 		.4byte	.Ldebug_ranges0+0
 2811 10cd 34       		.uleb128 0x34
 2812 10ce FB0F0000 		.4byte	0xffb
 2813 10d2 7D010000 		.4byte	.LLST8
 2814 10d6 34       		.uleb128 0x34
 2815 10d7 06100000 		.4byte	0x1006
 2816 10db 9B010000 		.4byte	.LLST9
 2817 10df 35       		.uleb128 0x35
 2818 10e0 70000000 		.4byte	.LBB15
 2819 10e4 60000000 		.4byte	.LBE15-.LBB15
 2820 10e8 0F110000 		.4byte	0x110f
 2821 10ec 34       		.uleb128 0x34
 2822 10ed 16100000 		.4byte	0x1016
 2823 10f1 C6010000 		.4byte	.LLST10
 2824 10f5 36       		.uleb128 0x36
 2825 10f6 36100000 		.4byte	0x1036
 2826 10fa 70000000 		.4byte	.LBB16
 2827 10fe 20000000 		.4byte	.Ldebug_ranges0+0x20
 2828 1102 01       		.byte	0x1
 2829 1103 A2       		.byte	0xa2
 2830 1104 32       		.uleb128 0x32
 2831 1105 46100000 		.4byte	0x1046
 2832 1109 D9010000 		.4byte	.LLST11
 2833 110d 00       		.byte	0
 2834 110e 00       		.byte	0
 2835 110f 37       		.uleb128 0x37
 2836 1110 D0000000 		.4byte	.LBB20
 2837 1114 18000000 		.4byte	.LBE20-.LBB20
 2838 1118 34       		.uleb128 0x34
 2839 1119 23100000 		.4byte	0x1023
 2840 111d 23020000 		.4byte	.LLST12
 2841 1121 00       		.byte	0
 2842 1122 00       		.byte	0
 2843 1123 00       		.byte	0
 2844 1124 26       		.uleb128 0x26
 2845 1125 14000000 		.4byte	.LVL19
 2846 1129 B70F0000 		.4byte	0xfb7
 2847 112d 00       		.byte	0
ARM GAS  /tmp/ccaiZisL.s 			page 51


 2848 112e 27       		.uleb128 0x27
 2849 112f 510A0000 		.4byte	.LASF232
 2850 1133 01       		.byte	0x1
 2851 1134 EB       		.byte	0xeb
 2852 1135 250E0000 		.4byte	0xe25
 2853 1139 00000000 		.4byte	.LFB332
 2854 113d 0C000000 		.4byte	.LFE332-.LFB332
 2855 1141 01       		.uleb128 0x1
 2856 1142 9C       		.byte	0x9c
 2857 1143 57110000 		.4byte	0x1157
 2858 1147 38       		.uleb128 0x38
 2859 1148 A10E0000 		.4byte	0xea1
 2860 114c 00000000 		.4byte	.LBB25
 2861 1150 04000000 		.4byte	.LBE25-.LBB25
 2862 1154 01       		.byte	0x1
 2863 1155 ED       		.byte	0xed
 2864 1156 00       		.byte	0
 2865 1157 28       		.uleb128 0x28
 2866 1158 A8010000 		.4byte	.LASF234
 2867 115c 01       		.byte	0x1
 2868 115d DC       		.byte	0xdc
 2869 115e 01       		.byte	0x1
 2870 115f 6D110000 		.4byte	0x116d
 2871 1163 2A       		.uleb128 0x2a
 2872 1164 7600     		.ascii	"v\000"
 2873 1166 01       		.byte	0x1
 2874 1167 DC       		.byte	0xdc
 2875 1168 D9000000 		.4byte	0xd9
 2876 116c 00       		.byte	0
 2877 116d 21       		.uleb128 0x21
 2878 116e C6020000 		.4byte	.LASF235
 2879 1172 01       		.byte	0x1
 2880 1173 F1       		.byte	0xf1
 2881 1174 00000000 		.4byte	.LFB333
 2882 1178 38000000 		.4byte	.LFE333-.LFB333
 2883 117c 01       		.uleb128 0x1
 2884 117d 9C       		.byte	0x9c
 2885 117e A5110000 		.4byte	0x11a5
 2886 1182 22       		.uleb128 0x22
 2887 1183 7600     		.ascii	"v\000"
 2888 1185 01       		.byte	0x1
 2889 1186 F1       		.byte	0xf1
 2890 1187 250E0000 		.4byte	0xe25
 2891 118b 01       		.uleb128 0x1
 2892 118c 50       		.byte	0x50
 2893 118d 39       		.uleb128 0x39
 2894 118e 57110000 		.4byte	0x1157
 2895 1192 00000000 		.4byte	.LBB29
 2896 1196 38000000 		.4byte	.LBE29-.LBB29
 2897 119a 01       		.byte	0x1
 2898 119b F3       		.byte	0xf3
 2899 119c 3A       		.uleb128 0x3a
 2900 119d 63110000 		.4byte	0x1163
 2901 11a1 01       		.uleb128 0x1
 2902 11a2 50       		.byte	0x50
 2903 11a3 00       		.byte	0
 2904 11a4 00       		.byte	0
ARM GAS  /tmp/ccaiZisL.s 			page 52


 2905 11a5 21       		.uleb128 0x21
 2906 11a6 B2090000 		.4byte	.LASF236
 2907 11aa 01       		.byte	0x1
 2908 11ab FD       		.byte	0xfd
 2909 11ac 00000000 		.4byte	.LFB334
 2910 11b0 20000000 		.4byte	.LFE334-.LFB334
 2911 11b4 01       		.uleb128 0x1
 2912 11b5 9C       		.byte	0x9c
 2913 11b6 F3110000 		.4byte	0x11f3
 2914 11ba 3B       		.uleb128 0x3b
 2915 11bb 6900     		.ascii	"i\000"
 2916 11bd 01       		.byte	0x1
 2917 11be 0301     		.2byte	0x103
 2918 11c0 B8000000 		.4byte	0xb8
 2919 11c4 36020000 		.4byte	.LLST13
 2920 11c8 35       		.uleb128 0x35
 2921 11c9 14000000 		.4byte	.LBB31
 2922 11cd 0C000000 		.4byte	.LBE31-.LBB31
 2923 11d1 E1110000 		.4byte	0x11e1
 2924 11d5 3C       		.uleb128 0x3c
 2925 11d6 7700     		.ascii	"w\000"
 2926 11d8 01       		.byte	0x1
 2927 11d9 1001     		.2byte	0x110
 2928 11db D9000000 		.4byte	0xd9
 2929 11df 08       		.byte	0x8
 2930 11e0 00       		.byte	0
 2931 11e1 3D       		.uleb128 0x3d
 2932 11e2 0E000000 		.4byte	.LVL45
 2933 11e6 B0120000 		.4byte	0x12b0
 2934 11ea 3E       		.uleb128 0x3e
 2935 11eb 01       		.uleb128 0x1
 2936 11ec 50       		.byte	0x50
 2937 11ed 03       		.uleb128 0x3
 2938 11ee 0A       		.byte	0xa
 2939 11ef E803     		.2byte	0x3e8
 2940 11f1 00       		.byte	0
 2941 11f2 00       		.byte	0
 2942 11f3 3F       		.uleb128 0x3f
 2943 11f4 D7000000 		.4byte	.LASF237
 2944 11f8 01       		.byte	0x1
 2945 11f9 2201     		.2byte	0x122
 2946 11fb F80D0000 		.4byte	0xdf8
 2947 11ff 00000000 		.4byte	.LFB335
 2948 1203 58000000 		.4byte	.LFE335-.LFB335
 2949 1207 01       		.uleb128 0x1
 2950 1208 9C       		.byte	0x9c
 2951 1209 4C120000 		.4byte	0x124c
 2952 120d 40       		.uleb128 0x40
 2953 120e 5F090000 		.4byte	.LASF238
 2954 1212 01       		.byte	0x1
 2955 1213 2201     		.2byte	0x122
 2956 1215 030E0000 		.4byte	0xe03
 2957 1219 5A020000 		.4byte	.LLST14
 2958 121d 41       		.uleb128 0x41
 2959 121e 02090000 		.4byte	.LASF239
 2960 1222 01       		.byte	0x1
 2961 1223 2401     		.2byte	0x124
ARM GAS  /tmp/ccaiZisL.s 			page 53


 2962 1225 0E0E0000 		.4byte	0xe0e
 2963 1229 01       		.uleb128 0x1
 2964 122a 55       		.byte	0x55
 2965 122b 3B       		.uleb128 0x3b
 2966 122c 70616400 		.ascii	"pad\000"
 2967 1230 01       		.byte	0x1
 2968 1231 2501     		.2byte	0x125
 2969 1233 B8000000 		.4byte	0xb8
 2970 1237 7B020000 		.4byte	.LLST15
 2971 123b 3B       		.uleb128 0x3b
 2972 123c 72657400 		.ascii	"ret\000"
 2973 1240 01       		.byte	0x1
 2974 1241 2601     		.2byte	0x126
 2975 1243 F80D0000 		.4byte	0xdf8
 2976 1247 9E020000 		.4byte	.LLST16
 2977 124b 00       		.byte	0
 2978 124c 42       		.uleb128 0x42
 2979 124d D8090000 		.4byte	.LASF240
 2980 1251 01       		.byte	0x1
 2981 1252 17       		.byte	0x17
 2982 1253 E4000000 		.4byte	0xe4
 2983 1257 05       		.uleb128 0x5
 2984 1258 03       		.byte	0x3
 2985 1259 00000000 		.4byte	utc_time_offset
 2986 125d 10       		.uleb128 0x10
 2987 125e B8000000 		.4byte	0xb8
 2988 1262 73120000 		.4byte	0x1273
 2989 1266 11       		.uleb128 0x11
 2990 1267 A7040000 		.4byte	0x4a7
 2991 126b 01       		.byte	0x1
 2992 126c 11       		.uleb128 0x11
 2993 126d A7040000 		.4byte	0x4a7
 2994 1271 0B       		.byte	0xb
 2995 1272 00       		.byte	0
 2996 1273 42       		.uleb128 0x42
 2997 1274 41090000 		.4byte	.LASF241
 2998 1278 01       		.byte	0x1
 2999 1279 88       		.byte	0x88
 3000 127a 84120000 		.4byte	0x1284
 3001 127e 05       		.uleb128 0x5
 3002 127f 03       		.byte	0x3
 3003 1280 00000000 		.4byte	ndays
 3004 1284 18       		.uleb128 0x18
 3005 1285 5D120000 		.4byte	0x125d
 3006 1289 43       		.uleb128 0x43
 3007 128a 0F080000 		.4byte	.LASF242
 3008 128e 14       		.byte	0x14
 3009 128f 0408     		.2byte	0x804
 3010 1291 95120000 		.4byte	0x1295
 3011 1295 0F       		.uleb128 0xf
 3012 1296 CE000000 		.4byte	0xce
 3013 129a 44       		.uleb128 0x44
 3014 129b 636800   		.ascii	"ch\000"
 3015 129e 07       		.byte	0x7
 3016 129f C701     		.2byte	0x1c7
 3017 12a1 15040000 		.4byte	0x415
 3018 12a5 45       		.uleb128 0x45
ARM GAS  /tmp/ccaiZisL.s 			page 54


 3019 12a6 85020000 		.4byte	.LASF248
 3020 12aa 15       		.byte	0x15
 3021 12ab 08       		.byte	0x8
 3022 12ac EF000000 		.4byte	0xef
 3023 12b0 46       		.uleb128 0x46
 3024 12b1 9C090000 		.4byte	.LASF249
 3025 12b5 16       		.byte	0x16
 3026 12b6 FD       		.byte	0xfd
 3027 12b7 0D       		.uleb128 0xd
 3028 12b8 86040000 		.4byte	0x486
 3029 12bc 00       		.byte	0
 3030 12bd 00       		.byte	0
 3031              		.section	.debug_abbrev,"",%progbits
 3032              	.Ldebug_abbrev0:
 3033 0000 01       		.uleb128 0x1
 3034 0001 11       		.uleb128 0x11
 3035 0002 01       		.byte	0x1
 3036 0003 25       		.uleb128 0x25
 3037 0004 0E       		.uleb128 0xe
 3038 0005 13       		.uleb128 0x13
 3039 0006 0B       		.uleb128 0xb
 3040 0007 03       		.uleb128 0x3
 3041 0008 0E       		.uleb128 0xe
 3042 0009 1B       		.uleb128 0x1b
 3043 000a 0E       		.uleb128 0xe
 3044 000b 55       		.uleb128 0x55
 3045 000c 17       		.uleb128 0x17
 3046 000d 11       		.uleb128 0x11
 3047 000e 01       		.uleb128 0x1
 3048 000f 10       		.uleb128 0x10
 3049 0010 17       		.uleb128 0x17
 3050 0011 00       		.byte	0
 3051 0012 00       		.byte	0
 3052 0013 02       		.uleb128 0x2
 3053 0014 24       		.uleb128 0x24
 3054 0015 00       		.byte	0
 3055 0016 0B       		.uleb128 0xb
 3056 0017 0B       		.uleb128 0xb
 3057 0018 3E       		.uleb128 0x3e
 3058 0019 0B       		.uleb128 0xb
 3059 001a 03       		.uleb128 0x3
 3060 001b 0E       		.uleb128 0xe
 3061 001c 00       		.byte	0
 3062 001d 00       		.byte	0
 3063 001e 03       		.uleb128 0x3
 3064 001f 24       		.uleb128 0x24
 3065 0020 00       		.byte	0
 3066 0021 0B       		.uleb128 0xb
 3067 0022 0B       		.uleb128 0xb
 3068 0023 3E       		.uleb128 0x3e
 3069 0024 0B       		.uleb128 0xb
 3070 0025 03       		.uleb128 0x3
 3071 0026 08       		.uleb128 0x8
 3072 0027 00       		.byte	0
 3073 0028 00       		.byte	0
 3074 0029 04       		.uleb128 0x4
 3075 002a 16       		.uleb128 0x16
ARM GAS  /tmp/ccaiZisL.s 			page 55


 3076 002b 00       		.byte	0
 3077 002c 03       		.uleb128 0x3
 3078 002d 0E       		.uleb128 0xe
 3079 002e 3A       		.uleb128 0x3a
 3080 002f 0B       		.uleb128 0xb
 3081 0030 3B       		.uleb128 0x3b
 3082 0031 0B       		.uleb128 0xb
 3083 0032 49       		.uleb128 0x49
 3084 0033 13       		.uleb128 0x13
 3085 0034 00       		.byte	0
 3086 0035 00       		.byte	0
 3087 0036 05       		.uleb128 0x5
 3088 0037 13       		.uleb128 0x13
 3089 0038 01       		.byte	0x1
 3090 0039 03       		.uleb128 0x3
 3091 003a 0E       		.uleb128 0xe
 3092 003b 0B       		.uleb128 0xb
 3093 003c 0B       		.uleb128 0xb
 3094 003d 3A       		.uleb128 0x3a
 3095 003e 0B       		.uleb128 0xb
 3096 003f 3B       		.uleb128 0x3b
 3097 0040 0B       		.uleb128 0xb
 3098 0041 01       		.uleb128 0x1
 3099 0042 13       		.uleb128 0x13
 3100 0043 00       		.byte	0
 3101 0044 00       		.byte	0
 3102 0045 06       		.uleb128 0x6
 3103 0046 0D       		.uleb128 0xd
 3104 0047 00       		.byte	0
 3105 0048 03       		.uleb128 0x3
 3106 0049 0E       		.uleb128 0xe
 3107 004a 3A       		.uleb128 0x3a
 3108 004b 0B       		.uleb128 0xb
 3109 004c 3B       		.uleb128 0x3b
 3110 004d 0B       		.uleb128 0xb
 3111 004e 49       		.uleb128 0x49
 3112 004f 13       		.uleb128 0x13
 3113 0050 38       		.uleb128 0x38
 3114 0051 0B       		.uleb128 0xb
 3115 0052 00       		.byte	0
 3116 0053 00       		.byte	0
 3117 0054 07       		.uleb128 0x7
 3118 0055 0D       		.uleb128 0xd
 3119 0056 00       		.byte	0
 3120 0057 03       		.uleb128 0x3
 3121 0058 08       		.uleb128 0x8
 3122 0059 3A       		.uleb128 0x3a
 3123 005a 0B       		.uleb128 0xb
 3124 005b 3B       		.uleb128 0x3b
 3125 005c 0B       		.uleb128 0xb
 3126 005d 49       		.uleb128 0x49
 3127 005e 13       		.uleb128 0x13
 3128 005f 38       		.uleb128 0x38
 3129 0060 0B       		.uleb128 0xb
 3130 0061 00       		.byte	0
 3131 0062 00       		.byte	0
 3132 0063 08       		.uleb128 0x8
ARM GAS  /tmp/ccaiZisL.s 			page 56


 3133 0064 0D       		.uleb128 0xd
 3134 0065 00       		.byte	0
 3135 0066 03       		.uleb128 0x3
 3136 0067 08       		.uleb128 0x8
 3137 0068 3A       		.uleb128 0x3a
 3138 0069 0B       		.uleb128 0xb
 3139 006a 3B       		.uleb128 0x3b
 3140 006b 05       		.uleb128 0x5
 3141 006c 49       		.uleb128 0x49
 3142 006d 13       		.uleb128 0x13
 3143 006e 38       		.uleb128 0x38
 3144 006f 0B       		.uleb128 0xb
 3145 0070 00       		.byte	0
 3146 0071 00       		.byte	0
 3147 0072 09       		.uleb128 0x9
 3148 0073 0D       		.uleb128 0xd
 3149 0074 00       		.byte	0
 3150 0075 03       		.uleb128 0x3
 3151 0076 0E       		.uleb128 0xe
 3152 0077 3A       		.uleb128 0x3a
 3153 0078 0B       		.uleb128 0xb
 3154 0079 3B       		.uleb128 0x3b
 3155 007a 05       		.uleb128 0x5
 3156 007b 49       		.uleb128 0x49
 3157 007c 13       		.uleb128 0x13
 3158 007d 38       		.uleb128 0x38
 3159 007e 0B       		.uleb128 0xb
 3160 007f 00       		.byte	0
 3161 0080 00       		.byte	0
 3162 0081 0A       		.uleb128 0xa
 3163 0082 0F       		.uleb128 0xf
 3164 0083 00       		.byte	0
 3165 0084 0B       		.uleb128 0xb
 3166 0085 0B       		.uleb128 0xb
 3167 0086 49       		.uleb128 0x49
 3168 0087 13       		.uleb128 0x13
 3169 0088 00       		.byte	0
 3170 0089 00       		.byte	0
 3171 008a 0B       		.uleb128 0xb
 3172 008b 13       		.uleb128 0x13
 3173 008c 01       		.byte	0x1
 3174 008d 03       		.uleb128 0x3
 3175 008e 0E       		.uleb128 0xe
 3176 008f 0B       		.uleb128 0xb
 3177 0090 0B       		.uleb128 0xb
 3178 0091 3A       		.uleb128 0x3a
 3179 0092 0B       		.uleb128 0xb
 3180 0093 3B       		.uleb128 0x3b
 3181 0094 05       		.uleb128 0x5
 3182 0095 01       		.uleb128 0x1
 3183 0096 13       		.uleb128 0x13
 3184 0097 00       		.byte	0
 3185 0098 00       		.byte	0
 3186 0099 0C       		.uleb128 0xc
 3187 009a 15       		.uleb128 0x15
 3188 009b 01       		.byte	0x1
 3189 009c 27       		.uleb128 0x27
ARM GAS  /tmp/ccaiZisL.s 			page 57


 3190 009d 19       		.uleb128 0x19
 3191 009e 01       		.uleb128 0x1
 3192 009f 13       		.uleb128 0x13
 3193 00a0 00       		.byte	0
 3194 00a1 00       		.byte	0
 3195 00a2 0D       		.uleb128 0xd
 3196 00a3 05       		.uleb128 0x5
 3197 00a4 00       		.byte	0
 3198 00a5 49       		.uleb128 0x49
 3199 00a6 13       		.uleb128 0x13
 3200 00a7 00       		.byte	0
 3201 00a8 00       		.byte	0
 3202 00a9 0E       		.uleb128 0xe
 3203 00aa 0F       		.uleb128 0xf
 3204 00ab 00       		.byte	0
 3205 00ac 0B       		.uleb128 0xb
 3206 00ad 0B       		.uleb128 0xb
 3207 00ae 00       		.byte	0
 3208 00af 00       		.byte	0
 3209 00b0 0F       		.uleb128 0xf
 3210 00b1 35       		.uleb128 0x35
 3211 00b2 00       		.byte	0
 3212 00b3 49       		.uleb128 0x49
 3213 00b4 13       		.uleb128 0x13
 3214 00b5 00       		.byte	0
 3215 00b6 00       		.byte	0
 3216 00b7 10       		.uleb128 0x10
 3217 00b8 01       		.uleb128 0x1
 3218 00b9 01       		.byte	0x1
 3219 00ba 49       		.uleb128 0x49
 3220 00bb 13       		.uleb128 0x13
 3221 00bc 01       		.uleb128 0x1
 3222 00bd 13       		.uleb128 0x13
 3223 00be 00       		.byte	0
 3224 00bf 00       		.byte	0
 3225 00c0 11       		.uleb128 0x11
 3226 00c1 21       		.uleb128 0x21
 3227 00c2 00       		.byte	0
 3228 00c3 49       		.uleb128 0x49
 3229 00c4 13       		.uleb128 0x13
 3230 00c5 2F       		.uleb128 0x2f
 3231 00c6 0B       		.uleb128 0xb
 3232 00c7 00       		.byte	0
 3233 00c8 00       		.byte	0
 3234 00c9 12       		.uleb128 0x12
 3235 00ca 13       		.uleb128 0x13
 3236 00cb 01       		.byte	0x1
 3237 00cc 0B       		.uleb128 0xb
 3238 00cd 0B       		.uleb128 0xb
 3239 00ce 3A       		.uleb128 0x3a
 3240 00cf 0B       		.uleb128 0xb
 3241 00d0 3B       		.uleb128 0x3b
 3242 00d1 05       		.uleb128 0x5
 3243 00d2 01       		.uleb128 0x1
 3244 00d3 13       		.uleb128 0x13
 3245 00d4 00       		.byte	0
 3246 00d5 00       		.byte	0
ARM GAS  /tmp/ccaiZisL.s 			page 58


 3247 00d6 13       		.uleb128 0x13
 3248 00d7 16       		.uleb128 0x16
 3249 00d8 00       		.byte	0
 3250 00d9 03       		.uleb128 0x3
 3251 00da 0E       		.uleb128 0xe
 3252 00db 3A       		.uleb128 0x3a
 3253 00dc 0B       		.uleb128 0xb
 3254 00dd 3B       		.uleb128 0x3b
 3255 00de 05       		.uleb128 0x5
 3256 00df 49       		.uleb128 0x49
 3257 00e0 13       		.uleb128 0x13
 3258 00e1 00       		.byte	0
 3259 00e2 00       		.byte	0
 3260 00e3 14       		.uleb128 0x14
 3261 00e4 13       		.uleb128 0x13
 3262 00e5 01       		.byte	0x1
 3263 00e6 0B       		.uleb128 0xb
 3264 00e7 0B       		.uleb128 0xb
 3265 00e8 3A       		.uleb128 0x3a
 3266 00e9 0B       		.uleb128 0xb
 3267 00ea 3B       		.uleb128 0x3b
 3268 00eb 0B       		.uleb128 0xb
 3269 00ec 01       		.uleb128 0x1
 3270 00ed 13       		.uleb128 0x13
 3271 00ee 00       		.byte	0
 3272 00ef 00       		.byte	0
 3273 00f0 15       		.uleb128 0x15
 3274 00f1 17       		.uleb128 0x17
 3275 00f2 01       		.byte	0x1
 3276 00f3 0B       		.uleb128 0xb
 3277 00f4 0B       		.uleb128 0xb
 3278 00f5 3A       		.uleb128 0x3a
 3279 00f6 0B       		.uleb128 0xb
 3280 00f7 3B       		.uleb128 0x3b
 3281 00f8 0B       		.uleb128 0xb
 3282 00f9 01       		.uleb128 0x1
 3283 00fa 13       		.uleb128 0x13
 3284 00fb 00       		.byte	0
 3285 00fc 00       		.byte	0
 3286 00fd 16       		.uleb128 0x16
 3287 00fe 0D       		.uleb128 0xd
 3288 00ff 00       		.byte	0
 3289 0100 03       		.uleb128 0x3
 3290 0101 0E       		.uleb128 0xe
 3291 0102 3A       		.uleb128 0x3a
 3292 0103 0B       		.uleb128 0xb
 3293 0104 3B       		.uleb128 0x3b
 3294 0105 0B       		.uleb128 0xb
 3295 0106 49       		.uleb128 0x49
 3296 0107 13       		.uleb128 0x13
 3297 0108 00       		.byte	0
 3298 0109 00       		.byte	0
 3299 010a 17       		.uleb128 0x17
 3300 010b 0D       		.uleb128 0xd
 3301 010c 00       		.byte	0
 3302 010d 03       		.uleb128 0x3
 3303 010e 0E       		.uleb128 0xe
ARM GAS  /tmp/ccaiZisL.s 			page 59


 3304 010f 3A       		.uleb128 0x3a
 3305 0110 0B       		.uleb128 0xb
 3306 0111 3B       		.uleb128 0x3b
 3307 0112 05       		.uleb128 0x5
 3308 0113 49       		.uleb128 0x49
 3309 0114 13       		.uleb128 0x13
 3310 0115 00       		.byte	0
 3311 0116 00       		.byte	0
 3312 0117 18       		.uleb128 0x18
 3313 0118 26       		.uleb128 0x26
 3314 0119 00       		.byte	0
 3315 011a 49       		.uleb128 0x49
 3316 011b 13       		.uleb128 0x13
 3317 011c 00       		.byte	0
 3318 011d 00       		.byte	0
 3319 011e 19       		.uleb128 0x19
 3320 011f 0D       		.uleb128 0xd
 3321 0120 00       		.byte	0
 3322 0121 03       		.uleb128 0x3
 3323 0122 08       		.uleb128 0x8
 3324 0123 3A       		.uleb128 0x3a
 3325 0124 0B       		.uleb128 0xb
 3326 0125 3B       		.uleb128 0x3b
 3327 0126 0B       		.uleb128 0xb
 3328 0127 49       		.uleb128 0x49
 3329 0128 13       		.uleb128 0x13
 3330 0129 00       		.byte	0
 3331 012a 00       		.byte	0
 3332 012b 1A       		.uleb128 0x1a
 3333 012c 04       		.uleb128 0x4
 3334 012d 01       		.byte	0x1
 3335 012e 03       		.uleb128 0x3
 3336 012f 0E       		.uleb128 0xe
 3337 0130 0B       		.uleb128 0xb
 3338 0131 0B       		.uleb128 0xb
 3339 0132 3A       		.uleb128 0x3a
 3340 0133 0B       		.uleb128 0xb
 3341 0134 3B       		.uleb128 0x3b
 3342 0135 0B       		.uleb128 0xb
 3343 0136 01       		.uleb128 0x1
 3344 0137 13       		.uleb128 0x13
 3345 0138 00       		.byte	0
 3346 0139 00       		.byte	0
 3347 013a 1B       		.uleb128 0x1b
 3348 013b 28       		.uleb128 0x28
 3349 013c 00       		.byte	0
 3350 013d 03       		.uleb128 0x3
 3351 013e 0E       		.uleb128 0xe
 3352 013f 1C       		.uleb128 0x1c
 3353 0140 0D       		.uleb128 0xd
 3354 0141 00       		.byte	0
 3355 0142 00       		.byte	0
 3356 0143 1C       		.uleb128 0x1c
 3357 0144 2E       		.uleb128 0x2e
 3358 0145 00       		.byte	0
 3359 0146 03       		.uleb128 0x3
 3360 0147 0E       		.uleb128 0xe
ARM GAS  /tmp/ccaiZisL.s 			page 60


 3361 0148 3A       		.uleb128 0x3a
 3362 0149 0B       		.uleb128 0xb
 3363 014a 3B       		.uleb128 0x3b
 3364 014b 0B       		.uleb128 0xb
 3365 014c 27       		.uleb128 0x27
 3366 014d 19       		.uleb128 0x19
 3367 014e 49       		.uleb128 0x49
 3368 014f 13       		.uleb128 0x13
 3369 0150 20       		.uleb128 0x20
 3370 0151 0B       		.uleb128 0xb
 3371 0152 00       		.byte	0
 3372 0153 00       		.byte	0
 3373 0154 1D       		.uleb128 0x1d
 3374 0155 2E       		.uleb128 0x2e
 3375 0156 01       		.byte	0x1
 3376 0157 03       		.uleb128 0x3
 3377 0158 0E       		.uleb128 0xe
 3378 0159 3A       		.uleb128 0x3a
 3379 015a 0B       		.uleb128 0xb
 3380 015b 3B       		.uleb128 0x3b
 3381 015c 05       		.uleb128 0x5
 3382 015d 27       		.uleb128 0x27
 3383 015e 19       		.uleb128 0x19
 3384 015f 49       		.uleb128 0x49
 3385 0160 13       		.uleb128 0x13
 3386 0161 20       		.uleb128 0x20
 3387 0162 0B       		.uleb128 0xb
 3388 0163 01       		.uleb128 0x1
 3389 0164 13       		.uleb128 0x13
 3390 0165 00       		.byte	0
 3391 0166 00       		.byte	0
 3392 0167 1E       		.uleb128 0x1e
 3393 0168 05       		.uleb128 0x5
 3394 0169 00       		.byte	0
 3395 016a 03       		.uleb128 0x3
 3396 016b 0E       		.uleb128 0xe
 3397 016c 3A       		.uleb128 0x3a
 3398 016d 0B       		.uleb128 0xb
 3399 016e 3B       		.uleb128 0x3b
 3400 016f 05       		.uleb128 0x5
 3401 0170 49       		.uleb128 0x49
 3402 0171 13       		.uleb128 0x13
 3403 0172 00       		.byte	0
 3404 0173 00       		.byte	0
 3405 0174 1F       		.uleb128 0x1f
 3406 0175 34       		.uleb128 0x34
 3407 0176 00       		.byte	0
 3408 0177 03       		.uleb128 0x3
 3409 0178 0E       		.uleb128 0xe
 3410 0179 3A       		.uleb128 0x3a
 3411 017a 0B       		.uleb128 0xb
 3412 017b 3B       		.uleb128 0x3b
 3413 017c 05       		.uleb128 0x5
 3414 017d 49       		.uleb128 0x49
 3415 017e 13       		.uleb128 0x13
 3416 017f 00       		.byte	0
 3417 0180 00       		.byte	0
ARM GAS  /tmp/ccaiZisL.s 			page 61


 3418 0181 20       		.uleb128 0x20
 3419 0182 34       		.uleb128 0x34
 3420 0183 00       		.byte	0
 3421 0184 03       		.uleb128 0x3
 3422 0185 0E       		.uleb128 0xe
 3423 0186 49       		.uleb128 0x49
 3424 0187 13       		.uleb128 0x13
 3425 0188 34       		.uleb128 0x34
 3426 0189 19       		.uleb128 0x19
 3427 018a 1C       		.uleb128 0x1c
 3428 018b 0E       		.uleb128 0xe
 3429 018c 00       		.byte	0
 3430 018d 00       		.byte	0
 3431 018e 21       		.uleb128 0x21
 3432 018f 2E       		.uleb128 0x2e
 3433 0190 01       		.byte	0x1
 3434 0191 3F       		.uleb128 0x3f
 3435 0192 19       		.uleb128 0x19
 3436 0193 03       		.uleb128 0x3
 3437 0194 0E       		.uleb128 0xe
 3438 0195 3A       		.uleb128 0x3a
 3439 0196 0B       		.uleb128 0xb
 3440 0197 3B       		.uleb128 0x3b
 3441 0198 0B       		.uleb128 0xb
 3442 0199 27       		.uleb128 0x27
 3443 019a 19       		.uleb128 0x19
 3444 019b 11       		.uleb128 0x11
 3445 019c 01       		.uleb128 0x1
 3446 019d 12       		.uleb128 0x12
 3447 019e 06       		.uleb128 0x6
 3448 019f 40       		.uleb128 0x40
 3449 01a0 18       		.uleb128 0x18
 3450 01a1 9742     		.uleb128 0x2117
 3451 01a3 19       		.uleb128 0x19
 3452 01a4 01       		.uleb128 0x1
 3453 01a5 13       		.uleb128 0x13
 3454 01a6 00       		.byte	0
 3455 01a7 00       		.byte	0
 3456 01a8 22       		.uleb128 0x22
 3457 01a9 05       		.uleb128 0x5
 3458 01aa 00       		.byte	0
 3459 01ab 03       		.uleb128 0x3
 3460 01ac 08       		.uleb128 0x8
 3461 01ad 3A       		.uleb128 0x3a
 3462 01ae 0B       		.uleb128 0xb
 3463 01af 3B       		.uleb128 0x3b
 3464 01b0 0B       		.uleb128 0xb
 3465 01b1 49       		.uleb128 0x49
 3466 01b2 13       		.uleb128 0x13
 3467 01b3 02       		.uleb128 0x2
 3468 01b4 18       		.uleb128 0x18
 3469 01b5 00       		.byte	0
 3470 01b6 00       		.byte	0
 3471 01b7 23       		.uleb128 0x23
 3472 01b8 05       		.uleb128 0x5
 3473 01b9 00       		.byte	0
 3474 01ba 03       		.uleb128 0x3
ARM GAS  /tmp/ccaiZisL.s 			page 62


 3475 01bb 0E       		.uleb128 0xe
 3476 01bc 3A       		.uleb128 0x3a
 3477 01bd 0B       		.uleb128 0xb
 3478 01be 3B       		.uleb128 0x3b
 3479 01bf 0B       		.uleb128 0xb
 3480 01c0 49       		.uleb128 0x49
 3481 01c1 13       		.uleb128 0x13
 3482 01c2 02       		.uleb128 0x2
 3483 01c3 18       		.uleb128 0x18
 3484 01c4 00       		.byte	0
 3485 01c5 00       		.byte	0
 3486 01c6 24       		.uleb128 0x24
 3487 01c7 05       		.uleb128 0x5
 3488 01c8 00       		.byte	0
 3489 01c9 03       		.uleb128 0x3
 3490 01ca 0E       		.uleb128 0xe
 3491 01cb 3A       		.uleb128 0x3a
 3492 01cc 0B       		.uleb128 0xb
 3493 01cd 3B       		.uleb128 0x3b
 3494 01ce 0B       		.uleb128 0xb
 3495 01cf 49       		.uleb128 0x49
 3496 01d0 13       		.uleb128 0x13
 3497 01d1 02       		.uleb128 0x2
 3498 01d2 17       		.uleb128 0x17
 3499 01d3 00       		.byte	0
 3500 01d4 00       		.byte	0
 3501 01d5 25       		.uleb128 0x25
 3502 01d6 34       		.uleb128 0x34
 3503 01d7 00       		.byte	0
 3504 01d8 03       		.uleb128 0x3
 3505 01d9 08       		.uleb128 0x8
 3506 01da 3A       		.uleb128 0x3a
 3507 01db 0B       		.uleb128 0xb
 3508 01dc 3B       		.uleb128 0x3b
 3509 01dd 0B       		.uleb128 0xb
 3510 01de 49       		.uleb128 0x49
 3511 01df 13       		.uleb128 0x13
 3512 01e0 02       		.uleb128 0x2
 3513 01e1 18       		.uleb128 0x18
 3514 01e2 00       		.byte	0
 3515 01e3 00       		.byte	0
 3516 01e4 26       		.uleb128 0x26
 3517 01e5 898201   		.uleb128 0x4109
 3518 01e8 00       		.byte	0
 3519 01e9 11       		.uleb128 0x11
 3520 01ea 01       		.uleb128 0x1
 3521 01eb 31       		.uleb128 0x31
 3522 01ec 13       		.uleb128 0x13
 3523 01ed 00       		.byte	0
 3524 01ee 00       		.byte	0
 3525 01ef 27       		.uleb128 0x27
 3526 01f0 2E       		.uleb128 0x2e
 3527 01f1 01       		.byte	0x1
 3528 01f2 3F       		.uleb128 0x3f
 3529 01f3 19       		.uleb128 0x19
 3530 01f4 03       		.uleb128 0x3
 3531 01f5 0E       		.uleb128 0xe
ARM GAS  /tmp/ccaiZisL.s 			page 63


 3532 01f6 3A       		.uleb128 0x3a
 3533 01f7 0B       		.uleb128 0xb
 3534 01f8 3B       		.uleb128 0x3b
 3535 01f9 0B       		.uleb128 0xb
 3536 01fa 27       		.uleb128 0x27
 3537 01fb 19       		.uleb128 0x19
 3538 01fc 49       		.uleb128 0x49
 3539 01fd 13       		.uleb128 0x13
 3540 01fe 11       		.uleb128 0x11
 3541 01ff 01       		.uleb128 0x1
 3542 0200 12       		.uleb128 0x12
 3543 0201 06       		.uleb128 0x6
 3544 0202 40       		.uleb128 0x40
 3545 0203 18       		.uleb128 0x18
 3546 0204 9742     		.uleb128 0x2117
 3547 0206 19       		.uleb128 0x19
 3548 0207 01       		.uleb128 0x1
 3549 0208 13       		.uleb128 0x13
 3550 0209 00       		.byte	0
 3551 020a 00       		.byte	0
 3552 020b 28       		.uleb128 0x28
 3553 020c 2E       		.uleb128 0x2e
 3554 020d 01       		.byte	0x1
 3555 020e 03       		.uleb128 0x3
 3556 020f 0E       		.uleb128 0xe
 3557 0210 3A       		.uleb128 0x3a
 3558 0211 0B       		.uleb128 0xb
 3559 0212 3B       		.uleb128 0x3b
 3560 0213 0B       		.uleb128 0xb
 3561 0214 27       		.uleb128 0x27
 3562 0215 19       		.uleb128 0x19
 3563 0216 20       		.uleb128 0x20
 3564 0217 0B       		.uleb128 0xb
 3565 0218 01       		.uleb128 0x1
 3566 0219 13       		.uleb128 0x13
 3567 021a 00       		.byte	0
 3568 021b 00       		.byte	0
 3569 021c 29       		.uleb128 0x29
 3570 021d 05       		.uleb128 0x5
 3571 021e 00       		.byte	0
 3572 021f 03       		.uleb128 0x3
 3573 0220 0E       		.uleb128 0xe
 3574 0221 3A       		.uleb128 0x3a
 3575 0222 0B       		.uleb128 0xb
 3576 0223 3B       		.uleb128 0x3b
 3577 0224 0B       		.uleb128 0xb
 3578 0225 49       		.uleb128 0x49
 3579 0226 13       		.uleb128 0x13
 3580 0227 00       		.byte	0
 3581 0228 00       		.byte	0
 3582 0229 2A       		.uleb128 0x2a
 3583 022a 05       		.uleb128 0x5
 3584 022b 00       		.byte	0
 3585 022c 03       		.uleb128 0x3
 3586 022d 08       		.uleb128 0x8
 3587 022e 3A       		.uleb128 0x3a
 3588 022f 0B       		.uleb128 0xb
ARM GAS  /tmp/ccaiZisL.s 			page 64


 3589 0230 3B       		.uleb128 0x3b
 3590 0231 0B       		.uleb128 0xb
 3591 0232 49       		.uleb128 0x49
 3592 0233 13       		.uleb128 0x13
 3593 0234 00       		.byte	0
 3594 0235 00       		.byte	0
 3595 0236 2B       		.uleb128 0x2b
 3596 0237 34       		.uleb128 0x34
 3597 0238 00       		.byte	0
 3598 0239 03       		.uleb128 0x3
 3599 023a 0E       		.uleb128 0xe
 3600 023b 3A       		.uleb128 0x3a
 3601 023c 0B       		.uleb128 0xb
 3602 023d 3B       		.uleb128 0x3b
 3603 023e 0B       		.uleb128 0xb
 3604 023f 49       		.uleb128 0x49
 3605 0240 13       		.uleb128 0x13
 3606 0241 00       		.byte	0
 3607 0242 00       		.byte	0
 3608 0243 2C       		.uleb128 0x2c
 3609 0244 0B       		.uleb128 0xb
 3610 0245 01       		.byte	0x1
 3611 0246 01       		.uleb128 0x1
 3612 0247 13       		.uleb128 0x13
 3613 0248 00       		.byte	0
 3614 0249 00       		.byte	0
 3615 024a 2D       		.uleb128 0x2d
 3616 024b 0B       		.uleb128 0xb
 3617 024c 01       		.byte	0x1
 3618 024d 00       		.byte	0
 3619 024e 00       		.byte	0
 3620 024f 2E       		.uleb128 0x2e
 3621 0250 2E       		.uleb128 0x2e
 3622 0251 01       		.byte	0x1
 3623 0252 03       		.uleb128 0x3
 3624 0253 0E       		.uleb128 0xe
 3625 0254 3A       		.uleb128 0x3a
 3626 0255 0B       		.uleb128 0xb
 3627 0256 3B       		.uleb128 0x3b
 3628 0257 0B       		.uleb128 0xb
 3629 0258 27       		.uleb128 0x27
 3630 0259 19       		.uleb128 0x19
 3631 025a 49       		.uleb128 0x49
 3632 025b 13       		.uleb128 0x13
 3633 025c 20       		.uleb128 0x20
 3634 025d 0B       		.uleb128 0xb
 3635 025e 01       		.uleb128 0x1
 3636 025f 13       		.uleb128 0x13
 3637 0260 00       		.byte	0
 3638 0261 00       		.byte	0
 3639 0262 2F       		.uleb128 0x2f
 3640 0263 2E       		.uleb128 0x2e
 3641 0264 01       		.byte	0x1
 3642 0265 3F       		.uleb128 0x3f
 3643 0266 19       		.uleb128 0x19
 3644 0267 03       		.uleb128 0x3
 3645 0268 0E       		.uleb128 0xe
ARM GAS  /tmp/ccaiZisL.s 			page 65


 3646 0269 3A       		.uleb128 0x3a
 3647 026a 0B       		.uleb128 0xb
 3648 026b 3B       		.uleb128 0x3b
 3649 026c 0B       		.uleb128 0xb
 3650 026d 27       		.uleb128 0x27
 3651 026e 19       		.uleb128 0x19
 3652 026f 49       		.uleb128 0x49
 3653 0270 13       		.uleb128 0x13
 3654 0271 11       		.uleb128 0x11
 3655 0272 01       		.uleb128 0x1
 3656 0273 12       		.uleb128 0x12
 3657 0274 06       		.uleb128 0x6
 3658 0275 40       		.uleb128 0x40
 3659 0276 18       		.uleb128 0x18
 3660 0277 9642     		.uleb128 0x2116
 3661 0279 19       		.uleb128 0x19
 3662 027a 01       		.uleb128 0x1
 3663 027b 13       		.uleb128 0x13
 3664 027c 00       		.byte	0
 3665 027d 00       		.byte	0
 3666 027e 30       		.uleb128 0x30
 3667 027f 34       		.uleb128 0x34
 3668 0280 00       		.byte	0
 3669 0281 03       		.uleb128 0x3
 3670 0282 0E       		.uleb128 0xe
 3671 0283 3A       		.uleb128 0x3a
 3672 0284 0B       		.uleb128 0xb
 3673 0285 3B       		.uleb128 0x3b
 3674 0286 0B       		.uleb128 0xb
 3675 0287 49       		.uleb128 0x49
 3676 0288 13       		.uleb128 0x13
 3677 0289 02       		.uleb128 0x2
 3678 028a 17       		.uleb128 0x17
 3679 028b 00       		.byte	0
 3680 028c 00       		.byte	0
 3681 028d 31       		.uleb128 0x31
 3682 028e 1D       		.uleb128 0x1d
 3683 028f 01       		.byte	0x1
 3684 0290 31       		.uleb128 0x31
 3685 0291 13       		.uleb128 0x13
 3686 0292 52       		.uleb128 0x52
 3687 0293 01       		.uleb128 0x1
 3688 0294 55       		.uleb128 0x55
 3689 0295 17       		.uleb128 0x17
 3690 0296 58       		.uleb128 0x58
 3691 0297 0B       		.uleb128 0xb
 3692 0298 59       		.uleb128 0x59
 3693 0299 0B       		.uleb128 0xb
 3694 029a 01       		.uleb128 0x1
 3695 029b 13       		.uleb128 0x13
 3696 029c 00       		.byte	0
 3697 029d 00       		.byte	0
 3698 029e 32       		.uleb128 0x32
 3699 029f 05       		.uleb128 0x5
 3700 02a0 00       		.byte	0
 3701 02a1 31       		.uleb128 0x31
 3702 02a2 13       		.uleb128 0x13
ARM GAS  /tmp/ccaiZisL.s 			page 66


 3703 02a3 02       		.uleb128 0x2
 3704 02a4 17       		.uleb128 0x17
 3705 02a5 00       		.byte	0
 3706 02a6 00       		.byte	0
 3707 02a7 33       		.uleb128 0x33
 3708 02a8 0B       		.uleb128 0xb
 3709 02a9 01       		.byte	0x1
 3710 02aa 55       		.uleb128 0x55
 3711 02ab 17       		.uleb128 0x17
 3712 02ac 00       		.byte	0
 3713 02ad 00       		.byte	0
 3714 02ae 34       		.uleb128 0x34
 3715 02af 34       		.uleb128 0x34
 3716 02b0 00       		.byte	0
 3717 02b1 31       		.uleb128 0x31
 3718 02b2 13       		.uleb128 0x13
 3719 02b3 02       		.uleb128 0x2
 3720 02b4 17       		.uleb128 0x17
 3721 02b5 00       		.byte	0
 3722 02b6 00       		.byte	0
 3723 02b7 35       		.uleb128 0x35
 3724 02b8 0B       		.uleb128 0xb
 3725 02b9 01       		.byte	0x1
 3726 02ba 11       		.uleb128 0x11
 3727 02bb 01       		.uleb128 0x1
 3728 02bc 12       		.uleb128 0x12
 3729 02bd 06       		.uleb128 0x6
 3730 02be 01       		.uleb128 0x1
 3731 02bf 13       		.uleb128 0x13
 3732 02c0 00       		.byte	0
 3733 02c1 00       		.byte	0
 3734 02c2 36       		.uleb128 0x36
 3735 02c3 1D       		.uleb128 0x1d
 3736 02c4 01       		.byte	0x1
 3737 02c5 31       		.uleb128 0x31
 3738 02c6 13       		.uleb128 0x13
 3739 02c7 52       		.uleb128 0x52
 3740 02c8 01       		.uleb128 0x1
 3741 02c9 55       		.uleb128 0x55
 3742 02ca 17       		.uleb128 0x17
 3743 02cb 58       		.uleb128 0x58
 3744 02cc 0B       		.uleb128 0xb
 3745 02cd 59       		.uleb128 0x59
 3746 02ce 0B       		.uleb128 0xb
 3747 02cf 00       		.byte	0
 3748 02d0 00       		.byte	0
 3749 02d1 37       		.uleb128 0x37
 3750 02d2 0B       		.uleb128 0xb
 3751 02d3 01       		.byte	0x1
 3752 02d4 11       		.uleb128 0x11
 3753 02d5 01       		.uleb128 0x1
 3754 02d6 12       		.uleb128 0x12
 3755 02d7 06       		.uleb128 0x6
 3756 02d8 00       		.byte	0
 3757 02d9 00       		.byte	0
 3758 02da 38       		.uleb128 0x38
 3759 02db 1D       		.uleb128 0x1d
ARM GAS  /tmp/ccaiZisL.s 			page 67


 3760 02dc 00       		.byte	0
 3761 02dd 31       		.uleb128 0x31
 3762 02de 13       		.uleb128 0x13
 3763 02df 11       		.uleb128 0x11
 3764 02e0 01       		.uleb128 0x1
 3765 02e1 12       		.uleb128 0x12
 3766 02e2 06       		.uleb128 0x6
 3767 02e3 58       		.uleb128 0x58
 3768 02e4 0B       		.uleb128 0xb
 3769 02e5 59       		.uleb128 0x59
 3770 02e6 0B       		.uleb128 0xb
 3771 02e7 00       		.byte	0
 3772 02e8 00       		.byte	0
 3773 02e9 39       		.uleb128 0x39
 3774 02ea 1D       		.uleb128 0x1d
 3775 02eb 01       		.byte	0x1
 3776 02ec 31       		.uleb128 0x31
 3777 02ed 13       		.uleb128 0x13
 3778 02ee 11       		.uleb128 0x11
 3779 02ef 01       		.uleb128 0x1
 3780 02f0 12       		.uleb128 0x12
 3781 02f1 06       		.uleb128 0x6
 3782 02f2 58       		.uleb128 0x58
 3783 02f3 0B       		.uleb128 0xb
 3784 02f4 59       		.uleb128 0x59
 3785 02f5 0B       		.uleb128 0xb
 3786 02f6 00       		.byte	0
 3787 02f7 00       		.byte	0
 3788 02f8 3A       		.uleb128 0x3a
 3789 02f9 05       		.uleb128 0x5
 3790 02fa 00       		.byte	0
 3791 02fb 31       		.uleb128 0x31
 3792 02fc 13       		.uleb128 0x13
 3793 02fd 02       		.uleb128 0x2
 3794 02fe 18       		.uleb128 0x18
 3795 02ff 00       		.byte	0
 3796 0300 00       		.byte	0
 3797 0301 3B       		.uleb128 0x3b
 3798 0302 34       		.uleb128 0x34
 3799 0303 00       		.byte	0
 3800 0304 03       		.uleb128 0x3
 3801 0305 08       		.uleb128 0x8
 3802 0306 3A       		.uleb128 0x3a
 3803 0307 0B       		.uleb128 0xb
 3804 0308 3B       		.uleb128 0x3b
 3805 0309 05       		.uleb128 0x5
 3806 030a 49       		.uleb128 0x49
 3807 030b 13       		.uleb128 0x13
 3808 030c 02       		.uleb128 0x2
 3809 030d 17       		.uleb128 0x17
 3810 030e 00       		.byte	0
 3811 030f 00       		.byte	0
 3812 0310 3C       		.uleb128 0x3c
 3813 0311 34       		.uleb128 0x34
 3814 0312 00       		.byte	0
 3815 0313 03       		.uleb128 0x3
 3816 0314 08       		.uleb128 0x8
ARM GAS  /tmp/ccaiZisL.s 			page 68


 3817 0315 3A       		.uleb128 0x3a
 3818 0316 0B       		.uleb128 0xb
 3819 0317 3B       		.uleb128 0x3b
 3820 0318 05       		.uleb128 0x5
 3821 0319 49       		.uleb128 0x49
 3822 031a 13       		.uleb128 0x13
 3823 031b 1C       		.uleb128 0x1c
 3824 031c 0B       		.uleb128 0xb
 3825 031d 00       		.byte	0
 3826 031e 00       		.byte	0
 3827 031f 3D       		.uleb128 0x3d
 3828 0320 898201   		.uleb128 0x4109
 3829 0323 01       		.byte	0x1
 3830 0324 11       		.uleb128 0x11
 3831 0325 01       		.uleb128 0x1
 3832 0326 31       		.uleb128 0x31
 3833 0327 13       		.uleb128 0x13
 3834 0328 00       		.byte	0
 3835 0329 00       		.byte	0
 3836 032a 3E       		.uleb128 0x3e
 3837 032b 8A8201   		.uleb128 0x410a
 3838 032e 00       		.byte	0
 3839 032f 02       		.uleb128 0x2
 3840 0330 18       		.uleb128 0x18
 3841 0331 9142     		.uleb128 0x2111
 3842 0333 18       		.uleb128 0x18
 3843 0334 00       		.byte	0
 3844 0335 00       		.byte	0
 3845 0336 3F       		.uleb128 0x3f
 3846 0337 2E       		.uleb128 0x2e
 3847 0338 01       		.byte	0x1
 3848 0339 3F       		.uleb128 0x3f
 3849 033a 19       		.uleb128 0x19
 3850 033b 03       		.uleb128 0x3
 3851 033c 0E       		.uleb128 0xe
 3852 033d 3A       		.uleb128 0x3a
 3853 033e 0B       		.uleb128 0xb
 3854 033f 3B       		.uleb128 0x3b
 3855 0340 05       		.uleb128 0x5
 3856 0341 27       		.uleb128 0x27
 3857 0342 19       		.uleb128 0x19
 3858 0343 49       		.uleb128 0x49
 3859 0344 13       		.uleb128 0x13
 3860 0345 11       		.uleb128 0x11
 3861 0346 01       		.uleb128 0x1
 3862 0347 12       		.uleb128 0x12
 3863 0348 06       		.uleb128 0x6
 3864 0349 40       		.uleb128 0x40
 3865 034a 18       		.uleb128 0x18
 3866 034b 9742     		.uleb128 0x2117
 3867 034d 19       		.uleb128 0x19
 3868 034e 01       		.uleb128 0x1
 3869 034f 13       		.uleb128 0x13
 3870 0350 00       		.byte	0
 3871 0351 00       		.byte	0
 3872 0352 40       		.uleb128 0x40
 3873 0353 05       		.uleb128 0x5
ARM GAS  /tmp/ccaiZisL.s 			page 69


 3874 0354 00       		.byte	0
 3875 0355 03       		.uleb128 0x3
 3876 0356 0E       		.uleb128 0xe
 3877 0357 3A       		.uleb128 0x3a
 3878 0358 0B       		.uleb128 0xb
 3879 0359 3B       		.uleb128 0x3b
 3880 035a 05       		.uleb128 0x5
 3881 035b 49       		.uleb128 0x49
 3882 035c 13       		.uleb128 0x13
 3883 035d 02       		.uleb128 0x2
 3884 035e 17       		.uleb128 0x17
 3885 035f 00       		.byte	0
 3886 0360 00       		.byte	0
 3887 0361 41       		.uleb128 0x41
 3888 0362 34       		.uleb128 0x34
 3889 0363 00       		.byte	0
 3890 0364 03       		.uleb128 0x3
 3891 0365 0E       		.uleb128 0xe
 3892 0366 3A       		.uleb128 0x3a
 3893 0367 0B       		.uleb128 0xb
 3894 0368 3B       		.uleb128 0x3b
 3895 0369 05       		.uleb128 0x5
 3896 036a 49       		.uleb128 0x49
 3897 036b 13       		.uleb128 0x13
 3898 036c 02       		.uleb128 0x2
 3899 036d 18       		.uleb128 0x18
 3900 036e 00       		.byte	0
 3901 036f 00       		.byte	0
 3902 0370 42       		.uleb128 0x42
 3903 0371 34       		.uleb128 0x34
 3904 0372 00       		.byte	0
 3905 0373 03       		.uleb128 0x3
 3906 0374 0E       		.uleb128 0xe
 3907 0375 3A       		.uleb128 0x3a
 3908 0376 0B       		.uleb128 0xb
 3909 0377 3B       		.uleb128 0x3b
 3910 0378 0B       		.uleb128 0xb
 3911 0379 49       		.uleb128 0x49
 3912 037a 13       		.uleb128 0x13
 3913 037b 02       		.uleb128 0x2
 3914 037c 18       		.uleb128 0x18
 3915 037d 00       		.byte	0
 3916 037e 00       		.byte	0
 3917 037f 43       		.uleb128 0x43
 3918 0380 34       		.uleb128 0x34
 3919 0381 00       		.byte	0
 3920 0382 03       		.uleb128 0x3
 3921 0383 0E       		.uleb128 0xe
 3922 0384 3A       		.uleb128 0x3a
 3923 0385 0B       		.uleb128 0xb
 3924 0386 3B       		.uleb128 0x3b
 3925 0387 05       		.uleb128 0x5
 3926 0388 49       		.uleb128 0x49
 3927 0389 13       		.uleb128 0x13
 3928 038a 3F       		.uleb128 0x3f
 3929 038b 19       		.uleb128 0x19
 3930 038c 3C       		.uleb128 0x3c
ARM GAS  /tmp/ccaiZisL.s 			page 70


 3931 038d 19       		.uleb128 0x19
 3932 038e 00       		.byte	0
 3933 038f 00       		.byte	0
 3934 0390 44       		.uleb128 0x44
 3935 0391 34       		.uleb128 0x34
 3936 0392 00       		.byte	0
 3937 0393 03       		.uleb128 0x3
 3938 0394 08       		.uleb128 0x8
 3939 0395 3A       		.uleb128 0x3a
 3940 0396 0B       		.uleb128 0xb
 3941 0397 3B       		.uleb128 0x3b
 3942 0398 05       		.uleb128 0x5
 3943 0399 49       		.uleb128 0x49
 3944 039a 13       		.uleb128 0x13
 3945 039b 3F       		.uleb128 0x3f
 3946 039c 19       		.uleb128 0x19
 3947 039d 3C       		.uleb128 0x3c
 3948 039e 19       		.uleb128 0x19
 3949 039f 00       		.byte	0
 3950 03a0 00       		.byte	0
 3951 03a1 45       		.uleb128 0x45
 3952 03a2 2E       		.uleb128 0x2e
 3953 03a3 00       		.byte	0
 3954 03a4 3F       		.uleb128 0x3f
 3955 03a5 19       		.uleb128 0x19
 3956 03a6 03       		.uleb128 0x3
 3957 03a7 0E       		.uleb128 0xe
 3958 03a8 3A       		.uleb128 0x3a
 3959 03a9 0B       		.uleb128 0xb
 3960 03aa 3B       		.uleb128 0x3b
 3961 03ab 0B       		.uleb128 0xb
 3962 03ac 27       		.uleb128 0x27
 3963 03ad 19       		.uleb128 0x19
 3964 03ae 49       		.uleb128 0x49
 3965 03af 13       		.uleb128 0x13
 3966 03b0 3C       		.uleb128 0x3c
 3967 03b1 19       		.uleb128 0x19
 3968 03b2 00       		.byte	0
 3969 03b3 00       		.byte	0
 3970 03b4 46       		.uleb128 0x46
 3971 03b5 2E       		.uleb128 0x2e
 3972 03b6 01       		.byte	0x1
 3973 03b7 3F       		.uleb128 0x3f
 3974 03b8 19       		.uleb128 0x19
 3975 03b9 03       		.uleb128 0x3
 3976 03ba 0E       		.uleb128 0xe
 3977 03bb 3A       		.uleb128 0x3a
 3978 03bc 0B       		.uleb128 0xb
 3979 03bd 3B       		.uleb128 0x3b
 3980 03be 0B       		.uleb128 0xb
 3981 03bf 27       		.uleb128 0x27
 3982 03c0 19       		.uleb128 0x19
 3983 03c1 3C       		.uleb128 0x3c
 3984 03c2 19       		.uleb128 0x19
 3985 03c3 00       		.byte	0
 3986 03c4 00       		.byte	0
 3987 03c5 00       		.byte	0
ARM GAS  /tmp/ccaiZisL.s 			page 71


 3988              		.section	.debug_loc,"",%progbits
 3989              	.Ldebug_loc0:
 3990              	.LLST0:
 3991 0000 00000000 		.4byte	.LVL0
 3992 0004 12000000 		.4byte	.LVL1
 3993 0008 0100     		.2byte	0x1
 3994 000a 52       		.byte	0x52
 3995 000b 12000000 		.4byte	.LVL1
 3996 000f 14000000 		.4byte	.LVL2
 3997 0013 0400     		.2byte	0x4
 3998 0015 F3       		.byte	0xf3
 3999 0016 01       		.uleb128 0x1
 4000 0017 52       		.byte	0x52
 4001 0018 9F       		.byte	0x9f
 4002 0019 14000000 		.4byte	.LVL2
 4003 001d 1A000000 		.4byte	.LVL3
 4004 0021 0100     		.2byte	0x1
 4005 0023 52       		.byte	0x52
 4006 0024 1A000000 		.4byte	.LVL3
 4007 0028 1E000000 		.4byte	.LVL4
 4008 002c 0400     		.2byte	0x4
 4009 002e F3       		.byte	0xf3
 4010 002f 01       		.uleb128 0x1
 4011 0030 52       		.byte	0x52
 4012 0031 9F       		.byte	0x9f
 4013 0032 1E000000 		.4byte	.LVL4
 4014 0036 24000000 		.4byte	.LVL5
 4015 003a 0100     		.2byte	0x1
 4016 003c 52       		.byte	0x52
 4017 003d 24000000 		.4byte	.LVL5
 4018 0041 26000000 		.4byte	.LVL6
 4019 0045 0400     		.2byte	0x4
 4020 0047 F3       		.byte	0xf3
 4021 0048 01       		.uleb128 0x1
 4022 0049 52       		.byte	0x52
 4023 004a 9F       		.byte	0x9f
 4024 004b 26000000 		.4byte	.LVL6
 4025 004f 2C000000 		.4byte	.LVL7
 4026 0053 0100     		.2byte	0x1
 4027 0055 52       		.byte	0x52
 4028 0056 2C000000 		.4byte	.LVL7
 4029 005a 30000000 		.4byte	.LFE323
 4030 005e 0400     		.2byte	0x4
 4031 0060 F3       		.byte	0xf3
 4032 0061 01       		.uleb128 0x1
 4033 0062 52       		.byte	0x52
 4034 0063 9F       		.byte	0x9f
 4035 0064 00000000 		.4byte	0
 4036 0068 00000000 		.4byte	0
 4037              	.LLST1:
 4038 006c 00000000 		.4byte	.LVL8
 4039 0070 20000000 		.4byte	.LVL9
 4040 0074 0100     		.2byte	0x1
 4041 0076 52       		.byte	0x52
 4042 0077 20000000 		.4byte	.LVL9
 4043 007b 2A000000 		.4byte	.LVL10
 4044 007f 0400     		.2byte	0x4
ARM GAS  /tmp/ccaiZisL.s 			page 72


 4045 0081 F3       		.byte	0xf3
 4046 0082 01       		.uleb128 0x1
 4047 0083 52       		.byte	0x52
 4048 0084 9F       		.byte	0x9f
 4049 0085 2A000000 		.4byte	.LVL10
 4050 0089 40000000 		.4byte	.LVL11
 4051 008d 0100     		.2byte	0x1
 4052 008f 52       		.byte	0x52
 4053 0090 40000000 		.4byte	.LVL11
 4054 0094 4A000000 		.4byte	.LVL12
 4055 0098 0400     		.2byte	0x4
 4056 009a F3       		.byte	0xf3
 4057 009b 01       		.uleb128 0x1
 4058 009c 52       		.byte	0x52
 4059 009d 9F       		.byte	0x9f
 4060 009e 4A000000 		.4byte	.LVL12
 4061 00a2 5E000000 		.4byte	.LVL13
 4062 00a6 0100     		.2byte	0x1
 4063 00a8 52       		.byte	0x52
 4064 00a9 5E000000 		.4byte	.LVL13
 4065 00ad 68000000 		.4byte	.LVL14
 4066 00b1 0400     		.2byte	0x4
 4067 00b3 F3       		.byte	0xf3
 4068 00b4 01       		.uleb128 0x1
 4069 00b5 52       		.byte	0x52
 4070 00b6 9F       		.byte	0x9f
 4071 00b7 68000000 		.4byte	.LVL14
 4072 00bb 7E000000 		.4byte	.LVL15
 4073 00bf 0100     		.2byte	0x1
 4074 00c1 52       		.byte	0x52
 4075 00c2 7E000000 		.4byte	.LVL15
 4076 00c6 8A000000 		.4byte	.LFE324
 4077 00ca 0400     		.2byte	0x4
 4078 00cc F3       		.byte	0xf3
 4079 00cd 01       		.uleb128 0x1
 4080 00ce 52       		.byte	0x52
 4081 00cf 9F       		.byte	0x9f
 4082 00d0 00000000 		.4byte	0
 4083 00d4 00000000 		.4byte	0
 4084              	.LLST2:
 4085 00d8 00000000 		.4byte	.LVL16
 4086 00dc 09000000 		.4byte	.LVL17-1
 4087 00e0 0600     		.2byte	0x6
 4088 00e2 50       		.byte	0x50
 4089 00e3 93       		.byte	0x93
 4090 00e4 04       		.uleb128 0x4
 4091 00e5 51       		.byte	0x51
 4092 00e6 93       		.byte	0x93
 4093 00e7 04       		.uleb128 0x4
 4094 00e8 09000000 		.4byte	.LVL17-1
 4095 00ec 24000000 		.4byte	.LFE325
 4096 00f0 0600     		.2byte	0x6
 4097 00f2 F3       		.byte	0xf3
 4098 00f3 03       		.uleb128 0x3
 4099 00f4 F5       		.byte	0xf5
 4100 00f5 00       		.uleb128 0
 4101 00f6 25       		.uleb128 0x25
ARM GAS  /tmp/ccaiZisL.s 			page 73


 4102 00f7 9F       		.byte	0x9f
 4103 00f8 00000000 		.4byte	0
 4104 00fc 00000000 		.4byte	0
 4105              	.LLST3:
 4106 0100 14000000 		.4byte	.LVL19
 4107 0104 1F000000 		.4byte	.LVL20-1
 4108 0108 0600     		.2byte	0x6
 4109 010a 50       		.byte	0x50
 4110 010b 93       		.byte	0x93
 4111 010c 04       		.uleb128 0x4
 4112 010d 51       		.byte	0x51
 4113 010e 93       		.byte	0x93
 4114 010f 04       		.uleb128 0x4
 4115 0110 00000000 		.4byte	0
 4116 0114 00000000 		.4byte	0
 4117              	.LLST4:
 4118 0118 28000000 		.4byte	.LVL21
 4119 011c 4E000000 		.4byte	.LVL26
 4120 0120 0600     		.2byte	0x6
 4121 0122 56       		.byte	0x56
 4122 0123 93       		.byte	0x93
 4123 0124 04       		.uleb128 0x4
 4124 0125 57       		.byte	0x57
 4125 0126 93       		.byte	0x93
 4126 0127 04       		.uleb128 0x4
 4127 0128 00000000 		.4byte	0
 4128 012c 00000000 		.4byte	0
 4129              	.LLST5:
 4130 0130 F2000000 		.4byte	.LVL38
 4131 0134 18010000 		.4byte	.LVL39
 4132 0138 2800     		.2byte	0x28
 4133 013a 72       		.byte	0x72
 4134 013b 00       		.sleb128 0
 4135 013c 35       		.byte	0x35
 4136 013d 24       		.byte	0x24
 4137 013e 77       		.byte	0x77
 4138 013f 00       		.sleb128 0
 4139 0140 3B       		.byte	0x3b
 4140 0141 24       		.byte	0x24
 4141 0142 21       		.byte	0x21
 4142 0143 91       		.byte	0x91
 4143 0144 5A       		.sleb128 -38
 4144 0145 94       		.byte	0x94
 4145 0146 01       		.byte	0x1
 4146 0147 08       		.byte	0x8
 4147 0148 FF       		.byte	0xff
 4148 0149 1A       		.byte	0x1a
 4149 014a 40       		.byte	0x40
 4150 014b 24       		.byte	0x24
 4151 014c 21       		.byte	0x21
 4152 014d 91       		.byte	0x91
 4153 014e 59       		.sleb128 -39
 4154 014f 94       		.byte	0x94
 4155 0150 01       		.byte	0x1
 4156 0151 08       		.byte	0x8
 4157 0152 FF       		.byte	0xff
 4158 0153 1A       		.byte	0x1a
ARM GAS  /tmp/ccaiZisL.s 			page 74


 4159 0154 23       		.byte	0x23
 4160 0155 01       		.uleb128 0x1
 4161 0156 45       		.byte	0x45
 4162 0157 24       		.byte	0x24
 4163 0158 21       		.byte	0x21
 4164 0159 76       		.byte	0x76
 4165 015a 00       		.sleb128 0
 4166 015b 31       		.byte	0x31
 4167 015c 25       		.byte	0x25
 4168 015d 08       		.byte	0x8
 4169 015e FF       		.byte	0xff
 4170 015f 1A       		.byte	0x1a
 4171 0160 21       		.byte	0x21
 4172 0161 9F       		.byte	0x9f
 4173 0162 00000000 		.4byte	0
 4174 0166 00000000 		.4byte	0
 4175              	.LLST6:
 4176 016a 28000000 		.4byte	.LVL21
 4177 016e 1A010000 		.4byte	.LVL40
 4178 0172 0100     		.2byte	0x1
 4179 0174 5D       		.byte	0x5d
 4180 0175 00000000 		.4byte	0
 4181 0179 00000000 		.4byte	0
 4182              	.LLST8:
 4183 017d 30000000 		.4byte	.LVL23
 4184 0181 34000000 		.4byte	.LVL24
 4185 0185 0100     		.2byte	0x1
 4186 0187 52       		.byte	0x52
 4187 0188 34000000 		.4byte	.LVL24
 4188 018c 64000000 		.4byte	.LVL27
 4189 0190 0100     		.2byte	0x1
 4190 0192 54       		.byte	0x54
 4191 0193 00000000 		.4byte	0
 4192 0197 00000000 		.4byte	0
 4193              	.LLST9:
 4194 019b 3A000000 		.4byte	.LVL25
 4195 019f 70000000 		.4byte	.LVL28
 4196 01a3 0100     		.2byte	0x1
 4197 01a5 50       		.byte	0x50
 4198 01a6 70000000 		.4byte	.LVL28
 4199 01aa EA000000 		.4byte	.LVL37
 4200 01ae 0100     		.2byte	0x1
 4201 01b0 51       		.byte	0x51
 4202 01b1 EA000000 		.4byte	.LVL37
 4203 01b5 F2000000 		.4byte	.LVL38
 4204 01b9 0300     		.2byte	0x3
 4205 01bb 71       		.byte	0x71
 4206 01bc 7F       		.sleb128 -1
 4207 01bd 9F       		.byte	0x9f
 4208 01be 00000000 		.4byte	0
 4209 01c2 00000000 		.4byte	0
 4210              	.LLST10:
 4211 01c6 B8000000 		.4byte	.LVL32
 4212 01ca F2000000 		.4byte	.LVL38
 4213 01ce 0100     		.2byte	0x1
 4214 01d0 55       		.byte	0x55
 4215 01d1 00000000 		.4byte	0
ARM GAS  /tmp/ccaiZisL.s 			page 75


 4216 01d5 00000000 		.4byte	0
 4217              	.LLST11:
 4218 01d9 70000000 		.4byte	.LVL28
 4219 01dd 74000000 		.4byte	.LVL29
 4220 01e1 0600     		.2byte	0x6
 4221 01e3 74       		.byte	0x74
 4222 01e4 00       		.sleb128 0
 4223 01e5 08       		.byte	0x8
 4224 01e6 FF       		.byte	0xff
 4225 01e7 1A       		.byte	0x1a
 4226 01e8 9F       		.byte	0x9f
 4227 01e9 74000000 		.4byte	.LVL29
 4228 01ed 90000000 		.4byte	.LVL30
 4229 01f1 0100     		.2byte	0x1
 4230 01f3 53       		.byte	0x53
 4231 01f4 90000000 		.4byte	.LVL30
 4232 01f8 A6000000 		.4byte	.LVL31
 4233 01fc 0400     		.2byte	0x4
 4234 01fe 74       		.byte	0x74
 4235 01ff EC0E     		.sleb128 1900
 4236 0201 9F       		.byte	0x9f
 4237 0202 A6000000 		.4byte	.LVL31
 4238 0206 B8000000 		.4byte	.LVL32
 4239 020a 0100     		.2byte	0x1
 4240 020c 53       		.byte	0x53
 4241 020d B8000000 		.4byte	.LVL32
 4242 0211 CE000000 		.4byte	.LVL34
 4243 0215 0400     		.2byte	0x4
 4244 0217 74       		.byte	0x74
 4245 0218 EC0E     		.sleb128 1900
 4246 021a 9F       		.byte	0x9f
 4247 021b 00000000 		.4byte	0
 4248 021f 00000000 		.4byte	0
 4249              	.LLST12:
 4250 0223 DA000000 		.4byte	.LVL35
 4251 0227 F2000000 		.4byte	.LVL38
 4252 022b 0100     		.2byte	0x1
 4253 022d 54       		.byte	0x54
 4254 022e 00000000 		.4byte	0
 4255 0232 00000000 		.4byte	0
 4256              	.LLST13:
 4257 0236 00000000 		.4byte	.LVL42
 4258 023a 04000000 		.4byte	.LVL43
 4259 023e 0200     		.2byte	0x2
 4260 0240 30       		.byte	0x30
 4261 0241 9F       		.byte	0x9f
 4262 0242 04000000 		.4byte	.LVL43
 4263 0246 0A000000 		.4byte	.LVL44
 4264 024a 0600     		.2byte	0x6
 4265 024c 08       		.byte	0x8
 4266 024d 64       		.byte	0x64
 4267 024e 74       		.byte	0x74
 4268 024f 00       		.sleb128 0
 4269 0250 1C       		.byte	0x1c
 4270 0251 9F       		.byte	0x9f
 4271 0252 00000000 		.4byte	0
 4272 0256 00000000 		.4byte	0
ARM GAS  /tmp/ccaiZisL.s 			page 76


 4273              	.LLST14:
 4274 025a 00000000 		.4byte	.LVL47
 4275 025e 26000000 		.4byte	.LVL54
 4276 0262 0100     		.2byte	0x1
 4277 0264 50       		.byte	0x50
 4278 0265 26000000 		.4byte	.LVL54
 4279 0269 58000000 		.4byte	.LFE335
 4280 026d 0400     		.2byte	0x4
 4281 026f F3       		.byte	0xf3
 4282 0270 01       		.uleb128 0x1
 4283 0271 50       		.byte	0x50
 4284 0272 9F       		.byte	0x9f
 4285 0273 00000000 		.4byte	0
 4286 0277 00000000 		.4byte	0
 4287              	.LLST15:
 4288 027b 0A000000 		.4byte	.LVL49
 4289 027f 40000000 		.4byte	.LVL57
 4290 0283 0100     		.2byte	0x1
 4291 0285 54       		.byte	0x54
 4292 0286 40000000 		.4byte	.LVL57
 4293 028a 58000000 		.4byte	.LFE335
 4294 028e 0600     		.2byte	0x6
 4295 0290 F3       		.byte	0xf3
 4296 0291 01       		.uleb128 0x1
 4297 0292 50       		.byte	0x50
 4298 0293 3F       		.byte	0x3f
 4299 0294 1A       		.byte	0x1a
 4300 0295 9F       		.byte	0x9f
 4301 0296 00000000 		.4byte	0
 4302 029a 00000000 		.4byte	0
 4303              	.LLST16:
 4304 029e 0A000000 		.4byte	.LVL49
 4305 02a2 12000000 		.4byte	.LVL50
 4306 02a6 0200     		.2byte	0x2
 4307 02a8 30       		.byte	0x30
 4308 02a9 9F       		.byte	0x9f
 4309 02aa 12000000 		.4byte	.LVL50
 4310 02ae 16000000 		.4byte	.LVL51
 4311 02b2 0800     		.2byte	0x8
 4312 02b4 73       		.byte	0x73
 4313 02b5 00       		.sleb128 0
 4314 02b6 77       		.byte	0x77
 4315 02b7 00       		.sleb128 0
 4316 02b8 25       		.byte	0x25
 4317 02b9 33       		.byte	0x33
 4318 02ba 1A       		.byte	0x1a
 4319 02bb 9F       		.byte	0x9f
 4320 02bc 1E000000 		.4byte	.LVL52
 4321 02c0 22000000 		.4byte	.LVL53
 4322 02c4 0100     		.2byte	0x1
 4323 02c6 53       		.byte	0x53
 4324 02c7 22000000 		.4byte	.LVL53
 4325 02cb 38000000 		.4byte	.LVL55
 4326 02cf 0100     		.2byte	0x1
 4327 02d1 51       		.byte	0x51
 4328 02d2 38000000 		.4byte	.LVL55
 4329 02d6 3C000000 		.4byte	.LVL56
ARM GAS  /tmp/ccaiZisL.s 			page 77


 4330 02da 0100     		.2byte	0x1
 4331 02dc 52       		.byte	0x52
 4332 02dd 3C000000 		.4byte	.LVL56
 4333 02e1 56000000 		.4byte	.LVL58
 4334 02e5 0100     		.2byte	0x1
 4335 02e7 53       		.byte	0x53
 4336 02e8 56000000 		.4byte	.LVL58
 4337 02ec 58000000 		.4byte	.LFE335
 4338 02f0 0100     		.2byte	0x1
 4339 02f2 50       		.byte	0x50
 4340 02f3 00000000 		.4byte	0
 4341 02f7 00000000 		.4byte	0
 4342              		.section	.debug_aranges,"",%progbits
 4343 0000 5C000000 		.4byte	0x5c
 4344 0004 0200     		.2byte	0x2
 4345 0006 00000000 		.4byte	.Ldebug_info0
 4346 000a 04       		.byte	0x4
 4347 000b 00       		.byte	0
 4348 000c 0000     		.2byte	0
 4349 000e 0000     		.2byte	0
 4350 0010 00000000 		.4byte	.LFB323
 4351 0014 30000000 		.4byte	.LFE323-.LFB323
 4352 0018 00000000 		.4byte	.LFB324
 4353 001c 8A000000 		.4byte	.LFE324-.LFB324
 4354 0020 00000000 		.4byte	.LFB325
 4355 0024 24000000 		.4byte	.LFE325-.LFB325
 4356 0028 00000000 		.4byte	.LFB326
 4357 002c 18000000 		.4byte	.LFE326-.LFB326
 4358 0030 00000000 		.4byte	.LFB329
 4359 0034 38010000 		.4byte	.LFE329-.LFB329
 4360 0038 00000000 		.4byte	.LFB332
 4361 003c 0C000000 		.4byte	.LFE332-.LFB332
 4362 0040 00000000 		.4byte	.LFB333
 4363 0044 38000000 		.4byte	.LFE333-.LFB333
 4364 0048 00000000 		.4byte	.LFB334
 4365 004c 20000000 		.4byte	.LFE334-.LFB334
 4366 0050 00000000 		.4byte	.LFB335
 4367 0054 58000000 		.4byte	.LFE335-.LFB335
 4368 0058 00000000 		.4byte	0
 4369 005c 00000000 		.4byte	0
 4370              		.section	.debug_ranges,"",%progbits
 4371              	.Ldebug_ranges0:
 4372 0000 16000000 		.4byte	.LBB13
 4373 0004 1A000000 		.4byte	.LBE13
 4374 0008 20000000 		.4byte	.LBB23
 4375 000c 24000000 		.4byte	.LBE23
 4376 0010 28000000 		.4byte	.LBB24
 4377 0014 F2000000 		.4byte	.LBE24
 4378 0018 00000000 		.4byte	0
 4379 001c 00000000 		.4byte	0
 4380 0020 70000000 		.4byte	.LBB16
 4381 0024 AA000000 		.4byte	.LBE16
 4382 0028 B0000000 		.4byte	.LBB19
 4383 002c B4000000 		.4byte	.LBE19
 4384 0030 00000000 		.4byte	0
 4385 0034 00000000 		.4byte	0
 4386 0038 00000000 		.4byte	.LFB323
ARM GAS  /tmp/ccaiZisL.s 			page 78


 4387 003c 30000000 		.4byte	.LFE323
 4388 0040 00000000 		.4byte	.LFB324
 4389 0044 8A000000 		.4byte	.LFE324
 4390 0048 00000000 		.4byte	.LFB325
 4391 004c 24000000 		.4byte	.LFE325
 4392 0050 00000000 		.4byte	.LFB326
 4393 0054 18000000 		.4byte	.LFE326
 4394 0058 00000000 		.4byte	.LFB329
 4395 005c 38010000 		.4byte	.LFE329
 4396 0060 00000000 		.4byte	.LFB332
 4397 0064 0C000000 		.4byte	.LFE332
 4398 0068 00000000 		.4byte	.LFB333
 4399 006c 38000000 		.4byte	.LFE333
 4400 0070 00000000 		.4byte	.LFB334
 4401 0074 20000000 		.4byte	.LFE334
 4402 0078 00000000 		.4byte	.LFB335
 4403 007c 58000000 		.4byte	.LFE335
 4404 0080 00000000 		.4byte	0
 4405 0084 00000000 		.4byte	0
 4406              		.section	.debug_line,"",%progbits
 4407              	.Ldebug_line0:
 4408 0000 BF040000 		.section	.debug_str,"MS",%progbits,1
 4408      02009203 
 4408      00000201 
 4408      FB0E0D00 
 4408      01010101 
 4409              	.LASF193:
 4410 0000 42535252 		.ascii	"BSRR\000"
 4410      00
 4411              	.LASF111:
 4412 0005 44434B43 		.ascii	"DCKCFGR\000"
 4412      46475200 
 4413              	.LASF96:
 4414 000d 41504231 		.ascii	"APB1ENR\000"
 4414      454E5200 
 4415              	.LASF180:
 4416 0015 77746D74 		.ascii	"wtmtxp\000"
 4416      787000
 4417              	.LASF163:
 4418 001c 746D5F63 		.ascii	"tm_calibration_t\000"
 4418      616C6962 
 4418      72617469 
 4418      6F6E5F74 
 4418      00
 4419              	.LASF49:
 4420 002d 74687265 		.ascii	"thread_reference_t\000"
 4420      61645F72 
 4420      65666572 
 4420      656E6365 
 4420      5F7400
 4421              	.LASF201:
 4422 0040 5254435F 		.ascii	"RTC_BOOT_OFF\000"
 4422      424F4F54 
 4422      5F4F4646 
 4422      00
 4423              	.LASF148:
 4424 004d 72656761 		.ascii	"regarm_t\000"
ARM GAS  /tmp/ccaiZisL.s 			page 79


 4424      726D5F74 
 4424      00
 4425              	.LASF104:
 4426 0056 41504232 		.ascii	"APB2LPENR\000"
 4426      4C50454E 
 4426      5200
 4427              	.LASF110:
 4428 0060 504C4C53 		.ascii	"PLLSAICFGR\000"
 4428      41494346 
 4428      475200
 4429              	.LASF90:
 4430 006b 41504232 		.ascii	"APB2RSTR\000"
 4430      52535452 
 4430      00
 4431              	.LASF40:
 4432 0074 666C6167 		.ascii	"flags\000"
 4432      7300
 4433              	.LASF77:
 4434 007a 73797374 		.ascii	"systime_t\000"
 4434      696D655F 
 4434      7400
 4435              	.LASF46:
 4436 0084 7265616C 		.ascii	"realprio\000"
 4436      7072696F 
 4436      00
 4437              	.LASF114:
 4438 008d 57555452 		.ascii	"WUTR\000"
 4438      00
 4439              	.LASF122:
 4440 0092 43414C52 		.ascii	"CALR\000"
 4440      00
 4441              	.LASF44:
 4442 0097 6570656E 		.ascii	"epending\000"
 4442      64696E67 
 4442      00
 4443              	.LASF1:
 4444 00a0 756E7369 		.ascii	"unsigned int\000"
 4444      676E6564 
 4444      20696E74 
 4444      00
 4445              	.LASF53:
 4446 00ad 6E657874 		.ascii	"next\000"
 4446      00
 4447              	.LASF172:
 4448 00b2 6D5F6372 		.ascii	"m_crit_isr\000"
 4448      69745F69 
 4448      737200
 4449              	.LASF50:
 4450 00bd 74687265 		.ascii	"threads_list_t\000"
 4450      6164735F 
 4450      6C697374 
 4450      5F7400
 4451              	.LASF167:
 4452 00cc 63756D75 		.ascii	"cumulative\000"
 4452      6C617469 
 4452      766500
 4453              	.LASF237:
ARM GAS  /tmp/ccaiZisL.s 			page 80


 4454 00d7 70616C52 		.ascii	"palReadLineMode\000"
 4454      6561644C 
 4454      696E654D 
 4454      6F646500 
 4455              	.LASF9:
 4456 00e7 5F5F696E 		.ascii	"__int32_t\000"
 4456      7433325F 
 4456      7400
 4457              	.LASF41:
 4458 00f1 72656673 		.ascii	"refs\000"
 4458      00
 4459              	.LASF137:
 4460 00f6 424B5031 		.ascii	"BKP10R\000"
 4460      305200
 4461              	.LASF112:
 4462 00fd 5243435F 		.ascii	"RCC_TypeDef\000"
 4462      54797065 
 4462      44656600 
 4463              	.LASF199:
 4464 0109 696F6C69 		.ascii	"ioline_t\000"
 4464      6E655F74 
 4464      00
 4465              	.LASF74:
 4466 0112 76746C69 		.ascii	"vtlist\000"
 4466      737400
 4467              	.LASF207:
 4468 0119 746D5F6D 		.ascii	"tm_mday\000"
 4468      64617900 
 4469              	.LASF150:
 4470 0121 706F7274 		.ascii	"port_context\000"
 4470      5F636F6E 
 4470      74657874 
 4470      00
 4471              	.LASF6:
 4472 012e 73686F72 		.ascii	"short int\000"
 4472      7420696E 
 4472      7400
 4473              	.LASF58:
 4474 0138 63685F72 		.ascii	"ch_ready_list\000"
 4474      65616479 
 4474      5F6C6973 
 4474      7400
 4475              	.LASF230:
 4476 0146 7574635F 		.ascii	"utc_usec\000"
 4476      75736563 
 4476      00
 4477              	.LASF244:
 4478 014f 2E2E2F2E 		.ascii	"../../libraries/AP_HAL_ChibiOS/hwdef/common/stm32_u"
 4478      2E2F6C69 
 4478      62726172 
 4478      6965732F 
 4478      41505F48 
 4479 0182 74696C2E 		.ascii	"til.c\000"
 4479      6300
 4480              	.LASF64:
 4481 0188 66756E63 		.ascii	"func\000"
 4481      00
ARM GAS  /tmp/ccaiZisL.s 			page 81


 4482              	.LASF181:
 4483 018d 65776D61 		.ascii	"ewmask\000"
 4483      736B00
 4484              	.LASF56:
 4485 0194 70726576 		.ascii	"prev\000"
 4485      00
 4486              	.LASF100:
 4487 0199 41484232 		.ascii	"AHB2LPENR\000"
 4487      4C50454E 
 4487      5200
 4488              	.LASF158:
 4489 01a3 444D4152 		.ascii	"DMAR\000"
 4489      00
 4490              	.LASF234:
 4491 01a8 7365745F 		.ascii	"set_rtc_backup0\000"
 4491      7274635F 
 4491      6261636B 
 4491      75703000 
 4492              	.LASF60:
 4493 01b8 76746675 		.ascii	"vtfunc_t\000"
 4493      6E635F74 
 4493      00
 4494              	.LASF176:
 4495 01c1 77746F62 		.ascii	"wtobjp\000"
 4495      6A7000
 4496              	.LASF138:
 4497 01c8 424B5031 		.ascii	"BKP11R\000"
 4497      315200
 4498              	.LASF226:
 4499 01cf 63685469 		.ascii	"chTimeMS2I\000"
 4499      6D654D53 
 4499      324900
 4500              	.LASF69:
 4501 01da 63685F73 		.ascii	"ch_system_debug\000"
 4501      79737465 
 4501      6D5F6465 
 4501      62756700 
 4502              	.LASF127:
 4503 01ea 424B5030 		.ascii	"BKP0R\000"
 4503      5200
 4504              	.LASF124:
 4505 01f0 414C524D 		.ascii	"ALRMASSR\000"
 4505      41535352 
 4505      00
 4506              	.LASF19:
 4507 01f9 75696E74 		.ascii	"uint32_t\000"
 4507      33325F74 
 4507      00
 4508              	.LASF178:
 4509 0202 73656E74 		.ascii	"sentmsg\000"
 4509      6D736700 
 4510              	.LASF173:
 4511 020a 6B65726E 		.ascii	"kernel_stats_t\000"
 4511      656C5F73 
 4511      74617473 
 4511      5F7400
 4512              	.LASF206:
ARM GAS  /tmp/ccaiZisL.s 			page 82


 4513 0219 746D5F6D 		.ascii	"tm_mon\000"
 4513      6F6E00
 4514              	.LASF157:
 4515 0220 42445452 		.ascii	"BDTR\000"
 4515      00
 4516              	.LASF76:
 4517 0225 6B65726E 		.ascii	"kernel_stats\000"
 4517      656C5F73 
 4517      74617473 
 4517      00
 4518              	.LASF182:
 4519 0232 63685F73 		.ascii	"ch_semaphore\000"
 4519      656D6170 
 4519      686F7265 
 4519      00
 4520              	.LASF92:
 4521 023f 41484231 		.ascii	"AHB1ENR\000"
 4521      454E5200 
 4522              	.LASF27:
 4523 0247 74707269 		.ascii	"tprio_t\000"
 4523      6F5F7400 
 4524              	.LASF108:
 4525 024f 53534347 		.ascii	"SSCGR\000"
 4525      5200
 4526              	.LASF0:
 4527 0255 6C6F6E67 		.ascii	"long long unsigned int\000"
 4527      206C6F6E 
 4527      6720756E 
 4527      7369676E 
 4527      65642069 
 4528              	.LASF154:
 4529 026c 43434D52 		.ascii	"CCMR1\000"
 4529      3100
 4530              	.LASF155:
 4531 0272 43434D52 		.ascii	"CCMR2\000"
 4531      3200
 4532              	.LASF159:
 4533 0278 43434D52 		.ascii	"CCMR3\000"
 4533      3300
 4534              	.LASF139:
 4535 027e 424B5031 		.ascii	"BKP12R\000"
 4535      325200
 4536              	.LASF248:
 4537 0285 6872745F 		.ascii	"hrt_micros64\000"
 4537      6D696372 
 4537      6F733634 
 4537      00
 4538              	.LASF215:
 4539 0292 73746D33 		.ascii	"stm32_timer_set_input_filter\000"
 4539      325F7469 
 4539      6D65725F 
 4539      7365745F 
 4539      696E7075 
 4540              	.LASF128:
 4541 02af 424B5031 		.ascii	"BKP1R\000"
 4541      5200
 4542              	.LASF62:
ARM GAS  /tmp/ccaiZisL.s 			page 83


 4543 02b5 63685F76 		.ascii	"ch_virtual_timer\000"
 4543      69727475 
 4543      616C5F74 
 4543      696D6572 
 4543      00
 4544              	.LASF235:
 4545 02c6 7365745F 		.ascii	"set_fast_reboot\000"
 4545      66617374 
 4545      5F726562 
 4545      6F6F7400 
 4546              	.LASF7:
 4547 02d6 5F5F7569 		.ascii	"__uint16_t\000"
 4547      6E743136 
 4547      5F7400
 4548              	.LASF30:
 4549 02e1 636E745F 		.ascii	"cnt_t\000"
 4549      7400
 4550              	.LASF52:
 4551 02e7 63685F74 		.ascii	"ch_threads_list\000"
 4551      68726561 
 4551      64735F6C 
 4551      69737400 
 4552              	.LASF189:
 4553 02f7 4D4F4445 		.ascii	"MODER\000"
 4553      5200
 4554              	.LASF79:
 4555 02fd 74696D65 		.ascii	"time_msecs_t\000"
 4555      5F6D7365 
 4555      63735F74 
 4555      00
 4556              	.LASF196:
 4557 030a 41465248 		.ascii	"AFRH\000"
 4557      00
 4558              	.LASF165:
 4559 030f 776F7273 		.ascii	"worst\000"
 4559      7400
 4560              	.LASF197:
 4561 0315 73746D33 		.ascii	"stm32_gpio_t\000"
 4561      325F6770 
 4561      696F5F74 
 4561      00
 4562              	.LASF184:
 4563 0322 6F776E65 		.ascii	"owner\000"
 4563      7200
 4564              	.LASF87:
 4565 0328 41484233 		.ascii	"AHB3RSTR\000"
 4565      52535452 
 4565      00
 4566              	.LASF54:
 4567 0331 74687265 		.ascii	"threads_queue_t\000"
 4567      6164735F 
 4567      71756575 
 4567      655F7400 
 4568              	.LASF188:
 4569 0341 636C6561 		.ascii	"clear\000"
 4569      7200
 4570              	.LASF45:
ARM GAS  /tmp/ccaiZisL.s 			page 84


 4571 0347 6D74786C 		.ascii	"mtxlist\000"
 4571      69737400 
 4572              	.LASF66:
 4573 034f 63685F76 		.ascii	"ch_virtual_timers_list\000"
 4573      69727475 
 4573      616C5F74 
 4573      696D6572 
 4573      735F6C69 
 4574              	.LASF140:
 4575 0366 424B5031 		.ascii	"BKP13R\000"
 4575      335200
 4576              	.LASF32:
 4577 036d 74687265 		.ascii	"thread_t\000"
 4577      61645F74 
 4577      00
 4578              	.LASF147:
 4579 0376 5254435F 		.ascii	"RTC_TypeDef\000"
 4579      54797065 
 4579      44656600 
 4580              	.LASF129:
 4581 0382 424B5032 		.ascii	"BKP2R\000"
 4581      5200
 4582              	.LASF3:
 4583 0388 73697A65 		.ascii	"size_t\000"
 4583      5F7400
 4584              	.LASF174:
 4585 038f 7264796D 		.ascii	"rdymsg\000"
 4585      736700
 4586              	.LASF20:
 4587 0396 696E7436 		.ascii	"int64_t\000"
 4587      345F7400 
 4588              	.LASF162:
 4589 039e 6F666673 		.ascii	"offset\000"
 4589      657400
 4590              	.LASF161:
 4591 03a5 73746D33 		.ascii	"stm32_tim_t\000"
 4591      325F7469 
 4591      6D5F7400 
 4592              	.LASF120:
 4593 03b1 54534452 		.ascii	"TSDR\000"
 4593      00
 4594              	.LASF187:
 4595 03b6 5F426F6F 		.ascii	"_Bool\000"
 4595      6C00
 4596              	.LASF227:
 4597 03bc 69735F6C 		.ascii	"is_leap\000"
 4597      65617000 
 4598              	.LASF246:
 4599 03c4 7274635F 		.ascii	"rtc_boot_magic\000"
 4599      626F6F74 
 4599      5F6D6167 
 4599      696300
 4600              	.LASF183:
 4601 03d3 63685F6D 		.ascii	"ch_mutex\000"
 4601      75746578 
 4601      00
 4602              	.LASF153:
ARM GAS  /tmp/ccaiZisL.s 			page 85


 4603 03dc 44494552 		.ascii	"DIER\000"
 4603      00
 4604              	.LASF141:
 4605 03e1 424B5031 		.ascii	"BKP14R\000"
 4605      345200
 4606              	.LASF166:
 4607 03e8 6C617374 		.ascii	"last\000"
 4607      00
 4608              	.LASF93:
 4609 03ed 41484232 		.ascii	"AHB2ENR\000"
 4609      454E5200 
 4610              	.LASF94:
 4611 03f5 41484233 		.ascii	"AHB3ENR\000"
 4611      454E5200 
 4612              	.LASF200:
 4613 03fd 696F706F 		.ascii	"ioportid_t\000"
 4613      72746964 
 4613      5F7400
 4614              	.LASF204:
 4615 0408 7574635F 		.ascii	"utc_tm\000"
 4615      746D00
 4616              	.LASF130:
 4617 040f 424B5033 		.ascii	"BKP3R\000"
 4617      5200
 4618              	.LASF115:
 4619 0415 43414C49 		.ascii	"CALIBR\000"
 4619      425200
 4620              	.LASF228:
 4621 041c 73746D33 		.ascii	"stm32_get_utc_usec\000"
 4621      325F6765 
 4621      745F7574 
 4621      635F7573 
 4621      656300
 4622              	.LASF192:
 4623 042f 50555044 		.ascii	"PUPDR\000"
 4623      5200
 4624              	.LASF168:
 4625 0435 74696D65 		.ascii	"time_measurement_t\000"
 4625      5F6D6561 
 4625      73757265 
 4625      6D656E74 
 4625      5F7400
 4626              	.LASF211:
 4627 0448 7469636B 		.ascii	"ticks\000"
 4627      7300
 4628              	.LASF89:
 4629 044e 41504231 		.ascii	"APB1RSTR\000"
 4629      52535452 
 4629      00
 4630              	.LASF34:
 4631 0457 7072696F 		.ascii	"prio\000"
 4631      00
 4632              	.LASF156:
 4633 045c 43434552 		.ascii	"CCER\000"
 4633      00
 4634              	.LASF185:
 4635 0461 63686172 		.ascii	"char\000"
ARM GAS  /tmp/ccaiZisL.s 			page 86


 4635      00
 4636              	.LASF118:
 4637 0466 53484946 		.ascii	"SHIFTR\000"
 4637      545200
 4638              	.LASF121:
 4639 046d 54535353 		.ascii	"TSSSR\000"
 4639      5200
 4640              	.LASF23:
 4641 0473 72747469 		.ascii	"rttime_t\000"
 4641      6D655F74 
 4641      00
 4642              	.LASF38:
 4643 047c 77616261 		.ascii	"wabase\000"
 4643      736500
 4644              	.LASF217:
 4645 0483 696E7075 		.ascii	"input_source\000"
 4645      745F736F 
 4645      75726365 
 4645      00
 4646              	.LASF142:
 4647 0490 424B5031 		.ascii	"BKP15R\000"
 4647      355200
 4648              	.LASF205:
 4649 0497 746D5F79 		.ascii	"tm_year\000"
 4649      65617200 
 4650              	.LASF25:
 4651 049f 74737461 		.ascii	"tstate_t\000"
 4651      74655F74 
 4651      00
 4652              	.LASF14:
 4653 04a8 6C6F6E67 		.ascii	"long long int\000"
 4653      206C6F6E 
 4653      6720696E 
 4653      7400
 4654              	.LASF15:
 4655 04b6 5F5F7569 		.ascii	"__uint64_t\000"
 4655      6E743634 
 4655      5F7400
 4656              	.LASF131:
 4657 04c1 424B5034 		.ascii	"BKP4R\000"
 4657      5200
 4658              	.LASF16:
 4659 04c7 75696E74 		.ascii	"uint8_t\000"
 4659      385F7400 
 4660              	.LASF43:
 4661 04cf 6D736771 		.ascii	"msgqueue\000"
 4661      75657565 
 4661      00
 4662              	.LASF152:
 4663 04d8 534D4352 		.ascii	"SMCR\000"
 4663      00
 4664              	.LASF51:
 4665 04dd 63685F74 		.ascii	"ch_thread\000"
 4665      68726561 
 4665      6400
 4666              	.LASF225:
 4667 04e7 64617973 		.ascii	"daysinmonth\000"
ARM GAS  /tmp/ccaiZisL.s 			page 87


 4667      696E6D6F 
 4667      6E746800 
 4668              	.LASF68:
 4669 04f3 73797374 		.ascii	"system_debug_t\000"
 4669      656D5F64 
 4669      65627567 
 4669      5F7400
 4670              	.LASF55:
 4671 0502 63685F74 		.ascii	"ch_threads_queue\000"
 4671      68726561 
 4671      64735F71 
 4671      75657565 
 4671      00
 4672              	.LASF143:
 4673 0513 424B5031 		.ascii	"BKP16R\000"
 4673      365200
 4674              	.LASF29:
 4675 051a 6576656E 		.ascii	"eventmask_t\000"
 4675      746D6173 
 4675      6B5F7400 
 4676              	.LASF103:
 4677 0526 41504231 		.ascii	"APB1LPENR\000"
 4677      4C50454E 
 4677      5200
 4678              	.LASF28:
 4679 0530 6D73675F 		.ascii	"msg_t\000"
 4679      7400
 4680              	.LASF132:
 4681 0536 424B5035 		.ascii	"BKP5R\000"
 4681      5200
 4682              	.LASF203:
 4683 053c 5254435F 		.ascii	"RTC_BOOT_FAST\000"
 4683      424F4F54 
 4683      5F464153 
 4683      5400
 4684              	.LASF61:
 4685 054a 76697274 		.ascii	"virtual_timer_t\000"
 4685      75616C5F 
 4685      74696D65 
 4685      725F7400 
 4686              	.LASF119:
 4687 055a 54535452 		.ascii	"TSTR\000"
 4687      00
 4688              	.LASF221:
 4689 055f 7574635F 		.ascii	"utc_sec\000"
 4689      73656300 
 4690              	.LASF144:
 4691 0567 424B5031 		.ascii	"BKP17R\000"
 4691      375200
 4692              	.LASF170:
 4693 056e 6E5F6374 		.ascii	"n_ctxswc\000"
 4693      78737763 
 4693      00
 4694              	.LASF97:
 4695 0577 41504232 		.ascii	"APB2ENR\000"
 4695      454E5200 
 4696              	.LASF24:
ARM GAS  /tmp/ccaiZisL.s 			page 88


 4697 057f 746D6F64 		.ascii	"tmode_t\000"
 4697      655F7400 
 4698              	.LASF31:
 4699 0587 75636E74 		.ascii	"ucnt_t\000"
 4699      5F7400
 4700              	.LASF75:
 4701 058e 6D61696E 		.ascii	"mainthread\000"
 4701      74687265 
 4701      616400
 4702              	.LASF191:
 4703 0599 4F535045 		.ascii	"OSPEEDR\000"
 4703      45445200 
 4704              	.LASF13:
 4705 05a1 5F5F696E 		.ascii	"__int64_t\000"
 4705      7436345F 
 4705      7400
 4706              	.LASF194:
 4707 05ab 4C4F434B 		.ascii	"LOCKR\000"
 4707      5200
 4708              	.LASF145:
 4709 05b1 424B5031 		.ascii	"BKP18R\000"
 4709      385200
 4710              	.LASF17:
 4711 05b8 75696E74 		.ascii	"uint16_t\000"
 4711      31365F74 
 4711      00
 4712              	.LASF133:
 4713 05c1 424B5036 		.ascii	"BKP6R\000"
 4713      5200
 4714              	.LASF214:
 4715 05c7 66696C74 		.ascii	"filter_mode\000"
 4715      65725F6D 
 4715      6F646500 
 4716              	.LASF86:
 4717 05d3 41484232 		.ascii	"AHB2RSTR\000"
 4717      52535452 
 4717      00
 4718              	.LASF233:
 4719 05dc 70617273 		.ascii	"parse_utc_seconds\000"
 4719      655F7574 
 4719      635F7365 
 4719      636F6E64 
 4719      7300
 4720              	.LASF65:
 4721 05ee 76697274 		.ascii	"virtual_timers_list_t\000"
 4721      75616C5F 
 4721      74696D65 
 4721      72735F6C 
 4721      6973745F 
 4722              	.LASF22:
 4723 0604 7274636E 		.ascii	"rtcnt_t\000"
 4723      745F7400 
 4724              	.LASF213:
 4725 060c 6368616E 		.ascii	"channel\000"
 4725      6E656C00 
 4726              	.LASF134:
 4727 0614 424B5037 		.ascii	"BKP7R\000"
ARM GAS  /tmp/ccaiZisL.s 			page 89


 4727      5200
 4728              	.LASF243:
 4729 061a 474E5520 		.ascii	"GNU C 4.9.3 20150529 (release) [ARM/embedded-4_9-br"
 4729      4320342E 
 4729      392E3320 
 4729      32303135 
 4729      30353239 
 4730 064d 616E6368 		.ascii	"anch revision 227977] -mcpu=cortex-m4 -mfloat-abi=h"
 4730      20726576 
 4730      6973696F 
 4730      6E203232 
 4730      37393737 
 4731 0680 61726420 		.ascii	"ard -mfpu=fpv4-sp-d16 -mno-thumb-interwork -mthumb "
 4731      2D6D6670 
 4731      753D6670 
 4731      76342D73 
 4731      702D6431 
 4732 06b3 2D67202D 		.ascii	"-g -Os -fomit-frame-pointer -falign-functions=16 -f"
 4732      4F73202D 
 4732      666F6D69 
 4732      742D6672 
 4732      616D652D 
 4733 06e6 66756E63 		.ascii	"function-sections -fdata-sections -fno-common -fsin"
 4733      74696F6E 
 4733      2D736563 
 4733      74696F6E 
 4733      73202D66 
 4734 0719 676C652D 		.ascii	"gle-precision-constant\000"
 4734      70726563 
 4734      6973696F 
 4734      6E2D636F 
 4734      6E737461 
 4735              	.LASF218:
 4736 0730 73746D33 		.ascii	"stm32_set_utc_usec\000"
 4736      325F7365 
 4736      745F7574 
 4736      635F7573 
 4736      656300
 4737              	.LASF169:
 4738 0743 6E5F6972 		.ascii	"n_irq\000"
 4738      7100
 4739              	.LASF117:
 4740 0749 414C524D 		.ascii	"ALRMBR\000"
 4740      425200
 4741              	.LASF229:
 4742 0750 6765745F 		.ascii	"get_fattime\000"
 4742      66617474 
 4742      696D6500 
 4743              	.LASF245:
 4744 075c 2F686F6D 		.ascii	"/home/mike/Documents/haggis-aero-2019/pixhawk/build"
 4744      652F6D69 
 4744      6B652F44 
 4744      6F63756D 
 4744      656E7473 
 4745 078f 2F437562 		.ascii	"/CubeBlack\000"
 4745      65426C61 
 4745      636B00
ARM GAS  /tmp/ccaiZisL.s 			page 90


 4746              	.LASF88:
 4747 079a 52455345 		.ascii	"RESERVED0\000"
 4747      52564544 
 4747      3000
 4748              	.LASF91:
 4749 07a4 52455345 		.ascii	"RESERVED1\000"
 4749      52564544 
 4749      3100
 4750              	.LASF95:
 4751 07ae 52455345 		.ascii	"RESERVED2\000"
 4751      52564544 
 4751      3200
 4752              	.LASF219:
 4753 07b8 74696D65 		.ascii	"time_utc_usec\000"
 4753      5F757463 
 4753      5F757365 
 4753      6300
 4754              	.LASF102:
 4755 07c6 52455345 		.ascii	"RESERVED4\000"
 4755      52564544 
 4755      3400
 4756              	.LASF105:
 4757 07d0 52455345 		.ascii	"RESERVED5\000"
 4757      52564544 
 4757      3500
 4758              	.LASF107:
 4759 07da 52455345 		.ascii	"RESERVED6\000"
 4759      52564544 
 4759      3600
 4760              	.LASF126:
 4761 07e4 52455345 		.ascii	"RESERVED7\000"
 4761      52564544 
 4761      3700
 4762              	.LASF82:
 4763 07ee 5057525F 		.ascii	"PWR_TypeDef\000"
 4763      54797065 
 4763      44656600 
 4764              	.LASF10:
 4765 07fa 6C6F6E67 		.ascii	"long int\000"
 4765      20696E74 
 4765      00
 4766              	.LASF151:
 4767 0803 706F7274 		.ascii	"port_intctx\000"
 4767      5F696E74 
 4767      63747800 
 4768              	.LASF242:
 4769 080f 49544D5F 		.ascii	"ITM_RxBuffer\000"
 4769      52784275 
 4769      66666572 
 4769      00
 4770              	.LASF160:
 4771 081c 43435852 		.ascii	"CCXR\000"
 4771      00
 4772              	.LASF146:
 4773 0821 424B5031 		.ascii	"BKP19R\000"
 4773      395200
 4774              	.LASF116:
ARM GAS  /tmp/ccaiZisL.s 			page 91


 4775 0828 414C524D 		.ascii	"ALRMAR\000"
 4775      415200
 4776              	.LASF72:
 4777 082f 63685F73 		.ascii	"ch_system\000"
 4777      79737465 
 4777      6D00
 4778              	.LASF171:
 4779 0839 6D5F6372 		.ascii	"m_crit_thd\000"
 4779      69745F74 
 4779      686400
 4780              	.LASF190:
 4781 0844 4F545950 		.ascii	"OTYPER\000"
 4781      455200
 4782              	.LASF135:
 4783 084b 424B5038 		.ascii	"BKP8R\000"
 4783      5200
 4784              	.LASF123:
 4785 0851 54414643 		.ascii	"TAFCR\000"
 4785      5200
 4786              	.LASF67:
 4787 0857 6C617374 		.ascii	"lasttime\000"
 4787      74696D65 
 4787      00
 4788              	.LASF21:
 4789 0860 75696E74 		.ascii	"uint64_t\000"
 4789      36345F74 
 4789      00
 4790              	.LASF84:
 4791 0869 43464752 		.ascii	"CFGR\000"
 4791      00
 4792              	.LASF73:
 4793 086e 726C6973 		.ascii	"rlist\000"
 4793      7400
 4794              	.LASF4:
 4795 0874 5F5F7569 		.ascii	"__uint8_t\000"
 4795      6E74385F 
 4795      7400
 4796              	.LASF37:
 4797 087e 6E616D65 		.ascii	"name\000"
 4797      00
 4798              	.LASF83:
 4799 0883 504C4C43 		.ascii	"PLLCFGR\000"
 4799      46475200 
 4800              	.LASF125:
 4801 088b 414C524D 		.ascii	"ALRMBSSR\000"
 4801      42535352 
 4801      00
 4802              	.LASF231:
 4803 0894 66617474 		.ascii	"fattime\000"
 4803      696D6500 
 4804              	.LASF136:
 4805 089c 424B5039 		.ascii	"BKP9R\000"
 4805      5200
 4806              	.LASF101:
 4807 08a2 41484233 		.ascii	"AHB3LPENR\000"
 4807      4C50454E 
 4807      5200
ARM GAS  /tmp/ccaiZisL.s 			page 92


 4808              	.LASF81:
 4809 08ac 73697A65 		.ascii	"sizetype\000"
 4809      74797065 
 4809      00
 4810              	.LASF26:
 4811 08b5 74726566 		.ascii	"trefs_t\000"
 4811      735F7400 
 4812              	.LASF78:
 4813 08bd 73797369 		.ascii	"sysinterval_t\000"
 4813      6E746572 
 4813      76616C5F 
 4813      7400
 4814              	.LASF223:
 4815 08cb 64617973 		.ascii	"days\000"
 4815      00
 4816              	.LASF12:
 4817 08d0 6C6F6E67 		.ascii	"long unsigned int\000"
 4817      20756E73 
 4817      69676E65 
 4817      6420696E 
 4817      7400
 4818              	.LASF220:
 4819 08e2 6D736563 		.ascii	"msec\000"
 4819      00
 4820              	.LASF57:
 4821 08e7 72656164 		.ascii	"ready_list_t\000"
 4821      795F6C69 
 4821      73745F74 
 4821      00
 4822              	.LASF33:
 4823 08f4 71756575 		.ascii	"queue\000"
 4823      6500
 4824              	.LASF18:
 4825 08fa 696E7433 		.ascii	"int32_t\000"
 4825      325F7400 
 4826              	.LASF239:
 4827 0902 706F7274 		.ascii	"port\000"
 4827      00
 4828              	.LASF179:
 4829 0907 77747365 		.ascii	"wtsemp\000"
 4829      6D7000
 4830              	.LASF209:
 4831 090e 746D5F6D 		.ascii	"tm_min\000"
 4831      696E00
 4832              	.LASF186:
 4833 0915 6D757465 		.ascii	"mutex_t\000"
 4833      785F7400 
 4834              	.LASF35:
 4835 091d 6E657765 		.ascii	"newer\000"
 4835      7200
 4836              	.LASF109:
 4837 0923 504C4C49 		.ascii	"PLLI2SCFGR\000"
 4837      32534346 
 4837      475200
 4838              	.LASF164:
 4839 092e 62657374 		.ascii	"best\000"
 4839      00
ARM GAS  /tmp/ccaiZisL.s 			page 93


 4840              	.LASF5:
 4841 0933 756E7369 		.ascii	"unsigned char\000"
 4841      676E6564 
 4841      20636861 
 4841      7200
 4842              	.LASF241:
 4843 0941 6E646179 		.ascii	"ndays\000"
 4843      7300
 4844              	.LASF195:
 4845 0947 4146524C 		.ascii	"AFRL\000"
 4845      00
 4846              	.LASF11:
 4847 094c 5F5F7569 		.ascii	"__uint32_t\000"
 4847      6E743332 
 4847      5F7400
 4848              	.LASF42:
 4849 0957 77616974 		.ascii	"waiting\000"
 4849      696E6700 
 4850              	.LASF238:
 4851 095f 6C696E65 		.ascii	"line\000"
 4851      00
 4852              	.LASF216:
 4853 0964 73746D33 		.ascii	"stm32_timer_set_channel_input\000"
 4853      325F7469 
 4853      6D65725F 
 4853      7365745F 
 4853      6368616E 
 4854              	.LASF247:
 4855 0982 6765745F 		.ascii	"get_rtc_backup0\000"
 4855      7274635F 
 4855      6261636B 
 4855      75703000 
 4856              	.LASF70:
 4857 0992 70616E69 		.ascii	"panic_msg\000"
 4857      635F6D73 
 4857      6700
 4858              	.LASF249:
 4859 099c 63685468 		.ascii	"chThdSleep\000"
 4859      64536C65 
 4859      657000
 4860              	.LASF113:
 4861 09a7 50524552 		.ascii	"PRER\000"
 4861      00
 4862              	.LASF39:
 4863 09ac 73746174 		.ascii	"state\000"
 4863      6500
 4864              	.LASF236:
 4865 09b2 70657269 		.ascii	"peripheral_power_enable\000"
 4865      70686572 
 4865      616C5F70 
 4865      6F776572 
 4865      5F656E61 
 4866              	.LASF202:
 4867 09ca 5254435F 		.ascii	"RTC_BOOT_HOLD\000"
 4867      424F4F54 
 4867      5F484F4C 
 4867      4400
ARM GAS  /tmp/ccaiZisL.s 			page 94


 4868              	.LASF240:
 4869 09d8 7574635F 		.ascii	"utc_time_offset\000"
 4869      74696D65 
 4869      5F6F6666 
 4869      73657400 
 4870              	.LASF48:
 4871 09e8 73746174 		.ascii	"stats\000"
 4871      7300
 4872              	.LASF71:
 4873 09ee 63685F73 		.ascii	"ch_system_t\000"
 4873      79737465 
 4873      6D5F7400 
 4874              	.LASF198:
 4875 09fa 696F6D6F 		.ascii	"iomode_t\000"
 4875      64655F74 
 4875      00
 4876              	.LASF99:
 4877 0a03 41484231 		.ascii	"AHB1LPENR\000"
 4877      4C50454E 
 4877      5200
 4878              	.LASF208:
 4879 0a0d 746D5F68 		.ascii	"tm_hour\000"
 4879      6F757200 
 4880              	.LASF2:
 4881 0a15 7369676E 		.ascii	"signed char\000"
 4881      65642063 
 4881      68617200 
 4882              	.LASF106:
 4883 0a21 42444352 		.ascii	"BDCR\000"
 4883      00
 4884              	.LASF63:
 4885 0a26 64656C74 		.ascii	"delta\000"
 4885      6100
 4886              	.LASF8:
 4887 0a2c 73686F72 		.ascii	"short unsigned int\000"
 4887      7420756E 
 4887      7369676E 
 4887      65642069 
 4887      6E7400
 4888              	.LASF210:
 4889 0a3f 746D5F73 		.ascii	"tm_sec\000"
 4889      656300
 4890              	.LASF149:
 4891 0a46 73746B61 		.ascii	"stkalign_t\000"
 4891      6C69676E 
 4891      5F7400
 4892              	.LASF232:
 4893 0a51 63686563 		.ascii	"check_fast_reboot\000"
 4893      6B5F6661 
 4893      73745F72 
 4893      65626F6F 
 4893      7400
 4894              	.LASF59:
 4895 0a63 63757272 		.ascii	"current\000"
 4895      656E7400 
 4896              	.LASF212:
 4897 0a6b 5F5F6675 		.ascii	"__func__\000"
ARM GAS  /tmp/ccaiZisL.s 			page 95


 4897      6E635F5F 
 4897      00
 4898              	.LASF224:
 4899 0a74 64617969 		.ascii	"dayinyear\000"
 4899      6E796561 
 4899      7200
 4900              	.LASF80:
 4901 0a7e 74696D65 		.ascii	"time_conv_t\000"
 4901      5F636F6E 
 4901      765F7400 
 4902              	.LASF98:
 4903 0a8a 52455345 		.ascii	"RESERVED3\000"
 4903      52564544 
 4903      3300
 4904              	.LASF222:
 4905 0a94 73656364 		.ascii	"secday\000"
 4905      617900
 4906              	.LASF177:
 4907 0a9b 77747472 		.ascii	"wttrp\000"
 4907      7000
 4908              	.LASF36:
 4909 0aa1 6F6C6465 		.ascii	"older\000"
 4909      7200
 4910              	.LASF175:
 4911 0aa7 65786974 		.ascii	"exitcode\000"
 4911      636F6465 
 4911      00
 4912              	.LASF85:
 4913 0ab0 41484231 		.ascii	"AHB1RSTR\000"
 4913      52535452 
 4913      00
 4914              	.LASF47:
 4915 0ab9 6D706F6F 		.ascii	"mpool\000"
 4915      6C00
 4916              		.ident	"GCC: (GNU Tools for ARM Embedded Processors) 4.9.3 20150529 (release) [ARM/embedded-4_9-br
ARM GAS  /tmp/ccaiZisL.s 			page 96


DEFINED SYMBOLS
                            *ABS*:00000000 stm32_util.c
     /tmp/ccaiZisL.s:21     .text.stm32_timer_set_input_filter:00000000 $t
     /tmp/ccaiZisL.s:26     .text.stm32_timer_set_input_filter:00000000 stm32_timer_set_input_filter
     /tmp/ccaiZisL.s:40     .text.stm32_timer_set_input_filter:00000008 $d
     /tmp/ccaiZisL.s:44     .text.stm32_timer_set_input_filter:0000000c $t
     /tmp/ccaiZisL.s:82     .text.stm32_timer_set_channel_input:00000000 $t
     /tmp/ccaiZisL.s:87     .text.stm32_timer_set_channel_input:00000000 stm32_timer_set_channel_input
     /tmp/ccaiZisL.s:100    .text.stm32_timer_set_channel_input:00000008 $d
     /tmp/ccaiZisL.s:104    .text.stm32_timer_set_channel_input:0000000c $t
     /tmp/ccaiZisL.s:187    .text.stm32_set_utc_usec:00000000 $t
     /tmp/ccaiZisL.s:192    .text.stm32_set_utc_usec:00000000 stm32_set_utc_usec
     /tmp/ccaiZisL.s:226    .text.stm32_set_utc_usec:00000020 $d
     /tmp/ccaiZisL.s:231    .text.stm32_get_utc_usec:00000000 $t
     /tmp/ccaiZisL.s:236    .text.stm32_get_utc_usec:00000000 stm32_get_utc_usec
     /tmp/ccaiZisL.s:258    .text.stm32_get_utc_usec:00000014 $d
     /tmp/ccaiZisL.s:264    .text.get_fattime:00000000 $t
     /tmp/ccaiZisL.s:269    .text.get_fattime:00000000 get_fattime
     /tmp/ccaiZisL.s:488    .text.get_fattime:00000124 $d
     /tmp/ccaiZisL.s:497    .text.check_fast_reboot:00000000 $t
     /tmp/ccaiZisL.s:502    .text.check_fast_reboot:00000000 check_fast_reboot
     /tmp/ccaiZisL.s:521    .text.check_fast_reboot:00000008 $d
     /tmp/ccaiZisL.s:526    .text.set_fast_reboot:00000000 $t
     /tmp/ccaiZisL.s:531    .text.set_fast_reboot:00000000 set_fast_reboot
     /tmp/ccaiZisL.s:567    .text.set_fast_reboot:0000002c $d
     /tmp/ccaiZisL.s:576    .text.peripheral_power_enable:00000000 $t
     /tmp/ccaiZisL.s:581    .text.peripheral_power_enable:00000000 peripheral_power_enable
     /tmp/ccaiZisL.s:615    .text.peripheral_power_enable:0000001c $d
     /tmp/ccaiZisL.s:621    .text.palReadLineMode:00000000 $t
     /tmp/ccaiZisL.s:626    .text.palReadLineMode:00000000 palReadLineMode
     /tmp/ccaiZisL.s:716    .rodata.ndays:00000000 ndays
     /tmp/ccaiZisL.s:742    .bss.utc_time_offset:00000000 $d
     /tmp/ccaiZisL.s:746    .bss.utc_time_offset:00000000 utc_time_offset
                     .debug_frame:00000010 $d

UNDEFINED SYMBOLS
hrt_micros64
__aeabi_uldivmod
chThdSleep
