ARM GAS  /tmp/ccu5iG0j.s 			page 1


   1              		.cpu cortex-m4
   2              		.eabi_attribute 27, 1
   3              		.eabi_attribute 28, 1
   4              		.eabi_attribute 20, 1
   5              		.eabi_attribute 21, 1
   6              		.eabi_attribute 23, 3
   7              		.eabi_attribute 24, 1
   8              		.eabi_attribute 25, 1
   9              		.eabi_attribute 26, 1
  10              		.eabi_attribute 30, 4
  11              		.eabi_attribute 34, 1
  12              		.eabi_attribute 18, 4
  13              		.file	"stubs.c"
  14              		.text
  15              	.Ltext0:
  16              		.cfi_sections	.debug_frame
  17              		.section	.text._read,"ax",%progbits
  18              		.align	1
  19              		.global	_read
  20              		.syntax unified
  21              		.thumb
  22              		.thumb_func
  23              		.fpu fpv4-sp-d16
  24              		.type	_read, %function
  25              	_read:
  26              	.LFB290:
  27              		.file 1 "../../libraries/AP_HAL_ChibiOS/hwdef/common/stubs.c"
  28              		.loc 1 90 0
  29              		.cfi_startproc
  30              		@ args = 0, pretend = 0, frame = 0
  31              		@ frame_needed = 0, uses_anonymous_args = 0
  32              		@ link register save eliminated.
  33              	.LVL0:
  34              		.loc 1 103 0
  35 0000 1623     		movs	r3, #22
  36              	.LVL1:
  37 0002 0360     		str	r3, [r0]
  38              		.loc 1 106 0
  39 0004 4FF0FF30 		mov	r0, #-1
  40              	.LVL2:
  41 0008 7047     		bx	lr
  42              		.cfi_endproc
  43              	.LFE290:
  44              		.size	_read, .-_read
  45              		.section	.text._lseek,"ax",%progbits
  46              		.align	1
  47              		.global	_lseek
  48              		.syntax unified
  49              		.thumb
  50              		.thumb_func
  51              		.fpu fpv4-sp-d16
  52              		.type	_lseek, %function
  53              	_lseek:
  54              	.LFB291:
  55              		.loc 1 112 0
  56              		.cfi_startproc
  57              		@ args = 0, pretend = 0, frame = 0
ARM GAS  /tmp/ccu5iG0j.s 			page 2


  58              		@ frame_needed = 0, uses_anonymous_args = 0
  59              		@ link register save eliminated.
  60              	.LVL3:
  61              		.loc 1 119 0
  62 0000 0020     		movs	r0, #0
  63              	.LVL4:
  64 0002 7047     		bx	lr
  65              		.cfi_endproc
  66              	.LFE291:
  67              		.size	_lseek, .-_lseek
  68              		.section	.text._write,"ax",%progbits
  69              		.align	1
  70              		.global	_write
  71              		.syntax unified
  72              		.thumb
  73              		.thumb_func
  74              		.fpu fpv4-sp-d16
  75              		.type	_write, %function
  76              	_write:
  77              	.LFB292:
  78              		.loc 1 125 0
  79              		.cfi_startproc
  80              		@ args = 0, pretend = 0, frame = 0
  81              		@ frame_needed = 0, uses_anonymous_args = 0
  82              		@ link register save eliminated.
  83              	.LVL5:
  84              		.loc 1 137 0
  85 0000 1846     		mov	r0, r3
  86              	.LVL6:
  87 0002 7047     		bx	lr
  88              		.cfi_endproc
  89              	.LFE292:
  90              		.size	_write, .-_write
  91              		.section	.text._close,"ax",%progbits
  92              		.align	1
  93              		.global	_close
  94              		.syntax unified
  95              		.thumb
  96              		.thumb_func
  97              		.fpu fpv4-sp-d16
  98              		.type	_close, %function
  99              	_close:
 100              	.LFB293:
 101              		.loc 1 143 0
 102              		.cfi_startproc
 103              		@ args = 0, pretend = 0, frame = 0
 104              		@ frame_needed = 0, uses_anonymous_args = 0
 105              		@ link register save eliminated.
 106              	.LVL7:
 107              		.loc 1 148 0
 108 0000 0020     		movs	r0, #0
 109              	.LVL8:
 110 0002 7047     		bx	lr
 111              		.cfi_endproc
 112              	.LFE293:
 113              		.size	_close, .-_close
 114              		.section	.text._sbrk,"ax",%progbits
ARM GAS  /tmp/ccu5iG0j.s 			page 3


 115              		.align	1
 116              		.global	_sbrk
 117              		.syntax unified
 118              		.thumb
 119              		.thumb_func
 120              		.fpu fpv4-sp-d16
 121              		.type	_sbrk, %function
 122              	_sbrk:
 123              	.LFB294:
 124              		.loc 1 154 0
 125              		.cfi_startproc
 126              		@ args = 0, pretend = 0, frame = 0
 127              		@ frame_needed = 0, uses_anonymous_args = 0
 128              	.LVL9:
 129 0000 10B5     		push	{r4, lr}
 130              		.cfi_def_cfa_offset 8
 131              		.cfi_offset 4, -8
 132              		.cfi_offset 14, -4
 133              	.LBB4:
 134              	.LBB5:
 135              		.file 2 "../../modules/ChibiOS/os/oslib/include/chmemheaps.h"
 136              		.loc 2 156 0
 137 0002 0822     		movs	r2, #8
 138              	.LBE5:
 139              	.LBE4:
 140              		.loc 1 154 0
 141 0004 0446     		mov	r4, r0
 142              	.LVL10:
 143              	.LBB7:
 144              	.LBB6:
 145              		.loc 2 156 0
 146 0006 0020     		movs	r0, #0
 147              	.LVL11:
 148 0008 FFF7FEFF 		bl	chHeapAllocAligned
 149              	.LVL12:
 150              	.LBE6:
 151              	.LBE7:
 152              		.loc 1 160 0
 153 000c 18B9     		cbnz	r0, .L5
 154              		.loc 1 161 0
 155 000e 0C23     		movs	r3, #12
 156 0010 2360     		str	r3, [r4]
 157              		.loc 1 162 0
 158 0012 4FF0FF30 		mov	r0, #-1
 159              	.L5:
 160              		.loc 1 170 0
 161 0016 10BD     		pop	{r4, pc}
 162              		.cfi_endproc
 163              	.LFE294:
 164              		.size	_sbrk, .-_sbrk
 165              		.section	.text._fstat,"ax",%progbits
 166              		.align	1
 167              		.global	_fstat
 168              		.syntax unified
 169              		.thumb
 170              		.thumb_func
 171              		.fpu fpv4-sp-d16
ARM GAS  /tmp/ccu5iG0j.s 			page 4


 172              		.type	_fstat, %function
 173              	_fstat:
 174              	.LFB295:
 175              		.loc 1 177 0
 176              		.cfi_startproc
 177              		@ args = 0, pretend = 0, frame = 0
 178              		@ frame_needed = 0, uses_anonymous_args = 0
 179              	.LVL13:
 180 0000 10B5     		push	{r4, lr}
 181              		.cfi_def_cfa_offset 8
 182              		.cfi_offset 4, -8
 183              		.cfi_offset 14, -4
 184              		.loc 1 177 0
 185 0002 1446     		mov	r4, r2
 186              		.loc 1 181 0
 187 0004 0021     		movs	r1, #0
 188              	.LVL14:
 189 0006 3C22     		movs	r2, #60
 190              	.LVL15:
 191 0008 2046     		mov	r0, r4
 192              	.LVL16:
 193 000a FFF7FEFF 		bl	memset
 194              	.LVL17:
 195              		.loc 1 182 0
 196 000e 4FF40053 		mov	r3, #8192
 197 0012 6360     		str	r3, [r4, #4]
 198              		.loc 1 184 0
 199 0014 0020     		movs	r0, #0
 200 0016 10BD     		pop	{r4, pc}
 201              		.cfi_endproc
 202              	.LFE295:
 203              		.size	_fstat, .-_fstat
 204              		.section	.text._isatty,"ax",%progbits
 205              		.align	1
 206              		.global	_isatty
 207              		.syntax unified
 208              		.thumb
 209              		.thumb_func
 210              		.fpu fpv4-sp-d16
 211              		.type	_isatty, %function
 212              	_isatty:
 213              	.LFB296:
 214              		.loc 1 190 0
 215              		.cfi_startproc
 216              		@ args = 0, pretend = 0, frame = 0
 217              		@ frame_needed = 0, uses_anonymous_args = 0
 218              		@ link register save eliminated.
 219              	.LVL18:
 220              		.loc 1 195 0
 221 0000 0120     		movs	r0, #1
 222              	.LVL19:
 223 0002 7047     		bx	lr
 224              		.cfi_endproc
 225              	.LFE296:
 226              		.size	_isatty, .-_isatty
 227              		.section	.text._getpid,"ax",%progbits
 228              		.align	1
ARM GAS  /tmp/ccu5iG0j.s 			page 5


 229              		.global	_getpid
 230              		.syntax unified
 231              		.thumb
 232              		.thumb_func
 233              		.fpu fpv4-sp-d16
 234              		.type	_getpid, %function
 235              	_getpid:
 236              	.LFB297:
 237              		.loc 1 199 0
 238              		.cfi_startproc
 239              		@ args = 0, pretend = 0, frame = 0
 240              		@ frame_needed = 0, uses_anonymous_args = 0
 241              		@ link register save eliminated.
 242              		.loc 1 201 0
 243 0000 0020     		movs	r0, #0
 244 0002 7047     		bx	lr
 245              		.cfi_endproc
 246              	.LFE297:
 247              		.size	_getpid, .-_getpid
 248              		.section	.text._exit,"ax",%progbits
 249              		.align	1
 250              		.global	_exit
 251              		.syntax unified
 252              		.thumb
 253              		.thumb_func
 254              		.fpu fpv4-sp-d16
 255              		.type	_exit, %function
 256              	_exit:
 257              	.LFB298:
 258              		.loc 1 205 0
 259              		.cfi_startproc
 260              		@ Volatile: function does not return.
 261              		@ args = 0, pretend = 0, frame = 0
 262              		@ frame_needed = 0, uses_anonymous_args = 0
 263              		@ link register save eliminated.
 264              	.LVL20:
 265              	.L12:
 266 0000 FEE7     		b	.L12
 267              		.cfi_endproc
 268              	.LFE298:
 269              		.size	_exit, .-_exit
 270              		.section	.text._fini,"ax",%progbits
 271              		.align	1
 272              		.global	_fini
 273              		.syntax unified
 274              		.thumb
 275              		.thumb_func
 276              		.fpu fpv4-sp-d16
 277              		.type	_fini, %function
 278              	_fini:
 279              	.LFB299:
 280              		.loc 1 212 0
 281              		.cfi_startproc
 282              		@ args = 0, pretend = 0, frame = 0
 283              		@ frame_needed = 0, uses_anonymous_args = 0
 284              		@ link register save eliminated.
 285 0000 7047     		bx	lr
ARM GAS  /tmp/ccu5iG0j.s 			page 6


 286              		.cfi_endproc
 287              	.LFE299:
 288              		.size	_fini, .-_fini
 289              		.section	.text._kill,"ax",%progbits
 290              		.align	1
 291              		.global	_kill
 292              		.syntax unified
 293              		.thumb
 294              		.thumb_func
 295              		.fpu fpv4-sp-d16
 296              		.type	_kill, %function
 297              	_kill:
 298              	.LFB300:
 299              		.loc 1 217 0
 300              		.cfi_startproc
 301              		@ args = 0, pretend = 0, frame = 0
 302              		@ frame_needed = 0, uses_anonymous_args = 0
 303              		@ link register save eliminated.
 304              	.LVL21:
 305              		.loc 1 220 0
 306 0000 4FF0FF30 		mov	r0, #-1
 307              	.LVL22:
 308 0004 7047     		bx	lr
 309              		.cfi_endproc
 310              	.LFE300:
 311              		.size	_kill, .-_kill
 312              		.global	_before_main
 313              		.section	.data._before_main,"aw",%progbits
 314              		.type	_before_main, %object
 315              		.size	_before_main, 1
 316              	_before_main:
 317 0000 01       		.byte	1
 318              		.text
 319              	.Letext0:
 320              		.file 3 "/opt/gcc-arm-none-eabi-6-2017-q2-update/arm-none-eabi/include/machine/_default_types.h"
 321              		.file 4 "/opt/gcc-arm-none-eabi-6-2017-q2-update/lib/gcc/arm-none-eabi/6.3.1/include/stddef.h"
 322              		.file 5 "/opt/gcc-arm-none-eabi-6-2017-q2-update/arm-none-eabi/include/sys/lock.h"
 323              		.file 6 "/opt/gcc-arm-none-eabi-6-2017-q2-update/arm-none-eabi/include/sys/_types.h"
 324              		.file 7 "/opt/gcc-arm-none-eabi-6-2017-q2-update/arm-none-eabi/include/sys/_stdint.h"
 325              		.file 8 "/opt/gcc-arm-none-eabi-6-2017-q2-update/arm-none-eabi/include/sys/_timeval.h"
 326              		.file 9 "/opt/gcc-arm-none-eabi-6-2017-q2-update/arm-none-eabi/include/sys/types.h"
 327              		.file 10 "/opt/gcc-arm-none-eabi-6-2017-q2-update/arm-none-eabi/include/sys/unistd.h"
 328              		.file 11 "/opt/gcc-arm-none-eabi-6-2017-q2-update/arm-none-eabi/include/sys/reent.h"
 329              		.file 12 "/opt/gcc-arm-none-eabi-6-2017-q2-update/arm-none-eabi/include/sys/errno.h"
 330              		.file 13 "/opt/gcc-arm-none-eabi-6-2017-q2-update/arm-none-eabi/include/time.h"
 331              		.file 14 "/opt/gcc-arm-none-eabi-6-2017-q2-update/arm-none-eabi/include/sys/stat.h"
 332              		.file 15 "../../modules/ChibiOS/os/common/ports/ARMCMx/compilers/GCC/chtypes.h"
 333              		.file 16 "../../modules/ChibiOS/os/rt/include/chsystypes.h"
 334              		.file 17 "../../modules/ChibiOS/os/rt/include/chschd.h"
 335              		.file 18 "../../modules/ChibiOS/os/rt/include/chtime.h"
 336              		.file 19 "../../modules/ChibiOS/os/common/ext/ARM/CMSIS/Core/Include/core_cm4.h"
 337              		.file 20 "../../modules/ChibiOS/os/common/ext/ST/STM32F4xx/system_stm32f4xx.h"
 338              		.file 21 "../../modules/ChibiOS/os/common/ports/ARMCMx/chcore.h"
 339              		.file 22 "../../modules/ChibiOS/os/common/ports/ARMCMx/chcore_v7m.h"
 340              		.file 23 "../../modules/ChibiOS/os/rt/include/chtm.h"
 341              		.file 24 "../../modules/ChibiOS/os/rt/include/chstats.h"
 342              		.file 25 "../../modules/ChibiOS/os/rt/include/chsem.h"
ARM GAS  /tmp/ccu5iG0j.s 			page 7


 343              		.file 26 "../../modules/ChibiOS/os/rt/include/chmtx.h"
 344              		.file 27 "../../modules/ChibiOS/os/rt/include/chsys.h"
 345              		.file 28 "../../modules/ChibiOS/os/rt/include/chregistry.h"
 346              		.file 29 "../../modules/ChibiOS/os/oslib/include/chmemcore.h"
 347              		.file 30 "../../modules/ChibiOS/os/oslib/include/chmempools.h"
 348              		.file 31 "../../modules/ChibiOS/os/oslib/include/chfactory.h"