ARM GAS  /tmp/ccnRKFBk.s 			page 1


   1              		.cpu cortex-m4
   2              		.eabi_attribute 27, 1
   3              		.eabi_attribute 28, 1
   4              		.eabi_attribute 20, 1
   5              		.eabi_attribute 21, 1
   6              		.eabi_attribute 23, 3
   7              		.eabi_attribute 24, 1
   8              		.eabi_attribute 25, 1
   9              		.eabi_attribute 26, 1
  10              		.eabi_attribute 30, 6
  11              		.eabi_attribute 34, 1
  12              		.eabi_attribute 18, 4
  13              		.file	"syscalls_cpp.cpp"
  14              		.text
  15              	.Ltext0:
  16              		.cfi_sections	.debug_frame
  17              		.section	.text._ZL11osalSysHaltPKc,"ax",%progbits
  18              		.align	1
  19              		.p2align 4,,15
  20              		.syntax unified
  21              		.thumb
  22              		.thumb_func
  23              		.fpu fpv4-sp-d16
  24              		.type	_ZL11osalSysHaltPKc, %function
  25              	_ZL11osalSysHaltPKc:
  26              		.fnstart
  27              	.LFB291:
  28              		.file 1 "../../modules/ChibiOS/os/hal/osal/rt/osal.h"
  29              		.loc 1 478 0
  30              		.cfi_startproc
  31              		@ args = 0, pretend = 0, frame = 8
  32              		@ frame_needed = 0, uses_anonymous_args = 0
  33 0000 00B5     		push	{lr}
  34              		.save {lr}
  35              		.cfi_def_cfa_offset 4
  36              		.cfi_offset 14, -4
  37              		.pad #12
  38 0002 83B0     		sub	sp, sp, #12
  39              		.cfi_def_cfa_offset 16
  40 0004 0190     		str	r0, [sp, #4]
  41              		.loc 1 480 0
  42 0006 0198     		ldr	r0, [sp, #4]
  43 0008 FFF7FEFF 		bl	chSysHalt
  44              		.loc 1 481 0
  45 000c 00BF     		nop
  46 000e 03B0     		add	sp, sp, #12
  47              		.cfi_def_cfa_offset 4
  48              		@ sp needed
  49 0010 5DF804FB 		ldr	pc, [sp], #4
  50              		.cfi_endproc
  51              	.LFE291:
  52              		.fnend
  53              		.size	_ZL11osalSysHaltPKc, .-_ZL11osalSysHaltPKc
  54              		.global	__dso_handle
  55              		.section	.bss.__dso_handle,"aw",%nobits
  56              		.align	2
  57              		.type	__dso_handle, %object
ARM GAS  /tmp/ccnRKFBk.s 			page 2


  58              		.size	__dso_handle, 4
  59              	__dso_handle:
  60 0000 00000000 		.space	4
  61              		.section	.rodata
  62              		.align	2
  63              	.LC0:
  64 0000 556E7265 		.ascii	"Unrealized\000"
  64      616C697A 
  64      656400
  65              		.section	.text._exit,"ax",%progbits
  66              		.align	1
  67              		.p2align 4,,15
  68              		.global	_exit
  69              		.syntax unified
  70              		.thumb
  71              		.thumb_func
  72              		.fpu fpv4-sp-d16
  73              		.type	_exit, %function
  74              	_exit:
  75              		.fnstart
  76              	.LFB323:
  77              		.file 2 "../../modules/ChibiOS/os/various/cpp_wrappers/syscalls_cpp.cpp"
  78              		.loc 2 12 0
  79              		.cfi_startproc
  80              		@ args = 0, pretend = 0, frame = 8
  81              		@ frame_needed = 0, uses_anonymous_args = 0
  82 0000 00B5     		push	{lr}
  83              		.save {lr}
  84              		.cfi_def_cfa_offset 4
  85              		.cfi_offset 14, -4
  86              		.pad #12
  87 0002 83B0     		sub	sp, sp, #12
  88              		.cfi_def_cfa_offset 16
  89 0004 0190     		str	r0, [sp, #4]
  90              		.loc 2 14 0
  91 0006 0248     		ldr	r0, .L4
  92 0008 FFF7FEFF 		bl	_ZL11osalSysHaltPKc
  93              	.L3:
  94              		.loc 2 15 0 discriminator 1
  95 000c FEE7     		b	.L3
  96              	.L5:
  97 000e 00BF     		.align	2
  98              	.L4:
  99 0010 00000000 		.word	.LC0
 100              		.cfi_endproc
 101              	.LFE323:
 102              		.fnend
 103              		.size	_exit, .-_exit
 104              		.section	.text._kill,"ax",%progbits
 105              		.align	1
 106              		.p2align 4,,15
 107              		.global	_kill
 108              		.syntax unified
 109              		.thumb
 110              		.thumb_func
 111              		.fpu fpv4-sp-d16
 112              		.type	_kill, %function
ARM GAS  /tmp/ccnRKFBk.s 			page 3


 113              	_kill:
 114              		.fnstart
 115              	.LFB324:
 116              		.loc 2 20 0
 117              		.cfi_startproc
 118              		@ args = 0, pretend = 0, frame = 8
 119              		@ frame_needed = 0, uses_anonymous_args = 0
 120              		@ link register save eliminated.
 121 0000 82B0     		sub	sp, sp, #8
 122              		.cfi_def_cfa_offset 8
 123 0002 0190     		str	r0, [sp, #4]
 124 0004 0091     		str	r1, [sp]
 125              		.loc 2 23 0
 126 0006 044B     		ldr	r3, .L8
 127 0008 1622     		movs	r2, #22
 128 000a 1A60     		str	r2, [r3]
 129              		.loc 2 24 0
 130 000c 4FF0FF33 		mov	r3, #-1
 131              		.loc 2 25 0
 132 0010 1846     		mov	r0, r3
 133 0012 02B0     		add	sp, sp, #8
 134              		.cfi_def_cfa_offset 0
 135              		@ sp needed
 136 0014 7047     		bx	lr
 137              	.L9:
 138 0016 00BF     		.align	2
 139              	.L8:
 140 0018 00000000 		.word	errno
 141              		.cfi_endproc
 142              	.LFE324:
 143              		.cantunwind
 144              		.fnend
 145              		.size	_kill, .-_kill
 146              		.section	.text._open_r,"ax",%progbits
 147              		.align	1
 148              		.p2align 4,,15
 149              		.global	_open_r
 150              		.syntax unified
 151              		.thumb
 152              		.thumb_func
 153              		.fpu fpv4-sp-d16
 154              		.type	_open_r, %function
 155              	_open_r:
 156              		.fnstart
 157              	.LFB325:
 158              		.loc 2 27 0
 159              		.cfi_startproc
 160              		@ args = 0, pretend = 0, frame = 0
 161              		@ frame_needed = 0, uses_anonymous_args = 0
 162              		@ link register save eliminated.
 163              		.loc 2 28 0
 164 0000 00BF     		nop
 165              		.loc 2 29 0
 166 0002 7047     		bx	lr
 167              		.cfi_endproc
 168              	.LFE325:
 169              		.cantunwind
ARM GAS  /tmp/ccnRKFBk.s 			page 4


 170              		.fnend
 171              		.size	_open_r, .-_open_r
 172              		.section	.rodata
 173 000b 00       		.align	2
 174              	.LC1:
 175 000c 50757265 		.ascii	"Pure virtual function call.\000"
 175      20766972 
 175      7475616C 
 175      2066756E 
 175      6374696F 
 176              		.section	.text.__cxa_pure_virtual,"ax",%progbits
 177              		.align	1
 178              		.p2align 4,,15
 179              		.global	__cxa_pure_virtual
 180              		.syntax unified
 181              		.thumb
 182              		.thumb_func
 183              		.fpu fpv4-sp-d16
 184              		.type	__cxa_pure_virtual, %function
 185              	__cxa_pure_virtual:
 186              		.fnstart
 187              	.LFB326:
 188              		.loc 2 31 0
 189              		.cfi_startproc
 190              		@ args = 0, pretend = 0, frame = 0
 191              		@ frame_needed = 0, uses_anonymous_args = 0
 192 0000 08B5     		push	{r3, lr}
 193              		.save {r3, lr}
 194              		.cfi_def_cfa_offset 8
 195              		.cfi_offset 3, -8
 196              		.cfi_offset 14, -4
 197              		.loc 2 32 0
 198 0002 0248     		ldr	r0, .L13
 199 0004 FFF7FEFF 		bl	_ZL11osalSysHaltPKc
 200              		.loc 2 33 0
 201 0008 00BF     		nop
 202 000a 08BD     		pop	{r3, pc}
 203              	.L14:
 204              		.align	2
 205              	.L13:
 206 000c 0C000000 		.word	.LC1
 207              		.cfi_endproc
 208              	.LFE326:
 209              		.fnend
 210              		.size	__cxa_pure_virtual, .-__cxa_pure_virtual
 211              		.text
 212              	.Letext0:
 213              		.file 3 "/opt/gcc-arm-none-eabi-6-2017-q2-update/arm-none-eabi/include/machine/_default_types.h"
 214              		.file 4 "/opt/gcc-arm-none-eabi-6-2017-q2-update/arm-none-eabi/include/sys/_stdint.h"
 215              		.file 5 "/opt/gcc-arm-none-eabi-6-2017-q2-update/lib/gcc/arm-none-eabi/6.3.1/include/stddef.h"
 216              		.file 6 "../../modules/ChibiOS/os/common/ports/ARMCMx/compilers/GCC/chtypes.h"
 217              		.file 7 "../../modules/ChibiOS/os/rt/include/chsystypes.h"
 218              		.file 8 "../../modules/ChibiOS/os/rt/include/chschd.h"
 219              		.file 9 "../../modules/ChibiOS/os/rt/include/chtime.h"
 220              		.file 10 "../../modules/ChibiOS/os/common/ext/ARM/CMSIS/Core/Include/core_cm4.h"
 221              		.file 11 "../../modules/ChibiOS/os/common/ext/ST/STM32F4xx/system_stm32f4xx.h"
 222              		.file 12 "../../modules/ChibiOS/os/common/ext/ST/STM32F4xx/stm32f4xx.h"
ARM GAS  /tmp/ccnRKFBk.s 			page 5


 223              		.file 13 "../../modules/ChibiOS/os/common/ports/ARMCMx/chcore.h"
 224              		.file 14 "../../modules/ChibiOS/os/common/ports/ARMCMx/chcore_v7m.h"
 225              		.file 15 "../../modules/ChibiOS/os/rt/include/chtm.h"
 226              		.file 16 "../../modules/ChibiOS/os/rt/include/chstats.h"
 227              		.file 17 "../../modules/ChibiOS/os/rt/include/chsem.h"
 228              		.file 18 "../../modules/ChibiOS/os/rt/include/chmtx.h"
 229              		.file 19 "../../modules/ChibiOS/os/rt/include/chsys.h"
 230              		.file 20 "../../modules/ChibiOS/os/rt/include/chregistry.h"
 231              		.file 21 "../../modules/ChibiOS/os/oslib/include/chmemcore.h"
 232              		.file 22 "../../modules/ChibiOS/os/oslib/include/chmempools.h"
 233              		.file 23 "../../modules/ChibiOS/os/oslib/include/chfactory.h"
 234              		.file 24 "/opt/gcc-arm-none-eabi-6-2017-q2-update/lib/gcc/arm-none-eabi/6.3.1/include/stdarg.h"
 235              		.file 25 "<built-in>"
 236              		.file 26 "/opt/gcc-arm-none-eabi-6-2017-q2-update/arm-none-eabi/include/sys/lock.h"
 237              		.file 27 "/opt/gcc-arm-none-eabi-6-2017-q2-update/arm-none-eabi/include/sys/_types.h"
 238              		.file 28 "/opt/gcc-arm-none-eabi-6-2017-q2-update/arm-none-eabi/include/sys/reent.h"
 239              		.file 29 "/opt/gcc-arm-none-eabi-6-2017-q2-update/arm-none-eabi/include/time.h"
 240              		.file 30 "/opt/gcc-arm-none-eabi-6-2017-q2-update/arm-none-eabi/include/sys/errno.h"
 241              		.file 31 "../../libraries/AP_HAL_ChibiOS/hwdef/common/posix.h"
 242              		.file 32 "../../libraries/AP_HAL_ChibiOS/hwdef/common/stdio.h"
 243              		.file 33 "../../modules/ChibiOS/os/various/cpp_wrappers/syscalls_cpp.hpp"
 244              		.section	.debug_info,"",%progbits
 245              	.Ldebug_info0:
 246 0000 E3150000 		.4byte	0x15e3
 247 0004 0400     		.2byte	0x4
 248 0006 00000000 		.4byte	.Ldebug_abbrev0
 249 000a 04       		.byte	0x4
 250 000b 01       		.uleb128 0x1
 251 000c 42010000 		.4byte	.LASF309
 252 0010 04       		.byte	0x4
 253 0011 E00C0000 		.4byte	.LASF310
 254 0015 FF0A0000 		.4byte	.LASF311
 255 0019 00000000 		.4byte	.Ldebug_ranges0+0
 256 001d 00000000 		.4byte	0
 257 0021 00000000 		.4byte	.Ldebug_line0
 258 0025 02       		.uleb128 0x2
 259 0026 01       		.byte	0x1
 260 0027 06       		.byte	0x6
 261 0028 75030000 		.4byte	.LASF0
 262 002c 03       		.uleb128 0x3
 263 002d 84020000 		.4byte	.LASF3
 264 0031 03       		.byte	0x3
 265 0032 2B       		.byte	0x2b
 266 0033 37000000 		.4byte	0x37
 267 0037 02       		.uleb128 0x2
 268 0038 01       		.byte	0x1
 269 0039 08       		.byte	0x8
 270 003a A2030000 		.4byte	.LASF1
 271 003e 02       		.uleb128 0x2
 272 003f 02       		.byte	0x2
 273 0040 05       		.byte	0x5
 274 0041 540B0000 		.4byte	.LASF2
 275 0045 03       		.uleb128 0x3
 276 0046 69040000 		.4byte	.LASF4
 277 004a 03       		.byte	0x3
 278 004b 39       		.byte	0x39
 279 004c 50000000 		.4byte	0x50
ARM GAS  /tmp/ccnRKFBk.s 			page 6


 280 0050 02       		.uleb128 0x2
 281 0051 02       		.byte	0x2
 282 0052 07       		.byte	0x7
 283 0053 AD0C0000 		.4byte	.LASF5
 284 0057 03       		.uleb128 0x3
 285 0058 390D0000 		.4byte	.LASF6
 286 005c 03       		.byte	0x3
 287 005d 4D       		.byte	0x4d
 288 005e 62000000 		.4byte	0x62
 289 0062 02       		.uleb128 0x2
 290 0063 04       		.byte	0x4
 291 0064 05       		.byte	0x5
 292 0065 CC020000 		.4byte	.LASF7
 293 0069 03       		.uleb128 0x3
 294 006a DB060000 		.4byte	.LASF8
 295 006e 03       		.byte	0x3
 296 006f 4F       		.byte	0x4f
 297 0070 74000000 		.4byte	0x74
 298 0074 02       		.uleb128 0x2
 299 0075 04       		.byte	0x4
 300 0076 07       		.byte	0x7
 301 0077 6A050000 		.4byte	.LASF9
 302 007b 02       		.uleb128 0x2
 303 007c 08       		.byte	0x8
 304 007d 05       		.byte	0x5
 305 007e F9060000 		.4byte	.LASF10
 306 0082 03       		.uleb128 0x3
 307 0083 47050000 		.4byte	.LASF11
 308 0087 03       		.byte	0x3
 309 0088 69       		.byte	0x69
 310 0089 8D000000 		.4byte	0x8d
 311 008d 02       		.uleb128 0x2
 312 008e 08       		.byte	0x8
 313 008f 07       		.byte	0x7
 314 0090 8B090000 		.4byte	.LASF12
 315 0094 04       		.uleb128 0x4
 316 0095 04       		.byte	0x4
 317 0096 05       		.byte	0x5
 318 0097 696E7400 		.ascii	"int\000"
 319 009b 02       		.uleb128 0x2
 320 009c 04       		.byte	0x4
 321 009d 07       		.byte	0x7
 322 009e B4070000 		.4byte	.LASF13
 323 00a2 03       		.uleb128 0x3
 324 00a3 88030000 		.4byte	.LASF14
 325 00a7 04       		.byte	0x4
 326 00a8 18       		.byte	0x18
 327 00a9 2C000000 		.4byte	0x2c
 328 00ad 05       		.uleb128 0x5
 329 00ae A2000000 		.4byte	0xa2
 330 00b2 03       		.uleb128 0x3
 331 00b3 A2090000 		.4byte	.LASF15
 332 00b7 04       		.byte	0x4
 333 00b8 24       		.byte	0x24
 334 00b9 45000000 		.4byte	0x45
 335 00bd 03       		.uleb128 0x3
 336 00be 89000000 		.4byte	.LASF16
ARM GAS  /tmp/ccnRKFBk.s 			page 7


 337 00c2 04       		.byte	0x4
 338 00c3 2C       		.byte	0x2c
 339 00c4 57000000 		.4byte	0x57
 340 00c8 06       		.uleb128 0x6
 341 00c9 BD000000 		.4byte	0xbd
 342 00cd 03       		.uleb128 0x3
 343 00ce 600C0000 		.4byte	.LASF17
 344 00d2 04       		.byte	0x4
 345 00d3 30       		.byte	0x30
 346 00d4 69000000 		.4byte	0x69
 347 00d8 03       		.uleb128 0x3
 348 00d9 5E0B0000 		.4byte	.LASF18
 349 00dd 04       		.byte	0x4
 350 00de 3C       		.byte	0x3c
 351 00df 82000000 		.4byte	0x82
 352 00e3 03       		.uleb128 0x3
 353 00e4 08000000 		.4byte	.LASF19
 354 00e8 05       		.byte	0x5
 355 00e9 D8       		.byte	0xd8
 356 00ea 9B000000 		.4byte	0x9b
 357 00ee 02       		.uleb128 0x2
 358 00ef 08       		.byte	0x8
 359 00f0 04       		.byte	0x4
 360 00f1 A0080000 		.4byte	.LASF20
 361 00f5 07       		.uleb128 0x7
 362 00f6 91040000 		.4byte	.LASF312
 363 00fa 03       		.uleb128 0x3
 364 00fb C1070000 		.4byte	.LASF21
 365 00ff 06       		.byte	0x6
 366 0100 27       		.byte	0x27
 367 0101 CD000000 		.4byte	0xcd
 368 0105 03       		.uleb128 0x3
 369 0106 15030000 		.4byte	.LASF22
 370 010a 06       		.byte	0x6
 371 010b 28       		.byte	0x28
 372 010c D8000000 		.4byte	0xd8
 373 0110 03       		.uleb128 0x3
 374 0111 DB0A0000 		.4byte	.LASF23
 375 0115 06       		.byte	0x6
 376 0116 2A       		.byte	0x2a
 377 0117 A2000000 		.4byte	0xa2
 378 011b 03       		.uleb128 0x3
 379 011c 0C030000 		.4byte	.LASF24
 380 0120 06       		.byte	0x6
 381 0121 2B       		.byte	0x2b
 382 0122 A2000000 		.4byte	0xa2
 383 0126 03       		.uleb128 0x3
 384 0127 0E0C0000 		.4byte	.LASF25
 385 012b 06       		.byte	0x6
 386 012c 2C       		.byte	0x2c
 387 012d A2000000 		.4byte	0xa2
 388 0131 03       		.uleb128 0x3
 389 0132 5A000000 		.4byte	.LASF26
 390 0136 06       		.byte	0x6
 391 0137 2E       		.byte	0x2e
 392 0138 CD000000 		.4byte	0xcd
 393 013c 03       		.uleb128 0x3
ARM GAS  /tmp/ccnRKFBk.s 			page 8


 394 013d C0090000 		.4byte	.LASF27
 395 0141 06       		.byte	0x6
 396 0142 2F       		.byte	0x2f
 397 0143 BD000000 		.4byte	0xbd
 398 0147 03       		.uleb128 0x3
 399 0148 90030000 		.4byte	.LASF28
 400 014c 06       		.byte	0x6
 401 014d 31       		.byte	0x31
 402 014e CD000000 		.4byte	0xcd
 403 0152 03       		.uleb128 0x3
 404 0153 D5040000 		.4byte	.LASF29
 405 0157 06       		.byte	0x6
 406 0158 33       		.byte	0x33
 407 0159 BD000000 		.4byte	0xbd
 408 015d 03       		.uleb128 0x3
 409 015e 50060000 		.4byte	.LASF30
 410 0162 06       		.byte	0x6
 411 0163 34       		.byte	0x34
 412 0164 CD000000 		.4byte	0xcd
 413 0168 03       		.uleb128 0x3
 414 0169 97080000 		.4byte	.LASF31
 415 016d 07       		.byte	0x7
 416 016e 34       		.byte	0x34
 417 016f 73010000 		.4byte	0x173
 418 0173 08       		.uleb128 0x8
 419 0174 D0050000 		.4byte	.LASF58
 420 0178 60       		.byte	0x60
 421 0179 08       		.byte	0x8
 422 017a 8E       		.byte	0x8e
 423 017b C0020000 		.4byte	0x2c0
 424 017f 09       		.uleb128 0x9
 425 0180 04       		.byte	0x4
 426 0181 08       		.byte	0x8
 427 0182 C6       		.byte	0xc6
 428 0183 E1010000 		.4byte	0x1e1
 429 0187 0A       		.uleb128 0xa
 430 0188 A10C0000 		.4byte	.LASF32
 431 018c 08       		.byte	0x8
 432 018d CD       		.byte	0xcd
 433 018e 3C010000 		.4byte	0x13c
 434 0192 0A       		.uleb128 0xa
 435 0193 73020000 		.4byte	.LASF33
 436 0197 08       		.byte	0x8
 437 0198 D4       		.byte	0xd4
 438 0199 3C010000 		.4byte	0x13c
 439 019d 0A       		.uleb128 0xa
 440 019e 74040000 		.4byte	.LASF34
 441 01a2 08       		.byte	0x8
 442 01a3 DB       		.byte	0xdb
 443 01a4 A8030000 		.4byte	0x3a8
 444 01a8 0A       		.uleb128 0xa
 445 01a9 9C030000 		.4byte	.LASF35
 446 01ad 08       		.byte	0x8
 447 01ae E2       		.byte	0xe2
 448 01af 07080000 		.4byte	0x807
 449 01b3 0A       		.uleb128 0xa
 450 01b4 CA080000 		.4byte	.LASF36
ARM GAS  /tmp/ccnRKFBk.s 			page 9


 451 01b8 08       		.byte	0x8
 452 01b9 E7       		.byte	0xe7
 453 01ba 3C010000 		.4byte	0x13c
 454 01be 0A       		.uleb128 0xa
 455 01bf 2C000000 		.4byte	.LASF37
 456 01c3 08       		.byte	0x8
 457 01c4 F0       		.byte	0xf0
 458 01c5 32080000 		.4byte	0x832
 459 01c9 0A       		.uleb128 0xa
 460 01ca F0040000 		.4byte	.LASF38
 461 01ce 08       		.byte	0x8
 462 01cf F9       		.byte	0xf9
 463 01d0 69080000 		.4byte	0x869
 464 01d4 0B       		.uleb128 0xb
 465 01d5 81030000 		.4byte	.LASF39
 466 01d9 08       		.byte	0x8
 467 01da 0101     		.2byte	0x101
 468 01dc 47010000 		.4byte	0x147
 469 01e0 00       		.byte	0
 470 01e1 0C       		.uleb128 0xc
 471 01e2 180A0000 		.4byte	.LASF40
 472 01e6 08       		.byte	0x8
 473 01e7 8F       		.byte	0x8f
 474 01e8 F5020000 		.4byte	0x2f5
 475 01ec 00       		.byte	0
 476 01ed 0C       		.uleb128 0xc
 477 01ee B0030000 		.4byte	.LASF41
 478 01f2 08       		.byte	0x8
 479 01f3 90       		.byte	0x90
 480 01f4 31010000 		.4byte	0x131
 481 01f8 08       		.byte	0x8
 482 01f9 0D       		.uleb128 0xd
 483 01fa 63747800 		.ascii	"ctx\000"
 484 01fe 08       		.byte	0x8
 485 01ff 91       		.byte	0x91
 486 0200 DF050000 		.4byte	0x5df
 487 0204 0C       		.byte	0xc
 488 0205 0C       		.uleb128 0xc
 489 0206 5A0C0000 		.4byte	.LASF42
 490 020a 08       		.byte	0x8
 491 020b 93       		.byte	0x93
 492 020c CB020000 		.4byte	0x2cb
 493 0210 10       		.byte	0x10
 494 0211 0C       		.uleb128 0xc
 495 0212 35060000 		.4byte	.LASF43
 496 0216 08       		.byte	0x8
 497 0217 94       		.byte	0x94
 498 0218 CB020000 		.4byte	0x2cb
 499 021c 14       		.byte	0x14
 500 021d 0C       		.uleb128 0xc
 501 021e FA0A0000 		.4byte	.LASF44
 502 0222 08       		.byte	0x8
 503 0223 9B       		.byte	0x9b
 504 0224 6F080000 		.4byte	0x86f
 505 0228 18       		.byte	0x18
 506 0229 0C       		.uleb128 0xc
 507 022a A20A0000 		.4byte	.LASF45
ARM GAS  /tmp/ccnRKFBk.s 			page 10


 508 022e 08       		.byte	0x8
 509 022f A4       		.byte	0xa4
 510 0230 8B080000 		.4byte	0x88b
 511 0234 1C       		.byte	0x1c
 512 0235 0C       		.uleb128 0xc
 513 0236 17010000 		.4byte	.LASF46
 514 023a 08       		.byte	0x8
 515 023b A9       		.byte	0xa9
 516 023c 1B010000 		.4byte	0x11b
 517 0240 20       		.byte	0x20
 518 0241 0C       		.uleb128 0xc
 519 0242 8B040000 		.4byte	.LASF47
 520 0246 08       		.byte	0x8
 521 0247 AD       		.byte	0xad
 522 0248 10010000 		.4byte	0x110
 523 024c 21       		.byte	0x21
 524 024d 0C       		.uleb128 0xc
 525 024e 0B0A0000 		.4byte	.LASF48
 526 0252 08       		.byte	0x8
 527 0253 B2       		.byte	0xb2
 528 0254 26010000 		.4byte	0x126
 529 0258 22       		.byte	0x22
 530 0259 0E       		.uleb128 0xe
 531 025a 7500     		.ascii	"u\000"
 532 025c 08       		.byte	0x8
 533 025d 0301     		.2byte	0x103
 534 025f 7F010000 		.4byte	0x17f
 535 0263 24       		.byte	0x24
 536 0264 0F       		.uleb128 0xf
 537 0265 D90B0000 		.4byte	.LASF49
 538 0269 08       		.byte	0x8
 539 026a 0801     		.2byte	0x108
 540 026c D1020000 		.4byte	0x2d1
 541 0270 28       		.byte	0x28
 542 0271 0F       		.uleb128 0xf
 543 0272 750B0000 		.4byte	.LASF50
 544 0276 08       		.byte	0x8
 545 0277 0E01     		.2byte	0x10e
 546 0279 F5020000 		.4byte	0x2f5
 547 027d 2C       		.byte	0x2c
 548 027e 0F       		.uleb128 0xf
 549 027f 1E0A0000 		.4byte	.LASF51
 550 0283 08       		.byte	0x8
 551 0284 1401     		.2byte	0x114
 552 0286 47010000 		.4byte	0x147
 553 028a 34       		.byte	0x34
 554 028b 0F       		.uleb128 0xf
 555 028c F1060000 		.4byte	.LASF52
 556 0290 08       		.byte	0x8
 557 0291 1B01     		.2byte	0x11b
 558 0293 69080000 		.4byte	0x869
 559 0297 38       		.byte	0x38
 560 0298 0F       		.uleb128 0xf
 561 0299 47060000 		.4byte	.LASF53
 562 029d 08       		.byte	0x8
 563 029e 1F01     		.2byte	0x11f
 564 02a0 31010000 		.4byte	0x131
ARM GAS  /tmp/ccnRKFBk.s 			page 11


 565 02a4 3C       		.byte	0x3c
 566 02a5 0F       		.uleb128 0xf
 567 02a6 B8040000 		.4byte	.LASF54
 568 02aa 08       		.byte	0x8
 569 02ab 2601     		.2byte	0x126
 570 02ad A8030000 		.4byte	0x3a8
 571 02b1 40       		.byte	0x40
 572 02b2 0F       		.uleb128 0xf
 573 02b3 23010000 		.4byte	.LASF55
 574 02b7 08       		.byte	0x8
 575 02b8 2C01     		.2byte	0x12c
 576 02ba B4070000 		.4byte	0x7b4
 577 02be 48       		.byte	0x48
 578 02bf 00       		.byte	0
 579 02c0 03       		.uleb128 0x3
 580 02c1 AC080000 		.4byte	.LASF56
 581 02c5 07       		.byte	0x7
 582 02c6 39       		.byte	0x39
 583 02c7 CB020000 		.4byte	0x2cb
 584 02cb 10       		.uleb128 0x10
 585 02cc 04       		.byte	0x4
 586 02cd 68010000 		.4byte	0x168
 587 02d1 03       		.uleb128 0x3
 588 02d2 2A0C0000 		.4byte	.LASF57
 589 02d6 07       		.byte	0x7
 590 02d7 3E       		.byte	0x3e
 591 02d8 DC020000 		.4byte	0x2dc
 592 02dc 08       		.uleb128 0x8
 593 02dd 8B060000 		.4byte	.LASF59
 594 02e1 04       		.byte	0x4
 595 02e2 08       		.byte	0x8
 596 02e3 7C       		.byte	0x7c
 597 02e4 F5020000 		.4byte	0x2f5
 598 02e8 0C       		.uleb128 0xc
 599 02e9 6B0D0000 		.4byte	.LASF60
 600 02ed 08       		.byte	0x8
 601 02ee 7D       		.byte	0x7d
 602 02ef CB020000 		.4byte	0x2cb
 603 02f3 00       		.byte	0
 604 02f4 00       		.byte	0
 605 02f5 03       		.uleb128 0x3
 606 02f6 28030000 		.4byte	.LASF61
 607 02fa 07       		.byte	0x7
 608 02fb 45       		.byte	0x45
 609 02fc 00030000 		.4byte	0x300
 610 0300 08       		.uleb128 0x8
 611 0301 C6090000 		.4byte	.LASF62
 612 0305 08       		.byte	0x8
 613 0306 08       		.byte	0x8
 614 0307 83       		.byte	0x83
 615 0308 25030000 		.4byte	0x325
 616 030c 0C       		.uleb128 0xc
 617 030d 6B0D0000 		.4byte	.LASF60
 618 0311 08       		.byte	0x8
 619 0312 84       		.byte	0x84
 620 0313 CB020000 		.4byte	0x2cb
 621 0317 00       		.byte	0
ARM GAS  /tmp/ccnRKFBk.s 			page 12


 622 0318 0C       		.uleb128 0xc
 623 0319 7A0D0000 		.4byte	.LASF63
 624 031d 08       		.byte	0x8
 625 031e 85       		.byte	0x85
 626 031f CB020000 		.4byte	0x2cb
 627 0323 04       		.byte	0x4
 628 0324 00       		.byte	0
 629 0325 03       		.uleb128 0x3
 630 0326 28060000 		.4byte	.LASF64
 631 032a 07       		.byte	0x7
 632 032b 4C       		.byte	0x4c
 633 032c 30030000 		.4byte	0x330
 634 0330 11       		.uleb128 0x11
 635 0331 FC040000 		.4byte	.LASF65
 636 0335 1C       		.byte	0x1c
 637 0336 08       		.byte	0x8
 638 0337 5E01     		.2byte	0x15e
 639 0339 8C030000 		.4byte	0x38c
 640 033d 0F       		.uleb128 0xf
 641 033e 180A0000 		.4byte	.LASF40
 642 0342 08       		.byte	0x8
 643 0343 5F01     		.2byte	0x15f
 644 0345 F5020000 		.4byte	0x2f5
 645 0349 00       		.byte	0
 646 034a 0F       		.uleb128 0xf
 647 034b B0030000 		.4byte	.LASF41
 648 034f 08       		.byte	0x8
 649 0350 6001     		.2byte	0x160
 650 0352 31010000 		.4byte	0x131
 651 0356 08       		.byte	0x8
 652 0357 0E       		.uleb128 0xe
 653 0358 63747800 		.ascii	"ctx\000"
 654 035c 08       		.byte	0x8
 655 035d 6201     		.2byte	0x162
 656 035f DF050000 		.4byte	0x5df
 657 0363 0C       		.byte	0xc
 658 0364 0F       		.uleb128 0xf
 659 0365 5A0C0000 		.4byte	.LASF42
 660 0369 08       		.byte	0x8
 661 036a 6501     		.2byte	0x165
 662 036c CB020000 		.4byte	0x2cb
 663 0370 10       		.byte	0x10
 664 0371 0F       		.uleb128 0xf
 665 0372 35060000 		.4byte	.LASF43
 666 0376 08       		.byte	0x8
 667 0377 6601     		.2byte	0x166
 668 0379 CB020000 		.4byte	0x2cb
 669 037d 14       		.byte	0x14
 670 037e 0F       		.uleb128 0xf
 671 037f 42080000 		.4byte	.LASF66
 672 0383 08       		.byte	0x8
 673 0384 6901     		.2byte	0x169
 674 0386 CB020000 		.4byte	0x2cb
 675 038a 18       		.byte	0x18
 676 038b 00       		.byte	0
 677 038c 03       		.uleb128 0x3
 678 038d A6000000 		.4byte	.LASF67
ARM GAS  /tmp/ccnRKFBk.s 			page 13


 679 0391 07       		.byte	0x7
 680 0392 51       		.byte	0x51
 681 0393 97030000 		.4byte	0x397
 682 0397 10       		.uleb128 0x10
 683 0398 04       		.byte	0x4
 684 0399 9D030000 		.4byte	0x39d
 685 039d 12       		.uleb128 0x12
 686 039e A8030000 		.4byte	0x3a8
 687 03a2 13       		.uleb128 0x13
 688 03a3 A8030000 		.4byte	0x3a8
 689 03a7 00       		.byte	0
 690 03a8 14       		.uleb128 0x14
 691 03a9 04       		.byte	0x4
 692 03aa 03       		.uleb128 0x3
 693 03ab 18060000 		.4byte	.LASF68
 694 03af 07       		.byte	0x7
 695 03b0 56       		.byte	0x56
 696 03b1 B5030000 		.4byte	0x3b5
 697 03b5 11       		.uleb128 0x11
 698 03b6 34090000 		.4byte	.LASF69
 699 03ba 14       		.byte	0x14
 700 03bb 08       		.byte	0x8
 701 03bc 3901     		.2byte	0x139
 702 03be 04040000 		.4byte	0x404
 703 03c2 0F       		.uleb128 0xf
 704 03c3 6B0D0000 		.4byte	.LASF60
 705 03c7 08       		.byte	0x8
 706 03c8 3A01     		.2byte	0x13a
 707 03ca 91080000 		.4byte	0x891
 708 03ce 00       		.byte	0
 709 03cf 0F       		.uleb128 0xf
 710 03d0 7A0D0000 		.4byte	.LASF63
 711 03d4 08       		.byte	0x8
 712 03d5 3B01     		.2byte	0x13b
 713 03d7 91080000 		.4byte	0x891
 714 03db 04       		.byte	0x4
 715 03dc 0F       		.uleb128 0xf
 716 03dd E7090000 		.4byte	.LASF70
 717 03e1 08       		.byte	0x8
 718 03e2 3C01     		.2byte	0x13c
 719 03e4 E8040000 		.4byte	0x4e8
 720 03e8 08       		.byte	0x8
 721 03e9 0F       		.uleb128 0xf
 722 03ea 670B0000 		.4byte	.LASF71
 723 03ee 08       		.byte	0x8
 724 03ef 3D01     		.2byte	0x13d
 725 03f1 8C030000 		.4byte	0x38c
 726 03f5 0C       		.byte	0xc
 727 03f6 0E       		.uleb128 0xe
 728 03f7 70617200 		.ascii	"par\000"
 729 03fb 08       		.byte	0x8
 730 03fc 3F01     		.2byte	0x13f
 731 03fe A8030000 		.4byte	0x3a8
 732 0402 10       		.byte	0x10
 733 0403 00       		.byte	0
 734 0404 03       		.uleb128 0x3
 735 0405 DF050000 		.4byte	.LASF72
ARM GAS  /tmp/ccnRKFBk.s 			page 14


 736 0409 07       		.byte	0x7
 737 040a 5B       		.byte	0x5b
 738 040b 0F040000 		.4byte	0x40f
 739 040f 11       		.uleb128 0x11
 740 0410 AF000000 		.4byte	.LASF73
 741 0414 10       		.byte	0x10
 742 0415 08       		.byte	0x8
 743 0416 4901     		.2byte	0x149
 744 0418 51040000 		.4byte	0x451
 745 041c 0F       		.uleb128 0xf
 746 041d 6B0D0000 		.4byte	.LASF60
 747 0421 08       		.byte	0x8
 748 0422 4A01     		.2byte	0x14a
 749 0424 91080000 		.4byte	0x891
 750 0428 00       		.byte	0
 751 0429 0F       		.uleb128 0xf
 752 042a 7A0D0000 		.4byte	.LASF63
 753 042e 08       		.byte	0x8
 754 042f 4C01     		.2byte	0x14c
 755 0431 91080000 		.4byte	0x891
 756 0435 04       		.byte	0x4
 757 0436 0F       		.uleb128 0xf
 758 0437 E7090000 		.4byte	.LASF70
 759 043b 08       		.byte	0x8
 760 043c 4E01     		.2byte	0x14e
 761 043e E8040000 		.4byte	0x4e8
 762 0442 08       		.byte	0x8
 763 0443 0F       		.uleb128 0xf
 764 0444 B5030000 		.4byte	.LASF74
 765 0448 08       		.byte	0x8
 766 0449 5601     		.2byte	0x156
 767 044b DD040000 		.4byte	0x4dd
 768 044f 0C       		.byte	0xc
 769 0450 00       		.byte	0
 770 0451 03       		.uleb128 0x3
 771 0452 17040000 		.4byte	.LASF75
 772 0456 07       		.byte	0x7
 773 0457 60       		.byte	0x60
 774 0458 5C040000 		.4byte	0x45c
 775 045c 11       		.uleb128 0x11
 776 045d 870B0000 		.4byte	.LASF76
 777 0461 04       		.byte	0x4
 778 0462 08       		.byte	0x8
 779 0463 7001     		.2byte	0x170
 780 0465 77040000 		.4byte	0x477
 781 0469 0F       		.uleb128 0xf
 782 046a BE030000 		.4byte	.LASF77
 783 046e 08       		.byte	0x8
 784 046f 7801     		.2byte	0x178
 785 0471 75080000 		.4byte	0x875
 786 0475 00       		.byte	0
 787 0476 00       		.byte	0
 788 0477 03       		.uleb128 0x3
 789 0478 CA0C0000 		.4byte	.LASF78
 790 047c 07       		.byte	0x7
 791 047d 65       		.byte	0x65
 792 047e 82040000 		.4byte	0x482
ARM GAS  /tmp/ccnRKFBk.s 			page 15


 793 0482 11       		.uleb128 0x11
 794 0483 400C0000 		.4byte	.LASF79
 795 0487 D0       		.byte	0xd0
 796 0488 08       		.byte	0x8
 797 0489 9001     		.2byte	0x190
 798 048b DD040000 		.4byte	0x4dd
 799 048f 0F       		.uleb128 0xf
 800 0490 D50A0000 		.4byte	.LASF80
 801 0494 08       		.byte	0x8
 802 0495 9401     		.2byte	0x194
 803 0497 25030000 		.4byte	0x325
 804 049b 00       		.byte	0
 805 049c 0F       		.uleb128 0xf
 806 049d C80B0000 		.4byte	.LASF81
 807 04a1 08       		.byte	0x8
 808 04a2 9801     		.2byte	0x198
 809 04a4 04040000 		.4byte	0x404
 810 04a8 1C       		.byte	0x1c
 811 04a9 0E       		.uleb128 0xe
 812 04aa 64626700 		.ascii	"dbg\000"
 813 04ae 08       		.byte	0x8
 814 04af 9C01     		.2byte	0x19c
 815 04b1 51040000 		.4byte	0x451
 816 04b5 2C       		.byte	0x2c
 817 04b6 0F       		.uleb128 0xf
 818 04b7 640A0000 		.4byte	.LASF82
 819 04bb 08       		.byte	0x8
 820 04bc A001     		.2byte	0x1a0
 821 04be 68010000 		.4byte	0x168
 822 04c2 30       		.byte	0x30
 823 04c3 0E       		.uleb128 0xe
 824 04c4 746D00   		.ascii	"tm\000"
 825 04c7 08       		.byte	0x8
 826 04c8 A501     		.2byte	0x1a5
 827 04ca 62070000 		.4byte	0x762
 828 04ce 90       		.byte	0x90
 829 04cf 0F       		.uleb128 0xf
 830 04d0 6C090000 		.4byte	.LASF83
 831 04d4 08       		.byte	0x8
 832 04d5 AB01     		.2byte	0x1ab
 833 04d7 FC070000 		.4byte	0x7fc
 834 04db 98       		.byte	0x98
 835 04dc 00       		.byte	0
 836 04dd 03       		.uleb128 0x3
 837 04de 33000000 		.4byte	.LASF84
 838 04e2 09       		.byte	0x9
 839 04e3 6D       		.byte	0x6d
 840 04e4 CD000000 		.4byte	0xcd
 841 04e8 03       		.uleb128 0x3
 842 04e9 0F070000 		.4byte	.LASF85
 843 04ed 09       		.byte	0x9
 844 04ee 79       		.byte	0x79
 845 04ef CD000000 		.4byte	0xcd
 846 04f3 02       		.uleb128 0x2
 847 04f4 04       		.byte	0x4
 848 04f5 07       		.byte	0x7
 849 04f6 18000000 		.4byte	.LASF86
ARM GAS  /tmp/ccnRKFBk.s 			page 16


 850 04fa 15       		.uleb128 0x15
 851 04fb 73070000 		.4byte	.LASF87
 852 04ff 0A       		.byte	0xa
 853 0500 0408     		.2byte	0x804
 854 0502 C8000000 		.4byte	0xc8
 855 0506 16       		.uleb128 0x16
 856 0507 B3050000 		.4byte	.LASF88
 857 050b 0B       		.byte	0xb
 858 050c 4C       		.byte	0x4c
 859 050d CD000000 		.4byte	0xcd
 860 0511 17       		.uleb128 0x17
 861 0512 AD000000 		.4byte	0xad
 862 0516 21050000 		.4byte	0x521
 863 051a 18       		.uleb128 0x18
 864 051b F3040000 		.4byte	0x4f3
 865 051f 0F       		.byte	0xf
 866 0520 00       		.byte	0
 867 0521 05       		.uleb128 0x5
 868 0522 11050000 		.4byte	0x511
 869 0526 16       		.uleb128 0x16
 870 0527 26090000 		.4byte	.LASF89
 871 052b 0B       		.byte	0xb
 872 052c 4E       		.byte	0x4e
 873 052d 21050000 		.4byte	0x521
 874 0531 17       		.uleb128 0x17
 875 0532 AD000000 		.4byte	0xad
 876 0536 41050000 		.4byte	0x541
 877 053a 18       		.uleb128 0x18
 878 053b F3040000 		.4byte	0x4f3
 879 053f 07       		.byte	0x7
 880 0540 00       		.byte	0
 881 0541 05       		.uleb128 0x5
 882 0542 31050000 		.4byte	0x531
 883 0546 16       		.uleb128 0x16
 884 0547 390B0000 		.4byte	.LASF90
 885 054b 0B       		.byte	0xb
 886 054c 4F       		.byte	0x4f
 887 054d 41050000 		.4byte	0x541
 888 0551 19       		.uleb128 0x19
 889 0552 01       		.byte	0x1
 890 0553 37000000 		.4byte	0x37
 891 0557 0C       		.byte	0xc
 892 0558 CC       		.byte	0xcc
 893 0559 41030000 		.4byte	.LASF93
 894 055d 6E050000 		.4byte	0x56e
 895 0561 1A       		.uleb128 0x1a
 896 0562 870A0000 		.4byte	.LASF91
 897 0566 00       		.byte	0
 898 0567 1B       		.uleb128 0x1b
 899 0568 53455400 		.ascii	"SET\000"
 900 056c 01       		.byte	0x1
 901 056d 00       		.byte	0
 902 056e 03       		.uleb128 0x3
 903 056f CA0A0000 		.4byte	.LASF92
 904 0573 0C       		.byte	0xc
 905 0574 CF       		.byte	0xcf
 906 0575 51050000 		.4byte	0x551
ARM GAS  /tmp/ccnRKFBk.s 			page 17


 907 0579 19       		.uleb128 0x19
 908 057a 01       		.byte	0x1
 909 057b 37000000 		.4byte	0x37
 910 057f 0C       		.byte	0xc
 911 0580 D2       		.byte	0xd2
 912 0581 E8030000 		.4byte	.LASF94
 913 0585 96050000 		.4byte	0x596
 914 0589 1A       		.uleb128 0x1a
 915 058a 8F080000 		.4byte	.LASF95
 916 058e 00       		.byte	0
 917 058f 1A       		.uleb128 0x1a
 918 0590 970B0000 		.4byte	.LASF96
 919 0594 01       		.byte	0x1
 920 0595 00       		.byte	0
 921 0596 03       		.uleb128 0x3
 922 0597 52050000 		.4byte	.LASF97
 923 059b 0C       		.byte	0xc
 924 059c D5       		.byte	0xd5
 925 059d 79050000 		.4byte	0x579
 926 05a1 19       		.uleb128 0x19
 927 05a2 01       		.byte	0x1
 928 05a3 37000000 		.4byte	0x37
 929 05a7 0C       		.byte	0xc
 930 05a8 D9       		.byte	0xd9
 931 05a9 6B000000 		.4byte	.LASF98
 932 05ad BE050000 		.4byte	0x5be
 933 05b1 1A       		.uleb128 0x1a
 934 05b2 57060000 		.4byte	.LASF99
 935 05b6 00       		.byte	0
 936 05b7 1A       		.uleb128 0x1a
 937 05b8 100A0000 		.4byte	.LASF100
 938 05bc 01       		.byte	0x1
 939 05bd 00       		.byte	0
 940 05be 03       		.uleb128 0x3
 941 05bf 0B090000 		.4byte	.LASF101
 942 05c3 0C       		.byte	0xc
 943 05c4 DC       		.byte	0xdc
 944 05c5 A1050000 		.4byte	0x5a1
 945 05c9 03       		.uleb128 0x3
 946 05ca 38030000 		.4byte	.LASF102
 947 05ce 0D       		.byte	0xd
 948 05cf 65       		.byte	0x65
 949 05d0 A8030000 		.4byte	0x3a8
 950 05d4 03       		.uleb128 0x3
 951 05d5 A3040000 		.4byte	.LASF103
 952 05d9 0D       		.byte	0xd
 953 05da 6D       		.byte	0x6d
 954 05db D8000000 		.4byte	0xd8
 955 05df 08       		.uleb128 0x8
 956 05e0 1D0C0000 		.4byte	.LASF104
 957 05e4 04       		.byte	0x4
 958 05e5 0D       		.byte	0xd
 959 05e6 89       		.byte	0x89
 960 05e7 F7050000 		.4byte	0x5f7
 961 05eb 0D       		.uleb128 0xd
 962 05ec 737000   		.ascii	"sp\000"
 963 05ef 0D       		.byte	0xd
ARM GAS  /tmp/ccnRKFBk.s 			page 18


 964 05f0 8A       		.byte	0x8a
 965 05f1 43070000 		.4byte	0x743
 966 05f5 00       		.byte	0
 967 05f6 00       		.byte	0
 968 05f7 11       		.uleb128 0x11
 969 05f8 D2080000 		.4byte	.LASF105
 970 05fc 64       		.byte	0x64
 971 05fd 0E       		.byte	0xe
 972 05fe 5901     		.2byte	0x159
 973 0600 43070000 		.4byte	0x743
 974 0604 0E       		.uleb128 0xe
 975 0605 73313600 		.ascii	"s16\000"
 976 0609 0E       		.byte	0xe
 977 060a 5B01     		.2byte	0x15b
 978 060c C9050000 		.4byte	0x5c9
 979 0610 00       		.byte	0
 980 0611 0E       		.uleb128 0xe
 981 0612 73313700 		.ascii	"s17\000"
 982 0616 0E       		.byte	0xe
 983 0617 5C01     		.2byte	0x15c
 984 0619 C9050000 		.4byte	0x5c9
 985 061d 04       		.byte	0x4
 986 061e 0E       		.uleb128 0xe
 987 061f 73313800 		.ascii	"s18\000"
 988 0623 0E       		.byte	0xe
 989 0624 5D01     		.2byte	0x15d
 990 0626 C9050000 		.4byte	0x5c9
 991 062a 08       		.byte	0x8
 992 062b 0E       		.uleb128 0xe
 993 062c 73313900 		.ascii	"s19\000"
 994 0630 0E       		.byte	0xe
 995 0631 5E01     		.2byte	0x15e
 996 0633 C9050000 		.4byte	0x5c9
 997 0637 0C       		.byte	0xc
 998 0638 0E       		.uleb128 0xe
 999 0639 73323000 		.ascii	"s20\000"
 1000 063d 0E       		.byte	0xe
 1001 063e 5F01     		.2byte	0x15f
 1002 0640 C9050000 		.4byte	0x5c9
 1003 0644 10       		.byte	0x10
 1004 0645 0E       		.uleb128 0xe
 1005 0646 73323100 		.ascii	"s21\000"
 1006 064a 0E       		.byte	0xe
 1007 064b 6001     		.2byte	0x160
 1008 064d C9050000 		.4byte	0x5c9
 1009 0651 14       		.byte	0x14
 1010 0652 0E       		.uleb128 0xe
 1011 0653 73323200 		.ascii	"s22\000"
 1012 0657 0E       		.byte	0xe
 1013 0658 6101     		.2byte	0x161
 1014 065a C9050000 		.4byte	0x5c9
 1015 065e 18       		.byte	0x18
 1016 065f 0E       		.uleb128 0xe
 1017 0660 73323300 		.ascii	"s23\000"
 1018 0664 0E       		.byte	0xe
 1019 0665 6201     		.2byte	0x162
 1020 0667 C9050000 		.4byte	0x5c9
ARM GAS  /tmp/ccnRKFBk.s 			page 19


 1021 066b 1C       		.byte	0x1c
 1022 066c 0E       		.uleb128 0xe
 1023 066d 73323400 		.ascii	"s24\000"
 1024 0671 0E       		.byte	0xe
 1025 0672 6301     		.2byte	0x163
 1026 0674 C9050000 		.4byte	0x5c9
 1027 0678 20       		.byte	0x20
 1028 0679 0E       		.uleb128 0xe
 1029 067a 73323500 		.ascii	"s25\000"
 1030 067e 0E       		.byte	0xe
 1031 067f 6401     		.2byte	0x164
 1032 0681 C9050000 		.4byte	0x5c9
 1033 0685 24       		.byte	0x24
 1034 0686 0E       		.uleb128 0xe
 1035 0687 73323600 		.ascii	"s26\000"
 1036 068b 0E       		.byte	0xe
 1037 068c 6501     		.2byte	0x165
 1038 068e C9050000 		.4byte	0x5c9
 1039 0692 28       		.byte	0x28
 1040 0693 0E       		.uleb128 0xe
 1041 0694 73323700 		.ascii	"s27\000"
 1042 0698 0E       		.byte	0xe
 1043 0699 6601     		.2byte	0x166
 1044 069b C9050000 		.4byte	0x5c9
 1045 069f 2C       		.byte	0x2c
 1046 06a0 0E       		.uleb128 0xe
 1047 06a1 73323800 		.ascii	"s28\000"
 1048 06a5 0E       		.byte	0xe
 1049 06a6 6701     		.2byte	0x167
 1050 06a8 C9050000 		.4byte	0x5c9
 1051 06ac 30       		.byte	0x30
 1052 06ad 0E       		.uleb128 0xe
 1053 06ae 73323900 		.ascii	"s29\000"
 1054 06b2 0E       		.byte	0xe
 1055 06b3 6801     		.2byte	0x168
 1056 06b5 C9050000 		.4byte	0x5c9
 1057 06b9 34       		.byte	0x34
 1058 06ba 0E       		.uleb128 0xe
 1059 06bb 73333000 		.ascii	"s30\000"
 1060 06bf 0E       		.byte	0xe
 1061 06c0 6901     		.2byte	0x169
 1062 06c2 C9050000 		.4byte	0x5c9
 1063 06c6 38       		.byte	0x38
 1064 06c7 0E       		.uleb128 0xe
 1065 06c8 73333100 		.ascii	"s31\000"
 1066 06cc 0E       		.byte	0xe
 1067 06cd 6A01     		.2byte	0x16a
 1068 06cf C9050000 		.4byte	0x5c9
 1069 06d3 3C       		.byte	0x3c
 1070 06d4 0E       		.uleb128 0xe
 1071 06d5 723400   		.ascii	"r4\000"
 1072 06d8 0E       		.byte	0xe
 1073 06d9 6C01     		.2byte	0x16c
 1074 06db C9050000 		.4byte	0x5c9
 1075 06df 40       		.byte	0x40
 1076 06e0 0E       		.uleb128 0xe
 1077 06e1 723500   		.ascii	"r5\000"
ARM GAS  /tmp/ccnRKFBk.s 			page 20


 1078 06e4 0E       		.byte	0xe
 1079 06e5 6D01     		.2byte	0x16d
 1080 06e7 C9050000 		.4byte	0x5c9
 1081 06eb 44       		.byte	0x44
 1082 06ec 0E       		.uleb128 0xe
 1083 06ed 723600   		.ascii	"r6\000"
 1084 06f0 0E       		.byte	0xe
 1085 06f1 6E01     		.2byte	0x16e
 1086 06f3 C9050000 		.4byte	0x5c9
 1087 06f7 48       		.byte	0x48
 1088 06f8 0E       		.uleb128 0xe
 1089 06f9 723700   		.ascii	"r7\000"
 1090 06fc 0E       		.byte	0xe
 1091 06fd 6F01     		.2byte	0x16f
 1092 06ff C9050000 		.4byte	0x5c9
 1093 0703 4C       		.byte	0x4c
 1094 0704 0E       		.uleb128 0xe
 1095 0705 723800   		.ascii	"r8\000"
 1096 0708 0E       		.byte	0xe
 1097 0709 7001     		.2byte	0x170
 1098 070b C9050000 		.4byte	0x5c9
 1099 070f 50       		.byte	0x50
 1100 0710 0E       		.uleb128 0xe
 1101 0711 723900   		.ascii	"r9\000"
 1102 0714 0E       		.byte	0xe
 1103 0715 7101     		.2byte	0x171
 1104 0717 C9050000 		.4byte	0x5c9
 1105 071b 54       		.byte	0x54
 1106 071c 0E       		.uleb128 0xe
 1107 071d 72313000 		.ascii	"r10\000"
 1108 0721 0E       		.byte	0xe
 1109 0722 7201     		.2byte	0x172
 1110 0724 C9050000 		.4byte	0x5c9
 1111 0728 58       		.byte	0x58
 1112 0729 0E       		.uleb128 0xe
 1113 072a 72313100 		.ascii	"r11\000"
 1114 072e 0E       		.byte	0xe
 1115 072f 7301     		.2byte	0x173
 1116 0731 C9050000 		.4byte	0x5c9
 1117 0735 5C       		.byte	0x5c
 1118 0736 0E       		.uleb128 0xe
 1119 0737 6C7200   		.ascii	"lr\000"
 1120 073a 0E       		.byte	0xe
 1121 073b 7401     		.2byte	0x174
 1122 073d C9050000 		.4byte	0x5c9
 1123 0741 60       		.byte	0x60
 1124 0742 00       		.byte	0
 1125 0743 10       		.uleb128 0x10
 1126 0744 04       		.byte	0x4
 1127 0745 F7050000 		.4byte	0x5f7
 1128 0749 1C       		.uleb128 0x1c
 1129 074a 04       		.byte	0x4
 1130 074b 0F       		.byte	0xf
 1131 074c 38       		.byte	0x38
 1132 074d 45090000 		.4byte	.LASF108
 1133 0751 62070000 		.4byte	0x762
 1134 0755 0C       		.uleb128 0xc
ARM GAS  /tmp/ccnRKFBk.s 			page 21


 1135 0756 5C080000 		.4byte	.LASF106
 1136 075a 0F       		.byte	0xf
 1137 075b 3C       		.byte	0x3c
 1138 075c FA000000 		.4byte	0xfa
 1139 0760 00       		.byte	0
 1140 0761 00       		.byte	0
 1141 0762 03       		.uleb128 0x3
 1142 0763 E30A0000 		.4byte	.LASF107
 1143 0767 0F       		.byte	0xf
 1144 0768 3D       		.byte	0x3d
 1145 0769 49070000 		.4byte	0x749
 1146 076d 1C       		.uleb128 0x1c
 1147 076e 18       		.byte	0x18
 1148 076f 0F       		.byte	0xf
 1149 0770 48       		.byte	0x48
 1150 0771 690C0000 		.4byte	.LASF109
 1151 0775 B4070000 		.4byte	0x7b4
 1152 0779 0C       		.uleb128 0xc
 1153 077a 8D0A0000 		.4byte	.LASF110
 1154 077e 0F       		.byte	0xf
 1155 077f 49       		.byte	0x49
 1156 0780 FA000000 		.4byte	0xfa
 1157 0784 00       		.byte	0
 1158 0785 0C       		.uleb128 0xc
 1159 0786 BE040000 		.4byte	.LASF111
 1160 078a 0F       		.byte	0xf
 1161 078b 4A       		.byte	0x4a
 1162 078c FA000000 		.4byte	0xfa
 1163 0790 04       		.byte	0x4
 1164 0791 0C       		.uleb128 0xc
 1165 0792 A30D0000 		.4byte	.LASF112
 1166 0796 0F       		.byte	0xf
 1167 0797 4B       		.byte	0x4b
 1168 0798 FA000000 		.4byte	0xfa
 1169 079c 08       		.byte	0x8
 1170 079d 0D       		.uleb128 0xd
 1171 079e 6E00     		.ascii	"n\000"
 1172 07a0 0F       		.byte	0xf
 1173 07a1 4C       		.byte	0x4c
 1174 07a2 5D010000 		.4byte	0x15d
 1175 07a6 0C       		.byte	0xc
 1176 07a7 0C       		.uleb128 0xc
 1177 07a8 60030000 		.4byte	.LASF113
 1178 07ac 0F       		.byte	0xf
 1179 07ad 4D       		.byte	0x4d
 1180 07ae 05010000 		.4byte	0x105
 1181 07b2 10       		.byte	0x10
 1182 07b3 00       		.byte	0
 1183 07b4 03       		.uleb128 0x3
 1184 07b5 86070000 		.4byte	.LASF114
 1185 07b9 0F       		.byte	0xf
 1186 07ba 4E       		.byte	0x4e
 1187 07bb 6D070000 		.4byte	0x76d
 1188 07bf 1C       		.uleb128 0x1c
 1189 07c0 38       		.byte	0x38
 1190 07c1 10       		.byte	0x10
 1191 07c2 38       		.byte	0x38
ARM GAS  /tmp/ccnRKFBk.s 			page 22


 1192 07c3 D2070000 		.4byte	.LASF115
 1193 07c7 FC070000 		.4byte	0x7fc
 1194 07cb 0C       		.uleb128 0xc
 1195 07cc A3060000 		.4byte	.LASF116
 1196 07d0 10       		.byte	0x10
 1197 07d1 39       		.byte	0x39
 1198 07d2 5D010000 		.4byte	0x15d
 1199 07d6 00       		.byte	0
 1200 07d7 0C       		.uleb128 0xc
 1201 07d8 7B040000 		.4byte	.LASF117
 1202 07dc 10       		.byte	0x10
 1203 07dd 3A       		.byte	0x3a
 1204 07de 5D010000 		.4byte	0x15d
 1205 07e2 04       		.byte	0x4
 1206 07e3 0C       		.uleb128 0xc
 1207 07e4 3C050000 		.4byte	.LASF118
 1208 07e8 10       		.byte	0x10
 1209 07e9 3B       		.byte	0x3b
 1210 07ea B4070000 		.4byte	0x7b4
 1211 07ee 08       		.byte	0x8
 1212 07ef 0C       		.uleb128 0xc
 1213 07f0 A9070000 		.4byte	.LASF119
 1214 07f4 10       		.byte	0x10
 1215 07f5 3D       		.byte	0x3d
 1216 07f6 B4070000 		.4byte	0x7b4
 1217 07fa 20       		.byte	0x20
 1218 07fb 00       		.byte	0
 1219 07fc 03       		.uleb128 0x3
 1220 07fd 09080000 		.4byte	.LASF120
 1221 0801 10       		.byte	0x10
 1222 0802 3F       		.byte	0x3f
 1223 0803 BF070000 		.4byte	0x7bf
 1224 0807 10       		.uleb128 0x10
 1225 0808 04       		.byte	0x4
 1226 0809 C0020000 		.4byte	0x2c0
 1227 080d 08       		.uleb128 0x8
 1228 080e C3050000 		.4byte	.LASF121
 1229 0812 0C       		.byte	0xc
 1230 0813 11       		.byte	0x11
 1231 0814 34       		.byte	0x34
 1232 0815 32080000 		.4byte	0x832
 1233 0819 0C       		.uleb128 0xc
 1234 081a 180A0000 		.4byte	.LASF40
 1235 081e 11       		.byte	0x11
 1236 081f 35       		.byte	0x35
 1237 0820 F5020000 		.4byte	0x2f5
 1238 0824 00       		.byte	0
 1239 0825 0D       		.uleb128 0xd
 1240 0826 636E7400 		.ascii	"cnt\000"
 1241 082a 11       		.byte	0x11
 1242 082b 37       		.byte	0x37
 1243 082c 52010000 		.4byte	0x152
 1244 0830 08       		.byte	0x8
 1245 0831 00       		.byte	0
 1246 0832 10       		.uleb128 0x10
 1247 0833 04       		.byte	0x4
 1248 0834 0D080000 		.4byte	0x80d
ARM GAS  /tmp/ccnRKFBk.s 			page 23


 1249 0838 08       		.uleb128 0x8
 1250 0839 6C0B0000 		.4byte	.LASF122
 1251 083d 10       		.byte	0x10
 1252 083e 12       		.byte	0x12
 1253 083f 39       		.byte	0x39
 1254 0840 69080000 		.4byte	0x869
 1255 0844 0C       		.uleb128 0xc
 1256 0845 180A0000 		.4byte	.LASF40
 1257 0849 12       		.byte	0x12
 1258 084a 3A       		.byte	0x3a
 1259 084b F5020000 		.4byte	0x2f5
 1260 084f 00       		.byte	0
 1261 0850 0C       		.uleb128 0xc
 1262 0851 4E000000 		.4byte	.LASF123
 1263 0855 12       		.byte	0x12
 1264 0856 3C       		.byte	0x3c
 1265 0857 CB020000 		.4byte	0x2cb
 1266 085b 08       		.byte	0x8
 1267 085c 0C       		.uleb128 0xc
 1268 085d 6B0D0000 		.4byte	.LASF60
 1269 0861 12       		.byte	0x12
 1270 0862 3E       		.byte	0x3e
 1271 0863 D4090000 		.4byte	0x9d4
 1272 0867 0C       		.byte	0xc
 1273 0868 00       		.byte	0
 1274 0869 10       		.uleb128 0x10
 1275 086a 04       		.byte	0x4
 1276 086b 38080000 		.4byte	0x838
 1277 086f 10       		.uleb128 0x10
 1278 0870 04       		.byte	0x4
 1279 0871 86080000 		.4byte	0x886
 1280 0875 06       		.uleb128 0x6
 1281 0876 6F080000 		.4byte	0x86f
 1282 087a 05       		.uleb128 0x5
 1283 087b 6F080000 		.4byte	0x86f
 1284 087f 02       		.uleb128 0x2
 1285 0880 01       		.byte	0x1
 1286 0881 08       		.byte	0x8
 1287 0882 4E040000 		.4byte	.LASF124
 1288 0886 05       		.uleb128 0x5
 1289 0887 7F080000 		.4byte	0x87f
 1290 088b 10       		.uleb128 0x10
 1291 088c 04       		.byte	0x4
 1292 088d D4050000 		.4byte	0x5d4
 1293 0891 10       		.uleb128 0x10
 1294 0892 04       		.byte	0x4
 1295 0893 AA030000 		.4byte	0x3aa
 1296 0897 1D       		.uleb128 0x1d
 1297 0898 636800   		.ascii	"ch\000"
 1298 089b 08       		.byte	0x8
 1299 089c C701     		.2byte	0x1c7
 1300 089e 77040000 		.4byte	0x477
 1301 08a2 17       		.uleb128 0x17
 1302 08a3 D4050000 		.4byte	0x5d4
 1303 08a7 AD080000 		.4byte	0x8ad
 1304 08ab 1E       		.uleb128 0x1e
 1305 08ac 00       		.byte	0
ARM GAS  /tmp/ccnRKFBk.s 			page 24


 1306 08ad 15       		.uleb128 0x15
 1307 08ae F5050000 		.4byte	.LASF125
 1308 08b2 13       		.byte	0x13
 1309 08b3 1701     		.2byte	0x117
 1310 08b5 A2080000 		.4byte	0x8a2
 1311 08b9 1C       		.uleb128 0x1c
 1312 08ba 16       		.byte	0x16
 1313 08bb 14       		.byte	0x14
 1314 08bc 34       		.byte	0x34
 1315 08bd BF080000 		.4byte	.LASF126
 1316 08c1 9E090000 		.4byte	0x99e
 1317 08c5 0C       		.uleb128 0xc
 1318 08c6 8B0D0000 		.4byte	.LASF127
 1319 08ca 14       		.byte	0x14
 1320 08cb 35       		.byte	0x35
 1321 08cc 9E090000 		.4byte	0x99e
 1322 08d0 00       		.byte	0
 1323 08d1 0C       		.uleb128 0xc
 1324 08d2 F8020000 		.4byte	.LASF128
 1325 08d6 14       		.byte	0x14
 1326 08d7 36       		.byte	0x36
 1327 08d8 A2000000 		.4byte	0xa2
 1328 08dc 04       		.byte	0x4
 1329 08dd 0C       		.uleb128 0xc
 1330 08de 79090000 		.4byte	.LASF129
 1331 08e2 14       		.byte	0x14
 1332 08e3 37       		.byte	0x37
 1333 08e4 A2000000 		.4byte	0xa2
 1334 08e8 05       		.byte	0x5
 1335 08e9 0C       		.uleb128 0xc
 1336 08ea 780A0000 		.4byte	.LASF130
 1337 08ee 14       		.byte	0x14
 1338 08ef 38       		.byte	0x38
 1339 08f0 B2000000 		.4byte	0xb2
 1340 08f4 06       		.byte	0x6
 1341 08f5 0C       		.uleb128 0xc
 1342 08f6 C4040000 		.4byte	.LASF131
 1343 08fa 14       		.byte	0x14
 1344 08fb 39       		.byte	0x39
 1345 08fc A2000000 		.4byte	0xa2
 1346 0900 08       		.byte	0x8
 1347 0901 0C       		.uleb128 0xc
 1348 0902 300D0000 		.4byte	.LASF132
 1349 0906 14       		.byte	0x14
 1350 0907 3A       		.byte	0x3a
 1351 0908 A2000000 		.4byte	0xa2
 1352 090c 09       		.byte	0x9
 1353 090d 0C       		.uleb128 0xc
 1354 090e 7C050000 		.4byte	.LASF133
 1355 0912 14       		.byte	0x14
 1356 0913 3B       		.byte	0x3b
 1357 0914 A2000000 		.4byte	0xa2
 1358 0918 0A       		.byte	0xa
 1359 0919 0C       		.uleb128 0xc
 1360 091a 0F000000 		.4byte	.LASF134
 1361 091e 14       		.byte	0x14
 1362 091f 3C       		.byte	0x3c
ARM GAS  /tmp/ccnRKFBk.s 			page 25


 1363 0920 A2000000 		.4byte	0xa2
 1364 0924 0B       		.byte	0xb
 1365 0925 0C       		.uleb128 0xc
 1366 0926 00000000 		.4byte	.LASF135
 1367 092a 14       		.byte	0x14
 1368 092b 3D       		.byte	0x3d
 1369 092c A2000000 		.4byte	0xa2
 1370 0930 0C       		.byte	0xc
 1371 0931 0C       		.uleb128 0xc
 1372 0932 9F070000 		.4byte	.LASF136
 1373 0936 14       		.byte	0x14
 1374 0937 3E       		.byte	0x3e
 1375 0938 A2000000 		.4byte	0xa2
 1376 093c 0D       		.byte	0xd
 1377 093d 0C       		.uleb128 0xc
 1378 093e 38010000 		.4byte	.LASF137
 1379 0942 14       		.byte	0x14
 1380 0943 3F       		.byte	0x3f
 1381 0944 A2000000 		.4byte	0xa2
 1382 0948 0E       		.byte	0xe
 1383 0949 0C       		.uleb128 0xc
 1384 094a AB090000 		.4byte	.LASF138
 1385 094e 14       		.byte	0x14
 1386 094f 40       		.byte	0x40
 1387 0950 A2000000 		.4byte	0xa2
 1388 0954 0F       		.byte	0xf
 1389 0955 0C       		.uleb128 0xc
 1390 0956 6A060000 		.4byte	.LASF139
 1391 095a 14       		.byte	0x14
 1392 095b 41       		.byte	0x41
 1393 095c A2000000 		.4byte	0xa2
 1394 0960 10       		.byte	0x10
 1395 0961 0C       		.uleb128 0xc
 1396 0962 1E030000 		.4byte	.LASF140
 1397 0966 14       		.byte	0x14
 1398 0967 42       		.byte	0x42
 1399 0968 A2000000 		.4byte	0xa2
 1400 096c 11       		.byte	0x11
 1401 096d 0C       		.uleb128 0xc
 1402 096e 4E0D0000 		.4byte	.LASF141
 1403 0972 14       		.byte	0x14
 1404 0973 43       		.byte	0x43
 1405 0974 A2000000 		.4byte	0xa2
 1406 0978 12       		.byte	0x12
 1407 0979 0C       		.uleb128 0xc
 1408 097a 910C0000 		.4byte	.LASF142
 1409 097e 14       		.byte	0x14
 1410 097f 44       		.byte	0x44
 1411 0980 A2000000 		.4byte	0xa2
 1412 0984 13       		.byte	0x13
 1413 0985 0C       		.uleb128 0xc
 1414 0986 3D000000 		.4byte	.LASF143
 1415 098a 14       		.byte	0x14
 1416 098b 45       		.byte	0x45
 1417 098c A2000000 		.4byte	0xa2
 1418 0990 14       		.byte	0x14
 1419 0991 0C       		.uleb128 0xc
ARM GAS  /tmp/ccnRKFBk.s 			page 26


 1420 0992 CC040000 		.4byte	.LASF144
 1421 0996 14       		.byte	0x14
 1422 0997 46       		.byte	0x46
 1423 0998 A2000000 		.4byte	0xa2
 1424 099c 15       		.byte	0x15
 1425 099d 00       		.byte	0
 1426 099e 17       		.uleb128 0x17
 1427 099f 7F080000 		.4byte	0x87f
 1428 09a3 AE090000 		.4byte	0x9ae
 1429 09a7 18       		.uleb128 0x18
 1430 09a8 F3040000 		.4byte	0x4f3
 1431 09ac 03       		.byte	0x3
 1432 09ad 00       		.byte	0
 1433 09ae 03       		.uleb128 0x3
 1434 09af D60C0000 		.4byte	.LASF145
 1435 09b3 14       		.byte	0x14
 1436 09b4 47       		.byte	0x47
 1437 09b5 B9080000 		.4byte	0x8b9
 1438 09b9 05       		.uleb128 0x5
 1439 09ba AE090000 		.4byte	0x9ae
 1440 09be 16       		.uleb128 0x16
 1441 09bf 62000000 		.4byte	.LASF146
 1442 09c3 14       		.byte	0x14
 1443 09c4 6C       		.byte	0x6c
 1444 09c5 B9090000 		.4byte	0x9b9
 1445 09c9 03       		.uleb128 0x3
 1446 09ca 060C0000 		.4byte	.LASF147
 1447 09ce 12       		.byte	0x12
 1448 09cf 34       		.byte	0x34
 1449 09d0 38080000 		.4byte	0x838
 1450 09d4 10       		.uleb128 0x10
 1451 09d5 04       		.byte	0x4
 1452 09d6 C9090000 		.4byte	0x9c9
 1453 09da 02       		.uleb128 0x2
 1454 09db 01       		.byte	0x1
 1455 09dc 02       		.byte	0x2
 1456 09dd 73080000 		.4byte	.LASF148
 1457 09e1 03       		.uleb128 0x3
 1458 09e2 78080000 		.4byte	.LASF149
 1459 09e6 15       		.byte	0x15
 1460 09e7 47       		.byte	0x47
 1461 09e8 EC090000 		.4byte	0x9ec
 1462 09ec 10       		.uleb128 0x10
 1463 09ed 04       		.byte	0x4
 1464 09ee F2090000 		.4byte	0x9f2
 1465 09f2 1F       		.uleb128 0x1f
 1466 09f3 A8030000 		.4byte	0x3a8
 1467 09f7 060A0000 		.4byte	0xa06
 1468 09fb 13       		.uleb128 0x13
 1469 09fc E3000000 		.4byte	0xe3
 1470 0a00 13       		.uleb128 0x13
 1471 0a01 9B000000 		.4byte	0x9b
 1472 0a05 00       		.byte	0
 1473 0a06 1C       		.uleb128 0x1c
 1474 0a07 08       		.byte	0x8
 1475 0a08 15       		.byte	0x15
 1476 0a09 51       		.byte	0x51
ARM GAS  /tmp/ccnRKFBk.s 			page 27


 1477 0a0a 860C0000 		.4byte	.LASF150
 1478 0a0e 2B0A0000 		.4byte	0xa2b
 1479 0a12 0C       		.uleb128 0xc
 1480 0a13 34050000 		.4byte	.LASF151
 1481 0a17 15       		.byte	0x15
 1482 0a18 55       		.byte	0x55
 1483 0a19 2B0A0000 		.4byte	0xa2b
 1484 0a1d 00       		.byte	0
 1485 0a1e 0C       		.uleb128 0xc
 1486 0a1f AC020000 		.4byte	.LASF152
 1487 0a23 15       		.byte	0x15
 1488 0a24 59       		.byte	0x59
 1489 0a25 2B0A0000 		.4byte	0xa2b
 1490 0a29 04       		.byte	0x4
 1491 0a2a 00       		.byte	0
 1492 0a2b 10       		.uleb128 0x10
 1493 0a2c 04       		.byte	0x4
 1494 0a2d A2000000 		.4byte	0xa2
 1495 0a31 03       		.uleb128 0x3
 1496 0a32 6B030000 		.4byte	.LASF153
 1497 0a36 15       		.byte	0x15
 1498 0a37 5A       		.byte	0x5a
 1499 0a38 060A0000 		.4byte	0xa06
 1500 0a3c 16       		.uleb128 0x16
 1501 0a3d 430D0000 		.4byte	.LASF154
 1502 0a41 15       		.byte	0x15
 1503 0a42 65       		.byte	0x65
 1504 0a43 310A0000 		.4byte	0xa31
 1505 0a47 08       		.uleb128 0x8
 1506 0a48 77060000 		.4byte	.LASF155
 1507 0a4c 04       		.byte	0x4
 1508 0a4d 16       		.byte	0x16
 1509 0a4e 38       		.byte	0x38
 1510 0a4f 600A0000 		.4byte	0xa60
 1511 0a53 0C       		.uleb128 0xc
 1512 0a54 6B0D0000 		.4byte	.LASF60
 1513 0a58 16       		.byte	0x16
 1514 0a59 39       		.byte	0x39
 1515 0a5a 600A0000 		.4byte	0xa60
 1516 0a5e 00       		.byte	0
 1517 0a5f 00       		.byte	0
 1518 0a60 10       		.uleb128 0x10
 1519 0a61 04       		.byte	0x4
 1520 0a62 470A0000 		.4byte	0xa47
 1521 0a66 1C       		.uleb128 0x1c
 1522 0a67 10       		.byte	0x10
 1523 0a68 16       		.byte	0x16
 1524 0a69 40       		.byte	0x40
 1525 0a6a 35040000 		.4byte	.LASF156
 1526 0a6e A30A0000 		.4byte	0xaa3
 1527 0a72 0C       		.uleb128 0xc
 1528 0a73 6B0D0000 		.4byte	.LASF60
 1529 0a77 16       		.byte	0x16
 1530 0a78 41       		.byte	0x41
 1531 0a79 600A0000 		.4byte	0xa60
 1532 0a7d 00       		.byte	0
 1533 0a7e 0C       		.uleb128 0xc
ARM GAS  /tmp/ccnRKFBk.s 			page 28


 1534 0a7f B30B0000 		.4byte	.LASF157
 1535 0a83 16       		.byte	0x16
 1536 0a84 42       		.byte	0x42
 1537 0a85 E3000000 		.4byte	0xe3
 1538 0a89 04       		.byte	0x4
 1539 0a8a 0C       		.uleb128 0xc
 1540 0a8b 67070000 		.4byte	.LASF158
 1541 0a8f 16       		.byte	0x16
 1542 0a90 44       		.byte	0x44
 1543 0a91 9B000000 		.4byte	0x9b
 1544 0a95 08       		.byte	0x8
 1545 0a96 0C       		.uleb128 0xc
 1546 0a97 79000000 		.4byte	.LASF159
 1547 0a9b 16       		.byte	0x16
 1548 0a9c 45       		.byte	0x45
 1549 0a9d E1090000 		.4byte	0x9e1
 1550 0aa1 0C       		.byte	0xc
 1551 0aa2 00       		.byte	0
 1552 0aa3 03       		.uleb128 0x3
 1553 0aa4 B00A0000 		.4byte	.LASF160
 1554 0aa8 16       		.byte	0x16
 1555 0aa9 47       		.byte	0x47
 1556 0aaa 660A0000 		.4byte	0xa66
 1557 0aae 08       		.uleb128 0x8
 1558 0aaf 02010000 		.4byte	.LASF161
 1559 0ab3 10       		.byte	0x10
 1560 0ab4 17       		.byte	0x17
 1561 0ab5 A9       		.byte	0xa9
 1562 0ab6 DF0A0000 		.4byte	0xadf
 1563 0aba 0C       		.uleb128 0xc
 1564 0abb 6B0D0000 		.4byte	.LASF60
 1565 0abf 17       		.byte	0x17
 1566 0ac0 AD       		.byte	0xad
 1567 0ac1 DF0A0000 		.4byte	0xadf
 1568 0ac5 00       		.byte	0
 1569 0ac6 0C       		.uleb128 0xc
 1570 0ac7 0B0A0000 		.4byte	.LASF48
 1571 0acb 17       		.byte	0x17
 1572 0acc B1       		.byte	0xb1
 1573 0acd 5D010000 		.4byte	0x15d
 1574 0ad1 04       		.byte	0x4
 1575 0ad2 0C       		.uleb128 0xc
 1576 0ad3 FA0A0000 		.4byte	.LASF44
 1577 0ad7 17       		.byte	0x17
 1578 0ad8 B3       		.byte	0xb3
 1579 0ad9 E50A0000 		.4byte	0xae5
 1580 0add 08       		.byte	0x8
 1581 0ade 00       		.byte	0
 1582 0adf 10       		.uleb128 0x10
 1583 0ae0 04       		.byte	0x4
 1584 0ae1 AE0A0000 		.4byte	0xaae
 1585 0ae5 17       		.uleb128 0x17
 1586 0ae6 7F080000 		.4byte	0x87f
 1587 0aea F50A0000 		.4byte	0xaf5
 1588 0aee 18       		.uleb128 0x18
 1589 0aef F3040000 		.4byte	0x4f3
 1590 0af3 07       		.byte	0x7
ARM GAS  /tmp/ccnRKFBk.s 			page 29


 1591 0af4 00       		.byte	0
 1592 0af5 03       		.uleb128 0x3
 1593 0af6 E80B0000 		.4byte	.LASF162
 1594 0afa 17       		.byte	0x17
 1595 0afb B7       		.byte	0xb7
 1596 0afc AE0A0000 		.4byte	0xaae
 1597 0b00 08       		.uleb128 0x8
 1598 0b01 7F0D0000 		.4byte	.LASF163
 1599 0b05 04       		.byte	0x4
 1600 0b06 17       		.byte	0x17
 1601 0b07 BC       		.byte	0xbc
 1602 0b08 190B0000 		.4byte	0xb19
 1603 0b0c 0C       		.uleb128 0xc
 1604 0b0d 6B0D0000 		.4byte	.LASF60
 1605 0b11 17       		.byte	0x17
 1606 0b12 BD       		.byte	0xbd
 1607 0b13 190B0000 		.4byte	0xb19
 1608 0b17 00       		.byte	0
 1609 0b18 00       		.byte	0
 1610 0b19 10       		.uleb128 0x10
 1611 0b1a 04       		.byte	0x4
 1612 0b1b F50A0000 		.4byte	0xaf5
 1613 0b1f 03       		.uleb128 0x3
 1614 0b20 9E0B0000 		.4byte	.LASF164
 1615 0b24 17       		.byte	0x17
 1616 0b25 BE       		.byte	0xbe
 1617 0b26 000B0000 		.4byte	0xb00
 1618 0b2a 11       		.uleb128 0x11
 1619 0b2b 24070000 		.4byte	.LASF165
 1620 0b2f 44       		.byte	0x44
 1621 0b30 17       		.byte	0x17
 1622 0b31 3E01     		.2byte	0x13e
 1623 0b33 A00B0000 		.4byte	0xba0
 1624 0b37 0E       		.uleb128 0xe
 1625 0b38 6D747800 		.ascii	"mtx\000"
 1626 0b3c 17       		.byte	0x17
 1627 0b3d 4301     		.2byte	0x143
 1628 0b3f C9090000 		.4byte	0x9c9
 1629 0b43 00       		.byte	0
 1630 0b44 0F       		.uleb128 0xf
 1631 0b45 2F010000 		.4byte	.LASF166
 1632 0b49 17       		.byte	0x17
 1633 0b4a 4A01     		.2byte	0x14a
 1634 0b4c 1F0B0000 		.4byte	0xb1f
 1635 0b50 10       		.byte	0x10
 1636 0b51 0F       		.uleb128 0xf
 1637 0b52 57030000 		.4byte	.LASF167
 1638 0b56 17       		.byte	0x17
 1639 0b57 4E01     		.2byte	0x14e
 1640 0b59 A30A0000 		.4byte	0xaa3
 1641 0b5d 14       		.byte	0x14
 1642 0b5e 0F       		.uleb128 0xf
 1643 0b5f FC080000 		.4byte	.LASF168
 1644 0b63 17       		.byte	0x17
 1645 0b64 5301     		.2byte	0x153
 1646 0b66 1F0B0000 		.4byte	0xb1f
 1647 0b6a 24       		.byte	0x24
ARM GAS  /tmp/ccnRKFBk.s 			page 30


 1648 0b6b 0F       		.uleb128 0xf
 1649 0b6c 60040000 		.4byte	.LASF169
 1650 0b70 17       		.byte	0x17
 1651 0b71 5901     		.2byte	0x159
 1652 0b73 1F0B0000 		.4byte	0xb1f
 1653 0b77 28       		.byte	0x28
 1654 0b78 0F       		.uleb128 0xf
 1655 0b79 1B050000 		.4byte	.LASF170
 1656 0b7d 17       		.byte	0x17
 1657 0b7e 5D01     		.2byte	0x15d
 1658 0b80 A30A0000 		.4byte	0xaa3
 1659 0b84 2C       		.byte	0x2c
 1660 0b85 0F       		.uleb128 0xf
 1661 0b86 5B0A0000 		.4byte	.LASF171
 1662 0b8a 17       		.byte	0x17
 1663 0b8b 6301     		.2byte	0x163
 1664 0b8d 1F0B0000 		.4byte	0xb1f
 1665 0b91 3C       		.byte	0x3c
 1666 0b92 0F       		.uleb128 0xf
 1667 0b93 0E060000 		.4byte	.LASF172
 1668 0b97 17       		.byte	0x17
 1669 0b98 6901     		.2byte	0x169
 1670 0b9a 1F0B0000 		.4byte	0xb1f
 1671 0b9e 40       		.byte	0x40
 1672 0b9f 00       		.byte	0
 1673 0ba0 20       		.uleb128 0x20
 1674 0ba1 DE080000 		.4byte	.LASF173
 1675 0ba5 17       		.byte	0x17
 1676 0ba6 7101     		.2byte	0x171
 1677 0ba8 2A0B0000 		.4byte	0xb2a
 1678 0bac 15       		.uleb128 0x15
 1679 0bad 410A0000 		.4byte	.LASF174
 1680 0bb1 17       		.byte	0x17
 1681 0bb2 7C01     		.2byte	0x17c
 1682 0bb4 A00B0000 		.4byte	0xba0
 1683 0bb8 03       		.uleb128 0x3
 1684 0bb9 26040000 		.4byte	.LASF175
 1685 0bbd 18       		.byte	0x18
 1686 0bbe 28       		.byte	0x28
 1687 0bbf C30B0000 		.4byte	0xbc3
 1688 0bc3 08       		.uleb128 0x8
 1689 0bc4 87050000 		.4byte	.LASF176
 1690 0bc8 04       		.byte	0x4
 1691 0bc9 19       		.byte	0x19
 1692 0bca 00       		.byte	0
 1693 0bcb DA0B0000 		.4byte	0xbda
 1694 0bcf 21       		.uleb128 0x21
 1695 0bd0 DA050000 		.4byte	.LASF177
 1696 0bd4 A8030000 		.4byte	0x3a8
 1697 0bd8 00       		.byte	0
 1698 0bd9 00       		.byte	0
 1699 0bda 03       		.uleb128 0x3
 1700 0bdb 07070000 		.4byte	.LASF178
 1701 0bdf 18       		.byte	0x18
 1702 0be0 63       		.byte	0x63
 1703 0be1 B80B0000 		.4byte	0xbb8
 1704 0be5 03       		.uleb128 0x3
ARM GAS  /tmp/ccnRKFBk.s 			page 31


 1705 0be6 FE0B0000 		.4byte	.LASF179
 1706 0bea 1A       		.byte	0x1a
 1707 0beb 22       		.byte	0x22
 1708 0bec F00B0000 		.4byte	0xbf0
 1709 0bf0 10       		.uleb128 0x10
 1710 0bf1 04       		.byte	0x4
 1711 0bf2 F60B0000 		.4byte	0xbf6
 1712 0bf6 22       		.uleb128 0x22
 1713 0bf7 0A050000 		.4byte	.LASF286
 1714 0bfb 03       		.uleb128 0x3
 1715 0bfc 9A0C0000 		.4byte	.LASF180
 1716 0c00 1B       		.byte	0x1b
 1717 0c01 2C       		.byte	0x2c
 1718 0c02 62000000 		.4byte	0x62
 1719 0c06 03       		.uleb128 0x3
 1720 0c07 17090000 		.4byte	.LASF181
 1721 0c0b 1B       		.byte	0x1b
 1722 0c0c 72       		.byte	0x72
 1723 0c0d 62000000 		.4byte	0x62
 1724 0c11 20       		.uleb128 0x20
 1725 0c12 A90A0000 		.4byte	.LASF182
 1726 0c16 05       		.byte	0x5
 1727 0c17 6501     		.2byte	0x165
 1728 0c19 9B000000 		.4byte	0x9b
 1729 0c1d 1C       		.uleb128 0x1c
 1730 0c1e 08       		.byte	0x8
 1731 0c1f 1B       		.byte	0x1b
 1732 0c20 A4       		.byte	0xa4
 1733 0c21 EB020000 		.4byte	.LASF183
 1734 0c25 610C0000 		.4byte	0xc61
 1735 0c29 09       		.uleb128 0x9
 1736 0c2a 04       		.byte	0x4
 1737 0c2b 1B       		.byte	0x1b
 1738 0c2c A7       		.byte	0xa7
 1739 0c2d 480C0000 		.4byte	0xc48
 1740 0c31 0A       		.uleb128 0xa
 1741 0c32 6D020000 		.4byte	.LASF184
 1742 0c36 1B       		.byte	0x1b
 1743 0c37 A8       		.byte	0xa8
 1744 0c38 110C0000 		.4byte	0xc11
 1745 0c3c 0A       		.uleb128 0xa
 1746 0c3d 1F090000 		.4byte	.LASF185
 1747 0c41 1B       		.byte	0x1b
 1748 0c42 A9       		.byte	0xa9
 1749 0c43 610C0000 		.4byte	0xc61
 1750 0c47 00       		.byte	0
 1751 0c48 0C       		.uleb128 0xc
 1752 0c49 6B080000 		.4byte	.LASF186
 1753 0c4d 1B       		.byte	0x1b
 1754 0c4e A5       		.byte	0xa5
 1755 0c4f 94000000 		.4byte	0x94
 1756 0c53 00       		.byte	0
 1757 0c54 0C       		.uleb128 0xc
 1758 0c55 62050000 		.4byte	.LASF187
 1759 0c59 1B       		.byte	0x1b
 1760 0c5a AA       		.byte	0xaa
 1761 0c5b 290C0000 		.4byte	0xc29
ARM GAS  /tmp/ccnRKFBk.s 			page 32


 1762 0c5f 04       		.byte	0x4
 1763 0c60 00       		.byte	0
 1764 0c61 17       		.uleb128 0x17
 1765 0c62 37000000 		.4byte	0x37
 1766 0c66 710C0000 		.4byte	0xc71
 1767 0c6a 18       		.uleb128 0x18
 1768 0c6b F3040000 		.4byte	0x4f3
 1769 0c6f 03       		.byte	0x3
 1770 0c70 00       		.byte	0
 1771 0c71 03       		.uleb128 0x3
 1772 0c72 920A0000 		.4byte	.LASF188
 1773 0c76 1B       		.byte	0x1b
 1774 0c77 AB       		.byte	0xab
 1775 0c78 1D0C0000 		.4byte	0xc1d
 1776 0c7c 03       		.uleb128 0x3
 1777 0c7d 6F0A0000 		.4byte	.LASF189
 1778 0c81 1B       		.byte	0x1b
 1779 0c82 AF       		.byte	0xaf
 1780 0c83 E50B0000 		.4byte	0xbe5
 1781 0c87 03       		.uleb128 0x3
 1782 0c88 520C0000 		.4byte	.LASF190
 1783 0c8c 1C       		.byte	0x1c
 1784 0c8d 16       		.byte	0x16
 1785 0c8e 74000000 		.4byte	0x74
 1786 0c92 08       		.uleb128 0x8
 1787 0c93 83060000 		.4byte	.LASF191
 1788 0c97 18       		.byte	0x18
 1789 0c98 1C       		.byte	0x1c
 1790 0c99 2F       		.byte	0x2f
 1791 0c9a E50C0000 		.4byte	0xce5
 1792 0c9e 0C       		.uleb128 0xc
 1793 0c9f BE0A0000 		.4byte	.LASF192
 1794 0ca3 1C       		.byte	0x1c
 1795 0ca4 31       		.byte	0x31
 1796 0ca5 E50C0000 		.4byte	0xce5
 1797 0ca9 00       		.byte	0
 1798 0caa 0D       		.uleb128 0xd
 1799 0cab 5F6B00   		.ascii	"_k\000"
 1800 0cae 1C       		.byte	0x1c
 1801 0caf 32       		.byte	0x32
 1802 0cb0 94000000 		.4byte	0x94
 1803 0cb4 04       		.byte	0x4
 1804 0cb5 0C       		.uleb128 0xc
 1805 0cb6 9B060000 		.4byte	.LASF193
 1806 0cba 1C       		.byte	0x1c
 1807 0cbb 32       		.byte	0x32
 1808 0cbc 94000000 		.4byte	0x94
 1809 0cc0 08       		.byte	0x8
 1810 0cc1 0C       		.uleb128 0xc
 1811 0cc2 80070000 		.4byte	.LASF194
 1812 0cc6 1C       		.byte	0x1c
 1813 0cc7 32       		.byte	0x32
 1814 0cc8 94000000 		.4byte	0x94
 1815 0ccc 0C       		.byte	0xc
 1816 0ccd 0C       		.uleb128 0xc
 1817 0cce F7040000 		.4byte	.LASF195
 1818 0cd2 1C       		.byte	0x1c
ARM GAS  /tmp/ccnRKFBk.s 			page 33


 1819 0cd3 32       		.byte	0x32
 1820 0cd4 94000000 		.4byte	0x94
 1821 0cd8 10       		.byte	0x10
 1822 0cd9 0D       		.uleb128 0xd
 1823 0cda 5F7800   		.ascii	"_x\000"
 1824 0cdd 1C       		.byte	0x1c
 1825 0cde 33       		.byte	0x33
 1826 0cdf EB0C0000 		.4byte	0xceb
 1827 0ce3 14       		.byte	0x14
 1828 0ce4 00       		.byte	0
 1829 0ce5 10       		.uleb128 0x10
 1830 0ce6 04       		.byte	0x4
 1831 0ce7 920C0000 		.4byte	0xc92
 1832 0ceb 17       		.uleb128 0x17
 1833 0cec 870C0000 		.4byte	0xc87
 1834 0cf0 FB0C0000 		.4byte	0xcfb
 1835 0cf4 18       		.uleb128 0x18
 1836 0cf5 F3040000 		.4byte	0x4f3
 1837 0cf9 00       		.byte	0
 1838 0cfa 00       		.byte	0
 1839 0cfb 08       		.uleb128 0x8
 1840 0cfc CE000000 		.4byte	.LASF196
 1841 0d00 24       		.byte	0x24
 1842 0d01 1C       		.byte	0x1c
 1843 0d02 37       		.byte	0x37
 1844 0d03 740D0000 		.4byte	0xd74
 1845 0d07 0C       		.uleb128 0xc
 1846 0d08 EA000000 		.4byte	.LASF197
 1847 0d0c 1C       		.byte	0x1c
 1848 0d0d 39       		.byte	0x39
 1849 0d0e 94000000 		.4byte	0x94
 1850 0d12 00       		.byte	0
 1851 0d13 0C       		.uleb128 0xc
 1852 0d14 45040000 		.4byte	.LASF198
 1853 0d18 1C       		.byte	0x1c
 1854 0d19 3A       		.byte	0x3a
 1855 0d1a 94000000 		.4byte	0x94
 1856 0d1e 04       		.byte	0x4
 1857 0d1f 0C       		.uleb128 0xc
 1858 0d20 C00C0000 		.4byte	.LASF199
 1859 0d24 1C       		.byte	0x1c
 1860 0d25 3B       		.byte	0x3b
 1861 0d26 94000000 		.4byte	0x94
 1862 0d2a 08       		.byte	0x8
 1863 0d2b 0C       		.uleb128 0xc
 1864 0d2c FF070000 		.4byte	.LASF200
 1865 0d30 1C       		.byte	0x1c
 1866 0d31 3C       		.byte	0x3c
 1867 0d32 94000000 		.4byte	0x94
 1868 0d36 0C       		.byte	0xc
 1869 0d37 0C       		.uleb128 0xc
 1870 0d38 4E030000 		.4byte	.LASF201
 1871 0d3c 1C       		.byte	0x1c
 1872 0d3d 3D       		.byte	0x3d
 1873 0d3e 94000000 		.4byte	0x94
 1874 0d42 10       		.byte	0x10
 1875 0d43 0C       		.uleb128 0xc
ARM GAS  /tmp/ccnRKFBk.s 			page 34


 1876 0d44 A90B0000 		.4byte	.LASF202
 1877 0d48 1C       		.byte	0x1c
 1878 0d49 3E       		.byte	0x3e
 1879 0d4a 94000000 		.4byte	0x94
 1880 0d4e 14       		.byte	0x14
 1881 0d4f 0C       		.uleb128 0xc
 1882 0d50 85080000 		.4byte	.LASF203
 1883 0d54 1C       		.byte	0x1c
 1884 0d55 3F       		.byte	0x3f
 1885 0d56 94000000 		.4byte	0x94
 1886 0d5a 18       		.byte	0x18
 1887 0d5b 0C       		.uleb128 0xc
 1888 0d5c 0D040000 		.4byte	.LASF204
 1889 0d60 1C       		.byte	0x1c
 1890 0d61 40       		.byte	0x40
 1891 0d62 94000000 		.4byte	0x94
 1892 0d66 1C       		.byte	0x1c
 1893 0d67 0C       		.uleb128 0xc
 1894 0d68 600D0000 		.4byte	.LASF205
 1895 0d6c 1C       		.byte	0x1c
 1896 0d6d 41       		.byte	0x41
 1897 0d6e 94000000 		.4byte	0x94
 1898 0d72 20       		.byte	0x20
 1899 0d73 00       		.byte	0
 1900 0d74 23       		.uleb128 0x23
 1901 0d75 94020000 		.4byte	.LASF206
 1902 0d79 0801     		.2byte	0x108
 1903 0d7b 1C       		.byte	0x1c
 1904 0d7c 4A       		.byte	0x4a
 1905 0d7d B40D0000 		.4byte	0xdb4
 1906 0d81 0C       		.uleb128 0xc
 1907 0d82 580D0000 		.4byte	.LASF207
 1908 0d86 1C       		.byte	0x1c
 1909 0d87 4B       		.byte	0x4b
 1910 0d88 B40D0000 		.4byte	0xdb4
 1911 0d8c 00       		.byte	0
 1912 0d8d 0C       		.uleb128 0xc
 1913 0d8e B4090000 		.4byte	.LASF208
 1914 0d92 1C       		.byte	0x1c
 1915 0d93 4C       		.byte	0x4c
 1916 0d94 B40D0000 		.4byte	0xdb4
 1917 0d98 80       		.byte	0x80
 1918 0d99 24       		.uleb128 0x24
 1919 0d9a 7E0B0000 		.4byte	.LASF209
 1920 0d9e 1C       		.byte	0x1c
 1921 0d9f 4E       		.byte	0x4e
 1922 0da0 870C0000 		.4byte	0xc87
 1923 0da4 0001     		.2byte	0x100
 1924 0da6 24       		.uleb128 0x24
 1925 0da7 F60B0000 		.4byte	.LASF210
 1926 0dab 1C       		.byte	0x1c
 1927 0dac 51       		.byte	0x51
 1928 0dad 870C0000 		.4byte	0xc87
 1929 0db1 0401     		.2byte	0x104
 1930 0db3 00       		.byte	0
 1931 0db4 17       		.uleb128 0x17
 1932 0db5 A8030000 		.4byte	0x3a8
ARM GAS  /tmp/ccnRKFBk.s 			page 35


 1933 0db9 C40D0000 		.4byte	0xdc4
 1934 0dbd 18       		.uleb128 0x18
 1935 0dbe F3040000 		.4byte	0x4f3
 1936 0dc2 1F       		.byte	0x1f
 1937 0dc3 00       		.byte	0
 1938 0dc4 23       		.uleb128 0x23
 1939 0dc5 63080000 		.4byte	.LASF211
 1940 0dc9 9001     		.2byte	0x190
 1941 0dcb 1C       		.byte	0x1c
 1942 0dcc 5D       		.byte	0x5d
 1943 0dcd 020E0000 		.4byte	0xe02
 1944 0dd1 0C       		.uleb128 0xc
 1945 0dd2 BE0A0000 		.4byte	.LASF192
 1946 0dd6 1C       		.byte	0x1c
 1947 0dd7 5E       		.byte	0x5e
 1948 0dd8 020E0000 		.4byte	0xe02
 1949 0ddc 00       		.byte	0
 1950 0ddd 0C       		.uleb128 0xc
 1951 0dde D40B0000 		.4byte	.LASF212
 1952 0de2 1C       		.byte	0x1c
 1953 0de3 5F       		.byte	0x5f
 1954 0de4 94000000 		.4byte	0x94
 1955 0de8 04       		.byte	0x4
 1956 0de9 0C       		.uleb128 0xc
 1957 0dea FD000000 		.4byte	.LASF213
 1958 0dee 1C       		.byte	0x1c
 1959 0def 61       		.byte	0x61
 1960 0df0 080E0000 		.4byte	0xe08
 1961 0df4 08       		.byte	0x8
 1962 0df5 0C       		.uleb128 0xc
 1963 0df6 94020000 		.4byte	.LASF206
 1964 0dfa 1C       		.byte	0x1c
 1965 0dfb 62       		.byte	0x62
 1966 0dfc 740D0000 		.4byte	0xd74
 1967 0e00 88       		.byte	0x88
 1968 0e01 00       		.byte	0
 1969 0e02 10       		.uleb128 0x10
 1970 0e03 04       		.byte	0x4
 1971 0e04 C40D0000 		.4byte	0xdc4
 1972 0e08 17       		.uleb128 0x17
 1973 0e09 180E0000 		.4byte	0xe18
 1974 0e0d 180E0000 		.4byte	0xe18
 1975 0e11 18       		.uleb128 0x18
 1976 0e12 F3040000 		.4byte	0x4f3
 1977 0e16 1F       		.byte	0x1f
 1978 0e17 00       		.byte	0
 1979 0e18 10       		.uleb128 0x10
 1980 0e19 04       		.byte	0x4
 1981 0e1a 1E0E0000 		.4byte	0xe1e
 1982 0e1e 25       		.uleb128 0x25
 1983 0e1f 08       		.uleb128 0x8
 1984 0e20 E10B0000 		.4byte	.LASF214
 1985 0e24 08       		.byte	0x8
 1986 0e25 1C       		.byte	0x1c
 1987 0e26 75       		.byte	0x75
 1988 0e27 440E0000 		.4byte	0xe44
 1989 0e2b 0C       		.uleb128 0xc
ARM GAS  /tmp/ccnRKFBk.s 			page 36


 1990 0e2c 3B0A0000 		.4byte	.LASF215
 1991 0e30 1C       		.byte	0x1c
 1992 0e31 76       		.byte	0x76
 1993 0e32 440E0000 		.4byte	0xe44
 1994 0e36 00       		.byte	0
 1995 0e37 0C       		.uleb128 0xc
 1996 0e38 11010000 		.4byte	.LASF216
 1997 0e3c 1C       		.byte	0x1c
 1998 0e3d 77       		.byte	0x77
 1999 0e3e 94000000 		.4byte	0x94
 2000 0e42 04       		.byte	0x4
 2001 0e43 00       		.byte	0
 2002 0e44 10       		.uleb128 0x10
 2003 0e45 04       		.byte	0x4
 2004 0e46 37000000 		.4byte	0x37
 2005 0e4a 08       		.uleb128 0x8
 2006 0e4b 91050000 		.4byte	.LASF217
 2007 0e4f 68       		.byte	0x68
 2008 0e50 1C       		.byte	0x1c
 2009 0e51 B5       		.byte	0xb5
 2010 0e52 740F0000 		.4byte	0xf74
 2011 0e56 0D       		.uleb128 0xd
 2012 0e57 5F7000   		.ascii	"_p\000"
 2013 0e5a 1C       		.byte	0x1c
 2014 0e5b B6       		.byte	0xb6
 2015 0e5c 440E0000 		.4byte	0xe44
 2016 0e60 00       		.byte	0
 2017 0e61 0D       		.uleb128 0xd
 2018 0e62 5F7200   		.ascii	"_r\000"
 2019 0e65 1C       		.byte	0x1c
 2020 0e66 B7       		.byte	0xb7
 2021 0e67 94000000 		.4byte	0x94
 2022 0e6b 04       		.byte	0x4
 2023 0e6c 0D       		.uleb128 0xd
 2024 0e6d 5F7700   		.ascii	"_w\000"
 2025 0e70 1C       		.byte	0x1c
 2026 0e71 B8       		.byte	0xb8
 2027 0e72 94000000 		.4byte	0x94
 2028 0e76 08       		.byte	0x8
 2029 0e77 0C       		.uleb128 0xc
 2030 0e78 55080000 		.4byte	.LASF218
 2031 0e7c 1C       		.byte	0x1c
 2032 0e7d B9       		.byte	0xb9
 2033 0e7e 3E000000 		.4byte	0x3e
 2034 0e82 0C       		.byte	0xc
 2035 0e83 0C       		.uleb128 0xc
 2036 0e84 8E020000 		.4byte	.LASF219
 2037 0e88 1C       		.byte	0x1c
 2038 0e89 BA       		.byte	0xba
 2039 0e8a 3E000000 		.4byte	0x3e
 2040 0e8e 0E       		.byte	0xe
 2041 0e8f 0D       		.uleb128 0xd
 2042 0e90 5F626600 		.ascii	"_bf\000"
 2043 0e94 1C       		.byte	0x1c
 2044 0e95 BB       		.byte	0xbb
 2045 0e96 1F0E0000 		.4byte	0xe1f
 2046 0e9a 10       		.byte	0x10
ARM GAS  /tmp/ccnRKFBk.s 			page 37


 2047 0e9b 0C       		.uleb128 0xc
 2048 0e9c BF0B0000 		.4byte	.LASF220
 2049 0ea0 1C       		.byte	0x1c
 2050 0ea1 BC       		.byte	0xbc
 2051 0ea2 94000000 		.4byte	0x94
 2052 0ea6 18       		.byte	0x18
 2053 0ea7 0C       		.uleb128 0xc
 2054 0ea8 E3040000 		.4byte	.LASF221
 2055 0eac 1C       		.byte	0x1c
 2056 0ead C3       		.byte	0xc3
 2057 0eae A8030000 		.4byte	0x3a8
 2058 0eb2 1C       		.byte	0x1c
 2059 0eb3 0C       		.uleb128 0xc
 2060 0eb4 54000000 		.4byte	.LASF222
 2061 0eb8 1C       		.byte	0x1c
 2062 0eb9 C5       		.byte	0xc5
 2063 0eba 1C120000 		.4byte	0x121c
 2064 0ebe 20       		.byte	0x20
 2065 0ebf 0C       		.uleb128 0xc
 2066 0ec0 82000000 		.4byte	.LASF223
 2067 0ec4 1C       		.byte	0x1c
 2068 0ec5 C7       		.byte	0xc7
 2069 0ec6 40120000 		.4byte	0x1240
 2070 0eca 24       		.byte	0x24
 2071 0ecb 0C       		.uleb128 0xc
 2072 0ecc 05090000 		.4byte	.LASF224
 2073 0ed0 1C       		.byte	0x1c
 2074 0ed1 CA       		.byte	0xca
 2075 0ed2 64120000 		.4byte	0x1264
 2076 0ed6 28       		.byte	0x28
 2077 0ed7 0C       		.uleb128 0xc
 2078 0ed8 59040000 		.4byte	.LASF225
 2079 0edc 1C       		.byte	0x1c
 2080 0edd CB       		.byte	0xcb
 2081 0ede 7E120000 		.4byte	0x127e
 2082 0ee2 2C       		.byte	0x2c
 2083 0ee3 0D       		.uleb128 0xd
 2084 0ee4 5F756200 		.ascii	"_ub\000"
 2085 0ee8 1C       		.byte	0x1c
 2086 0ee9 CE       		.byte	0xce
 2087 0eea 1F0E0000 		.4byte	0xe1f
 2088 0eee 30       		.byte	0x30
 2089 0eef 0D       		.uleb128 0xd
 2090 0ef0 5F757000 		.ascii	"_up\000"
 2091 0ef4 1C       		.byte	0x1c
 2092 0ef5 CF       		.byte	0xcf
 2093 0ef6 440E0000 		.4byte	0xe44
 2094 0efa 38       		.byte	0x38
 2095 0efb 0D       		.uleb128 0xd
 2096 0efc 5F757200 		.ascii	"_ur\000"
 2097 0f00 1C       		.byte	0x1c
 2098 0f01 D0       		.byte	0xd0
 2099 0f02 94000000 		.4byte	0x94
 2100 0f06 3C       		.byte	0x3c
 2101 0f07 0C       		.uleb128 0xc
 2102 0f08 1D080000 		.4byte	.LASF226
 2103 0f0c 1C       		.byte	0x1c
ARM GAS  /tmp/ccnRKFBk.s 			page 38


 2104 0f0d D3       		.byte	0xd3
 2105 0f0e 84120000 		.4byte	0x1284
 2106 0f12 40       		.byte	0x40
 2107 0f13 0C       		.uleb128 0xc
 2108 0f14 E4000000 		.4byte	.LASF227
 2109 0f18 1C       		.byte	0x1c
 2110 0f19 D4       		.byte	0xd4
 2111 0f1a 94120000 		.4byte	0x1294
 2112 0f1e 43       		.byte	0x43
 2113 0f1f 0D       		.uleb128 0xd
 2114 0f20 5F6C6200 		.ascii	"_lb\000"
 2115 0f24 1C       		.byte	0x1c
 2116 0f25 D7       		.byte	0xd7
 2117 0f26 1F0E0000 		.4byte	0xe1f
 2118 0f2a 44       		.byte	0x44
 2119 0f2b 0C       		.uleb128 0xc
 2120 0f2c 020A0000 		.4byte	.LASF228
 2121 0f30 1C       		.byte	0x1c
 2122 0f31 DA       		.byte	0xda
 2123 0f32 94000000 		.4byte	0x94
 2124 0f36 4C       		.byte	0x4c
 2125 0f37 0C       		.uleb128 0xc
 2126 0f38 24050000 		.4byte	.LASF229
 2127 0f3c 1C       		.byte	0x1c
 2128 0f3d DB       		.byte	0xdb
 2129 0f3e FB0B0000 		.4byte	0xbfb
 2130 0f42 50       		.byte	0x50
 2131 0f43 0C       		.uleb128 0xc
 2132 0f44 C40A0000 		.4byte	.LASF230
 2133 0f48 1C       		.byte	0x1c
 2134 0f49 DE       		.byte	0xde
 2135 0f4a 920F0000 		.4byte	0xf92
 2136 0f4e 54       		.byte	0x54
 2137 0f4f 0C       		.uleb128 0xc
 2138 0f50 1D010000 		.4byte	.LASF231
 2139 0f54 1C       		.byte	0x1c
 2140 0f55 E2       		.byte	0xe2
 2141 0f56 7C0C0000 		.4byte	0xc7c
 2142 0f5a 58       		.byte	0x58
 2143 0f5b 0C       		.uleb128 0xc
 2144 0f5c 39080000 		.4byte	.LASF232
 2145 0f60 1C       		.byte	0x1c
 2146 0f61 E4       		.byte	0xe4
 2147 0f62 710C0000 		.4byte	0xc71
 2148 0f66 5C       		.byte	0x5c
 2149 0f67 0C       		.uleb128 0xc
 2150 0f68 A4050000 		.4byte	.LASF233
 2151 0f6c 1C       		.byte	0x1c
 2152 0f6d E5       		.byte	0xe5
 2153 0f6e 94000000 		.4byte	0x94
 2154 0f72 64       		.byte	0x64
 2155 0f73 00       		.byte	0
 2156 0f74 1F       		.uleb128 0x1f
 2157 0f75 94000000 		.4byte	0x94
 2158 0f79 920F0000 		.4byte	0xf92
 2159 0f7d 13       		.uleb128 0x13
 2160 0f7e 920F0000 		.4byte	0xf92
ARM GAS  /tmp/ccnRKFBk.s 			page 39


 2161 0f82 13       		.uleb128 0x13
 2162 0f83 A8030000 		.4byte	0x3a8
 2163 0f87 13       		.uleb128 0x13
 2164 0f88 16120000 		.4byte	0x1216
 2165 0f8c 13       		.uleb128 0x13
 2166 0f8d 94000000 		.4byte	0x94
 2167 0f91 00       		.byte	0
 2168 0f92 10       		.uleb128 0x10
 2169 0f93 04       		.byte	0x4
 2170 0f94 9D0F0000 		.4byte	0xf9d
 2171 0f98 05       		.uleb128 0x5
 2172 0f99 920F0000 		.4byte	0xf92
 2173 0f9d 26       		.uleb128 0x26
 2174 0f9e E1030000 		.4byte	.LASF234
 2175 0fa2 2804     		.2byte	0x428
 2176 0fa4 1C       		.byte	0x1c
 2177 0fa5 3902     		.2byte	0x239
 2178 0fa7 16120000 		.4byte	0x1216
 2179 0fab 27       		.uleb128 0x27
 2180 0fac F0       		.byte	0xf0
 2181 0fad 1C       		.byte	0x1c
 2182 0fae 5802     		.2byte	0x258
 2183 0fb0 F2100000 		.4byte	0x10f2
 2184 0fb4 28       		.uleb128 0x28
 2185 0fb5 D0       		.byte	0xd0
 2186 0fb6 1C       		.byte	0x1c
 2187 0fb7 5A02     		.2byte	0x25a
 2188 0fb9 B5100000 		.4byte	0x10b5
 2189 0fbd 0F       		.uleb128 0xf
 2190 0fbe 7E090000 		.4byte	.LASF235
 2191 0fc2 1C       		.byte	0x1c
 2192 0fc3 5B02     		.2byte	0x25b
 2193 0fc5 9B000000 		.4byte	0x9b
 2194 0fc9 00       		.byte	0
 2195 0fca 0F       		.uleb128 0xf
 2196 0fcb 2E0A0000 		.4byte	.LASF236
 2197 0fcf 1C       		.byte	0x1c
 2198 0fd0 5C02     		.2byte	0x25c
 2199 0fd2 16120000 		.4byte	0x1216
 2200 0fd6 04       		.byte	0x4
 2201 0fd7 0F       		.uleb128 0xf
 2202 0fd8 91000000 		.4byte	.LASF237
 2203 0fdc 1C       		.byte	0x1c
 2204 0fdd 5D02     		.2byte	0x25d
 2205 0fdf 36130000 		.4byte	0x1336
 2206 0fe3 08       		.byte	0x8
 2207 0fe4 0F       		.uleb128 0xf
 2208 0fe5 FD020000 		.4byte	.LASF238
 2209 0fe9 1C       		.byte	0x1c
 2210 0fea 5E02     		.2byte	0x25e
 2211 0fec FB0C0000 		.4byte	0xcfb
 2212 0ff0 24       		.byte	0x24
 2213 0ff1 0F       		.uleb128 0xf
 2214 0ff2 48070000 		.4byte	.LASF239
 2215 0ff6 1C       		.byte	0x1c
 2216 0ff7 5F02     		.2byte	0x25f
 2217 0ff9 94000000 		.4byte	0x94
ARM GAS  /tmp/ccnRKFBk.s 			page 40


 2218 0ffd 48       		.byte	0x48
 2219 0ffe 0F       		.uleb128 0xf
 2220 0fff 4A080000 		.4byte	.LASF240
 2221 1003 1C       		.byte	0x1c
 2222 1004 6002     		.2byte	0x260
 2223 1006 8D000000 		.4byte	0x8d
 2224 100a 50       		.byte	0x50
 2225 100b 0F       		.uleb128 0xf
 2226 100c 9D0A0000 		.4byte	.LASF241
 2227 1010 1C       		.byte	0x1c
 2228 1011 6102     		.2byte	0x261
 2229 1013 F1120000 		.4byte	0x12f1
 2230 1017 58       		.byte	0x58
 2231 1018 0F       		.uleb128 0xf
 2232 1019 470B0000 		.4byte	.LASF242
 2233 101d 1C       		.byte	0x1c
 2234 101e 6202     		.2byte	0x262
 2235 1020 710C0000 		.4byte	0xc71
 2236 1024 68       		.byte	0x68
 2237 1025 0F       		.uleb128 0xf
 2238 1026 5E090000 		.4byte	.LASF243
 2239 102a 1C       		.byte	0x1c
 2240 102b 6302     		.2byte	0x263
 2241 102d 710C0000 		.4byte	0xc71
 2242 1031 70       		.byte	0x70
 2243 1032 0F       		.uleb128 0xf
 2244 1033 2B080000 		.4byte	.LASF244
 2245 1037 1C       		.byte	0x1c
 2246 1038 6402     		.2byte	0x264
 2247 103a 710C0000 		.4byte	0xc71
 2248 103e 78       		.byte	0x78
 2249 103f 0F       		.uleb128 0xf
 2250 1040 F3000000 		.4byte	.LASF245
 2251 1044 1C       		.byte	0x1c
 2252 1045 6502     		.2byte	0x265
 2253 1047 E50A0000 		.4byte	0xae5
 2254 104b 80       		.byte	0x80
 2255 104c 0F       		.uleb128 0xf
 2256 104d 3B060000 		.4byte	.LASF246
 2257 1051 1C       		.byte	0x1c
 2258 1052 6602     		.2byte	0x266
 2259 1054 46130000 		.4byte	0x1346
 2260 1058 88       		.byte	0x88
 2261 1059 0F       		.uleb128 0xf
 2262 105a 960D0000 		.4byte	.LASF247
 2263 105e 1C       		.byte	0x1c
 2264 105f 6702     		.2byte	0x267
 2265 1061 94000000 		.4byte	0x94
 2266 1065 A0       		.byte	0xa0
 2267 1066 0F       		.uleb128 0xf
 2268 1067 BE020000 		.4byte	.LASF248
 2269 106b 1C       		.byte	0x1c
 2270 106c 6802     		.2byte	0x268
 2271 106e 710C0000 		.4byte	0xc71
 2272 1072 A4       		.byte	0xa4
 2273 1073 0F       		.uleb128 0xf
 2274 1074 4C0A0000 		.4byte	.LASF249
ARM GAS  /tmp/ccnRKFBk.s 			page 41


 2275 1078 1C       		.byte	0x1c
 2276 1079 6902     		.2byte	0x269
 2277 107b 710C0000 		.4byte	0xc71
 2278 107f AC       		.byte	0xac
 2279 1080 0F       		.uleb128 0xf
 2280 1081 1F0D0000 		.4byte	.LASF250
 2281 1085 1C       		.byte	0x1c
 2282 1086 6A02     		.2byte	0x26a
 2283 1088 710C0000 		.4byte	0xc71
 2284 108c B4       		.byte	0xb4
 2285 108d 0F       		.uleb128 0xf
 2286 108e F0070000 		.4byte	.LASF251
 2287 1092 1C       		.byte	0x1c
 2288 1093 6B02     		.2byte	0x26b
 2289 1095 710C0000 		.4byte	0xc71
 2290 1099 BC       		.byte	0xbc
 2291 109a 0F       		.uleb128 0xf
 2292 109b D3000000 		.4byte	.LASF252
 2293 109f 1C       		.byte	0x1c
 2294 10a0 6C02     		.2byte	0x26c
 2295 10a2 710C0000 		.4byte	0xc71
 2296 10a6 C4       		.byte	0xc4
 2297 10a7 0F       		.uleb128 0xf
 2298 10a8 C9070000 		.4byte	.LASF253
 2299 10ac 1C       		.byte	0x1c
 2300 10ad 6D02     		.2byte	0x26d
 2301 10af 94000000 		.4byte	0x94
 2302 10b3 CC       		.byte	0xcc
 2303 10b4 00       		.byte	0
 2304 10b5 28       		.uleb128 0x28
 2305 10b6 F0       		.byte	0xf0
 2306 10b7 1C       		.byte	0x1c
 2307 10b8 7302     		.2byte	0x273
 2308 10ba D9100000 		.4byte	0x10d9
 2309 10be 0F       		.uleb128 0xf
 2310 10bf 160C0000 		.4byte	.LASF254
 2311 10c3 1C       		.byte	0x1c
 2312 10c4 7502     		.2byte	0x275
 2313 10c6 56130000 		.4byte	0x1356
 2314 10ca 00       		.byte	0
 2315 10cb 0F       		.uleb128 0xf
 2316 10cc 3F070000 		.4byte	.LASF255
 2317 10d0 1C       		.byte	0x1c
 2318 10d1 7602     		.2byte	0x276
 2319 10d3 66130000 		.4byte	0x1366
 2320 10d7 78       		.byte	0x78
 2321 10d8 00       		.byte	0
 2322 10d9 0B       		.uleb128 0xb
 2323 10da E1030000 		.4byte	.LASF234
 2324 10de 1C       		.byte	0x1c
 2325 10df 6E02     		.2byte	0x26e
 2326 10e1 B40F0000 		.4byte	0xfb4
 2327 10e5 0B       		.uleb128 0xb
 2328 10e6 C6000000 		.4byte	.LASF256
 2329 10ea 1C       		.byte	0x1c
 2330 10eb 7702     		.2byte	0x277
 2331 10ed B5100000 		.4byte	0x10b5
ARM GAS  /tmp/ccnRKFBk.s 			page 42


 2332 10f1 00       		.byte	0
 2333 10f2 0F       		.uleb128 0xf
 2334 10f3 07060000 		.4byte	.LASF257
 2335 10f7 1C       		.byte	0x1c
 2336 10f8 3B02     		.2byte	0x23b
 2337 10fa 94000000 		.4byte	0x94
 2338 10fe 00       		.byte	0
 2339 10ff 0F       		.uleb128 0xf
 2340 1100 84040000 		.4byte	.LASF258
 2341 1104 1C       		.byte	0x1c
 2342 1105 4002     		.2byte	0x240
 2343 1107 EB120000 		.4byte	0x12eb
 2344 110b 04       		.byte	0x4
 2345 110c 0F       		.uleb128 0xf
 2346 110d DF090000 		.4byte	.LASF259
 2347 1111 1C       		.byte	0x1c
 2348 1112 4002     		.2byte	0x240
 2349 1114 EB120000 		.4byte	0x12eb
 2350 1118 08       		.byte	0x8
 2351 1119 0F       		.uleb128 0xf
 2352 111a 23080000 		.4byte	.LASF260
 2353 111e 1C       		.byte	0x1c
 2354 111f 4002     		.2byte	0x240
 2355 1121 EB120000 		.4byte	0x12eb
 2356 1125 0C       		.byte	0xc
 2357 1126 0F       		.uleb128 0xf
 2358 1127 CF0B0000 		.4byte	.LASF261
 2359 112b 1C       		.byte	0x1c
 2360 112c 4202     		.2byte	0x242
 2361 112e 94000000 		.4byte	0x94
 2362 1132 10       		.byte	0x10
 2363 1133 0F       		.uleb128 0xf
 2364 1134 E6060000 		.4byte	.LASF262
 2365 1138 1C       		.byte	0x1c
 2366 1139 4302     		.2byte	0x243
 2367 113b 76130000 		.4byte	0x1376
 2368 113f 14       		.byte	0x14
 2369 1140 0F       		.uleb128 0xf
 2370 1141 C8030000 		.4byte	.LASF263
 2371 1145 1C       		.byte	0x1c
 2372 1146 4602     		.2byte	0x246
 2373 1148 94000000 		.4byte	0x94
 2374 114c 30       		.byte	0x30
 2375 114d 0F       		.uleb128 0xf
 2376 114e 4A0C0000 		.4byte	.LASF264
 2377 1152 1C       		.byte	0x1c
 2378 1153 4702     		.2byte	0x247
 2379 1155 8B130000 		.4byte	0x138b
 2380 1159 34       		.byte	0x34
 2381 115a 0F       		.uleb128 0xf
 2382 115b 99050000 		.4byte	.LASF265
 2383 115f 1C       		.byte	0x1c
 2384 1160 4902     		.2byte	0x249
 2385 1162 94000000 		.4byte	0x94
 2386 1166 38       		.byte	0x38
 2387 1167 0F       		.uleb128 0xf
 2388 1168 B5060000 		.4byte	.LASF266
ARM GAS  /tmp/ccnRKFBk.s 			page 43


 2389 116c 1C       		.byte	0x1c
 2390 116d 4B02     		.2byte	0x24b
 2391 116f 9C130000 		.4byte	0x139c
 2392 1173 3C       		.byte	0x3c
 2393 1174 0F       		.uleb128 0xf
 2394 1175 7E0C0000 		.4byte	.LASF267
 2395 1179 1C       		.byte	0x1c
 2396 117a 4E02     		.2byte	0x24e
 2397 117c E50C0000 		.4byte	0xce5
 2398 1180 40       		.byte	0x40
 2399 1181 0F       		.uleb128 0xf
 2400 1182 E1020000 		.4byte	.LASF268
 2401 1186 1C       		.byte	0x1c
 2402 1187 4F02     		.2byte	0x24f
 2403 1189 94000000 		.4byte	0x94
 2404 118d 44       		.byte	0x44
 2405 118e 0F       		.uleb128 0xf
 2406 118f EB040000 		.4byte	.LASF269
 2407 1193 1C       		.byte	0x1c
 2408 1194 5002     		.2byte	0x250
 2409 1196 E50C0000 		.4byte	0xce5
 2410 119a 48       		.byte	0x48
 2411 119b 0F       		.uleb128 0xf
 2412 119c 57070000 		.4byte	.LASF270
 2413 11a0 1C       		.byte	0x1c
 2414 11a1 5102     		.2byte	0x251
 2415 11a3 A2130000 		.4byte	0x13a2
 2416 11a7 4C       		.byte	0x4c
 2417 11a8 0F       		.uleb128 0xf
 2418 11a9 9E000000 		.4byte	.LASF271
 2419 11ad 1C       		.byte	0x1c
 2420 11ae 5402     		.2byte	0x254
 2421 11b0 94000000 		.4byte	0x94
 2422 11b4 50       		.byte	0x50
 2423 11b5 0F       		.uleb128 0xf
 2424 11b6 2C050000 		.4byte	.LASF272
 2425 11ba 1C       		.byte	0x1c
 2426 11bb 5502     		.2byte	0x255
 2427 11bd 16120000 		.4byte	0x1216
 2428 11c1 54       		.byte	0x54
 2429 11c2 0F       		.uleb128 0xf
 2430 11c3 18080000 		.4byte	.LASF273
 2431 11c7 1C       		.byte	0x1c
 2432 11c8 7802     		.2byte	0x278
 2433 11ca AB0F0000 		.4byte	0xfab
 2434 11ce 58       		.byte	0x58
 2435 11cf 29       		.uleb128 0x29
 2436 11d0 63080000 		.4byte	.LASF211
 2437 11d4 1C       		.byte	0x1c
 2438 11d5 7C02     		.2byte	0x27c
 2439 11d7 020E0000 		.4byte	0xe02
 2440 11db 4801     		.2byte	0x148
 2441 11dd 29       		.uleb128 0x29
 2442 11de BF060000 		.4byte	.LASF274
 2443 11e2 1C       		.byte	0x1c
 2444 11e3 7D02     		.2byte	0x27d
 2445 11e5 C40D0000 		.4byte	0xdc4
ARM GAS  /tmp/ccnRKFBk.s 			page 44


 2446 11e9 4C01     		.2byte	0x14c
 2447 11eb 29       		.uleb128 0x29
 2448 11ec 11050000 		.4byte	.LASF275
 2449 11f0 1C       		.byte	0x1c
 2450 11f1 8102     		.2byte	0x281
 2451 11f3 B3130000 		.4byte	0x13b3
 2452 11f7 DC02     		.2byte	0x2dc
 2453 11f9 29       		.uleb128 0x29
 2454 11fa 37070000 		.4byte	.LASF276
 2455 11fe 1C       		.byte	0x1c
 2456 11ff 8602     		.2byte	0x286
 2457 1201 B0120000 		.4byte	0x12b0
 2458 1205 E002     		.2byte	0x2e0
 2459 1207 29       		.uleb128 0x29
 2460 1208 49000000 		.4byte	.LASF277
 2461 120c 1C       		.byte	0x1c
 2462 120d 8702     		.2byte	0x287
 2463 120f BF130000 		.4byte	0x13bf
 2464 1213 EC02     		.2byte	0x2ec
 2465 1215 00       		.byte	0
 2466 1216 10       		.uleb128 0x10
 2467 1217 04       		.byte	0x4
 2468 1218 7F080000 		.4byte	0x87f
 2469 121c 10       		.uleb128 0x10
 2470 121d 04       		.byte	0x4
 2471 121e 740F0000 		.4byte	0xf74
 2472 1222 1F       		.uleb128 0x1f
 2473 1223 94000000 		.4byte	0x94
 2474 1227 40120000 		.4byte	0x1240
 2475 122b 13       		.uleb128 0x13
 2476 122c 920F0000 		.4byte	0xf92
 2477 1230 13       		.uleb128 0x13
 2478 1231 A8030000 		.4byte	0x3a8
 2479 1235 13       		.uleb128 0x13
 2480 1236 6F080000 		.4byte	0x86f
 2481 123a 13       		.uleb128 0x13
 2482 123b 94000000 		.4byte	0x94
 2483 123f 00       		.byte	0
 2484 1240 10       		.uleb128 0x10
 2485 1241 04       		.byte	0x4
 2486 1242 22120000 		.4byte	0x1222
 2487 1246 1F       		.uleb128 0x1f
 2488 1247 060C0000 		.4byte	0xc06
 2489 124b 64120000 		.4byte	0x1264
 2490 124f 13       		.uleb128 0x13
 2491 1250 920F0000 		.4byte	0xf92
 2492 1254 13       		.uleb128 0x13
 2493 1255 A8030000 		.4byte	0x3a8
 2494 1259 13       		.uleb128 0x13
 2495 125a 060C0000 		.4byte	0xc06
 2496 125e 13       		.uleb128 0x13
 2497 125f 94000000 		.4byte	0x94
 2498 1263 00       		.byte	0
 2499 1264 10       		.uleb128 0x10
 2500 1265 04       		.byte	0x4
 2501 1266 46120000 		.4byte	0x1246
 2502 126a 1F       		.uleb128 0x1f
ARM GAS  /tmp/ccnRKFBk.s 			page 45


 2503 126b 94000000 		.4byte	0x94
 2504 126f 7E120000 		.4byte	0x127e
 2505 1273 13       		.uleb128 0x13
 2506 1274 920F0000 		.4byte	0xf92
 2507 1278 13       		.uleb128 0x13
 2508 1279 A8030000 		.4byte	0x3a8
 2509 127d 00       		.byte	0
 2510 127e 10       		.uleb128 0x10
 2511 127f 04       		.byte	0x4
 2512 1280 6A120000 		.4byte	0x126a
 2513 1284 17       		.uleb128 0x17
 2514 1285 37000000 		.4byte	0x37
 2515 1289 94120000 		.4byte	0x1294
 2516 128d 18       		.uleb128 0x18
 2517 128e F3040000 		.4byte	0x4f3
 2518 1292 02       		.byte	0x2
 2519 1293 00       		.byte	0
 2520 1294 17       		.uleb128 0x17
 2521 1295 37000000 		.4byte	0x37
 2522 1299 A4120000 		.4byte	0x12a4
 2523 129d 18       		.uleb128 0x18
 2524 129e F3040000 		.4byte	0x4f3
 2525 12a2 00       		.byte	0
 2526 12a3 00       		.byte	0
 2527 12a4 20       		.uleb128 0x20
 2528 12a5 800A0000 		.4byte	.LASF278
 2529 12a9 1C       		.byte	0x1c
 2530 12aa 1F01     		.2byte	0x11f
 2531 12ac 4A0E0000 		.4byte	0xe4a
 2532 12b0 11       		.uleb128 0x11
 2533 12b1 6D070000 		.4byte	.LASF279
 2534 12b5 0C       		.byte	0xc
 2535 12b6 1C       		.byte	0x1c
 2536 12b7 2301     		.2byte	0x123
 2537 12b9 E5120000 		.4byte	0x12e5
 2538 12bd 0F       		.uleb128 0xf
 2539 12be BE0A0000 		.4byte	.LASF192
 2540 12c2 1C       		.byte	0x1c
 2541 12c3 2501     		.2byte	0x125
 2542 12c5 E5120000 		.4byte	0x12e5
 2543 12c9 00       		.byte	0
 2544 12ca 0F       		.uleb128 0xf
 2545 12cb 1D070000 		.4byte	.LASF280
 2546 12cf 1C       		.byte	0x1c
 2547 12d0 2601     		.2byte	0x126
 2548 12d2 94000000 		.4byte	0x94
 2549 12d6 04       		.byte	0x4
 2550 12d7 0F       		.uleb128 0xf
 2551 12d8 61070000 		.4byte	.LASF281
 2552 12dc 1C       		.byte	0x1c
 2553 12dd 2701     		.2byte	0x127
 2554 12df EB120000 		.4byte	0x12eb
 2555 12e3 08       		.byte	0x8
 2556 12e4 00       		.byte	0
 2557 12e5 10       		.uleb128 0x10
 2558 12e6 04       		.byte	0x4
 2559 12e7 B0120000 		.4byte	0x12b0
ARM GAS  /tmp/ccnRKFBk.s 			page 46


 2560 12eb 10       		.uleb128 0x10
 2561 12ec 04       		.byte	0x4
 2562 12ed A4120000 		.4byte	0x12a4
 2563 12f1 11       		.uleb128 0x11
 2564 12f2 D7090000 		.4byte	.LASF282
 2565 12f6 0E       		.byte	0xe
 2566 12f7 1C       		.byte	0x1c
 2567 12f8 3F01     		.2byte	0x13f
 2568 12fa 26130000 		.4byte	0x1326
 2569 12fe 0F       		.uleb128 0xf
 2570 12ff F6080000 		.4byte	.LASF283
 2571 1303 1C       		.byte	0x1c
 2572 1304 4001     		.2byte	0x140
 2573 1306 26130000 		.4byte	0x1326
 2574 130a 00       		.byte	0
 2575 130b 0F       		.uleb128 0xf
 2576 130c 29010000 		.4byte	.LASF284
 2577 1310 1C       		.byte	0x1c
 2578 1311 4101     		.2byte	0x141
 2579 1313 26130000 		.4byte	0x1326
 2580 1317 06       		.byte	0x6
 2581 1318 0F       		.uleb128 0xf
 2582 1319 A80C0000 		.4byte	.LASF285
 2583 131d 1C       		.byte	0x1c
 2584 131e 4201     		.2byte	0x142
 2585 1320 50000000 		.4byte	0x50
 2586 1324 0C       		.byte	0xc
 2587 1325 00       		.byte	0
 2588 1326 17       		.uleb128 0x17
 2589 1327 50000000 		.4byte	0x50
 2590 132b 36130000 		.4byte	0x1336
 2591 132f 18       		.uleb128 0x18
 2592 1330 F3040000 		.4byte	0x4f3
 2593 1334 02       		.byte	0x2
 2594 1335 00       		.byte	0
 2595 1336 17       		.uleb128 0x17
 2596 1337 7F080000 		.4byte	0x87f
 2597 133b 46130000 		.4byte	0x1346
 2598 133f 18       		.uleb128 0x18
 2599 1340 F3040000 		.4byte	0x4f3
 2600 1344 19       		.byte	0x19
 2601 1345 00       		.byte	0
 2602 1346 17       		.uleb128 0x17
 2603 1347 7F080000 		.4byte	0x87f
 2604 134b 56130000 		.4byte	0x1356
 2605 134f 18       		.uleb128 0x18
 2606 1350 F3040000 		.4byte	0x4f3
 2607 1354 17       		.byte	0x17
 2608 1355 00       		.byte	0
 2609 1356 17       		.uleb128 0x17
 2610 1357 440E0000 		.4byte	0xe44
 2611 135b 66130000 		.4byte	0x1366
 2612 135f 18       		.uleb128 0x18
 2613 1360 F3040000 		.4byte	0x4f3
 2614 1364 1D       		.byte	0x1d
 2615 1365 00       		.byte	0
 2616 1366 17       		.uleb128 0x17
ARM GAS  /tmp/ccnRKFBk.s 			page 47


 2617 1367 9B000000 		.4byte	0x9b
 2618 136b 76130000 		.4byte	0x1376
 2619 136f 18       		.uleb128 0x18
 2620 1370 F3040000 		.4byte	0x4f3
 2621 1374 1D       		.byte	0x1d
 2622 1375 00       		.byte	0
 2623 1376 17       		.uleb128 0x17
 2624 1377 7F080000 		.4byte	0x87f
 2625 137b 86130000 		.4byte	0x1386
 2626 137f 18       		.uleb128 0x18
 2627 1380 F3040000 		.4byte	0x4f3
 2628 1384 18       		.byte	0x18
 2629 1385 00       		.byte	0
 2630 1386 22       		.uleb128 0x22
 2631 1387 21000000 		.4byte	.LASF287
 2632 138b 10       		.uleb128 0x10
 2633 138c 04       		.byte	0x4
 2634 138d 86130000 		.4byte	0x1386
 2635 1391 12       		.uleb128 0x12
 2636 1392 9C130000 		.4byte	0x139c
 2637 1396 13       		.uleb128 0x13
 2638 1397 920F0000 		.4byte	0xf92
 2639 139b 00       		.byte	0
 2640 139c 10       		.uleb128 0x10
 2641 139d 04       		.byte	0x4
 2642 139e 91130000 		.4byte	0x1391
 2643 13a2 10       		.uleb128 0x10
 2644 13a3 04       		.byte	0x4
 2645 13a4 E50C0000 		.4byte	0xce5
 2646 13a8 12       		.uleb128 0x12
 2647 13a9 B3130000 		.4byte	0x13b3
 2648 13ad 13       		.uleb128 0x13
 2649 13ae 94000000 		.4byte	0x94
 2650 13b2 00       		.byte	0
 2651 13b3 10       		.uleb128 0x10
 2652 13b4 04       		.byte	0x4
 2653 13b5 B9130000 		.4byte	0x13b9
 2654 13b9 10       		.uleb128 0x10
 2655 13ba 04       		.byte	0x4
 2656 13bb A8130000 		.4byte	0x13a8
 2657 13bf 17       		.uleb128 0x17
 2658 13c0 A4120000 		.4byte	0x12a4
 2659 13c4 CF130000 		.4byte	0x13cf
 2660 13c8 18       		.uleb128 0x18
 2661 13c9 F3040000 		.4byte	0x4f3
 2662 13cd 02       		.byte	0x2
 2663 13ce 00       		.byte	0
 2664 13cf 15       		.uleb128 0x15
 2665 13d0 D5020000 		.4byte	.LASF288
 2666 13d4 1C       		.byte	0x1c
 2667 13d5 FE02     		.2byte	0x2fe
 2668 13d7 920F0000 		.4byte	0xf92
 2669 13db 15       		.uleb128 0x15
 2670 13dc FA030000 		.4byte	.LASF289
 2671 13e0 1C       		.byte	0x1c
 2672 13e1 FF02     		.2byte	0x2ff
 2673 13e3 980F0000 		.4byte	0xf98
ARM GAS  /tmp/ccnRKFBk.s 			page 48


 2674 13e7 16       		.uleb128 0x16
 2675 13e8 AE040000 		.4byte	.LASF290
 2676 13ec 1D       		.byte	0x1d
 2677 13ed 9A       		.byte	0x9a
 2678 13ee 62000000 		.4byte	0x62
 2679 13f2 16       		.uleb128 0x16
 2680 13f3 700D0000 		.4byte	.LASF291
 2681 13f7 1D       		.byte	0x1d
 2682 13f8 9B       		.byte	0x9b
 2683 13f9 94000000 		.4byte	0x94
 2684 13fd 17       		.uleb128 0x17
 2685 13fe 16120000 		.4byte	0x1216
 2686 1402 0D140000 		.4byte	0x140d
 2687 1406 18       		.uleb128 0x18
 2688 1407 F3040000 		.4byte	0x4f3
 2689 140b 01       		.byte	0x1
 2690 140c 00       		.byte	0
 2691 140d 16       		.uleb128 0x16
 2692 140e DB040000 		.4byte	.LASF292
 2693 1412 1D       		.byte	0x1d
 2694 1413 9E       		.byte	0x9e
 2695 1414 FD130000 		.4byte	0x13fd
 2696 1418 17       		.uleb128 0x17
 2697 1419 7A080000 		.4byte	0x87a
 2698 141d 23140000 		.4byte	0x1423
 2699 1421 1E       		.uleb128 0x1e
 2700 1422 00       		.byte	0
 2701 1423 16       		.uleb128 0x16
 2702 1424 5D060000 		.4byte	.LASF293
 2703 1428 1E       		.byte	0x1e
 2704 1429 14       		.byte	0x14
 2705 142a 18140000 		.4byte	0x1418
 2706 142e 16       		.uleb128 0x16
 2707 142f A2020000 		.4byte	.LASF294
 2708 1433 1E       		.byte	0x1e
 2709 1434 15       		.byte	0x15
 2710 1435 94000000 		.4byte	0x94
 2711 1439 08       		.uleb128 0x8
 2712 143a AC050000 		.4byte	.LASF295
 2713 143e 1C       		.byte	0x1c
 2714 143f 1F       		.byte	0x1f
 2715 1440 65       		.byte	0x65
 2716 1441 A6140000 		.4byte	0x14a6
 2717 1445 0D       		.uleb128 0xd
 2718 1446 62756600 		.ascii	"buf\000"
 2719 144a 1F       		.byte	0x1f
 2720 144b 66       		.byte	0x66
 2721 144c 16120000 		.4byte	0x1216
 2722 1450 00       		.byte	0
 2723 1451 0C       		.uleb128 0xc
 2724 1452 53040000 		.4byte	.LASF296
 2725 1456 1F       		.byte	0x1f
 2726 1457 67       		.byte	0x67
 2727 1458 37000000 		.4byte	0x37
 2728 145c 04       		.byte	0x4
 2729 145d 0C       		.uleb128 0xc
 2730 145e 8B040000 		.4byte	.LASF47
ARM GAS  /tmp/ccnRKFBk.s 			page 49


 2731 1462 1F       		.byte	0x1f
 2732 1463 68       		.byte	0x68
 2733 1464 A2000000 		.4byte	0xa2
 2734 1468 05       		.byte	0x5
 2735 1469 0C       		.uleb128 0xc
 2736 146a 79090000 		.4byte	.LASF129
 2737 146e 1F       		.byte	0x1f
 2738 146f 78       		.byte	0x78
 2739 1470 94000000 		.4byte	0x94
 2740 1474 08       		.byte	0x8
 2741 1475 0D       		.uleb128 0xd
 2742 1476 6C656E00 		.ascii	"len\000"
 2743 147a 1F       		.byte	0x1f
 2744 147b 79       		.byte	0x79
 2745 147c 94000000 		.4byte	0x94
 2746 1480 0C       		.byte	0xc
 2747 1481 0D       		.uleb128 0xd
 2748 1482 70757400 		.ascii	"put\000"
 2749 1486 1F       		.byte	0x1f
 2750 1487 7A       		.byte	0x7a
 2751 1488 C0140000 		.4byte	0x14c0
 2752 148c 10       		.byte	0x10
 2753 148d 0D       		.uleb128 0xd
 2754 148e 67657400 		.ascii	"get\000"
 2755 1492 1F       		.byte	0x1f
 2756 1493 7B       		.byte	0x7b
 2757 1494 D5140000 		.4byte	0x14d5
 2758 1498 14       		.byte	0x14
 2759 1499 0C       		.uleb128 0xc
 2760 149a 58090000 		.4byte	.LASF297
 2761 149e 1F       		.byte	0x1f
 2762 149f 7D       		.byte	0x7d
 2763 14a0 A8030000 		.4byte	0x3a8
 2764 14a4 18       		.byte	0x18
 2765 14a5 00       		.byte	0
 2766 14a6 1F       		.uleb128 0x1f
 2767 14a7 94000000 		.4byte	0x94
 2768 14ab BA140000 		.4byte	0x14ba
 2769 14af 13       		.uleb128 0x13
 2770 14b0 7F080000 		.4byte	0x87f
 2771 14b4 13       		.uleb128 0x13
 2772 14b5 BA140000 		.4byte	0x14ba
 2773 14b9 00       		.byte	0
 2774 14ba 10       		.uleb128 0x10
 2775 14bb 04       		.byte	0x4
 2776 14bc 39140000 		.4byte	0x1439
 2777 14c0 10       		.uleb128 0x10
 2778 14c1 04       		.byte	0x4
 2779 14c2 A6140000 		.4byte	0x14a6
 2780 14c6 1F       		.uleb128 0x1f
 2781 14c7 94000000 		.4byte	0x94
 2782 14cb D5140000 		.4byte	0x14d5
 2783 14cf 13       		.uleb128 0x13
 2784 14d0 BA140000 		.4byte	0x14ba
 2785 14d4 00       		.byte	0
 2786 14d5 10       		.uleb128 0x10
 2787 14d6 04       		.byte	0x4
ARM GAS  /tmp/ccnRKFBk.s 			page 50


 2788 14d7 C6140000 		.4byte	0x14c6
 2789 14db 03       		.uleb128 0x3
 2790 14dc B9020000 		.4byte	.LASF298
 2791 14e0 1F       		.byte	0x1f
 2792 14e1 CA       		.byte	0xca
 2793 14e2 39140000 		.4byte	0x1439
 2794 14e6 17       		.uleb128 0x17
 2795 14e7 F6140000 		.4byte	0x14f6
 2796 14eb F6140000 		.4byte	0x14f6
 2797 14ef 18       		.uleb128 0x18
 2798 14f0 F3040000 		.4byte	0x4f3
 2799 14f4 0F       		.byte	0xf
 2800 14f5 00       		.byte	0
 2801 14f6 10       		.uleb128 0x10
 2802 14f7 04       		.byte	0x4
 2803 14f8 DB140000 		.4byte	0x14db
 2804 14fc 16       		.uleb128 0x16
 2805 14fd F40A0000 		.4byte	.LASF299
 2806 1501 1F       		.byte	0x1f
 2807 1502 CE       		.byte	0xce
 2808 1503 E6140000 		.4byte	0x14e6
 2809 1507 1F       		.uleb128 0x1f
 2810 1508 94000000 		.4byte	0x94
 2811 150c 1B150000 		.4byte	0x151b
 2812 1510 13       		.uleb128 0x13
 2813 1511 6F080000 		.4byte	0x86f
 2814 1515 13       		.uleb128 0x13
 2815 1516 DA0B0000 		.4byte	0xbda
 2816 151a 00       		.byte	0
 2817 151b 16       		.uleb128 0x16
 2818 151c ED090000 		.4byte	.LASF300
 2819 1520 20       		.byte	0x20
 2820 1521 2E       		.byte	0x2e
 2821 1522 26150000 		.4byte	0x1526
 2822 1526 10       		.uleb128 0x10
 2823 1527 04       		.byte	0x4
 2824 1528 07150000 		.4byte	0x1507
 2825 152c 2A       		.uleb128 0x2a
 2826 152d E3070000 		.4byte	.LASF301
 2827 1531 21       		.byte	0x21
 2828 1532 0B       		.byte	0xb
 2829 1533 A8030000 		.4byte	0x3a8
 2830 1537 05       		.uleb128 0x5
 2831 1538 03       		.byte	0x3
 2832 1539 00000000 		.4byte	__dso_handle
 2833 153d 16       		.uleb128 0x16
 2834 153e B3020000 		.4byte	.LASF302
 2835 1542 02       		.byte	0x2
 2836 1543 13       		.byte	0x13
 2837 1544 94000000 		.4byte	0x94
 2838 1548 2B       		.uleb128 0x2b
 2839 1549 C8060000 		.4byte	.LASF303
 2840 154d 02       		.byte	0x2
 2841 154e 1F       		.byte	0x1f
 2842 154f 00000000 		.4byte	.LFB326
 2843 1553 10000000 		.4byte	.LFE326-.LFB326
 2844 1557 01       		.uleb128 0x1
ARM GAS  /tmp/ccnRKFBk.s 			page 51


 2845 1558 9C       		.byte	0x9c
 2846 1559 2C       		.uleb128 0x2c
 2847 155a 7C020000 		.4byte	.LASF304
 2848 155e 02       		.byte	0x2
 2849 155f 1B       		.byte	0x1b
 2850 1560 00000000 		.4byte	.LFB325
 2851 1564 04000000 		.4byte	.LFE325-.LFB325
 2852 1568 01       		.uleb128 0x1
 2853 1569 9C       		.byte	0x9c
 2854 156a 2D       		.uleb128 0x2d
 2855 156b F0080000 		.4byte	.LASF305
 2856 156f 02       		.byte	0x2
 2857 1570 14       		.byte	0x14
 2858 1571 94000000 		.4byte	0x94
 2859 1575 00000000 		.4byte	.LFB324
 2860 1579 1C000000 		.4byte	.LFE324-.LFB324
 2861 157d 01       		.uleb128 0x1
 2862 157e 9C       		.byte	0x9c
 2863 157f A0150000 		.4byte	0x15a0
 2864 1583 2E       		.uleb128 0x2e
 2865 1584 70696400 		.ascii	"pid\000"
 2866 1588 02       		.byte	0x2
 2867 1589 14       		.byte	0x14
 2868 158a 94000000 		.4byte	0x94
 2869 158e 02       		.uleb128 0x2
 2870 158f 91       		.byte	0x91
 2871 1590 7C       		.sleb128 -4
 2872 1591 2E       		.uleb128 0x2e
 2873 1592 73696700 		.ascii	"sig\000"
 2874 1596 02       		.byte	0x2
 2875 1597 14       		.byte	0x14
 2876 1598 94000000 		.4byte	0x94
 2877 159c 02       		.uleb128 0x2
 2878 159d 91       		.byte	0x91
 2879 159e 78       		.sleb128 -8
 2880 159f 00       		.byte	0
 2881 15a0 2F       		.uleb128 0x2f
 2882 15a1 99070000 		.4byte	.LASF306
 2883 15a5 02       		.byte	0x2
 2884 15a6 0C       		.byte	0xc
 2885 15a7 00000000 		.4byte	.LFB323
 2886 15ab 14000000 		.4byte	.LFE323-.LFB323
 2887 15af 01       		.uleb128 0x1
 2888 15b0 9C       		.byte	0x9c
 2889 15b1 C4150000 		.4byte	0x15c4
 2890 15b5 30       		.uleb128 0x30
 2891 15b6 390C0000 		.4byte	.LASF307
 2892 15ba 02       		.byte	0x2
 2893 15bb 0C       		.byte	0xc
 2894 15bc 94000000 		.4byte	0x94
 2895 15c0 02       		.uleb128 0x2
 2896 15c1 91       		.byte	0x91
 2897 15c2 74       		.sleb128 -12
 2898 15c3 00       		.byte	0
 2899 15c4 31       		.uleb128 0x31
 2900 15c5 A9060000 		.4byte	.LASF313
 2901 15c9 01       		.byte	0x1
ARM GAS  /tmp/ccnRKFBk.s 			page 52


 2902 15ca DE01     		.2byte	0x1de
 2903 15cc 00000000 		.4byte	.LFB291
 2904 15d0 14000000 		.4byte	.LFE291-.LFB291
 2905 15d4 01       		.uleb128 0x1
 2906 15d5 9C       		.byte	0x9c
 2907 15d6 32       		.uleb128 0x32
 2908 15d7 270A0000 		.4byte	.LASF308
 2909 15db 01       		.byte	0x1
 2910 15dc DE01     		.2byte	0x1de
 2911 15de 6F080000 		.4byte	0x86f
 2912 15e2 02       		.uleb128 0x2
 2913 15e3 91       		.byte	0x91
 2914 15e4 74       		.sleb128 -12
 2915 15e5 00       		.byte	0
 2916 15e6 00       		.byte	0
 2917              		.section	.debug_abbrev,"",%progbits
 2918              	.Ldebug_abbrev0:
 2919 0000 01       		.uleb128 0x1
 2920 0001 11       		.uleb128 0x11
 2921 0002 01       		.byte	0x1
 2922 0003 25       		.uleb128 0x25
 2923 0004 0E       		.uleb128 0xe
 2924 0005 13       		.uleb128 0x13
 2925 0006 0B       		.uleb128 0xb
 2926 0007 03       		.uleb128 0x3
 2927 0008 0E       		.uleb128 0xe
 2928 0009 1B       		.uleb128 0x1b
 2929 000a 0E       		.uleb128 0xe
 2930 000b 55       		.uleb128 0x55
 2931 000c 17       		.uleb128 0x17
 2932 000d 11       		.uleb128 0x11
 2933 000e 01       		.uleb128 0x1
 2934 000f 10       		.uleb128 0x10
 2935 0010 17       		.uleb128 0x17
 2936 0011 00       		.byte	0
 2937 0012 00       		.byte	0
 2938 0013 02       		.uleb128 0x2
 2939 0014 24       		.uleb128 0x24
 2940 0015 00       		.byte	0
 2941 0016 0B       		.uleb128 0xb
 2942 0017 0B       		.uleb128 0xb
 2943 0018 3E       		.uleb128 0x3e
 2944 0019 0B       		.uleb128 0xb
 2945 001a 03       		.uleb128 0x3
 2946 001b 0E       		.uleb128 0xe
 2947 001c 00       		.byte	0
 2948 001d 00       		.byte	0
 2949 001e 03       		.uleb128 0x3
 2950 001f 16       		.uleb128 0x16
 2951 0020 00       		.byte	0
 2952 0021 03       		.uleb128 0x3
 2953 0022 0E       		.uleb128 0xe
 2954 0023 3A       		.uleb128 0x3a
 2955 0024 0B       		.uleb128 0xb
 2956 0025 3B       		.uleb128 0x3b
 2957 0026 0B       		.uleb128 0xb
 2958 0027 49       		.uleb128 0x49
ARM GAS  /tmp/ccnRKFBk.s 			page 53


 2959 0028 13       		.uleb128 0x13
 2960 0029 00       		.byte	0
 2961 002a 00       		.byte	0
 2962 002b 04       		.uleb128 0x4
 2963 002c 24       		.uleb128 0x24
 2964 002d 00       		.byte	0
 2965 002e 0B       		.uleb128 0xb
 2966 002f 0B       		.uleb128 0xb
 2967 0030 3E       		.uleb128 0x3e
 2968 0031 0B       		.uleb128 0xb
 2969 0032 03       		.uleb128 0x3
 2970 0033 08       		.uleb128 0x8
 2971 0034 00       		.byte	0
 2972 0035 00       		.byte	0
 2973 0036 05       		.uleb128 0x5
 2974 0037 26       		.uleb128 0x26
 2975 0038 00       		.byte	0
 2976 0039 49       		.uleb128 0x49
 2977 003a 13       		.uleb128 0x13
 2978 003b 00       		.byte	0
 2979 003c 00       		.byte	0
 2980 003d 06       		.uleb128 0x6
 2981 003e 35       		.uleb128 0x35
 2982 003f 00       		.byte	0
 2983 0040 49       		.uleb128 0x49
 2984 0041 13       		.uleb128 0x13
 2985 0042 00       		.byte	0
 2986 0043 00       		.byte	0
 2987 0044 07       		.uleb128 0x7
 2988 0045 3B       		.uleb128 0x3b
 2989 0046 00       		.byte	0
 2990 0047 03       		.uleb128 0x3
 2991 0048 0E       		.uleb128 0xe
 2992 0049 00       		.byte	0
 2993 004a 00       		.byte	0
 2994 004b 08       		.uleb128 0x8
 2995 004c 13       		.uleb128 0x13
 2996 004d 01       		.byte	0x1
 2997 004e 03       		.uleb128 0x3
 2998 004f 0E       		.uleb128 0xe
 2999 0050 0B       		.uleb128 0xb
 3000 0051 0B       		.uleb128 0xb
 3001 0052 3A       		.uleb128 0x3a
 3002 0053 0B       		.uleb128 0xb
 3003 0054 3B       		.uleb128 0x3b
 3004 0055 0B       		.uleb128 0xb
 3005 0056 01       		.uleb128 0x1
 3006 0057 13       		.uleb128 0x13
 3007 0058 00       		.byte	0
 3008 0059 00       		.byte	0
 3009 005a 09       		.uleb128 0x9
 3010 005b 17       		.uleb128 0x17
 3011 005c 01       		.byte	0x1
 3012 005d 0B       		.uleb128 0xb
 3013 005e 0B       		.uleb128 0xb
 3014 005f 3A       		.uleb128 0x3a
 3015 0060 0B       		.uleb128 0xb
ARM GAS  /tmp/ccnRKFBk.s 			page 54


 3016 0061 3B       		.uleb128 0x3b
 3017 0062 0B       		.uleb128 0xb
 3018 0063 01       		.uleb128 0x1
 3019 0064 13       		.uleb128 0x13
 3020 0065 00       		.byte	0
 3021 0066 00       		.byte	0
 3022 0067 0A       		.uleb128 0xa
 3023 0068 0D       		.uleb128 0xd
 3024 0069 00       		.byte	0
 3025 006a 03       		.uleb128 0x3
 3026 006b 0E       		.uleb128 0xe
 3027 006c 3A       		.uleb128 0x3a
 3028 006d 0B       		.uleb128 0xb
 3029 006e 3B       		.uleb128 0x3b
 3030 006f 0B       		.uleb128 0xb
 3031 0070 49       		.uleb128 0x49
 3032 0071 13       		.uleb128 0x13
 3033 0072 00       		.byte	0
 3034 0073 00       		.byte	0
 3035 0074 0B       		.uleb128 0xb
 3036 0075 0D       		.uleb128 0xd
 3037 0076 00       		.byte	0
 3038 0077 03       		.uleb128 0x3
 3039 0078 0E       		.uleb128 0xe
 3040 0079 3A       		.uleb128 0x3a
 3041 007a 0B       		.uleb128 0xb
 3042 007b 3B       		.uleb128 0x3b
 3043 007c 05       		.uleb128 0x5
 3044 007d 49       		.uleb128 0x49
 3045 007e 13       		.uleb128 0x13
 3046 007f 00       		.byte	0
 3047 0080 00       		.byte	0
 3048 0081 0C       		.uleb128 0xc
 3049 0082 0D       		.uleb128 0xd
 3050 0083 00       		.byte	0
 3051 0084 03       		.uleb128 0x3
 3052 0085 0E       		.uleb128 0xe
 3053 0086 3A       		.uleb128 0x3a
 3054 0087 0B       		.uleb128 0xb
 3055 0088 3B       		.uleb128 0x3b
 3056 0089 0B       		.uleb128 0xb
 3057 008a 49       		.uleb128 0x49
 3058 008b 13       		.uleb128 0x13
 3059 008c 38       		.uleb128 0x38
 3060 008d 0B       		.uleb128 0xb
 3061 008e 00       		.byte	0
 3062 008f 00       		.byte	0
 3063 0090 0D       		.uleb128 0xd
 3064 0091 0D       		.uleb128 0xd
 3065 0092 00       		.byte	0
 3066 0093 03       		.uleb128 0x3
 3067 0094 08       		.uleb128 0x8
 3068 0095 3A       		.uleb128 0x3a
 3069 0096 0B       		.uleb128 0xb
 3070 0097 3B       		.uleb128 0x3b
 3071 0098 0B       		.uleb128 0xb
 3072 0099 49       		.uleb128 0x49
ARM GAS  /tmp/ccnRKFBk.s 			page 55


 3073 009a 13       		.uleb128 0x13
 3074 009b 38       		.uleb128 0x38
 3075 009c 0B       		.uleb128 0xb
 3076 009d 00       		.byte	0
 3077 009e 00       		.byte	0
 3078 009f 0E       		.uleb128 0xe
 3079 00a0 0D       		.uleb128 0xd
 3080 00a1 00       		.byte	0
 3081 00a2 03       		.uleb128 0x3
 3082 00a3 08       		.uleb128 0x8
 3083 00a4 3A       		.uleb128 0x3a
 3084 00a5 0B       		.uleb128 0xb
 3085 00a6 3B       		.uleb128 0x3b
 3086 00a7 05       		.uleb128 0x5
 3087 00a8 49       		.uleb128 0x49
 3088 00a9 13       		.uleb128 0x13
 3089 00aa 38       		.uleb128 0x38
 3090 00ab 0B       		.uleb128 0xb
 3091 00ac 00       		.byte	0
 3092 00ad 00       		.byte	0
 3093 00ae 0F       		.uleb128 0xf
 3094 00af 0D       		.uleb128 0xd
 3095 00b0 00       		.byte	0
 3096 00b1 03       		.uleb128 0x3
 3097 00b2 0E       		.uleb128 0xe
 3098 00b3 3A       		.uleb128 0x3a
 3099 00b4 0B       		.uleb128 0xb
 3100 00b5 3B       		.uleb128 0x3b
 3101 00b6 05       		.uleb128 0x5
 3102 00b7 49       		.uleb128 0x49
 3103 00b8 13       		.uleb128 0x13
 3104 00b9 38       		.uleb128 0x38
 3105 00ba 0B       		.uleb128 0xb
 3106 00bb 00       		.byte	0
 3107 00bc 00       		.byte	0
 3108 00bd 10       		.uleb128 0x10
 3109 00be 0F       		.uleb128 0xf
 3110 00bf 00       		.byte	0
 3111 00c0 0B       		.uleb128 0xb
 3112 00c1 0B       		.uleb128 0xb
 3113 00c2 49       		.uleb128 0x49
 3114 00c3 13       		.uleb128 0x13
 3115 00c4 00       		.byte	0
 3116 00c5 00       		.byte	0
 3117 00c6 11       		.uleb128 0x11
 3118 00c7 13       		.uleb128 0x13
 3119 00c8 01       		.byte	0x1
 3120 00c9 03       		.uleb128 0x3
 3121 00ca 0E       		.uleb128 0xe
 3122 00cb 0B       		.uleb128 0xb
 3123 00cc 0B       		.uleb128 0xb
 3124 00cd 3A       		.uleb128 0x3a
 3125 00ce 0B       		.uleb128 0xb
 3126 00cf 3B       		.uleb128 0x3b
 3127 00d0 05       		.uleb128 0x5
 3128 00d1 01       		.uleb128 0x1
 3129 00d2 13       		.uleb128 0x13
ARM GAS  /tmp/ccnRKFBk.s 			page 56


 3130 00d3 00       		.byte	0
 3131 00d4 00       		.byte	0
 3132 00d5 12       		.uleb128 0x12
 3133 00d6 15       		.uleb128 0x15
 3134 00d7 01       		.byte	0x1
 3135 00d8 01       		.uleb128 0x1
 3136 00d9 13       		.uleb128 0x13
 3137 00da 00       		.byte	0
 3138 00db 00       		.byte	0
 3139 00dc 13       		.uleb128 0x13
 3140 00dd 05       		.uleb128 0x5
 3141 00de 00       		.byte	0
 3142 00df 49       		.uleb128 0x49
 3143 00e0 13       		.uleb128 0x13
 3144 00e1 00       		.byte	0
 3145 00e2 00       		.byte	0
 3146 00e3 14       		.uleb128 0x14
 3147 00e4 0F       		.uleb128 0xf
 3148 00e5 00       		.byte	0
 3149 00e6 0B       		.uleb128 0xb
 3150 00e7 0B       		.uleb128 0xb
 3151 00e8 00       		.byte	0
 3152 00e9 00       		.byte	0
 3153 00ea 15       		.uleb128 0x15
 3154 00eb 34       		.uleb128 0x34
 3155 00ec 00       		.byte	0
 3156 00ed 03       		.uleb128 0x3
 3157 00ee 0E       		.uleb128 0xe
 3158 00ef 3A       		.uleb128 0x3a
 3159 00f0 0B       		.uleb128 0xb
 3160 00f1 3B       		.uleb128 0x3b
 3161 00f2 05       		.uleb128 0x5
 3162 00f3 49       		.uleb128 0x49
 3163 00f4 13       		.uleb128 0x13
 3164 00f5 3F       		.uleb128 0x3f
 3165 00f6 19       		.uleb128 0x19
 3166 00f7 3C       		.uleb128 0x3c
 3167 00f8 19       		.uleb128 0x19
 3168 00f9 00       		.byte	0
 3169 00fa 00       		.byte	0
 3170 00fb 16       		.uleb128 0x16
 3171 00fc 34       		.uleb128 0x34
 3172 00fd 00       		.byte	0
 3173 00fe 03       		.uleb128 0x3
 3174 00ff 0E       		.uleb128 0xe
 3175 0100 3A       		.uleb128 0x3a
 3176 0101 0B       		.uleb128 0xb
 3177 0102 3B       		.uleb128 0x3b
 3178 0103 0B       		.uleb128 0xb
 3179 0104 49       		.uleb128 0x49
 3180 0105 13       		.uleb128 0x13
 3181 0106 3F       		.uleb128 0x3f
 3182 0107 19       		.uleb128 0x19
 3183 0108 3C       		.uleb128 0x3c
 3184 0109 19       		.uleb128 0x19
 3185 010a 00       		.byte	0
 3186 010b 00       		.byte	0
ARM GAS  /tmp/ccnRKFBk.s 			page 57


 3187 010c 17       		.uleb128 0x17
 3188 010d 01       		.uleb128 0x1
 3189 010e 01       		.byte	0x1
 3190 010f 49       		.uleb128 0x49
 3191 0110 13       		.uleb128 0x13
 3192 0111 01       		.uleb128 0x1
 3193 0112 13       		.uleb128 0x13
 3194 0113 00       		.byte	0
 3195 0114 00       		.byte	0
 3196 0115 18       		.uleb128 0x18
 3197 0116 21       		.uleb128 0x21
 3198 0117 00       		.byte	0
 3199 0118 49       		.uleb128 0x49
 3200 0119 13       		.uleb128 0x13
 3201 011a 2F       		.uleb128 0x2f
 3202 011b 0B       		.uleb128 0xb
 3203 011c 00       		.byte	0
 3204 011d 00       		.byte	0
 3205 011e 19       		.uleb128 0x19
 3206 011f 04       		.uleb128 0x4
 3207 0120 01       		.byte	0x1
 3208 0121 0B       		.uleb128 0xb
 3209 0122 0B       		.uleb128 0xb
 3210 0123 49       		.uleb128 0x49
 3211 0124 13       		.uleb128 0x13
 3212 0125 3A       		.uleb128 0x3a
 3213 0126 0B       		.uleb128 0xb
 3214 0127 3B       		.uleb128 0x3b
 3215 0128 0B       		.uleb128 0xb
 3216 0129 6E       		.uleb128 0x6e
 3217 012a 0E       		.uleb128 0xe
 3218 012b 01       		.uleb128 0x1
 3219 012c 13       		.uleb128 0x13
 3220 012d 00       		.byte	0
 3221 012e 00       		.byte	0
 3222 012f 1A       		.uleb128 0x1a
 3223 0130 28       		.uleb128 0x28
 3224 0131 00       		.byte	0
 3225 0132 03       		.uleb128 0x3
 3226 0133 0E       		.uleb128 0xe
 3227 0134 1C       		.uleb128 0x1c
 3228 0135 0B       		.uleb128 0xb
 3229 0136 00       		.byte	0
 3230 0137 00       		.byte	0
 3231 0138 1B       		.uleb128 0x1b
 3232 0139 28       		.uleb128 0x28
 3233 013a 00       		.byte	0
 3234 013b 03       		.uleb128 0x3
 3235 013c 08       		.uleb128 0x8
 3236 013d 1C       		.uleb128 0x1c
 3237 013e 0B       		.uleb128 0xb
 3238 013f 00       		.byte	0
 3239 0140 00       		.byte	0
 3240 0141 1C       		.uleb128 0x1c
 3241 0142 13       		.uleb128 0x13
 3242 0143 01       		.byte	0x1
 3243 0144 0B       		.uleb128 0xb
ARM GAS  /tmp/ccnRKFBk.s 			page 58


 3244 0145 0B       		.uleb128 0xb
 3245 0146 3A       		.uleb128 0x3a
 3246 0147 0B       		.uleb128 0xb
 3247 0148 3B       		.uleb128 0x3b
 3248 0149 0B       		.uleb128 0xb
 3249 014a 6E       		.uleb128 0x6e
 3250 014b 0E       		.uleb128 0xe
 3251 014c 01       		.uleb128 0x1
 3252 014d 13       		.uleb128 0x13
 3253 014e 00       		.byte	0
 3254 014f 00       		.byte	0
 3255 0150 1D       		.uleb128 0x1d
 3256 0151 34       		.uleb128 0x34
 3257 0152 00       		.byte	0
 3258 0153 03       		.uleb128 0x3
 3259 0154 08       		.uleb128 0x8
 3260 0155 3A       		.uleb128 0x3a
 3261 0156 0B       		.uleb128 0xb
 3262 0157 3B       		.uleb128 0x3b
 3263 0158 05       		.uleb128 0x5
 3264 0159 49       		.uleb128 0x49
 3265 015a 13       		.uleb128 0x13
 3266 015b 3F       		.uleb128 0x3f
 3267 015c 19       		.uleb128 0x19
 3268 015d 3C       		.uleb128 0x3c
 3269 015e 19       		.uleb128 0x19
 3270 015f 00       		.byte	0
 3271 0160 00       		.byte	0
 3272 0161 1E       		.uleb128 0x1e
 3273 0162 21       		.uleb128 0x21
 3274 0163 00       		.byte	0
 3275 0164 00       		.byte	0
 3276 0165 00       		.byte	0
 3277 0166 1F       		.uleb128 0x1f
 3278 0167 15       		.uleb128 0x15
 3279 0168 01       		.byte	0x1
 3280 0169 49       		.uleb128 0x49
 3281 016a 13       		.uleb128 0x13
 3282 016b 01       		.uleb128 0x1
 3283 016c 13       		.uleb128 0x13
 3284 016d 00       		.byte	0
 3285 016e 00       		.byte	0
 3286 016f 20       		.uleb128 0x20
 3287 0170 16       		.uleb128 0x16
 3288 0171 00       		.byte	0
 3289 0172 03       		.uleb128 0x3
 3290 0173 0E       		.uleb128 0xe
 3291 0174 3A       		.uleb128 0x3a
 3292 0175 0B       		.uleb128 0xb
 3293 0176 3B       		.uleb128 0x3b
 3294 0177 05       		.uleb128 0x5
 3295 0178 49       		.uleb128 0x49
 3296 0179 13       		.uleb128 0x13
 3297 017a 00       		.byte	0
 3298 017b 00       		.byte	0
 3299 017c 21       		.uleb128 0x21
 3300 017d 0D       		.uleb128 0xd
ARM GAS  /tmp/ccnRKFBk.s 			page 59


 3301 017e 00       		.byte	0
 3302 017f 03       		.uleb128 0x3
 3303 0180 0E       		.uleb128 0xe
 3304 0181 49       		.uleb128 0x49
 3305 0182 13       		.uleb128 0x13
 3306 0183 38       		.uleb128 0x38
 3307 0184 0B       		.uleb128 0xb
 3308 0185 34       		.uleb128 0x34
 3309 0186 19       		.uleb128 0x19
 3310 0187 00       		.byte	0
 3311 0188 00       		.byte	0
 3312 0189 22       		.uleb128 0x22
 3313 018a 13       		.uleb128 0x13
 3314 018b 00       		.byte	0
 3315 018c 03       		.uleb128 0x3
 3316 018d 0E       		.uleb128 0xe
 3317 018e 3C       		.uleb128 0x3c
 3318 018f 19       		.uleb128 0x19
 3319 0190 00       		.byte	0
 3320 0191 00       		.byte	0
 3321 0192 23       		.uleb128 0x23
 3322 0193 13       		.uleb128 0x13
 3323 0194 01       		.byte	0x1
 3324 0195 03       		.uleb128 0x3
 3325 0196 0E       		.uleb128 0xe
 3326 0197 0B       		.uleb128 0xb
 3327 0198 05       		.uleb128 0x5
 3328 0199 3A       		.uleb128 0x3a
 3329 019a 0B       		.uleb128 0xb
 3330 019b 3B       		.uleb128 0x3b
 3331 019c 0B       		.uleb128 0xb
 3332 019d 01       		.uleb128 0x1
 3333 019e 13       		.uleb128 0x13
 3334 019f 00       		.byte	0
 3335 01a0 00       		.byte	0
 3336 01a1 24       		.uleb128 0x24
 3337 01a2 0D       		.uleb128 0xd
 3338 01a3 00       		.byte	0
 3339 01a4 03       		.uleb128 0x3
 3340 01a5 0E       		.uleb128 0xe
 3341 01a6 3A       		.uleb128 0x3a
 3342 01a7 0B       		.uleb128 0xb
 3343 01a8 3B       		.uleb128 0x3b
 3344 01a9 0B       		.uleb128 0xb
 3345 01aa 49       		.uleb128 0x49
 3346 01ab 13       		.uleb128 0x13
 3347 01ac 38       		.uleb128 0x38
 3348 01ad 05       		.uleb128 0x5
 3349 01ae 00       		.byte	0
 3350 01af 00       		.byte	0
 3351 01b0 25       		.uleb128 0x25
 3352 01b1 15       		.uleb128 0x15
 3353 01b2 00       		.byte	0
 3354 01b3 00       		.byte	0
 3355 01b4 00       		.byte	0
 3356 01b5 26       		.uleb128 0x26
 3357 01b6 13       		.uleb128 0x13
ARM GAS  /tmp/ccnRKFBk.s 			page 60


 3358 01b7 01       		.byte	0x1
 3359 01b8 03       		.uleb128 0x3
 3360 01b9 0E       		.uleb128 0xe
 3361 01ba 0B       		.uleb128 0xb
 3362 01bb 05       		.uleb128 0x5
 3363 01bc 3A       		.uleb128 0x3a
 3364 01bd 0B       		.uleb128 0xb
 3365 01be 3B       		.uleb128 0x3b
 3366 01bf 05       		.uleb128 0x5
 3367 01c0 01       		.uleb128 0x1
 3368 01c1 13       		.uleb128 0x13
 3369 01c2 00       		.byte	0
 3370 01c3 00       		.byte	0
 3371 01c4 27       		.uleb128 0x27
 3372 01c5 17       		.uleb128 0x17
 3373 01c6 01       		.byte	0x1
 3374 01c7 0B       		.uleb128 0xb
 3375 01c8 0B       		.uleb128 0xb
 3376 01c9 3A       		.uleb128 0x3a
 3377 01ca 0B       		.uleb128 0xb
 3378 01cb 3B       		.uleb128 0x3b
 3379 01cc 05       		.uleb128 0x5
 3380 01cd 01       		.uleb128 0x1
 3381 01ce 13       		.uleb128 0x13
 3382 01cf 00       		.byte	0
 3383 01d0 00       		.byte	0
 3384 01d1 28       		.uleb128 0x28
 3385 01d2 13       		.uleb128 0x13
 3386 01d3 01       		.byte	0x1
 3387 01d4 0B       		.uleb128 0xb
 3388 01d5 0B       		.uleb128 0xb
 3389 01d6 3A       		.uleb128 0x3a
 3390 01d7 0B       		.uleb128 0xb
 3391 01d8 3B       		.uleb128 0x3b
 3392 01d9 05       		.uleb128 0x5
 3393 01da 01       		.uleb128 0x1
 3394 01db 13       		.uleb128 0x13
 3395 01dc 00       		.byte	0
 3396 01dd 00       		.byte	0
 3397 01de 29       		.uleb128 0x29
 3398 01df 0D       		.uleb128 0xd
 3399 01e0 00       		.byte	0
 3400 01e1 03       		.uleb128 0x3
 3401 01e2 0E       		.uleb128 0xe
 3402 01e3 3A       		.uleb128 0x3a
 3403 01e4 0B       		.uleb128 0xb
 3404 01e5 3B       		.uleb128 0x3b
 3405 01e6 05       		.uleb128 0x5
 3406 01e7 49       		.uleb128 0x49
 3407 01e8 13       		.uleb128 0x13
 3408 01e9 38       		.uleb128 0x38
 3409 01ea 05       		.uleb128 0x5
 3410 01eb 00       		.byte	0
 3411 01ec 00       		.byte	0
 3412 01ed 2A       		.uleb128 0x2a
 3413 01ee 34       		.uleb128 0x34
 3414 01ef 00       		.byte	0
ARM GAS  /tmp/ccnRKFBk.s 			page 61


 3415 01f0 03       		.uleb128 0x3
 3416 01f1 0E       		.uleb128 0xe
 3417 01f2 3A       		.uleb128 0x3a
 3418 01f3 0B       		.uleb128 0xb
 3419 01f4 3B       		.uleb128 0x3b
 3420 01f5 0B       		.uleb128 0xb
 3421 01f6 49       		.uleb128 0x49
 3422 01f7 13       		.uleb128 0x13
 3423 01f8 3F       		.uleb128 0x3f
 3424 01f9 19       		.uleb128 0x19
 3425 01fa 02       		.uleb128 0x2
 3426 01fb 18       		.uleb128 0x18
 3427 01fc 00       		.byte	0
 3428 01fd 00       		.byte	0
 3429 01fe 2B       		.uleb128 0x2b
 3430 01ff 2E       		.uleb128 0x2e
 3431 0200 00       		.byte	0
 3432 0201 3F       		.uleb128 0x3f
 3433 0202 19       		.uleb128 0x19
 3434 0203 03       		.uleb128 0x3
 3435 0204 0E       		.uleb128 0xe
 3436 0205 3A       		.uleb128 0x3a
 3437 0206 0B       		.uleb128 0xb
 3438 0207 3B       		.uleb128 0x3b
 3439 0208 0B       		.uleb128 0xb
 3440 0209 11       		.uleb128 0x11
 3441 020a 01       		.uleb128 0x1
 3442 020b 12       		.uleb128 0x12
 3443 020c 06       		.uleb128 0x6
 3444 020d 40       		.uleb128 0x40
 3445 020e 18       		.uleb128 0x18
 3446 020f 9642     		.uleb128 0x2116
 3447 0211 19       		.uleb128 0x19
 3448 0212 00       		.byte	0
 3449 0213 00       		.byte	0
 3450 0214 2C       		.uleb128 0x2c
 3451 0215 2E       		.uleb128 0x2e
 3452 0216 00       		.byte	0
 3453 0217 3F       		.uleb128 0x3f
 3454 0218 19       		.uleb128 0x19
 3455 0219 03       		.uleb128 0x3
 3456 021a 0E       		.uleb128 0xe
 3457 021b 3A       		.uleb128 0x3a
 3458 021c 0B       		.uleb128 0xb
 3459 021d 3B       		.uleb128 0x3b
 3460 021e 0B       		.uleb128 0xb
 3461 021f 11       		.uleb128 0x11
 3462 0220 01       		.uleb128 0x1
 3463 0221 12       		.uleb128 0x12
 3464 0222 06       		.uleb128 0x6
 3465 0223 40       		.uleb128 0x40
 3466 0224 18       		.uleb128 0x18
 3467 0225 9742     		.uleb128 0x2117
 3468 0227 19       		.uleb128 0x19
 3469 0228 00       		.byte	0
 3470 0229 00       		.byte	0
 3471 022a 2D       		.uleb128 0x2d
ARM GAS  /tmp/ccnRKFBk.s 			page 62


 3472 022b 2E       		.uleb128 0x2e
 3473 022c 01       		.byte	0x1
 3474 022d 3F       		.uleb128 0x3f
 3475 022e 19       		.uleb128 0x19
 3476 022f 03       		.uleb128 0x3
 3477 0230 0E       		.uleb128 0xe
 3478 0231 3A       		.uleb128 0x3a
 3479 0232 0B       		.uleb128 0xb
 3480 0233 3B       		.uleb128 0x3b
 3481 0234 0B       		.uleb128 0xb
 3482 0235 49       		.uleb128 0x49
 3483 0236 13       		.uleb128 0x13
 3484 0237 11       		.uleb128 0x11
 3485 0238 01       		.uleb128 0x1
 3486 0239 12       		.uleb128 0x12
 3487 023a 06       		.uleb128 0x6
 3488 023b 40       		.uleb128 0x40
 3489 023c 18       		.uleb128 0x18
 3490 023d 9742     		.uleb128 0x2117
 3491 023f 19       		.uleb128 0x19
 3492 0240 01       		.uleb128 0x1
 3493 0241 13       		.uleb128 0x13
 3494 0242 00       		.byte	0
 3495 0243 00       		.byte	0
 3496 0244 2E       		.uleb128 0x2e
 3497 0245 05       		.uleb128 0x5
 3498 0246 00       		.byte	0
 3499 0247 03       		.uleb128 0x3
 3500 0248 08       		.uleb128 0x8
 3501 0249 3A       		.uleb128 0x3a
 3502 024a 0B       		.uleb128 0xb
 3503 024b 3B       		.uleb128 0x3b
 3504 024c 0B       		.uleb128 0xb
 3505 024d 49       		.uleb128 0x49
 3506 024e 13       		.uleb128 0x13
 3507 024f 02       		.uleb128 0x2
 3508 0250 18       		.uleb128 0x18
 3509 0251 00       		.byte	0
 3510 0252 00       		.byte	0
 3511 0253 2F       		.uleb128 0x2f
 3512 0254 2E       		.uleb128 0x2e
 3513 0255 01       		.byte	0x1
 3514 0256 3F       		.uleb128 0x3f
 3515 0257 19       		.uleb128 0x19
 3516 0258 03       		.uleb128 0x3
 3517 0259 0E       		.uleb128 0xe
 3518 025a 3A       		.uleb128 0x3a
 3519 025b 0B       		.uleb128 0xb
 3520 025c 3B       		.uleb128 0x3b
 3521 025d 0B       		.uleb128 0xb
 3522 025e 8701     		.uleb128 0x87
 3523 0260 19       		.uleb128 0x19
 3524 0261 11       		.uleb128 0x11
 3525 0262 01       		.uleb128 0x1
 3526 0263 12       		.uleb128 0x12
 3527 0264 06       		.uleb128 0x6
 3528 0265 40       		.uleb128 0x40
ARM GAS  /tmp/ccnRKFBk.s 			page 63


 3529 0266 18       		.uleb128 0x18
 3530 0267 9642     		.uleb128 0x2116
 3531 0269 19       		.uleb128 0x19
 3532 026a 01       		.uleb128 0x1
 3533 026b 13       		.uleb128 0x13
 3534 026c 00       		.byte	0
 3535 026d 00       		.byte	0
 3536 026e 30       		.uleb128 0x30
 3537 026f 05       		.uleb128 0x5
 3538 0270 00       		.byte	0
 3539 0271 03       		.uleb128 0x3
 3540 0272 0E       		.uleb128 0xe
 3541 0273 3A       		.uleb128 0x3a
 3542 0274 0B       		.uleb128 0xb
 3543 0275 3B       		.uleb128 0x3b
 3544 0276 0B       		.uleb128 0xb
 3545 0277 49       		.uleb128 0x49
 3546 0278 13       		.uleb128 0x13
 3547 0279 02       		.uleb128 0x2
 3548 027a 18       		.uleb128 0x18
 3549 027b 00       		.byte	0
 3550 027c 00       		.byte	0
 3551 027d 31       		.uleb128 0x31
 3552 027e 2E       		.uleb128 0x2e
 3553 027f 01       		.byte	0x1
 3554 0280 03       		.uleb128 0x3
 3555 0281 0E       		.uleb128 0xe
 3556 0282 3A       		.uleb128 0x3a
 3557 0283 0B       		.uleb128 0xb
 3558 0284 3B       		.uleb128 0x3b
 3559 0285 05       		.uleb128 0x5
 3560 0286 11       		.uleb128 0x11
 3561 0287 01       		.uleb128 0x1
 3562 0288 12       		.uleb128 0x12
 3563 0289 06       		.uleb128 0x6
 3564 028a 40       		.uleb128 0x40
 3565 028b 18       		.uleb128 0x18
 3566 028c 9642     		.uleb128 0x2116
 3567 028e 19       		.uleb128 0x19
 3568 028f 00       		.byte	0
 3569 0290 00       		.byte	0
 3570 0291 32       		.uleb128 0x32
 3571 0292 05       		.uleb128 0x5
 3572 0293 00       		.byte	0
 3573 0294 03       		.uleb128 0x3
 3574 0295 0E       		.uleb128 0xe
 3575 0296 3A       		.uleb128 0x3a
 3576 0297 0B       		.uleb128 0xb
 3577 0298 3B       		.uleb128 0x3b
 3578 0299 05       		.uleb128 0x5
 3579 029a 49       		.uleb128 0x49
 3580 029b 13       		.uleb128 0x13
 3581 029c 02       		.uleb128 0x2
 3582 029d 18       		.uleb128 0x18
 3583 029e 00       		.byte	0
 3584 029f 00       		.byte	0
 3585 02a0 00       		.byte	0
ARM GAS  /tmp/ccnRKFBk.s 			page 64


 3586              		.section	.debug_aranges,"",%progbits
 3587 0000 3C000000 		.4byte	0x3c
 3588 0004 0200     		.2byte	0x2
 3589 0006 00000000 		.4byte	.Ldebug_info0
 3590 000a 04       		.byte	0x4
 3591 000b 00       		.byte	0
 3592 000c 0000     		.2byte	0
 3593 000e 0000     		.2byte	0
 3594 0010 00000000 		.4byte	.LFB291
 3595 0014 14000000 		.4byte	.LFE291-.LFB291
 3596 0018 00000000 		.4byte	.LFB323
 3597 001c 14000000 		.4byte	.LFE323-.LFB323
 3598 0020 00000000 		.4byte	.LFB324
 3599 0024 1C000000 		.4byte	.LFE324-.LFB324
 3600 0028 00000000 		.4byte	.LFB325
 3601 002c 04000000 		.4byte	.LFE325-.LFB325
 3602 0030 00000000 		.4byte	.LFB326
 3603 0034 10000000 		.4byte	.LFE326-.LFB326
 3604 0038 00000000 		.4byte	0
 3605 003c 00000000 		.4byte	0
 3606              		.section	.debug_ranges,"",%progbits
 3607              	.Ldebug_ranges0:
 3608 0000 00000000 		.4byte	.LFB291
 3609 0004 14000000 		.4byte	.LFE291
 3610 0008 00000000 		.4byte	.LFB323
 3611 000c 14000000 		.4byte	.LFE323
 3612 0010 00000000 		.4byte	.LFB324
 3613 0014 1C000000 		.4byte	.LFE324
 3614 0018 00000000 		.4byte	.LFB325
 3615 001c 04000000 		.4byte	.LFE325
 3616 0020 00000000 		.4byte	.LFB326
 3617 0024 10000000 		.4byte	.LFE326
 3618 0028 00000000 		.4byte	0
 3619 002c 00000000 		.4byte	0
 3620              		.section	.debug_line,"",%progbits
 3621              	.Ldebug_line0:
 3622 0000 EB040000 		.section	.debug_str,"MS",%progbits,1
 3622      02008204 
 3622      00000201 
 3622      FB0E0D00 
 3622      01010101 
 3623              	.LASF135:
 3624 0000 6F66665F 		.ascii	"off_ctx\000"
 3624      63747800 
 3625              	.LASF19:
 3626 0008 73697A65 		.ascii	"size_t\000"
 3626      5F7400
 3627              	.LASF134:
 3628 000f 6F66665F 		.ascii	"off_prio\000"
 3628      7072696F 
 3628      00
 3629              	.LASF86:
 3630 0018 73697A65 		.ascii	"sizetype\000"
 3630      74797065 
 3630      00
 3631              	.LASF287:
 3632 0021 5F5F6C6F 		.ascii	"__locale_t\000"
ARM GAS  /tmp/ccnRKFBk.s 			page 65


 3632      63616C65 
 3632      5F7400
 3633              	.LASF37:
 3634 002c 77747365 		.ascii	"wtsemp\000"
 3634      6D7000
 3635              	.LASF84:
 3636 0033 73797374 		.ascii	"systime_t\000"
 3636      696D655F 
 3636      7400
 3637              	.LASF143:
 3638 003d 6F66665F 		.ascii	"off_preempt\000"
 3638      70726565 
 3638      6D707400 
 3639              	.LASF277:
 3640 0049 5F5F7366 		.ascii	"__sf\000"
 3640      00
 3641              	.LASF123:
 3642 004e 6F776E65 		.ascii	"owner\000"
 3642      7200
 3643              	.LASF222:
 3644 0054 5F726561 		.ascii	"_read\000"
 3644      6400
 3645              	.LASF26:
 3646 005a 74707269 		.ascii	"tprio_t\000"
 3646      6F5F7400 
 3647              	.LASF146:
 3648 0062 63685F64 		.ascii	"ch_debug\000"
 3648      65627567 
 3648      00
 3649              	.LASF98:
 3650 006b 31314572 		.ascii	"11ErrorStatus\000"
 3650      726F7253 
 3650      74617475 
 3650      7300
 3651              	.LASF159:
 3652 0079 70726F76 		.ascii	"provider\000"
 3652      69646572 
 3652      00
 3653              	.LASF223:
 3654 0082 5F777269 		.ascii	"_write\000"
 3654      746500
 3655              	.LASF16:
 3656 0089 696E7433 		.ascii	"int32_t\000"
 3656      325F7400 
 3657              	.LASF237:
 3658 0091 5F617363 		.ascii	"_asctime_buf\000"
 3658      74696D65 
 3658      5F627566 
 3658      00
 3659              	.LASF271:
 3660 009e 5F637674 		.ascii	"_cvtlen\000"
 3660      6C656E00 
 3661              	.LASF67:
 3662 00a6 76746675 		.ascii	"vtfunc_t\000"
 3662      6E635F74 
 3662      00
 3663              	.LASF73:
ARM GAS  /tmp/ccnRKFBk.s 			page 66


 3664 00af 63685F76 		.ascii	"ch_virtual_timers_list\000"
 3664      69727475 
 3664      616C5F74 
 3664      696D6572 
 3664      735F6C69 
 3665              	.LASF256:
 3666 00c6 5F756E75 		.ascii	"_unused\000"
 3666      73656400 
 3667              	.LASF196:
 3668 00ce 5F5F746D 		.ascii	"__tm\000"
 3668      00
 3669              	.LASF252:
 3670 00d3 5F776373 		.ascii	"_wcsrtombs_state\000"
 3670      72746F6D 
 3670      62735F73 
 3670      74617465 
 3670      00
 3671              	.LASF227:
 3672 00e4 5F6E6275 		.ascii	"_nbuf\000"
 3672      6600
 3673              	.LASF197:
 3674 00ea 5F5F746D 		.ascii	"__tm_sec\000"
 3674      5F736563 
 3674      00
 3675              	.LASF245:
 3676 00f3 5F6C3634 		.ascii	"_l64a_buf\000"
 3676      615F6275 
 3676      6600
 3677              	.LASF213:
 3678 00fd 5F666E73 		.ascii	"_fns\000"
 3678      00
 3679              	.LASF161:
 3680 0102 63685F64 		.ascii	"ch_dyn_element\000"
 3680      796E5F65 
 3680      6C656D65 
 3680      6E7400
 3681              	.LASF216:
 3682 0111 5F73697A 		.ascii	"_size\000"
 3682      6500
 3683              	.LASF46:
 3684 0117 73746174 		.ascii	"state\000"
 3684      6500
 3685              	.LASF231:
 3686 011d 5F6C6F63 		.ascii	"_lock\000"
 3686      6B00
 3687              	.LASF55:
 3688 0123 73746174 		.ascii	"stats\000"
 3688      7300
 3689              	.LASF284:
 3690 0129 5F6D756C 		.ascii	"_mult\000"
 3690      7400
 3691              	.LASF166:
 3692 012f 6F626A5F 		.ascii	"obj_list\000"
 3692      6C697374 
 3692      00
 3693              	.LASF137:
 3694 0138 6F66665F 		.ascii	"off_older\000"
ARM GAS  /tmp/ccnRKFBk.s 			page 67


 3694      6F6C6465 
 3694      7200
 3695              	.LASF309:
 3696 0142 474E5520 		.ascii	"GNU C++11 6.3.1 20170620 (release) [ARM/embedded-6-"
 3696      432B2B31 
 3696      3120362E 
 3696      332E3120 
 3696      32303137 
 3697 0175 6272616E 		.ascii	"branch revision 249437] -mcpu=cortex-m4 -mfloat-abi"
 3697      63682072 
 3697      65766973 
 3697      696F6E20 
 3697      32343934 
 3698 01a8 3D686172 		.ascii	"=hard -mfpu=fpv4-sp-d16 -mno-thumb-interwork -mthum"
 3698      64202D6D 
 3698      6670753D 
 3698      66707634 
 3698      2D73702D 
 3699 01db 62202D67 		.ascii	"b -g -std=gnu++11 -fomit-frame-pointer -falign-func"
 3699      202D7374 
 3699      643D676E 
 3699      752B2B31 
 3699      31202D66 
 3700 020e 74696F6E 		.ascii	"tions=16 -ffunction-sections -fdata-sections -fno-c"
 3700      733D3136 
 3700      202D6666 
 3700      756E6374 
 3700      696F6E2D 
 3701 0241 6F6D6D6F 		.ascii	"ommon -fsingle-precision-constant -fno-rtti\000"
 3701      6E202D66 
 3701      73696E67 
 3701      6C652D70 
 3701      72656369 
 3702              	.LASF184:
 3703 026d 5F5F7763 		.ascii	"__wch\000"
 3703      6800
 3704              	.LASF33:
 3705 0273 65786974 		.ascii	"exitcode\000"
 3705      636F6465 
 3705      00
 3706              	.LASF304:
 3707 027c 5F6F7065 		.ascii	"_open_r\000"
 3707      6E5F7200 
 3708              	.LASF3:
 3709 0284 5F5F7569 		.ascii	"__uint8_t\000"
 3709      6E74385F 
 3709      7400
 3710              	.LASF219:
 3711 028e 5F66696C 		.ascii	"_file\000"
 3711      6500
 3712              	.LASF206:
 3713 0294 5F6F6E5F 		.ascii	"_on_exit_args\000"
 3713      65786974 
 3713      5F617267 
 3713      7300
 3714              	.LASF294:
 3715 02a2 5F737973 		.ascii	"_sys_nerr\000"
ARM GAS  /tmp/ccnRKFBk.s 			page 68


 3715      5F6E6572 
 3715      7200
 3716              	.LASF152:
 3717 02ac 656E646D 		.ascii	"endmem\000"
 3717      656D00
 3718              	.LASF302:
 3719 02b3 6572726E 		.ascii	"errno\000"
 3719      6F00
 3720              	.LASF298:
 3721 02b9 46494C45 		.ascii	"FILE\000"
 3721      00
 3722              	.LASF248:
 3723 02be 5F6D6272 		.ascii	"_mbrlen_state\000"
 3723      6C656E5F 
 3723      73746174 
 3723      6500
 3724              	.LASF7:
 3725 02cc 6C6F6E67 		.ascii	"long int\000"
 3725      20696E74 
 3725      00
 3726              	.LASF288:
 3727 02d5 5F696D70 		.ascii	"_impure_ptr\000"
 3727      7572655F 
 3727      70747200 
 3728              	.LASF268:
 3729 02e1 5F726573 		.ascii	"_result_k\000"
 3729      756C745F 
 3729      6B00
 3730              	.LASF183:
 3731 02eb 31305F6D 		.ascii	"10_mbstate_t\000"
 3731      62737461 
 3731      74655F74 
 3731      00
 3732              	.LASF128:
 3733 02f8 7A65726F 		.ascii	"zero\000"
 3733      00
 3734              	.LASF238:
 3735 02fd 5F6C6F63 		.ascii	"_localtime_buf\000"
 3735      616C7469 
 3735      6D655F62 
 3735      756600
 3736              	.LASF24:
 3737 030c 74737461 		.ascii	"tstate_t\000"
 3737      74655F74 
 3737      00
 3738              	.LASF22:
 3739 0315 72747469 		.ascii	"rttime_t\000"
 3739      6D655F74 
 3739      00
 3740              	.LASF140:
 3741 031e 6F66665F 		.ascii	"off_state\000"
 3741      73746174 
 3741      6500
 3742              	.LASF61:
 3743 0328 74687265 		.ascii	"threads_queue_t\000"
 3743      6164735F 
 3743      71756575 
ARM GAS  /tmp/ccnRKFBk.s 			page 69


 3743      655F7400 
 3744              	.LASF102:
 3745 0338 72656761 		.ascii	"regarm_t\000"
 3745      726D5F74 
 3745      00
 3746              	.LASF93:
 3747 0341 3130466C 		.ascii	"10FlagStatus\000"
 3747      61675374 
 3747      61747573 
 3747      00
 3748              	.LASF201:
 3749 034e 5F5F746D 		.ascii	"__tm_mon\000"
 3749      5F6D6F6E 
 3749      00
 3750              	.LASF167:
 3751 0357 6F626A5F 		.ascii	"obj_pool\000"
 3751      706F6F6C 
 3751      00
 3752              	.LASF113:
 3753 0360 63756D75 		.ascii	"cumulative\000"
 3753      6C617469 
 3753      766500
 3754              	.LASF153:
 3755 036b 6D656D63 		.ascii	"memcore_t\000"
 3755      6F72655F 
 3755      7400
 3756              	.LASF0:
 3757 0375 7369676E 		.ascii	"signed char\000"
 3757      65642063 
 3757      68617200 
 3758              	.LASF39:
 3759 0381 65776D61 		.ascii	"ewmask\000"
 3759      736B00
 3760              	.LASF14:
 3761 0388 75696E74 		.ascii	"uint8_t\000"
 3761      385F7400 
 3762              	.LASF28:
 3763 0390 6576656E 		.ascii	"eventmask_t\000"
 3763      746D6173 
 3763      6B5F7400 
 3764              	.LASF35:
 3765 039c 77747472 		.ascii	"wttrp\000"
 3765      7000
 3766              	.LASF1:
 3767 03a2 756E7369 		.ascii	"unsigned char\000"
 3767      676E6564 
 3767      20636861 
 3767      7200
 3768              	.LASF41:
 3769 03b0 7072696F 		.ascii	"prio\000"
 3769      00
 3770              	.LASF74:
 3771 03b5 6C617374 		.ascii	"lasttime\000"
 3771      74696D65 
 3771      00
 3772              	.LASF77:
 3773 03be 70616E69 		.ascii	"panic_msg\000"
ARM GAS  /tmp/ccnRKFBk.s 			page 70


 3773      635F6D73 
 3773      6700
 3774              	.LASF263:
 3775 03c8 5F756E73 		.ascii	"_unspecified_locale_info\000"
 3775      70656369 
 3775      66696564 
 3775      5F6C6F63 
 3775      616C655F 
 3776              	.LASF234:
 3777 03e1 5F726565 		.ascii	"_reent\000"
 3777      6E7400
 3778              	.LASF94:
 3779 03e8 31354675 		.ascii	"15FunctionalState\000"
 3779      6E637469 
 3779      6F6E616C 
 3779      53746174 
 3779      6500
 3780              	.LASF289:
 3781 03fa 5F676C6F 		.ascii	"_global_impure_ptr\000"
 3781      62616C5F 
 3781      696D7075 
 3781      72655F70 
 3781      747200
 3782              	.LASF204:
 3783 040d 5F5F746D 		.ascii	"__tm_yday\000"
 3783      5F796461 
 3783      7900
 3784              	.LASF75:
 3785 0417 73797374 		.ascii	"system_debug_t\000"
 3785      656D5F64 
 3785      65627567 
 3785      5F7400
 3786              	.LASF175:
 3787 0426 5F5F676E 		.ascii	"__gnuc_va_list\000"
 3787      75635F76 
 3787      615F6C69 
 3787      737400
 3788              	.LASF156:
 3789 0435 31336D65 		.ascii	"13memory_pool_t\000"
 3789      6D6F7279 
 3789      5F706F6F 
 3789      6C5F7400 
 3790              	.LASF198:
 3791 0445 5F5F746D 		.ascii	"__tm_min\000"
 3791      5F6D696E 
 3791      00
 3792              	.LASF124:
 3793 044e 63686172 		.ascii	"char\000"
 3793      00
 3794              	.LASF296:
 3795 0453 756E6765 		.ascii	"unget\000"
 3795      7400
 3796              	.LASF225:
 3797 0459 5F636C6F 		.ascii	"_close\000"
 3797      736500
 3798              	.LASF169:
 3799 0460 73656D5F 		.ascii	"sem_list\000"
ARM GAS  /tmp/ccnRKFBk.s 			page 71


 3799      6C697374 
 3799      00
 3800              	.LASF4:
 3801 0469 5F5F7569 		.ascii	"__uint16_t\000"
 3801      6E743136 
 3801      5F7400
 3802              	.LASF34:
 3803 0474 77746F62 		.ascii	"wtobjp\000"
 3803      6A7000
 3804              	.LASF117:
 3805 047b 6E5F6374 		.ascii	"n_ctxswc\000"
 3805      78737763 
 3805      00
 3806              	.LASF258:
 3807 0484 5F737464 		.ascii	"_stdin\000"
 3807      696E00
 3808              	.LASF47:
 3809 048b 666C6167 		.ascii	"flags\000"
 3809      7300
 3810              	.LASF312:
 3811 0491 6465636C 		.ascii	"decltype(nullptr)\000"
 3811      74797065 
 3811      286E756C 
 3811      6C707472 
 3811      2900
 3812              	.LASF103:
 3813 04a3 73746B61 		.ascii	"stkalign_t\000"
 3813      6C69676E 
 3813      5F7400
 3814              	.LASF290:
 3815 04ae 5F74696D 		.ascii	"_timezone\000"
 3815      657A6F6E 
 3815      6500
 3816              	.LASF54:
 3817 04b8 6D706F6F 		.ascii	"mpool\000"
 3817      6C00
 3818              	.LASF111:
 3819 04be 776F7273 		.ascii	"worst\000"
 3819      7400
 3820              	.LASF131:
 3821 04c4 70747273 		.ascii	"ptrsize\000"
 3821      697A6500 
 3822              	.LASF144:
 3823 04cc 6F66665F 		.ascii	"off_time\000"
 3823      74696D65 
 3823      00
 3824              	.LASF29:
 3825 04d5 636E745F 		.ascii	"cnt_t\000"
 3825      7400
 3826              	.LASF292:
 3827 04db 5F747A6E 		.ascii	"_tzname\000"
 3827      616D6500 
 3828              	.LASF221:
 3829 04e3 5F636F6F 		.ascii	"_cookie\000"
 3829      6B696500 
 3830              	.LASF269:
 3831 04eb 5F703573 		.ascii	"_p5s\000"
ARM GAS  /tmp/ccnRKFBk.s 			page 72


 3831      00
 3832              	.LASF38:
 3833 04f0 77746D74 		.ascii	"wtmtxp\000"
 3833      787000
 3834              	.LASF195:
 3835 04f7 5F776473 		.ascii	"_wds\000"
 3835      00
 3836              	.LASF65:
 3837 04fc 63685F72 		.ascii	"ch_ready_list\000"
 3837      65616479 
 3837      5F6C6973 
 3837      7400
 3838              	.LASF286:
 3839 050a 5F5F6C6F 		.ascii	"__lock\000"
 3839      636B00
 3840              	.LASF275:
 3841 0511 5F736967 		.ascii	"_sig_func\000"
 3841      5F66756E 
 3841      6300
 3842              	.LASF170:
 3843 051b 73656D5F 		.ascii	"sem_pool\000"
 3843      706F6F6C 
 3843      00
 3844              	.LASF229:
 3845 0524 5F6F6666 		.ascii	"_offset\000"
 3845      73657400 
 3846              	.LASF272:
 3847 052c 5F637674 		.ascii	"_cvtbuf\000"
 3847      62756600 
 3848              	.LASF151:
 3849 0534 6E657874 		.ascii	"nextmem\000"
 3849      6D656D00 
 3850              	.LASF118:
 3851 053c 6D5F6372 		.ascii	"m_crit_thd\000"
 3851      69745F74 
 3851      686400
 3852              	.LASF11:
 3853 0547 5F5F7569 		.ascii	"__uint64_t\000"
 3853      6E743634 
 3853      5F7400
 3854              	.LASF97:
 3855 0552 46756E63 		.ascii	"FunctionalState\000"
 3855      74696F6E 
 3855      616C5374 
 3855      61746500 
 3856              	.LASF187:
 3857 0562 5F5F7661 		.ascii	"__value\000"
 3857      6C756500 
 3858              	.LASF9:
 3859 056a 6C6F6E67 		.ascii	"long unsigned int\000"
 3859      20756E73 
 3859      69676E65 
 3859      6420696E 
 3859      7400
 3860              	.LASF133:
 3861 057c 74687265 		.ascii	"threadsize\000"
 3861      61647369 
ARM GAS  /tmp/ccnRKFBk.s 			page 73


 3861      7A6500
 3862              	.LASF176:
 3863 0587 5F5F7661 		.ascii	"__va_list\000"
 3863      5F6C6973 
 3863      7400
 3864              	.LASF217:
 3865 0591 5F5F7346 		.ascii	"__sFILE\000"
 3865      494C4500 
 3866              	.LASF265:
 3867 0599 5F5F7364 		.ascii	"__sdidinit\000"
 3867      6964696E 
 3867      697400
 3868              	.LASF233:
 3869 05a4 5F666C61 		.ascii	"_flags2\000"
 3869      67733200 
 3870              	.LASF295:
 3871 05ac 5F5F6669 		.ascii	"__file\000"
 3871      6C6500
 3872              	.LASF88:
 3873 05b3 53797374 		.ascii	"SystemCoreClock\000"
 3873      656D436F 
 3873      7265436C 
 3873      6F636B00 
 3874              	.LASF121:
 3875 05c3 63685F73 		.ascii	"ch_semaphore\000"
 3875      656D6170 
 3875      686F7265 
 3875      00
 3876              	.LASF58:
 3877 05d0 63685F74 		.ascii	"ch_thread\000"
 3877      68726561 
 3877      6400
 3878              	.LASF177:
 3879 05da 5F5F6170 		.ascii	"__ap\000"
 3879      00
 3880              	.LASF72:
 3881 05df 76697274 		.ascii	"virtual_timers_list_t\000"
 3881      75616C5F 
 3881      74696D65 
 3881      72735F6C 
 3881      6973745F 
 3882              	.LASF125:
 3883 05f5 63685F69 		.ascii	"ch_idle_thread_wa\000"
 3883      646C655F 
 3883      74687265 
 3883      61645F77 
 3883      6100
 3884              	.LASF257:
 3885 0607 5F657272 		.ascii	"_errno\000"
 3885      6E6F00
 3886              	.LASF172:
 3887 060e 6669666F 		.ascii	"fifo_list\000"
 3887      5F6C6973 
 3887      7400
 3888              	.LASF68:
 3889 0618 76697274 		.ascii	"virtual_timer_t\000"
 3889      75616C5F 
ARM GAS  /tmp/ccnRKFBk.s 			page 74


 3889      74696D65 
 3889      725F7400 
 3890              	.LASF64:
 3891 0628 72656164 		.ascii	"ready_list_t\000"
 3891      795F6C69 
 3891      73745F74 
 3891      00
 3892              	.LASF43:
 3893 0635 6F6C6465 		.ascii	"older\000"
 3893      7200
 3894              	.LASF246:
 3895 063b 5F736967 		.ascii	"_signal_buf\000"
 3895      6E616C5F 
 3895      62756600 
 3896              	.LASF53:
 3897 0647 7265616C 		.ascii	"realprio\000"
 3897      7072696F 
 3897      00
 3898              	.LASF30:
 3899 0650 75636E74 		.ascii	"ucnt_t\000"
 3899      5F7400
 3900              	.LASF99:
 3901 0657 4552524F 		.ascii	"ERROR\000"
 3901      5200
 3902              	.LASF293:
 3903 065d 5F737973 		.ascii	"_sys_errlist\000"
 3903      5F657272 
 3903      6C697374 
 3903      00
 3904              	.LASF139:
 3905 066a 6F66665F 		.ascii	"off_stklimit\000"
 3905      73746B6C 
 3905      696D6974 
 3905      00
 3906              	.LASF155:
 3907 0677 706F6F6C 		.ascii	"pool_header\000"
 3907      5F686561 
 3907      64657200 
 3908              	.LASF191:
 3909 0683 5F426967 		.ascii	"_Bigint\000"
 3909      696E7400 
 3910              	.LASF59:
 3911 068b 63685F74 		.ascii	"ch_threads_list\000"
 3911      68726561 
 3911      64735F6C 
 3911      69737400 
 3912              	.LASF193:
 3913 069b 5F6D6178 		.ascii	"_maxwds\000"
 3913      77647300 
 3914              	.LASF116:
 3915 06a3 6E5F6972 		.ascii	"n_irq\000"
 3915      7100
 3916              	.LASF313:
 3917 06a9 6F73616C 		.ascii	"osalSysHalt\000"
 3917      53797348 
 3917      616C7400 
 3918              	.LASF266:
ARM GAS  /tmp/ccnRKFBk.s 			page 75


 3919 06b5 5F5F636C 		.ascii	"__cleanup\000"
 3919      65616E75 
 3919      7000
 3920              	.LASF274:
 3921 06bf 5F617465 		.ascii	"_atexit0\000"
 3921      78697430 
 3921      00
 3922              	.LASF303:
 3923 06c8 5F5F6378 		.ascii	"__cxa_pure_virtual\000"
 3923      615F7075 
 3923      72655F76 
 3923      69727475 
 3923      616C00
 3924              	.LASF8:
 3925 06db 5F5F7569 		.ascii	"__uint32_t\000"
 3925      6E743332 
 3925      5F7400
 3926              	.LASF262:
 3927 06e6 5F656D65 		.ascii	"_emergency\000"
 3927      7267656E 
 3927      637900
 3928              	.LASF52:
 3929 06f1 6D74786C 		.ascii	"mtxlist\000"
 3929      69737400 
 3930              	.LASF10:
 3931 06f9 6C6F6E67 		.ascii	"long long int\000"
 3931      206C6F6E 
 3931      6720696E 
 3931      7400
 3932              	.LASF178:
 3933 0707 76615F6C 		.ascii	"va_list\000"
 3933      69737400 
 3934              	.LASF85:
 3935 070f 73797369 		.ascii	"sysinterval_t\000"
 3935      6E746572 
 3935      76616C5F 
 3935      7400
 3936              	.LASF280:
 3937 071d 5F6E696F 		.ascii	"_niobs\000"
 3937      627300
 3938              	.LASF165:
 3939 0724 63685F6F 		.ascii	"ch_objects_factory\000"
 3939      626A6563 
 3939      74735F66 
 3939      6163746F 
 3939      727900
 3940              	.LASF276:
 3941 0737 5F5F7367 		.ascii	"__sglue\000"
 3941      6C756500 
 3942              	.LASF255:
 3943 073f 5F6E6D61 		.ascii	"_nmalloc\000"
 3943      6C6C6F63 
 3943      00
 3944              	.LASF239:
 3945 0748 5F67616D 		.ascii	"_gamma_signgam\000"
 3945      6D615F73 
 3945      69676E67 
ARM GAS  /tmp/ccnRKFBk.s 			page 76


 3945      616D00
 3946              	.LASF270:
 3947 0757 5F667265 		.ascii	"_freelist\000"
 3947      656C6973 
 3947      7400
 3948              	.LASF281:
 3949 0761 5F696F62 		.ascii	"_iobs\000"
 3949      7300
 3950              	.LASF158:
 3951 0767 616C6967 		.ascii	"align\000"
 3951      6E00
 3952              	.LASF279:
 3953 076d 5F676C75 		.ascii	"_glue\000"
 3953      6500
 3954              	.LASF87:
 3955 0773 49544D5F 		.ascii	"ITM_RxBuffer\000"
 3955      52784275 
 3955      66666572 
 3955      00
 3956              	.LASF194:
 3957 0780 5F736967 		.ascii	"_sign\000"
 3957      6E00
 3958              	.LASF114:
 3959 0786 74696D65 		.ascii	"time_measurement_t\000"
 3959      5F6D6561 
 3959      73757265 
 3959      6D656E74 
 3959      5F7400
 3960              	.LASF306:
 3961 0799 5F657869 		.ascii	"_exit\000"
 3961      7400
 3962              	.LASF136:
 3963 079f 6F66665F 		.ascii	"off_newer\000"
 3963      6E657765 
 3963      7200
 3964              	.LASF119:
 3965 07a9 6D5F6372 		.ascii	"m_crit_isr\000"
 3965      69745F69 
 3965      737200
 3966              	.LASF13:
 3967 07b4 756E7369 		.ascii	"unsigned int\000"
 3967      676E6564 
 3967      20696E74 
 3967      00
 3968              	.LASF21:
 3969 07c1 7274636E 		.ascii	"rtcnt_t\000"
 3969      745F7400 
 3970              	.LASF253:
 3971 07c9 5F685F65 		.ascii	"_h_errno\000"
 3971      72726E6F 
 3971      00
 3972              	.LASF115:
 3973 07d2 31346B65 		.ascii	"14kernel_stats_t\000"
 3973      726E656C 
 3973      5F737461 
 3973      74735F74 
 3973      00
ARM GAS  /tmp/ccnRKFBk.s 			page 77


 3974              	.LASF301:
 3975 07e3 5F5F6473 		.ascii	"__dso_handle\000"
 3975      6F5F6861 
 3975      6E646C65 
 3975      00
 3976              	.LASF251:
 3977 07f0 5F776372 		.ascii	"_wcrtomb_state\000"
 3977      746F6D62 
 3977      5F737461 
 3977      746500
 3978              	.LASF200:
 3979 07ff 5F5F746D 		.ascii	"__tm_mday\000"
 3979      5F6D6461 
 3979      7900
 3980              	.LASF120:
 3981 0809 6B65726E 		.ascii	"kernel_stats_t\000"
 3981      656C5F73 
 3981      74617473 
 3981      5F7400
 3982              	.LASF273:
 3983 0818 5F6E6577 		.ascii	"_new\000"
 3983      00
 3984              	.LASF226:
 3985 081d 5F756275 		.ascii	"_ubuf\000"
 3985      6600
 3986              	.LASF260:
 3987 0823 5F737464 		.ascii	"_stderr\000"
 3987      65727200 
 3988              	.LASF244:
 3989 082b 5F776374 		.ascii	"_wctomb_state\000"
 3989      6F6D625F 
 3989      73746174 
 3989      6500
 3990              	.LASF232:
 3991 0839 5F6D6273 		.ascii	"_mbstate\000"
 3991      74617465 
 3991      00
 3992              	.LASF66:
 3993 0842 63757272 		.ascii	"current\000"
 3993      656E7400 
 3994              	.LASF240:
 3995 084a 5F72616E 		.ascii	"_rand_next\000"
 3995      645F6E65 
 3995      787400
 3996              	.LASF218:
 3997 0855 5F666C61 		.ascii	"_flags\000"
 3997      677300
 3998              	.LASF106:
 3999 085c 6F666673 		.ascii	"offset\000"
 3999      657400
 4000              	.LASF211:
 4001 0863 5F617465 		.ascii	"_atexit\000"
 4001      78697400 
 4002              	.LASF186:
 4003 086b 5F5F636F 		.ascii	"__count\000"
 4003      756E7400 
 4004              	.LASF148:
ARM GAS  /tmp/ccnRKFBk.s 			page 78


 4005 0873 626F6F6C 		.ascii	"bool\000"
 4005      00
 4006              	.LASF149:
 4007 0878 6D656D67 		.ascii	"memgetfunc_t\000"
 4007      65746675 
 4007      6E635F74 
 4007      00
 4008              	.LASF203:
 4009 0885 5F5F746D 		.ascii	"__tm_wday\000"
 4009      5F776461 
 4009      7900
 4010              	.LASF95:
 4011 088f 44495341 		.ascii	"DISABLE\000"
 4011      424C4500 
 4012              	.LASF31:
 4013 0897 74687265 		.ascii	"thread_t\000"
 4013      61645F74 
 4013      00
 4014              	.LASF20:
 4015 08a0 6C6F6E67 		.ascii	"long double\000"
 4015      20646F75 
 4015      626C6500 
 4016              	.LASF56:
 4017 08ac 74687265 		.ascii	"thread_reference_t\000"
 4017      61645F72 
 4017      65666572 
 4017      656E6365 
 4017      5F7400
 4018              	.LASF126:
 4019 08bf 39636864 		.ascii	"9chdebug_t\000"
 4019      65627567 
 4019      5F7400
 4020              	.LASF36:
 4021 08ca 73656E74 		.ascii	"sentmsg\000"
 4021      6D736700 
 4022              	.LASF105:
 4023 08d2 706F7274 		.ascii	"port_intctx\000"
 4023      5F696E74 
 4023      63747800 
 4024              	.LASF173:
 4025 08de 6F626A65 		.ascii	"objects_factory_t\000"
 4025      6374735F 
 4025      66616374 
 4025      6F72795F 
 4025      7400
 4026              	.LASF305:
 4027 08f0 5F6B696C 		.ascii	"_kill\000"
 4027      6C00
 4028              	.LASF283:
 4029 08f6 5F736565 		.ascii	"_seed\000"
 4029      6400
 4030              	.LASF168:
 4031 08fc 6275665F 		.ascii	"buf_list\000"
 4031      6C697374 
 4031      00
 4032              	.LASF224:
 4033 0905 5F736565 		.ascii	"_seek\000"
ARM GAS  /tmp/ccnRKFBk.s 			page 79


 4033      6B00
 4034              	.LASF101:
 4035 090b 4572726F 		.ascii	"ErrorStatus\000"
 4035      72537461 
 4035      74757300 
 4036              	.LASF181:
 4037 0917 5F66706F 		.ascii	"_fpos_t\000"
 4037      735F7400 
 4038              	.LASF185:
 4039 091f 5F5F7763 		.ascii	"__wchb\000"
 4039      686200
 4040              	.LASF89:
 4041 0926 41484250 		.ascii	"AHBPrescTable\000"
 4041      72657363 
 4041      5461626C 
 4041      6500
 4042              	.LASF69:
 4043 0934 63685F76 		.ascii	"ch_virtual_timer\000"
 4043      69727475 
 4043      616C5F74 
 4043      696D6572 
 4043      00
 4044              	.LASF108:
 4045 0945 3136746D 		.ascii	"16tm_calibration_t\000"
 4045      5F63616C 
 4045      69627261 
 4045      74696F6E 
 4045      5F7400
 4046              	.LASF297:
 4047 0958 75646174 		.ascii	"udata\000"
 4047      6100
 4048              	.LASF243:
 4049 095e 5F6D6274 		.ascii	"_mbtowc_state\000"
 4049      6F77635F 
 4049      73746174 
 4049      6500
 4050              	.LASF83:
 4051 096c 6B65726E 		.ascii	"kernel_stats\000"
 4051      656C5F73 
 4051      74617473 
 4051      00
 4052              	.LASF129:
 4053 0979 73697A65 		.ascii	"size\000"
 4053      00
 4054              	.LASF235:
 4055 097e 5F756E75 		.ascii	"_unused_rand\000"
 4055      7365645F 
 4055      72616E64 
 4055      00
 4056              	.LASF12:
 4057 098b 6C6F6E67 		.ascii	"long long unsigned int\000"
 4057      206C6F6E 
 4057      6720756E 
 4057      7369676E 
 4057      65642069 
 4058              	.LASF15:
 4059 09a2 75696E74 		.ascii	"uint16_t\000"
ARM GAS  /tmp/ccnRKFBk.s 			page 80


 4059      31365F74 
 4059      00
 4060              	.LASF138:
 4061 09ab 6F66665F 		.ascii	"off_name\000"
 4061      6E616D65 
 4061      00
 4062              	.LASF208:
 4063 09b4 5F64736F 		.ascii	"_dso_handle\000"
 4063      5F68616E 
 4063      646C6500 
 4064              	.LASF27:
 4065 09c0 6D73675F 		.ascii	"msg_t\000"
 4065      7400
 4066              	.LASF62:
 4067 09c6 63685F74 		.ascii	"ch_threads_queue\000"
 4067      68726561 
 4067      64735F71 
 4067      75657565 
 4067      00
 4068              	.LASF282:
 4069 09d7 5F72616E 		.ascii	"_rand48\000"
 4069      64343800 
 4070              	.LASF259:
 4071 09df 5F737464 		.ascii	"_stdout\000"
 4071      6F757400 
 4072              	.LASF70:
 4073 09e7 64656C74 		.ascii	"delta\000"
 4073      6100
 4074              	.LASF300:
 4075 09ed 76707269 		.ascii	"vprintf_console_hook\000"
 4075      6E74665F 
 4075      636F6E73 
 4075      6F6C655F 
 4075      686F6F6B 
 4076              	.LASF228:
 4077 0a02 5F626C6B 		.ascii	"_blksize\000"
 4077      73697A65 
 4077      00
 4078              	.LASF48:
 4079 0a0b 72656673 		.ascii	"refs\000"
 4079      00
 4080              	.LASF100:
 4081 0a10 53554343 		.ascii	"SUCCESS\000"
 4081      45535300 
 4082              	.LASF40:
 4083 0a18 71756575 		.ascii	"queue\000"
 4083      6500
 4084              	.LASF51:
 4085 0a1e 6570656E 		.ascii	"epending\000"
 4085      64696E67 
 4085      00
 4086              	.LASF308:
 4087 0a27 72656173 		.ascii	"reason\000"
 4087      6F6E00
 4088              	.LASF236:
 4089 0a2e 5F737472 		.ascii	"_strtok_last\000"
 4089      746F6B5F 
ARM GAS  /tmp/ccnRKFBk.s 			page 81


 4089      6C617374 
 4089      00
 4090              	.LASF215:
 4091 0a3b 5F626173 		.ascii	"_base\000"
 4091      6500
 4092              	.LASF174:
 4093 0a41 63685F66 		.ascii	"ch_factory\000"
 4093      6163746F 
 4093      727900
 4094              	.LASF249:
 4095 0a4c 5F6D6272 		.ascii	"_mbrtowc_state\000"
 4095      746F7763 
 4095      5F737461 
 4095      746500
 4096              	.LASF171:
 4097 0a5b 6D62785F 		.ascii	"mbx_list\000"
 4097      6C697374 
 4097      00
 4098              	.LASF82:
 4099 0a64 6D61696E 		.ascii	"mainthread\000"
 4099      74687265 
 4099      616400
 4100              	.LASF189:
 4101 0a6f 5F666C6F 		.ascii	"_flock_t\000"
 4101      636B5F74 
 4101      00
 4102              	.LASF130:
 4103 0a78 76657273 		.ascii	"version\000"
 4103      696F6E00 
 4104              	.LASF278:
 4105 0a80 5F5F4649 		.ascii	"__FILE\000"
 4105      4C4500
 4106              	.LASF91:
 4107 0a87 52455345 		.ascii	"RESET\000"
 4107      5400
 4108              	.LASF110:
 4109 0a8d 62657374 		.ascii	"best\000"
 4109      00
 4110              	.LASF188:
 4111 0a92 5F6D6273 		.ascii	"_mbstate_t\000"
 4111      74617465 
 4111      5F7400
 4112              	.LASF241:
 4113 0a9d 5F723438 		.ascii	"_r48\000"
 4113      00
 4114              	.LASF45:
 4115 0aa2 77616261 		.ascii	"wabase\000"
 4115      736500
 4116              	.LASF182:
 4117 0aa9 77696E74 		.ascii	"wint_t\000"
 4117      5F7400
 4118              	.LASF160:
 4119 0ab0 6D656D6F 		.ascii	"memory_pool_t\000"
 4119      72795F70 
 4119      6F6F6C5F 
 4119      7400
 4120              	.LASF192:
ARM GAS  /tmp/ccnRKFBk.s 			page 82


 4121 0abe 5F6E6578 		.ascii	"_next\000"
 4121      7400
 4122              	.LASF230:
 4123 0ac4 5F646174 		.ascii	"_data\000"
 4123      6100
 4124              	.LASF92:
 4125 0aca 466C6167 		.ascii	"FlagStatus\000"
 4125      53746174 
 4125      757300
 4126              	.LASF80:
 4127 0ad5 726C6973 		.ascii	"rlist\000"
 4127      7400
 4128              	.LASF23:
 4129 0adb 746D6F64 		.ascii	"tmode_t\000"
 4129      655F7400 
 4130              	.LASF107:
 4131 0ae3 746D5F63 		.ascii	"tm_calibration_t\000"
 4131      616C6962 
 4131      72617469 
 4131      6F6E5F74 
 4131      00
 4132              	.LASF299:
 4133 0af4 5F5F696F 		.ascii	"__iob\000"
 4133      6200
 4134              	.LASF44:
 4135 0afa 6E616D65 		.ascii	"name\000"
 4135      00
 4136              	.LASF311:
 4137 0aff 2F686F6D 		.ascii	"/home/haggisaerospace/ardupilot/ardupilot/build/Cub"
 4137      652F6861 
 4137      67676973 
 4137      6165726F 
 4137      73706163 
 4138 0b32 65426C61 		.ascii	"eBlack\000"
 4138      636B00
 4139              	.LASF90:
 4140 0b39 41504250 		.ascii	"APBPrescTable\000"
 4140      72657363 
 4140      5461626C 
 4140      6500
 4141              	.LASF242:
 4142 0b47 5F6D626C 		.ascii	"_mblen_state\000"
 4142      656E5F73 
 4142      74617465 
 4142      00
 4143              	.LASF2:
 4144 0b54 73686F72 		.ascii	"short int\000"
 4144      7420696E 
 4144      7400
 4145              	.LASF18:
 4146 0b5e 75696E74 		.ascii	"uint64_t\000"
 4146      36345F74 
 4146      00
 4147              	.LASF71:
 4148 0b67 66756E63 		.ascii	"func\000"
 4148      00
 4149              	.LASF122:
ARM GAS  /tmp/ccnRKFBk.s 			page 83


 4150 0b6c 63685F6D 		.ascii	"ch_mutex\000"
 4150      75746578 
 4150      00
 4151              	.LASF50:
 4152 0b75 6D736771 		.ascii	"msgqueue\000"
 4152      75657565 
 4152      00
 4153              	.LASF209:
 4154 0b7e 5F666E74 		.ascii	"_fntypes\000"
 4154      79706573 
 4154      00
 4155              	.LASF76:
 4156 0b87 63685F73 		.ascii	"ch_system_debug\000"
 4156      79737465 
 4156      6D5F6465 
 4156      62756700 
 4157              	.LASF96:
 4158 0b97 454E4142 		.ascii	"ENABLE\000"
 4158      4C4500
 4159              	.LASF164:
 4160 0b9e 64796E5F 		.ascii	"dyn_list_t\000"
 4160      6C697374 
 4160      5F7400
 4161              	.LASF202:
 4162 0ba9 5F5F746D 		.ascii	"__tm_year\000"
 4162      5F796561 
 4162      7200
 4163              	.LASF157:
 4164 0bb3 6F626A65 		.ascii	"object_size\000"
 4164      63745F73 
 4164      697A6500 
 4165              	.LASF220:
 4166 0bbf 5F6C6266 		.ascii	"_lbfsize\000"
 4166      73697A65 
 4166      00
 4167              	.LASF81:
 4168 0bc8 76746C69 		.ascii	"vtlist\000"
 4168      737400
 4169              	.LASF261:
 4170 0bcf 5F696E63 		.ascii	"_inc\000"
 4170      00
 4171              	.LASF212:
 4172 0bd4 5F696E64 		.ascii	"_ind\000"
 4172      00
 4173              	.LASF49:
 4174 0bd9 77616974 		.ascii	"waiting\000"
 4174      696E6700 
 4175              	.LASF214:
 4176 0be1 5F5F7362 		.ascii	"__sbuf\000"
 4176      756600
 4177              	.LASF162:
 4178 0be8 64796E5F 		.ascii	"dyn_element_t\000"
 4178      656C656D 
 4178      656E745F 
 4178      7400
 4179              	.LASF210:
 4180 0bf6 5F69735F 		.ascii	"_is_cxa\000"
ARM GAS  /tmp/ccnRKFBk.s 			page 84


 4180      63786100 
 4181              	.LASF179:
 4182 0bfe 5F4C4F43 		.ascii	"_LOCK_T\000"
 4182      4B5F5400 
 4183              	.LASF147:
 4184 0c06 6D757465 		.ascii	"mutex_t\000"
 4184      785F7400 
 4185              	.LASF25:
 4186 0c0e 74726566 		.ascii	"trefs_t\000"
 4186      735F7400 
 4187              	.LASF254:
 4188 0c16 5F6E6578 		.ascii	"_nextf\000"
 4188      746600
 4189              	.LASF104:
 4190 0c1d 706F7274 		.ascii	"port_context\000"
 4190      5F636F6E 
 4190      74657874 
 4190      00
 4191              	.LASF57:
 4192 0c2a 74687265 		.ascii	"threads_list_t\000"
 4192      6164735F 
 4192      6C697374 
 4192      5F7400
 4193              	.LASF307:
 4194 0c39 73746174 		.ascii	"status\000"
 4194      757300
 4195              	.LASF79:
 4196 0c40 63685F73 		.ascii	"ch_system\000"
 4196      79737465 
 4196      6D00
 4197              	.LASF264:
 4198 0c4a 5F6C6F63 		.ascii	"_locale\000"
 4198      616C6500 
 4199              	.LASF190:
 4200 0c52 5F5F554C 		.ascii	"__ULong\000"
 4200      6F6E6700 
 4201              	.LASF42:
 4202 0c5a 6E657765 		.ascii	"newer\000"
 4202      7200
 4203              	.LASF17:
 4204 0c60 75696E74 		.ascii	"uint32_t\000"
 4204      33325F74 
 4204      00
 4205              	.LASF109:
 4206 0c69 31387469 		.ascii	"18time_measurement_t\000"
 4206      6D655F6D 
 4206      65617375 
 4206      72656D65 
 4206      6E745F74 
 4207              	.LASF267:
 4208 0c7e 5F726573 		.ascii	"_result\000"
 4208      756C7400 
 4209              	.LASF150:
 4210 0c86 396D656D 		.ascii	"9memcore_t\000"
 4210      636F7265 
 4210      5F7400
 4211              	.LASF142:
ARM GAS  /tmp/ccnRKFBk.s 			page 85


 4212 0c91 6F66665F 		.ascii	"off_refs\000"
 4212      72656673 
 4212      00
 4213              	.LASF180:
 4214 0c9a 5F6F6666 		.ascii	"_off_t\000"
 4214      5F7400
 4215              	.LASF32:
 4216 0ca1 7264796D 		.ascii	"rdymsg\000"
 4216      736700
 4217              	.LASF285:
 4218 0ca8 5F616464 		.ascii	"_add\000"
 4218      00
 4219              	.LASF5:
 4220 0cad 73686F72 		.ascii	"short unsigned int\000"
 4220      7420756E 
 4220      7369676E 
 4220      65642069 
 4220      6E7400
 4221              	.LASF199:
 4222 0cc0 5F5F746D 		.ascii	"__tm_hour\000"
 4222      5F686F75 
 4222      7200
 4223              	.LASF78:
 4224 0cca 63685F73 		.ascii	"ch_system_t\000"
 4224      79737465 
 4224      6D5F7400 
 4225              	.LASF145:
 4226 0cd6 63686465 		.ascii	"chdebug_t\000"
 4226      6275675F 
 4226      7400
 4227              	.LASF310:
 4228 0ce0 2E2E2F2E 		.ascii	"../../modules/ChibiOS/os/various/cpp_wrappers/sysca"
 4228      2E2F6D6F 
 4228      64756C65 
 4228      732F4368 
 4228      6962694F 
 4229 0d13 6C6C735F 		.ascii	"lls_cpp.cpp\000"
 4229      6370702E 
 4229      63707000 
 4230              	.LASF250:
 4231 0d1f 5F6D6273 		.ascii	"_mbsrtowcs_state\000"
 4231      72746F77 
 4231      63735F73 
 4231      74617465 
 4231      00
 4232              	.LASF132:
 4233 0d30 74696D65 		.ascii	"timesize\000"
 4233      73697A65 
 4233      00
 4234              	.LASF6:
 4235 0d39 5F5F696E 		.ascii	"__int32_t\000"
 4235      7433325F 
 4235      7400
 4236              	.LASF154:
 4237 0d43 63685F6D 		.ascii	"ch_memcore\000"
 4237      656D636F 
 4237      726500
ARM GAS  /tmp/ccnRKFBk.s 			page 86


 4238              	.LASF141:
 4239 0d4e 6F66665F 		.ascii	"off_flags\000"
 4239      666C6167 
 4239      7300
 4240              	.LASF207:
 4241 0d58 5F666E61 		.ascii	"_fnargs\000"
 4241      72677300 
 4242              	.LASF205:
 4243 0d60 5F5F746D 		.ascii	"__tm_isdst\000"
 4243      5F697364 
 4243      737400
 4244              	.LASF60:
 4245 0d6b 6E657874 		.ascii	"next\000"
 4245      00
 4246              	.LASF291:
 4247 0d70 5F646179 		.ascii	"_daylight\000"
 4247      6C696768 
 4247      7400
 4248              	.LASF63:
 4249 0d7a 70726576 		.ascii	"prev\000"
 4249      00
 4250              	.LASF163:
 4251 0d7f 63685F64 		.ascii	"ch_dyn_list\000"
 4251      796E5F6C 
 4251      69737400 
 4252              	.LASF127:
 4253 0d8b 6964656E 		.ascii	"identifier\000"
 4253      74696669 
 4253      657200
 4254              	.LASF247:
 4255 0d96 5F676574 		.ascii	"_getdate_err\000"
 4255      64617465 
 4255      5F657272 
 4255      00
 4256              	.LASF112:
 4257 0da3 6C617374 		.ascii	"last\000"
 4257      00
 4258              		.ident	"GCC: (GNU Tools for ARM Embedded Processors 6-2017-q2-update) 6.3.1 20170620 (release) [AR
ARM GAS  /tmp/ccnRKFBk.s 			page 87


DEFINED SYMBOLS
                            *ABS*:0000000000000000 syscalls_cpp.cpp
     /tmp/ccnRKFBk.s:18     .text._ZL11osalSysHaltPKc:0000000000000000 $t
     /tmp/ccnRKFBk.s:25     .text._ZL11osalSysHaltPKc:0000000000000000 _ZL11osalSysHaltPKc
.ARM.exidx.text._ZL11osalSysHaltPKc:0000000000000000 $d
     /tmp/ccnRKFBk.s:59     .bss.__dso_handle:0000000000000000 __dso_handle
     /tmp/ccnRKFBk.s:56     .bss.__dso_handle:0000000000000000 $d
     /tmp/ccnRKFBk.s:62     .rodata:0000000000000000 $d
     /tmp/ccnRKFBk.s:66     .text._exit:0000000000000000 $t
     /tmp/ccnRKFBk.s:74     .text._exit:0000000000000000 _exit
     /tmp/ccnRKFBk.s:99     .text._exit:0000000000000010 $d
            .ARM.exidx.text._exit:0000000000000000 $d
     /tmp/ccnRKFBk.s:105    .text._kill:0000000000000000 $t
     /tmp/ccnRKFBk.s:113    .text._kill:0000000000000000 _kill
     /tmp/ccnRKFBk.s:140    .text._kill:0000000000000018 $d
            .ARM.exidx.text._kill:0000000000000000 $d
     /tmp/ccnRKFBk.s:147    .text._open_r:0000000000000000 $t
     /tmp/ccnRKFBk.s:155    .text._open_r:0000000000000000 _open_r
          .ARM.exidx.text._open_r:0000000000000000 $d
     /tmp/ccnRKFBk.s:177    .text.__cxa_pure_virtual:0000000000000000 $t
     /tmp/ccnRKFBk.s:185    .text.__cxa_pure_virtual:0000000000000000 __cxa_pure_virtual
     /tmp/ccnRKFBk.s:206    .text.__cxa_pure_virtual:000000000000000c $d
.ARM.extab.text.__cxa_pure_virtual:0000000000000000 $d
.ARM.exidx.text.__cxa_pure_virtual:0000000000000000 $d
                     .debug_frame:0000000000000010 $d

UNDEFINED SYMBOLS
chSysHalt
__aeabi_unwind_cpp_pr0
errno
__aeabi_unwind_cpp_pr1
