ARM GAS  /tmp/cc8wh0mq.s 			page 1


   1              		.syntax unified
   2              		.cpu cortex-m4
   3              		.eabi_attribute 27, 1
   4              		.eabi_attribute 28, 1
   5              		.fpu fpv4-sp-d16
   6              		.eabi_attribute 20, 1
   7              		.eabi_attribute 21, 1
   8              		.eabi_attribute 23, 3
   9              		.eabi_attribute 24, 1
  10              		.eabi_attribute 25, 1
  11              		.eabi_attribute 26, 1
  12              		.eabi_attribute 30, 4
  13              		.eabi_attribute 34, 1
  14              		.eabi_attribute 18, 4
  15              		.thumb
  16              		.file	"usbcfg.c"
  17              		.text
  18              	.Ltext0:
  19              		.cfi_sections	.debug_frame
  20              		.section	.text.get_descriptor,"ax",%progbits
  21              		.align	1
  22              		.thumb
  23              		.thumb_func
  24              		.type	get_descriptor, %function
  25              	get_descriptor:
  26              	.LFB327:
  27              		.file 1 "../../libraries/AP_HAL_ChibiOS/hwdef/common/usbcfg.c"
  28              		.loc 1 281 0
  29              		.cfi_startproc
  30              		@ args = 0, pretend = 0, frame = 0
  31              		@ frame_needed = 0, uses_anonymous_args = 0
  32              		@ link register save eliminated.
  33              	.LVL0:
  34              		.loc 1 285 0
  35 0000 0229     		cmp	r1, #2
  36 0002 06D0     		beq	.L3
  37 0004 0329     		cmp	r1, #3
  38 0006 06D0     		beq	.L4
  39 0008 0129     		cmp	r1, #1
  40              		.loc 1 295 0
  41 000a 0648     		ldr	r0, .L9
  42              	.LVL1:
  43 000c 18BF     		it	ne
  44 000e 0020     		movne	r0, #0
  45 0010 7047     		bx	lr
  46              	.LVL2:
  47              	.L3:
  48              		.loc 1 289 0
  49 0012 0548     		ldr	r0, .L9+4
  50              	.LVL3:
  51 0014 7047     		bx	lr
  52              	.LVL4:
  53              	.L4:
  54              		.loc 1 291 0
  55 0016 032A     		cmp	r2, #3
  56              		.loc 1 292 0
  57 0018 9ABF     		itte	ls
ARM GAS  /tmp/cc8wh0mq.s 			page 2


  58 001a 044B     		ldrls	r3, .L9+8
  59              	.LVL5:
  60 001c 03EBC200 		addls	r0, r3, r2, lsl #3
  61              	.LVL6:
  62              		.loc 1 295 0
  63 0020 0020     		movhi	r0, #0
  64              		.loc 1 296 0
  65 0022 7047     		bx	lr
  66              	.L10:
  67              		.align	2
  68              	.L9:
  69 0024 00000000 		.word	.LANCHOR0
  70 0028 00000000 		.word	.LANCHOR1
  71 002c 00000000 		.word	.LANCHOR2
  72              		.cfi_endproc
  73              	.LFE327:
  74              		.size	get_descriptor, .-get_descriptor
  75              		.section	.text.string_contains,"ax",%progbits
  76              		.align	1
  77              		.thumb
  78              		.thumb_func
  79              		.type	string_contains, %function
  80              	string_contains:
  81              	.LFB323:
  82              		.loc 1 188 0
  83              		.cfi_startproc
  84              		@ args = 0, pretend = 0, frame = 0
  85              		@ frame_needed = 0, uses_anonymous_args = 0
  86              	.LVL7:
  87 0000 70B5     		push	{r4, r5, r6, lr}
  88              		.cfi_def_cfa_offset 16
  89              		.cfi_offset 4, -16
  90              		.cfi_offset 5, -12
  91              		.cfi_offset 6, -8
  92              		.cfi_offset 14, -4
  93              		.loc 1 188 0
  94 0002 0446     		mov	r4, r0
  95              		.loc 1 189 0
  96 0004 0846     		mov	r0, r1
  97              	.LVL8:
  98              		.loc 1 188 0
  99 0006 0D46     		mov	r5, r1
 100              		.loc 1 189 0
 101 0008 FFF7FEFF 		bl	strlen
 102              	.LVL9:
 103 000c 0646     		mov	r6, r0
 104              	.LVL10:
 105              	.L12:
 106 000e 2046     		mov	r0, r4
 107              	.LVL11:
 108 0010 0134     		adds	r4, r4, #1
 109              		.loc 1 190 0
 110 0012 0378     		ldrb	r3, [r0]	@ zero_extendqisi2
 111 0014 3BB1     		cbz	r3, .L16
 112              		.loc 1 191 0
 113 0016 2946     		mov	r1, r5
 114 0018 F2B2     		uxtb	r2, r6
ARM GAS  /tmp/cc8wh0mq.s 			page 3


 115 001a FFF7FEFF 		bl	strncmp
 116              	.LVL12:
 117 001e 0028     		cmp	r0, #0
 118 0020 F5D1     		bne	.L12
 119              		.loc 1 192 0
 120 0022 0120     		movs	r0, #1
 121              		.loc 1 197 0
 122 0024 70BD     		pop	{r4, r5, r6, pc}
 123              	.LVL13:
 124              	.L16:
 125              		.loc 1 196 0
 126 0026 1846     		mov	r0, r3
 127              	.LVL14:
 128 0028 70BD     		pop	{r4, r5, r6, pc}
 129              		.cfi_endproc
 130              	.LFE323:
 131              		.size	string_contains, .-string_contains
 132              		.section	.text.setup_usb_string,"ax",%progbits
 133              		.align	1
 134              		.thumb
 135              		.thumb_func
 136              		.type	setup_usb_string, %function
 137              	setup_usb_string:
 138              	.LFB325:
 139              		.loc 1 249 0
 140              		.cfi_startproc
 141              		@ args = 0, pretend = 0, frame = 104
 142              		@ frame_needed = 0, uses_anonymous_args = 0
 143              	.LVL15:
 144 0000 2DE9F043 		push	{r4, r5, r6, r7, r8, r9, lr}
 145              		.cfi_def_cfa_offset 28
 146              		.cfi_offset 4, -28
 147              		.cfi_offset 5, -24
 148              		.cfi_offset 6, -20
 149              		.cfi_offset 7, -16
 150              		.cfi_offset 8, -12
 151              		.cfi_offset 9, -8
 152              		.cfi_offset 14, -4
 153 0004 8046     		mov	r8, r0
 154 0006 9BB0     		sub	sp, sp, #108
 155              		.cfi_def_cfa_offset 136
 156              	.LVL16:
 157              	.LBB32:
 158              	.LBB33:
 159              		.loc 1 206 0
 160 0008 0846     		mov	r0, r1
 161              	.LVL17:
 162              	.LBE33:
 163              	.LBE32:
 164              		.loc 1 249 0
 165 000a 0C46     		mov	r4, r1
 166 000c 1646     		mov	r6, r2
 167              	.LBB38:
 168              	.LBB37:
 169              		.loc 1 206 0
 170 000e FFF7FEFF 		bl	strlen
 171              	.LVL18:
ARM GAS  /tmp/cc8wh0mq.s 			page 4


 172              		.loc 1 207 0
 173 0012 3949     		ldr	r1, .L39
 174              		.loc 1 206 0
 175 0014 C5B2     		uxtb	r5, r0
 176              	.LVL19:
 177              		.loc 1 207 0
 178 0016 2046     		mov	r0, r4
 179 0018 FFF7FEFF 		bl	string_contains
 180              	.LVL20:
 181 001c 08B1     		cbz	r0, .L18
 182              		.loc 1 208 0
 183 001e 0235     		adds	r5, r5, #2
 184              	.LVL21:
 185 0020 EDB2     		uxtb	r5, r5
 186              	.LVL22:
 187              	.L18:
 188              		.loc 1 210 0
 189 0022 2046     		mov	r0, r4
 190 0024 3549     		ldr	r1, .L39+4
 191 0026 FFF7FEFF 		bl	string_contains
 192              	.LVL23:
 193 002a 08B1     		cbz	r0, .L19
 194              		.loc 1 211 0
 195 002c 1035     		adds	r5, r5, #16
 196              	.LVL24:
 197 002e EDB2     		uxtb	r5, r5
 198              	.LVL25:
 199              	.L19:
 200              		.loc 1 213 0
 201 0030 632D     		cmp	r5, #99
 202 0032 01AF     		add	r7, sp, #4
 203              	.LVL26:
 204 0034 01DC     		bgt	.L20
 205 0036 3D46     		mov	r5, r7
 206              	.LVL27:
 207 0038 16E0     		b	.L21
 208              	.LVL28:
 209              	.L20:
 210              		.loc 1 214 0
 211 003a 3846     		mov	r0, r7
 212 003c 2146     		mov	r1, r4
 213 003e FFF7FEFF 		bl	strcpy
 214              	.LVL29:
 215 0042 3CE0     		b	.L22
 216              	.LVL30:
 217              	.L27:
 218              	.LBB34:
 219              		.loc 1 220 0
 220 0044 B9F1250F 		cmp	r9, #37
 221 0048 32D1     		bne	.L23
 222              		.loc 1 221 0
 223 004a 2046     		mov	r0, r4
 224 004c 2A49     		ldr	r1, .L39
 225 004e 0722     		movs	r2, #7
 226 0050 FFF7FEFF 		bl	strncmp
 227              	.LVL31:
 228 0054 70B9     		cbnz	r0, .L24
ARM GAS  /tmp/cc8wh0mq.s 			page 5


 229              		.loc 1 222 0
 230 0056 2A4B     		ldr	r3, .L39+8
 231 0058 1A68     		ldr	r2, [r3]	@ unaligned
 232 005a 2A60     		str	r2, [r5]	@ unaligned
 233 005c 5A68     		ldr	r2, [r3, #4]	@ unaligned
 234 005e 1B7A     		ldrb	r3, [r3, #8]	@ zero_extendqisi2
 235 0060 6A60     		str	r2, [r5, #4]	@ unaligned
 236 0062 2B72     		strb	r3, [r5, #8]
 237              		.loc 1 223 0
 238 0064 0734     		adds	r4, r4, #7
 239              	.LVL32:
 240              		.loc 1 224 0
 241 0066 0935     		adds	r5, r5, #9
 242              	.LVL33:
 243              	.L21:
 244              	.LBE34:
 245              		.loc 1 218 0
 246 0068 94F80090 		ldrb	r9, [r4]	@ zero_extendqisi2
 247 006c B9F1000F 		cmp	r9, #0
 248 0070 E8D1     		bne	.L27
 249 0072 22E0     		b	.L37
 250              	.LVL34:
 251              	.L24:
 252              	.LBB36:
 253              		.loc 1 227 0
 254 0074 2046     		mov	r0, r4
 255 0076 2149     		ldr	r1, .L39+4
 256 0078 0822     		movs	r2, #8
 257 007a FFF7FEFF 		bl	strncmp
 258              	.LVL35:
 259 007e B8B9     		cbnz	r0, .L23
 260 0080 2049     		ldr	r1, .L39+12
 261 0082 AB1C     		adds	r3, r5, #2
 262              	.LVL36:
 263              	.L26:
 264              	.LBB35:
 265              		.loc 1 232 0
 266 0084 11F8012F 		ldrb	r2, [r1, #1]!	@ zero_extendqisi2
 267              	.LVL37:
 268 0088 1F48     		ldr	r0, .L39+16
 269 008a 4FEA121E 		lsr	lr, r2, #4
 270              		.loc 1 233 0
 271 008e 02F00F02 		and	r2, r2, #15
 272              		.loc 1 232 0
 273 0092 1EF800E0 		ldrb	lr, [lr, r0]	@ zero_extendqisi2
 274              		.loc 1 233 0
 275 0096 125C     		ldrb	r2, [r2, r0]	@ zero_extendqisi2
 276 0098 03F8012C 		strb	r2, [r3, #-1]
 277              		.loc 1 231 0
 278 009c 1B4A     		ldr	r2, .L39+20
 279              		.loc 1 232 0
 280 009e 03F802EC 		strb	lr, [r3, #-2]
 281              	.LVL38:
 282              		.loc 1 231 0
 283 00a2 9142     		cmp	r1, r2
 284 00a4 03F10203 		add	r3, r3, #2
 285              	.LVL39:
ARM GAS  /tmp/cc8wh0mq.s 			page 6


 286 00a8 ECD1     		bne	.L26
 287 00aa 1835     		adds	r5, r5, #24
 288              		.loc 1 235 0
 289 00ac 0834     		adds	r4, r4, #8
 290              	.LVL40:
 291 00ae DBE7     		b	.L21
 292              	.LVL41:
 293              	.L23:
 294              	.LBE35:
 295              		.loc 1 239 0
 296 00b0 85F80090 		strb	r9, [r5]
 297 00b4 0134     		adds	r4, r4, #1
 298              	.LVL42:
 299 00b6 0135     		adds	r5, r5, #1
 300              	.LVL43:
 301 00b8 D6E7     		b	.L21
 302              	.LVL44:
 303              	.L37:
 304              	.LBE36:
 305              		.loc 1 241 0
 306 00ba 85F80090 		strb	r9, [r5]
 307              	.LVL45:
 308              	.L22:
 309              	.LBE37:
 310              	.LBE38:
 311              		.loc 1 252 0
 312 00be 3846     		mov	r0, r7
 313 00c0 FFF7FEFF 		bl	strlen
 314              	.LVL46:
 315 00c4 C0B2     		uxtb	r0, r0
 316              	.LVL47:
 317              		.loc 1 253 0
 318 00c6 431C     		adds	r3, r0, #1
 319 00c8 5B00     		lsls	r3, r3, #1
 320              		.loc 1 254 0
 321 00ca 88E84800 		stmia	r8, {r3, r6}
 322              		.loc 1 255 0
 323 00ce 3370     		strb	r3, [r6]
 324              		.loc 1 256 0
 325 00d0 0323     		movs	r3, #3
 326 00d2 7370     		strb	r3, [r6, #1]
 327              	.LVL48:
 328 00d4 0236     		adds	r6, r6, #2
 329              	.LVL49:
 330              		.loc 1 258 0
 331 00d6 0023     		movs	r3, #0
 332              	.LVL50:
 333              	.L28:
 334              		.loc 1 258 0 is_stmt 0 discriminator 1
 335 00d8 DAB2     		uxtb	r2, r3
 336 00da 8242     		cmp	r2, r0
 337 00dc 06F10206 		add	r6, r6, #2
 338 00e0 07D2     		bcs	.L38
 339              		.loc 1 259 0 is_stmt 1 discriminator 3
 340 00e2 FA5C     		ldrb	r2, [r7, r3]	@ zero_extendqisi2
 341 00e4 06F8022C 		strb	r2, [r6, #-2]
 342              		.loc 1 260 0 discriminator 3
ARM GAS  /tmp/cc8wh0mq.s 			page 7


 343 00e8 0022     		movs	r2, #0
 344 00ea 06F8012C 		strb	r2, [r6, #-1]
 345              	.LVL51:
 346 00ee 0133     		adds	r3, r3, #1
 347              	.LVL52:
 348 00f0 F2E7     		b	.L28
 349              	.LVL53:
 350              	.L38:
 351              		.loc 1 262 0
 352 00f2 1BB0     		add	sp, sp, #108
 353              		.cfi_def_cfa_offset 28
 354              		@ sp needed
 355 00f4 BDE8F083 		pop	{r4, r5, r6, r7, r8, r9, pc}
 356              	.LVL54:
 357              	.L40:
 358              		.align	2
 359              	.L39:
 360 00f8 00000000 		.word	.LC0
 361 00fc 08000000 		.word	.LC1
 362 0100 11000000 		.word	.LC2
 363 0104 0F7AFF1F 		.word	536836623
 364 0108 1B000000 		.word	.LC3
 365 010c 1B7AFF1F 		.word	536836635
 366              		.cfi_endproc
 367              	.LFE325:
 368              		.size	setup_usb_string, .-setup_usb_string
 369              		.section	.text.sof_handler,"ax",%progbits
 370              		.align	1
 371              		.thumb
 372              		.thumb_func
 373              		.type	sof_handler, %function
 374              	sof_handler:
 375              	.LFB329:
 376              		.loc 1 397 0
 377              		.cfi_startproc
 378              		@ args = 0, pretend = 0, frame = 0
 379              		@ frame_needed = 0, uses_anonymous_args = 0
 380              	.LVL55:
 381 0000 08B5     		push	{r3, lr}
 382              		.cfi_def_cfa_offset 8
 383              		.cfi_offset 3, -8
 384              		.cfi_offset 14, -4
 385              	.LBB55:
 386              	.LBB56:
 387              	.LBB57:
 388              	.LBB58:
 389              	.LBB59:
 390              	.LBB60:
 391              	.LBB61:
 392              		.file 2 "../../modules/ChibiOS/os/common/ext/ARM/CMSIS/Core/Include/cmsis_gcc.h"
 393              		.loc 2 493 0
 394 0002 2023     		movs	r3, #32
 395              	@ 493 "../../modules/ChibiOS/os/common/ext/ARM/CMSIS/Core/Include/cmsis_gcc.h" 1
 396 0004 83F31188 		MSR basepri, r3
 397              	@ 0 "" 2
 398              		.thumb
 399              	.LBE61:
ARM GAS  /tmp/cc8wh0mq.s 			page 8


 400              	.LBE60:
 401              	.LBE59:
 402              	.LBE58:
 403              		.file 3 "../../modules/ChibiOS/os/rt/include/chsys.h"
 404              		.loc 3 396 0
 405 0008 FFF7FEFF 		bl	_stats_start_measure_crit_isr
 406              	.LVL56:
 407              	.LBE57:
 408              	.LBE56:
 409              	.LBE55:
 410              		.loc 1 402 0
 411 000c 0448     		ldr	r0, .L42
 412 000e FFF7FEFF 		bl	sduSOFHookI
 413              	.LVL57:
 414              	.LBB62:
 415              	.LBB63:
 416              	.LBB64:
 417              		.loc 3 416 0
 418 0012 FFF7FEFF 		bl	_stats_stop_measure_crit_isr
 419              	.LVL58:
 420              	.LBB65:
 421              	.LBB66:
 422              	.LBB67:
 423              	.LBB68:
 424              		.loc 2 493 0
 425 0016 0023     		movs	r3, #0
 426              	@ 493 "../../modules/ChibiOS/os/common/ext/ARM/CMSIS/Core/Include/cmsis_gcc.h" 1
 427 0018 83F31188 		MSR basepri, r3
 428              	@ 0 "" 2
 429              		.thumb
 430 001c 08BD     		pop	{r3, pc}
 431              	.L43:
 432 001e 00BF     		.align	2
 433              	.L42:
 434 0020 00000000 		.word	.LANCHOR3
 435              	.LBE68:
 436              	.LBE67:
 437              	.LBE66:
 438              	.LBE65:
 439              	.LBE64:
 440              	.LBE63:
 441              	.LBE62:
 442              		.cfi_endproc
 443              	.LFE329:
 444              		.size	sof_handler, .-sof_handler
 445              		.section	.text.usb_event,"ax",%progbits
 446              		.align	1
 447              		.thumb
 448              		.thumb_func
 449              		.type	usb_event, %function
 450              	usb_event:
 451              	.LFB328:
 452              		.loc 1 348 0
 453              		.cfi_startproc
 454              		@ args = 0, pretend = 0, frame = 0
 455              		@ frame_needed = 0, uses_anonymous_args = 0
 456              	.LVL59:
ARM GAS  /tmp/cc8wh0mq.s 			page 9


 457 0000 10B5     		push	{r4, lr}
 458              		.cfi_def_cfa_offset 8
 459              		.cfi_offset 4, -8
 460              		.cfi_offset 14, -4
 461              		.loc 1 348 0
 462 0002 0446     		mov	r4, r0
 463              		.loc 1 351 0
 464 0004 0529     		cmp	r1, #5
 465 0006 2DD8     		bhi	.L44
 466 0008 DFE801F0 		tbb	[pc, r1]
 467              	.L47:
 468 000c 16       		.byte	(.L46-.L47)/2
 469 000d 2C       		.byte	(.L44-.L47)/2
 470 000e 03       		.byte	(.L48-.L47)/2
 471 000f 16       		.byte	(.L46-.L47)/2
 472 0010 16       		.byte	(.L46-.L47)/2
 473 0011 1F       		.byte	(.L49-.L47)/2
 474              		.p2align 1
 475              	.L48:
 476              	.LVL60:
 477              	.LBB107:
 478              	.LBB108:
 479              	.LBB109:
 480              	.LBB110:
 481              	.LBB111:
 482              	.LBB112:
 483              	.LBB113:
 484              	.LBB114:
 485              		.loc 2 493 0
 486 0012 2023     		movs	r3, #32
 487              	@ 493 "../../modules/ChibiOS/os/common/ext/ARM/CMSIS/Core/Include/cmsis_gcc.h" 1
 488 0014 83F31188 		MSR basepri, r3
 489              	@ 0 "" 2
 490              		.thumb
 491              	.LBE114:
 492              	.LBE113:
 493              	.LBE112:
 494              	.LBE111:
 495              		.loc 3 396 0
 496 0018 FFF7FEFF 		bl	_stats_start_measure_crit_isr
 497              	.LVL61:
 498              	.LBE110:
 499              	.LBE109:
 500              		.loc 1 360 0
 501 001c 2046     		mov	r0, r4
 502 001e 0121     		movs	r1, #1
 503 0020 114A     		ldr	r2, .L51
 504 0022 FFF7FEFF 		bl	usbInitEndpointI
 505              	.LVL62:
 506              		.loc 1 361 0
 507 0026 2046     		mov	r0, r4
 508 0028 0221     		movs	r1, #2
 509 002a 104A     		ldr	r2, .L51+4
 510 002c FFF7FEFF 		bl	usbInitEndpointI
 511              	.LVL63:
 512              		.loc 1 364 0
 513 0030 0F48     		ldr	r0, .L51+8
ARM GAS  /tmp/cc8wh0mq.s 			page 10


 514 0032 FFF7FEFF 		bl	sduConfigureHookI
 515              	.LVL64:
 516 0036 10E0     		b	.L50
 517              	.LVL65:
 518              	.L46:
 519              	.LBE108:
 520              	.LBE107:
 521              	.LBB115:
 522              	.LBB116:
 523              	.LBB117:
 524              	.LBB118:
 525              	.LBB119:
 526              	.LBB120:
 527              		.loc 2 493 0
 528 0038 2023     		movs	r3, #32
 529              	@ 493 "../../modules/ChibiOS/os/common/ext/ARM/CMSIS/Core/Include/cmsis_gcc.h" 1
 530 003a 83F31188 		MSR basepri, r3
 531              	@ 0 "" 2
 532              		.thumb
 533              	.LBE120:
 534              	.LBE119:
 535              	.LBE118:
 536              	.LBE117:
 537              		.loc 3 396 0
 538 003e FFF7FEFF 		bl	_stats_start_measure_crit_isr
 539              	.LVL66:
 540              	.LBE116:
 541              	.LBE115:
 542              		.loc 1 376 0
 543 0042 0B48     		ldr	r0, .L51+8
 544 0044 FFF7FEFF 		bl	sduSuspendHookI
 545              	.LVL67:
 546 0048 07E0     		b	.L50
 547              	.LVL68:
 548              	.L49:
 549              	.LBB121:
 550              	.LBB122:
 551              	.LBB123:
 552              	.LBB124:
 553              	.LBB125:
 554              	.LBB126:
 555              		.loc 2 493 0
 556 004a 2023     		movs	r3, #32
 557              	@ 493 "../../modules/ChibiOS/os/common/ext/ARM/CMSIS/Core/Include/cmsis_gcc.h" 1
 558 004c 83F31188 		MSR basepri, r3
 559              	@ 0 "" 2
 560              		.thumb
 561              	.LBE126:
 562              	.LBE125:
 563              	.LBE124:
 564              	.LBE123:
 565              		.loc 3 396 0
 566 0050 FFF7FEFF 		bl	_stats_start_measure_crit_isr
 567              	.LVL69:
 568              	.LBE122:
 569              	.LBE121:
 570              		.loc 1 384 0
ARM GAS  /tmp/cc8wh0mq.s 			page 11


 571 0054 0648     		ldr	r0, .L51+8
 572 0056 FFF7FEFF 		bl	sduWakeupHookI
 573              	.LVL70:
 574              	.L50:
 575              	.LBB127:
 576              	.LBB128:
 577              		.loc 3 416 0
 578 005a FFF7FEFF 		bl	_stats_stop_measure_crit_isr
 579              	.LVL71:
 580              	.LBB129:
 581              	.LBB130:
 582              	.LBB131:
 583              	.LBB132:
 584              		.loc 2 493 0
 585 005e 0023     		movs	r3, #0
 586              	@ 493 "../../modules/ChibiOS/os/common/ext/ARM/CMSIS/Core/Include/cmsis_gcc.h" 1
 587 0060 83F31188 		MSR basepri, r3
 588              	@ 0 "" 2
 589              	.LVL72:
 590              		.thumb
 591              	.L44:
 592 0064 10BD     		pop	{r4, pc}
 593              	.LVL73:
 594              	.L52:
 595 0066 00BF     		.align	2
 596              	.L51:
 597 0068 00000000 		.word	.LANCHOR4
 598 006c 00000000 		.word	.LANCHOR5
 599 0070 00000000 		.word	.LANCHOR3
 600              	.LBE132:
 601              	.LBE131:
 602              	.LBE130:
 603              	.LBE129:
 604              	.LBE128:
 605              	.LBE127:
 606              		.cfi_endproc
 607              	.LFE328:
 608              		.size	usb_event, .-usb_event
 609              		.section	.text.setup_usb_strings,"ax",%progbits
 610              		.align	1
 611              		.global	setup_usb_strings
 612              		.thumb
 613              		.thumb_func
 614              		.type	setup_usb_strings, %function
 615              	setup_usb_strings:
 616              	.LFB326:
 617              		.loc 1 268 0
 618              		.cfi_startproc
 619              		@ args = 0, pretend = 0, frame = 0
 620              		@ frame_needed = 0, uses_anonymous_args = 0
 621 0000 38B5     		push	{r3, r4, r5, lr}
 622              		.cfi_def_cfa_offset 16
 623              		.cfi_offset 3, -16
 624              		.cfi_offset 4, -12
 625              		.cfi_offset 5, -8
 626              		.cfi_offset 14, -4
 627              		.loc 1 269 0
ARM GAS  /tmp/cc8wh0mq.s 			page 12


 628 0002 0C4D     		ldr	r5, .L54
 629 0004 0C4C     		ldr	r4, .L54+4
 630 0006 0D49     		ldr	r1, .L54+8
 631 0008 05F10800 		add	r0, r5, #8
 632 000c 2246     		mov	r2, r4
 633 000e FFF7FEFF 		bl	setup_usb_string
 634              	.LVL74:
 635              		.loc 1 270 0
 636 0012 05F11000 		add	r0, r5, #16
 637 0016 04F1CA02 		add	r2, r4, #202
 638 001a 0949     		ldr	r1, .L54+12
 639 001c FFF7FEFF 		bl	setup_usb_string
 640              	.LVL75:
 641              		.loc 1 271 0
 642 0020 05F11800 		add	r0, r5, #24
 643 0024 04F5CA72 		add	r2, r4, #404
 644 0028 0649     		ldr	r1, .L54+16
 645              		.loc 1 272 0
 646 002a BDE83840 		pop	{r3, r4, r5, lr}
 647              		.cfi_restore 14
 648              		.cfi_restore 5
 649              		.cfi_restore 4
 650              		.cfi_restore 3
 651              		.cfi_def_cfa_offset 0
 652              		.loc 1 271 0
 653 002e FFF7FEBF 		b	setup_usb_string
 654              	.LVL76:
 655              	.L55:
 656 0032 00BF     		.align	2
 657              	.L54:
 658 0034 00000000 		.word	.LANCHOR2
 659 0038 00000000 		.word	.LANCHOR6
 660 003c 2C000000 		.word	.LC4
 661 0040 11000000 		.word	.LC2
 662 0044 08000000 		.word	.LC1
 663              		.cfi_endproc
 664              	.LFE326:
 665              		.size	setup_usb_strings, .-setup_usb_strings
 666              		.global	serusbcfg
 667              		.global	usbcfg
 668              		.global	SDU1
 669              		.section	.rodata.ep1config,"a",%progbits
 670              		.align	2
 671              		.set	.LANCHOR4,. + 0
 672              		.type	ep1config, %object
 673              		.size	ep1config, 36
 674              	ep1config:
 675 0000 02000000 		.word	2
 676 0004 00000000 		.word	0
 677 0008 00000000 		.word	sduDataTransmitted
 678 000c 00000000 		.word	sduDataReceived
 679 0010 4000     		.short	64
 680 0012 4000     		.short	64
 681 0014 00000000 		.word	ep1instate
 682 0018 00000000 		.word	ep1outstate
 683 001c 0200     		.short	2
 684 001e 0000     		.space	2
ARM GAS  /tmp/cc8wh0mq.s 			page 13


 685 0020 00000000 		.word	0
 686              		.section	.bss.ep2instate,"aw",%nobits
 687              		.align	2
 688              		.type	ep2instate, %object
 689              		.size	ep2instate, 16
 690              	ep2instate:
 691 0000 00000000 		.space	16
 691      00000000 
 691      00000000 
 691      00000000 
 692              		.section	.bss.SDU1,"aw",%nobits
 693              		.align	2
 694              		.set	.LANCHOR3,. + 0
 695              		.type	SDU1, %object
 696              		.size	SDU1, 1168
 697              	SDU1:
 698 0000 00000000 		.space	1168
 698      00000000 
 698      00000000 
 698      00000000 
 698      00000000 
 699              		.section	.bss.ep1instate,"aw",%nobits
 700              		.align	2
 701              		.type	ep1instate, %object
 702              		.size	ep1instate, 16
 703              	ep1instate:
 704 0000 00000000 		.space	16
 704      00000000 
 704      00000000 
 704      00000000 
 705              		.section	.data.vcom_strings,"aw",%progbits
 706              		.align	2
 707              		.set	.LANCHOR2,. + 0
 708              		.type	vcom_strings, %object
 709              		.size	vcom_strings, 32
 710              	vcom_strings:
 711 0000 04000000 		.word	4
 712 0004 00000000 		.word	vcom_string0
 713 0008 00000000 		.word	0
 714 000c 00000000 		.word	0
 715 0010 00000000 		.word	0
 716 0014 00000000 		.word	0
 717 0018 00000000 		.word	0
 718 001c 00000000 		.word	0
 719              		.section	.rodata.vcom_configuration_descriptor,"a",%progbits
 720              		.align	2
 721              		.set	.LANCHOR1,. + 0
 722              		.type	vcom_configuration_descriptor, %object
 723              		.size	vcom_configuration_descriptor, 8
 724              	vcom_configuration_descriptor:
 725 0000 43000000 		.word	67
 726 0004 00000000 		.word	vcom_configuration_descriptor_data
 727              		.section	.rodata.ep2config,"a",%progbits
 728              		.align	2
 729              		.set	.LANCHOR5,. + 0
 730              		.type	ep2config, %object
 731              		.size	ep2config, 36
ARM GAS  /tmp/cc8wh0mq.s 			page 14


 732              	ep2config:
 733 0000 03000000 		.word	3
 734 0004 00000000 		.word	0
 735 0008 00000000 		.word	sduInterruptTransmitted
 736 000c 00000000 		.word	0
 737 0010 1000     		.short	16
 738 0012 0000     		.short	0
 739 0014 00000000 		.word	ep2instate
 740 0018 00000000 		.word	0
 741 001c 0100     		.short	1
 742 001e 0000     		.space	2
 743 0020 00000000 		.word	0
 744              		.section	.rodata.str1.1,"aMS",%progbits,1
 745              	.LC0:
 746 0000 25424F41 		.ascii	"%BOARD%\000"
 746      52442500 
 747              	.LC1:
 748 0008 25534552 		.ascii	"%SERIAL%\000"
 748      49414C25 
 748      00
 749              	.LC2:
 750 0011 43756265 		.ascii	"CubeBlack\000"
 750      426C6163 
 750      6B00
 751              	.LC3:
 752 001b 30313233 		.ascii	"0123456789ABCDEF\000"
 752      34353637 
 752      38394142 
 752      43444546 
 752      00
 753              	.LC4:
 754 002c 4865782F 		.ascii	"Hex/ProfiCNC\000"
 754      50726F66 
 754      69434E43 
 754      00
 755              		.section	.rodata.usbcfg,"a",%progbits
 756              		.align	2
 757              		.type	usbcfg, %object
 758              		.size	usbcfg, 16
 759              	usbcfg:
 760 0000 00000000 		.word	usb_event
 761 0004 00000000 		.word	get_descriptor
 762 0008 00000000 		.word	sduRequestsHook
 763 000c 00000000 		.word	sof_handler
 764              		.section	.rodata.vcom_configuration_descriptor_data,"a",%progbits
 765              		.type	vcom_configuration_descriptor_data, %object
 766              		.size	vcom_configuration_descriptor_data, 67
 767              	vcom_configuration_descriptor_data:
 768 0000 09       		.byte	9
 769 0001 02       		.byte	2
 770 0002 43       		.byte	67
 771 0003 00       		.byte	0
 772 0004 02       		.byte	2
 773 0005 01       		.byte	1
 774 0006 00       		.byte	0
 775 0007 C0       		.byte	-64
 776 0008 32       		.byte	50
ARM GAS  /tmp/cc8wh0mq.s 			page 15


 777 0009 09       		.byte	9
 778 000a 04       		.byte	4
 779 000b 00       		.byte	0
 780 000c 00       		.byte	0
 781 000d 01       		.byte	1
 782 000e 02       		.byte	2
 783 000f 02       		.byte	2
 784 0010 01       		.byte	1
 785 0011 00       		.byte	0
 786 0012 05       		.byte	5
 787 0013 24       		.byte	36
 788 0014 00       		.byte	0
 789 0015 10       		.byte	16
 790 0016 01       		.byte	1
 791 0017 05       		.byte	5
 792 0018 24       		.byte	36
 793 0019 01       		.byte	1
 794 001a 00       		.byte	0
 795 001b 01       		.byte	1
 796 001c 04       		.byte	4
 797 001d 24       		.byte	36
 798 001e 02       		.byte	2
 799 001f 02       		.byte	2
 800 0020 05       		.byte	5
 801 0021 24       		.byte	36
 802 0022 06       		.byte	6
 803 0023 00       		.byte	0
 804 0024 01       		.byte	1
 805 0025 07       		.byte	7
 806 0026 05       		.byte	5
 807 0027 82       		.byte	-126
 808 0028 03       		.byte	3
 809 0029 08       		.byte	8
 810 002a 00       		.byte	0
 811 002b FF       		.byte	-1
 812 002c 09       		.byte	9
 813 002d 04       		.byte	4
 814 002e 01       		.byte	1
 815 002f 00       		.byte	0
 816 0030 02       		.byte	2
 817 0031 0A       		.byte	10
 818 0032 00       		.byte	0
 819 0033 00       		.byte	0
 820 0034 00       		.byte	0
 821 0035 07       		.byte	7
 822 0036 05       		.byte	5
 823 0037 01       		.byte	1
 824 0038 02       		.byte	2
 825 0039 40       		.byte	64
 826 003a 00       		.byte	0
 827 003b 00       		.byte	0
 828 003c 07       		.byte	7
 829 003d 05       		.byte	5
 830 003e 81       		.byte	-127
 831 003f 02       		.byte	2
 832 0040 40       		.byte	64
 833 0041 00       		.byte	0
ARM GAS  /tmp/cc8wh0mq.s 			page 16


 834 0042 00       		.byte	0
 835              		.section	.rodata.vcom_device_descriptor_data,"a",%progbits
 836              		.type	vcom_device_descriptor_data, %object
 837              		.size	vcom_device_descriptor_data, 18
 838              	vcom_device_descriptor_data:
 839 0000 12       		.byte	18
 840 0001 01       		.byte	1
 841 0002 10       		.byte	16
 842 0003 01       		.byte	1
 843 0004 02       		.byte	2
 844 0005 00       		.byte	0
 845 0006 00       		.byte	0
 846 0007 40       		.byte	64
 847 0008 AE       		.byte	-82
 848 0009 2D       		.byte	45
 849 000a 11       		.byte	17
 850 000b 10       		.byte	16
 851 000c 00       		.byte	0
 852 000d 02       		.byte	2
 853 000e 01       		.byte	1
 854 000f 02       		.byte	2
 855 0010 03       		.byte	3
 856 0011 01       		.byte	1
 857              		.section	.bss.ep1outstate,"aw",%nobits
 858              		.align	2
 859              		.type	ep1outstate, %object
 860              		.size	ep1outstate, 16
 861              	ep1outstate:
 862 0000 00000000 		.space	16
 862      00000000 
 862      00000000 
 862      00000000 
 863              		.section	.rodata.vcom_string0,"a",%progbits
 864              		.type	vcom_string0, %object
 865              		.size	vcom_string0, 4
 866              	vcom_string0:
 867 0000 04       		.byte	4
 868 0001 03       		.byte	3
 869 0002 09       		.byte	9
 870 0003 04       		.byte	4
 871              		.section	.bss.vcom_buffers,"aw",%nobits
 872              		.set	.LANCHOR6,. + 0
 873              		.type	vcom_buffers, %object
 874              		.size	vcom_buffers, 606
 875              	vcom_buffers:
 876 0000 00000000 		.space	606
 876      00000000 
 876      00000000 
 876      00000000 
 876      00000000 
 877              		.section	.rodata.serusbcfg,"a",%progbits
 878              		.align	2
 879              		.type	serusbcfg, %object
 880              		.size	serusbcfg, 8
 881              	serusbcfg:
 882 0000 00000000 		.word	USBD1
 883 0004 01       		.byte	1
ARM GAS  /tmp/cc8wh0mq.s 			page 17


 884 0005 01       		.byte	1
 885 0006 02       		.byte	2
 886 0007 00       		.space	1
 887              		.section	.rodata.vcom_device_descriptor,"a",%progbits
 888              		.align	2
 889              		.set	.LANCHOR0,. + 0
 890              		.type	vcom_device_descriptor, %object
 891              		.size	vcom_device_descriptor, 8
 892              	vcom_device_descriptor:
 893 0000 12000000 		.word	18
 894 0004 00000000 		.word	vcom_device_descriptor_data
 895              		.text
 896              	.Letext0:
 897              		.file 4 "/opt/gcc-arm-none-eabi-4_9-2015q3/lib/gcc/arm-none-eabi/4.9.3/include/stddef.h"
 898              		.file 5 "/opt/gcc-arm-none-eabi-4_9-2015q3/arm-none-eabi/include/machine/_default_types.h"
 899              		.file 6 "/opt/gcc-arm-none-eabi-4_9-2015q3/arm-none-eabi/include/sys/_stdint.h"
 900              		.file 7 "../../modules/ChibiOS/os/common/ports/ARMCMx/compilers/GCC/chtypes.h"
 901              		.file 8 "../../modules/ChibiOS/os/rt/include/chsystypes.h"
 902              		.file 9 "../../modules/ChibiOS/os/rt/include/chschd.h"
 903              		.file 10 "../../modules/ChibiOS/os/rt/include/chtime.h"
 904              		.file 11 "../../modules/ChibiOS/os/common/ports/ARMCMx/chcore.h"
 905              		.file 12 "../../modules/ChibiOS/os/common/ports/ARMCMx/chcore_v7m.h"
 906              		.file 13 "../../modules/ChibiOS/os/rt/include/chtm.h"
 907              		.file 14 "../../modules/ChibiOS/os/rt/include/chstats.h"
 908              		.file 15 "../../modules/ChibiOS/os/rt/include/chsem.h"
 909              		.file 16 "../../modules/ChibiOS/os/rt/include/chmtx.h"
 910              		.file 17 "../../modules/ChibiOS/os/rt/include/chevents.h"
 911              		.file 18 "../../modules/ChibiOS/os/hal/include/hal_buffers.h"
 912              		.file 19 "../../modules/ChibiOS/os/hal/include/hal_usb.h"
 913              		.file 20 "../../modules/ChibiOS/os/hal/ports/STM32/LLD/OTGv1/hal_usb_lld.h"
 914              		.file 21 "../../modules/ChibiOS/os/hal/ports/STM32/LLD/OTGv1/stm32_otg.h"
 915              		.file 22 "../../modules/ChibiOS/os/hal/include/hal_serial_usb.h"
 916              		.file 23 "../../modules/ChibiOS/os/hal/osal/rt/osal.h"
 917              		.file 24 "../../modules/ChibiOS/os/common/ext/ARM/CMSIS/Core/Include/core_cm4.h"
 918              		.file 25 "/opt/gcc-arm-none-eabi-4_9-2015q3/arm-none-eabi/include/string.h"